
Mikrocontroller.elf:     file format elf32-avr

Sections:
Idx Name          Size      VMA       LMA       File off  Algn
  0 .data         00000014  00800200  000008d2  00000966  2**0
                  CONTENTS, ALLOC, LOAD, DATA
  1 .text         000008d2  00000000  00000000  00000094  2**1
                  CONTENTS, ALLOC, LOAD, READONLY, CODE
  2 .bss          00000de0  00800214  00800214  0000097a  2**0
                  ALLOC
  3 .comment      00000030  00000000  00000000  0000097a  2**0
                  CONTENTS, READONLY
  4 .note.gnu.avr.deviceinfo 00000040  00000000  00000000  000009ac  2**2
                  CONTENTS, READONLY
  5 .debug_aranges 00000170  00000000  00000000  000009ec  2**0
                  CONTENTS, READONLY, DEBUGGING
  6 .debug_info   00002614  00000000  00000000  00000b5c  2**0
                  CONTENTS, READONLY, DEBUGGING
  7 .debug_abbrev 0000115b  00000000  00000000  00003170  2**0
                  CONTENTS, READONLY, DEBUGGING
  8 .debug_line   00000f9d  00000000  00000000  000042cb  2**0
                  CONTENTS, READONLY, DEBUGGING
  9 .debug_frame  00000400  00000000  00000000  00005268  2**2
                  CONTENTS, READONLY, DEBUGGING
 10 .debug_str    00000f92  00000000  00000000  00005668  2**0
                  CONTENTS, READONLY, DEBUGGING
 11 .debug_loc    00000a98  00000000  00000000  000065fa  2**0
                  CONTENTS, READONLY, DEBUGGING
 12 .debug_ranges 00000138  00000000  00000000  00007092  2**0
                  CONTENTS, READONLY, DEBUGGING

Disassembly of section .text:

00000000 <__vectors>:
   0:	78 c0       	rjmp	.+240    	; 0xf2 <__ctors_end>
   2:	00 00       	nop
   4:	95 c0       	rjmp	.+298    	; 0x130 <__bad_interrupt>
   6:	00 00       	nop
   8:	93 c0       	rjmp	.+294    	; 0x130 <__bad_interrupt>
   a:	00 00       	nop
   c:	91 c0       	rjmp	.+290    	; 0x130 <__bad_interrupt>
   e:	00 00       	nop
  10:	8f c0       	rjmp	.+286    	; 0x130 <__bad_interrupt>
  12:	00 00       	nop
  14:	8d c0       	rjmp	.+282    	; 0x130 <__bad_interrupt>
  16:	00 00       	nop
  18:	8b c0       	rjmp	.+278    	; 0x130 <__bad_interrupt>
  1a:	00 00       	nop
  1c:	89 c0       	rjmp	.+274    	; 0x130 <__bad_interrupt>
  1e:	00 00       	nop
  20:	87 c0       	rjmp	.+270    	; 0x130 <__bad_interrupt>
  22:	00 00       	nop
  24:	85 c0       	rjmp	.+266    	; 0x130 <__bad_interrupt>
  26:	00 00       	nop
  28:	83 c0       	rjmp	.+262    	; 0x130 <__bad_interrupt>
  2a:	00 00       	nop
  2c:	81 c0       	rjmp	.+258    	; 0x130 <__bad_interrupt>
  2e:	00 00       	nop
  30:	7f c0       	rjmp	.+254    	; 0x130 <__bad_interrupt>
  32:	00 00       	nop
  34:	7d c0       	rjmp	.+250    	; 0x130 <__bad_interrupt>
  36:	00 00       	nop
  38:	7b c0       	rjmp	.+246    	; 0x130 <__bad_interrupt>
  3a:	00 00       	nop
  3c:	79 c0       	rjmp	.+242    	; 0x130 <__bad_interrupt>
  3e:	00 00       	nop
  40:	77 c0       	rjmp	.+238    	; 0x130 <__bad_interrupt>
  42:	00 00       	nop
  44:	df c0       	rjmp	.+446    	; 0x204 <__vector_17>
  46:	00 00       	nop
  48:	e8 c0       	rjmp	.+464    	; 0x21a <__vector_18>
  4a:	00 00       	nop
  4c:	71 c0       	rjmp	.+226    	; 0x130 <__bad_interrupt>
  4e:	00 00       	nop
  50:	6f c0       	rjmp	.+222    	; 0x130 <__bad_interrupt>
  52:	00 00       	nop
  54:	17 c2       	rjmp	.+1070   	; 0x484 <__vector_21>
  56:	00 00       	nop
  58:	6b c0       	rjmp	.+214    	; 0x130 <__bad_interrupt>
  5a:	00 00       	nop
  5c:	69 c0       	rjmp	.+210    	; 0x130 <__bad_interrupt>
  5e:	00 00       	nop
  60:	67 c0       	rjmp	.+206    	; 0x130 <__bad_interrupt>
  62:	00 00       	nop
  64:	a7 c3       	rjmp	.+1870   	; 0x7b4 <__vector_25>
  66:	00 00       	nop
  68:	68 c3       	rjmp	.+1744   	; 0x73a <__vector_26>
  6a:	00 00       	nop
  6c:	61 c0       	rjmp	.+194    	; 0x130 <__bad_interrupt>
  6e:	00 00       	nop
  70:	5f c0       	rjmp	.+190    	; 0x130 <__bad_interrupt>
  72:	00 00       	nop
  74:	5d c0       	rjmp	.+186    	; 0x130 <__bad_interrupt>
  76:	00 00       	nop
  78:	5b c0       	rjmp	.+182    	; 0x130 <__bad_interrupt>
  7a:	00 00       	nop
  7c:	59 c0       	rjmp	.+178    	; 0x130 <__bad_interrupt>
  7e:	00 00       	nop
  80:	d7 c0       	rjmp	.+430    	; 0x230 <__vector_32>
  82:	00 00       	nop
  84:	e0 c0       	rjmp	.+448    	; 0x246 <__vector_33>
  86:	00 00       	nop
  88:	53 c0       	rjmp	.+166    	; 0x130 <__bad_interrupt>
  8a:	00 00       	nop
  8c:	51 c0       	rjmp	.+162    	; 0x130 <__bad_interrupt>
  8e:	00 00       	nop
  90:	4f c0       	rjmp	.+158    	; 0x130 <__bad_interrupt>
  92:	00 00       	nop
  94:	4d c0       	rjmp	.+154    	; 0x130 <__bad_interrupt>
  96:	00 00       	nop
  98:	4b c0       	rjmp	.+150    	; 0x130 <__bad_interrupt>
  9a:	00 00       	nop
  9c:	49 c0       	rjmp	.+146    	; 0x130 <__bad_interrupt>
  9e:	00 00       	nop
  a0:	47 c0       	rjmp	.+142    	; 0x130 <__bad_interrupt>
  a2:	00 00       	nop
  a4:	45 c0       	rjmp	.+138    	; 0x130 <__bad_interrupt>
  a6:	00 00       	nop
  a8:	d9 c0       	rjmp	.+434    	; 0x25c <__vector_42>
  aa:	00 00       	nop
  ac:	e2 c0       	rjmp	.+452    	; 0x272 <__vector_43>
  ae:	00 00       	nop
  b0:	3f c0       	rjmp	.+126    	; 0x130 <__bad_interrupt>
  b2:	00 00       	nop
  b4:	3d c0       	rjmp	.+122    	; 0x130 <__bad_interrupt>
  b6:	00 00       	nop
  b8:	3b c0       	rjmp	.+118    	; 0x130 <__bad_interrupt>
  ba:	00 00       	nop
  bc:	e5 c0       	rjmp	.+458    	; 0x288 <__vector_47>
  be:	00 00       	nop
  c0:	ee c0       	rjmp	.+476    	; 0x29e <__vector_48>
  c2:	00 00       	nop
  c4:	35 c0       	rjmp	.+106    	; 0x130 <__bad_interrupt>
  c6:	00 00       	nop
  c8:	33 c0       	rjmp	.+102    	; 0x130 <__bad_interrupt>
  ca:	00 00       	nop
  cc:	31 c0       	rjmp	.+98     	; 0x130 <__bad_interrupt>
  ce:	00 00       	nop
  d0:	2f c0       	rjmp	.+94     	; 0x130 <__bad_interrupt>
  d2:	00 00       	nop
  d4:	2d c0       	rjmp	.+90     	; 0x130 <__bad_interrupt>
  d6:	00 00       	nop
  d8:	2b c0       	rjmp	.+86     	; 0x130 <__bad_interrupt>
  da:	00 00       	nop
  dc:	29 c0       	rjmp	.+82     	; 0x130 <__bad_interrupt>
  de:	00 00       	nop
  e0:	27 c0       	rjmp	.+78     	; 0x130 <__bad_interrupt>
  e2:	00 00       	nop
  e4:	67 01       	movw	r12, r14
  e6:	87 01       	movw	r16, r14
  e8:	a6 01       	movw	r20, r12
  ea:	c6 01       	movw	r24, r12
  ec:	e5 01       	movw	r28, r10
  ee:	05 02       	muls	r16, r21
  f0:	21 02       	muls	r18, r17

000000f2 <__ctors_end>:
  f2:	11 24       	eor	r1, r1
  f4:	1f be       	out	0x3f, r1	; 63
  f6:	cf ef       	ldi	r28, 0xFF	; 255
  f8:	d1 e2       	ldi	r29, 0x21	; 33
  fa:	de bf       	out	0x3e, r29	; 62
  fc:	cd bf       	out	0x3d, r28	; 61
  fe:	00 e0       	ldi	r16, 0x00	; 0
 100:	0c bf       	out	0x3c, r16	; 60

00000102 <__do_copy_data>:
 102:	12 e0       	ldi	r17, 0x02	; 2
 104:	a0 e0       	ldi	r26, 0x00	; 0
 106:	b2 e0       	ldi	r27, 0x02	; 2
 108:	e2 ed       	ldi	r30, 0xD2	; 210
 10a:	f8 e0       	ldi	r31, 0x08	; 8
 10c:	00 e0       	ldi	r16, 0x00	; 0
 10e:	0b bf       	out	0x3b, r16	; 59
 110:	02 c0       	rjmp	.+4      	; 0x116 <__do_copy_data+0x14>
 112:	07 90       	elpm	r0, Z+
 114:	0d 92       	st	X+, r0
 116:	a4 31       	cpi	r26, 0x14	; 20
 118:	b1 07       	cpc	r27, r17
 11a:	d9 f7       	brne	.-10     	; 0x112 <__do_copy_data+0x10>

0000011c <__do_clear_bss>:
 11c:	2f e0       	ldi	r18, 0x0F	; 15
 11e:	a4 e1       	ldi	r26, 0x14	; 20
 120:	b2 e0       	ldi	r27, 0x02	; 2
 122:	01 c0       	rjmp	.+2      	; 0x126 <.do_clear_bss_start>

00000124 <.do_clear_bss_loop>:
 124:	1d 92       	st	X+, r1

00000126 <.do_clear_bss_start>:
 126:	a4 3f       	cpi	r26, 0xF4	; 244
 128:	b2 07       	cpc	r27, r18
 12a:	e1 f7       	brne	.-8      	; 0x124 <.do_clear_bss_loop>
 12c:	6e d3       	rcall	.+1756   	; 0x80a <main>
 12e:	cf c3       	rjmp	.+1950   	; 0x8ce <_exit>

00000130 <__bad_interrupt>:
 130:	67 cf       	rjmp	.-306    	; 0x0 <__vectors>

00000132 <PWM_init>:
    PWM_init();
}

void PWM_init(void)
{
    TIMER_CONTROL_REGISTER_A_RAINBOW |= (1<<WGM01);                 // CTC-Mode
 132:	84 b5       	in	r24, 0x24	; 36
 134:	82 60       	ori	r24, 0x02	; 2
 136:	84 bd       	out	0x24, r24	; 36
    TIMER_CONTROL_REGISTER_B_RAINBOW |= (1<<CS02)|(1<<CS00);        // Prescaler 1024
 138:	85 b5       	in	r24, 0x25	; 37
 13a:	85 60       	ori	r24, 0x05	; 5
 13c:	85 bd       	out	0x25, r24	; 37
    PWM_PERIOD_RAINBOW = 48;                                        // 160Hz
 13e:	80 e3       	ldi	r24, 0x30	; 48
 140:	87 bd       	out	0x27, r24	; 39
    INTERRUPT_MASK_REGISTER_RAINBOW |= (1<<OCIE0A);                 // Interrupt OCR0A
 142:	ee e6       	ldi	r30, 0x6E	; 110
 144:	f0 e0       	ldi	r31, 0x00	; 0
 146:	80 81       	ld	r24, Z
 148:	82 60       	ori	r24, 0x02	; 2
 14a:	80 83       	st	Z, r24

    TIMER_CONTROL_REGISTER_B_WHITE |= (1 << WGM12);                 // CTC-Mode, disabled
 14c:	e1 e8       	ldi	r30, 0x81	; 129
 14e:	f0 e0       	ldi	r31, 0x00	; 0
 150:	80 81       	ld	r24, Z
 152:	88 60       	ori	r24, 0x08	; 8
 154:	80 83       	st	Z, r24
    INTERRUPT_MASK_REGISTER_WHITE |= (1 << OCIE1A)|(1<<OCIE1B);     // Interrupt OCR1A, Interupt OCR1B
 156:	ef e6       	ldi	r30, 0x6F	; 111
 158:	f0 e0       	ldi	r31, 0x00	; 0
 15a:	80 81       	ld	r24, Z
 15c:	86 60       	ori	r24, 0x06	; 6
 15e:	80 83       	st	Z, r24
    PWM_PERIOD_WHITE = MAX_STEPS;                                   // 10kHz
 160:	80 e2       	ldi	r24, 0x20	; 32
 162:	93 e0       	ldi	r25, 0x03	; 3
 164:	90 93 89 00 	sts	0x0089, r25	; 0x800089 <__TEXT_REGION_LENGTH__+0x700089>
 168:	80 93 88 00 	sts	0x0088, r24	; 0x800088 <__TEXT_REGION_LENGTH__+0x700088>
    PWM_DUTY_WHITE = 400;                                             // Duty Cycle = 0;
 16c:	20 e9       	ldi	r18, 0x90	; 144
 16e:	31 e0       	ldi	r19, 0x01	; 1
 170:	30 93 8b 00 	sts	0x008B, r19	; 0x80008b <__TEXT_REGION_LENGTH__+0x70008b>
 174:	20 93 8a 00 	sts	0x008A, r18	; 0x80008a <__TEXT_REGION_LENGTH__+0x70008a>

    TIMER_CONTROL_REGISTER_B_RED |= (1 << WGM32)|(1 << CS30);       // CTC-Mode, prescaler 1
 178:	e1 e9       	ldi	r30, 0x91	; 145
 17a:	f0 e0       	ldi	r31, 0x00	; 0
 17c:	20 81       	ld	r18, Z
 17e:	29 60       	ori	r18, 0x09	; 9
 180:	20 83       	st	Z, r18
    INTERRUPT_MASK_REGISTER_RED |= (1 << OCIE3A)|(1<<OCIE3B);       // Interrupt OCR3A, Interrupt OCR3B
 182:	e1 e7       	ldi	r30, 0x71	; 113
 184:	f0 e0       	ldi	r31, 0x00	; 0
 186:	20 81       	ld	r18, Z
 188:	26 60       	ori	r18, 0x06	; 6
 18a:	20 83       	st	Z, r18
    PWM_PERIOD_RED = MAX_STEPS;                                     // 10kHz
 18c:	90 93 99 00 	sts	0x0099, r25	; 0x800099 <__TEXT_REGION_LENGTH__+0x700099>
 190:	80 93 98 00 	sts	0x0098, r24	; 0x800098 <__TEXT_REGION_LENGTH__+0x700098>
    PWM_DUTY_RED = 0;                                               // Duty-Cycle = 0;
 194:	10 92 9b 00 	sts	0x009B, r1	; 0x80009b <__TEXT_REGION_LENGTH__+0x70009b>
 198:	10 92 9a 00 	sts	0x009A, r1	; 0x80009a <__TEXT_REGION_LENGTH__+0x70009a>

    TIMER_CONTROL_REGISTER_B_GREEN |= (1 << WGM42)|(1 << CS40);     // CTC-Mode, prescaler 1
 19c:	e1 ea       	ldi	r30, 0xA1	; 161
 19e:	f0 e0       	ldi	r31, 0x00	; 0
 1a0:	20 81       	ld	r18, Z
 1a2:	29 60       	ori	r18, 0x09	; 9
 1a4:	20 83       	st	Z, r18
    INTERRUPT_MASK_REGISTER_GREEN |= (1 << OCIE4A)|(1<<OCIE4B);     // Interrupt OCR4A, Interrupt OCR4B
 1a6:	e2 e7       	ldi	r30, 0x72	; 114
 1a8:	f0 e0       	ldi	r31, 0x00	; 0
 1aa:	20 81       	ld	r18, Z
 1ac:	26 60       	ori	r18, 0x06	; 6
 1ae:	20 83       	st	Z, r18
    PWM_PERIOD_GREEN = MAX_STEPS;
 1b0:	90 93 a9 00 	sts	0x00A9, r25	; 0x8000a9 <__TEXT_REGION_LENGTH__+0x7000a9>
 1b4:	80 93 a8 00 	sts	0x00A8, r24	; 0x8000a8 <__TEXT_REGION_LENGTH__+0x7000a8>
    PWM_DUTY_GREEN = 0;
 1b8:	10 92 ab 00 	sts	0x00AB, r1	; 0x8000ab <__TEXT_REGION_LENGTH__+0x7000ab>
 1bc:	10 92 aa 00 	sts	0x00AA, r1	; 0x8000aa <__TEXT_REGION_LENGTH__+0x7000aa>

    TIMER_CONTROL_REGISTER_B_BLUE |= (1 << WGM52)|(1 << CS50);      // CTC-Mode, prescaler 1
 1c0:	e1 e2       	ldi	r30, 0x21	; 33
 1c2:	f1 e0       	ldi	r31, 0x01	; 1
 1c4:	20 81       	ld	r18, Z
 1c6:	29 60       	ori	r18, 0x09	; 9
 1c8:	20 83       	st	Z, r18
    INTERRUPT_MASK_REGISTER_BLUE |= (1 << OCIE5A)|(1<<OCIE5B);      // Interrupt OCR5A, Interrupt OCR5B
 1ca:	e3 e7       	ldi	r30, 0x73	; 115
 1cc:	f0 e0       	ldi	r31, 0x00	; 0
 1ce:	20 81       	ld	r18, Z
 1d0:	26 60       	ori	r18, 0x06	; 6
 1d2:	20 83       	st	Z, r18
    PWM_PERIOD_BLUE = MAX_STEPS;                                    // 10kHz
 1d4:	90 93 29 01 	sts	0x0129, r25	; 0x800129 <__TEXT_REGION_LENGTH__+0x700129>
 1d8:	80 93 28 01 	sts	0x0128, r24	; 0x800128 <__TEXT_REGION_LENGTH__+0x700128>
    PWM_DUTY_BLUE = 0;                                              // Duty-Cycle = 0;
 1dc:	10 92 2b 01 	sts	0x012B, r1	; 0x80012b <__TEXT_REGION_LENGTH__+0x70012b>
 1e0:	10 92 2a 01 	sts	0x012A, r1	; 0x80012a <__TEXT_REGION_LENGTH__+0x70012a>
 1e4:	08 95       	ret

000001e6 <init_LED>:
#include <util/delay.h>
#include "../UART/UART.h"

void init_LED(void)
{
    state = 6;
 1e6:	86 e0       	ldi	r24, 0x06	; 6
 1e8:	90 e0       	ldi	r25, 0x00	; 0
 1ea:	90 93 1c 03 	sts	0x031C, r25	; 0x80031c <state+0x1>
 1ee:	80 93 1b 03 	sts	0x031B, r24	; 0x80031b <state>
    rainbow_i = 0;
 1f2:	10 92 18 03 	sts	0x0318, r1	; 0x800318 <rainbow_i+0x1>
 1f6:	10 92 17 03 	sts	0x0317, r1	; 0x800317 <rainbow_i>
    light = RAINBOW_LED;
 1fa:	81 e0       	ldi	r24, 0x01	; 1
 1fc:	80 93 1d 03 	sts	0x031D, r24	; 0x80031d <light>
    PWM_init();
 200:	98 cf       	rjmp	.-208    	; 0x132 <PWM_init>
 202:	08 95       	ret

00000204 <__vector_17>:
    PWM_PERIOD_BLUE = MAX_STEPS;                                    // 10kHz
    PWM_DUTY_BLUE = 0;                                              // Duty-Cycle = 0;
}

ISR(TIMER1_COMPA_vect)
{
 204:	1f 92       	push	r1
 206:	0f 92       	push	r0
 208:	0f b6       	in	r0, 0x3f	; 63
 20a:	0f 92       	push	r0
 20c:	11 24       	eor	r1, r1
    LEDW_PORT |= (LEDW_BIT);
 20e:	8b 9a       	sbi	0x11, 3	; 17
}
 210:	0f 90       	pop	r0
 212:	0f be       	out	0x3f, r0	; 63
 214:	0f 90       	pop	r0
 216:	1f 90       	pop	r1
 218:	18 95       	reti

0000021a <__vector_18>:

ISR(TIMER1_COMPB_vect)
{
 21a:	1f 92       	push	r1
 21c:	0f 92       	push	r0
 21e:	0f b6       	in	r0, 0x3f	; 63
 220:	0f 92       	push	r0
 222:	11 24       	eor	r1, r1
    LEDW_PORT &= ~LEDW_BIT;
 224:	8b 98       	cbi	0x11, 3	; 17
}
 226:	0f 90       	pop	r0
 228:	0f be       	out	0x3f, r0	; 63
 22a:	0f 90       	pop	r0
 22c:	1f 90       	pop	r1
 22e:	18 95       	reti

00000230 <__vector_32>:

ISR(TIMER3_COMPA_vect)
{
 230:	1f 92       	push	r1
 232:	0f 92       	push	r0
 234:	0f b6       	in	r0, 0x3f	; 63
 236:	0f 92       	push	r0
 238:	11 24       	eor	r1, r1
    LEDR_PORT |= (LEDR_BIT);
 23a:	8e 9a       	sbi	0x11, 6	; 17
}
 23c:	0f 90       	pop	r0
 23e:	0f be       	out	0x3f, r0	; 63
 240:	0f 90       	pop	r0
 242:	1f 90       	pop	r1
 244:	18 95       	reti

00000246 <__vector_33>:

ISR(TIMER3_COMPB_vect)
{
 246:	1f 92       	push	r1
 248:	0f 92       	push	r0
 24a:	0f b6       	in	r0, 0x3f	; 63
 24c:	0f 92       	push	r0
 24e:	11 24       	eor	r1, r1
    LEDR_PORT &= ~LEDR_BIT;
 250:	8e 98       	cbi	0x11, 6	; 17
}
 252:	0f 90       	pop	r0
 254:	0f be       	out	0x3f, r0	; 63
 256:	0f 90       	pop	r0
 258:	1f 90       	pop	r1
 25a:	18 95       	reti

0000025c <__vector_42>:

ISR(TIMER4_COMPA_vect)
{
 25c:	1f 92       	push	r1
 25e:	0f 92       	push	r0
 260:	0f b6       	in	r0, 0x3f	; 63
 262:	0f 92       	push	r0
 264:	11 24       	eor	r1, r1
    LEDG_PORT |= (LEDG_BIT);
 266:	8d 9a       	sbi	0x11, 5	; 17
}
 268:	0f 90       	pop	r0
 26a:	0f be       	out	0x3f, r0	; 63
 26c:	0f 90       	pop	r0
 26e:	1f 90       	pop	r1
 270:	18 95       	reti

00000272 <__vector_43>:

ISR(TIMER4_COMPB_vect)
{
 272:	1f 92       	push	r1
 274:	0f 92       	push	r0
 276:	0f b6       	in	r0, 0x3f	; 63
 278:	0f 92       	push	r0
 27a:	11 24       	eor	r1, r1
    LEDG_PORT &= ~LEDG_BIT;
 27c:	8d 98       	cbi	0x11, 5	; 17
}
 27e:	0f 90       	pop	r0
 280:	0f be       	out	0x3f, r0	; 63
 282:	0f 90       	pop	r0
 284:	1f 90       	pop	r1
 286:	18 95       	reti

00000288 <__vector_47>:

ISR(TIMER5_COMPA_vect)
{
 288:	1f 92       	push	r1
 28a:	0f 92       	push	r0
 28c:	0f b6       	in	r0, 0x3f	; 63
 28e:	0f 92       	push	r0
 290:	11 24       	eor	r1, r1
    LEDB_PORT |= (LEDB_BIT);
 292:	8c 9a       	sbi	0x11, 4	; 17
}
 294:	0f 90       	pop	r0
 296:	0f be       	out	0x3f, r0	; 63
 298:	0f 90       	pop	r0
 29a:	1f 90       	pop	r1
 29c:	18 95       	reti

0000029e <__vector_48>:

ISR(TIMER5_COMPB_vect)
{
 29e:	1f 92       	push	r1
 2a0:	0f 92       	push	r0
 2a2:	0f b6       	in	r0, 0x3f	; 63
 2a4:	0f 92       	push	r0
 2a6:	11 24       	eor	r1, r1
    LEDB_PORT &= ~LEDB_BIT;
 2a8:	8c 98       	cbi	0x11, 4	; 17
}
 2aa:	0f 90       	pop	r0
 2ac:	0f be       	out	0x3f, r0	; 63
 2ae:	0f 90       	pop	r0
 2b0:	1f 90       	pop	r1
 2b2:	18 95       	reti

000002b4 <rainbow>:
void rainbow (void)
{
    switch (state)
 2b4:	e0 91 1b 03 	lds	r30, 0x031B	; 0x80031b <state>
 2b8:	f0 91 1c 03 	lds	r31, 0x031C	; 0x80031c <state+0x1>
 2bc:	e7 30       	cpi	r30, 0x07	; 7
 2be:	f1 05       	cpc	r31, r1
 2c0:	08 f0       	brcs	.+2      	; 0x2c4 <rainbow+0x10>
 2c2:	df c0       	rjmp	.+446    	; 0x482 <__LOCK_REGION_LENGTH__+0x82>
 2c4:	88 27       	eor	r24, r24
 2c6:	ee 58       	subi	r30, 0x8E	; 142
 2c8:	ff 4f       	sbci	r31, 0xFF	; 255
 2ca:	8f 4f       	sbci	r24, 0xFF	; 255
 2cc:	f8 c2       	rjmp	.+1520   	; 0x8be <__tablejump2__>
    {
    case 0:
        rainbow_i += STEP;
 2ce:	80 91 17 03 	lds	r24, 0x0317	; 0x800317 <rainbow_i>
 2d2:	90 91 18 03 	lds	r25, 0x0318	; 0x800318 <rainbow_i+0x1>
 2d6:	01 96       	adiw	r24, 0x01	; 1
 2d8:	90 93 18 03 	sts	0x0318, r25	; 0x800318 <rainbow_i+0x1>
 2dc:	80 93 17 03 	sts	0x0317, r24	; 0x800317 <rainbow_i>
        PWM_DUTY_RED = rainbow_i;
 2e0:	80 91 17 03 	lds	r24, 0x0317	; 0x800317 <rainbow_i>
 2e4:	90 91 18 03 	lds	r25, 0x0318	; 0x800318 <rainbow_i+0x1>
 2e8:	90 93 9b 00 	sts	0x009B, r25	; 0x80009b <__TEXT_REGION_LENGTH__+0x70009b>
 2ec:	80 93 9a 00 	sts	0x009A, r24	; 0x80009a <__TEXT_REGION_LENGTH__+0x70009a>
        if (rainbow_i == MAX_CNT)
 2f0:	80 91 17 03 	lds	r24, 0x0317	; 0x800317 <rainbow_i>
 2f4:	90 91 18 03 	lds	r25, 0x0318	; 0x800318 <rainbow_i+0x1>
 2f8:	8c 3b       	cpi	r24, 0xBC	; 188
 2fa:	92 40       	sbci	r25, 0x02	; 2
 2fc:	09 f0       	breq	.+2      	; 0x300 <rainbow+0x4c>
 2fe:	c1 c0       	rjmp	.+386    	; 0x482 <__LOCK_REGION_LENGTH__+0x82>
        {
            state = 1;
 300:	81 e0       	ldi	r24, 0x01	; 1
 302:	90 e0       	ldi	r25, 0x00	; 0
 304:	90 93 1c 03 	sts	0x031C, r25	; 0x80031c <state+0x1>
 308:	80 93 1b 03 	sts	0x031B, r24	; 0x80031b <state>
 30c:	08 95       	ret
        }
        break;

    case 1:
        rainbow_i -= STEP;
 30e:	80 91 17 03 	lds	r24, 0x0317	; 0x800317 <rainbow_i>
 312:	90 91 18 03 	lds	r25, 0x0318	; 0x800318 <rainbow_i+0x1>
 316:	01 97       	sbiw	r24, 0x01	; 1
 318:	90 93 18 03 	sts	0x0318, r25	; 0x800318 <rainbow_i+0x1>
 31c:	80 93 17 03 	sts	0x0317, r24	; 0x800317 <rainbow_i>
        PWM_DUTY_GREEN = rainbow_i;
 320:	80 91 17 03 	lds	r24, 0x0317	; 0x800317 <rainbow_i>
 324:	90 91 18 03 	lds	r25, 0x0318	; 0x800318 <rainbow_i+0x1>
 328:	90 93 ab 00 	sts	0x00AB, r25	; 0x8000ab <__TEXT_REGION_LENGTH__+0x7000ab>
 32c:	80 93 aa 00 	sts	0x00AA, r24	; 0x8000aa <__TEXT_REGION_LENGTH__+0x7000aa>
        if (rainbow_i == 0)
 330:	80 91 17 03 	lds	r24, 0x0317	; 0x800317 <rainbow_i>
 334:	90 91 18 03 	lds	r25, 0x0318	; 0x800318 <rainbow_i+0x1>
 338:	89 2b       	or	r24, r25
 33a:	09 f0       	breq	.+2      	; 0x33e <rainbow+0x8a>
 33c:	a2 c0       	rjmp	.+324    	; 0x482 <__LOCK_REGION_LENGTH__+0x82>
        {
            state = 2;
 33e:	82 e0       	ldi	r24, 0x02	; 2
 340:	90 e0       	ldi	r25, 0x00	; 0
 342:	90 93 1c 03 	sts	0x031C, r25	; 0x80031c <state+0x1>
 346:	80 93 1b 03 	sts	0x031B, r24	; 0x80031b <state>
 34a:	08 95       	ret
        }
        break;

    case 2:
        rainbow_i += STEP;
 34c:	80 91 17 03 	lds	r24, 0x0317	; 0x800317 <rainbow_i>
 350:	90 91 18 03 	lds	r25, 0x0318	; 0x800318 <rainbow_i+0x1>
 354:	01 96       	adiw	r24, 0x01	; 1
 356:	90 93 18 03 	sts	0x0318, r25	; 0x800318 <rainbow_i+0x1>
 35a:	80 93 17 03 	sts	0x0317, r24	; 0x800317 <rainbow_i>
        PWM_DUTY_BLUE = rainbow_i;
 35e:	80 91 17 03 	lds	r24, 0x0317	; 0x800317 <rainbow_i>
 362:	90 91 18 03 	lds	r25, 0x0318	; 0x800318 <rainbow_i+0x1>
 366:	90 93 2b 01 	sts	0x012B, r25	; 0x80012b <__TEXT_REGION_LENGTH__+0x70012b>
 36a:	80 93 2a 01 	sts	0x012A, r24	; 0x80012a <__TEXT_REGION_LENGTH__+0x70012a>
        if (rainbow_i == MAX_CNT)
 36e:	80 91 17 03 	lds	r24, 0x0317	; 0x800317 <rainbow_i>
 372:	90 91 18 03 	lds	r25, 0x0318	; 0x800318 <rainbow_i+0x1>
 376:	8c 3b       	cpi	r24, 0xBC	; 188
 378:	92 40       	sbci	r25, 0x02	; 2
 37a:	09 f0       	breq	.+2      	; 0x37e <rainbow+0xca>
 37c:	82 c0       	rjmp	.+260    	; 0x482 <__LOCK_REGION_LENGTH__+0x82>
        {
            state = 3;
 37e:	83 e0       	ldi	r24, 0x03	; 3
 380:	90 e0       	ldi	r25, 0x00	; 0
 382:	90 93 1c 03 	sts	0x031C, r25	; 0x80031c <state+0x1>
 386:	80 93 1b 03 	sts	0x031B, r24	; 0x80031b <state>
 38a:	08 95       	ret
        }
        break;

    case 3:
        rainbow_i -= STEP;
 38c:	80 91 17 03 	lds	r24, 0x0317	; 0x800317 <rainbow_i>
 390:	90 91 18 03 	lds	r25, 0x0318	; 0x800318 <rainbow_i+0x1>
 394:	01 97       	sbiw	r24, 0x01	; 1
 396:	90 93 18 03 	sts	0x0318, r25	; 0x800318 <rainbow_i+0x1>
 39a:	80 93 17 03 	sts	0x0317, r24	; 0x800317 <rainbow_i>
        PWM_DUTY_RED = rainbow_i;
 39e:	80 91 17 03 	lds	r24, 0x0317	; 0x800317 <rainbow_i>
 3a2:	90 91 18 03 	lds	r25, 0x0318	; 0x800318 <rainbow_i+0x1>
 3a6:	90 93 9b 00 	sts	0x009B, r25	; 0x80009b <__TEXT_REGION_LENGTH__+0x70009b>
 3aa:	80 93 9a 00 	sts	0x009A, r24	; 0x80009a <__TEXT_REGION_LENGTH__+0x70009a>
        if (rainbow_i == 0)
 3ae:	80 91 17 03 	lds	r24, 0x0317	; 0x800317 <rainbow_i>
 3b2:	90 91 18 03 	lds	r25, 0x0318	; 0x800318 <rainbow_i+0x1>
 3b6:	89 2b       	or	r24, r25
 3b8:	09 f0       	breq	.+2      	; 0x3bc <rainbow+0x108>
 3ba:	63 c0       	rjmp	.+198    	; 0x482 <__LOCK_REGION_LENGTH__+0x82>
        {
            state = 4;
 3bc:	84 e0       	ldi	r24, 0x04	; 4
 3be:	90 e0       	ldi	r25, 0x00	; 0
 3c0:	90 93 1c 03 	sts	0x031C, r25	; 0x80031c <state+0x1>
 3c4:	80 93 1b 03 	sts	0x031B, r24	; 0x80031b <state>
 3c8:	08 95       	ret
        }
        break;

    case 4:
        rainbow_i += STEP;
 3ca:	80 91 17 03 	lds	r24, 0x0317	; 0x800317 <rainbow_i>
 3ce:	90 91 18 03 	lds	r25, 0x0318	; 0x800318 <rainbow_i+0x1>
 3d2:	01 96       	adiw	r24, 0x01	; 1
 3d4:	90 93 18 03 	sts	0x0318, r25	; 0x800318 <rainbow_i+0x1>
 3d8:	80 93 17 03 	sts	0x0317, r24	; 0x800317 <rainbow_i>
        PWM_DUTY_GREEN = rainbow_i;
 3dc:	80 91 17 03 	lds	r24, 0x0317	; 0x800317 <rainbow_i>
 3e0:	90 91 18 03 	lds	r25, 0x0318	; 0x800318 <rainbow_i+0x1>
 3e4:	90 93 ab 00 	sts	0x00AB, r25	; 0x8000ab <__TEXT_REGION_LENGTH__+0x7000ab>
 3e8:	80 93 aa 00 	sts	0x00AA, r24	; 0x8000aa <__TEXT_REGION_LENGTH__+0x7000aa>
        if (rainbow_i == MAX_CNT)
 3ec:	80 91 17 03 	lds	r24, 0x0317	; 0x800317 <rainbow_i>
 3f0:	90 91 18 03 	lds	r25, 0x0318	; 0x800318 <rainbow_i+0x1>
 3f4:	8c 3b       	cpi	r24, 0xBC	; 188
 3f6:	92 40       	sbci	r25, 0x02	; 2
 3f8:	09 f0       	breq	.+2      	; 0x3fc <rainbow+0x148>
 3fa:	43 c0       	rjmp	.+134    	; 0x482 <__LOCK_REGION_LENGTH__+0x82>
        {
            state = 5;
 3fc:	85 e0       	ldi	r24, 0x05	; 5
 3fe:	90 e0       	ldi	r25, 0x00	; 0
 400:	90 93 1c 03 	sts	0x031C, r25	; 0x80031c <state+0x1>
 404:	80 93 1b 03 	sts	0x031B, r24	; 0x80031b <state>
 408:	08 95       	ret
        }
        break;

    case 5:
        rainbow_i -= STEP;
 40a:	80 91 17 03 	lds	r24, 0x0317	; 0x800317 <rainbow_i>
 40e:	90 91 18 03 	lds	r25, 0x0318	; 0x800318 <rainbow_i+0x1>
 412:	01 97       	sbiw	r24, 0x01	; 1
 414:	90 93 18 03 	sts	0x0318, r25	; 0x800318 <rainbow_i+0x1>
 418:	80 93 17 03 	sts	0x0317, r24	; 0x800317 <rainbow_i>
        PWM_DUTY_BLUE = rainbow_i;
 41c:	80 91 17 03 	lds	r24, 0x0317	; 0x800317 <rainbow_i>
 420:	90 91 18 03 	lds	r25, 0x0318	; 0x800318 <rainbow_i+0x1>
 424:	90 93 2b 01 	sts	0x012B, r25	; 0x80012b <__TEXT_REGION_LENGTH__+0x70012b>
 428:	80 93 2a 01 	sts	0x012A, r24	; 0x80012a <__TEXT_REGION_LENGTH__+0x70012a>
        if (rainbow_i == 0)
 42c:	80 91 17 03 	lds	r24, 0x0317	; 0x800317 <rainbow_i>
 430:	90 91 18 03 	lds	r25, 0x0318	; 0x800318 <rainbow_i+0x1>
 434:	89 2b       	or	r24, r25
 436:	29 f5       	brne	.+74     	; 0x482 <__LOCK_REGION_LENGTH__+0x82>
        {
            state = 0;
 438:	10 92 1c 03 	sts	0x031C, r1	; 0x80031c <state+0x1>
 43c:	10 92 1b 03 	sts	0x031B, r1	; 0x80031b <state>
 440:	08 95       	ret
        }
        break;

    case 6:
        rainbow_i += STEP;
 442:	80 91 17 03 	lds	r24, 0x0317	; 0x800317 <rainbow_i>
 446:	90 91 18 03 	lds	r25, 0x0318	; 0x800318 <rainbow_i+0x1>
 44a:	01 96       	adiw	r24, 0x01	; 1
 44c:	90 93 18 03 	sts	0x0318, r25	; 0x800318 <rainbow_i+0x1>
 450:	80 93 17 03 	sts	0x0317, r24	; 0x800317 <rainbow_i>
        PWM_DUTY_GREEN = rainbow_i;
 454:	80 91 17 03 	lds	r24, 0x0317	; 0x800317 <rainbow_i>
 458:	90 91 18 03 	lds	r25, 0x0318	; 0x800318 <rainbow_i+0x1>
 45c:	90 93 ab 00 	sts	0x00AB, r25	; 0x8000ab <__TEXT_REGION_LENGTH__+0x7000ab>
 460:	80 93 aa 00 	sts	0x00AA, r24	; 0x8000aa <__TEXT_REGION_LENGTH__+0x7000aa>
        if (rainbow_i == MAX_CNT)
 464:	80 91 17 03 	lds	r24, 0x0317	; 0x800317 <rainbow_i>
 468:	90 91 18 03 	lds	r25, 0x0318	; 0x800318 <rainbow_i+0x1>
 46c:	8c 3b       	cpi	r24, 0xBC	; 188
 46e:	92 40       	sbci	r25, 0x02	; 2
 470:	41 f4       	brne	.+16     	; 0x482 <__LOCK_REGION_LENGTH__+0x82>
        {
            state = 0;
 472:	10 92 1c 03 	sts	0x031C, r1	; 0x80031c <state+0x1>
 476:	10 92 1b 03 	sts	0x031B, r1	; 0x80031b <state>
            rainbow_i = 0;
 47a:	10 92 18 03 	sts	0x0318, r1	; 0x800318 <rainbow_i+0x1>
 47e:	10 92 17 03 	sts	0x0317, r1	; 0x800317 <rainbow_i>
 482:	08 95       	ret

00000484 <__vector_21>:
        break;
    }
}

ISR(TIMER0_COMPA_vect)
{
 484:	1f 92       	push	r1
 486:	0f 92       	push	r0
 488:	0f b6       	in	r0, 0x3f	; 63
 48a:	0f 92       	push	r0
 48c:	11 24       	eor	r1, r1
 48e:	0b b6       	in	r0, 0x3b	; 59
 490:	0f 92       	push	r0
 492:	2f 93       	push	r18
 494:	3f 93       	push	r19
 496:	4f 93       	push	r20
 498:	5f 93       	push	r21
 49a:	6f 93       	push	r22
 49c:	7f 93       	push	r23
 49e:	8f 93       	push	r24
 4a0:	9f 93       	push	r25
 4a2:	af 93       	push	r26
 4a4:	bf 93       	push	r27
 4a6:	ef 93       	push	r30
 4a8:	ff 93       	push	r31
    switch (light)
 4aa:	80 91 1d 03 	lds	r24, 0x031D	; 0x80031d <light>
 4ae:	81 30       	cpi	r24, 0x01	; 1
 4b0:	09 f4       	brne	.+2      	; 0x4b4 <__vector_21+0x30>
    {
    case RAINBOW_LED:
        // Rainbow-Algorithmus
        rainbow();
 4b2:	00 df       	rcall	.-512    	; 0x2b4 <rainbow>
        break;
		
    case WEISS_LED:
        break;
    }
}
 4b4:	ff 91       	pop	r31
 4b6:	ef 91       	pop	r30
 4b8:	bf 91       	pop	r27
 4ba:	af 91       	pop	r26
 4bc:	9f 91       	pop	r25
 4be:	8f 91       	pop	r24
 4c0:	7f 91       	pop	r23
 4c2:	6f 91       	pop	r22
 4c4:	5f 91       	pop	r21
 4c6:	4f 91       	pop	r20
 4c8:	3f 91       	pop	r19
 4ca:	2f 91       	pop	r18
 4cc:	0f 90       	pop	r0
 4ce:	0b be       	out	0x3b, r0	; 59
 4d0:	0f 90       	pop	r0
 4d2:	0f be       	out	0x3f, r0	; 63
 4d4:	0f 90       	pop	r0
 4d6:	1f 90       	pop	r1
 4d8:	18 95       	reti

000004da <IO_init>:

//Init_IO

void IO_init(void)
{
    LED_DDR = LED_OUTPUT_MASK;
 4da:	88 e7       	ldi	r24, 0x78	; 120
 4dc:	80 bb       	out	0x10, r24	; 16
	process = 0;
 4de:	10 92 2a 09 	sts	0x092A, r1	; 0x80092a <process>
 4e2:	10 92 2b 09 	sts	0x092B, r1	; 0x80092b <process+0x1>
 4e6:	10 92 2c 09 	sts	0x092C, r1	; 0x80092c <process+0x2>
 4ea:	10 92 2d 09 	sts	0x092D, r1	; 0x80092d <process+0x3>
 4ee:	08 95       	ret

000004f0 <interfaces_init>:
}

void interfaces_init(void)
{
// Initialisierungen Interfaces
    IO_init();                                              // Ein-/Ausgangspins initialisieren
 4f0:	f4 df       	rcall	.-24     	; 0x4da <IO_init>
    UART_init();                                            // UART-Schnittstelle initialisieren
 4f2:	d6 c0       	rjmp	.+428    	; 0x6a0 <UART_init>
 4f4:	08 95       	ret

000004f6 <check_Communication_Input_UART_0>:
 4f6:	1f 93       	push	r17
}

char check_Communication_Input_UART_0(void)
{
 4f8:	cf 93       	push	r28
 4fa:	df 93       	push	r29
    char ret = 0;
 4fc:	d0 e0       	ldi	r29, 0x00	; 0
        }
        else
        {
            INPUT_UART_0[cntr_UART_0]=ch;
            cntr_UART_0++;
            ret = 0;
 4fe:	c0 e0       	ldi	r28, 0x00	; 0
        if (ch == 13)
        {
            INPUT_UART_0[cntr_UART_0] = 0;
            cntr_UART_0 = 0;
            cntr_End_UART_0 = 0;
            ret = 1;
 500:	11 e0       	ldi	r17, 0x01	; 1

char check_Communication_Input_UART_0(void)
{
    char ret = 0;
    // Check Buffer auf Einkommende Daten
    while(RB_length(&rb_rx_PC)>0)
 502:	1c c0       	rjmp	.+56     	; 0x53c <check_Communication_Input_UART_0+0x46>
    {
        unsigned char ch = RB_readByte(&rb_rx_PC);
 504:	85 e2       	ldi	r24, 0x25	; 37
 506:	96 e0       	ldi	r25, 0x06	; 6
 508:	65 d0       	rcall	.+202    	; 0x5d4 <RB_readByte>
        if (ch == 13)
 50a:	8d 30       	cpi	r24, 0x0D	; 13
 50c:	61 f4       	brne	.+24     	; 0x526 <check_Communication_Input_UART_0+0x30>
        {
            INPUT_UART_0[cntr_UART_0] = 0;
 50e:	e0 91 15 02 	lds	r30, 0x0215	; 0x800215 <cntr_UART_0>
 512:	f0 e0       	ldi	r31, 0x00	; 0
 514:	e5 5a       	subi	r30, 0xA5	; 165
 516:	f6 4f       	sbci	r31, 0xF6	; 246
 518:	10 82       	st	Z, r1
            cntr_UART_0 = 0;
 51a:	c0 93 15 02 	sts	0x0215, r28	; 0x800215 <cntr_UART_0>
            cntr_End_UART_0 = 0;
 51e:	c0 93 14 02 	sts	0x0214, r28	; 0x800214 <__data_end>
            ret = 1;
 522:	d1 2f       	mov	r29, r17
 524:	0b c0       	rjmp	.+22     	; 0x53c <check_Communication_Input_UART_0+0x46>
        }
        else
        {
            INPUT_UART_0[cntr_UART_0]=ch;
 526:	90 91 15 02 	lds	r25, 0x0215	; 0x800215 <cntr_UART_0>
 52a:	e9 2f       	mov	r30, r25
 52c:	f0 e0       	ldi	r31, 0x00	; 0
 52e:	e5 5a       	subi	r30, 0xA5	; 165
 530:	f6 4f       	sbci	r31, 0xF6	; 246
 532:	80 83       	st	Z, r24
            cntr_UART_0++;
 534:	9f 5f       	subi	r25, 0xFF	; 255
 536:	90 93 15 02 	sts	0x0215, r25	; 0x800215 <cntr_UART_0>
            ret = 0;
 53a:	dc 2f       	mov	r29, r28

char check_Communication_Input_UART_0(void)
{
    char ret = 0;
    // Check Buffer auf Einkommende Daten
    while(RB_length(&rb_rx_PC)>0)
 53c:	85 e2       	ldi	r24, 0x25	; 37
 53e:	96 e0       	ldi	r25, 0x06	; 6
 540:	3d d0       	rcall	.+122    	; 0x5bc <RB_length>
 542:	81 11       	cpse	r24, r1
 544:	df cf       	rjmp	.-66     	; 0x504 <check_Communication_Input_UART_0+0xe>
            cntr_UART_0++;
            ret = 0;
        }
    }
    return ret;
}
 546:	8d 2f       	mov	r24, r29
 548:	df 91       	pop	r29
 54a:	cf 91       	pop	r28
 54c:	1f 91       	pop	r17
 54e:	08 95       	ret

00000550 <proceed_Communication_Input_UART_0>:


void proceed_Communication_Input_UART_0(void)
{
	char * ch = "Proceed UART 0: \n\r";
	Uart_Transmit_IT_PC(ch);
 550:	80 e0       	ldi	r24, 0x00	; 0
 552:	92 e0       	ldi	r25, 0x02	; 2
 554:	e0 d0       	rcall	.+448    	; 0x716 <Uart_Transmit_IT_PC>
	
	
	if (INPUT_UART_0[0]=='0')
 556:	80 91 5b 09 	lds	r24, 0x095B	; 0x80095b <INPUT_UART_0>
 55a:	80 33       	cpi	r24, 0x30	; 48
 55c:	69 f4       	brne	.+26     	; 0x578 <proceed_Communication_Input_UART_0+0x28>
	{
		process = 1;
 55e:	81 e0       	ldi	r24, 0x01	; 1
 560:	90 e0       	ldi	r25, 0x00	; 0
 562:	a0 e0       	ldi	r26, 0x00	; 0
 564:	b0 e0       	ldi	r27, 0x00	; 0
 566:	80 93 2a 09 	sts	0x092A, r24	; 0x80092a <process>
 56a:	90 93 2b 09 	sts	0x092B, r25	; 0x80092b <process+0x1>
 56e:	a0 93 2c 09 	sts	0x092C, r26	; 0x80092c <process+0x2>
 572:	b0 93 2d 09 	sts	0x092D, r27	; 0x80092d <process+0x3>
 576:	08 95       	ret
	}
	else if (INPUT_UART_0[0]=='1')
 578:	81 33       	cpi	r24, 0x31	; 49
 57a:	61 f4       	brne	.+24     	; 0x594 <proceed_Communication_Input_UART_0+0x44>
	{
		process = 2;
 57c:	82 e0       	ldi	r24, 0x02	; 2
 57e:	90 e0       	ldi	r25, 0x00	; 0
 580:	a0 e0       	ldi	r26, 0x00	; 0
 582:	b0 e0       	ldi	r27, 0x00	; 0
 584:	80 93 2a 09 	sts	0x092A, r24	; 0x80092a <process>
 588:	90 93 2b 09 	sts	0x092B, r25	; 0x80092b <process+0x1>
 58c:	a0 93 2c 09 	sts	0x092C, r26	; 0x80092c <process+0x2>
 590:	b0 93 2d 09 	sts	0x092D, r27	; 0x80092d <process+0x3>
 594:	08 95       	ret

00000596 <check_Communication_Input_UART>:
	}
}

void check_Communication_Input_UART(void)
{
    if (check_Communication_Input_UART_0())             // Check UART_0 (USB), ob vollständige Übertragung stattgefunden hat (Ende = "\r")
 596:	af df       	rcall	.-162    	; 0x4f6 <check_Communication_Input_UART_0>
 598:	81 11       	cpse	r24, r1
    {
        proceed_Communication_Input_UART_0();               // Vollständige Übertragung des USB verarbeiten
 59a:	da cf       	rjmp	.-76     	; 0x550 <proceed_Communication_Input_UART_0>
 59c:	08 95       	ret

0000059e <RB_init>:
 59e:	fc 01       	movw	r30, r24
        }
    }
    rb->tail = tail;

    return 1;
}
 5a0:	11 82       	std	Z+1, r1	; 0x01
 5a2:	10 82       	st	Z, r1
 5a4:	08 95       	ret

000005a6 <RB_free>:
 5a6:	fc 01       	movw	r30, r24
 5a8:	90 81       	ld	r25, Z
 5aa:	81 81       	ldd	r24, Z+1	; 0x01
 5ac:	98 17       	cp	r25, r24
 5ae:	20 f0       	brcs	.+8      	; 0x5b8 <RB_free+0x12>
 5b0:	98 1b       	sub	r25, r24
 5b2:	89 2f       	mov	r24, r25
 5b4:	80 95       	com	r24
 5b6:	08 95       	ret
 5b8:	89 1b       	sub	r24, r25
 5ba:	08 95       	ret

000005bc <RB_length>:
 5bc:	fc 01       	movw	r30, r24
 5be:	20 81       	ld	r18, Z
 5c0:	91 81       	ldd	r25, Z+1	; 0x01
 5c2:	29 17       	cp	r18, r25
 5c4:	18 f0       	brcs	.+6      	; 0x5cc <RB_length+0x10>
 5c6:	82 2f       	mov	r24, r18
 5c8:	89 1b       	sub	r24, r25
 5ca:	08 95       	ret
 5cc:	89 2f       	mov	r24, r25
 5ce:	82 1b       	sub	r24, r18
 5d0:	80 95       	com	r24
 5d2:	08 95       	ret

000005d4 <RB_readByte>:
 5d4:	cf 93       	push	r28
 5d6:	df 93       	push	r29
 5d8:	ec 01       	movw	r28, r24
 5da:	f0 df       	rcall	.-32     	; 0x5bc <RB_length>
 5dc:	88 23       	and	r24, r24
 5de:	59 f0       	breq	.+22     	; 0x5f6 <RB_readByte+0x22>
 5e0:	89 81       	ldd	r24, Y+1	; 0x01
 5e2:	91 e0       	ldi	r25, 0x01	; 1
 5e4:	98 0f       	add	r25, r24
 5e6:	fe 01       	movw	r30, r28
 5e8:	e8 0f       	add	r30, r24
 5ea:	f1 1d       	adc	r31, r1
 5ec:	82 81       	ldd	r24, Z+2	; 0x02
 5ee:	9f 3f       	cpi	r25, 0xFF	; 255
 5f0:	09 f4       	brne	.+2      	; 0x5f4 <RB_readByte+0x20>
 5f2:	90 e0       	ldi	r25, 0x00	; 0
 5f4:	99 83       	std	Y+1, r25	; 0x01
 5f6:	df 91       	pop	r29
 5f8:	cf 91       	pop	r28
 5fa:	08 95       	ret

000005fc <RB_writeByte>:
 5fc:	0f 93       	push	r16
 5fe:	1f 93       	push	r17
 600:	cf 93       	push	r28
 602:	df 93       	push	r29
 604:	ec 01       	movw	r28, r24
 606:	16 2f       	mov	r17, r22
 608:	08 81       	ld	r16, Y
 60a:	cd df       	rcall	.-102    	; 0x5a6 <RB_free>
 60c:	88 23       	and	r24, r24
 60e:	f1 f3       	breq	.-4      	; 0x60c <RB_writeByte+0x10>
 610:	11 11       	cpse	r17, r1
 612:	01 c0       	rjmp	.+2      	; 0x616 <RB_writeByte+0x1a>
 614:	1f ef       	ldi	r17, 0xFF	; 255
 616:	81 e0       	ldi	r24, 0x01	; 1
 618:	80 0f       	add	r24, r16
 61a:	fe 01       	movw	r30, r28
 61c:	e0 0f       	add	r30, r16
 61e:	f1 1d       	adc	r31, r1
 620:	12 83       	std	Z+2, r17	; 0x02
 622:	8f 3f       	cpi	r24, 0xFF	; 255
 624:	09 f4       	brne	.+2      	; 0x628 <RB_writeByte+0x2c>
 626:	80 e0       	ldi	r24, 0x00	; 0
 628:	88 83       	st	Y, r24
 62a:	81 e0       	ldi	r24, 0x01	; 1
 62c:	df 91       	pop	r29
 62e:	cf 91       	pop	r28
 630:	1f 91       	pop	r17
 632:	0f 91       	pop	r16
 634:	08 95       	ret

00000636 <RB_write>:

unsigned char RB_write( ring_buffer_t *rb, char *data, unsigned char datal )
{
 636:	ff 92       	push	r15
 638:	0f 93       	push	r16
 63a:	1f 93       	push	r17
 63c:	cf 93       	push	r28
 63e:	df 93       	push	r29
    unsigned char head;

    head = rb->head;

    if (datal == 0)
 640:	44 23       	and	r20, r20
 642:	d9 f0       	breq	.+54     	; 0x67a <RB_write+0x44>
 644:	c4 2f       	mov	r28, r20
 646:	d7 2f       	mov	r29, r23
 648:	f6 2e       	mov	r15, r22
 64a:	8c 01       	movw	r16, r24
    {
        return  0;
    }

    while(RB_free(rb) < datal);
 64c:	ac df       	rcall	.-168    	; 0x5a6 <RB_free>
 64e:	8c 17       	cp	r24, r28
 650:	f0 f3       	brcs	.-4      	; 0x64e <RB_write+0x18>
 652:	15 c0       	rjmp	.+42     	; 0x67e <RB_write+0x48>

    while(datal--)
    {
        rb->data[head++] = *data++;
 654:	21 e0       	ldi	r18, 0x01	; 1
 656:	29 0f       	add	r18, r25
 658:	31 91       	ld	r19, Z+
 65a:	d8 01       	movw	r26, r16
 65c:	a9 0f       	add	r26, r25
 65e:	b1 1d       	adc	r27, r1
 660:	12 96       	adiw	r26, 0x02	; 2
 662:	3c 93       	st	X, r19
        if (head >= RING_BUFFER_SIZE)
 664:	2f 3f       	cpi	r18, 0xFF	; 255
 666:	11 f4       	brne	.+4      	; 0x66c <RB_write+0x36>
        {
            head = 0;
 668:	98 2f       	mov	r25, r24
 66a:	01 c0       	rjmp	.+2      	; 0x66e <RB_write+0x38>

    while(RB_free(rb) < datal);

    while(datal--)
    {
        rb->data[head++] = *data++;
 66c:	92 2f       	mov	r25, r18
        return  0;
    }

    while(RB_free(rb) < datal);

    while(datal--)
 66e:	41 50       	subi	r20, 0x01	; 1
 670:	88 f7       	brcc	.-30     	; 0x654 <RB_write+0x1e>
        {
            head = 0;
        }
    }

    rb->head = head;
 672:	f8 01       	movw	r30, r16
 674:	90 83       	st	Z, r25

    return 1;
 676:	81 e0       	ldi	r24, 0x01	; 1
 678:	0a c0       	rjmp	.+20     	; 0x68e <RB_write+0x58>

    head = rb->head;

    if (datal == 0)
    {
        return  0;
 67a:	80 e0       	ldi	r24, 0x00	; 0
 67c:	08 c0       	rjmp	.+16     	; 0x68e <RB_write+0x58>

unsigned char RB_write( ring_buffer_t *rb, char *data, unsigned char datal )
{
    unsigned char head;

    head = rb->head;
 67e:	f8 01       	movw	r30, r16
 680:	90 81       	ld	r25, Z
        return  0;
    }

    while(RB_free(rb) < datal);

    while(datal--)
 682:	4f ef       	ldi	r20, 0xFF	; 255
 684:	4c 0f       	add	r20, r28
 686:	ef 2d       	mov	r30, r15
 688:	fd 2f       	mov	r31, r29
    {
        rb->data[head++] = *data++;
        if (head >= RING_BUFFER_SIZE)
        {
            head = 0;
 68a:	80 e0       	ldi	r24, 0x00	; 0
 68c:	e3 cf       	rjmp	.-58     	; 0x654 <RB_write+0x1e>
    }

    rb->head = head;

    return 1;
}
 68e:	df 91       	pop	r29
 690:	cf 91       	pop	r28
 692:	1f 91       	pop	r17
 694:	0f 91       	pop	r16
 696:	ff 90       	pop	r15
 698:	08 95       	ret

0000069a <tx_completed>:
void tx_completed()
{
    /*
        - Warte zwei Arbeitsschritte (Nulloperation) wenn Übertragung zu Ende
    */
    asm("nop");
 69a:	00 00       	nop
    asm("nop");
 69c:	00 00       	nop
 69e:	08 95       	ret

000006a0 <UART_init>:




void UART_init()
{
 6a0:	cf 93       	push	r28
 6a2:	df 93       	push	r29
#define BRC74880 ((F_CPU/16/BAUD74880) -1)
    /******************************************************************************************************************************/


    /******************************************************************************************************************************/
    UBRR0H = (BRC57600>>8);                                      // Baudrate Register1 (9600) UART0
 6a4:	10 92 c5 00 	sts	0x00C5, r1	; 0x8000c5 <__TEXT_REGION_LENGTH__+0x7000c5>
    UBRR0L = (BRC57600);                                         // Baudrate Register2 (9600) UART0
 6a8:	80 e1       	ldi	r24, 0x10	; 16
 6aa:	80 93 c4 00 	sts	0x00C4, r24	; 0x8000c4 <__TEXT_REGION_LENGTH__+0x7000c4>
    UCSR0B = (1<<RXEN0)|(1<<TXEN0);                             // Enable RX und TX UART 0
 6ae:	c1 ec       	ldi	r28, 0xC1	; 193
 6b0:	d0 e0       	ldi	r29, 0x00	; 0
 6b2:	98 e1       	ldi	r25, 0x18	; 24
 6b4:	98 83       	st	Y, r25
    UCSR0C = (1<<UCSZ00)|(1<<UCSZ01);                           // Übertragene Bits: 8 und parity disabled UART0
 6b6:	86 e0       	ldi	r24, 0x06	; 6
 6b8:	80 93 c2 00 	sts	0x00C2, r24	; 0x8000c2 <__TEXT_REGION_LENGTH__+0x7000c2>

    UBRR1H = (BRC9600>>8);                                      // Baudrate Register1 (9600) UART1
 6bc:	10 92 cd 00 	sts	0x00CD, r1	; 0x8000cd <__TEXT_REGION_LENGTH__+0x7000cd>
    UBRR1L = BRC9600;                                           // Baudrate Register2 (9600) UART1
 6c0:	27 e6       	ldi	r18, 0x67	; 103
 6c2:	20 93 cc 00 	sts	0x00CC, r18	; 0x8000cc <__TEXT_REGION_LENGTH__+0x7000cc>
    UCSR1B = (1<<RXEN1)|(1<<TXEN1);                             // Enable RX und TX UART 1
 6c6:	90 93 c9 00 	sts	0x00C9, r25	; 0x8000c9 <__TEXT_REGION_LENGTH__+0x7000c9>
    UCSR1C = (1<<UCSZ10)|(1<<UCSZ11);                           // Übertragene Bits: 8 und parity disabled UART1
 6ca:	80 93 ca 00 	sts	0x00CA, r24	; 0x8000ca <__TEXT_REGION_LENGTH__+0x7000ca>

    UBRR2H = (BRC74880>>8);                                     // Baudrate Register1 (9600) UART2
 6ce:	10 92 d5 00 	sts	0x00D5, r1	; 0x8000d5 <__TEXT_REGION_LENGTH__+0x7000d5>
    UBRR2L = BRC74880;                                          // Baudrate Register2 (9600) UART2
 6d2:	3c e0       	ldi	r19, 0x0C	; 12
 6d4:	30 93 d4 00 	sts	0x00D4, r19	; 0x8000d4 <__TEXT_REGION_LENGTH__+0x7000d4>
    UCSR2B = (1<<RXEN2)|(1<<TXEN2);                             // Enable RX und TX UART 2
 6d8:	90 93 d1 00 	sts	0x00D1, r25	; 0x8000d1 <__TEXT_REGION_LENGTH__+0x7000d1>
    UCSR2C = (1<<UCSZ20)|(1<<UCSZ21);                           // Übertragene Bits: 8 und parity disabled UART2
 6dc:	80 93 d2 00 	sts	0x00D2, r24	; 0x8000d2 <__TEXT_REGION_LENGTH__+0x7000d2>

    UBRR3H = (BRC9600>>8);                                      // Baudrate Register1 (9600) UART3
 6e0:	10 92 35 01 	sts	0x0135, r1	; 0x800135 <__TEXT_REGION_LENGTH__+0x700135>
    UBRR3L = BRC9600;                                           // Baudrate Register2 (9600) UART3
 6e4:	20 93 34 01 	sts	0x0134, r18	; 0x800134 <__TEXT_REGION_LENGTH__+0x700134>
    UCSR3B = (1<<RXEN3)|(1<<TXEN3);                             // Enable RX und TX UART 3
 6e8:	90 93 31 01 	sts	0x0131, r25	; 0x800131 <__TEXT_REGION_LENGTH__+0x700131>
    UCSR3C = (1<<UCSZ30)|(1<<UCSZ31);                           // Übertragene Bits: 8 und parity disabled UART3
 6ec:	80 93 32 01 	sts	0x0132, r24	; 0x800132 <__TEXT_REGION_LENGTH__+0x700132>
    /******************************************************************************************************************************/


    /******************************************************************************************************************************/
    RB_init(&rb_tx_PC);                                         // Initialisiere Ring-Buffer (head = 0, tail = 0) TX UART0
 6f0:	86 e1       	ldi	r24, 0x16	; 22
 6f2:	92 e0       	ldi	r25, 0x02	; 2
 6f4:	54 df       	rcall	.-344    	; 0x59e <RB_init>
    RB_init(&rb_rx_PC);                                         // Initialisiere Ring-Buffer (head = 0, tail = 0) RX UART0
 6f6:	85 e2       	ldi	r24, 0x25	; 37
 6f8:	96 e0       	ldi	r25, 0x06	; 6
 6fa:	51 df       	rcall	.-350    	; 0x59e <RB_init>
    /******************************************************************************************************************************/


    /******************************************************************************************************************************/
    Uart_EnableRxIT_0();                                        // Enable RX-Interrupt: Receive Complete UART 0
 6fc:	88 81       	ld	r24, Y
 6fe:	80 68       	ori	r24, 0x80	; 128
 700:	88 83       	st	Y, r24
    /******************************************************************************************************************************/


    /******************************************************************************************************************************/
    sei();                                                      // Enable globale Interrupts
 702:	78 94       	sei
    /******************************************************************************************************************************/


    /******************************************************************************************************************************/
    ptr_tx_completed_0=tx_completed;                            // Pointer tx Completed UART0 auf Funktion (Kurz warten) setzen
 704:	8d e4       	ldi	r24, 0x4D	; 77
 706:	93 e0       	ldi	r25, 0x03	; 3
 708:	90 93 29 09 	sts	0x0929, r25	; 0x800929 <ptr_tx_completed_0+0x1>
 70c:	80 93 28 09 	sts	0x0928, r24	; 0x800928 <ptr_tx_completed_0>
    /******************************************************************************************************************************/

}
 710:	df 91       	pop	r29
 712:	cf 91       	pop	r28
 714:	08 95       	ret

00000716 <Uart_Transmit_IT_PC>:
        - Schreibe n Bytes in den Buffer für PC
        - Enable Interrupt wenn Datenregister leer ist

        PROBLEM: Buffer overflow wenn lange Strings gesendet werden.
    */
    uint8_t nbytes = strlen((const char *)data);
 716:	fc 01       	movw	r30, r24
 718:	01 90       	ld	r0, Z+
 71a:	00 20       	and	r0, r0
 71c:	e9 f7       	brne	.-6      	; 0x718 <Uart_Transmit_IT_PC+0x2>
 71e:	31 97       	sbiw	r30, 0x01	; 1
 720:	af 01       	movw	r20, r30
 722:	48 1b       	sub	r20, r24
 724:	59 0b       	sbc	r21, r25
    RB_write(&rb_tx_PC, data, nbytes);
 726:	bc 01       	movw	r22, r24
 728:	86 e1       	ldi	r24, 0x16	; 22
 72a:	92 e0       	ldi	r25, 0x02	; 2
 72c:	84 df       	rcall	.-248    	; 0x636 <RB_write>
    Uart_EnableTransmitIT_0();
 72e:	e1 ec       	ldi	r30, 0xC1	; 193
 730:	f0 e0       	ldi	r31, 0x00	; 0
 732:	80 81       	ld	r24, Z
 734:	80 62       	ori	r24, 0x20	; 32
 736:	80 83       	st	Z, r24
 738:	08 95       	ret

0000073a <__vector_26>:
    asm("nop");
    asm("nop");
}

ISR(USART0_UDRE_vect)
{
 73a:	1f 92       	push	r1
 73c:	0f 92       	push	r0
 73e:	0f b6       	in	r0, 0x3f	; 63
 740:	0f 92       	push	r0
 742:	11 24       	eor	r1, r1
 744:	0b b6       	in	r0, 0x3b	; 59
 746:	0f 92       	push	r0
 748:	2f 93       	push	r18
 74a:	3f 93       	push	r19
 74c:	4f 93       	push	r20
 74e:	5f 93       	push	r21
 750:	6f 93       	push	r22
 752:	7f 93       	push	r23
 754:	8f 93       	push	r24
 756:	9f 93       	push	r25
 758:	af 93       	push	r26
 75a:	bf 93       	push	r27
 75c:	ef 93       	push	r30
 75e:	ff 93       	push	r31
    /*
        - Befinden sich Daten im Buffer, wird das nächste Byte aus dem Buffer gesendet
        - Ansonsten wird das Interrupt deaktiviert und zwei Schritte gewartet
    */
    if (RB_length(&rb_tx_PC) > 0)
 760:	86 e1       	ldi	r24, 0x16	; 22
 762:	92 e0       	ldi	r25, 0x02	; 2
 764:	2b df       	rcall	.-426    	; 0x5bc <RB_length>
 766:	88 23       	and	r24, r24
 768:	31 f0       	breq	.+12     	; 0x776 <__vector_26+0x3c>
    {
        UDR0 = RB_readByte(&rb_tx_PC);
 76a:	86 e1       	ldi	r24, 0x16	; 22
 76c:	92 e0       	ldi	r25, 0x02	; 2
 76e:	32 df       	rcall	.-412    	; 0x5d4 <RB_readByte>
 770:	80 93 c6 00 	sts	0x00C6, r24	; 0x8000c6 <__TEXT_REGION_LENGTH__+0x7000c6>
 774:	0c c0       	rjmp	.+24     	; 0x78e <__vector_26+0x54>
    }
    else
    {
        Uart_DisableTransmitIT_0();
 776:	e1 ec       	ldi	r30, 0xC1	; 193
 778:	f0 e0       	ldi	r31, 0x00	; 0
 77a:	80 81       	ld	r24, Z
 77c:	8f 7d       	andi	r24, 0xDF	; 223
 77e:	80 83       	st	Z, r24
        if(ptr_tx_completed_0 != 0)
 780:	e0 91 28 09 	lds	r30, 0x0928	; 0x800928 <ptr_tx_completed_0>
 784:	f0 91 29 09 	lds	r31, 0x0929	; 0x800929 <ptr_tx_completed_0+0x1>
 788:	30 97       	sbiw	r30, 0x00	; 0
 78a:	09 f0       	breq	.+2      	; 0x78e <__vector_26+0x54>
            ptr_tx_completed_0();
 78c:	19 95       	eicall
    }
}
 78e:	ff 91       	pop	r31
 790:	ef 91       	pop	r30
 792:	bf 91       	pop	r27
 794:	af 91       	pop	r26
 796:	9f 91       	pop	r25
 798:	8f 91       	pop	r24
 79a:	7f 91       	pop	r23
 79c:	6f 91       	pop	r22
 79e:	5f 91       	pop	r21
 7a0:	4f 91       	pop	r20
 7a2:	3f 91       	pop	r19
 7a4:	2f 91       	pop	r18
 7a6:	0f 90       	pop	r0
 7a8:	0b be       	out	0x3b, r0	; 59
 7aa:	0f 90       	pop	r0
 7ac:	0f be       	out	0x3f, r0	; 63
 7ae:	0f 90       	pop	r0
 7b0:	1f 90       	pop	r1
 7b2:	18 95       	reti

000007b4 <__vector_25>:

ISR(USART0_RX_vect)
{
 7b4:	1f 92       	push	r1
 7b6:	0f 92       	push	r0
 7b8:	0f b6       	in	r0, 0x3f	; 63
 7ba:	0f 92       	push	r0
 7bc:	11 24       	eor	r1, r1
 7be:	0b b6       	in	r0, 0x3b	; 59
 7c0:	0f 92       	push	r0
 7c2:	2f 93       	push	r18
 7c4:	3f 93       	push	r19
 7c6:	4f 93       	push	r20
 7c8:	5f 93       	push	r21
 7ca:	6f 93       	push	r22
 7cc:	7f 93       	push	r23
 7ce:	8f 93       	push	r24
 7d0:	9f 93       	push	r25
 7d2:	af 93       	push	r26
 7d4:	bf 93       	push	r27
 7d6:	ef 93       	push	r30
 7d8:	ff 93       	push	r31
    /*
        - Wird ein Empfangs-Interrupt seitens PC ausgelöst, wird das empfangene Byte in den PC-Buffer geschrieben
    */
    char ch = UDR0;
 7da:	60 91 c6 00 	lds	r22, 0x00C6	; 0x8000c6 <__TEXT_REGION_LENGTH__+0x7000c6>
    RB_writeByte(&rb_rx_PC,ch);
 7de:	85 e2       	ldi	r24, 0x25	; 37
 7e0:	96 e0       	ldi	r25, 0x06	; 6
 7e2:	0c df       	rcall	.-488    	; 0x5fc <RB_writeByte>
 7e4:	ff 91       	pop	r31
 7e6:	ef 91       	pop	r30
 7e8:	bf 91       	pop	r27
 7ea:	af 91       	pop	r26
 7ec:	9f 91       	pop	r25
 7ee:	8f 91       	pop	r24
 7f0:	7f 91       	pop	r23
 7f2:	6f 91       	pop	r22
 7f4:	5f 91       	pop	r21
 7f6:	4f 91       	pop	r20
 7f8:	3f 91       	pop	r19
 7fa:	2f 91       	pop	r18
 7fc:	0f 90       	pop	r0
 7fe:	0b be       	out	0x3b, r0	; 59
 800:	0f 90       	pop	r0
 802:	0f be       	out	0x3f, r0	; 63
 804:	0f 90       	pop	r0
 806:	1f 90       	pop	r1
 808:	18 95       	reti

0000080a <main>:
#include "libraries/Cocktail_functions/Cocktail_Statemachine.h"

// MainLoop
int main(void)
{
    init_LED();
 80a:	ed dc       	rcall	.-1574   	; 0x1e6 <init_LED>

    interfaces_init();
 80c:	71 de       	rcall	.-798    	; 0x4f0 <interfaces_init>
 80e:	0f 2e       	mov	r0, r31
        check_Communication_Input_UART();                   // Prüfen. ob über UART einen Befehl geesendet wurde
        if (process == 1)
        {
            light = RAINBOW_LED;
            // Timer 1 wird von System Clock abgehängt und zugehörige LED ausgeschaltet
            TIMER_CONTROL_REGISTER_B_WHITE &= ~(1 << CS10);        // CTC-Mode, prescaler 1
 810:	f1 e8       	ldi	r31, 0x81	; 129
 812:	cf 2e       	mov	r12, r31
 814:	d1 2c       	mov	r13, r1
 816:	f0 2d       	mov	r31, r0
 818:	0f 2e       	mov	r0, r31
            LEDW_PORT &= ~LEDW_BIT;

            // Timer 3/4/5 wird an System Clock angehängt
            TIMER_CONTROL_REGISTER_B_RED |= (1 << CS30);        // CTC-Mode, prescaler 1
 81a:	f1 e9       	ldi	r31, 0x91	; 145
 81c:	ef 2e       	mov	r14, r31
 81e:	f1 2c       	mov	r15, r1
 820:	f0 2d       	mov	r31, r0
 822:	01 ea       	ldi	r16, 0xA1	; 161
            TIMER_CONTROL_REGISTER_B_GREEN |= (1 << CS40);      // CTC-Mode, prescaler 1
 824:	10 e0       	ldi	r17, 0x00	; 0
 826:	c1 e2       	ldi	r28, 0x21	; 33
            TIMER_CONTROL_REGISTER_B_BLUE |= (1 << CS50);       // CTC-Mode, prescaler 1
 828:	d1 e0       	ldi	r29, 0x01	; 1
 82a:	bb 24       	eor	r11, r11
    {

        check_Communication_Input_UART();                   // Prüfen. ob über UART einen Befehl geesendet wurde
        if (process == 1)
        {
            light = RAINBOW_LED;
 82c:	b3 94       	inc	r11

    // Mainroutine
    while (1)
    {

        check_Communication_Input_UART();                   // Prüfen. ob über UART einen Befehl geesendet wurde
 82e:	b3 de       	rcall	.-666    	; 0x596 <check_Communication_Input_UART>
 830:	80 91 2a 09 	lds	r24, 0x092A	; 0x80092a <process>
        if (process == 1)
 834:	90 91 2b 09 	lds	r25, 0x092B	; 0x80092b <process+0x1>
 838:	a0 91 2c 09 	lds	r26, 0x092C	; 0x80092c <process+0x2>
 83c:	b0 91 2d 09 	lds	r27, 0x092D	; 0x80092d <process+0x3>
 840:	81 30       	cpi	r24, 0x01	; 1
 842:	91 05       	cpc	r25, r1
 844:	a1 05       	cpc	r26, r1
 846:	b1 05       	cpc	r27, r1
 848:	d9 f4       	brne	.+54     	; 0x880 <main+0x76>
 84a:	b0 92 1d 03 	sts	0x031D, r11	; 0x80031d <light>
        {
            light = RAINBOW_LED;
 84e:	f6 01       	movw	r30, r12
            // Timer 1 wird von System Clock abgehängt und zugehörige LED ausgeschaltet
            TIMER_CONTROL_REGISTER_B_WHITE &= ~(1 << CS10);        // CTC-Mode, prescaler 1
 850:	80 81       	ld	r24, Z
 852:	8e 7f       	andi	r24, 0xFE	; 254
 854:	80 83       	st	Z, r24
 856:	8b 98       	cbi	0x11, 3	; 17
            LEDW_PORT &= ~LEDW_BIT;
 858:	f7 01       	movw	r30, r14

            // Timer 3/4/5 wird an System Clock angehängt
            TIMER_CONTROL_REGISTER_B_RED |= (1 << CS30);        // CTC-Mode, prescaler 1
 85a:	80 81       	ld	r24, Z
 85c:	81 60       	ori	r24, 0x01	; 1
 85e:	80 83       	st	Z, r24
 860:	f8 01       	movw	r30, r16
            TIMER_CONTROL_REGISTER_B_GREEN |= (1 << CS40);      // CTC-Mode, prescaler 1
 862:	80 81       	ld	r24, Z
 864:	81 60       	ori	r24, 0x01	; 1
 866:	80 83       	st	Z, r24
 868:	88 81       	ld	r24, Y
            TIMER_CONTROL_REGISTER_B_BLUE |= (1 << CS50);       // CTC-Mode, prescaler 1
 86a:	81 60       	ori	r24, 0x01	; 1
 86c:	88 83       	st	Y, r24
 86e:	10 92 2a 09 	sts	0x092A, r1	; 0x80092a <process>
			process = 0;
 872:	10 92 2b 09 	sts	0x092B, r1	; 0x80092b <process+0x1>
 876:	10 92 2c 09 	sts	0x092C, r1	; 0x80092c <process+0x2>
 87a:	10 92 2d 09 	sts	0x092D, r1	; 0x80092d <process+0x3>
 87e:	d7 cf       	rjmp	.-82     	; 0x82e <main+0x24>
 880:	02 97       	sbiw	r24, 0x02	; 2
        }
        if (process == 2)
 882:	a1 05       	cpc	r26, r1
 884:	b1 05       	cpc	r27, r1
 886:	99 f6       	brne	.-90     	; 0x82e <main+0x24>
 888:	f6 01       	movw	r30, r12
        {
            // Timer 1 wird an System Clock angehängt
            TIMER_CONTROL_REGISTER_B_WHITE |= (1<<CS10);        // Prescaler 1024
 88a:	80 81       	ld	r24, Z
 88c:	81 60       	ori	r24, 0x01	; 1
 88e:	80 83       	st	Z, r24
 890:	f7 01       	movw	r30, r14

            // Timer 3/4/5 wird von System Clock angehängt und zugehörige LEDs ausgeschaltet
            TIMER_CONTROL_REGISTER_B_RED &= ~(1 << CS30);
 892:	80 81       	ld	r24, Z
 894:	8e 7f       	andi	r24, 0xFE	; 254
 896:	80 83       	st	Z, r24
 898:	f8 01       	movw	r30, r16
            TIMER_CONTROL_REGISTER_B_GREEN &= ~(1 << CS40);
 89a:	80 81       	ld	r24, Z
 89c:	8e 7f       	andi	r24, 0xFE	; 254
 89e:	80 83       	st	Z, r24
 8a0:	88 81       	ld	r24, Y
            TIMER_CONTROL_REGISTER_B_BLUE &= ~(1 << CS50);
 8a2:	8e 7f       	andi	r24, 0xFE	; 254
 8a4:	88 83       	st	Y, r24
 8a6:	8e 98       	cbi	0x11, 6	; 17
            LEDR_PORT &= ~LEDR_BIT;
 8a8:	8d 98       	cbi	0x11, 5	; 17
            LEDG_PORT &= ~LEDG_BIT;
 8aa:	8c 98       	cbi	0x11, 4	; 17
            LEDB_PORT &= ~LEDB_BIT;
 8ac:	10 92 2a 09 	sts	0x092A, r1	; 0x80092a <process>
 			process = 0;
 8b0:	10 92 2b 09 	sts	0x092B, r1	; 0x80092b <process+0x1>
 8b4:	10 92 2c 09 	sts	0x092C, r1	; 0x80092c <process+0x2>
 8b8:	10 92 2d 09 	sts	0x092D, r1	; 0x80092d <process+0x3>
 8bc:	b8 cf       	rjmp	.-144    	; 0x82e <main+0x24>

000008be <__tablejump2__>:
 8be:	ee 0f       	add	r30, r30
 8c0:	ff 1f       	adc	r31, r31
 8c2:	88 1f       	adc	r24, r24
 8c4:	8b bf       	out	0x3b, r24	; 59
 8c6:	07 90       	elpm	r0, Z+
 8c8:	f6 91       	elpm	r31, Z
 8ca:	e0 2d       	mov	r30, r0
 8cc:	19 94       	eijmp

000008ce <_exit>:
 8ce:	f8 94       	cli

000008d0 <__stop_program>:
 8d0:	ff cf       	rjmp	.-2      	; 0x8d0 <__stop_program>
