
Mikrocontroller.elf:     file format elf32-avr

Sections:
Idx Name          Size      VMA       LMA       File off  Algn
  0 .data         00000160  00800200  00001694  00001728  2**0
                  CONTENTS, ALLOC, LOAD, DATA
  1 .text         00001694  00000000  00000000  00000094  2**1
                  CONTENTS, ALLOC, LOAD, READONLY, CODE
  2 .bss          00001054  00800360  00800360  00001888  2**0
                  ALLOC
  3 .comment      00000030  00000000  00000000  00001888  2**0
                  CONTENTS, READONLY
  4 .note.gnu.avr.deviceinfo 00000040  00000000  00000000  000018b8  2**2
                  CONTENTS, READONLY
  5 .debug_aranges 00000460  00000000  00000000  000018f8  2**0
                  CONTENTS, READONLY, DEBUGGING
  6 .debug_info   00006c5d  00000000  00000000  00001d58  2**0
                  CONTENTS, READONLY, DEBUGGING
  7 .debug_abbrev 000019c5  00000000  00000000  000089b5  2**0
                  CONTENTS, READONLY, DEBUGGING
  8 .debug_line   00002788  00000000  00000000  0000a37a  2**0
                  CONTENTS, READONLY, DEBUGGING
  9 .debug_frame  00001048  00000000  00000000  0000cb04  2**2
                  CONTENTS, READONLY, DEBUGGING
 10 .debug_str    000015fc  00000000  00000000  0000db4c  2**0
                  CONTENTS, READONLY, DEBUGGING
 11 .debug_loc    00006103  00000000  00000000  0000f148  2**0
                  CONTENTS, READONLY, DEBUGGING
 12 .debug_ranges 00000448  00000000  00000000  0001524b  2**0
                  CONTENTS, READONLY, DEBUGGING

Disassembly of section .text:

00000000 <__vectors>:
       0:	71 c0       	rjmp	.+226    	; 0xe4 <__ctors_end>
       2:	00 00       	nop
       4:	90 c0       	rjmp	.+288    	; 0x126 <__bad_interrupt>
       6:	00 00       	nop
       8:	8e c0       	rjmp	.+284    	; 0x126 <__bad_interrupt>
       a:	00 00       	nop
       c:	8c c0       	rjmp	.+280    	; 0x126 <__bad_interrupt>
       e:	00 00       	nop
      10:	8a c0       	rjmp	.+276    	; 0x126 <__bad_interrupt>
      12:	00 00       	nop
      14:	88 c0       	rjmp	.+272    	; 0x126 <__bad_interrupt>
      16:	00 00       	nop
      18:	86 c0       	rjmp	.+268    	; 0x126 <__bad_interrupt>
      1a:	00 00       	nop
      1c:	84 c0       	rjmp	.+264    	; 0x126 <__bad_interrupt>
      1e:	00 00       	nop
      20:	82 c0       	rjmp	.+260    	; 0x126 <__bad_interrupt>
      22:	00 00       	nop
      24:	80 c0       	rjmp	.+256    	; 0x126 <__bad_interrupt>
      26:	00 00       	nop
      28:	7e c0       	rjmp	.+252    	; 0x126 <__bad_interrupt>
      2a:	00 00       	nop
      2c:	7c c0       	rjmp	.+248    	; 0x126 <__bad_interrupt>
      2e:	00 00       	nop
      30:	7a c0       	rjmp	.+244    	; 0x126 <__bad_interrupt>
      32:	00 00       	nop
      34:	78 c0       	rjmp	.+240    	; 0x126 <__bad_interrupt>
      36:	00 00       	nop
      38:	76 c0       	rjmp	.+236    	; 0x126 <__bad_interrupt>
      3a:	00 00       	nop
      3c:	74 c0       	rjmp	.+232    	; 0x126 <__bad_interrupt>
      3e:	00 00       	nop
      40:	72 c0       	rjmp	.+228    	; 0x126 <__bad_interrupt>
      42:	00 00       	nop
      44:	70 c0       	rjmp	.+224    	; 0x126 <__bad_interrupt>
      46:	00 00       	nop
      48:	6e c0       	rjmp	.+220    	; 0x126 <__bad_interrupt>
      4a:	00 00       	nop
      4c:	6c c0       	rjmp	.+216    	; 0x126 <__bad_interrupt>
      4e:	00 00       	nop
      50:	6a c0       	rjmp	.+212    	; 0x126 <__bad_interrupt>
      52:	00 00       	nop
      54:	68 c0       	rjmp	.+208    	; 0x126 <__bad_interrupt>
      56:	00 00       	nop
      58:	66 c0       	rjmp	.+204    	; 0x126 <__bad_interrupt>
      5a:	00 00       	nop
      5c:	64 c0       	rjmp	.+200    	; 0x126 <__bad_interrupt>
      5e:	00 00       	nop
      60:	cc c4       	rjmp	.+2456   	; 0x9fa <__vector_24>
      62:	00 00       	nop
      64:	fb c6       	rjmp	.+3574   	; 0xe5c <__vector_25>
      66:	00 00       	nop
      68:	bc c6       	rjmp	.+3448   	; 0xde2 <__vector_26>
      6a:	00 00       	nop
      6c:	5c c0       	rjmp	.+184    	; 0x126 <__bad_interrupt>
      6e:	00 00       	nop
      70:	5a c0       	rjmp	.+180    	; 0x126 <__bad_interrupt>
      72:	00 00       	nop
      74:	58 c0       	rjmp	.+176    	; 0x126 <__bad_interrupt>
      76:	00 00       	nop
      78:	56 c0       	rjmp	.+172    	; 0x126 <__bad_interrupt>
      7a:	00 00       	nop
      7c:	54 c0       	rjmp	.+168    	; 0x126 <__bad_interrupt>
      7e:	00 00       	nop
      80:	52 c0       	rjmp	.+164    	; 0x126 <__bad_interrupt>
      82:	00 00       	nop
      84:	50 c0       	rjmp	.+160    	; 0x126 <__bad_interrupt>
      86:	00 00       	nop
      88:	4e c0       	rjmp	.+156    	; 0x126 <__bad_interrupt>
      8a:	00 00       	nop
      8c:	4c c0       	rjmp	.+152    	; 0x126 <__bad_interrupt>
      8e:	00 00       	nop
      90:	4d c7       	rjmp	.+3738   	; 0xf2c <__vector_36>
      92:	00 00       	nop
      94:	0e c7       	rjmp	.+3612   	; 0xeb2 <__vector_37>
      96:	00 00       	nop
      98:	46 c0       	rjmp	.+140    	; 0x126 <__bad_interrupt>
      9a:	00 00       	nop
      9c:	44 c0       	rjmp	.+136    	; 0x126 <__bad_interrupt>
      9e:	00 00       	nop
      a0:	42 c0       	rjmp	.+132    	; 0x126 <__bad_interrupt>
      a2:	00 00       	nop
      a4:	40 c0       	rjmp	.+128    	; 0x126 <__bad_interrupt>
      a6:	00 00       	nop
      a8:	3e c0       	rjmp	.+124    	; 0x126 <__bad_interrupt>
      aa:	00 00       	nop
      ac:	3c c0       	rjmp	.+120    	; 0x126 <__bad_interrupt>
      ae:	00 00       	nop
      b0:	3a c0       	rjmp	.+116    	; 0x126 <__bad_interrupt>
      b2:	00 00       	nop
      b4:	38 c0       	rjmp	.+112    	; 0x126 <__bad_interrupt>
      b6:	00 00       	nop
      b8:	36 c0       	rjmp	.+108    	; 0x126 <__bad_interrupt>
      ba:	00 00       	nop
      bc:	34 c0       	rjmp	.+104    	; 0x126 <__bad_interrupt>
      be:	00 00       	nop
      c0:	32 c0       	rjmp	.+100    	; 0x126 <__bad_interrupt>
      c2:	00 00       	nop
      c4:	30 c0       	rjmp	.+96     	; 0x126 <__bad_interrupt>
      c6:	00 00       	nop
      c8:	2e c0       	rjmp	.+92     	; 0x126 <__bad_interrupt>
      ca:	00 00       	nop
      cc:	97 c7       	rjmp	.+3886   	; 0xffc <__vector_51>
      ce:	00 00       	nop
      d0:	58 c7       	rjmp	.+3760   	; 0xf82 <__vector_52>
      d2:	00 00       	nop
      d4:	28 c0       	rjmp	.+80     	; 0x126 <__bad_interrupt>
      d6:	00 00       	nop
      d8:	f9 c7       	rjmp	.+4082   	; 0x10cc <__vector_54>
      da:	00 00       	nop
      dc:	ba c7       	rjmp	.+3956   	; 0x1052 <__vector_55>
      de:	00 00       	nop
      e0:	22 c0       	rjmp	.+68     	; 0x126 <__bad_interrupt>
	...

000000e4 <__ctors_end>:
      e4:	11 24       	eor	r1, r1
      e6:	1f be       	out	0x3f, r1	; 63
      e8:	cf ef       	ldi	r28, 0xFF	; 255
      ea:	d1 e2       	ldi	r29, 0x21	; 33
      ec:	de bf       	out	0x3e, r29	; 62
      ee:	cd bf       	out	0x3d, r28	; 61
      f0:	00 e0       	ldi	r16, 0x00	; 0
      f2:	0c bf       	out	0x3c, r16	; 60

000000f4 <__do_copy_data>:
      f4:	13 e0       	ldi	r17, 0x03	; 3
      f6:	a0 e0       	ldi	r26, 0x00	; 0
      f8:	b2 e0       	ldi	r27, 0x02	; 2
      fa:	e4 e9       	ldi	r30, 0x94	; 148
      fc:	f6 e1       	ldi	r31, 0x16	; 22
      fe:	00 e0       	ldi	r16, 0x00	; 0
     100:	0b bf       	out	0x3b, r16	; 59
     102:	02 c0       	rjmp	.+4      	; 0x108 <__do_copy_data+0x14>
     104:	07 90       	elpm	r0, Z+
     106:	0d 92       	st	X+, r0
     108:	a0 36       	cpi	r26, 0x60	; 96
     10a:	b1 07       	cpc	r27, r17
     10c:	d9 f7       	brne	.-10     	; 0x104 <__do_copy_data+0x10>

0000010e <__do_clear_bss>:
     10e:	23 e1       	ldi	r18, 0x13	; 19
     110:	a0 e6       	ldi	r26, 0x60	; 96
     112:	b3 e0       	ldi	r27, 0x03	; 3
     114:	01 c0       	rjmp	.+2      	; 0x118 <.do_clear_bss_start>

00000116 <.do_clear_bss_loop>:
     116:	1d 92       	st	X+, r1

00000118 <.do_clear_bss_start>:
     118:	a4 3b       	cpi	r26, 0xB4	; 180
     11a:	b2 07       	cpc	r27, r18
     11c:	e1 f7       	brne	.-8      	; 0x116 <.do_clear_bss_loop>
     11e:	0e 94 91 08 	call	0x1122	; 0x1122 <main>
     122:	0c 94 48 0b 	jmp	0x1690	; 0x1690 <_exit>

00000126 <__bad_interrupt>:
     126:	6c cf       	rjmp	.-296    	; 0x0 <__vectors>

00000128 <do_command1>:
}

void do_command1(void)
{
	unsigned char *ch0 = (unsigned char *)"Beginn Command1: \r\n\r\n";//************************	Start
	Uart_Transmit_IT_PC(ch0,strlen((const char*)ch0));
     128:	65 e1       	ldi	r22, 0x15	; 21
     12a:	80 e0       	ldi	r24, 0x00	; 0
     12c:	92 e0       	ldi	r25, 0x02	; 2
     12e:	38 d6       	rcall	.+3184   	; 0xda0 <Uart_Transmit_IT_PC>
		ch0 = (unsigned char *)"\r\n";
		Uart_Transmit_IT_PC(ch0,strlen((const char*)ch0));//*****************************************	Status Ende:		Init_SPI
		_delay_ms(50);
	}
	
	TMC4671_init();//****************************************************************************	Aktion:				Initialisiere SPI
     130:	c1 d4       	rcall	.+2434   	; 0xab4 <TMC4671_init>
     132:	41 e0       	ldi	r20, 0x01	; 1
		_delay_ms(50);
	}
	
	unsigned char * ch1 = (unsigned char *)"b1";//***********************************************	Button:				b1
	unsigned char * ch2 = (unsigned char *)"Lemon Soda1";//**************************************	Text:				Lemon Soda1
	nextion_setText(ch1,ch2,NEXTION_DISPLAY_1);//************************************************	Aktion:				setText
     134:	66 e1       	ldi	r22, 0x16	; 22
     136:	72 e0       	ldi	r23, 0x02	; 2
     138:	82 e2       	ldi	r24, 0x22	; 34
     13a:	92 e0       	ldi	r25, 0x02	; 2
     13c:	a6 d0       	rcall	.+332    	; 0x28a <nextion_setText>
     13e:	41 e0       	ldi	r20, 0x01	; 1
		Uart_Transmit_IT_PC(ch0,strlen((const char*)ch0));//*****************************************	Status Ende:		Test Text 2
		_delay_ms(50);
	}
	ch1 = (unsigned char *)"b0";//***************************************************************	Button:				b0
	ch2 = (unsigned char *)"Lemon Soda2";//******************************************************	Text:				Lemon Soda2
	nextion_setText(ch1,ch2,NEXTION_DISPLAY_1);//************************************************	Aktion:				setText
     140:	65 e2       	ldi	r22, 0x25	; 37
     142:	72 e0       	ldi	r23, 0x02	; 2
     144:	81 e3       	ldi	r24, 0x31	; 49
     146:	92 e0       	ldi	r25, 0x02	; 2
     148:	a0 d0       	rcall	.+320    	; 0x28a <nextion_setText>
     14a:	41 e0       	ldi	r20, 0x01	; 1
		_delay_ms(50);
	}
	
	ch1 = (unsigned char *)"t0";//****************************************************************	Button:				t0
	ch2 = (unsigned char *)"Lemon Soda3";//*******************************************************	Text:				Lemon Soda3
	nextion_setText(ch1,ch2,NEXTION_DISPLAY_1);//*************************************************	Aktion:				setText
     14c:	64 e3       	ldi	r22, 0x34	; 52
     14e:	72 e0       	ldi	r23, 0x02	; 2
     150:	80 e4       	ldi	r24, 0x40	; 64
     152:	92 e0       	ldi	r25, 0x02	; 2
     154:	9a d0       	rcall	.+308    	; 0x28a <nextion_setText>
     156:	21 e0       	ldi	r18, 0x01	; 1
	}
	
	ch1 = (unsigned char *)"250";//***************************************************************	x-Koordinate:		250
	ch2 = (unsigned char *)"80";//****************************************************************	y-Koordinate:		80
	unsigned char * ch3 = (unsigned char *)"7";//*************************************************	Bild Nr.:			7
	nextion_setPicture(ch1,ch2,ch3,NEXTION_DISPLAY_1);//******************************************	Aktion:				setPicture
     158:	43 e4       	ldi	r20, 0x43	; 67
     15a:	52 e0       	ldi	r21, 0x02	; 2
     15c:	65 e4       	ldi	r22, 0x45	; 69
     15e:	72 e0       	ldi	r23, 0x02	; 2
     160:	88 e4       	ldi	r24, 0x48	; 72
     162:	92 e0       	ldi	r25, 0x02	; 2
     164:	5c d1       	rcall	.+696    	; 0x41e <nextion_setPicture>
     166:	21 e0       	ldi	r18, 0x01	; 1
	}
	
	ch1 = (unsigned char *)"0";//*****************************************************************	x-Koordinate:		0
	ch2 = (unsigned char *)"80";//****************************************************************	y-Koordinate:		80
	ch3 = (unsigned char *)"7";//*****************************************************************	Bild Nr.:			7
	nextion_setPicture(ch1,ch2,ch3,NEXTION_DISPLAY_1);//******************************************	Aktion:				setPicture
     168:	43 e4       	ldi	r20, 0x43	; 67
     16a:	52 e0       	ldi	r21, 0x02	; 2
     16c:	65 e4       	ldi	r22, 0x45	; 69
     16e:	72 e0       	ldi	r23, 0x02	; 2
     170:	8a e4       	ldi	r24, 0x4A	; 74
     172:	92 e0       	ldi	r25, 0x02	; 2
     174:	54 d1       	rcall	.+680    	; 0x41e <nextion_setPicture>
     176:	0e 94 0b 09 	call	0x1216	; 0x1216 <toggle_LED>
		ch0 = (unsigned char *)"\r\n";
		Uart_Transmit_IT_PC(ch0,strlen((const char*)ch0));//******************************************	Status Ende:		Toggle LED
		_delay_ms(50);
	}
		
	toggle_LED();//*******************************************************************************	Aktion:				Toggle LED
     17a:	e0 ea       	ldi	r30, 0xA0	; 160
		ch0 = (unsigned char *)"\r\n";
		Uart_Transmit_IT_PC(ch0,strlen((const char*)ch0));//******************************************	Status Ende:		Toggle LED
		_delay_ms(50);
	}

	PWM_ON;//*************************************************************************************	Aktion:				WPM Einschalten
     17c:	f0 e0       	ldi	r31, 0x00	; 0
     17e:	80 81       	ld	r24, Z
     180:	80 61       	ori	r24, 0x10	; 16
     182:	80 83       	st	Z, r24
     184:	08 95       	ret

00000186 <do_command2>:
     186:	65 e1       	ldi	r22, 0x15	; 21
}

void do_command2(void)
{
	unsigned char *ch0 = (unsigned char *)"Beginn Command2: \r\n\r\n";//************************	Start
	Uart_Transmit_IT_PC(ch0,strlen((const char*)ch0));
     188:	8c e4       	ldi	r24, 0x4C	; 76
     18a:	92 e0       	ldi	r25, 0x02	; 2
     18c:	09 d6       	rcall	.+3090   	; 0xda0 <Uart_Transmit_IT_PC>
	}

	unsigned char * ch1 = (unsigned char *)"t1";//***********************************************	Button:				b1
	unsigned char * ch2 = (unsigned char *)"Wussten Sie, dass dieser\\rDrink in unter einer Minute\\rhergestellt wird?\\rNicht?";
	//*******************************************************************************************	Text:				Lemon Soda1
	nextion_setText(ch1,ch2,NEXTION_DISPLAY_1);//************************************************	Aktion:				setText
     18e:	41 e0       	ldi	r20, 0x01	; 1
     190:	62 e6       	ldi	r22, 0x62	; 98
     192:	72 e0       	ldi	r23, 0x02	; 2
     194:	83 eb       	ldi	r24, 0xB3	; 179
     196:	92 e0       	ldi	r25, 0x02	; 2
		Uart_Transmit_IT_PC(ch0,strlen((const char*)ch0));
		ch0 = (unsigned char *)"\r\n";
		Uart_Transmit_IT_PC(ch0,strlen((const char*)ch0));//*****************************************	Status Ende:		TMC Openloop
	}
	
	initTMC4671_Openloop();//********************************************************************	Aktion:				TMC Openloop
     198:	78 d0       	rcall	.+240    	; 0x28a <nextion_setText>
		ch0 = (unsigned char *)"\r\n";
		Uart_Transmit_IT_PC(ch0,strlen((const char*)ch0));//*****************************************	Status Ende:		Seite wechseln
	}
	
	ch1 = (unsigned char *)"9";//****************************************************************	Seite:				9
	nextion_change_page(ch1);//******************************************************************	Aktion:				changePage
     19a:	e8 d4       	rcall	.+2512   	; 0xb6c <initTMC4671_Openloop>
     19c:	86 eb       	ldi	r24, 0xB6	; 182
     19e:	92 e0       	ldi	r25, 0x02	; 2
     1a0:	4c d0       	rcall	.+152    	; 0x23a <nextion_change_page>
	#else
		//round up by default
		__ticks_dc = (uint32_t)(ceil(fabs(__tmp)));
	#endif

	__builtin_avr_delay_cycles(__ticks_dc);
     1a2:	2f ef       	ldi	r18, 0xFF	; 255
     1a4:	87 ea       	ldi	r24, 0xA7	; 167
     1a6:	91 e6       	ldi	r25, 0x61	; 97
     1a8:	21 50       	subi	r18, 0x01	; 1
     1aa:	80 40       	sbci	r24, 0x00	; 0
     1ac:	90 40       	sbci	r25, 0x00	; 0
     1ae:	e1 f7       	brne	.-8      	; 0x1a8 <do_command2+0x22>
     1b0:	00 c0       	rjmp	.+0      	; 0x1b2 <do_command2+0x2c>
		ch0 = (unsigned char *)"\r\n";
		Uart_Transmit_IT_PC(ch0,strlen((const char*)ch0));// *****************************************	Status Ende:		Seite wechseln
	}
	
	ch1 = (unsigned char *)"4";// ****************************************************************	Seite:				4 (Cocktailliste)
	nextion_change_page(ch1);// ******************************************************************	Aktion:				changePage
     1b2:	00 00       	nop
     1b4:	88 eb       	ldi	r24, 0xB8	; 184
     1b6:	92 e0       	ldi	r25, 0x02	; 2
     1b8:	40 d0       	rcall	.+128    	; 0x23a <nextion_change_page>
		Uart_Transmit_IT_PC(ch0,strlen((const char*)ch0));
		ch0 = (unsigned char *)"\r\n";
		Uart_Transmit_IT_PC(ch0,strlen((const char*)ch0));//******************************************	Status Ende:		Toggle LED
	}
	
	toggle_LED();//*******************************************************************************	Aktion:				Toggle LED
     1ba:	0e 94 0b 09 	call	0x1216	; 0x1216 <toggle_LED>
		Uart_Transmit_IT_PC(ch0,strlen((const char*)ch0));
		ch0 = (unsigned char *)"\r\n";
		Uart_Transmit_IT_PC(ch0,strlen((const char*)ch0));//******************************************	Status Ende:		Test 8kHz-Signal ausschalten
	}
	
	PWM_OFF;//************************************************************************************	Aktion:				WPM Einschalten
     1be:	e0 ea       	ldi	r30, 0xA0	; 160
     1c0:	f0 e0       	ldi	r31, 0x00	; 0
     1c2:	80 81       	ld	r24, Z
     1c4:	8f 7e       	andi	r24, 0xEF	; 239
     1c6:	80 83       	st	Z, r24
     1c8:	08 95       	ret

000001ca <check_command>:
#include "Cocktail_functions.h"
#define DEBUG_1 0

void check_command(char page, char button)
{
	if(page==0xFF&&button==0xB1)
     1ca:	8f 3f       	cpi	r24, 0xFF	; 255
     1cc:	19 f4       	brne	.+6      	; 0x1d4 <check_command+0xa>
     1ce:	61 3b       	cpi	r22, 0xB1	; 177
     1d0:	09 f4       	brne	.+2      	; 0x1d4 <check_command+0xa>
	{
		do_command1();
     1d2:	aa df       	rcall	.-172    	; 0x128 <do_command1>
	}
	
	if(INPUT_UART_1[0]==0x07&&INPUT_UART_1[1]==0x01)
     1d4:	80 91 ab 0b 	lds	r24, 0x0BAB	; 0x800bab <INPUT_UART_1>
     1d8:	87 30       	cpi	r24, 0x07	; 7
     1da:	29 f4       	brne	.+10     	; 0x1e6 <check_command+0x1c>
     1dc:	80 91 ac 0b 	lds	r24, 0x0BAC	; 0x800bac <INPUT_UART_1+0x1>
     1e0:	81 30       	cpi	r24, 0x01	; 1
	{
		do_command2();
     1e2:	09 f4       	brne	.+2      	; 0x1e6 <check_command+0x1c>
     1e4:	d0 cf       	rjmp	.-96     	; 0x186 <do_command2>
     1e6:	08 95       	ret

000001e8 <endConversation>:
	}
}


void endConversation(char UART_PORT)
{
     1e8:	cf 93       	push	r28
     1ea:	df 93       	push	r29
     1ec:	00 d0       	rcall	.+0      	; 0x1ee <endConversation+0x6>
     1ee:	cd b7       	in	r28, 0x3d	; 61
     1f0:	de b7       	in	r29, 0x3e	; 62
	unsigned char ch2 [3]= {255,255,255};
     1f2:	9f ef       	ldi	r25, 0xFF	; 255
     1f4:	99 83       	std	Y+1, r25	; 0x01
     1f6:	9a 83       	std	Y+2, r25	; 0x02
     1f8:	9b 83       	std	Y+3, r25	; 0x03
	if (UART_PORT == 0)
     1fa:	81 11       	cpse	r24, r1
     1fc:	05 c0       	rjmp	.+10     	; 0x208 <endConversation+0x20>
	{
		Uart_Transmit_IT_PC((unsigned char *)ch2,3);
     1fe:	63 e0       	ldi	r22, 0x03	; 3
     200:	ce 01       	movw	r24, r28
     202:	01 96       	adiw	r24, 0x01	; 1
     204:	cd d5       	rcall	.+2970   	; 0xda0 <Uart_Transmit_IT_PC>
     206:	0d c0       	rjmp	.+26     	; 0x222 <endConversation+0x3a>
	}
	
	if (UART_PORT == 1)
     208:	81 30       	cpi	r24, 0x01	; 1
     20a:	29 f4       	brne	.+10     	; 0x216 <endConversation+0x2e>
	{
		Uart_Transmit_IT_Display((unsigned char *)ch2,3);
     20c:	63 e0       	ldi	r22, 0x03	; 3
     20e:	ce 01       	movw	r24, r28
     210:	01 96       	adiw	r24, 0x01	; 1
     212:	d1 d5       	rcall	.+2978   	; 0xdb6 <Uart_Transmit_IT_Display>
     214:	06 c0       	rjmp	.+12     	; 0x222 <endConversation+0x3a>
	}
	
	if (UART_PORT == 2)
     216:	82 30       	cpi	r24, 0x02	; 2
     218:	21 f4       	brne	.+8      	; 0x222 <endConversation+0x3a>
	{
		Uart_Transmit_IT_ESP((unsigned char *)ch2,3);
     21a:	63 e0       	ldi	r22, 0x03	; 3
     21c:	ce 01       	movw	r24, r28
     21e:	01 96       	adiw	r24, 0x01	; 1
     220:	d5 d5       	rcall	.+2986   	; 0xdcc <Uart_Transmit_IT_ESP>
     222:	8f e1       	ldi	r24, 0x1F	; 31
     224:	9e e4       	ldi	r25, 0x4E	; 78
     226:	01 97       	sbiw	r24, 0x01	; 1
     228:	f1 f7       	brne	.-4      	; 0x226 <endConversation+0x3e>
     22a:	00 c0       	rjmp	.+0      	; 0x22c <endConversation+0x44>
     22c:	00 00       	nop
	}
	_delay_ms(5);
     22e:	0f 90       	pop	r0
     230:	0f 90       	pop	r0
     232:	0f 90       	pop	r0
     234:	df 91       	pop	r29
     236:	cf 91       	pop	r28
     238:	08 95       	ret

0000023a <nextion_change_page>:
 */ 

#include "Nextion_Display.h"

void nextion_change_page(unsigned char * page)
{
     23a:	cf 93       	push	r28
     23c:	df 93       	push	r29
     23e:	ec 01       	movw	r28, r24
	unsigned char * ch1 = (unsigned char *) "page ";
	unsigned char * ch2 = page;

	Uart_Transmit_IT_Display(ch1,strlen((const char*)ch1));
     240:	65 e0       	ldi	r22, 0x05	; 5
     242:	8a eb       	ldi	r24, 0xBA	; 186
     244:	92 e0       	ldi	r25, 0x02	; 2
     246:	b7 d5       	rcall	.+2926   	; 0xdb6 <Uart_Transmit_IT_Display>
	Uart_Transmit_IT_Display(ch2,strlen((const char*)ch2));
     248:	fe 01       	movw	r30, r28
     24a:	01 90       	ld	r0, Z+
     24c:	00 20       	and	r0, r0
     24e:	e9 f7       	brne	.-6      	; 0x24a <nextion_change_page+0x10>
     250:	31 97       	sbiw	r30, 0x01	; 1
     252:	bf 01       	movw	r22, r30
     254:	6c 1b       	sub	r22, r28
     256:	7d 0b       	sbc	r23, r29
     258:	ce 01       	movw	r24, r28
     25a:	ad d5       	rcall	.+2906   	; 0xdb6 <Uart_Transmit_IT_Display>
	endConversation(1);
     25c:	81 e0       	ldi	r24, 0x01	; 1
     25e:	c4 df       	rcall	.-120    	; 0x1e8 <endConversation>
     260:	65 e0       	ldi	r22, 0x05	; 5

	Uart_Transmit_IT_PC(ch1,strlen((const char*)ch1));
     262:	8a eb       	ldi	r24, 0xBA	; 186
     264:	92 e0       	ldi	r25, 0x02	; 2
     266:	9c d5       	rcall	.+2872   	; 0xda0 <Uart_Transmit_IT_PC>
     268:	fe 01       	movw	r30, r28
	Uart_Transmit_IT_PC(ch2,strlen((const char*)ch2));
     26a:	01 90       	ld	r0, Z+
     26c:	00 20       	and	r0, r0
     26e:	e9 f7       	brne	.-6      	; 0x26a <nextion_change_page+0x30>
     270:	31 97       	sbiw	r30, 0x01	; 1
     272:	bf 01       	movw	r22, r30
     274:	6c 1b       	sub	r22, r28
     276:	7d 0b       	sbc	r23, r29
     278:	ce 01       	movw	r24, r28
     27a:	92 d5       	rcall	.+2852   	; 0xda0 <Uart_Transmit_IT_PC>
	Uart_Transmit_IT_PC((unsigned char *)"\r\n",strlen((const char*)"\r\n"));
     27c:	62 e0       	ldi	r22, 0x02	; 2
     27e:	83 e1       	ldi	r24, 0x13	; 19
     280:	92 e0       	ldi	r25, 0x02	; 2
     282:	8e d5       	rcall	.+2844   	; 0xda0 <Uart_Transmit_IT_PC>
     284:	df 91       	pop	r29
}
     286:	cf 91       	pop	r28
     288:	08 95       	ret

0000028a <nextion_setText>:
     28a:	cf 93       	push	r28

void nextion_setText(unsigned char * object, unsigned char * text, char UART_PORT)
{
     28c:	df 93       	push	r29
     28e:	eb 01       	movw	r28, r22
	const char * ch2 = (const char *) ".txt=";
	const char * ch3 = (const char *) "\"";
	const char * ch4 = (const char *) text;
	const char * ch5 = (const char *) "\"";

	if(UART_PORT==0)
     290:	41 11       	cpse	r20, r1
     292:	22 c0       	rjmp	.+68     	; 0x2d8 <nextion_setText+0x4e>
	{
		Uart_Transmit_IT_PC((unsigned char *)ch1,(unsigned char)strlen((const char *)ch1));
     294:	fc 01       	movw	r30, r24
     296:	01 90       	ld	r0, Z+
     298:	00 20       	and	r0, r0
     29a:	e9 f7       	brne	.-6      	; 0x296 <nextion_setText+0xc>
     29c:	31 97       	sbiw	r30, 0x01	; 1
     29e:	bf 01       	movw	r22, r30
     2a0:	68 1b       	sub	r22, r24
     2a2:	79 0b       	sbc	r23, r25
     2a4:	7d d5       	rcall	.+2810   	; 0xda0 <Uart_Transmit_IT_PC>
		Uart_Transmit_IT_PC((unsigned char *)ch2,(unsigned char)strlen((const char *)ch2));
     2a6:	65 e0       	ldi	r22, 0x05	; 5
     2a8:	80 ec       	ldi	r24, 0xC0	; 192
     2aa:	92 e0       	ldi	r25, 0x02	; 2
     2ac:	79 d5       	rcall	.+2802   	; 0xda0 <Uart_Transmit_IT_PC>
		Uart_Transmit_IT_PC((unsigned char *)ch3,(unsigned char)strlen((const char *)ch3));
     2ae:	61 e0       	ldi	r22, 0x01	; 1
     2b0:	86 ec       	ldi	r24, 0xC6	; 198
     2b2:	92 e0       	ldi	r25, 0x02	; 2
     2b4:	75 d5       	rcall	.+2794   	; 0xda0 <Uart_Transmit_IT_PC>
		Uart_Transmit_IT_PC((unsigned char *)ch4,(unsigned char)strlen((const char *)ch4));
     2b6:	fe 01       	movw	r30, r28
     2b8:	01 90       	ld	r0, Z+
     2ba:	00 20       	and	r0, r0
     2bc:	e9 f7       	brne	.-6      	; 0x2b8 <nextion_setText+0x2e>
     2be:	31 97       	sbiw	r30, 0x01	; 1
     2c0:	bf 01       	movw	r22, r30
     2c2:	6c 1b       	sub	r22, r28
     2c4:	7d 0b       	sbc	r23, r29
     2c6:	ce 01       	movw	r24, r28
     2c8:	6b d5       	rcall	.+2774   	; 0xda0 <Uart_Transmit_IT_PC>
		Uart_Transmit_IT_PC((unsigned char *)ch5,(unsigned char)strlen((const char *)ch5));
     2ca:	61 e0       	ldi	r22, 0x01	; 1
     2cc:	86 ec       	ldi	r24, 0xC6	; 198
     2ce:	92 e0       	ldi	r25, 0x02	; 2
     2d0:	67 d5       	rcall	.+2766   	; 0xda0 <Uart_Transmit_IT_PC>
		endConversation(UART_PORT);
     2d2:	80 e0       	ldi	r24, 0x00	; 0
     2d4:	89 df       	rcall	.-238    	; 0x1e8 <endConversation>
     2d6:	47 c0       	rjmp	.+142    	; 0x366 <nextion_setText+0xdc>
     2d8:	41 30       	cpi	r20, 0x01	; 1
	}
	if(UART_PORT==1)
     2da:	11 f5       	brne	.+68     	; 0x320 <nextion_setText+0x96>
     2dc:	fc 01       	movw	r30, r24
	{
		Uart_Transmit_IT_Display((unsigned char *)ch1,(unsigned char)strlen((const char *)ch1));
     2de:	01 90       	ld	r0, Z+
     2e0:	00 20       	and	r0, r0
     2e2:	e9 f7       	brne	.-6      	; 0x2de <nextion_setText+0x54>
     2e4:	31 97       	sbiw	r30, 0x01	; 1
     2e6:	bf 01       	movw	r22, r30
     2e8:	68 1b       	sub	r22, r24
     2ea:	79 0b       	sbc	r23, r25
     2ec:	64 d5       	rcall	.+2760   	; 0xdb6 <Uart_Transmit_IT_Display>
		Uart_Transmit_IT_Display((unsigned char *)ch2,(unsigned char)strlen((const char *)ch2));
     2ee:	65 e0       	ldi	r22, 0x05	; 5
     2f0:	80 ec       	ldi	r24, 0xC0	; 192
     2f2:	92 e0       	ldi	r25, 0x02	; 2
     2f4:	60 d5       	rcall	.+2752   	; 0xdb6 <Uart_Transmit_IT_Display>
		Uart_Transmit_IT_Display((unsigned char *)ch3,(unsigned char)strlen((const char *)ch3));
     2f6:	61 e0       	ldi	r22, 0x01	; 1
     2f8:	86 ec       	ldi	r24, 0xC6	; 198
     2fa:	92 e0       	ldi	r25, 0x02	; 2
     2fc:	5c d5       	rcall	.+2744   	; 0xdb6 <Uart_Transmit_IT_Display>
     2fe:	fe 01       	movw	r30, r28
		Uart_Transmit_IT_Display((unsigned char *)ch4,(unsigned char)strlen((const char *)ch4));
     300:	01 90       	ld	r0, Z+
     302:	00 20       	and	r0, r0
     304:	e9 f7       	brne	.-6      	; 0x300 <nextion_setText+0x76>
     306:	31 97       	sbiw	r30, 0x01	; 1
     308:	bf 01       	movw	r22, r30
     30a:	6c 1b       	sub	r22, r28
     30c:	7d 0b       	sbc	r23, r29
     30e:	ce 01       	movw	r24, r28
		Uart_Transmit_IT_Display((unsigned char *)ch5,(unsigned char)strlen((const char *)ch5));
     310:	52 d5       	rcall	.+2724   	; 0xdb6 <Uart_Transmit_IT_Display>
     312:	61 e0       	ldi	r22, 0x01	; 1
     314:	86 ec       	ldi	r24, 0xC6	; 198
     316:	92 e0       	ldi	r25, 0x02	; 2
     318:	4e d5       	rcall	.+2716   	; 0xdb6 <Uart_Transmit_IT_Display>
		
		endConversation(UART_PORT);
     31a:	81 e0       	ldi	r24, 0x01	; 1
     31c:	65 df       	rcall	.-310    	; 0x1e8 <endConversation>
     31e:	23 c0       	rjmp	.+70     	; 0x366 <nextion_setText+0xdc>
// 		Uart_Transmit_IT_PC((unsigned char *)ch2,(unsigned char)strlen((const char *)ch2));
// 		Uart_Transmit_IT_PC((unsigned char *)ch3,(unsigned char)strlen((const char *)ch3));
// 		Uart_Transmit_IT_PC((unsigned char *)ch4,(unsigned char)strlen((const char *)ch4));
// 		Uart_Transmit_IT_PC((unsigned char *)ch5,(unsigned char)strlen((const char *)ch5));
	}
	if(UART_PORT==2)
     320:	42 30       	cpi	r20, 0x02	; 2
     322:	09 f5       	brne	.+66     	; 0x366 <nextion_setText+0xdc>
	{
		Uart_Transmit_IT_ESP((unsigned char *)ch1,(unsigned char)strlen((const char *)ch1));
     324:	fc 01       	movw	r30, r24
     326:	01 90       	ld	r0, Z+
     328:	00 20       	and	r0, r0
     32a:	e9 f7       	brne	.-6      	; 0x326 <nextion_setText+0x9c>
     32c:	31 97       	sbiw	r30, 0x01	; 1
     32e:	bf 01       	movw	r22, r30
     330:	68 1b       	sub	r22, r24
     332:	79 0b       	sbc	r23, r25
		Uart_Transmit_IT_ESP((unsigned char *)ch2,(unsigned char)strlen((const char *)ch2));
     334:	4b d5       	rcall	.+2710   	; 0xdcc <Uart_Transmit_IT_ESP>
     336:	65 e0       	ldi	r22, 0x05	; 5
     338:	80 ec       	ldi	r24, 0xC0	; 192
     33a:	92 e0       	ldi	r25, 0x02	; 2
		Uart_Transmit_IT_ESP((unsigned char *)ch3,(unsigned char)strlen((const char *)ch3));
     33c:	47 d5       	rcall	.+2702   	; 0xdcc <Uart_Transmit_IT_ESP>
     33e:	61 e0       	ldi	r22, 0x01	; 1
     340:	86 ec       	ldi	r24, 0xC6	; 198
     342:	92 e0       	ldi	r25, 0x02	; 2
		Uart_Transmit_IT_ESP((unsigned char *)ch4,(unsigned char)strlen((const char *)ch4));
     344:	43 d5       	rcall	.+2694   	; 0xdcc <Uart_Transmit_IT_ESP>
     346:	fe 01       	movw	r30, r28
     348:	01 90       	ld	r0, Z+
     34a:	00 20       	and	r0, r0
     34c:	e9 f7       	brne	.-6      	; 0x348 <nextion_setText+0xbe>
     34e:	31 97       	sbiw	r30, 0x01	; 1
     350:	bf 01       	movw	r22, r30
     352:	6c 1b       	sub	r22, r28
     354:	7d 0b       	sbc	r23, r29
     356:	ce 01       	movw	r24, r28
		Uart_Transmit_IT_ESP((unsigned char *)ch5,(unsigned char)strlen((const char *)ch5));
     358:	39 d5       	rcall	.+2674   	; 0xdcc <Uart_Transmit_IT_ESP>
     35a:	61 e0       	ldi	r22, 0x01	; 1
     35c:	86 ec       	ldi	r24, 0xC6	; 198
     35e:	92 e0       	ldi	r25, 0x02	; 2
     360:	35 d5       	rcall	.+2666   	; 0xdcc <Uart_Transmit_IT_ESP>

		endConversation(UART_PORT);
     362:	82 e0       	ldi	r24, 0x02	; 2
     364:	41 df       	rcall	.-382    	; 0x1e8 <endConversation>
     366:	df 91       	pop	r29
// 		Uart_Transmit_IT_PC((unsigned char *)ch2,(unsigned char)strlen((const char *)ch2));
// 		Uart_Transmit_IT_PC((unsigned char *)ch3,(unsigned char)strlen((const char *)ch3));
// 		Uart_Transmit_IT_PC((unsigned char *)ch4,(unsigned char)strlen((const char *)ch4));
// 		Uart_Transmit_IT_PC((unsigned char *)ch5,(unsigned char)strlen((const char *)ch5));
	}
}
     368:	cf 91       	pop	r28
     36a:	08 95       	ret

0000036c <nextion_setValue>:
     36c:	cf 93       	push	r28


void nextion_setValue(unsigned char * object, unsigned char * value, char UART_PORT)
{
     36e:	df 93       	push	r29
     370:	eb 01       	movw	r28, r22
	unsigned char * ch1 = object;
	unsigned char * ch2 = (unsigned char *) ".val=";
	unsigned char * ch3 = value;
	if(UART_PORT==0)
     372:	41 11       	cpse	r20, r1
     374:	1a c0       	rjmp	.+52     	; 0x3aa <nextion_setValue+0x3e>
	{
		Uart_Transmit_IT_PC(ch1,(unsigned char)strlen((const char *)ch1));
     376:	fc 01       	movw	r30, r24
     378:	01 90       	ld	r0, Z+
     37a:	00 20       	and	r0, r0
     37c:	e9 f7       	brne	.-6      	; 0x378 <nextion_setValue+0xc>
     37e:	31 97       	sbiw	r30, 0x01	; 1
     380:	bf 01       	movw	r22, r30
     382:	68 1b       	sub	r22, r24
     384:	79 0b       	sbc	r23, r25
     386:	0c d5       	rcall	.+2584   	; 0xda0 <Uart_Transmit_IT_PC>
		Uart_Transmit_IT_PC(ch2,(unsigned char)strlen((const char *)ch2));
     388:	65 e0       	ldi	r22, 0x05	; 5
     38a:	88 ec       	ldi	r24, 0xC8	; 200
     38c:	92 e0       	ldi	r25, 0x02	; 2
     38e:	08 d5       	rcall	.+2576   	; 0xda0 <Uart_Transmit_IT_PC>
		Uart_Transmit_IT_PC(ch3,(unsigned char)strlen((const char *)ch3));
     390:	fe 01       	movw	r30, r28
     392:	01 90       	ld	r0, Z+
     394:	00 20       	and	r0, r0
     396:	e9 f7       	brne	.-6      	; 0x392 <nextion_setValue+0x26>
     398:	31 97       	sbiw	r30, 0x01	; 1
     39a:	bf 01       	movw	r22, r30
     39c:	6c 1b       	sub	r22, r28
     39e:	7d 0b       	sbc	r23, r29
     3a0:	ce 01       	movw	r24, r28

		endConversation(UART_PORT);
     3a2:	fe d4       	rcall	.+2556   	; 0xda0 <Uart_Transmit_IT_PC>
     3a4:	80 e0       	ldi	r24, 0x00	; 0
     3a6:	20 df       	rcall	.-448    	; 0x1e8 <endConversation>
     3a8:	37 c0       	rjmp	.+110    	; 0x418 <__LOCK_REGION_LENGTH__+0x18>
	}
	if(UART_PORT==1)
     3aa:	41 30       	cpi	r20, 0x01	; 1
     3ac:	d1 f4       	brne	.+52     	; 0x3e2 <nextion_setValue+0x76>
	{
		Uart_Transmit_IT_Display(ch1,(unsigned char)strlen((const char *)ch1));
     3ae:	fc 01       	movw	r30, r24
     3b0:	01 90       	ld	r0, Z+
     3b2:	00 20       	and	r0, r0
     3b4:	e9 f7       	brne	.-6      	; 0x3b0 <nextion_setValue+0x44>
     3b6:	31 97       	sbiw	r30, 0x01	; 1
     3b8:	bf 01       	movw	r22, r30
     3ba:	68 1b       	sub	r22, r24
     3bc:	79 0b       	sbc	r23, r25
		Uart_Transmit_IT_Display(ch2,(unsigned char)strlen((const char *)ch2));
     3be:	fb d4       	rcall	.+2550   	; 0xdb6 <Uart_Transmit_IT_Display>
     3c0:	65 e0       	ldi	r22, 0x05	; 5
     3c2:	88 ec       	ldi	r24, 0xC8	; 200
     3c4:	92 e0       	ldi	r25, 0x02	; 2
     3c6:	f7 d4       	rcall	.+2542   	; 0xdb6 <Uart_Transmit_IT_Display>
		Uart_Transmit_IT_Display(ch3,(unsigned char)strlen((const char *)ch3));
     3c8:	fe 01       	movw	r30, r28
     3ca:	01 90       	ld	r0, Z+
     3cc:	00 20       	and	r0, r0
     3ce:	e9 f7       	brne	.-6      	; 0x3ca <nextion_setValue+0x5e>
     3d0:	31 97       	sbiw	r30, 0x01	; 1
     3d2:	bf 01       	movw	r22, r30
     3d4:	6c 1b       	sub	r22, r28
     3d6:	7d 0b       	sbc	r23, r29
     3d8:	ce 01       	movw	r24, r28

		
		endConversation(UART_PORT);
     3da:	ed d4       	rcall	.+2522   	; 0xdb6 <Uart_Transmit_IT_Display>
     3dc:	81 e0       	ldi	r24, 0x01	; 1
     3de:	04 df       	rcall	.-504    	; 0x1e8 <endConversation>
     3e0:	1b c0       	rjmp	.+54     	; 0x418 <__LOCK_REGION_LENGTH__+0x18>
// 		Uart_Transmit_IT_PC(ch2,(unsigned char)strlen((const char *)ch2));
// 		Uart_Transmit_IT_PC(ch3,(unsigned char)strlen((const char *)ch3));
// 		Uart_Transmit_IT_PC((unsigned char *)"\r\n",(unsigned char)strlen((const char *)ch3));

	}
	if(UART_PORT==2)
     3e2:	42 30       	cpi	r20, 0x02	; 2
     3e4:	c9 f4       	brne	.+50     	; 0x418 <__LOCK_REGION_LENGTH__+0x18>
	{
		Uart_Transmit_IT_ESP(ch1,(unsigned char)strlen((const char *)ch1));
     3e6:	fc 01       	movw	r30, r24
     3e8:	01 90       	ld	r0, Z+
     3ea:	00 20       	and	r0, r0
     3ec:	e9 f7       	brne	.-6      	; 0x3e8 <nextion_setValue+0x7c>
     3ee:	31 97       	sbiw	r30, 0x01	; 1
     3f0:	bf 01       	movw	r22, r30
     3f2:	68 1b       	sub	r22, r24
     3f4:	79 0b       	sbc	r23, r25
		Uart_Transmit_IT_ESP(ch2,(unsigned char)strlen((const char *)ch2));
     3f6:	ea d4       	rcall	.+2516   	; 0xdcc <Uart_Transmit_IT_ESP>
     3f8:	65 e0       	ldi	r22, 0x05	; 5
     3fa:	88 ec       	ldi	r24, 0xC8	; 200
     3fc:	92 e0       	ldi	r25, 0x02	; 2
		Uart_Transmit_IT_ESP(ch3,(unsigned char)strlen((const char *)ch3));
     3fe:	e6 d4       	rcall	.+2508   	; 0xdcc <Uart_Transmit_IT_ESP>
     400:	fe 01       	movw	r30, r28
     402:	01 90       	ld	r0, Z+
     404:	00 20       	and	r0, r0
     406:	e9 f7       	brne	.-6      	; 0x402 <__LOCK_REGION_LENGTH__+0x2>
     408:	31 97       	sbiw	r30, 0x01	; 1
     40a:	bf 01       	movw	r22, r30
     40c:	6c 1b       	sub	r22, r28
     40e:	7d 0b       	sbc	r23, r29
     410:	ce 01       	movw	r24, r28


		endConversation(UART_PORT);
     412:	dc d4       	rcall	.+2488   	; 0xdcc <Uart_Transmit_IT_ESP>
     414:	82 e0       	ldi	r24, 0x02	; 2
     416:	e8 de       	rcall	.-560    	; 0x1e8 <endConversation>
// 		Uart_Transmit_IT_PC(ch1,(unsigned char)strlen((const char *)ch1));
// 		Uart_Transmit_IT_PC(ch2,(unsigned char)strlen((const char *)ch2));
// 		Uart_Transmit_IT_PC(ch3,(unsigned char)strlen((const char *)ch3));
// 		Uart_Transmit_IT_PC((unsigned char *)"\r\n",(unsigned char)strlen((const char *)ch3));
	}
}
     418:	df 91       	pop	r29
     41a:	cf 91       	pop	r28
     41c:	08 95       	ret

0000041e <nextion_setPicture>:

void nextion_setPicture(unsigned char * x, unsigned char * y, unsigned char * picture, char UART_PORT)
{
     41e:	ef 92       	push	r14
     420:	ff 92       	push	r15
     422:	0f 93       	push	r16
     424:	1f 93       	push	r17
     426:	cf 93       	push	r28
     428:	df 93       	push	r29
     42a:	7c 01       	movw	r14, r24
     42c:	8b 01       	movw	r16, r22
     42e:	ea 01       	movw	r28, r20
	unsigned char * ch3 = (unsigned char *) ",";
	unsigned char * ch4 = y;
	unsigned char * ch5 = (unsigned char *) ",";
	unsigned char * ch6 = picture;

	if(UART_PORT==0)
     430:	21 11       	cpse	r18, r1
     432:	2d c0       	rjmp	.+90     	; 0x48e <nextion_setPicture+0x70>
	{
		Uart_Transmit_IT_PC(ch1,(unsigned char)strlen((const char *)ch1));
     434:	64 e0       	ldi	r22, 0x04	; 4
     436:	8e ec       	ldi	r24, 0xCE	; 206
     438:	92 e0       	ldi	r25, 0x02	; 2
     43a:	b2 d4       	rcall	.+2404   	; 0xda0 <Uart_Transmit_IT_PC>
		Uart_Transmit_IT_PC(ch2,(unsigned char)strlen((const char *)ch2));
     43c:	f7 01       	movw	r30, r14
     43e:	01 90       	ld	r0, Z+
     440:	00 20       	and	r0, r0
     442:	e9 f7       	brne	.-6      	; 0x43e <nextion_setPicture+0x20>
     444:	31 97       	sbiw	r30, 0x01	; 1
     446:	bf 01       	movw	r22, r30
     448:	6e 19       	sub	r22, r14
     44a:	7f 09       	sbc	r23, r15
     44c:	c7 01       	movw	r24, r14
     44e:	a8 d4       	rcall	.+2384   	; 0xda0 <Uart_Transmit_IT_PC>
		Uart_Transmit_IT_PC(ch3,(unsigned char)strlen((const char *)ch3));
     450:	61 e0       	ldi	r22, 0x01	; 1
     452:	83 ed       	ldi	r24, 0xD3	; 211
     454:	92 e0       	ldi	r25, 0x02	; 2
     456:	a4 d4       	rcall	.+2376   	; 0xda0 <Uart_Transmit_IT_PC>
		Uart_Transmit_IT_PC(ch4,(unsigned char)strlen((const char *)ch4));
     458:	f8 01       	movw	r30, r16
     45a:	01 90       	ld	r0, Z+
     45c:	00 20       	and	r0, r0
     45e:	e9 f7       	brne	.-6      	; 0x45a <nextion_setPicture+0x3c>
     460:	31 97       	sbiw	r30, 0x01	; 1
     462:	bf 01       	movw	r22, r30
     464:	60 1b       	sub	r22, r16
     466:	71 0b       	sbc	r23, r17
     468:	c8 01       	movw	r24, r16
     46a:	9a d4       	rcall	.+2356   	; 0xda0 <Uart_Transmit_IT_PC>
		Uart_Transmit_IT_PC(ch5,(unsigned char)strlen((const char *)ch5));
     46c:	61 e0       	ldi	r22, 0x01	; 1
     46e:	83 ed       	ldi	r24, 0xD3	; 211
     470:	92 e0       	ldi	r25, 0x02	; 2
     472:	96 d4       	rcall	.+2348   	; 0xda0 <Uart_Transmit_IT_PC>
     474:	fe 01       	movw	r30, r28
		Uart_Transmit_IT_PC(ch6,(unsigned char)strlen((const char *)ch6));
     476:	01 90       	ld	r0, Z+
     478:	00 20       	and	r0, r0
     47a:	e9 f7       	brne	.-6      	; 0x476 <nextion_setPicture+0x58>
     47c:	31 97       	sbiw	r30, 0x01	; 1
     47e:	bf 01       	movw	r22, r30
     480:	6c 1b       	sub	r22, r28
     482:	7d 0b       	sbc	r23, r29
     484:	ce 01       	movw	r24, r28
     486:	8c d4       	rcall	.+2328   	; 0xda0 <Uart_Transmit_IT_PC>

		endConversation(UART_PORT);
     488:	80 e0       	ldi	r24, 0x00	; 0
     48a:	ae de       	rcall	.-676    	; 0x1e8 <endConversation>
     48c:	5d c0       	rjmp	.+186    	; 0x548 <nextion_setPicture+0x12a>
	}
	if(UART_PORT==1)
     48e:	21 30       	cpi	r18, 0x01	; 1
     490:	69 f5       	brne	.+90     	; 0x4ec <nextion_setPicture+0xce>
	{
		Uart_Transmit_IT_Display(ch1,(unsigned char)strlen((const char *)ch1));
     492:	64 e0       	ldi	r22, 0x04	; 4
     494:	8e ec       	ldi	r24, 0xCE	; 206
     496:	92 e0       	ldi	r25, 0x02	; 2
     498:	8e d4       	rcall	.+2332   	; 0xdb6 <Uart_Transmit_IT_Display>
     49a:	f7 01       	movw	r30, r14
		Uart_Transmit_IT_Display(ch2,(unsigned char)strlen((const char *)ch2));
     49c:	01 90       	ld	r0, Z+
     49e:	00 20       	and	r0, r0
     4a0:	e9 f7       	brne	.-6      	; 0x49c <nextion_setPicture+0x7e>
     4a2:	31 97       	sbiw	r30, 0x01	; 1
     4a4:	bf 01       	movw	r22, r30
     4a6:	6e 19       	sub	r22, r14
     4a8:	7f 09       	sbc	r23, r15
     4aa:	c7 01       	movw	r24, r14
     4ac:	84 d4       	rcall	.+2312   	; 0xdb6 <Uart_Transmit_IT_Display>
		Uart_Transmit_IT_Display(ch3,(unsigned char)strlen((const char *)ch3));
     4ae:	61 e0       	ldi	r22, 0x01	; 1
     4b0:	83 ed       	ldi	r24, 0xD3	; 211
     4b2:	92 e0       	ldi	r25, 0x02	; 2
     4b4:	80 d4       	rcall	.+2304   	; 0xdb6 <Uart_Transmit_IT_Display>
		Uart_Transmit_IT_Display(ch4,(unsigned char)strlen((const char *)ch4));
     4b6:	f8 01       	movw	r30, r16
     4b8:	01 90       	ld	r0, Z+
     4ba:	00 20       	and	r0, r0
     4bc:	e9 f7       	brne	.-6      	; 0x4b8 <nextion_setPicture+0x9a>
     4be:	31 97       	sbiw	r30, 0x01	; 1
     4c0:	bf 01       	movw	r22, r30
     4c2:	60 1b       	sub	r22, r16
     4c4:	71 0b       	sbc	r23, r17
     4c6:	c8 01       	movw	r24, r16
     4c8:	76 d4       	rcall	.+2284   	; 0xdb6 <Uart_Transmit_IT_Display>
		Uart_Transmit_IT_Display(ch5,(unsigned char)strlen((const char *)ch5));
     4ca:	61 e0       	ldi	r22, 0x01	; 1
     4cc:	83 ed       	ldi	r24, 0xD3	; 211
     4ce:	92 e0       	ldi	r25, 0x02	; 2
     4d0:	72 d4       	rcall	.+2276   	; 0xdb6 <Uart_Transmit_IT_Display>
		Uart_Transmit_IT_Display(ch6,(unsigned char)strlen((const char *)ch6));
     4d2:	fe 01       	movw	r30, r28
     4d4:	01 90       	ld	r0, Z+
     4d6:	00 20       	and	r0, r0
     4d8:	e9 f7       	brne	.-6      	; 0x4d4 <nextion_setPicture+0xb6>
     4da:	31 97       	sbiw	r30, 0x01	; 1
     4dc:	bf 01       	movw	r22, r30
     4de:	6c 1b       	sub	r22, r28
     4e0:	7d 0b       	sbc	r23, r29
     4e2:	ce 01       	movw	r24, r28
     4e4:	68 d4       	rcall	.+2256   	; 0xdb6 <Uart_Transmit_IT_Display>
		
		endConversation(UART_PORT);
     4e6:	81 e0       	ldi	r24, 0x01	; 1
     4e8:	7f de       	rcall	.-770    	; 0x1e8 <endConversation>
     4ea:	2e c0       	rjmp	.+92     	; 0x548 <nextion_setPicture+0x12a>
     4ec:	22 30       	cpi	r18, 0x02	; 2
// 		Uart_Transmit_IT_PC(ch5,(unsigned char)strlen((const char *)ch5));
// 		Uart_Transmit_IT_PC(ch6,(unsigned char)strlen((const char *)ch6));
// 		Uart_Transmit_IT_PC((unsigned char *)"\r\n",(unsigned char)strlen((const char *)ch3));

	}
	if(UART_PORT==2)
     4ee:	61 f5       	brne	.+88     	; 0x548 <nextion_setPicture+0x12a>
	{
		Uart_Transmit_IT_ESP(ch1,(unsigned char)strlen((const char *)ch1));
     4f0:	64 e0       	ldi	r22, 0x04	; 4
     4f2:	8e ec       	ldi	r24, 0xCE	; 206
     4f4:	92 e0       	ldi	r25, 0x02	; 2
     4f6:	6a d4       	rcall	.+2260   	; 0xdcc <Uart_Transmit_IT_ESP>
		Uart_Transmit_IT_ESP(ch2,(unsigned char)strlen((const char *)ch2));
     4f8:	f7 01       	movw	r30, r14
     4fa:	01 90       	ld	r0, Z+
     4fc:	00 20       	and	r0, r0
     4fe:	e9 f7       	brne	.-6      	; 0x4fa <nextion_setPicture+0xdc>
     500:	31 97       	sbiw	r30, 0x01	; 1
     502:	bf 01       	movw	r22, r30
     504:	6e 19       	sub	r22, r14
     506:	7f 09       	sbc	r23, r15
     508:	c7 01       	movw	r24, r14
     50a:	60 d4       	rcall	.+2240   	; 0xdcc <Uart_Transmit_IT_ESP>
		Uart_Transmit_IT_ESP(ch3,(unsigned char)strlen((const char *)ch3));
     50c:	61 e0       	ldi	r22, 0x01	; 1
     50e:	83 ed       	ldi	r24, 0xD3	; 211
     510:	92 e0       	ldi	r25, 0x02	; 2
     512:	5c d4       	rcall	.+2232   	; 0xdcc <Uart_Transmit_IT_ESP>
		Uart_Transmit_IT_ESP(ch4,(unsigned char)strlen((const char *)ch4));
     514:	f8 01       	movw	r30, r16
     516:	01 90       	ld	r0, Z+
     518:	00 20       	and	r0, r0
     51a:	e9 f7       	brne	.-6      	; 0x516 <nextion_setPicture+0xf8>
     51c:	31 97       	sbiw	r30, 0x01	; 1
     51e:	bf 01       	movw	r22, r30
     520:	60 1b       	sub	r22, r16
     522:	71 0b       	sbc	r23, r17
     524:	c8 01       	movw	r24, r16
		Uart_Transmit_IT_ESP(ch5,(unsigned char)strlen((const char *)ch5));
     526:	52 d4       	rcall	.+2212   	; 0xdcc <Uart_Transmit_IT_ESP>
     528:	61 e0       	ldi	r22, 0x01	; 1
     52a:	83 ed       	ldi	r24, 0xD3	; 211
     52c:	92 e0       	ldi	r25, 0x02	; 2
     52e:	4e d4       	rcall	.+2204   	; 0xdcc <Uart_Transmit_IT_ESP>
		Uart_Transmit_IT_ESP(ch6,(unsigned char)strlen((const char *)ch6));
     530:	fe 01       	movw	r30, r28
     532:	01 90       	ld	r0, Z+
     534:	00 20       	and	r0, r0
     536:	e9 f7       	brne	.-6      	; 0x532 <nextion_setPicture+0x114>
     538:	31 97       	sbiw	r30, 0x01	; 1
     53a:	bf 01       	movw	r22, r30
     53c:	6c 1b       	sub	r22, r28
     53e:	7d 0b       	sbc	r23, r29
     540:	ce 01       	movw	r24, r28
     542:	44 d4       	rcall	.+2184   	; 0xdcc <Uart_Transmit_IT_ESP>
     544:	82 e0       	ldi	r24, 0x02	; 2

		endConversation(UART_PORT);
     546:	50 de       	rcall	.-864    	; 0x1e8 <endConversation>
     548:	df 91       	pop	r29
     54a:	cf 91       	pop	r28
// 		Uart_Transmit_IT_PC(ch4,(unsigned char)strlen((const char *)ch4));
// 		Uart_Transmit_IT_PC(ch5,(unsigned char)strlen((const char *)ch5));
// 		Uart_Transmit_IT_PC(ch6,(unsigned char)strlen((const char *)ch6));
// 		Uart_Transmit_IT_PC((unsigned char *)"\r\n",(unsigned char)strlen((const char *)ch3));
	}
}
     54c:	1f 91       	pop	r17
     54e:	0f 91       	pop	r16
     550:	ff 90       	pop	r15
     552:	ef 90       	pop	r14
     554:	08 95       	ret

00000556 <mfrc522_write>:
		mfrc522_write(TxControlReg,byte|0x03);
	}
}

void mfrc522_write(uint8_t reg, uint8_t data)
{
     556:	cf 93       	push	r28
     558:	c6 2f       	mov	r28, r22
	ENABLE_RC522();
     55a:	2d 98       	cbi	0x05, 5	; 5
	spi_transmit((reg<<1)&0x7E);
     55c:	88 0f       	add	r24, r24
     55e:	8e 77       	andi	r24, 0x7E	; 126
     560:	84 d2       	rcall	.+1288   	; 0xa6a <spi_transmit>
	spi_transmit(data);
     562:	8c 2f       	mov	r24, r28
     564:	82 d2       	rcall	.+1284   	; 0xa6a <spi_transmit>
	DISABLE_RC522();
     566:	2d 9a       	sbi	0x05, 5	; 5
}
     568:	cf 91       	pop	r28
     56a:	08 95       	ret

0000056c <mfrc522_read>:

uint8_t mfrc522_read(uint8_t reg)
{
	uint8_t data;
	ENABLE_RC522();
     56c:	2d 98       	cbi	0x05, 5	; 5
	spi_transmit(((reg<<1)&0x7E)|0x80);
     56e:	88 0f       	add	r24, r24
     570:	8e 77       	andi	r24, 0x7E	; 126
     572:	80 68       	ori	r24, 0x80	; 128
     574:	7a d2       	rcall	.+1268   	; 0xa6a <spi_transmit>
	data = spi_transmit(0x00);
     576:	80 e0       	ldi	r24, 0x00	; 0
     578:	78 d2       	rcall	.+1264   	; 0xa6a <spi_transmit>
	DISABLE_RC522();
     57a:	2d 9a       	sbi	0x05, 5	; 5
	return data;
}
     57c:	08 95       	ret

0000057e <mfrc522_reset>:

void mfrc522_reset()
{
	mfrc522_write(CommandReg,SoftReset_CMD);
     57e:	6f e0       	ldi	r22, 0x0F	; 15
     580:	81 e0       	ldi	r24, 0x01	; 1
     582:	e9 cf       	rjmp	.-46     	; 0x556 <mfrc522_write>
     584:	08 95       	ret

00000586 <mfrc522_init>:
#include "mfrc522.h"

void mfrc522_init()
{
	uint8_t byte;
	mfrc522_reset();
     586:	fb df       	rcall	.-10     	; 0x57e <mfrc522_reset>

	mfrc522_write(TModeReg, 0x8D);
     588:	6d e8       	ldi	r22, 0x8D	; 141
     58a:	8a e2       	ldi	r24, 0x2A	; 42
     58c:	e4 df       	rcall	.-56     	; 0x556 <mfrc522_write>
    mfrc522_write(TPrescalerReg, 0x3E);
     58e:	6e e3       	ldi	r22, 0x3E	; 62
     590:	8b e2       	ldi	r24, 0x2B	; 43
     592:	e1 df       	rcall	.-62     	; 0x556 <mfrc522_write>
    mfrc522_write(TReloadReg_1, 30);   
     594:	6e e1       	ldi	r22, 0x1E	; 30
     596:	8c e2       	ldi	r24, 0x2C	; 44
     598:	de df       	rcall	.-68     	; 0x556 <mfrc522_write>
    mfrc522_write(TReloadReg_2, 0);	
     59a:	60 e0       	ldi	r22, 0x00	; 0
     59c:	8d e2       	ldi	r24, 0x2D	; 45
     59e:	db df       	rcall	.-74     	; 0x556 <mfrc522_write>
	mfrc522_write(TxASKReg, 0x40);	
     5a0:	60 e4       	ldi	r22, 0x40	; 64
     5a2:	85 e1       	ldi	r24, 0x15	; 21
	mfrc522_write(ModeReg, 0x3D);
     5a4:	d8 df       	rcall	.-80     	; 0x556 <mfrc522_write>
     5a6:	6d e3       	ldi	r22, 0x3D	; 61
     5a8:	81 e1       	ldi	r24, 0x11	; 17
     5aa:	d5 df       	rcall	.-86     	; 0x556 <mfrc522_write>
	
	byte = mfrc522_read(TxControlReg);
     5ac:	84 e1       	ldi	r24, 0x14	; 20
     5ae:	de df       	rcall	.-68     	; 0x56c <mfrc522_read>
	if(!(byte&0x03))
     5b0:	98 2f       	mov	r25, r24
     5b2:	93 70       	andi	r25, 0x03	; 3
     5b4:	21 f4       	brne	.+8      	; 0x5be <mfrc522_init+0x38>
	{
		mfrc522_write(TxControlReg,byte|0x03);
     5b6:	68 2f       	mov	r22, r24
     5b8:	63 60       	ori	r22, 0x03	; 3
     5ba:	84 e1       	ldi	r24, 0x14	; 20
     5bc:	cc cf       	rjmp	.-104    	; 0x556 <mfrc522_write>
     5be:	08 95       	ret

000005c0 <mfrc522_to_card>:
     5c0:	3f 92       	push	r3
   
	return status;
}

uint8_t mfrc522_to_card(uint8_t cmd, uint8_t *send_data, uint8_t send_data_len, uint8_t *back_data, uint32_t *back_data_len)
{
     5c2:	4f 92       	push	r4
     5c4:	5f 92       	push	r5
     5c6:	6f 92       	push	r6
     5c8:	7f 92       	push	r7
     5ca:	8f 92       	push	r8
     5cc:	9f 92       	push	r9
     5ce:	af 92       	push	r10
     5d0:	bf 92       	push	r11
     5d2:	cf 92       	push	r12
     5d4:	df 92       	push	r13
     5d6:	ef 92       	push	r14
     5d8:	ff 92       	push	r15
     5da:	0f 93       	push	r16
     5dc:	1f 93       	push	r17
     5de:	cf 93       	push	r28
     5e0:	df 93       	push	r29
     5e2:	98 2e       	mov	r9, r24
     5e4:	f6 2e       	mov	r15, r22
     5e6:	e7 2e       	mov	r14, r23
     5e8:	44 2e       	mov	r4, r20
     5ea:	82 2e       	mov	r8, r18
     5ec:	33 2e       	mov	r3, r19
     5ee:	58 01       	movw	r10, r16
    uint8_t lastBits;
    uint8_t n;
    uint8_t	tmp;
    uint32_t i;

    switch (cmd)
     5f0:	8c e0       	ldi	r24, 0x0C	; 12
     5f2:	98 16       	cp	r9, r24
     5f4:	09 f4       	brne	.+2      	; 0x5f8 <mfrc522_to_card+0x38>
     5f6:	ba c0       	rjmp	.+372    	; 0x76c <mfrc522_to_card+0x1ac>
     5f8:	ee e0       	ldi	r30, 0x0E	; 14
     5fa:	9e 12       	cpse	r9, r30
     5fc:	03 c0       	rjmp	.+6      	; 0x604 <mfrc522_to_card+0x44>
    {
        case MFAuthent_CMD:		//Certification cards close
		{
			irqEn = 0x12;
			waitIRq = 0x10;
     5fe:	10 e1       	ldi	r17, 0x10	; 16

    switch (cmd)
    {
        case MFAuthent_CMD:		//Certification cards close
		{
			irqEn = 0x12;
     600:	02 e1       	ldi	r16, 0x12	; 18
     602:	02 c0       	rjmp	.+4      	; 0x608 <mfrc522_to_card+0x48>

uint8_t mfrc522_to_card(uint8_t cmd, uint8_t *send_data, uint8_t send_data_len, uint8_t *back_data, uint32_t *back_data_len)
{
	uint8_t status = ERROR;
    uint8_t irqEn = 0x00;
    uint8_t waitIRq = 0x00;
     604:	10 e0       	ldi	r17, 0x00	; 0
}

uint8_t mfrc522_to_card(uint8_t cmd, uint8_t *send_data, uint8_t send_data_len, uint8_t *back_data, uint32_t *back_data_len)
{
	uint8_t status = ERROR;
    uint8_t irqEn = 0x00;
     606:	00 e0       	ldi	r16, 0x00	; 0
		default:
			break;
    }
   
    //mfrc522_write(ComIEnReg, irqEn|0x80);	//Interrupt request
    n=mfrc522_read(ComIrqReg);
     608:	84 e0       	ldi	r24, 0x04	; 4
     60a:	b0 df       	rcall	.-160    	; 0x56c <mfrc522_read>
    mfrc522_write(ComIrqReg,n&(~0x80));//clear all interrupt bits
     60c:	68 2f       	mov	r22, r24
     60e:	6f 77       	andi	r22, 0x7F	; 127
     610:	84 e0       	ldi	r24, 0x04	; 4
     612:	a1 df       	rcall	.-190    	; 0x556 <mfrc522_write>
    n=mfrc522_read(FIFOLevelReg);
     614:	8a e0       	ldi	r24, 0x0A	; 10
     616:	aa df       	rcall	.-172    	; 0x56c <mfrc522_read>
     618:	68 2f       	mov	r22, r24
    mfrc522_write(FIFOLevelReg,n|0x80);//flush FIFO data
     61a:	60 68       	ori	r22, 0x80	; 128
     61c:	8a e0       	ldi	r24, 0x0A	; 10
     61e:	9b df       	rcall	.-202    	; 0x556 <mfrc522_write>
    
	mfrc522_write(CommandReg, Idle_CMD);	//NO action; Cancel the current cmd???
     620:	60 e0       	ldi	r22, 0x00	; 0
     622:	81 e0       	ldi	r24, 0x01	; 1
     624:	98 df       	rcall	.-208    	; 0x556 <mfrc522_write>
     626:	51 2c       	mov	r5, r1

	//Writing data to the FIFO
    for (i=0; i<send_data_len; i++)
     628:	61 2c       	mov	r6, r1
     62a:	71 2c       	mov	r7, r1
     62c:	41 14       	cp	r4, r1
     62e:	51 04       	cpc	r5, r1
     630:	61 04       	cpc	r6, r1
     632:	71 04       	cpc	r7, r1
     634:	19 f4       	brne	.+6      	; 0x63c <mfrc522_to_card+0x7c>
     636:	14 c0       	rjmp	.+40     	; 0x660 <mfrc522_to_card+0xa0>
     638:	10 e3       	ldi	r17, 0x30	; 48
			break;
		}
		case Transceive_CMD:	//Transmit FIFO data
		{
			irqEn = 0x77;
			waitIRq = 0x30;
     63a:	07 e7       	ldi	r16, 0x77	; 119
			waitIRq = 0x10;
			break;
		}
		case Transceive_CMD:	//Transmit FIFO data
		{
			irqEn = 0x77;
     63c:	cf 2d       	mov	r28, r15
     63e:	de 2d       	mov	r29, r14
     640:	c1 2c       	mov	r12, r1
     642:	d1 2c       	mov	r13, r1
     644:	76 01       	movw	r14, r12
	mfrc522_write(CommandReg, Idle_CMD);	//NO action; Cancel the current cmd???

	//Writing data to the FIFO
    for (i=0; i<send_data_len; i++)
    {   
		mfrc522_write(FIFODataReg, send_data[i]);    
     646:	69 91       	ld	r22, Y+
     648:	89 e0       	ldi	r24, 0x09	; 9
     64a:	85 df       	rcall	.-246    	; 0x556 <mfrc522_write>
     64c:	ff ef       	ldi	r31, 0xFF	; 255
    mfrc522_write(FIFOLevelReg,n|0x80);//flush FIFO data
    
	mfrc522_write(CommandReg, Idle_CMD);	//NO action; Cancel the current cmd???

	//Writing data to the FIFO
    for (i=0; i<send_data_len; i++)
     64e:	cf 1a       	sub	r12, r31
     650:	df 0a       	sbc	r13, r31
     652:	ef 0a       	sbc	r14, r31
     654:	ff 0a       	sbc	r15, r31
     656:	c4 14       	cp	r12, r4
     658:	d5 04       	cpc	r13, r5
     65a:	e6 04       	cpc	r14, r6
     65c:	f7 04       	cpc	r15, r7
     65e:	98 f3       	brcs	.-26     	; 0x646 <mfrc522_to_card+0x86>
    {   
		mfrc522_write(FIFODataReg, send_data[i]);    
	}

	//Execute the cmd
	mfrc522_write(CommandReg, cmd);
     660:	69 2d       	mov	r22, r9
     662:	81 e0       	ldi	r24, 0x01	; 1
     664:	78 df       	rcall	.-272    	; 0x556 <mfrc522_write>
    if (cmd == Transceive_CMD)
     666:	8c e0       	ldi	r24, 0x0C	; 12
     668:	98 12       	cpse	r9, r24
    {    
		n=mfrc522_read(BitFramingReg);
     66a:	06 c0       	rjmp	.+12     	; 0x678 <mfrc522_to_card+0xb8>
     66c:	8d e0       	ldi	r24, 0x0D	; 13
		mfrc522_write(BitFramingReg,n|0x80);  
     66e:	7e df       	rcall	.-260    	; 0x56c <mfrc522_read>
     670:	68 2f       	mov	r22, r24
     672:	60 68       	ori	r22, 0x80	; 128
     674:	8d e0       	ldi	r24, 0x0D	; 13
	i = 2000;	//i according to the clock frequency adjustment, the operator M1 card maximum waiting time 25ms???
    do 
    {
		//CommIrqReg[7..0]
		//Set1 TxIRq RxIRq IdleIRq HiAlerIRq LoAlertIRq ErrIRq TimerIRq
        n = mfrc522_read(ComIrqReg);
     676:	6f df       	rcall	.-290    	; 0x556 <mfrc522_write>
     678:	84 e0       	ldi	r24, 0x04	; 4
     67a:	78 df       	rcall	.-272    	; 0x56c <mfrc522_read>
     67c:	f8 2e       	mov	r15, r24
     67e:	c0 e0       	ldi	r28, 0x00	; 0
     680:	d0 e0       	ldi	r29, 0x00	; 0
        i--;
    }
    while ((i!=0) && !(n&0x01) && !(n&waitIRq));
     682:	11 60       	ori	r17, 0x01	; 1
     684:	09 c0       	rjmp	.+18     	; 0x698 <mfrc522_to_card+0xd8>
	i = 2000;	//i according to the clock frequency adjustment, the operator M1 card maximum waiting time 25ms???
    do 
    {
		//CommIrqReg[7..0]
		//Set1 TxIRq RxIRq IdleIRq HiAlerIRq LoAlertIRq ErrIRq TimerIRq
        n = mfrc522_read(ComIrqReg);
     686:	84 e0       	ldi	r24, 0x04	; 4
     688:	71 df       	rcall	.-286    	; 0x56c <mfrc522_read>
     68a:	f8 2e       	mov	r15, r24
     68c:	21 96       	adiw	r28, 0x01	; 1
     68e:	cf 3c       	cpi	r28, 0xCF	; 207
        i--;
    }
    while ((i!=0) && !(n&0x01) && !(n&waitIRq));
     690:	e7 e0       	ldi	r30, 0x07	; 7
     692:	de 07       	cpc	r29, r30
     694:	09 f4       	brne	.+2      	; 0x698 <mfrc522_to_card+0xd8>
     696:	83 c0       	rjmp	.+262    	; 0x79e <mfrc522_to_card+0x1de>
     698:	81 2f       	mov	r24, r17
     69a:	8f 21       	and	r24, r15
     69c:	a1 f3       	breq	.-24     	; 0x686 <mfrc522_to_card+0xc6>
     69e:	87 c0       	rjmp	.+270    	; 0x7ae <mfrc522_to_card+0x1ee>
    if (i != 0)
    {    
        if(!(mfrc522_read(ErrorReg) & 0x1B))	//BufferOvfl Collerr CRCErr ProtecolErr
        {
            status = CARD_FOUND;
            if (n & irqEn & 0x01)
     6a0:	01 70       	andi	r16, 0x01	; 1
     6a2:	f0 22       	and	r15, r16
            {   
				status = CARD_NOT_FOUND;			//??   
     6a4:	11 f0       	breq	.+4      	; 0x6aa <mfrc522_to_card+0xea>
     6a6:	c2 e0       	ldi	r28, 0x02	; 2
	
    if (i != 0)
    {    
        if(!(mfrc522_read(ErrorReg) & 0x1B))	//BufferOvfl Collerr CRCErr ProtecolErr
        {
            status = CARD_FOUND;
     6a8:	01 c0       	rjmp	.+2      	; 0x6ac <mfrc522_to_card+0xec>
            if (n & irqEn & 0x01)
            {   
				status = CARD_NOT_FOUND;			//??   
			}

            if (cmd == Transceive_CMD)
     6aa:	c1 e0       	ldi	r28, 0x01	; 1
     6ac:	fc e0       	ldi	r31, 0x0C	; 12
     6ae:	9f 12       	cpse	r9, r31
            {
               	n = mfrc522_read(FIFOLevelReg);
     6b0:	8a c0       	rjmp	.+276    	; 0x7c6 <mfrc522_to_card+0x206>
     6b2:	8a e0       	ldi	r24, 0x0A	; 10
     6b4:	5b df       	rcall	.-330    	; 0x56c <mfrc522_read>
     6b6:	48 2e       	mov	r4, r24
              	lastBits = mfrc522_read(ControlReg) & 0x07;
     6b8:	8c e0       	ldi	r24, 0x0C	; 12
     6ba:	58 df       	rcall	.-336    	; 0x56c <mfrc522_read>
     6bc:	28 2f       	mov	r18, r24
     6be:	27 70       	andi	r18, 0x07	; 7
     6c0:	a9 f0       	breq	.+42     	; 0x6ec <mfrc522_to_card+0x12c>
                if (lastBits)
     6c2:	84 2d       	mov	r24, r4
                {   
					*back_data_len = (n-1)*8 + lastBits;   
     6c4:	90 e0       	ldi	r25, 0x00	; 0
     6c6:	01 97       	sbiw	r24, 0x01	; 1
     6c8:	88 0f       	add	r24, r24
     6ca:	99 1f       	adc	r25, r25
     6cc:	88 0f       	add	r24, r24
     6ce:	99 1f       	adc	r25, r25
     6d0:	88 0f       	add	r24, r24
     6d2:	99 1f       	adc	r25, r25
     6d4:	82 0f       	add	r24, r18
     6d6:	91 1d       	adc	r25, r1
     6d8:	09 2e       	mov	r0, r25
     6da:	00 0c       	add	r0, r0
     6dc:	aa 0b       	sbc	r26, r26
     6de:	bb 0b       	sbc	r27, r27
     6e0:	f5 01       	movw	r30, r10
     6e2:	80 83       	st	Z, r24
     6e4:	91 83       	std	Z+1, r25	; 0x01
     6e6:	a2 83       	std	Z+2, r26	; 0x02
     6e8:	b3 83       	std	Z+3, r27	; 0x03
     6ea:	11 c0       	rjmp	.+34     	; 0x70e <mfrc522_to_card+0x14e>
     6ec:	84 2d       	mov	r24, r4
				}
                else
                {   
					*back_data_len = n*8;   
     6ee:	90 e0       	ldi	r25, 0x00	; 0
     6f0:	88 0f       	add	r24, r24
     6f2:	99 1f       	adc	r25, r25
     6f4:	88 0f       	add	r24, r24
     6f6:	99 1f       	adc	r25, r25
     6f8:	88 0f       	add	r24, r24
     6fa:	99 1f       	adc	r25, r25
     6fc:	09 2e       	mov	r0, r25
     6fe:	00 0c       	add	r0, r0
     700:	aa 0b       	sbc	r26, r26
     702:	bb 0b       	sbc	r27, r27
     704:	f5 01       	movw	r30, r10
     706:	80 83       	st	Z, r24
     708:	91 83       	std	Z+1, r25	; 0x01
     70a:	a2 83       	std	Z+2, r26	; 0x02
     70c:	b3 83       	std	Z+3, r27	; 0x03
     70e:	44 20       	and	r4, r4
				}

                if (n == 0)
     710:	71 f0       	breq	.+28     	; 0x72e <mfrc522_to_card+0x16e>
     712:	84 2d       	mov	r24, r4
                {   
					n = MAX_LEN;   
				}
				
				//Reading the received data in FIFO
                for (i=0; i<n; i++)
     714:	81 31       	cpi	r24, 0x11	; 17
     716:	08 f0       	brcs	.+2      	; 0x71a <mfrc522_to_card+0x15a>
     718:	80 e1       	ldi	r24, 0x10	; 16
     71a:	48 2e       	mov	r4, r24
     71c:	51 2c       	mov	r5, r1
     71e:	61 2c       	mov	r6, r1
     720:	71 2c       	mov	r7, r1
     722:	41 14       	cp	r4, r1
     724:	51 04       	cpc	r5, r1
     726:	61 04       	cpc	r6, r1
     728:	71 04       	cpc	r7, r1
     72a:	29 f4       	brne	.+10     	; 0x736 <mfrc522_to_card+0x176>
     72c:	4c c0       	rjmp	.+152    	; 0x7c6 <mfrc522_to_card+0x206>
     72e:	41 2c       	mov	r4, r1
     730:	51 2c       	mov	r5, r1
     732:	32 01       	movw	r6, r4
     734:	43 94       	inc	r4
     736:	08 2d       	mov	r16, r8
     738:	13 2d       	mov	r17, r3
     73a:	c1 2c       	mov	r12, r1
     73c:	d1 2c       	mov	r13, r1
     73e:	76 01       	movw	r14, r12
                {   
					back_data[i] = mfrc522_read(FIFODataReg);    
     740:	89 e0       	ldi	r24, 0x09	; 9
     742:	14 df       	rcall	.-472    	; 0x56c <mfrc522_read>
     744:	f8 01       	movw	r30, r16
     746:	81 93       	st	Z+, r24
     748:	8f 01       	movw	r16, r30
                {   
					n = MAX_LEN;   
				}
				
				//Reading the received data in FIFO
                for (i=0; i<n; i++)
     74a:	ff ef       	ldi	r31, 0xFF	; 255
     74c:	cf 1a       	sub	r12, r31
     74e:	df 0a       	sbc	r13, r31
     750:	ef 0a       	sbc	r14, r31
     752:	ff 0a       	sbc	r15, r31
     754:	c4 14       	cp	r12, r4
     756:	d5 04       	cpc	r13, r5
     758:	e6 04       	cpc	r14, r6
     75a:	f7 04       	cpc	r15, r7
    {   
		mfrc522_write(FIFODataReg, send_data[i]);    
	}

	//Execute the cmd
	mfrc522_write(CommandReg, cmd);
     75c:	88 f3       	brcs	.-30     	; 0x740 <mfrc522_to_card+0x180>
     75e:	33 c0       	rjmp	.+102    	; 0x7c6 <mfrc522_to_card+0x206>
     760:	6c e0       	ldi	r22, 0x0C	; 12
			break;
		}
		case Transceive_CMD:	//Transmit FIFO data
		{
			irqEn = 0x77;
			waitIRq = 0x30;
     762:	81 e0       	ldi	r24, 0x01	; 1
			waitIRq = 0x10;
			break;
		}
		case Transceive_CMD:	//Transmit FIFO data
		{
			irqEn = 0x77;
     764:	f8 de       	rcall	.-528    	; 0x556 <mfrc522_write>
		default:
			break;
    }
   
    //mfrc522_write(ComIEnReg, irqEn|0x80);	//Interrupt request
    n=mfrc522_read(ComIrqReg);
     766:	10 e3       	ldi	r17, 0x30	; 48
     768:	07 e7       	ldi	r16, 0x77	; 119
     76a:	80 cf       	rjmp	.-256    	; 0x66c <mfrc522_to_card+0xac>
    mfrc522_write(ComIrqReg,n&(~0x80));//clear all interrupt bits
     76c:	84 e0       	ldi	r24, 0x04	; 4
     76e:	fe de       	rcall	.-516    	; 0x56c <mfrc522_read>
     770:	68 2f       	mov	r22, r24
     772:	6f 77       	andi	r22, 0x7F	; 127
     774:	84 e0       	ldi	r24, 0x04	; 4
    n=mfrc522_read(FIFOLevelReg);
     776:	ef de       	rcall	.-546    	; 0x556 <mfrc522_write>
     778:	8a e0       	ldi	r24, 0x0A	; 10
     77a:	f8 de       	rcall	.-528    	; 0x56c <mfrc522_read>
    mfrc522_write(FIFOLevelReg,n|0x80);//flush FIFO data
     77c:	68 2f       	mov	r22, r24
     77e:	60 68       	ori	r22, 0x80	; 128
     780:	8a e0       	ldi	r24, 0x0A	; 10
     782:	e9 de       	rcall	.-558    	; 0x556 <mfrc522_write>
    
	mfrc522_write(CommandReg, Idle_CMD);	//NO action; Cancel the current cmd???
     784:	60 e0       	ldi	r22, 0x00	; 0
     786:	81 e0       	ldi	r24, 0x01	; 1
     788:	e6 de       	rcall	.-564    	; 0x556 <mfrc522_write>

	//Writing data to the FIFO
    for (i=0; i<send_data_len; i++)
     78a:	51 2c       	mov	r5, r1
     78c:	61 2c       	mov	r6, r1
     78e:	71 2c       	mov	r7, r1
     790:	41 14       	cp	r4, r1
     792:	51 04       	cpc	r5, r1
     794:	61 04       	cpc	r6, r1
     796:	71 04       	cpc	r7, r1
     798:	09 f0       	breq	.+2      	; 0x79c <mfrc522_to_card+0x1dc>
        n = mfrc522_read(ComIrqReg);
        i--;
    }
    while ((i!=0) && !(n&0x01) && !(n&waitIRq));

	tmp=mfrc522_read(BitFramingReg);
     79a:	4e cf       	rjmp	.-356    	; 0x638 <mfrc522_to_card+0x78>
     79c:	e1 cf       	rjmp	.-62     	; 0x760 <mfrc522_to_card+0x1a0>
     79e:	8d e0       	ldi	r24, 0x0D	; 13
	mfrc522_write(BitFramingReg,tmp&(~0x80));
     7a0:	e5 de       	rcall	.-566    	; 0x56c <mfrc522_read>
     7a2:	68 2f       	mov	r22, r24
     7a4:	6f 77       	andi	r22, 0x7F	; 127
     7a6:	8d e0       	ldi	r24, 0x0D	; 13
     7a8:	d6 de       	rcall	.-596    	; 0x556 <mfrc522_write>
	return status;
}

uint8_t mfrc522_to_card(uint8_t cmd, uint8_t *send_data, uint8_t send_data_len, uint8_t *back_data, uint32_t *back_data_len)
{
	uint8_t status = ERROR;
     7aa:	c3 e0       	ldi	r28, 0x03	; 3
     7ac:	0c c0       	rjmp	.+24     	; 0x7c6 <mfrc522_to_card+0x206>
        n = mfrc522_read(ComIrqReg);
        i--;
    }
    while ((i!=0) && !(n&0x01) && !(n&waitIRq));

	tmp=mfrc522_read(BitFramingReg);
     7ae:	8d e0       	ldi	r24, 0x0D	; 13
     7b0:	dd de       	rcall	.-582    	; 0x56c <mfrc522_read>
     7b2:	68 2f       	mov	r22, r24
	mfrc522_write(BitFramingReg,tmp&(~0x80));
     7b4:	6f 77       	andi	r22, 0x7F	; 127
     7b6:	8d e0       	ldi	r24, 0x0D	; 13
     7b8:	ce de       	rcall	.-612    	; 0x556 <mfrc522_write>
     7ba:	86 e0       	ldi	r24, 0x06	; 6
     7bc:	d7 de       	rcall	.-594    	; 0x56c <mfrc522_read>
	
    if (i != 0)
    {    
        if(!(mfrc522_read(ErrorReg) & 0x1B))	//BufferOvfl Collerr CRCErr ProtecolErr
     7be:	8b 71       	andi	r24, 0x1B	; 27
     7c0:	09 f4       	brne	.+2      	; 0x7c4 <mfrc522_to_card+0x204>
     7c2:	6e cf       	rjmp	.-292    	; 0x6a0 <mfrc522_to_card+0xe0>
     7c4:	c3 e0       	ldi	r28, 0x03	; 3
     7c6:	8c 2f       	mov	r24, r28
     7c8:	df 91       	pop	r29
				}
            }
        }
        else
        {   
			status = ERROR;  
     7ca:	cf 91       	pop	r28
	
    //SetBitMask(ControlReg,0x80);           //timer stops
    //mfrc522_write(cmdReg, PCD_IDLE); 

    return status;
}
     7cc:	1f 91       	pop	r17
     7ce:	0f 91       	pop	r16
     7d0:	ff 90       	pop	r15
     7d2:	ef 90       	pop	r14
     7d4:	df 90       	pop	r13
     7d6:	cf 90       	pop	r12
     7d8:	bf 90       	pop	r11
     7da:	af 90       	pop	r10
     7dc:	9f 90       	pop	r9
     7de:	8f 90       	pop	r8
     7e0:	7f 90       	pop	r7
     7e2:	6f 90       	pop	r6
     7e4:	5f 90       	pop	r5
     7e6:	4f 90       	pop	r4
     7e8:	3f 90       	pop	r3
     7ea:	08 95       	ret

000007ec <mfrc522_request>:
     7ec:	ef 92       	push	r14
     7ee:	ff 92       	push	r15
     7f0:	0f 93       	push	r16
{
	mfrc522_write(CommandReg,SoftReset_CMD);
}

uint8_t	mfrc522_request(uint8_t req_mode, uint8_t * tag_type)
{
     7f2:	1f 93       	push	r17
     7f4:	cf 93       	push	r28
     7f6:	df 93       	push	r29
     7f8:	00 d0       	rcall	.+0      	; 0x7fa <mfrc522_request+0xe>
     7fa:	1f 92       	push	r1
     7fc:	cd b7       	in	r28, 0x3d	; 61
     7fe:	de b7       	in	r29, 0x3e	; 62
     800:	18 2f       	mov	r17, r24
     802:	7b 01       	movw	r14, r22
	uint8_t  status;  
	uint32_t backBits;//The received data bits

	mfrc522_write(BitFramingReg, 0x07);//TxLastBists = BitFramingReg[2..0]	???
     804:	67 e0       	ldi	r22, 0x07	; 7
     806:	8d e0       	ldi	r24, 0x0D	; 13
     808:	a6 de       	rcall	.-692    	; 0x556 <mfrc522_write>
	
	tag_type[0] = req_mode;
     80a:	f7 01       	movw	r30, r14
     80c:	10 83       	st	Z, r17
	status = mfrc522_to_card(Transceive_CMD, tag_type, 1, tag_type, &backBits);
     80e:	8e 01       	movw	r16, r28
     810:	0f 5f       	subi	r16, 0xFF	; 255
     812:	1f 4f       	sbci	r17, 0xFF	; 255
     814:	97 01       	movw	r18, r14
     816:	41 e0       	ldi	r20, 0x01	; 1
     818:	b7 01       	movw	r22, r14
     81a:	8c e0       	ldi	r24, 0x0C	; 12
     81c:	d1 de       	rcall	.-606    	; 0x5c0 <mfrc522_to_card>

	if ((status != CARD_FOUND) || (backBits != 0x10))
     81e:	81 30       	cpi	r24, 0x01	; 1
     820:	59 f4       	brne	.+22     	; 0x838 <mfrc522_request+0x4c>
     822:	49 81       	ldd	r20, Y+1	; 0x01
     824:	5a 81       	ldd	r21, Y+2	; 0x02
     826:	6b 81       	ldd	r22, Y+3	; 0x03
     828:	7c 81       	ldd	r23, Y+4	; 0x04
     82a:	40 31       	cpi	r20, 0x10	; 16
     82c:	51 05       	cpc	r21, r1
     82e:	61 05       	cpc	r22, r1
     830:	71 05       	cpc	r23, r1
     832:	19 f0       	breq	.+6      	; 0x83a <mfrc522_request+0x4e>
	{    
		status = ERROR;
     834:	83 e0       	ldi	r24, 0x03	; 3
     836:	01 c0       	rjmp	.+2      	; 0x83a <mfrc522_request+0x4e>
     838:	83 e0       	ldi	r24, 0x03	; 3
	}
   
	return status;
}
     83a:	0f 90       	pop	r0
     83c:	0f 90       	pop	r0
     83e:	0f 90       	pop	r0
     840:	0f 90       	pop	r0
     842:	df 91       	pop	r29
     844:	cf 91       	pop	r28
     846:	1f 91       	pop	r17
     848:	0f 91       	pop	r16
     84a:	ff 90       	pop	r15
     84c:	ef 90       	pop	r14
     84e:	08 95       	ret

00000850 <mfrc522_get_card_serial>:
    return status;
}


uint8_t mfrc522_get_card_serial(uint8_t * serial_out)
{
     850:	ef 92       	push	r14
     852:	ff 92       	push	r15
     854:	0f 93       	push	r16
     856:	1f 93       	push	r17
     858:	cf 93       	push	r28
     85a:	df 93       	push	r29
     85c:	00 d0       	rcall	.+0      	; 0x85e <mfrc522_get_card_serial+0xe>
     85e:	1f 92       	push	r1
     860:	cd b7       	in	r28, 0x3d	; 61
     862:	de b7       	in	r29, 0x3e	; 62
     864:	7c 01       	movw	r14, r24
	uint8_t status;
    uint8_t i;
	uint8_t serNumCheck=0;
    uint32_t unLen;
    
	mfrc522_write(BitFramingReg, 0x00);		//TxLastBists = BitFramingReg[2..0]
     866:	60 e0       	ldi	r22, 0x00	; 0
     868:	8d e0       	ldi	r24, 0x0D	; 13
     86a:	75 de       	rcall	.-790    	; 0x556 <mfrc522_write>
 
    serial_out[0] = PICC_ANTICOLL;
     86c:	83 e9       	ldi	r24, 0x93	; 147
     86e:	f7 01       	movw	r30, r14
     870:	80 83       	st	Z, r24
    serial_out[1] = 0x20;
     872:	80 e2       	ldi	r24, 0x20	; 32
     874:	81 83       	std	Z+1, r24	; 0x01
    status = mfrc522_to_card(Transceive_CMD, serial_out, 2, serial_out, &unLen);
     876:	8e 01       	movw	r16, r28
     878:	0f 5f       	subi	r16, 0xFF	; 255
     87a:	1f 4f       	sbci	r17, 0xFF	; 255
     87c:	97 01       	movw	r18, r14
     87e:	42 e0       	ldi	r20, 0x02	; 2
     880:	b7 01       	movw	r22, r14
     882:	8c e0       	ldi	r24, 0x0C	; 12
     884:	9d de       	rcall	.-710    	; 0x5c0 <mfrc522_to_card>

    if (status == CARD_FOUND)
     886:	81 30       	cpi	r24, 0x01	; 1
     888:	71 f4       	brne	.+28     	; 0x8a6 <mfrc522_get_card_serial+0x56>
     88a:	f7 01       	movw	r30, r14
     88c:	a7 01       	movw	r20, r14
     88e:	4c 5f       	subi	r20, 0xFC	; 252
     890:	5f 4f       	sbci	r21, 0xFF	; 255
     892:	90 e0       	ldi	r25, 0x00	; 0
	{
		//Check card serial number
		for (i=0; i<4; i++)
		{   
		 	serNumCheck ^= serial_out[i];
     894:	21 91       	ld	r18, Z+
     896:	92 27       	eor	r25, r18
    status = mfrc522_to_card(Transceive_CMD, serial_out, 2, serial_out, &unLen);

    if (status == CARD_FOUND)
	{
		//Check card serial number
		for (i=0; i<4; i++)
     898:	4e 17       	cp	r20, r30
     89a:	5f 07       	cpc	r21, r31
     89c:	d9 f7       	brne	.-10     	; 0x894 <mfrc522_get_card_serial+0x44>
		{   
		 	serNumCheck ^= serial_out[i];
		}
		if (serNumCheck != serial_out[i])
     89e:	f7 01       	movw	r30, r14
     8a0:	24 81       	ldd	r18, Z+4	; 0x04
     8a2:	92 13       	cpse	r25, r18
		{   
			status = ERROR;    
     8a4:	83 e0       	ldi	r24, 0x03	; 3
		}
    }
    return status;
}
     8a6:	0f 90       	pop	r0
     8a8:	0f 90       	pop	r0
     8aa:	0f 90       	pop	r0
     8ac:	0f 90       	pop	r0
     8ae:	df 91       	pop	r29
     8b0:	cf 91       	pop	r28
     8b2:	1f 91       	pop	r17
     8b4:	0f 91       	pop	r16
     8b6:	ff 90       	pop	r15
     8b8:	ef 90       	pop	r14
     8ba:	08 95       	ret

000008bc <RB_init>:
		}
	}
	rb->tail = tail;
	
	return 1;
}
     8bc:	fc 01       	movw	r30, r24
     8be:	11 82       	std	Z+1, r1	; 0x01
     8c0:	10 82       	st	Z, r1
     8c2:	08 95       	ret

000008c4 <RB_free>:
     8c4:	fc 01       	movw	r30, r24
     8c6:	90 81       	ld	r25, Z
     8c8:	81 81       	ldd	r24, Z+1	; 0x01
     8ca:	98 17       	cp	r25, r24
     8cc:	20 f0       	brcs	.+8      	; 0x8d6 <RB_free+0x12>
     8ce:	98 1b       	sub	r25, r24
     8d0:	89 2f       	mov	r24, r25
     8d2:	80 95       	com	r24
     8d4:	08 95       	ret
     8d6:	89 1b       	sub	r24, r25
     8d8:	08 95       	ret

000008da <RB_length>:
     8da:	fc 01       	movw	r30, r24
     8dc:	20 81       	ld	r18, Z
     8de:	91 81       	ldd	r25, Z+1	; 0x01
     8e0:	29 17       	cp	r18, r25
     8e2:	18 f0       	brcs	.+6      	; 0x8ea <RB_length+0x10>
     8e4:	82 2f       	mov	r24, r18
     8e6:	89 1b       	sub	r24, r25
     8e8:	08 95       	ret
     8ea:	89 2f       	mov	r24, r25
     8ec:	82 1b       	sub	r24, r18
     8ee:	80 95       	com	r24
     8f0:	08 95       	ret

000008f2 <RB_readByte>:
     8f2:	cf 93       	push	r28
     8f4:	df 93       	push	r29
     8f6:	ec 01       	movw	r28, r24
     8f8:	f0 df       	rcall	.-32     	; 0x8da <RB_length>
     8fa:	88 23       	and	r24, r24
     8fc:	59 f0       	breq	.+22     	; 0x914 <RB_readByte+0x22>
     8fe:	89 81       	ldd	r24, Y+1	; 0x01
     900:	91 e0       	ldi	r25, 0x01	; 1
     902:	98 0f       	add	r25, r24
     904:	fe 01       	movw	r30, r28
     906:	e8 0f       	add	r30, r24
     908:	f1 1d       	adc	r31, r1
     90a:	82 81       	ldd	r24, Z+2	; 0x02
     90c:	9f 3f       	cpi	r25, 0xFF	; 255
     90e:	09 f4       	brne	.+2      	; 0x912 <RB_readByte+0x20>
     910:	90 e0       	ldi	r25, 0x00	; 0
     912:	99 83       	std	Y+1, r25	; 0x01
     914:	df 91       	pop	r29
     916:	cf 91       	pop	r28
     918:	08 95       	ret

0000091a <RB_writeByte>:
     91a:	0f 93       	push	r16
     91c:	1f 93       	push	r17
     91e:	cf 93       	push	r28
     920:	df 93       	push	r29
     922:	ec 01       	movw	r28, r24
     924:	16 2f       	mov	r17, r22
     926:	08 81       	ld	r16, Y
     928:	cd df       	rcall	.-102    	; 0x8c4 <RB_free>
     92a:	88 23       	and	r24, r24
     92c:	f1 f3       	breq	.-4      	; 0x92a <RB_writeByte+0x10>
     92e:	11 11       	cpse	r17, r1
     930:	01 c0       	rjmp	.+2      	; 0x934 <RB_writeByte+0x1a>
     932:	1f ef       	ldi	r17, 0xFF	; 255
     934:	81 e0       	ldi	r24, 0x01	; 1
     936:	80 0f       	add	r24, r16
     938:	fe 01       	movw	r30, r28
     93a:	e0 0f       	add	r30, r16
     93c:	f1 1d       	adc	r31, r1
     93e:	12 83       	std	Z+2, r17	; 0x02
     940:	8f 3f       	cpi	r24, 0xFF	; 255
     942:	09 f4       	brne	.+2      	; 0x946 <RB_writeByte+0x2c>
     944:	80 e0       	ldi	r24, 0x00	; 0
     946:	88 83       	st	Y, r24
     948:	81 e0       	ldi	r24, 0x01	; 1
     94a:	df 91       	pop	r29
     94c:	cf 91       	pop	r28
     94e:	1f 91       	pop	r17
     950:	0f 91       	pop	r16
     952:	08 95       	ret

00000954 <RB_write>:

unsigned char RB_write( ring_buffer_t *rb, unsigned char *data, unsigned char datal )
{
     954:	ff 92       	push	r15
     956:	0f 93       	push	r16
     958:	1f 93       	push	r17
     95a:	cf 93       	push	r28
     95c:	df 93       	push	r29
	unsigned char head;
	
	head = rb->head;
	
	if (datal == 0)
     95e:	44 23       	and	r20, r20
     960:	d9 f0       	breq	.+54     	; 0x998 <RB_write+0x44>
     962:	c4 2f       	mov	r28, r20
     964:	d7 2f       	mov	r29, r23
     966:	f6 2e       	mov	r15, r22
     968:	8c 01       	movw	r16, r24
	{
		return  0;
	}
	
	while(RB_free(rb) < datal);
     96a:	ac df       	rcall	.-168    	; 0x8c4 <RB_free>
     96c:	8c 17       	cp	r24, r28
     96e:	f0 f3       	brcs	.-4      	; 0x96c <RB_write+0x18>
     970:	15 c0       	rjmp	.+42     	; 0x99c <RB_write+0x48>
	
	while(datal--)
	{
		rb->data[head++] = *data++;
     972:	21 e0       	ldi	r18, 0x01	; 1
     974:	29 0f       	add	r18, r25
     976:	31 91       	ld	r19, Z+
     978:	d8 01       	movw	r26, r16
     97a:	a9 0f       	add	r26, r25
     97c:	b1 1d       	adc	r27, r1
     97e:	12 96       	adiw	r26, 0x02	; 2
     980:	3c 93       	st	X, r19
		if (head >= RING_BUFFER_SIZE)
     982:	2f 3f       	cpi	r18, 0xFF	; 255
     984:	11 f4       	brne	.+4      	; 0x98a <RB_write+0x36>
		{
			head = 0;
     986:	98 2f       	mov	r25, r24
     988:	01 c0       	rjmp	.+2      	; 0x98c <RB_write+0x38>
	
	while(RB_free(rb) < datal);
	
	while(datal--)
	{
		rb->data[head++] = *data++;
     98a:	92 2f       	mov	r25, r18
		return  0;
	}
	
	while(RB_free(rb) < datal);
	
	while(datal--)
     98c:	41 50       	subi	r20, 0x01	; 1
     98e:	88 f7       	brcc	.-30     	; 0x972 <RB_write+0x1e>
		{
			head = 0;
		}
	}
	
	rb->head = head;
     990:	f8 01       	movw	r30, r16
     992:	90 83       	st	Z, r25
	
	return 1;
     994:	81 e0       	ldi	r24, 0x01	; 1
     996:	0a c0       	rjmp	.+20     	; 0x9ac <RB_write+0x58>
	
	head = rb->head;
	
	if (datal == 0)
	{
		return  0;
     998:	80 e0       	ldi	r24, 0x00	; 0
     99a:	08 c0       	rjmp	.+16     	; 0x9ac <RB_write+0x58>

unsigned char RB_write( ring_buffer_t *rb, unsigned char *data, unsigned char datal )
{
	unsigned char head;
	
	head = rb->head;
     99c:	f8 01       	movw	r30, r16
     99e:	90 81       	ld	r25, Z
		return  0;
	}
	
	while(RB_free(rb) < datal);
	
	while(datal--)
     9a0:	4f ef       	ldi	r20, 0xFF	; 255
     9a2:	4c 0f       	add	r20, r28
     9a4:	ef 2d       	mov	r30, r15
     9a6:	fd 2f       	mov	r31, r29
	{
		rb->data[head++] = *data++;
		if (head >= RING_BUFFER_SIZE)
		{
			head = 0;
     9a8:	80 e0       	ldi	r24, 0x00	; 0
     9aa:	e3 cf       	rjmp	.-58     	; 0x972 <RB_write+0x1e>
	}
	
	rb->head = head;
	
	return 1;
}
     9ac:	df 91       	pop	r29
     9ae:	cf 91       	pop	r28
     9b0:	1f 91       	pop	r17
     9b2:	0f 91       	pop	r16
     9b4:	ff 90       	pop	r15
     9b6:	08 95       	ret

000009b8 <SPI_w_completed>:
	SPDR=RB_readByte(&rb_SPI_w);
}

void SPI_w_completed()
{
	asm("nop");
     9b8:	00 00       	nop
	asm("nop");
     9ba:	00 00       	nop
     9bc:	08 95       	ret

000009be <SPI_init>:

void SPI_init(void)
{
	// Einstellungen fr TMC4671: CLK = 1MHz, SPI-Mode = 3, MSB first)

	SPCR = ((1<<SPE)|       // SPI Enable					(1 = Enable, 0 = Disable)					Datasheet S. 197 (Kapitel 21.2.1)
     9be:	81 e5       	ldi	r24, 0x51	; 81
     9c0:	8c bd       	out	0x2c, r24	; 44
	(1<<MSTR)|              // Master/Slave select			(0 = Slave, 1 = Master)						Datasheet S. 197 (Kapitel 21.2.1)
	(0<<SPR1)|(1<<SPR0)|    // SPI Clock Rate				(Divider Systemclock 16MHz)					Datasheet S. 198 (Kapitel 21.2.1)
	(0<<CPOL)|              // Clock Polarity when idle		(0 = low, 1 = SCK high)						Datasheet S. 197 (Kapitel 21.2.1)
	(0<<CPHA));             // Clock Phase edge sampling	(0 = leading, 1 = trailing edge sampling)	Datasheet S. 197 (Kapitel 21.2.1)

	SPSR = (0<<SPI2X);      // Double Clock Rate			(0 = Disable, 1 = Enable)					Datasheet S. 198 (Kapitel 21.2.1)
     9c2:	1d bc       	out	0x2d, r1	; 45

	RB_init(&rb_SPI_w);
     9c4:	8e ea       	ldi	r24, 0xAE	; 174
     9c6:	9f e0       	ldi	r25, 0x0F	; 15
     9c8:	79 df       	rcall	.-270    	; 0x8bc <RB_init>
	RB_init(&rb_SPI_r);
     9ca:	8b ea       	ldi	r24, 0xAB	; 171
     9cc:	9c e0       	ldi	r25, 0x0C	; 12
     9ce:	76 df       	rcall	.-276    	; 0x8bc <RB_init>

	sei();
     9d0:	78 94       	sei

	ptr_SPI_w_completed=SPI_w_completed;
     9d2:	8c ed       	ldi	r24, 0xDC	; 220
     9d4:	94 e0       	ldi	r25, 0x04	; 4
     9d6:	90 93 69 03 	sts	0x0369, r25	; 0x800369 <ptr_SPI_w_completed+0x1>
     9da:	80 93 68 03 	sts	0x0368, r24	; 0x800368 <ptr_SPI_w_completed>

	DISABLE_CS(SPI_PORT,SPI_CS_TMC4671);
     9de:	28 9a       	sbi	0x05, 0	; 5
	DISABLE_CS(SPI_PORT,SPI_CS_RC522);
     9e0:	2d 9a       	sbi	0x05, 5	; 5
     9e2:	08 95       	ret

000009e4 <SPI_Transmit_IT_TMC>:
}

void SPI_Transmit_IT_TMC( unsigned char *data, unsigned char nbytes)
{
     9e4:	46 2f       	mov	r20, r22
#endif
#ifdef ACTUAL_PIN
#undef ACTUAL_PIN
#define ACTUAL_PIN SPI_CS_TMC4671
#endif
	ENABLE_CS(ACTUAL_PORT,ACTUAL_PIN);
     9e6:	28 98       	cbi	0x05, 0	; 5
	RB_write(&rb_SPI_w, data, nbytes);
     9e8:	bc 01       	movw	r22, r24
     9ea:	8e ea       	ldi	r24, 0xAE	; 174
     9ec:	9f e0       	ldi	r25, 0x0F	; 15
     9ee:	b2 df       	rcall	.-156    	; 0x954 <RB_write>
	SPDR=RB_readByte(&rb_SPI_w);
     9f0:	8e ea       	ldi	r24, 0xAE	; 174
     9f2:	9f e0       	ldi	r25, 0x0F	; 15
     9f4:	7e df       	rcall	.-260    	; 0x8f2 <RB_readByte>
     9f6:	8e bd       	out	0x2e, r24	; 46
     9f8:	08 95       	ret

000009fa <__vector_24>:
	asm("nop");
	asm("nop");
}

ISR (SPI_STC_vect)
{
     9fa:	1f 92       	push	r1
     9fc:	0f 92       	push	r0
     9fe:	0f b6       	in	r0, 0x3f	; 63
     a00:	0f 92       	push	r0
     a02:	11 24       	eor	r1, r1
     a04:	0b b6       	in	r0, 0x3b	; 59
     a06:	0f 92       	push	r0
     a08:	2f 93       	push	r18
     a0a:	3f 93       	push	r19
     a0c:	4f 93       	push	r20
     a0e:	5f 93       	push	r21
     a10:	6f 93       	push	r22
     a12:	7f 93       	push	r23
     a14:	8f 93       	push	r24
     a16:	9f 93       	push	r25
     a18:	af 93       	push	r26
     a1a:	bf 93       	push	r27
     a1c:	ef 93       	push	r30
     a1e:	ff 93       	push	r31
	if(RB_length(&rb_SPI_w) > 0)
     a20:	8e ea       	ldi	r24, 0xAE	; 174
     a22:	9f e0       	ldi	r25, 0x0F	; 15
     a24:	5a df       	rcall	.-332    	; 0x8da <RB_length>
     a26:	88 23       	and	r24, r24
     a28:	29 f0       	breq	.+10     	; 0xa34 <__vector_24+0x3a>
	{
		SPDR = RB_readByte(&rb_SPI_w);
     a2a:	8e ea       	ldi	r24, 0xAE	; 174
     a2c:	9f e0       	ldi	r25, 0x0F	; 15
     a2e:	61 df       	rcall	.-318    	; 0x8f2 <RB_readByte>
     a30:	8e bd       	out	0x2e, r24	; 46
     a32:	08 c0       	rjmp	.+16     	; 0xa44 <__vector_24+0x4a>
	}
	else
	{
	if(ptr_SPI_w_completed != 0)
     a34:	e0 91 68 03 	lds	r30, 0x0368	; 0x800368 <ptr_SPI_w_completed>
     a38:	f0 91 69 03 	lds	r31, 0x0369	; 0x800369 <ptr_SPI_w_completed+0x1>
     a3c:	30 97       	sbiw	r30, 0x00	; 0
     a3e:	09 f0       	breq	.+2      	; 0xa42 <__vector_24+0x48>
	{
	ptr_SPI_w_completed();
     a40:	19 95       	eicall
	}
		DISABLE_CS(ACTUAL_PORT,ACTUAL_PIN);
     a42:	28 9a       	sbi	0x05, 0	; 5
	}
}
     a44:	ff 91       	pop	r31
     a46:	ef 91       	pop	r30
     a48:	bf 91       	pop	r27
     a4a:	af 91       	pop	r26
     a4c:	9f 91       	pop	r25
     a4e:	8f 91       	pop	r24
     a50:	7f 91       	pop	r23
     a52:	6f 91       	pop	r22
     a54:	5f 91       	pop	r21
     a56:	4f 91       	pop	r20
     a58:	3f 91       	pop	r19
     a5a:	2f 91       	pop	r18
     a5c:	0f 90       	pop	r0
     a5e:	0b be       	out	0x3b, r0	; 59
     a60:	0f 90       	pop	r0
     a62:	0f be       	out	0x3f, r0	; 63
     a64:	0f 90       	pop	r0
     a66:	1f 90       	pop	r1
     a68:	18 95       	reti

00000a6a <spi_transmit>:

uint8_t spi_transmit(uint8_t data)
{
	SPDR = data;
     a6a:	8e bd       	out	0x2e, r24	; 46
	while(!(SPSR & (1<<SPIF)));
     a6c:	0d b4       	in	r0, 0x2d	; 45
     a6e:	07 fe       	sbrs	r0, 7
     a70:	fd cf       	rjmp	.-6      	; 0xa6c <spi_transmit+0x2>
	return SPDR;
     a72:	8e b5       	in	r24, 0x2e	; 46
     a74:	08 95       	ret

00000a76 <tmc40bit_writeInt>:
	tmc40bit_writeInt(motor, address, value);
}

void tmc4671_writeInt(unsigned int motor, unsigned char address, unsigned long value)
{
	tmc40bit_writeInt(motor, address, value);
     a76:	cf 93       	push	r28
     a78:	df 93       	push	r29
     a7a:	00 d0       	rcall	.+0      	; 0xa7c <tmc40bit_writeInt+0x6>
     a7c:	1f 92       	push	r1
     a7e:	1f 92       	push	r1
     a80:	cd b7       	in	r28, 0x3d	; 61
     a82:	de b7       	in	r29, 0x3e	; 62
     a84:	60 68       	ori	r22, 0x80	; 128
     a86:	69 83       	std	Y+1, r22	; 0x01
     a88:	5a 83       	std	Y+2, r21	; 0x02
     a8a:	4b 83       	std	Y+3, r20	; 0x03
     a8c:	3c 83       	std	Y+4, r19	; 0x04
     a8e:	2d 83       	std	Y+5, r18	; 0x05
     a90:	85 b1       	in	r24, 0x05	; 5
     a92:	88 23       	and	r24, r24
     a94:	e9 f3       	breq	.-6      	; 0xa90 <tmc40bit_writeInt+0x1a>
     a96:	80 ea       	ldi	r24, 0xA0	; 160
     a98:	8a 95       	dec	r24
     a9a:	f1 f7       	brne	.-4      	; 0xa98 <tmc40bit_writeInt+0x22>
     a9c:	65 e0       	ldi	r22, 0x05	; 5
     a9e:	ce 01       	movw	r24, r28
     aa0:	01 96       	adiw	r24, 0x01	; 1
     aa2:	a0 df       	rcall	.-192    	; 0x9e4 <SPI_Transmit_IT_TMC>
     aa4:	0f 90       	pop	r0
     aa6:	0f 90       	pop	r0
     aa8:	0f 90       	pop	r0
     aaa:	0f 90       	pop	r0
     aac:	0f 90       	pop	r0
     aae:	df 91       	pop	r29
     ab0:	cf 91       	pop	r28
     ab2:	08 95       	ret

00000ab4 <TMC4671_init>:
     ab4:	23 e0       	ldi	r18, 0x03	; 3
     ab6:	30 e0       	ldi	r19, 0x00	; 0
     ab8:	a9 01       	movw	r20, r18
     aba:	6b e1       	ldi	r22, 0x1B	; 27
     abc:	80 e0       	ldi	r24, 0x00	; 0
     abe:	90 e0       	ldi	r25, 0x00	; 0
     ac0:	da df       	rcall	.-76     	; 0xa76 <tmc40bit_writeInt>
     ac2:	20 e0       	ldi	r18, 0x00	; 0
     ac4:	30 e0       	ldi	r19, 0x00	; 0
     ac6:	a9 01       	movw	r20, r18
     ac8:	67 e1       	ldi	r22, 0x17	; 23
     aca:	80 e0       	ldi	r24, 0x00	; 0
     acc:	90 e0       	ldi	r25, 0x00	; 0
     ace:	d3 df       	rcall	.-90     	; 0xa76 <tmc40bit_writeInt>
     ad0:	2f e9       	ldi	r18, 0x9F	; 159
     ad2:	3f e0       	ldi	r19, 0x0F	; 15
     ad4:	40 e0       	ldi	r20, 0x00	; 0
     ad6:	50 e0       	ldi	r21, 0x00	; 0
     ad8:	68 e1       	ldi	r22, 0x18	; 24
     ada:	80 e0       	ldi	r24, 0x00	; 0
     adc:	90 e0       	ldi	r25, 0x00	; 0
     ade:	cb df       	rcall	.-106    	; 0xa76 <tmc40bit_writeInt>
     ae0:	25 e0       	ldi	r18, 0x05	; 5
     ae2:	35 e0       	ldi	r19, 0x05	; 5
     ae4:	40 e0       	ldi	r20, 0x00	; 0
     ae6:	50 e0       	ldi	r21, 0x00	; 0
     ae8:	69 e1       	ldi	r22, 0x19	; 25
     aea:	80 e0       	ldi	r24, 0x00	; 0
     aec:	90 e0       	ldi	r25, 0x00	; 0
     aee:	c3 df       	rcall	.-122    	; 0xa76 <tmc40bit_writeInt>
     af0:	27 e0       	ldi	r18, 0x07	; 7
     af2:	30 e0       	ldi	r19, 0x00	; 0
     af4:	40 e0       	ldi	r20, 0x00	; 0
     af6:	50 e0       	ldi	r21, 0x00	; 0
     af8:	6a e1       	ldi	r22, 0x1A	; 26
     afa:	80 e0       	ldi	r24, 0x00	; 0
     afc:	90 e0       	ldi	r25, 0x00	; 0
     afe:	bb df       	rcall	.-138    	; 0xa76 <tmc40bit_writeInt>
     b00:	20 e0       	ldi	r18, 0x00	; 0
     b02:	31 e0       	ldi	r19, 0x01	; 1
     b04:	40 e0       	ldi	r20, 0x00	; 0
     b06:	58 e1       	ldi	r21, 0x18	; 24
     b08:	6a e0       	ldi	r22, 0x0A	; 10
     b0a:	80 e0       	ldi	r24, 0x00	; 0
     b0c:	90 e0       	ldi	r25, 0x00	; 0
     b0e:	b3 df       	rcall	.-154    	; 0xa76 <tmc40bit_writeInt>
     b10:	20 e1       	ldi	r18, 0x10	; 16
     b12:	30 e0       	ldi	r19, 0x00	; 0
     b14:	a9 01       	movw	r20, r18
     b16:	64 e0       	ldi	r22, 0x04	; 4
     b18:	80 e0       	ldi	r24, 0x00	; 0
     b1a:	90 e0       	ldi	r25, 0x00	; 0
     b1c:	ac df       	rcall	.-168    	; 0xa76 <tmc40bit_writeInt>
     b1e:	20 e0       	ldi	r18, 0x00	; 0
     b20:	30 e0       	ldi	r19, 0x00	; 0
     b22:	40 e0       	ldi	r20, 0x00	; 0
     b24:	50 e2       	ldi	r21, 0x20	; 32
     b26:	65 e0       	ldi	r22, 0x05	; 5
     b28:	80 e0       	ldi	r24, 0x00	; 0
     b2a:	90 e0       	ldi	r25, 0x00	; 0
     b2c:	a4 df       	rcall	.-184    	; 0xa76 <tmc40bit_writeInt>
     b2e:	20 e0       	ldi	r18, 0x00	; 0
     b30:	30 e0       	ldi	r19, 0x00	; 0
     b32:	a9 01       	movw	r20, r18
     b34:	66 e0       	ldi	r22, 0x06	; 6
     b36:	80 e0       	ldi	r24, 0x00	; 0
     b38:	90 e0       	ldi	r25, 0x00	; 0
     b3a:	9d df       	rcall	.-198    	; 0xa76 <tmc40bit_writeInt>
     b3c:	2b e4       	ldi	r18, 0x4B	; 75
     b3e:	31 e0       	ldi	r19, 0x01	; 1
     b40:	a9 01       	movw	r20, r18
     b42:	67 e0       	ldi	r22, 0x07	; 7
     b44:	80 e0       	ldi	r24, 0x00	; 0
     b46:	90 e0       	ldi	r25, 0x00	; 0
     b48:	96 df       	rcall	.-212    	; 0xa76 <tmc40bit_writeInt>
     b4a:	26 e6       	ldi	r18, 0x66	; 102
     b4c:	3c e5       	ldi	r19, 0x5C	; 92
     b4e:	40 e0       	ldi	r20, 0x00	; 0
     b50:	51 e0       	ldi	r21, 0x01	; 1
     b52:	69 e0       	ldi	r22, 0x09	; 9
     b54:	80 e0       	ldi	r24, 0x00	; 0
     b56:	90 e0       	ldi	r25, 0x00	; 0
     b58:	8e df       	rcall	.-228    	; 0xa76 <tmc40bit_writeInt>
     b5a:	22 ef       	ldi	r18, 0xF2	; 242
     b5c:	3b e5       	ldi	r19, 0x5B	; 91
     b5e:	40 e0       	ldi	r20, 0x00	; 0
     b60:	51 e0       	ldi	r21, 0x01	; 1
     b62:	68 e0       	ldi	r22, 0x08	; 8
     b64:	80 e0       	ldi	r24, 0x00	; 0
     b66:	90 e0       	ldi	r25, 0x00	; 0
     b68:	86 cf       	rjmp	.-244    	; 0xa76 <tmc40bit_writeInt>
     b6a:	08 95       	ret

00000b6c <initTMC4671_Openloop>:
	// 	// Stop
	// 	tmc4671_writeInt(0, TMC4671_PID_TORQUE_FLUX_TARGET, 0x00000000);
}

void initTMC4671_Openloop(void)
{
     b6c:	0f 93       	push	r16
     b6e:	1f 93       	push	r17
     b70:	cf 93       	push	r28
     b72:	df 93       	push	r29
     b74:	cd b7       	in	r28, 0x3d	; 61
     b76:	de b7       	in	r29, 0x3e	; 62
     b78:	2a 97       	sbiw	r28, 0x0a	; 10
     b7a:	0f b6       	in	r0, 0x3f	; 63
     b7c:	f8 94       	cli
     b7e:	de bf       	out	0x3e, r29	; 62
     b80:	0f be       	out	0x3f, r0	; 63
     b82:	cd bf       	out	0x3d, r28	; 61
	tmc40bit_writeInt(motor, address, value);
}

void tmc4671_writeInt(unsigned int motor, unsigned char address, unsigned long value)
{
	tmc40bit_writeInt(motor, address, value);
     b84:	20 e0       	ldi	r18, 0x00	; 0
     b86:	30 e0       	ldi	r19, 0x00	; 0
     b88:	a9 01       	movw	r20, r18
     b8a:	6f e1       	ldi	r22, 0x1F	; 31
     b8c:	80 e0       	ldi	r24, 0x00	; 0
     b8e:	90 e0       	ldi	r25, 0x00	; 0
     b90:	72 df       	rcall	.-284    	; 0xa76 <tmc40bit_writeInt>
     b92:	2c e3       	ldi	r18, 0x3C	; 60
     b94:	30 e0       	ldi	r19, 0x00	; 0
     b96:	40 e0       	ldi	r20, 0x00	; 0
     b98:	50 e0       	ldi	r21, 0x00	; 0
     b9a:	60 e2       	ldi	r22, 0x20	; 32
     b9c:	80 e0       	ldi	r24, 0x00	; 0
     b9e:	90 e0       	ldi	r25, 0x00	; 0
     ba0:	6a df       	rcall	.-300    	; 0xa76 <tmc40bit_writeInt>
     ba2:	26 ef       	ldi	r18, 0xF6	; 246
     ba4:	3f ef       	ldi	r19, 0xFF	; 255
     ba6:	4f ef       	ldi	r20, 0xFF	; 255
     ba8:	5f ef       	ldi	r21, 0xFF	; 255
     baa:	61 e2       	ldi	r22, 0x21	; 33
     bac:	80 e0       	ldi	r24, 0x00	; 0
     bae:	90 e0       	ldi	r25, 0x00	; 0
     bb0:	62 df       	rcall	.-316    	; 0xa76 <tmc40bit_writeInt>
     bb2:	22 e0       	ldi	r18, 0x02	; 2
     bb4:	30 e0       	ldi	r19, 0x00	; 0
     bb6:	40 e0       	ldi	r20, 0x00	; 0
     bb8:	50 e0       	ldi	r21, 0x00	; 0
     bba:	62 e5       	ldi	r22, 0x52	; 82
     bbc:	80 e0       	ldi	r24, 0x00	; 0
     bbe:	90 e0       	ldi	r25, 0x00	; 0
     bc0:	5a df       	rcall	.-332    	; 0xa76 <tmc40bit_writeInt>
     bc2:	20 ea       	ldi	r18, 0xA0	; 160
     bc4:	3f e0       	ldi	r19, 0x0F	; 15
     bc6:	40 e0       	ldi	r20, 0x00	; 0
     bc8:	50 e0       	ldi	r21, 0x00	; 0
     bca:	64 e2       	ldi	r22, 0x24	; 36
     bcc:	80 e0       	ldi	r24, 0x00	; 0
     bce:	90 e0       	ldi	r25, 0x00	; 0
     bd0:	52 df       	rcall	.-348    	; 0xa76 <tmc40bit_writeInt>
     bd2:	28 e0       	ldi	r18, 0x08	; 8
     bd4:	30 e0       	ldi	r19, 0x00	; 0
     bd6:	40 e0       	ldi	r20, 0x00	; 0
     bd8:	50 e0       	ldi	r21, 0x00	; 0
     bda:	63 e6       	ldi	r22, 0x63	; 99
     bdc:	80 e0       	ldi	r24, 0x00	; 0
     bde:	90 e0       	ldi	r25, 0x00	; 0
     be0:	4a df       	rcall	.-364    	; 0xa76 <tmc40bit_writeInt>
     be2:	2c e3       	ldi	r18, 0x3C	; 60
     be4:	30 e0       	ldi	r19, 0x00	; 0
     be6:	40 e0       	ldi	r20, 0x00	; 0
     be8:	50 e0       	ldi	r21, 0x00	; 0
     bea:	61 e2       	ldi	r22, 0x21	; 33
     bec:	80 e0       	ldi	r24, 0x00	; 0
     bee:	90 e0       	ldi	r25, 0x00	; 0
     bf0:	42 df       	rcall	.-380    	; 0xa76 <tmc40bit_writeInt>
	// Switch to open loop velocity mode
	tmc4671_writeInt(0, TMC4671_MODE_RAMP_MODE_MOTION, 0x00000008);

	// Rotate right
	tmc4671_writeInt(0, TMC4671_OPENLOOP_VELOCITY_TARGET, 0x0000003C);
	int val = 0;
     bf2:	00 e0       	ldi	r16, 0x00	; 0
    } else if (__radix < 2 || __radix > 36) {
	*__s = 0;
	return __s;
    } else {
	extern char *__itoa_ncheck (int, char *, unsigned char);
	return __itoa_ncheck (__val, __s, __radix);
     bf4:	10 e0       	ldi	r17, 0x00	; 0
     bf6:	4a e0       	ldi	r20, 0x0A	; 10
     bf8:	be 01       	movw	r22, r28
     bfa:	6f 5f       	subi	r22, 0xFF	; 255
     bfc:	7f 4f       	sbci	r23, 0xFF	; 255
     bfe:	c8 01       	movw	r24, r16
{
	itoa((int)val,(char *)ch4,10);
// 	Uart_Transmit_IT_2(ab,strlen((const char*)ab));
// 	Uart_Transmit_IT_2((unsigned char *)ch4,2);
// 	Uart_Transmit_IT_2((unsigned char *)ch3,3);
	nextion_setValue((unsigned char *)"j0",(unsigned char *)ch4,1);
     c00:	14 d5       	rcall	.+2600   	; 0x162a <__itoa_ncheck>
     c02:	41 e0       	ldi	r20, 0x01	; 1
     c04:	be 01       	movw	r22, r28
     c06:	6f 5f       	subi	r22, 0xFF	; 255
     c08:	7f 4f       	sbci	r23, 0xFF	; 255
     c0a:	85 ed       	ldi	r24, 0xD5	; 213
     c0c:	92 e0       	ldi	r25, 0x02	; 2
     c0e:	ae db       	rcall	.-2212   	; 0x36c <nextion_setValue>
     c10:	2f ef       	ldi	r18, 0xFF	; 255
     c12:	80 e7       	ldi	r24, 0x70	; 112
     c14:	92 e0       	ldi	r25, 0x02	; 2
     c16:	21 50       	subi	r18, 0x01	; 1
     c18:	80 40       	sbci	r24, 0x00	; 0
     c1a:	90 40       	sbci	r25, 0x00	; 0
     c1c:	e1 f7       	brne	.-8      	; 0xc16 <initTMC4671_Openloop+0xaa>
     c1e:	00 c0       	rjmp	.+0      	; 0xc20 <initTMC4671_Openloop+0xb4>
     c20:	00 00       	nop
	_delay_ms(50);
	val++;
     c22:	0f 5f       	subi	r16, 0xFF	; 255
     c24:	1f 4f       	sbci	r17, 0xFF	; 255
	// Rotate right
	tmc4671_writeInt(0, TMC4671_OPENLOOP_VELOCITY_TARGET, 0x0000003C);
	int val = 0;
	unsigned char ch4 [10];

for (char i =0;i<50;i++)
     c26:	02 33       	cpi	r16, 0x32	; 50
     c28:	11 05       	cpc	r17, r1
	tmc40bit_writeInt(motor, address, value);
}

void tmc4671_writeInt(unsigned int motor, unsigned char address, unsigned long value)
{
	tmc40bit_writeInt(motor, address, value);
     c2a:	29 f7       	brne	.-54     	; 0xbf6 <initTMC4671_Openloop+0x8a>
     c2c:	24 ec       	ldi	r18, 0xC4	; 196
     c2e:	3f ef       	ldi	r19, 0xFF	; 255
     c30:	4f ef       	ldi	r20, 0xFF	; 255
     c32:	5f ef       	ldi	r21, 0xFF	; 255
     c34:	61 e2       	ldi	r22, 0x21	; 33
     c36:	80 e0       	ldi	r24, 0x00	; 0
     c38:	90 e0       	ldi	r25, 0x00	; 0
     c3a:	1d df       	rcall	.-454    	; 0xa76 <tmc40bit_writeInt>
     c3c:	4a e0       	ldi	r20, 0x0A	; 10
     c3e:	be 01       	movw	r22, r28
     c40:	6f 5f       	subi	r22, 0xFF	; 255
     c42:	7f 4f       	sbci	r23, 0xFF	; 255
     c44:	c8 01       	movw	r24, r16
{
	itoa(val,(char *)ch4,10);
// 	Uart_Transmit_IT_2(ab,strlen((const char*)ab));
// 	Uart_Transmit_IT_2((unsigned char *)ch4,2);
// 	Uart_Transmit_IT_2((unsigned char *)ch3,3);
	nextion_setValue((unsigned char *)"j0",(unsigned char *)ch4,1);
     c46:	f1 d4       	rcall	.+2530   	; 0x162a <__itoa_ncheck>
     c48:	41 e0       	ldi	r20, 0x01	; 1
     c4a:	be 01       	movw	r22, r28
     c4c:	6f 5f       	subi	r22, 0xFF	; 255
     c4e:	7f 4f       	sbci	r23, 0xFF	; 255
     c50:	85 ed       	ldi	r24, 0xD5	; 213
     c52:	92 e0       	ldi	r25, 0x02	; 2
     c54:	8b db       	rcall	.-2282   	; 0x36c <nextion_setValue>
     c56:	2f ef       	ldi	r18, 0xFF	; 255
     c58:	80 e7       	ldi	r24, 0x70	; 112
     c5a:	92 e0       	ldi	r25, 0x02	; 2
     c5c:	21 50       	subi	r18, 0x01	; 1
     c5e:	80 40       	sbci	r24, 0x00	; 0
     c60:	90 40       	sbci	r25, 0x00	; 0
     c62:	e1 f7       	brne	.-8      	; 0xc5c <initTMC4671_Openloop+0xf0>
     c64:	00 c0       	rjmp	.+0      	; 0xc66 <initTMC4671_Openloop+0xfa>
	_delay_ms(50);
	val++;
     c66:	00 00       	nop
     c68:	0f 5f       	subi	r16, 0xFF	; 255
}

	// Rotate left
	tmc4671_writeInt(0, TMC4671_OPENLOOP_VELOCITY_TARGET, 0xFFFFFFC4);
	
for (unsigned char i =0;i<50;i++)
     c6a:	1f 4f       	sbci	r17, 0xFF	; 255
     c6c:	04 36       	cpi	r16, 0x64	; 100
     c6e:	11 05       	cpc	r17, r1
	tmc40bit_writeInt(motor, address, value);
}

void tmc4671_writeInt(unsigned int motor, unsigned char address, unsigned long value)
{
	tmc40bit_writeInt(motor, address, value);
     c70:	29 f7       	brne	.-54     	; 0xc3c <initTMC4671_Openloop+0xd0>
     c72:	20 e0       	ldi	r18, 0x00	; 0
     c74:	30 e0       	ldi	r19, 0x00	; 0
     c76:	a9 01       	movw	r20, r18
     c78:	61 e2       	ldi	r22, 0x21	; 33
     c7a:	80 e0       	ldi	r24, 0x00	; 0
     c7c:	90 e0       	ldi	r25, 0x00	; 0
     c7e:	fb de       	rcall	.-522    	; 0xa76 <tmc40bit_writeInt>
     c80:	20 e0       	ldi	r18, 0x00	; 0
     c82:	30 e0       	ldi	r19, 0x00	; 0
     c84:	a9 01       	movw	r20, r18
     c86:	64 e2       	ldi	r22, 0x24	; 36
     c88:	80 e0       	ldi	r24, 0x00	; 0
     c8a:	90 e0       	ldi	r25, 0x00	; 0
     c8c:	f4 de       	rcall	.-536    	; 0xa76 <tmc40bit_writeInt>
	val++;
}
	// Stop
	tmc4671_writeInt(0, TMC4671_OPENLOOP_VELOCITY_TARGET, 0x00000000);
	tmc4671_writeInt(0, TMC4671_UQ_UD_EXT, 0x00000000);
}
     c8e:	2a 96       	adiw	r28, 0x0a	; 10
     c90:	0f b6       	in	r0, 0x3f	; 63
     c92:	f8 94       	cli
     c94:	de bf       	out	0x3e, r29	; 62
     c96:	0f be       	out	0x3f, r0	; 63
     c98:	cd bf       	out	0x3d, r28	; 61
     c9a:	df 91       	pop	r29
     c9c:	cf 91       	pop	r28
     c9e:	1f 91       	pop	r17
     ca0:	0f 91       	pop	r16
     ca2:	08 95       	ret

00000ca4 <tx_completed>:
}

void Uart_Transmit_IT_RFID(unsigned char *data, unsigned char nbytes )
{
	RB_write(&rb_tx_RFID, data, nbytes);
	Uart_EnableTransmitIT_3();
     ca4:	00 00       	nop
     ca6:	00 00       	nop
     ca8:	08 95       	ret

00000caa <UART_init>:
     caa:	cf 92       	push	r12
     cac:	df 92       	push	r13
     cae:	ef 92       	push	r14
     cb0:	ff 92       	push	r15
     cb2:	0f 93       	push	r16
     cb4:	1f 93       	push	r17
     cb6:	cf 93       	push	r28
     cb8:	df 93       	push	r29
     cba:	10 92 c5 00 	sts	0x00C5, r1	; 0x8000c5 <__TEXT_REGION_LENGTH__+0x7000c5>
     cbe:	27 e6       	ldi	r18, 0x67	; 103
     cc0:	20 93 c4 00 	sts	0x00C4, r18	; 0x8000c4 <__TEXT_REGION_LENGTH__+0x7000c4>
     cc4:	0f 2e       	mov	r0, r31
     cc6:	f1 ec       	ldi	r31, 0xC1	; 193
     cc8:	cf 2e       	mov	r12, r31
     cca:	d1 2c       	mov	r13, r1
     ccc:	f0 2d       	mov	r31, r0
     cce:	98 e9       	ldi	r25, 0x98	; 152
     cd0:	f6 01       	movw	r30, r12
     cd2:	90 83       	st	Z, r25
     cd4:	86 e0       	ldi	r24, 0x06	; 6
     cd6:	80 93 c2 00 	sts	0x00C2, r24	; 0x8000c2 <__TEXT_REGION_LENGTH__+0x7000c2>
     cda:	10 92 cd 00 	sts	0x00CD, r1	; 0x8000cd <__TEXT_REGION_LENGTH__+0x7000cd>
     cde:	20 93 cc 00 	sts	0x00CC, r18	; 0x8000cc <__TEXT_REGION_LENGTH__+0x7000cc>
     ce2:	0f 2e       	mov	r0, r31
     ce4:	f9 ec       	ldi	r31, 0xC9	; 201
     ce6:	ef 2e       	mov	r14, r31
     ce8:	f1 2c       	mov	r15, r1
     cea:	f0 2d       	mov	r31, r0
     cec:	f7 01       	movw	r30, r14
     cee:	90 83       	st	Z, r25
     cf0:	80 93 ca 00 	sts	0x00CA, r24	; 0x8000ca <__TEXT_REGION_LENGTH__+0x7000ca>
     cf4:	10 92 d5 00 	sts	0x00D5, r1	; 0x8000d5 <__TEXT_REGION_LENGTH__+0x7000d5>
     cf8:	20 93 d4 00 	sts	0x00D4, r18	; 0x8000d4 <__TEXT_REGION_LENGTH__+0x7000d4>
     cfc:	01 ed       	ldi	r16, 0xD1	; 209
     cfe:	10 e0       	ldi	r17, 0x00	; 0
     d00:	f8 01       	movw	r30, r16
     d02:	90 83       	st	Z, r25
     d04:	80 93 d2 00 	sts	0x00D2, r24	; 0x8000d2 <__TEXT_REGION_LENGTH__+0x7000d2>
     d08:	10 92 35 01 	sts	0x0135, r1	; 0x800135 <__TEXT_REGION_LENGTH__+0x700135>
     d0c:	20 93 34 01 	sts	0x0134, r18	; 0x800134 <__TEXT_REGION_LENGTH__+0x700134>
     d10:	c1 e3       	ldi	r28, 0x31	; 49
     d12:	d1 e0       	ldi	r29, 0x01	; 1
     d14:	98 83       	st	Y, r25
     d16:	80 93 32 01 	sts	0x0132, r24	; 0x800132 <__TEXT_REGION_LENGTH__+0x700132>
     d1a:	82 e7       	ldi	r24, 0x72	; 114
     d1c:	93 e0       	ldi	r25, 0x03	; 3
     d1e:	ce dd       	rcall	.-1124   	; 0x8bc <RB_init>
     d20:	8c ea       	ldi	r24, 0xAC	; 172
     d22:	9d e0       	ldi	r25, 0x0D	; 13
     d24:	cb dd       	rcall	.-1130   	; 0x8bc <RB_init>
     d26:	8d e8       	ldi	r24, 0x8D	; 141
     d28:	94 e0       	ldi	r25, 0x04	; 4
     d2a:	c8 dd       	rcall	.-1136   	; 0x8bc <RB_init>
     d2c:	89 ea       	ldi	r24, 0xA9	; 169
     d2e:	99 e0       	ldi	r25, 0x09	; 9
     d30:	c5 dd       	rcall	.-1142   	; 0x8bc <RB_init>
     d32:	8d ea       	ldi	r24, 0xAD	; 173
     d34:	9e e0       	ldi	r25, 0x0E	; 14
     d36:	c2 dd       	rcall	.-1148   	; 0x8bc <RB_init>
     d38:	88 ea       	ldi	r24, 0xA8	; 168
     d3a:	98 e0       	ldi	r25, 0x08	; 8
     d3c:	bf dd       	rcall	.-1154   	; 0x8bc <RB_init>
     d3e:	8a ea       	ldi	r24, 0xAA	; 170
     d40:	9a e0       	ldi	r25, 0x0A	; 10
     d42:	bc dd       	rcall	.-1160   	; 0x8bc <RB_init>
     d44:	8f ea       	ldi	r24, 0xAF	; 175
     d46:	90 e1       	ldi	r25, 0x10	; 16
     d48:	b9 dd       	rcall	.-1166   	; 0x8bc <RB_init>
     d4a:	f6 01       	movw	r30, r12
     d4c:	80 81       	ld	r24, Z
     d4e:	80 68       	ori	r24, 0x80	; 128
     d50:	80 83       	st	Z, r24
     d52:	f7 01       	movw	r30, r14
     d54:	80 81       	ld	r24, Z
     d56:	80 68       	ori	r24, 0x80	; 128
     d58:	80 83       	st	Z, r24
     d5a:	f8 01       	movw	r30, r16
     d5c:	80 81       	ld	r24, Z
     d5e:	80 68       	ori	r24, 0x80	; 128
     d60:	80 83       	st	Z, r24
     d62:	88 81       	ld	r24, Y
     d64:	80 68       	ori	r24, 0x80	; 128
     d66:	88 83       	st	Y, r24
     d68:	78 94       	sei
     d6a:	82 e5       	ldi	r24, 0x52	; 82
     d6c:	96 e0       	ldi	r25, 0x06	; 6
     d6e:	90 93 71 03 	sts	0x0371, r25	; 0x800371 <ptr_tx_completed_0+0x1>
     d72:	80 93 70 03 	sts	0x0370, r24	; 0x800370 <ptr_tx_completed_0>
     d76:	90 93 6b 03 	sts	0x036B, r25	; 0x80036b <ptr_tx_completed_1+0x1>
     d7a:	80 93 6a 03 	sts	0x036A, r24	; 0x80036a <ptr_tx_completed_1>
     d7e:	90 93 6d 03 	sts	0x036D, r25	; 0x80036d <ptr_tx_completed_2+0x1>
     d82:	80 93 6c 03 	sts	0x036C, r24	; 0x80036c <ptr_tx_completed_2>
     d86:	90 93 6f 03 	sts	0x036F, r25	; 0x80036f <ptr_tx_completed_3+0x1>
     d8a:	80 93 6e 03 	sts	0x036E, r24	; 0x80036e <ptr_tx_completed_3>
     d8e:	df 91       	pop	r29
     d90:	cf 91       	pop	r28
     d92:	1f 91       	pop	r17
     d94:	0f 91       	pop	r16
     d96:	ff 90       	pop	r15
     d98:	ef 90       	pop	r14
     d9a:	df 90       	pop	r13
     d9c:	cf 90       	pop	r12
     d9e:	08 95       	ret

00000da0 <Uart_Transmit_IT_PC>:
     da0:	46 2f       	mov	r20, r22
     da2:	bc 01       	movw	r22, r24
     da4:	82 e7       	ldi	r24, 0x72	; 114
     da6:	93 e0       	ldi	r25, 0x03	; 3
     da8:	d5 dd       	rcall	.-1110   	; 0x954 <RB_write>
     daa:	e1 ec       	ldi	r30, 0xC1	; 193
     dac:	f0 e0       	ldi	r31, 0x00	; 0
     dae:	80 81       	ld	r24, Z
     db0:	80 62       	ori	r24, 0x20	; 32
     db2:	80 83       	st	Z, r24
     db4:	08 95       	ret

00000db6 <Uart_Transmit_IT_Display>:
     db6:	46 2f       	mov	r20, r22
     db8:	bc 01       	movw	r22, r24
     dba:	8d e8       	ldi	r24, 0x8D	; 141
     dbc:	94 e0       	ldi	r25, 0x04	; 4
     dbe:	ca dd       	rcall	.-1132   	; 0x954 <RB_write>
     dc0:	e9 ec       	ldi	r30, 0xC9	; 201
     dc2:	f0 e0       	ldi	r31, 0x00	; 0
     dc4:	80 81       	ld	r24, Z
     dc6:	80 62       	ori	r24, 0x20	; 32
     dc8:	80 83       	st	Z, r24
     dca:	08 95       	ret

00000dcc <Uart_Transmit_IT_ESP>:
     dcc:	46 2f       	mov	r20, r22
     dce:	bc 01       	movw	r22, r24
     dd0:	8d ea       	ldi	r24, 0xAD	; 173
     dd2:	9e e0       	ldi	r25, 0x0E	; 14
     dd4:	bf dd       	rcall	.-1154   	; 0x954 <RB_write>
     dd6:	e1 ed       	ldi	r30, 0xD1	; 209
     dd8:	f0 e0       	ldi	r31, 0x00	; 0
     dda:	80 81       	ld	r24, Z
     ddc:	80 62       	ori	r24, 0x20	; 32
     dde:	80 83       	st	Z, r24
     de0:	08 95       	ret

00000de2 <__vector_26>:
	asm("nop");
	asm("nop");
}

ISR(USART0_UDRE_vect)
{
     de2:	1f 92       	push	r1
     de4:	0f 92       	push	r0
     de6:	0f b6       	in	r0, 0x3f	; 63
     de8:	0f 92       	push	r0
     dea:	11 24       	eor	r1, r1
     dec:	0b b6       	in	r0, 0x3b	; 59
     dee:	0f 92       	push	r0
     df0:	2f 93       	push	r18
     df2:	3f 93       	push	r19
     df4:	4f 93       	push	r20
     df6:	5f 93       	push	r21
     df8:	6f 93       	push	r22
     dfa:	7f 93       	push	r23
     dfc:	8f 93       	push	r24
     dfe:	9f 93       	push	r25
     e00:	af 93       	push	r26
     e02:	bf 93       	push	r27
     e04:	ef 93       	push	r30
     e06:	ff 93       	push	r31
	if (RB_length(&rb_tx_PC) > 0)
     e08:	82 e7       	ldi	r24, 0x72	; 114
     e0a:	93 e0       	ldi	r25, 0x03	; 3
     e0c:	66 dd       	rcall	.-1332   	; 0x8da <RB_length>
     e0e:	88 23       	and	r24, r24
     e10:	31 f0       	breq	.+12     	; 0xe1e <__vector_26+0x3c>
	{
		UDR0 = RB_readByte(&rb_tx_PC);
     e12:	82 e7       	ldi	r24, 0x72	; 114
     e14:	93 e0       	ldi	r25, 0x03	; 3
     e16:	6d dd       	rcall	.-1318   	; 0x8f2 <RB_readByte>
     e18:	80 93 c6 00 	sts	0x00C6, r24	; 0x8000c6 <__TEXT_REGION_LENGTH__+0x7000c6>
     e1c:	0c c0       	rjmp	.+24     	; 0xe36 <__vector_26+0x54>
	}
	else
	{
		Uart_DisableTransmitIT_0();
     e1e:	e1 ec       	ldi	r30, 0xC1	; 193
     e20:	f0 e0       	ldi	r31, 0x00	; 0
     e22:	80 81       	ld	r24, Z
     e24:	8f 7d       	andi	r24, 0xDF	; 223
     e26:	80 83       	st	Z, r24
		if(ptr_tx_completed_0 != 0)
     e28:	e0 91 70 03 	lds	r30, 0x0370	; 0x800370 <ptr_tx_completed_0>
     e2c:	f0 91 71 03 	lds	r31, 0x0371	; 0x800371 <ptr_tx_completed_0+0x1>
     e30:	30 97       	sbiw	r30, 0x00	; 0
     e32:	09 f0       	breq	.+2      	; 0xe36 <__vector_26+0x54>
			ptr_tx_completed_0();
     e34:	19 95       	eicall
	}
}
     e36:	ff 91       	pop	r31
     e38:	ef 91       	pop	r30
     e3a:	bf 91       	pop	r27
     e3c:	af 91       	pop	r26
     e3e:	9f 91       	pop	r25
     e40:	8f 91       	pop	r24
     e42:	7f 91       	pop	r23
     e44:	6f 91       	pop	r22
     e46:	5f 91       	pop	r21
     e48:	4f 91       	pop	r20
     e4a:	3f 91       	pop	r19
     e4c:	2f 91       	pop	r18
     e4e:	0f 90       	pop	r0
     e50:	0b be       	out	0x3b, r0	; 59
     e52:	0f 90       	pop	r0
     e54:	0f be       	out	0x3f, r0	; 63
     e56:	0f 90       	pop	r0
     e58:	1f 90       	pop	r1
     e5a:	18 95       	reti

00000e5c <__vector_25>:

ISR(USART0_RX_vect)
{	
     e5c:	1f 92       	push	r1
     e5e:	0f 92       	push	r0
     e60:	0f b6       	in	r0, 0x3f	; 63
     e62:	0f 92       	push	r0
     e64:	11 24       	eor	r1, r1
     e66:	0b b6       	in	r0, 0x3b	; 59
     e68:	0f 92       	push	r0
     e6a:	2f 93       	push	r18
     e6c:	3f 93       	push	r19
     e6e:	4f 93       	push	r20
     e70:	5f 93       	push	r21
     e72:	6f 93       	push	r22
     e74:	7f 93       	push	r23
     e76:	8f 93       	push	r24
     e78:	9f 93       	push	r25
     e7a:	af 93       	push	r26
     e7c:	bf 93       	push	r27
     e7e:	ef 93       	push	r30
     e80:	ff 93       	push	r31
	char ch = UDR0;
     e82:	60 91 c6 00 	lds	r22, 0x00C6	; 0x8000c6 <__TEXT_REGION_LENGTH__+0x7000c6>
	RB_writeByte(&rb_rx_PC,ch);
     e86:	8c ea       	ldi	r24, 0xAC	; 172
     e88:	9d e0       	ldi	r25, 0x0D	; 13
     e8a:	47 dd       	rcall	.-1394   	; 0x91a <RB_writeByte>
}
     e8c:	ff 91       	pop	r31
     e8e:	ef 91       	pop	r30
     e90:	bf 91       	pop	r27
     e92:	af 91       	pop	r26
     e94:	9f 91       	pop	r25
     e96:	8f 91       	pop	r24
     e98:	7f 91       	pop	r23
     e9a:	6f 91       	pop	r22
     e9c:	5f 91       	pop	r21
     e9e:	4f 91       	pop	r20
     ea0:	3f 91       	pop	r19
     ea2:	2f 91       	pop	r18
     ea4:	0f 90       	pop	r0
     ea6:	0b be       	out	0x3b, r0	; 59
     ea8:	0f 90       	pop	r0
     eaa:	0f be       	out	0x3f, r0	; 63
     eac:	0f 90       	pop	r0
     eae:	1f 90       	pop	r1
     eb0:	18 95       	reti

00000eb2 <__vector_37>:

ISR(USART1_UDRE_vect)
{
     eb2:	1f 92       	push	r1
     eb4:	0f 92       	push	r0
     eb6:	0f b6       	in	r0, 0x3f	; 63
     eb8:	0f 92       	push	r0
     eba:	11 24       	eor	r1, r1
     ebc:	0b b6       	in	r0, 0x3b	; 59
     ebe:	0f 92       	push	r0
     ec0:	2f 93       	push	r18
     ec2:	3f 93       	push	r19
     ec4:	4f 93       	push	r20
     ec6:	5f 93       	push	r21
     ec8:	6f 93       	push	r22
     eca:	7f 93       	push	r23
     ecc:	8f 93       	push	r24
     ece:	9f 93       	push	r25
     ed0:	af 93       	push	r26
     ed2:	bf 93       	push	r27
     ed4:	ef 93       	push	r30
     ed6:	ff 93       	push	r31
	if (RB_length(&rb_tx_Display) > 0)
     ed8:	8d e8       	ldi	r24, 0x8D	; 141
     eda:	94 e0       	ldi	r25, 0x04	; 4
     edc:	fe dc       	rcall	.-1540   	; 0x8da <RB_length>
     ede:	88 23       	and	r24, r24
     ee0:	31 f0       	breq	.+12     	; 0xeee <__vector_37+0x3c>
	{
		UDR1 = RB_readByte(&rb_tx_Display);
     ee2:	8d e8       	ldi	r24, 0x8D	; 141
     ee4:	94 e0       	ldi	r25, 0x04	; 4
     ee6:	05 dd       	rcall	.-1526   	; 0x8f2 <RB_readByte>
     ee8:	80 93 ce 00 	sts	0x00CE, r24	; 0x8000ce <__TEXT_REGION_LENGTH__+0x7000ce>
     eec:	0c c0       	rjmp	.+24     	; 0xf06 <__vector_37+0x54>
	}
	else
	{
		Uart_DisableTransmitIT_1();
     eee:	e9 ec       	ldi	r30, 0xC9	; 201
     ef0:	f0 e0       	ldi	r31, 0x00	; 0
     ef2:	80 81       	ld	r24, Z
     ef4:	8f 7d       	andi	r24, 0xDF	; 223
     ef6:	80 83       	st	Z, r24
		if(ptr_tx_completed_1 != 0)
     ef8:	e0 91 6a 03 	lds	r30, 0x036A	; 0x80036a <ptr_tx_completed_1>
     efc:	f0 91 6b 03 	lds	r31, 0x036B	; 0x80036b <ptr_tx_completed_1+0x1>
     f00:	30 97       	sbiw	r30, 0x00	; 0
     f02:	09 f0       	breq	.+2      	; 0xf06 <__vector_37+0x54>
		ptr_tx_completed_1();
     f04:	19 95       	eicall
	}
}
     f06:	ff 91       	pop	r31
     f08:	ef 91       	pop	r30
     f0a:	bf 91       	pop	r27
     f0c:	af 91       	pop	r26
     f0e:	9f 91       	pop	r25
     f10:	8f 91       	pop	r24
     f12:	7f 91       	pop	r23
     f14:	6f 91       	pop	r22
     f16:	5f 91       	pop	r21
     f18:	4f 91       	pop	r20
     f1a:	3f 91       	pop	r19
     f1c:	2f 91       	pop	r18
     f1e:	0f 90       	pop	r0
     f20:	0b be       	out	0x3b, r0	; 59
     f22:	0f 90       	pop	r0
     f24:	0f be       	out	0x3f, r0	; 63
     f26:	0f 90       	pop	r0
     f28:	1f 90       	pop	r1
     f2a:	18 95       	reti

00000f2c <__vector_36>:

ISR(USART1_RX_vect)
{
     f2c:	1f 92       	push	r1
     f2e:	0f 92       	push	r0
     f30:	0f b6       	in	r0, 0x3f	; 63
     f32:	0f 92       	push	r0
     f34:	11 24       	eor	r1, r1
     f36:	0b b6       	in	r0, 0x3b	; 59
     f38:	0f 92       	push	r0
     f3a:	2f 93       	push	r18
     f3c:	3f 93       	push	r19
     f3e:	4f 93       	push	r20
     f40:	5f 93       	push	r21
     f42:	6f 93       	push	r22
     f44:	7f 93       	push	r23
     f46:	8f 93       	push	r24
     f48:	9f 93       	push	r25
     f4a:	af 93       	push	r26
     f4c:	bf 93       	push	r27
     f4e:	ef 93       	push	r30
     f50:	ff 93       	push	r31
	char ch = UDR1;
     f52:	60 91 ce 00 	lds	r22, 0x00CE	; 0x8000ce <__TEXT_REGION_LENGTH__+0x7000ce>
	RB_writeByte(&rb_rx_Display,ch);
     f56:	89 ea       	ldi	r24, 0xA9	; 169
     f58:	99 e0       	ldi	r25, 0x09	; 9
     f5a:	df dc       	rcall	.-1602   	; 0x91a <RB_writeByte>
}
     f5c:	ff 91       	pop	r31
     f5e:	ef 91       	pop	r30
     f60:	bf 91       	pop	r27
     f62:	af 91       	pop	r26
     f64:	9f 91       	pop	r25
     f66:	8f 91       	pop	r24
     f68:	7f 91       	pop	r23
     f6a:	6f 91       	pop	r22
     f6c:	5f 91       	pop	r21
     f6e:	4f 91       	pop	r20
     f70:	3f 91       	pop	r19
     f72:	2f 91       	pop	r18
     f74:	0f 90       	pop	r0
     f76:	0b be       	out	0x3b, r0	; 59
     f78:	0f 90       	pop	r0
     f7a:	0f be       	out	0x3f, r0	; 63
     f7c:	0f 90       	pop	r0
     f7e:	1f 90       	pop	r1
     f80:	18 95       	reti

00000f82 <__vector_52>:

ISR(USART2_UDRE_vect)
{
     f82:	1f 92       	push	r1
     f84:	0f 92       	push	r0
     f86:	0f b6       	in	r0, 0x3f	; 63
     f88:	0f 92       	push	r0
     f8a:	11 24       	eor	r1, r1
     f8c:	0b b6       	in	r0, 0x3b	; 59
     f8e:	0f 92       	push	r0
     f90:	2f 93       	push	r18
     f92:	3f 93       	push	r19
     f94:	4f 93       	push	r20
     f96:	5f 93       	push	r21
     f98:	6f 93       	push	r22
     f9a:	7f 93       	push	r23
     f9c:	8f 93       	push	r24
     f9e:	9f 93       	push	r25
     fa0:	af 93       	push	r26
     fa2:	bf 93       	push	r27
     fa4:	ef 93       	push	r30
     fa6:	ff 93       	push	r31
	if (RB_length(&rb_tx_ESP) > 0)
     fa8:	8d ea       	ldi	r24, 0xAD	; 173
     faa:	9e e0       	ldi	r25, 0x0E	; 14
     fac:	96 dc       	rcall	.-1748   	; 0x8da <RB_length>
     fae:	88 23       	and	r24, r24
     fb0:	31 f0       	breq	.+12     	; 0xfbe <__vector_52+0x3c>
	{
		UDR2 = RB_readByte(&rb_tx_ESP);
     fb2:	8d ea       	ldi	r24, 0xAD	; 173
     fb4:	9e e0       	ldi	r25, 0x0E	; 14
     fb6:	9d dc       	rcall	.-1734   	; 0x8f2 <RB_readByte>
     fb8:	80 93 d6 00 	sts	0x00D6, r24	; 0x8000d6 <__TEXT_REGION_LENGTH__+0x7000d6>
     fbc:	0c c0       	rjmp	.+24     	; 0xfd6 <__vector_52+0x54>
	}
	else
	{
		Uart_DisableTransmitIT_2();
     fbe:	e1 ed       	ldi	r30, 0xD1	; 209
     fc0:	f0 e0       	ldi	r31, 0x00	; 0
     fc2:	80 81       	ld	r24, Z
     fc4:	8f 7d       	andi	r24, 0xDF	; 223
     fc6:	80 83       	st	Z, r24
		if(ptr_tx_completed_2 != 0)
     fc8:	e0 91 6c 03 	lds	r30, 0x036C	; 0x80036c <ptr_tx_completed_2>
     fcc:	f0 91 6d 03 	lds	r31, 0x036D	; 0x80036d <ptr_tx_completed_2+0x1>
     fd0:	30 97       	sbiw	r30, 0x00	; 0
     fd2:	09 f0       	breq	.+2      	; 0xfd6 <__vector_52+0x54>
		ptr_tx_completed_2();
     fd4:	19 95       	eicall
	}
}
     fd6:	ff 91       	pop	r31
     fd8:	ef 91       	pop	r30
     fda:	bf 91       	pop	r27
     fdc:	af 91       	pop	r26
     fde:	9f 91       	pop	r25
     fe0:	8f 91       	pop	r24
     fe2:	7f 91       	pop	r23
     fe4:	6f 91       	pop	r22
     fe6:	5f 91       	pop	r21
     fe8:	4f 91       	pop	r20
     fea:	3f 91       	pop	r19
     fec:	2f 91       	pop	r18
     fee:	0f 90       	pop	r0
     ff0:	0b be       	out	0x3b, r0	; 59
     ff2:	0f 90       	pop	r0
     ff4:	0f be       	out	0x3f, r0	; 63
     ff6:	0f 90       	pop	r0
     ff8:	1f 90       	pop	r1
     ffa:	18 95       	reti

00000ffc <__vector_51>:

ISR(USART2_RX_vect)
{
     ffc:	1f 92       	push	r1
     ffe:	0f 92       	push	r0
    1000:	0f b6       	in	r0, 0x3f	; 63
    1002:	0f 92       	push	r0
    1004:	11 24       	eor	r1, r1
    1006:	0b b6       	in	r0, 0x3b	; 59
    1008:	0f 92       	push	r0
    100a:	2f 93       	push	r18
    100c:	3f 93       	push	r19
    100e:	4f 93       	push	r20
    1010:	5f 93       	push	r21
    1012:	6f 93       	push	r22
    1014:	7f 93       	push	r23
    1016:	8f 93       	push	r24
    1018:	9f 93       	push	r25
    101a:	af 93       	push	r26
    101c:	bf 93       	push	r27
    101e:	ef 93       	push	r30
    1020:	ff 93       	push	r31
	char ch = UDR2;
    1022:	60 91 d6 00 	lds	r22, 0x00D6	; 0x8000d6 <__TEXT_REGION_LENGTH__+0x7000d6>
	RB_writeByte(&rb_rx_ESP,ch);
    1026:	88 ea       	ldi	r24, 0xA8	; 168
    1028:	98 e0       	ldi	r25, 0x08	; 8
    102a:	77 dc       	rcall	.-1810   	; 0x91a <RB_writeByte>
}
    102c:	ff 91       	pop	r31
    102e:	ef 91       	pop	r30
    1030:	bf 91       	pop	r27
    1032:	af 91       	pop	r26
    1034:	9f 91       	pop	r25
    1036:	8f 91       	pop	r24
    1038:	7f 91       	pop	r23
    103a:	6f 91       	pop	r22
    103c:	5f 91       	pop	r21
    103e:	4f 91       	pop	r20
    1040:	3f 91       	pop	r19
    1042:	2f 91       	pop	r18
    1044:	0f 90       	pop	r0
    1046:	0b be       	out	0x3b, r0	; 59
    1048:	0f 90       	pop	r0
    104a:	0f be       	out	0x3f, r0	; 63
    104c:	0f 90       	pop	r0
    104e:	1f 90       	pop	r1
    1050:	18 95       	reti

00001052 <__vector_55>:


ISR(USART3_UDRE_vect)
{
    1052:	1f 92       	push	r1
    1054:	0f 92       	push	r0
    1056:	0f b6       	in	r0, 0x3f	; 63
    1058:	0f 92       	push	r0
    105a:	11 24       	eor	r1, r1
    105c:	0b b6       	in	r0, 0x3b	; 59
    105e:	0f 92       	push	r0
    1060:	2f 93       	push	r18
    1062:	3f 93       	push	r19
    1064:	4f 93       	push	r20
    1066:	5f 93       	push	r21
    1068:	6f 93       	push	r22
    106a:	7f 93       	push	r23
    106c:	8f 93       	push	r24
    106e:	9f 93       	push	r25
    1070:	af 93       	push	r26
    1072:	bf 93       	push	r27
    1074:	ef 93       	push	r30
    1076:	ff 93       	push	r31
	if (RB_length(&rb_tx_RFID) > 0)
    1078:	8a ea       	ldi	r24, 0xAA	; 170
    107a:	9a e0       	ldi	r25, 0x0A	; 10
    107c:	2e dc       	rcall	.-1956   	; 0x8da <RB_length>
    107e:	88 23       	and	r24, r24
    1080:	31 f0       	breq	.+12     	; 0x108e <__vector_55+0x3c>
	{
		UDR2 = RB_readByte(&rb_tx_RFID);
    1082:	8a ea       	ldi	r24, 0xAA	; 170
    1084:	9a e0       	ldi	r25, 0x0A	; 10
    1086:	35 dc       	rcall	.-1942   	; 0x8f2 <RB_readByte>
    1088:	80 93 d6 00 	sts	0x00D6, r24	; 0x8000d6 <__TEXT_REGION_LENGTH__+0x7000d6>
    108c:	0c c0       	rjmp	.+24     	; 0x10a6 <__vector_55+0x54>
	}
	else
	{
		Uart_DisableTransmitIT_3();
    108e:	e1 e3       	ldi	r30, 0x31	; 49
    1090:	f1 e0       	ldi	r31, 0x01	; 1
    1092:	80 81       	ld	r24, Z
    1094:	8f 7d       	andi	r24, 0xDF	; 223
    1096:	80 83       	st	Z, r24
		if(ptr_tx_completed_3 != 0)
    1098:	e0 91 6e 03 	lds	r30, 0x036E	; 0x80036e <ptr_tx_completed_3>
    109c:	f0 91 6f 03 	lds	r31, 0x036F	; 0x80036f <ptr_tx_completed_3+0x1>
    10a0:	30 97       	sbiw	r30, 0x00	; 0
    10a2:	09 f0       	breq	.+2      	; 0x10a6 <__vector_55+0x54>
		ptr_tx_completed_3();
    10a4:	19 95       	eicall
	}
}
    10a6:	ff 91       	pop	r31
    10a8:	ef 91       	pop	r30
    10aa:	bf 91       	pop	r27
    10ac:	af 91       	pop	r26
    10ae:	9f 91       	pop	r25
    10b0:	8f 91       	pop	r24
    10b2:	7f 91       	pop	r23
    10b4:	6f 91       	pop	r22
    10b6:	5f 91       	pop	r21
    10b8:	4f 91       	pop	r20
    10ba:	3f 91       	pop	r19
    10bc:	2f 91       	pop	r18
    10be:	0f 90       	pop	r0
    10c0:	0b be       	out	0x3b, r0	; 59
    10c2:	0f 90       	pop	r0
    10c4:	0f be       	out	0x3f, r0	; 63
    10c6:	0f 90       	pop	r0
    10c8:	1f 90       	pop	r1
    10ca:	18 95       	reti

000010cc <__vector_54>:

ISR(USART3_RX_vect)
{
    10cc:	1f 92       	push	r1
    10ce:	0f 92       	push	r0
    10d0:	0f b6       	in	r0, 0x3f	; 63
    10d2:	0f 92       	push	r0
    10d4:	11 24       	eor	r1, r1
    10d6:	0b b6       	in	r0, 0x3b	; 59
    10d8:	0f 92       	push	r0
    10da:	2f 93       	push	r18
    10dc:	3f 93       	push	r19
    10de:	4f 93       	push	r20
    10e0:	5f 93       	push	r21
    10e2:	6f 93       	push	r22
    10e4:	7f 93       	push	r23
    10e6:	8f 93       	push	r24
    10e8:	9f 93       	push	r25
    10ea:	af 93       	push	r26
    10ec:	bf 93       	push	r27
    10ee:	ef 93       	push	r30
    10f0:	ff 93       	push	r31
	char ch = UDR3;
    10f2:	60 91 36 01 	lds	r22, 0x0136	; 0x800136 <__TEXT_REGION_LENGTH__+0x700136>
	RB_writeByte(&rb_rx_RFID,ch);
    10f6:	8f ea       	ldi	r24, 0xAF	; 175
    10f8:	90 e1       	ldi	r25, 0x10	; 16
    10fa:	0f dc       	rcall	.-2018   	; 0x91a <RB_writeByte>
    10fc:	ff 91       	pop	r31
    10fe:	ef 91       	pop	r30
    1100:	bf 91       	pop	r27
    1102:	af 91       	pop	r26
    1104:	9f 91       	pop	r25
    1106:	8f 91       	pop	r24
    1108:	7f 91       	pop	r23
    110a:	6f 91       	pop	r22
    110c:	5f 91       	pop	r21
    110e:	4f 91       	pop	r20
    1110:	3f 91       	pop	r19
    1112:	2f 91       	pop	r18
    1114:	0f 90       	pop	r0
    1116:	0b be       	out	0x3b, r0	; 59
    1118:	0f 90       	pop	r0
    111a:	0f be       	out	0x3f, r0	; 63
    111c:	0f 90       	pop	r0
    111e:	1f 90       	pop	r1
    1120:	18 95       	reti

00001122 <main>:
#define sliderID 2


// MainLoop
int main(void)
{	
    1122:	cf 93       	push	r28
    1124:	df 93       	push	r29
    1126:	cd b7       	in	r28, 0x3d	; 61
    1128:	de b7       	in	r29, 0x3e	; 62
    112a:	60 97       	sbiw	r28, 0x10	; 16
    112c:	0f b6       	in	r0, 0x3f	; 63
    112e:	f8 94       	cli
    1130:	de bf       	out	0x3e, r29	; 62
    1132:	0f be       	out	0x3f, r0	; 63
    1134:	cd bf       	out	0x3d, r28	; 61
	
//Initialisierungen
	IO_init();
    1136:	4f d0       	rcall	.+158    	; 0x11d6 <IO_init>
	TIMER_init();
    1138:	54 d0       	rcall	.+168    	; 0x11e2 <TIMER_init>
	SPI_init();
    113a:	41 dc       	rcall	.-1918   	; 0x9be <SPI_init>
	UART_init();
    113c:	b6 dd       	rcall	.-1172   	; 0xcaa <UART_init>
	TMC4671_init();
    113e:	ba dc       	rcall	.-1676   	; 0xab4 <TMC4671_init>
    1140:	22 da       	rcall	.-3004   	; 0x586 <mfrc522_init>
	mfrc522_init();
    1142:	87 e3       	ldi	r24, 0x37	; 55
    1144:	13 da       	rcall	.-3034   	; 0x56c <mfrc522_read>
	
	//check version of the reader
	uint8_t str[MAX_LEN];
	
	char byte;
	byte = mfrc522_read(VersionReg);
    1146:	82 39       	cpi	r24, 0x92	; 146
    1148:	49 f4       	brne	.+18     	; 0x115c <main+0x3a>
	
	if(byte == 0x92)
    114a:	61 e1       	ldi	r22, 0x11	; 17
    114c:	88 ed       	ldi	r24, 0xD8	; 216
	{
		ch0 = (unsigned char *)"MIFARE RC522v2 \r\n";
		Uart_Transmit_IT_PC(ch0,strlen((const char*)ch0));
    114e:	92 e0       	ldi	r25, 0x02	; 2
    1150:	27 de       	rcall	.-946    	; 0xda0 <Uart_Transmit_IT_PC>
    1152:	6b e0       	ldi	r22, 0x0B	; 11
    1154:	8a ee       	ldi	r24, 0xEA	; 234
		
		ch0 = (unsigned char *)"Detected \r\n";
		Uart_Transmit_IT_PC(ch0,strlen((const char*)ch0));
    1156:	92 e0       	ldi	r25, 0x02	; 2
    1158:	23 de       	rcall	.-954    	; 0xda0 <Uart_Transmit_IT_PC>
    115a:	10 c0       	rjmp	.+32     	; 0x117c <main+0x5a>
    115c:	80 59       	subi	r24, 0x90	; 144
    115e:	82 30       	cpi	r24, 0x02	; 2
		
	}
	else if(byte == 0x91 || byte==0x90)
    1160:	48 f4       	brcc	.+18     	; 0x1174 <main+0x52>
    1162:	61 e1       	ldi	r22, 0x11	; 17
	{
		ch0 = (unsigned char *)"MIFARE RC522v1 \r\n";
		Uart_Transmit_IT_PC(ch0,strlen((const char*)ch0));
    1164:	86 ef       	ldi	r24, 0xF6	; 246
    1166:	92 e0       	ldi	r25, 0x02	; 2
    1168:	1b de       	rcall	.-970    	; 0xda0 <Uart_Transmit_IT_PC>
    116a:	6b e0       	ldi	r22, 0x0B	; 11
		ch0 = (unsigned char *)"Detected \r\n";
		Uart_Transmit_IT_PC(ch0,strlen((const char*)ch0));
    116c:	8a ee       	ldi	r24, 0xEA	; 234
    116e:	92 e0       	ldi	r25, 0x02	; 2
    1170:	17 de       	rcall	.-978    	; 0xda0 <Uart_Transmit_IT_PC>
    1172:	04 c0       	rjmp	.+8      	; 0x117c <main+0x5a>
	}
	else
	{
		ch0 = (unsigned char *)"No reader found \r\n";
		Uart_Transmit_IT_PC(ch0,strlen((const char*)ch0));
    1174:	62 e1       	ldi	r22, 0x12	; 18
    1176:	88 e0       	ldi	r24, 0x08	; 8
    1178:	93 e0       	ldi	r25, 0x03	; 3
    117a:	12 de       	rcall	.-988    	; 0xda0 <Uart_Transmit_IT_PC>
	
	// Mainroutine
	while (1)
	{
	
		byte = mfrc522_read(ComIEnReg);
    117c:	82 e0       	ldi	r24, 0x02	; 2
    117e:	f6 d9       	rcall	.-3092   	; 0x56c <mfrc522_read>
    1180:	68 2f       	mov	r22, r24
// 		ch0 = (unsigned char *)byte;
// 		Uart_Transmit_IT_PC(ch0,1);
// 		ch0 = (unsigned char *)"\r\n";
// 		Uart_Transmit_IT_PC(ch0,(unsigned char)strlen((const char *)ch0));
		
		mfrc522_write(ComIEnReg,byte|0x20);
    1182:	60 62       	ori	r22, 0x20	; 32
    1184:	82 e0       	ldi	r24, 0x02	; 2
    1186:	e7 d9       	rcall	.-3122   	; 0x556 <mfrc522_write>
    1188:	83 e0       	ldi	r24, 0x03	; 3
    118a:	f0 d9       	rcall	.-3104   	; 0x56c <mfrc522_read>
			
		byte = mfrc522_read(DivIEnReg);
    118c:	68 2f       	mov	r22, r24
    118e:	60 68       	ori	r22, 0x80	; 128
    1190:	83 e0       	ldi	r24, 0x03	; 3
// 		ch0 = (unsigned char *)byte;
// 		Uart_Transmit_IT_PC(ch0,1);
// 		ch0 = (unsigned char *)"\r\n";
// 		Uart_Transmit_IT_PC(ch0,(unsigned char)strlen((const char *)ch0));
			
		mfrc522_write(DivIEnReg,byte|0x80);
    1192:	e1 d9       	rcall	.-3134   	; 0x556 <mfrc522_write>
    1194:	2f ef       	ldi	r18, 0xFF	; 255
    1196:	83 ec       	ldi	r24, 0xC3	; 195
    1198:	99 e0       	ldi	r25, 0x09	; 9
    119a:	21 50       	subi	r18, 0x01	; 1
    119c:	80 40       	sbci	r24, 0x00	; 0
    119e:	90 40       	sbci	r25, 0x00	; 0
    11a0:	e1 f7       	brne	.-8      	; 0x119a <main+0x78>
    11a2:	00 c0       	rjmp	.+0      	; 0x11a4 <main+0x82>
    11a4:	00 00       	nop
		
		_delay_ms(200);
		
		byte = mfrc522_request(PICC_REQALL,str);
    11a6:	be 01       	movw	r22, r28
    11a8:	6f 5f       	subi	r22, 0xFF	; 255
    11aa:	7f 4f       	sbci	r23, 0xFF	; 255
// 		ch0 = (unsigned char *) byte;
// 	 	Uart_Transmit_IT_PC(ch0,strlen((const char*)ch0));
// 		ch0 = (unsigned char *)"\r\n";
// 	 	Uart_Transmit_IT_PC(ch0,strlen((const char*)ch0));
		 
		if(byte == CARD_FOUND)
    11ac:	82 e5       	ldi	r24, 0x52	; 82
		{
			byte = mfrc522_get_card_serial(str);
    11ae:	1e db       	rcall	.-2500   	; 0x7ec <mfrc522_request>
    11b0:	81 30       	cpi	r24, 0x01	; 1
    11b2:	19 f4       	brne	.+6      	; 0x11ba <main+0x98>
    11b4:	ce 01       	movw	r24, r28
// 			ch0 = (unsigned char *)" Error \r\n";
// 			Uart_Transmit_IT_PC(ch0,strlen((const char*)ch0));
		}
		
		
		if (check_Communication_Input_UART_0())				// Check UART_0 (USB), ob vollstndige bertragung stattgefunden hat (Ende = "\r")
    11b6:	01 96       	adiw	r24, 0x01	; 1
    11b8:	4b db       	rcall	.-2410   	; 0x850 <mfrc522_get_card_serial>
    11ba:	31 d0       	rcall	.+98     	; 0x121e <check_Communication_Input_UART_0>
		{
			proceed_Communication_Input_UART_0();				// Vollstndige bertragung des USB verarbeiten
    11bc:	81 11       	cpse	r24, r1
    11be:	5e d0       	rcall	.+188    	; 0x127c <proceed_Communication_Input_UART_0>
		}
		
		if (check_Communication_Input_UART_1())				// Check UART_1 (Nextion-Display), ob vollstndige bertragung stattgefunden hat (Ende = "0xFF 0xFF 0xFF")
    11c0:	73 d0       	rcall	.+230    	; 0x12a8 <check_Communication_Input_UART_1>
    11c2:	81 11       	cpse	r24, r1
    11c4:	e3 d0       	rcall	.+454    	; 0x138c <proceed_Communication_INPUT_UART_1>
		{
			proceed_Communication_INPUT_UART_1();				// Vollstndige bertragung des Displays verarbeiten
    11c6:	ff d0       	rcall	.+510    	; 0x13c6 <check_Communication_Input_UART_2>
    11c8:	81 11       	cpse	r24, r1
		}

		if (check_Communication_Input_UART_2())				// Check UART_2 (ESP), ob vollstndige bertragung stattgefunden hat (Ende = "0xFF 0xFF 0xFF")
    11ca:	6f d1       	rcall	.+734    	; 0x14aa <proceed_Communication_Input_UART_2>
    11cc:	8b d1       	rcall	.+790    	; 0x14e4 <check_Communication_Input_UART_3>
    11ce:	88 23       	and	r24, r24
		{
			proceed_Communication_Input_UART_2();				// Vollstndige bertragung des ESP's verarbeiten
    11d0:	a9 f2       	breq	.-86     	; 0x117c <main+0x5a>
    11d2:	0e d2       	rcall	.+1052   	; 0x15f0 <proceed_Communication_Input_UART_3>
		}

		if (check_Communication_Input_UART_3())				// Check UART_3 (RFID), ob vollstndige bertragung stattgefunden hat (Ende = "0xFF 0xFF 0xFF")
    11d4:	d3 cf       	rjmp	.-90     	; 0x117c <main+0x5a>

000011d6 <IO_init>:
    11d6:	87 eb       	ldi	r24, 0xB7	; 183
    11d8:	84 b9       	out	0x04, r24	; 4
    11da:	80 e1       	ldi	r24, 0x10	; 16
		{
			proceed_Communication_Input_UART_3();				// Vollstndige bertragung des ESP's verarbeiten
    11dc:	80 93 01 01 	sts	0x0101, r24	; 0x800101 <__TEXT_REGION_LENGTH__+0x700101>
    11e0:	08 95       	ret

000011e2 <TIMER_init>:
    11e2:	a8 ea       	ldi	r26, 0xA8	; 168
    11e4:	b0 e0       	ldi	r27, 0x00	; 0
    11e6:	11 96       	adiw	r26, 0x01	; 1
    11e8:	1c 92       	st	X, r1
    11ea:	1e 92       	st	-X, r1
    11ec:	10 92 a0 00 	sts	0x00A0, r1	; 0x8000a0 <__TEXT_REGION_LENGTH__+0x7000a0>
    11f0:	e1 ea       	ldi	r30, 0xA1	; 161
    11f2:	f0 e0       	ldi	r31, 0x00	; 0
    11f4:	10 82       	st	Z, r1
    11f6:	10 92 a5 00 	sts	0x00A5, r1	; 0x8000a5 <__TEXT_REGION_LENGTH__+0x7000a5>
    11fa:	10 92 a4 00 	sts	0x00A4, r1	; 0x8000a4 <__TEXT_REGION_LENGTH__+0x7000a4>
    11fe:	8c e7       	ldi	r24, 0x7C	; 124
    1200:	90 e0       	ldi	r25, 0x00	; 0
    1202:	11 96       	adiw	r26, 0x01	; 1
    1204:	9c 93       	st	X, r25
    1206:	8e 93       	st	-X, r24
    1208:	80 81       	ld	r24, Z
    120a:	88 60       	ori	r24, 0x08	; 8
    120c:	80 83       	st	Z, r24
    120e:	80 81       	ld	r24, Z
    1210:	82 60       	ori	r24, 0x02	; 2
    1212:	80 83       	st	Z, r24
    1214:	08 95       	ret

00001216 <toggle_LED>:
    1216:	85 b1       	in	r24, 0x05	; 5
    1218:	80 58       	subi	r24, 0x80	; 128
    121a:	85 b9       	out	0x05, r24	; 5
    121c:	08 95       	ret

0000121e <check_Communication_Input_UART_0>:
{
   		SPI_PORT = SPI_PORT ^ (HEARTBEAT_LED);				// Toggelt nur HEARTBEAT_LED
}

char check_Communication_Input_UART_0(void)
{
    121e:	1f 93       	push	r17
    1220:	cf 93       	push	r28
    1222:	df 93       	push	r29
	char ret = 0;
    1224:	d0 e0       	ldi	r29, 0x00	; 0
		}
		else
		{
			INPUT_UART_0[cntr_UART_0]=ch;
			cntr_UART_0++;
			ret = 0;
    1226:	c0 e0       	ldi	r28, 0x00	; 0
		if (ch == 13)
		{
			INPUT_UART_0[cntr_UART_0] = 0;
			cntr_UART_0 = 0;
			cntr_End_UART_0 = 0;
			ret = 1;
    1228:	11 e0       	ldi	r17, 0x01	; 1

char check_Communication_Input_UART_0(void)
{
	char ret = 0;
	// Check Buffer auf Einkommende Daten
	while(RB_length(&rb_rx_PC)>0)
    122a:	1e c0       	rjmp	.+60     	; 0x1268 <check_Communication_Input_UART_0+0x4a>
	{
		unsigned char ch = RB_readByte(&rb_rx_PC);
    122c:	8c ea       	ldi	r24, 0xAC	; 172
    122e:	9d e0       	ldi	r25, 0x0D	; 13
    1230:	60 db       	rcall	.-2368   	; 0x8f2 <RB_readByte>
		if (ch == 13)
    1232:	8d 30       	cpi	r24, 0x0D	; 13
    1234:	69 f4       	brne	.+26     	; 0x1250 <check_Communication_Input_UART_0+0x32>
		{
			INPUT_UART_0[cntr_UART_0] = 0;
    1236:	e0 91 67 03 	lds	r30, 0x0367	; 0x800367 <cntr_UART_0>
    123a:	f0 e0       	ldi	r31, 0x00	; 0
    123c:	e2 57       	subi	r30, 0x72	; 114
    123e:	fa 4f       	sbci	r31, 0xFA	; 250
    1240:	10 82       	st	Z, r1
			cntr_UART_0 = 0;
    1242:	c0 93 67 03 	sts	0x0367, r28	; 0x800367 <cntr_UART_0>
			cntr_End_UART_0 = 0;
    1246:	c0 93 66 03 	sts	0x0366, r28	; 0x800366 <cntr_End_UART_0>
			ret = 1;
			toggle_LED();
    124a:	e5 df       	rcall	.-54     	; 0x1216 <toggle_LED>
		if (ch == 13)
		{
			INPUT_UART_0[cntr_UART_0] = 0;
			cntr_UART_0 = 0;
			cntr_End_UART_0 = 0;
			ret = 1;
    124c:	d1 2f       	mov	r29, r17
    124e:	0c c0       	rjmp	.+24     	; 0x1268 <check_Communication_Input_UART_0+0x4a>
			toggle_LED();
		}
		else
		{
			INPUT_UART_0[cntr_UART_0]=ch;
    1250:	90 91 67 03 	lds	r25, 0x0367	; 0x800367 <cntr_UART_0>
    1254:	e9 2f       	mov	r30, r25
    1256:	f0 e0       	ldi	r31, 0x00	; 0
    1258:	e2 57       	subi	r30, 0x72	; 114
    125a:	fa 4f       	sbci	r31, 0xFA	; 250
    125c:	80 83       	st	Z, r24
			cntr_UART_0++;
    125e:	9f 5f       	subi	r25, 0xFF	; 255
    1260:	90 93 67 03 	sts	0x0367, r25	; 0x800367 <cntr_UART_0>
			ret = 0;
			toggle_LED();
    1264:	d8 df       	rcall	.-80     	; 0x1216 <toggle_LED>

char check_Communication_Input_UART_0(void)
{
	char ret = 0;
	// Check Buffer auf Einkommende Daten
	while(RB_length(&rb_rx_PC)>0)
    1266:	dc 2f       	mov	r29, r28
    1268:	8c ea       	ldi	r24, 0xAC	; 172
    126a:	9d e0       	ldi	r25, 0x0D	; 13
    126c:	36 db       	rcall	.-2452   	; 0x8da <RB_length>
    126e:	81 11       	cpse	r24, r1
    1270:	dd cf       	rjmp	.-70     	; 0x122c <check_Communication_Input_UART_0+0xe>
			ret = 0;
			toggle_LED();
		}
	}
	return ret;
}
    1272:	8d 2f       	mov	r24, r29
    1274:	df 91       	pop	r29
    1276:	cf 91       	pop	r28
    1278:	1f 91       	pop	r17
    127a:	08 95       	ret

0000127c <proceed_Communication_Input_UART_0>:

void proceed_Communication_Input_UART_0(void)
{
	unsigned char *ch0 = (unsigned char *)"Proceed UART 0: ";//************************	Start
	Uart_Transmit_IT_PC(ch0,strlen((const char*)ch0));
    127c:	60 e1       	ldi	r22, 0x10	; 16
    127e:	8b e1       	ldi	r24, 0x1B	; 27
    1280:	93 e0       	ldi	r25, 0x03	; 3
    1282:	8e dd       	rcall	.-1252   	; 0xda0 <Uart_Transmit_IT_PC>
	Uart_Transmit_IT_PC((unsigned char *)INPUT_UART_0,strlen((const char*)INPUT_UART_0));
    1284:	ee e8       	ldi	r30, 0x8E	; 142
    1286:	f5 e0       	ldi	r31, 0x05	; 5
    1288:	01 90       	ld	r0, Z+
    128a:	00 20       	and	r0, r0
    128c:	e9 f7       	brne	.-6      	; 0x1288 <proceed_Communication_Input_UART_0+0xc>
    128e:	31 97       	sbiw	r30, 0x01	; 1
    1290:	bf 01       	movw	r22, r30
    1292:	6e 58       	subi	r22, 0x8E	; 142
    1294:	75 40       	sbci	r23, 0x05	; 5
    1296:	8e e8       	ldi	r24, 0x8E	; 142
    1298:	95 e0       	ldi	r25, 0x05	; 5
    129a:	82 dd       	rcall	.-1276   	; 0xda0 <Uart_Transmit_IT_PC>
	ch0 = (unsigned char *)"\r\n";//************************	Start
	Uart_Transmit_IT_PC(ch0,strlen((const char*)ch0));
    129c:	62 e0       	ldi	r22, 0x02	; 2
    129e:	83 e1       	ldi	r24, 0x13	; 19
    12a0:	92 e0       	ldi	r25, 0x02	; 2
	
	toggle_LED();
    12a2:	7e dd       	rcall	.-1284   	; 0xda0 <Uart_Transmit_IT_PC>
    12a4:	b8 cf       	rjmp	.-144    	; 0x1216 <toggle_LED>
    12a6:	08 95       	ret

000012a8 <check_Communication_Input_UART_1>:
}

char check_Communication_Input_UART_1(void)
{
    12a8:	0f 93       	push	r16
    12aa:	1f 93       	push	r17
    12ac:	cf 93       	push	r28
    12ae:	df 93       	push	r29
	char ret = 0;
    12b0:	00 e0       	ldi	r16, 0x00	; 0
		}
		else
		{
			INPUT_UART_1[cntr_UART_1]=ch;
			cntr_UART_1++;
			ret = 0;
    12b2:	c0 e0       	ldi	r28, 0x00	; 0
			INPUT_UART_1[cntr_UART_1] = 0;
			INPUT_UART_1[cntr_UART_1-1]=0;
			INPUT_UART_1[cntr_UART_1-2]=0;
			cntr_UART_1 = 0;
			cntr_End_UART_1 = 0;
			ret = 1;
    12b4:	d1 e0       	ldi	r29, 0x01	; 1
			{
				cntr_End_UART_1++;
			}
			if (cntr_End_UART_1==1 && (INPUT_UART_1[cntr_UART_1-1] == 0xFF))
			{
				cntr_End_UART_1++;
    12b6:	12 e0       	ldi	r17, 0x02	; 2

char check_Communication_Input_UART_1(void)
{
	char ret = 0;
	
	while(RB_length(&rb_rx_Display)>0)					// UART_1
    12b8:	4c c0       	rjmp	.+152    	; 0x1352 <check_Communication_Input_UART_1+0xaa>
	{
		
		unsigned char ch = RB_readByte(&rb_rx_Display);
    12ba:	89 ea       	ldi	r24, 0xA9	; 169
    12bc:	99 e0       	ldi	r25, 0x09	; 9
    12be:	19 db       	rcall	.-2510   	; 0x8f2 <RB_readByte>

		if (ch == 0xFF)
    12c0:	8f 3f       	cpi	r24, 0xFF	; 255
    12c2:	29 f5       	brne	.+74     	; 0x130e <check_Communication_Input_UART_1+0x66>
		{
			if (cntr_End_UART_1==0)
    12c4:	90 91 64 03 	lds	r25, 0x0364	; 0x800364 <cntr_End_UART_1>
    12c8:	99 23       	and	r25, r25
    12ca:	19 f0       	breq	.+6      	; 0x12d2 <check_Communication_Input_UART_1+0x2a>
			{
				cntr_End_UART_1++;
			}
			if (cntr_End_UART_1==1 && (INPUT_UART_1[cntr_UART_1-1] == 0xFF))
    12cc:	91 30       	cpi	r25, 0x01	; 1
    12ce:	09 f0       	breq	.+2      	; 0x12d2 <check_Communication_Input_UART_1+0x2a>
    12d0:	49 c0       	rjmp	.+146    	; 0x1364 <check_Communication_Input_UART_1+0xbc>
    12d2:	e0 91 65 03 	lds	r30, 0x0365	; 0x800365 <cntr_UART_1>
    12d6:	f0 e0       	ldi	r31, 0x00	; 0
    12d8:	e6 55       	subi	r30, 0x56	; 86
    12da:	f4 4f       	sbci	r31, 0xF4	; 244
    12dc:	90 81       	ld	r25, Z
    12de:	9f 3f       	cpi	r25, 0xFF	; 255
    12e0:	09 f0       	breq	.+2      	; 0x12e4 <check_Communication_Input_UART_1+0x3c>
    12e2:	3d c0       	rjmp	.+122    	; 0x135e <check_Communication_Input_UART_1+0xb6>
			{
				cntr_End_UART_1++;
    12e4:	10 93 64 03 	sts	0x0364, r17	; 0x800364 <cntr_End_UART_1>
			}
			if (cntr_End_UART_1==1 && (INPUT_UART_1[cntr_UART_1-1] != 0xFF))
			{
				cntr_End_UART_1=0;
			}
			if (cntr_End_UART_1==2 && (INPUT_UART_1[cntr_UART_1-1] == 0xFF) && (INPUT_UART_1[cntr_UART_1-2] == 0xFF))
    12e8:	20 91 65 03 	lds	r18, 0x0365	; 0x800365 <cntr_UART_1>
    12ec:	30 e0       	ldi	r19, 0x00	; 0
    12ee:	f9 01       	movw	r30, r18
    12f0:	e6 55       	subi	r30, 0x56	; 86
    12f2:	f4 4f       	sbci	r31, 0xF4	; 244
    12f4:	90 81       	ld	r25, Z
    12f6:	9f 3f       	cpi	r25, 0xFF	; 255
    12f8:	39 f4       	brne	.+14     	; 0x1308 <check_Communication_Input_UART_1+0x60>
    12fa:	f9 01       	movw	r30, r18
    12fc:	e7 55       	subi	r30, 0x57	; 87
    12fe:	f4 4f       	sbci	r31, 0xF4	; 244
    1300:	90 81       	ld	r25, Z
    1302:	9f 3f       	cpi	r25, 0xFF	; 255
    1304:	a1 f5       	brne	.+104    	; 0x136e <check_Communication_Input_UART_1+0xc6>
    1306:	07 c0       	rjmp	.+14     	; 0x1316 <check_Communication_Input_UART_1+0x6e>
			{
				cntr_End_UART_1++;
			}
			if (cntr_End_UART_1==2 && ((INPUT_UART_1[cntr_UART_1-1] != 0xFF) || (INPUT_UART_1[cntr_UART_1-2] != 0xFF)))
			{
				cntr_End_UART_1 = 0;
    1308:	c0 93 64 03 	sts	0x0364, r28	; 0x800364 <cntr_End_UART_1>
    130c:	16 c0       	rjmp	.+44     	; 0x133a <check_Communication_Input_UART_1+0x92>
			}
		}
		if (cntr_End_UART_1 == 3)
    130e:	90 91 64 03 	lds	r25, 0x0364	; 0x800364 <cntr_End_UART_1>
    1312:	93 30       	cpi	r25, 0x03	; 3
    1314:	91 f4       	brne	.+36     	; 0x133a <check_Communication_Input_UART_1+0x92>
		{
			INPUT_UART_1[cntr_UART_1] = 0;
    1316:	e0 91 65 03 	lds	r30, 0x0365	; 0x800365 <cntr_UART_1>
    131a:	f0 e0       	ldi	r31, 0x00	; 0
    131c:	e5 55       	subi	r30, 0x55	; 85
    131e:	f4 4f       	sbci	r31, 0xF4	; 244
    1320:	10 82       	st	Z, r1
			INPUT_UART_1[cntr_UART_1-1]=0;
    1322:	df 01       	movw	r26, r30
    1324:	11 97       	sbiw	r26, 0x01	; 1
    1326:	1c 92       	st	X, r1
			INPUT_UART_1[cntr_UART_1-2]=0;
    1328:	32 97       	sbiw	r30, 0x02	; 2
    132a:	10 82       	st	Z, r1
			cntr_UART_1 = 0;
    132c:	c0 93 65 03 	sts	0x0365, r28	; 0x800365 <cntr_UART_1>
			cntr_End_UART_1 = 0;
    1330:	c0 93 64 03 	sts	0x0364, r28	; 0x800364 <cntr_End_UART_1>
			ret = 1;
			toggle_LED();
    1334:	70 df       	rcall	.-288    	; 0x1216 <toggle_LED>
			INPUT_UART_1[cntr_UART_1] = 0;
			INPUT_UART_1[cntr_UART_1-1]=0;
			INPUT_UART_1[cntr_UART_1-2]=0;
			cntr_UART_1 = 0;
			cntr_End_UART_1 = 0;
			ret = 1;
    1336:	0d 2f       	mov	r16, r29
    1338:	0c c0       	rjmp	.+24     	; 0x1352 <check_Communication_Input_UART_1+0xaa>
			toggle_LED();
		}
		else
		{
			INPUT_UART_1[cntr_UART_1]=ch;
    133a:	90 91 65 03 	lds	r25, 0x0365	; 0x800365 <cntr_UART_1>
    133e:	e9 2f       	mov	r30, r25
    1340:	f0 e0       	ldi	r31, 0x00	; 0
    1342:	e5 55       	subi	r30, 0x55	; 85
    1344:	f4 4f       	sbci	r31, 0xF4	; 244
    1346:	80 83       	st	Z, r24
			cntr_UART_1++;
    1348:	9f 5f       	subi	r25, 0xFF	; 255
    134a:	90 93 65 03 	sts	0x0365, r25	; 0x800365 <cntr_UART_1>
			ret = 0;
			toggle_LED();
    134e:	63 df       	rcall	.-314    	; 0x1216 <toggle_LED>

char check_Communication_Input_UART_1(void)
{
	char ret = 0;
	
	while(RB_length(&rb_rx_Display)>0)					// UART_1
    1350:	0c 2f       	mov	r16, r28
    1352:	89 ea       	ldi	r24, 0xA9	; 169
    1354:	99 e0       	ldi	r25, 0x09	; 9
    1356:	c1 da       	rcall	.-2686   	; 0x8da <RB_length>
    1358:	81 11       	cpse	r24, r1
    135a:	af cf       	rjmp	.-162    	; 0x12ba <check_Communication_Input_UART_1+0x12>
    135c:	11 c0       	rjmp	.+34     	; 0x1380 <check_Communication_Input_UART_1+0xd8>
			{
				cntr_End_UART_1++;
			}
			if (cntr_End_UART_1==1 && (INPUT_UART_1[cntr_UART_1-1] != 0xFF))
			{
				cntr_End_UART_1=0;
    135e:	c0 93 64 03 	sts	0x0364, r28	; 0x800364 <cntr_End_UART_1>
    1362:	d5 cf       	rjmp	.-86     	; 0x130e <check_Communication_Input_UART_1+0x66>
			}
			if (cntr_End_UART_1==2 && (INPUT_UART_1[cntr_UART_1-1] == 0xFF) && (INPUT_UART_1[cntr_UART_1-2] == 0xFF))
    1364:	90 91 64 03 	lds	r25, 0x0364	; 0x800364 <cntr_End_UART_1>
    1368:	92 30       	cpi	r25, 0x02	; 2
    136a:	89 f6       	brne	.-94     	; 0x130e <check_Communication_Input_UART_1+0x66>
    136c:	bd cf       	rjmp	.-134    	; 0x12e8 <check_Communication_Input_UART_1+0x40>
			{
				cntr_End_UART_1++;
			}
			if (cntr_End_UART_1==2 && ((INPUT_UART_1[cntr_UART_1-1] != 0xFF) || (INPUT_UART_1[cntr_UART_1-2] != 0xFF)))
    136e:	e0 91 65 03 	lds	r30, 0x0365	; 0x800365 <cntr_UART_1>
    1372:	f0 e0       	ldi	r31, 0x00	; 0
    1374:	e7 55       	subi	r30, 0x57	; 87
    1376:	f4 4f       	sbci	r31, 0xF4	; 244
    1378:	90 81       	ld	r25, Z
    137a:	9f 3f       	cpi	r25, 0xFF	; 255
    137c:	29 f6       	brne	.-118    	; 0x1308 <check_Communication_Input_UART_1+0x60>
    137e:	dd cf       	rjmp	.-70     	; 0x133a <check_Communication_Input_UART_1+0x92>
			ret = 0;
			toggle_LED();
		}
	}
	return ret;
}
    1380:	80 2f       	mov	r24, r16
    1382:	df 91       	pop	r29
    1384:	cf 91       	pop	r28
    1386:	1f 91       	pop	r17
    1388:	0f 91       	pop	r16
    138a:	08 95       	ret

0000138c <proceed_Communication_INPUT_UART_1>:

void proceed_Communication_INPUT_UART_1(void)
{
    138c:	cf 93       	push	r28
    138e:	df 93       	push	r29
	unsigned char *ch0 = (unsigned char *)"Proceed UART 1: ";//************************	Start
	Uart_Transmit_IT_PC(ch0,strlen((const char*)ch0));
    1390:	60 e1       	ldi	r22, 0x10	; 16
    1392:	8c e2       	ldi	r24, 0x2C	; 44
    1394:	93 e0       	ldi	r25, 0x03	; 3
    1396:	04 dd       	rcall	.-1528   	; 0xda0 <Uart_Transmit_IT_PC>
	Uart_Transmit_IT_PC((unsigned char *)INPUT_UART_1,strlen((const char*)INPUT_UART_1));
    1398:	cb ea       	ldi	r28, 0xAB	; 171
    139a:	db e0       	ldi	r29, 0x0B	; 11
    139c:	fe 01       	movw	r30, r28
    139e:	01 90       	ld	r0, Z+
    13a0:	00 20       	and	r0, r0
    13a2:	e9 f7       	brne	.-6      	; 0x139e <proceed_Communication_INPUT_UART_1+0x12>
    13a4:	31 97       	sbiw	r30, 0x01	; 1
    13a6:	bf 01       	movw	r22, r30
    13a8:	6b 5a       	subi	r22, 0xAB	; 171
    13aa:	7b 40       	sbci	r23, 0x0B	; 11
    13ac:	ce 01       	movw	r24, r28
    13ae:	f8 dc       	rcall	.-1552   	; 0xda0 <Uart_Transmit_IT_PC>
	ch0 = (unsigned char *)"\r\n";//************************	Start
	Uart_Transmit_IT_PC(ch0,strlen((const char*)ch0));
    13b0:	62 e0       	ldi	r22, 0x02	; 2
    13b2:	83 e1       	ldi	r24, 0x13	; 19
    13b4:	92 e0       	ldi	r25, 0x02	; 2
    13b6:	f4 dc       	rcall	.-1560   	; 0xda0 <Uart_Transmit_IT_PC>

	check_command(INPUT_UART_1[0],INPUT_UART_1[1]);
    13b8:	69 81       	ldd	r22, Y+1	; 0x01
    13ba:	88 81       	ld	r24, Y
    13bc:	0e 94 e5 00 	call	0x1ca	; 0x1ca <check_command>
}
    13c0:	df 91       	pop	r29
    13c2:	cf 91       	pop	r28
    13c4:	08 95       	ret

000013c6 <check_Communication_Input_UART_2>:

char check_Communication_Input_UART_2(void)
{
    13c6:	0f 93       	push	r16
    13c8:	1f 93       	push	r17
    13ca:	cf 93       	push	r28
    13cc:	df 93       	push	r29
	char ret = 0;
    13ce:	00 e0       	ldi	r16, 0x00	; 0
		}
		else
		{
			INPUT_UART_2[cntr_UART_2]=ch;
			cntr_UART_2++;
			ret = 0;
    13d0:	c0 e0       	ldi	r28, 0x00	; 0
			INPUT_UART_2[cntr_UART_2] = 0;
			INPUT_UART_2[cntr_UART_2-1]=0;
			INPUT_UART_2[cntr_UART_2-2]=0;
			cntr_UART_2 = 0;
			cntr_End_UART_2 = 0;
			ret = 1;
    13d2:	d1 e0       	ldi	r29, 0x01	; 1
			{
				cntr_End_UART_2++;
			}
			if (cntr_End_UART_2==1 && (INPUT_UART_2[cntr_UART_2-1] == 0xFF))
			{
				cntr_End_UART_2++;
    13d4:	12 e0       	ldi	r17, 0x02	; 2
}

char check_Communication_Input_UART_2(void)
{
	char ret = 0;
	while(RB_length(&rb_rx_ESP)>0)					// UART_2
    13d6:	4c c0       	rjmp	.+152    	; 0x1470 <check_Communication_Input_UART_2+0xaa>
	{
		unsigned char ch = RB_readByte(&rb_rx_ESP);
    13d8:	88 ea       	ldi	r24, 0xA8	; 168
    13da:	98 e0       	ldi	r25, 0x08	; 8
    13dc:	8a da       	rcall	.-2796   	; 0x8f2 <RB_readByte>
		// Verbesserung oder Verschlimmbesserung: Falls cntr_UART_1 >=2 dann schauen ob die letzten drei bertragungen [cntr_UART_1], [cntr_UART_1-1], [cntr_UART_1-2] 0xFF sind
		if (ch == 0xFF)
    13de:	8f 3f       	cpi	r24, 0xFF	; 255
    13e0:	29 f5       	brne	.+74     	; 0x142c <check_Communication_Input_UART_2+0x66>
		{
			if (cntr_End_UART_2==0)
    13e2:	90 91 62 03 	lds	r25, 0x0362	; 0x800362 <cntr_End_UART_2>
    13e6:	99 23       	and	r25, r25
    13e8:	19 f0       	breq	.+6      	; 0x13f0 <check_Communication_Input_UART_2+0x2a>
			{
				cntr_End_UART_2++;
			}
			if (cntr_End_UART_2==1 && (INPUT_UART_2[cntr_UART_2-1] == 0xFF))
    13ea:	91 30       	cpi	r25, 0x01	; 1
    13ec:	09 f0       	breq	.+2      	; 0x13f0 <check_Communication_Input_UART_2+0x2a>
    13ee:	49 c0       	rjmp	.+146    	; 0x1482 <check_Communication_Input_UART_2+0xbc>
    13f0:	e0 91 63 03 	lds	r30, 0x0363	; 0x800363 <cntr_UART_2>
    13f4:	f0 e0       	ldi	r31, 0x00	; 0
    13f6:	e1 55       	subi	r30, 0x51	; 81
    13f8:	fe 4e       	sbci	r31, 0xEE	; 238
    13fa:	90 81       	ld	r25, Z
    13fc:	9f 3f       	cpi	r25, 0xFF	; 255
    13fe:	09 f0       	breq	.+2      	; 0x1402 <check_Communication_Input_UART_2+0x3c>
    1400:	3d c0       	rjmp	.+122    	; 0x147c <check_Communication_Input_UART_2+0xb6>
			{
				cntr_End_UART_2++;
    1402:	10 93 62 03 	sts	0x0362, r17	; 0x800362 <cntr_End_UART_2>
			}
			if (cntr_End_UART_2==1 && (INPUT_UART_2[cntr_UART_2-1] != 0xFF))
			{
				cntr_End_UART_2=0;
			}
			if (cntr_End_UART_2==2 && (INPUT_UART_2[cntr_UART_2-1] == 0xFF) && (INPUT_UART_2[cntr_UART_2-2] == 0xFF))
    1406:	20 91 63 03 	lds	r18, 0x0363	; 0x800363 <cntr_UART_2>
    140a:	30 e0       	ldi	r19, 0x00	; 0
    140c:	f9 01       	movw	r30, r18
    140e:	e1 55       	subi	r30, 0x51	; 81
    1410:	fe 4e       	sbci	r31, 0xEE	; 238
    1412:	90 81       	ld	r25, Z
    1414:	9f 3f       	cpi	r25, 0xFF	; 255
    1416:	39 f4       	brne	.+14     	; 0x1426 <check_Communication_Input_UART_2+0x60>
    1418:	f9 01       	movw	r30, r18
    141a:	e2 55       	subi	r30, 0x52	; 82
    141c:	fe 4e       	sbci	r31, 0xEE	; 238
    141e:	90 81       	ld	r25, Z
    1420:	9f 3f       	cpi	r25, 0xFF	; 255
    1422:	a1 f5       	brne	.+104    	; 0x148c <check_Communication_Input_UART_2+0xc6>
    1424:	07 c0       	rjmp	.+14     	; 0x1434 <check_Communication_Input_UART_2+0x6e>
			{
				cntr_End_UART_2++;
			}
			if (cntr_End_UART_2==2 && ((INPUT_UART_2[cntr_UART_2-1] != 0xFF) || (INPUT_UART_2[cntr_UART_2-2] != 0xFF)))
			{
				cntr_End_UART_2 = 0;
    1426:	c0 93 62 03 	sts	0x0362, r28	; 0x800362 <cntr_End_UART_2>
    142a:	16 c0       	rjmp	.+44     	; 0x1458 <check_Communication_Input_UART_2+0x92>
			}
		}
		if (cntr_End_UART_2 == 3)
    142c:	90 91 62 03 	lds	r25, 0x0362	; 0x800362 <cntr_End_UART_2>
    1430:	93 30       	cpi	r25, 0x03	; 3
    1432:	91 f4       	brne	.+36     	; 0x1458 <check_Communication_Input_UART_2+0x92>
		{
			INPUT_UART_2[cntr_UART_2] = 0;
    1434:	e0 91 63 03 	lds	r30, 0x0363	; 0x800363 <cntr_UART_2>
    1438:	f0 e0       	ldi	r31, 0x00	; 0
    143a:	e0 55       	subi	r30, 0x50	; 80
    143c:	fe 4e       	sbci	r31, 0xEE	; 238
    143e:	10 82       	st	Z, r1
			INPUT_UART_2[cntr_UART_2-1]=0;
    1440:	df 01       	movw	r26, r30
    1442:	11 97       	sbiw	r26, 0x01	; 1
    1444:	1c 92       	st	X, r1
			INPUT_UART_2[cntr_UART_2-2]=0;
    1446:	32 97       	sbiw	r30, 0x02	; 2
    1448:	10 82       	st	Z, r1
			cntr_UART_2 = 0;
    144a:	c0 93 63 03 	sts	0x0363, r28	; 0x800363 <cntr_UART_2>
			cntr_End_UART_2 = 0;
    144e:	c0 93 62 03 	sts	0x0362, r28	; 0x800362 <cntr_End_UART_2>
			ret = 1;
			toggle_LED();
    1452:	e1 de       	rcall	.-574    	; 0x1216 <toggle_LED>
			INPUT_UART_2[cntr_UART_2] = 0;
			INPUT_UART_2[cntr_UART_2-1]=0;
			INPUT_UART_2[cntr_UART_2-2]=0;
			cntr_UART_2 = 0;
			cntr_End_UART_2 = 0;
			ret = 1;
    1454:	0d 2f       	mov	r16, r29
    1456:	0c c0       	rjmp	.+24     	; 0x1470 <check_Communication_Input_UART_2+0xaa>
			toggle_LED();
		}
		else
		{
			INPUT_UART_2[cntr_UART_2]=ch;
    1458:	90 91 63 03 	lds	r25, 0x0363	; 0x800363 <cntr_UART_2>
    145c:	e9 2f       	mov	r30, r25
    145e:	f0 e0       	ldi	r31, 0x00	; 0
    1460:	e0 55       	subi	r30, 0x50	; 80
    1462:	fe 4e       	sbci	r31, 0xEE	; 238
    1464:	80 83       	st	Z, r24
			cntr_UART_2++;
    1466:	9f 5f       	subi	r25, 0xFF	; 255
    1468:	90 93 63 03 	sts	0x0363, r25	; 0x800363 <cntr_UART_2>
			ret = 0;
			toggle_LED();
    146c:	d4 de       	rcall	.-600    	; 0x1216 <toggle_LED>
}

char check_Communication_Input_UART_2(void)
{
	char ret = 0;
	while(RB_length(&rb_rx_ESP)>0)					// UART_2
    146e:	0c 2f       	mov	r16, r28
    1470:	88 ea       	ldi	r24, 0xA8	; 168
    1472:	98 e0       	ldi	r25, 0x08	; 8
    1474:	32 da       	rcall	.-2972   	; 0x8da <RB_length>
    1476:	81 11       	cpse	r24, r1
    1478:	af cf       	rjmp	.-162    	; 0x13d8 <check_Communication_Input_UART_2+0x12>
    147a:	11 c0       	rjmp	.+34     	; 0x149e <check_Communication_Input_UART_2+0xd8>
			{
				cntr_End_UART_2++;
			}
			if (cntr_End_UART_2==1 && (INPUT_UART_2[cntr_UART_2-1] != 0xFF))
			{
				cntr_End_UART_2=0;
    147c:	c0 93 62 03 	sts	0x0362, r28	; 0x800362 <cntr_End_UART_2>
    1480:	d5 cf       	rjmp	.-86     	; 0x142c <check_Communication_Input_UART_2+0x66>
			}
			if (cntr_End_UART_2==2 && (INPUT_UART_2[cntr_UART_2-1] == 0xFF) && (INPUT_UART_2[cntr_UART_2-2] == 0xFF))
    1482:	90 91 62 03 	lds	r25, 0x0362	; 0x800362 <cntr_End_UART_2>
    1486:	92 30       	cpi	r25, 0x02	; 2
    1488:	89 f6       	brne	.-94     	; 0x142c <check_Communication_Input_UART_2+0x66>
    148a:	bd cf       	rjmp	.-134    	; 0x1406 <check_Communication_Input_UART_2+0x40>
			{
				cntr_End_UART_2++;
			}
			if (cntr_End_UART_2==2 && ((INPUT_UART_2[cntr_UART_2-1] != 0xFF) || (INPUT_UART_2[cntr_UART_2-2] != 0xFF)))
    148c:	e0 91 63 03 	lds	r30, 0x0363	; 0x800363 <cntr_UART_2>
    1490:	f0 e0       	ldi	r31, 0x00	; 0
    1492:	e2 55       	subi	r30, 0x52	; 82
    1494:	fe 4e       	sbci	r31, 0xEE	; 238
    1496:	90 81       	ld	r25, Z
    1498:	9f 3f       	cpi	r25, 0xFF	; 255
    149a:	29 f6       	brne	.-118    	; 0x1426 <check_Communication_Input_UART_2+0x60>
    149c:	dd cf       	rjmp	.-70     	; 0x1458 <check_Communication_Input_UART_2+0x92>
			ret = 0;
			toggle_LED();
		}
	}
	return ret;
}
    149e:	80 2f       	mov	r24, r16
    14a0:	df 91       	pop	r29
    14a2:	cf 91       	pop	r28
    14a4:	1f 91       	pop	r17
    14a6:	0f 91       	pop	r16
    14a8:	08 95       	ret

000014aa <proceed_Communication_Input_UART_2>:

void proceed_Communication_Input_UART_2(void)
{
    14aa:	cf 93       	push	r28
    14ac:	df 93       	push	r29
	unsigned char *ch0 = (unsigned char *)"Proceed UART 2: ";//************************	Start
	Uart_Transmit_IT_PC(ch0,strlen((const char*)ch0));
    14ae:	60 e1       	ldi	r22, 0x10	; 16
    14b0:	8d e3       	ldi	r24, 0x3D	; 61
    14b2:	93 e0       	ldi	r25, 0x03	; 3
    14b4:	75 dc       	rcall	.-1814   	; 0xda0 <Uart_Transmit_IT_PC>
	Uart_Transmit_IT_PC((unsigned char *)INPUT_UART_2,strlen((const char*)INPUT_UART_2));
    14b6:	c0 eb       	ldi	r28, 0xB0	; 176
    14b8:	d1 e1       	ldi	r29, 0x11	; 17
    14ba:	fe 01       	movw	r30, r28
    14bc:	01 90       	ld	r0, Z+
    14be:	00 20       	and	r0, r0
    14c0:	e9 f7       	brne	.-6      	; 0x14bc <proceed_Communication_Input_UART_2+0x12>
    14c2:	31 97       	sbiw	r30, 0x01	; 1
    14c4:	bf 01       	movw	r22, r30
    14c6:	60 5b       	subi	r22, 0xB0	; 176
    14c8:	71 41       	sbci	r23, 0x11	; 17
    14ca:	ce 01       	movw	r24, r28
    14cc:	69 dc       	rcall	.-1838   	; 0xda0 <Uart_Transmit_IT_PC>
	ch0 = (unsigned char *)"\r\n";//************************	Start
	Uart_Transmit_IT_PC(ch0,strlen((const char*)ch0));
    14ce:	62 e0       	ldi	r22, 0x02	; 2
    14d0:	83 e1       	ldi	r24, 0x13	; 19
    14d2:	92 e0       	ldi	r25, 0x02	; 2
    14d4:	65 dc       	rcall	.-1846   	; 0xda0 <Uart_Transmit_IT_PC>
	
	check_command(INPUT_UART_2[0],INPUT_UART_2[1]);
    14d6:	69 81       	ldd	r22, Y+1	; 0x01
    14d8:	88 81       	ld	r24, Y
    14da:	0e 94 e5 00 	call	0x1ca	; 0x1ca <check_command>
}
    14de:	df 91       	pop	r29
    14e0:	cf 91       	pop	r28
    14e2:	08 95       	ret

000014e4 <check_Communication_Input_UART_3>:

char check_Communication_Input_UART_3(void)
{
    14e4:	0f 93       	push	r16
    14e6:	1f 93       	push	r17
    14e8:	cf 93       	push	r28
    14ea:	df 93       	push	r29
	char ret = 0;
    14ec:	00 e0       	ldi	r16, 0x00	; 0
		}
		else
		{
			INPUT_UART_3[cntr_UART_3]=ch;
			cntr_UART_3++;
			ret = 0;
    14ee:	c0 e0       	ldi	r28, 0x00	; 0
			INPUT_UART_3[cntr_UART_3] = 0;
			INPUT_UART_3[cntr_UART_3-1]=0;
			INPUT_UART_3[cntr_UART_3-2]=0;
			cntr_UART_3 = 0;
			cntr_End_UART_3 = 0;
			ret = 1;
    14f0:	d1 e0       	ldi	r29, 0x01	; 1
			{
				cntr_End_UART_3++;
			}
			if (cntr_End_UART_3==1 && (INPUT_UART_3[cntr_UART_3-1] == 0xFF))
			{
				cntr_End_UART_3++;
    14f2:	12 e0       	ldi	r17, 0x02	; 2

char check_Communication_Input_UART_3(void)
{
	char ret = 0;
	
	while(RB_length(&rb_rx_RFID)>0)
    14f4:	55 c0       	rjmp	.+170    	; 0x15a0 <check_Communication_Input_UART_3+0xbc>
	{
		
		unsigned char ch = RB_readByte(&rb_rx_RFID);
    14f6:	8f ea       	ldi	r24, 0xAF	; 175
    14f8:	90 e1       	ldi	r25, 0x10	; 16
    14fa:	fb d9       	rcall	.-3082   	; 0x8f2 <RB_readByte>

		if (ch == 0xFF)
    14fc:	8f 3f       	cpi	r24, 0xFF	; 255
    14fe:	71 f5       	brne	.+92     	; 0x155c <check_Communication_Input_UART_3+0x78>
		{
			if (cntr_End_UART_3==0)
    1500:	90 91 60 03 	lds	r25, 0x0360	; 0x800360 <__data_end>
    1504:	91 11       	cpse	r25, r1
    1506:	03 c0       	rjmp	.+6      	; 0x150e <check_Communication_Input_UART_3+0x2a>
			{
				cntr_End_UART_3++;
    1508:	d0 93 60 03 	sts	0x0360, r29	; 0x800360 <__data_end>
    150c:	03 c0       	rjmp	.+6      	; 0x1514 <check_Communication_Input_UART_3+0x30>
			}
			if (cntr_End_UART_3==1 && (INPUT_UART_3[cntr_UART_3-1] == 0xFF))
    150e:	91 30       	cpi	r25, 0x01	; 1
    1510:	09 f0       	breq	.+2      	; 0x1514 <check_Communication_Input_UART_3+0x30>
    1512:	54 c0       	rjmp	.+168    	; 0x15bc <check_Communication_Input_UART_3+0xd8>
    1514:	20 91 61 03 	lds	r18, 0x0361	; 0x800361 <cntr_UART_3>
    1518:	30 e0       	ldi	r19, 0x00	; 0
    151a:	f9 01       	movw	r30, r18
    151c:	e3 57       	subi	r30, 0x73	; 115
    151e:	f9 4f       	sbci	r31, 0xF9	; 249
    1520:	90 81       	ld	r25, Z
    1522:	9f 3f       	cpi	r25, 0xFF	; 255
    1524:	09 f0       	breq	.+2      	; 0x1528 <check_Communication_Input_UART_3+0x44>
    1526:	42 c0       	rjmp	.+132    	; 0x15ac <check_Communication_Input_UART_3+0xc8>
			{
				cntr_End_UART_3++;
    1528:	10 93 60 03 	sts	0x0360, r17	; 0x800360 <__data_end>
    152c:	03 c0       	rjmp	.+6      	; 0x1534 <check_Communication_Input_UART_3+0x50>
			}
			if (cntr_End_UART_3==1 && (INPUT_UART_3[cntr_UART_3-3] != 0xFF))
			{
				cntr_End_UART_3=0;
    152e:	c0 93 60 03 	sts	0x0360, r28	; 0x800360 <__data_end>
    1532:	14 c0       	rjmp	.+40     	; 0x155c <check_Communication_Input_UART_3+0x78>
			}
			if (cntr_End_UART_3==2 && (INPUT_UART_3[cntr_UART_3-1] == 0xFF) && (INPUT_UART_3[cntr_UART_3-2] == 0xFF))
    1534:	20 91 61 03 	lds	r18, 0x0361	; 0x800361 <cntr_UART_3>
    1538:	30 e0       	ldi	r19, 0x00	; 0
    153a:	f9 01       	movw	r30, r18
    153c:	e3 57       	subi	r30, 0x73	; 115
    153e:	f9 4f       	sbci	r31, 0xF9	; 249
    1540:	90 81       	ld	r25, Z
    1542:	9f 3f       	cpi	r25, 0xFF	; 255
    1544:	41 f4       	brne	.+16     	; 0x1556 <check_Communication_Input_UART_3+0x72>
    1546:	f9 01       	movw	r30, r18
    1548:	e4 57       	subi	r30, 0x74	; 116
    154a:	f9 4f       	sbci	r31, 0xF9	; 249
    154c:	90 81       	ld	r25, Z
    154e:	9f 3f       	cpi	r25, 0xFF	; 255
    1550:	09 f0       	breq	.+2      	; 0x1554 <check_Communication_Input_UART_3+0x70>
    1552:	3e c0       	rjmp	.+124    	; 0x15d0 <check_Communication_Input_UART_3+0xec>
    1554:	07 c0       	rjmp	.+14     	; 0x1564 <check_Communication_Input_UART_3+0x80>
			{
				cntr_End_UART_3++;
			}
			if (cntr_End_UART_3==2 && ((INPUT_UART_3[cntr_UART_3-1] != 0xFF) || (INPUT_UART_3[cntr_UART_3-2] != 0xFF)))
			{
				cntr_End_UART_3 = 0;
    1556:	c0 93 60 03 	sts	0x0360, r28	; 0x800360 <__data_end>
    155a:	16 c0       	rjmp	.+44     	; 0x1588 <check_Communication_Input_UART_3+0xa4>
			}
		}
		if (cntr_End_UART_3 == 3)
    155c:	90 91 60 03 	lds	r25, 0x0360	; 0x800360 <__data_end>
    1560:	93 30       	cpi	r25, 0x03	; 3
    1562:	91 f4       	brne	.+36     	; 0x1588 <check_Communication_Input_UART_3+0xa4>
		{
			INPUT_UART_3[cntr_UART_3] = 0;
    1564:	e0 91 61 03 	lds	r30, 0x0361	; 0x800361 <cntr_UART_3>
    1568:	f0 e0       	ldi	r31, 0x00	; 0
    156a:	e2 57       	subi	r30, 0x72	; 114
    156c:	f9 4f       	sbci	r31, 0xF9	; 249
    156e:	10 82       	st	Z, r1
			INPUT_UART_3[cntr_UART_3-1]=0;
    1570:	df 01       	movw	r26, r30
    1572:	11 97       	sbiw	r26, 0x01	; 1
    1574:	1c 92       	st	X, r1
			INPUT_UART_3[cntr_UART_3-2]=0;
    1576:	32 97       	sbiw	r30, 0x02	; 2
    1578:	10 82       	st	Z, r1
			cntr_UART_3 = 0;
    157a:	c0 93 61 03 	sts	0x0361, r28	; 0x800361 <cntr_UART_3>
			cntr_End_UART_3 = 0;
    157e:	c0 93 60 03 	sts	0x0360, r28	; 0x800360 <__data_end>
			ret = 1;
			toggle_LED();
    1582:	49 de       	rcall	.-878    	; 0x1216 <toggle_LED>
			INPUT_UART_3[cntr_UART_3] = 0;
			INPUT_UART_3[cntr_UART_3-1]=0;
			INPUT_UART_3[cntr_UART_3-2]=0;
			cntr_UART_3 = 0;
			cntr_End_UART_3 = 0;
			ret = 1;
    1584:	0d 2f       	mov	r16, r29
    1586:	0c c0       	rjmp	.+24     	; 0x15a0 <check_Communication_Input_UART_3+0xbc>
			toggle_LED();
		}
		else
		{
			INPUT_UART_3[cntr_UART_3]=ch;
    1588:	90 91 61 03 	lds	r25, 0x0361	; 0x800361 <cntr_UART_3>
    158c:	e9 2f       	mov	r30, r25
    158e:	f0 e0       	ldi	r31, 0x00	; 0
    1590:	e2 57       	subi	r30, 0x72	; 114
    1592:	f9 4f       	sbci	r31, 0xF9	; 249
    1594:	80 83       	st	Z, r24
			cntr_UART_3++;
    1596:	9f 5f       	subi	r25, 0xFF	; 255
    1598:	90 93 61 03 	sts	0x0361, r25	; 0x800361 <cntr_UART_3>
			ret = 0;
			toggle_LED();
    159c:	3c de       	rcall	.-904    	; 0x1216 <toggle_LED>

char check_Communication_Input_UART_3(void)
{
	char ret = 0;
	
	while(RB_length(&rb_rx_RFID)>0)
    159e:	0c 2f       	mov	r16, r28
    15a0:	8f ea       	ldi	r24, 0xAF	; 175
    15a2:	90 e1       	ldi	r25, 0x10	; 16
    15a4:	9a d9       	rcall	.-3276   	; 0x8da <RB_length>
    15a6:	81 11       	cpse	r24, r1
    15a8:	a6 cf       	rjmp	.-180    	; 0x14f6 <check_Communication_Input_UART_3+0x12>
    15aa:	1c c0       	rjmp	.+56     	; 0x15e4 <check_Communication_Input_UART_3+0x100>
			}
			if (cntr_End_UART_3==1 && (INPUT_UART_3[cntr_UART_3-1] == 0xFF))
			{
				cntr_End_UART_3++;
			}
			if (cntr_End_UART_3==1 && (INPUT_UART_3[cntr_UART_3-3] != 0xFF))
    15ac:	f9 01       	movw	r30, r18
    15ae:	e5 57       	subi	r30, 0x75	; 117
    15b0:	f9 4f       	sbci	r31, 0xF9	; 249
    15b2:	90 81       	ld	r25, Z
    15b4:	9f 3f       	cpi	r25, 0xFF	; 255
    15b6:	09 f0       	breq	.+2      	; 0x15ba <check_Communication_Input_UART_3+0xd6>
    15b8:	ba cf       	rjmp	.-140    	; 0x152e <check_Communication_Input_UART_3+0x4a>
    15ba:	05 c0       	rjmp	.+10     	; 0x15c6 <check_Communication_Input_UART_3+0xe2>
			{
				cntr_End_UART_3=0;
			}
			if (cntr_End_UART_3==2 && (INPUT_UART_3[cntr_UART_3-1] == 0xFF) && (INPUT_UART_3[cntr_UART_3-2] == 0xFF))
    15bc:	90 91 60 03 	lds	r25, 0x0360	; 0x800360 <__data_end>
    15c0:	92 30       	cpi	r25, 0x02	; 2
    15c2:	61 f6       	brne	.-104    	; 0x155c <check_Communication_Input_UART_3+0x78>
    15c4:	b7 cf       	rjmp	.-146    	; 0x1534 <check_Communication_Input_UART_3+0x50>
			{
				cntr_End_UART_3++;
			}
			if (cntr_End_UART_3==2 && ((INPUT_UART_3[cntr_UART_3-1] != 0xFF) || (INPUT_UART_3[cntr_UART_3-2] != 0xFF)))
    15c6:	90 91 60 03 	lds	r25, 0x0360	; 0x800360 <__data_end>
    15ca:	92 30       	cpi	r25, 0x02	; 2
    15cc:	39 f6       	brne	.-114    	; 0x155c <check_Communication_Input_UART_3+0x78>
    15ce:	c3 cf       	rjmp	.-122    	; 0x1556 <check_Communication_Input_UART_3+0x72>
    15d0:	e0 91 61 03 	lds	r30, 0x0361	; 0x800361 <cntr_UART_3>
    15d4:	f0 e0       	ldi	r31, 0x00	; 0
    15d6:	e4 57       	subi	r30, 0x74	; 116
    15d8:	f9 4f       	sbci	r31, 0xF9	; 249
    15da:	90 81       	ld	r25, Z
    15dc:	9f 3f       	cpi	r25, 0xFF	; 255
    15de:	09 f0       	breq	.+2      	; 0x15e2 <check_Communication_Input_UART_3+0xfe>
    15e0:	ba cf       	rjmp	.-140    	; 0x1556 <check_Communication_Input_UART_3+0x72>
    15e2:	d2 cf       	rjmp	.-92     	; 0x1588 <check_Communication_Input_UART_3+0xa4>
			ret = 0;
			toggle_LED();
		}
	}
	return ret;
}
    15e4:	80 2f       	mov	r24, r16
    15e6:	df 91       	pop	r29
    15e8:	cf 91       	pop	r28
    15ea:	1f 91       	pop	r17
    15ec:	0f 91       	pop	r16
    15ee:	08 95       	ret

000015f0 <proceed_Communication_Input_UART_3>:

void proceed_Communication_Input_UART_3(void)
{
    15f0:	cf 93       	push	r28
    15f2:	df 93       	push	r29
	unsigned char *ch0 = (unsigned char *)"Proceed UART 3: ";//************************	Start
	Uart_Transmit_IT_PC(ch0,strlen((const char*)ch0));
    15f4:	60 e1       	ldi	r22, 0x10	; 16
    15f6:	8e e4       	ldi	r24, 0x4E	; 78
    15f8:	93 e0       	ldi	r25, 0x03	; 3
    15fa:	d2 db       	rcall	.-2140   	; 0xda0 <Uart_Transmit_IT_PC>
	Uart_Transmit_IT_PC((unsigned char *)INPUT_UART_3,strlen((const char*)INPUT_UART_3));
    15fc:	ce e8       	ldi	r28, 0x8E	; 142
    15fe:	d6 e0       	ldi	r29, 0x06	; 6
    1600:	fe 01       	movw	r30, r28
    1602:	01 90       	ld	r0, Z+
    1604:	00 20       	and	r0, r0
    1606:	e9 f7       	brne	.-6      	; 0x1602 <proceed_Communication_Input_UART_3+0x12>
    1608:	31 97       	sbiw	r30, 0x01	; 1
    160a:	bf 01       	movw	r22, r30
    160c:	6e 58       	subi	r22, 0x8E	; 142
    160e:	76 40       	sbci	r23, 0x06	; 6
    1610:	ce 01       	movw	r24, r28
    1612:	c6 db       	rcall	.-2164   	; 0xda0 <Uart_Transmit_IT_PC>
	ch0 = (unsigned char *)"\r\n";//************************	Start
	Uart_Transmit_IT_PC(ch0,strlen((const char*)ch0));
    1614:	62 e0       	ldi	r22, 0x02	; 2
    1616:	83 e1       	ldi	r24, 0x13	; 19
    1618:	92 e0       	ldi	r25, 0x02	; 2
    161a:	c2 db       	rcall	.-2172   	; 0xda0 <Uart_Transmit_IT_PC>
	
	check_command(INPUT_UART_3[0],INPUT_UART_3[1]);
    161c:	69 81       	ldd	r22, Y+1	; 0x01
    161e:	88 81       	ld	r24, Y
    1620:	0e 94 e5 00 	call	0x1ca	; 0x1ca <check_command>
}
    1624:	df 91       	pop	r29
    1626:	cf 91       	pop	r28
    1628:	08 95       	ret

0000162a <__itoa_ncheck>:
    162a:	bb 27       	eor	r27, r27
    162c:	4a 30       	cpi	r20, 0x0A	; 10
    162e:	31 f4       	brne	.+12     	; 0x163c <__itoa_ncheck+0x12>
    1630:	99 23       	and	r25, r25
    1632:	22 f4       	brpl	.+8      	; 0x163c <__itoa_ncheck+0x12>
    1634:	bd e2       	ldi	r27, 0x2D	; 45
    1636:	90 95       	com	r25
    1638:	81 95       	neg	r24
    163a:	9f 4f       	sbci	r25, 0xFF	; 255
    163c:	01 c0       	rjmp	.+2      	; 0x1640 <__utoa_common>

0000163e <__utoa_ncheck>:
    163e:	bb 27       	eor	r27, r27

00001640 <__utoa_common>:
    1640:	fb 01       	movw	r30, r22
    1642:	55 27       	eor	r21, r21
    1644:	aa 27       	eor	r26, r26
    1646:	88 0f       	add	r24, r24
    1648:	99 1f       	adc	r25, r25
    164a:	aa 1f       	adc	r26, r26
    164c:	a4 17       	cp	r26, r20
    164e:	10 f0       	brcs	.+4      	; 0x1654 <__utoa_common+0x14>
    1650:	a4 1b       	sub	r26, r20
    1652:	83 95       	inc	r24
    1654:	50 51       	subi	r21, 0x10	; 16
    1656:	b9 f7       	brne	.-18     	; 0x1646 <__utoa_common+0x6>
    1658:	a0 5d       	subi	r26, 0xD0	; 208
    165a:	aa 33       	cpi	r26, 0x3A	; 58
    165c:	08 f0       	brcs	.+2      	; 0x1660 <__utoa_common+0x20>
    165e:	a9 5d       	subi	r26, 0xD9	; 217
    1660:	a1 93       	st	Z+, r26
    1662:	00 97       	sbiw	r24, 0x00	; 0
    1664:	79 f7       	brne	.-34     	; 0x1644 <__utoa_common+0x4>
    1666:	b1 11       	cpse	r27, r1
    1668:	b1 93       	st	Z+, r27
    166a:	11 92       	st	Z+, r1
    166c:	cb 01       	movw	r24, r22
    166e:	00 c0       	rjmp	.+0      	; 0x1670 <strrev>

00001670 <strrev>:
    1670:	dc 01       	movw	r26, r24
    1672:	fc 01       	movw	r30, r24
    1674:	67 2f       	mov	r22, r23
    1676:	71 91       	ld	r23, Z+
    1678:	77 23       	and	r23, r23
    167a:	e1 f7       	brne	.-8      	; 0x1674 <strrev+0x4>
    167c:	32 97       	sbiw	r30, 0x02	; 2
    167e:	04 c0       	rjmp	.+8      	; 0x1688 <strrev+0x18>
    1680:	7c 91       	ld	r23, X
    1682:	6d 93       	st	X+, r22
    1684:	70 83       	st	Z, r23
    1686:	62 91       	ld	r22, -Z
    1688:	ae 17       	cp	r26, r30
    168a:	bf 07       	cpc	r27, r31
    168c:	c8 f3       	brcs	.-14     	; 0x1680 <strrev+0x10>
    168e:	08 95       	ret

00001690 <_exit>:
    1690:	f8 94       	cli

00001692 <__stop_program>:
    1692:	ff cf       	rjmp	.-2      	; 0x1692 <__stop_program>
