
Mikrocontroller.elf:     file format elf32-avr

Sections:
Idx Name          Size      VMA       LMA       File off  Algn
  0 .data         00000268  00800200  00001cc4  00001d58  2**0
                  CONTENTS, ALLOC, LOAD, DATA
  1 .text         00001cc4  00000000  00000000  00000094  2**1
                  CONTENTS, ALLOC, LOAD, READONLY, CODE
  2 .bss          00000de8  00800468  00800468  00001fc0  2**0
                  ALLOC
  3 .comment      0000005c  00000000  00000000  00001fc0  2**0
                  CONTENTS, READONLY
  4 .note.gnu.avr.deviceinfo 00000040  00000000  00000000  0000201c  2**2
                  CONTENTS, READONLY
  5 .debug_aranges 00000558  00000000  00000000  0000205c  2**0
                  CONTENTS, READONLY, DEBUGGING
  6 .debug_info   0000864b  00000000  00000000  000025b4  2**0
                  CONTENTS, READONLY, DEBUGGING
  7 .debug_abbrev 00001e7a  00000000  00000000  0000abff  2**0
                  CONTENTS, READONLY, DEBUGGING
  8 .debug_line   00002e93  00000000  00000000  0000ca79  2**0
                  CONTENTS, READONLY, DEBUGGING
  9 .debug_frame  00001314  00000000  00000000  0000f90c  2**2
                  CONTENTS, READONLY, DEBUGGING
 10 .debug_str    00001858  00000000  00000000  00010c20  2**0
                  CONTENTS, READONLY, DEBUGGING
 11 .debug_loc    00006c00  00000000  00000000  00012478  2**0
                  CONTENTS, READONLY, DEBUGGING
 12 .debug_ranges 000004c8  00000000  00000000  00019078  2**0
                  CONTENTS, READONLY, DEBUGGING

Disassembly of section .text:

00000000 <__vectors>:
       0:	71 c0       	rjmp	.+226    	; 0xe4 <__ctors_end>
       2:	00 00       	nop
       4:	8f c0       	rjmp	.+286    	; 0x124 <__bad_interrupt>
       6:	00 00       	nop
       8:	8d c0       	rjmp	.+282    	; 0x124 <__bad_interrupt>
       a:	00 00       	nop
       c:	8b c0       	rjmp	.+278    	; 0x124 <__bad_interrupt>
       e:	00 00       	nop
      10:	89 c0       	rjmp	.+274    	; 0x124 <__bad_interrupt>
      12:	00 00       	nop
      14:	87 c0       	rjmp	.+270    	; 0x124 <__bad_interrupt>
      16:	00 00       	nop
      18:	85 c0       	rjmp	.+266    	; 0x124 <__bad_interrupt>
      1a:	00 00       	nop
      1c:	83 c0       	rjmp	.+262    	; 0x124 <__bad_interrupt>
      1e:	00 00       	nop
      20:	81 c0       	rjmp	.+258    	; 0x124 <__bad_interrupt>
      22:	00 00       	nop
      24:	7f c0       	rjmp	.+254    	; 0x124 <__bad_interrupt>
      26:	00 00       	nop
      28:	7d c0       	rjmp	.+250    	; 0x124 <__bad_interrupt>
      2a:	00 00       	nop
      2c:	7b c0       	rjmp	.+246    	; 0x124 <__bad_interrupt>
      2e:	00 00       	nop
      30:	79 c0       	rjmp	.+242    	; 0x124 <__bad_interrupt>
      32:	00 00       	nop
      34:	77 c0       	rjmp	.+238    	; 0x124 <__bad_interrupt>
      36:	00 00       	nop
      38:	75 c0       	rjmp	.+234    	; 0x124 <__bad_interrupt>
      3a:	00 00       	nop
      3c:	73 c0       	rjmp	.+230    	; 0x124 <__bad_interrupt>
      3e:	00 00       	nop
      40:	71 c0       	rjmp	.+226    	; 0x124 <__bad_interrupt>
      42:	00 00       	nop
      44:	6f c0       	rjmp	.+222    	; 0x124 <__bad_interrupt>
      46:	00 00       	nop
      48:	6d c0       	rjmp	.+218    	; 0x124 <__bad_interrupt>
      4a:	00 00       	nop
      4c:	6b c0       	rjmp	.+214    	; 0x124 <__bad_interrupt>
      4e:	00 00       	nop
      50:	69 c0       	rjmp	.+210    	; 0x124 <__bad_interrupt>
      52:	00 00       	nop
      54:	67 c0       	rjmp	.+206    	; 0x124 <__bad_interrupt>
      56:	00 00       	nop
      58:	65 c0       	rjmp	.+202    	; 0x124 <__bad_interrupt>
      5a:	00 00       	nop
      5c:	63 c0       	rjmp	.+198    	; 0x124 <__bad_interrupt>
      5e:	00 00       	nop
      60:	d7 c4       	rjmp	.+2478   	; 0xa10 <__vector_24>
      62:	00 00       	nop
      64:	e1 c6       	rjmp	.+3522   	; 0xe28 <__vector_25>
      66:	00 00       	nop
      68:	a2 c6       	rjmp	.+3396   	; 0xdae <__vector_26>
      6a:	00 00       	nop
      6c:	5b c0       	rjmp	.+182    	; 0x124 <__bad_interrupt>
      6e:	00 00       	nop
      70:	59 c0       	rjmp	.+178    	; 0x124 <__bad_interrupt>
      72:	00 00       	nop
      74:	57 c0       	rjmp	.+174    	; 0x124 <__bad_interrupt>
      76:	00 00       	nop
      78:	55 c0       	rjmp	.+170    	; 0x124 <__bad_interrupt>
      7a:	00 00       	nop
      7c:	53 c0       	rjmp	.+166    	; 0x124 <__bad_interrupt>
      7e:	00 00       	nop
      80:	51 c0       	rjmp	.+162    	; 0x124 <__bad_interrupt>
      82:	00 00       	nop
      84:	4f c0       	rjmp	.+158    	; 0x124 <__bad_interrupt>
      86:	00 00       	nop
      88:	4d c0       	rjmp	.+154    	; 0x124 <__bad_interrupt>
      8a:	00 00       	nop
      8c:	4b c0       	rjmp	.+150    	; 0x124 <__bad_interrupt>
      8e:	00 00       	nop
      90:	33 c7       	rjmp	.+3686   	; 0xef8 <__vector_36>
      92:	00 00       	nop
      94:	f4 c6       	rjmp	.+3560   	; 0xe7e <__vector_37>
      96:	00 00       	nop
      98:	45 c0       	rjmp	.+138    	; 0x124 <__bad_interrupt>
      9a:	00 00       	nop
      9c:	43 c0       	rjmp	.+134    	; 0x124 <__bad_interrupt>
      9e:	00 00       	nop
      a0:	41 c0       	rjmp	.+130    	; 0x124 <__bad_interrupt>
      a2:	00 00       	nop
      a4:	3f c0       	rjmp	.+126    	; 0x124 <__bad_interrupt>
      a6:	00 00       	nop
      a8:	3d c0       	rjmp	.+122    	; 0x124 <__bad_interrupt>
      aa:	00 00       	nop
      ac:	3b c0       	rjmp	.+118    	; 0x124 <__bad_interrupt>
      ae:	00 00       	nop
      b0:	39 c0       	rjmp	.+114    	; 0x124 <__bad_interrupt>
      b2:	00 00       	nop
      b4:	37 c0       	rjmp	.+110    	; 0x124 <__bad_interrupt>
      b6:	00 00       	nop
      b8:	35 c0       	rjmp	.+106    	; 0x124 <__bad_interrupt>
      ba:	00 00       	nop
      bc:	33 c0       	rjmp	.+102    	; 0x124 <__bad_interrupt>
      be:	00 00       	nop
      c0:	31 c0       	rjmp	.+98     	; 0x124 <__bad_interrupt>
      c2:	00 00       	nop
      c4:	2f c0       	rjmp	.+94     	; 0x124 <__bad_interrupt>
      c6:	00 00       	nop
      c8:	2d c0       	rjmp	.+90     	; 0x124 <__bad_interrupt>
      ca:	00 00       	nop
      cc:	7d c7       	rjmp	.+3834   	; 0xfc8 <__vector_51>
      ce:	00 00       	nop
      d0:	3e c7       	rjmp	.+3708   	; 0xf4e <__vector_52>
      d2:	00 00       	nop
      d4:	27 c0       	rjmp	.+78     	; 0x124 <__bad_interrupt>
      d6:	00 00       	nop
      d8:	25 c0       	rjmp	.+74     	; 0x124 <__bad_interrupt>
      da:	00 00       	nop
      dc:	23 c0       	rjmp	.+70     	; 0x124 <__bad_interrupt>
      de:	00 00       	nop
      e0:	21 c0       	rjmp	.+66     	; 0x124 <__bad_interrupt>
	...

000000e4 <__ctors_end>:
      e4:	11 24       	eor	r1, r1
      e6:	1f be       	out	0x3f, r1	; 63
      e8:	cf ef       	ldi	r28, 0xFF	; 255
      ea:	d1 e2       	ldi	r29, 0x21	; 33
      ec:	de bf       	out	0x3e, r29	; 62
      ee:	cd bf       	out	0x3d, r28	; 61
      f0:	00 e0       	ldi	r16, 0x00	; 0
      f2:	0c bf       	out	0x3c, r16	; 60

000000f4 <__do_copy_data>:
      f4:	14 e0       	ldi	r17, 0x04	; 4
      f6:	a0 e0       	ldi	r26, 0x00	; 0
      f8:	b2 e0       	ldi	r27, 0x02	; 2
      fa:	e4 ec       	ldi	r30, 0xC4	; 196
      fc:	fc e1       	ldi	r31, 0x1C	; 28
      fe:	00 e0       	ldi	r16, 0x00	; 0
     100:	0b bf       	out	0x3b, r16	; 59
     102:	02 c0       	rjmp	.+4      	; 0x108 <__do_copy_data+0x14>
     104:	07 90       	elpm	r0, Z+
     106:	0d 92       	st	X+, r0
     108:	a8 36       	cpi	r26, 0x68	; 104
     10a:	b1 07       	cpc	r27, r17
     10c:	d9 f7       	brne	.-10     	; 0x104 <__do_copy_data+0x10>

0000010e <__do_clear_bss>:
     10e:	22 e1       	ldi	r18, 0x12	; 18
     110:	a8 e6       	ldi	r26, 0x68	; 104
     112:	b4 e0       	ldi	r27, 0x04	; 4
     114:	01 c0       	rjmp	.+2      	; 0x118 <.do_clear_bss_start>

00000116 <.do_clear_bss_loop>:
     116:	1d 92       	st	X+, r1

00000118 <.do_clear_bss_start>:
     118:	a0 35       	cpi	r26, 0x50	; 80
     11a:	b2 07       	cpc	r27, r18
     11c:	e1 f7       	brne	.-8      	; 0x116 <.do_clear_bss_loop>
     11e:	87 d7       	rcall	.+3854   	; 0x102e <main>
     120:	0c 94 60 0e 	jmp	0x1cc0	; 0x1cc0 <_exit>

00000124 <__bad_interrupt>:
     124:	6d cf       	rjmp	.-294    	; 0x0 <__vectors>

00000126 <recvRetNumber>:
    dbSerialPrint(",");
    dbSerialPrint(temp);
    dbSerialPrintln("]");
     */
    return ret;
}
     126:	0f 93       	push	r16
     128:	1f 93       	push	r17
     12a:	cf 93       	push	r28
     12c:	df 93       	push	r29
     12e:	cd b7       	in	r28, 0x3d	; 61
     130:	de b7       	in	r29, 0x3e	; 62
     132:	28 97       	sbiw	r28, 0x08	; 8
     134:	0f b6       	in	r0, 0x3f	; 63
     136:	f8 94       	cli
     138:	de bf       	out	0x3e, r29	; 62
     13a:	0f be       	out	0x3f, r0	; 63
     13c:	cd bf       	out	0x3d, r28	; 61
     13e:	00 97       	sbiw	r24, 0x00	; 0
     140:	e1 f1       	breq	.+120    	; 0x1ba <recvRetNumber+0x94>
     142:	8c 01       	movw	r16, r24
     144:	2f ef       	ldi	r18, 0xFF	; 255
     146:	81 ee       	ldi	r24, 0xE1	; 225
     148:	94 e0       	ldi	r25, 0x04	; 4
     14a:	21 50       	subi	r18, 0x01	; 1
     14c:	80 40       	sbci	r24, 0x00	; 0
     14e:	90 40       	sbci	r25, 0x00	; 0
     150:	e1 f7       	brne	.-8      	; 0x14a <recvRetNumber+0x24>
     152:	00 c0       	rjmp	.+0      	; 0x154 <recvRetNumber+0x2e>
     154:	00 00       	nop
     156:	68 e0       	ldi	r22, 0x08	; 8
     158:	ce 01       	movw	r24, r28
     15a:	01 96       	adiw	r24, 0x01	; 1
     15c:	c8 d1       	rcall	.+912    	; 0x4ee <Serial_ReadBytes>
     15e:	88 30       	cpi	r24, 0x08	; 8
     160:	71 f5       	brne	.+92     	; 0x1be <recvRetNumber+0x98>
     162:	89 81       	ldd	r24, Y+1	; 0x01
     164:	81 37       	cpi	r24, 0x71	; 113
     166:	69 f5       	brne	.+90     	; 0x1c2 <recvRetNumber+0x9c>
     168:	8e 81       	ldd	r24, Y+6	; 0x06
     16a:	8f 3f       	cpi	r24, 0xFF	; 255
     16c:	61 f5       	brne	.+88     	; 0x1c6 <recvRetNumber+0xa0>
     16e:	8f 81       	ldd	r24, Y+7	; 0x07
     170:	8f 3f       	cpi	r24, 0xFF	; 255
     172:	59 f5       	brne	.+86     	; 0x1ca <recvRetNumber+0xa4>
     174:	88 85       	ldd	r24, Y+8	; 0x08
     176:	8f 3f       	cpi	r24, 0xFF	; 255
     178:	51 f5       	brne	.+84     	; 0x1ce <recvRetNumber+0xa8>
     17a:	2d 81       	ldd	r18, Y+5	; 0x05
     17c:	8c 81       	ldd	r24, Y+4	; 0x04
     17e:	90 e0       	ldi	r25, 0x00	; 0
     180:	a0 e0       	ldi	r26, 0x00	; 0
     182:	b0 e0       	ldi	r27, 0x00	; 0
     184:	dc 01       	movw	r26, r24
     186:	99 27       	eor	r25, r25
     188:	88 27       	eor	r24, r24
     18a:	b2 2b       	or	r27, r18
     18c:	2a 81       	ldd	r18, Y+2	; 0x02
     18e:	ac 01       	movw	r20, r24
     190:	bd 01       	movw	r22, r26
     192:	42 2b       	or	r20, r18
     194:	2b 81       	ldd	r18, Y+3	; 0x03
     196:	30 e0       	ldi	r19, 0x00	; 0
     198:	92 2f       	mov	r25, r18
     19a:	88 27       	eor	r24, r24
     19c:	09 2e       	mov	r0, r25
     19e:	00 0c       	add	r0, r0
     1a0:	aa 0b       	sbc	r26, r26
     1a2:	bb 0b       	sbc	r27, r27
     1a4:	84 2b       	or	r24, r20
     1a6:	95 2b       	or	r25, r21
     1a8:	a6 2b       	or	r26, r22
     1aa:	b7 2b       	or	r27, r23
     1ac:	f8 01       	movw	r30, r16
     1ae:	80 83       	st	Z, r24
     1b0:	91 83       	std	Z+1, r25	; 0x01
     1b2:	a2 83       	std	Z+2, r26	; 0x02
     1b4:	b3 83       	std	Z+3, r27	; 0x03
     1b6:	81 e0       	ldi	r24, 0x01	; 1
     1b8:	0b c0       	rjmp	.+22     	; 0x1d0 <recvRetNumber+0xaa>
     1ba:	80 e0       	ldi	r24, 0x00	; 0
     1bc:	09 c0       	rjmp	.+18     	; 0x1d0 <recvRetNumber+0xaa>
     1be:	80 e0       	ldi	r24, 0x00	; 0
     1c0:	07 c0       	rjmp	.+14     	; 0x1d0 <recvRetNumber+0xaa>
     1c2:	80 e0       	ldi	r24, 0x00	; 0
     1c4:	05 c0       	rjmp	.+10     	; 0x1d0 <recvRetNumber+0xaa>
     1c6:	80 e0       	ldi	r24, 0x00	; 0
     1c8:	03 c0       	rjmp	.+6      	; 0x1d0 <recvRetNumber+0xaa>
     1ca:	80 e0       	ldi	r24, 0x00	; 0
     1cc:	01 c0       	rjmp	.+2      	; 0x1d0 <recvRetNumber+0xaa>
     1ce:	80 e0       	ldi	r24, 0x00	; 0
     1d0:	28 96       	adiw	r28, 0x08	; 8
     1d2:	0f b6       	in	r0, 0x3f	; 63
     1d4:	f8 94       	cli
     1d6:	de bf       	out	0x3e, r29	; 62
     1d8:	0f be       	out	0x3f, r0	; 63
     1da:	cd bf       	out	0x3d, r28	; 61
     1dc:	df 91       	pop	r29
     1de:	cf 91       	pop	r28
     1e0:	1f 91       	pop	r17
     1e2:	0f 91       	pop	r16
     1e4:	08 95       	ret

000001e6 <recvRetCommandFinished>:
 * @retval 1 - success.
 * @retval 0 - failed. 
 *
 */
uint8_t recvRetCommandFinished()
{
     1e6:	cf 93       	push	r28
     1e8:	df 93       	push	r29
     1ea:	00 d0       	rcall	.+0      	; 0x1ec <recvRetCommandFinished+0x6>
     1ec:	1f 92       	push	r1
     1ee:	cd b7       	in	r28, 0x3d	; 61
     1f0:	de b7       	in	r29, 0x3e	; 62
    uint8_t ret = 0;
    uint8_t temp[4] = {0};
     1f2:	19 82       	std	Y+1, r1	; 0x01
     1f4:	1a 82       	std	Y+2, r1	; 0x02
     1f6:	1b 82       	std	Y+3, r1	; 0x03
     1f8:	1c 82       	std	Y+4, r1	; 0x04
    // nexSerial.set100(100);
    if (ArrayLength((char *)temp) != nexSerial_readBytes((char *)temp, ArrayLength((char *)temp)))
     1fa:	ce 01       	movw	r24, r28
     1fc:	01 96       	adiw	r24, 0x01	; 1
     1fe:	68 d3       	rcall	.+1744   	; 0x8d0 <ArrayLength>
     200:	ce 01       	movw	r24, r28
     202:	01 96       	adiw	r24, 0x01	; 1
     204:	65 d3       	rcall	.+1738   	; 0x8d0 <ArrayLength>
     206:	68 2f       	mov	r22, r24
     208:	ce 01       	movw	r24, r28
     20a:	01 96       	adiw	r24, 0x01	; 1
     20c:	70 d1       	rcall	.+736    	; 0x4ee <Serial_ReadBytes>
    {
        ret = 0;
    }

    if (temp[0] == NEX_RET_CMD_FINISHED && temp[1] == 0xFF && temp[2] == 0xFF && temp[3] == 0xFF)
     20e:	89 81       	ldd	r24, Y+1	; 0x01
     210:	81 30       	cpi	r24, 0x01	; 1
     212:	61 f4       	brne	.+24     	; 0x22c <recvRetCommandFinished+0x46>
     214:	8a 81       	ldd	r24, Y+2	; 0x02
     216:	8f 3f       	cpi	r24, 0xFF	; 255
     218:	59 f4       	brne	.+22     	; 0x230 <recvRetCommandFinished+0x4a>
     21a:	8b 81       	ldd	r24, Y+3	; 0x03
     21c:	8f 3f       	cpi	r24, 0xFF	; 255
     21e:	51 f4       	brne	.+20     	; 0x234 <recvRetCommandFinished+0x4e>
     220:	81 e0       	ldi	r24, 0x01	; 1
     222:	9c 81       	ldd	r25, Y+4	; 0x04
     224:	9f 3f       	cpi	r25, 0xFF	; 255
     226:	39 f0       	breq	.+14     	; 0x236 <recvRetCommandFinished+0x50>
     228:	80 e0       	ldi	r24, 0x00	; 0
     22a:	05 c0       	rjmp	.+10     	; 0x236 <recvRetCommandFinished+0x50>
     22c:	80 e0       	ldi	r24, 0x00	; 0
     22e:	03 c0       	rjmp	.+6      	; 0x236 <recvRetCommandFinished+0x50>
     230:	80 e0       	ldi	r24, 0x00	; 0
     232:	01 c0       	rjmp	.+2      	; 0x236 <recvRetCommandFinished+0x50>
     234:	80 e0       	ldi	r24, 0x00	; 0
    {
        dbSerialPrintln("recvRetCommandFinished err");
    }
     */
    return ret;
}
     236:	0f 90       	pop	r0
     238:	0f 90       	pop	r0
     23a:	0f 90       	pop	r0
     23c:	0f 90       	pop	r0
     23e:	df 91       	pop	r29
     240:	cf 91       	pop	r28
     242:	08 95       	ret

00000244 <sendCommand>:

void sendCommand(char *command)
{
    nexSerial_print((unsigned char *)command);
     244:	61 d1       	rcall	.+706    	; 0x508 <Serial_Print>
    nexSerial_write(0xFF);
     246:	8f ef       	ldi	r24, 0xFF	; 255
     248:	44 d1       	rcall	.+648    	; 0x4d2 <Serial_Write>
    nexSerial_write(0xFF);
     24a:	8f ef       	ldi	r24, 0xFF	; 255
     24c:	42 d1       	rcall	.+644    	; 0x4d2 <Serial_Write>
    nexSerial_write(0xFF);
     24e:	8f ef       	ldi	r24, 0xFF	; 255
     250:	40 c1       	rjmp	.+640    	; 0x4d2 <Serial_Write>
     252:	08 95       	ret

00000254 <nexInit>:
     254:	cf 93       	push	r28
{
    uint8_t ret1 = 0;
    uint8_t ret2 = 0;

    //dbSerialBegin(9600);
    nexSerial_init(9600);
     256:	60 e8       	ldi	r22, 0x80	; 128
     258:	75 e2       	ldi	r23, 0x25	; 37
     25a:	80 e0       	ldi	r24, 0x00	; 0
     25c:	90 e0       	ldi	r25, 0x00	; 0
     25e:	38 d1       	rcall	.+624    	; 0x4d0 <Serial_Init>
    sendCommand("");
     260:	86 e6       	ldi	r24, 0x66	; 102
     262:	93 e0       	ldi	r25, 0x03	; 3
     264:	ef df       	rcall	.-34     	; 0x244 <sendCommand>
    sendCommand("bkcmd=1");
     266:	84 e0       	ldi	r24, 0x04	; 4
     268:	92 e0       	ldi	r25, 0x02	; 2
    ret1 = recvRetCommandFinished();
     26a:	ec df       	rcall	.-40     	; 0x244 <sendCommand>
     26c:	bc df       	rcall	.-136    	; 0x1e6 <recvRetCommandFinished>
    sendCommand("page 0");
     26e:	c8 2f       	mov	r28, r24
     270:	8c e0       	ldi	r24, 0x0C	; 12
     272:	92 e0       	ldi	r25, 0x02	; 2
     274:	e7 df       	rcall	.-50     	; 0x244 <sendCommand>
    ret2 = recvRetCommandFinished();
     276:	b7 df       	rcall	.-146    	; 0x1e6 <recvRetCommandFinished>
     278:	cc 23       	and	r28, r28
    return ret1 && ret2;
     27a:	31 f0       	breq	.+12     	; 0x288 <nexInit+0x34>
     27c:	91 e0       	ldi	r25, 0x01	; 1
     27e:	81 11       	cpse	r24, r1
     280:	01 c0       	rjmp	.+2      	; 0x284 <nexInit+0x30>
     282:	90 e0       	ldi	r25, 0x00	; 0
     284:	89 2f       	mov	r24, r25
     286:	01 c0       	rjmp	.+2      	; 0x28a <nexInit+0x36>
     288:	80 e0       	ldi	r24, 0x00	; 0
     28a:	cf 91       	pop	r28
}
     28c:	08 95       	ret

0000028e <nexLoop>:
     28e:	bf 92       	push	r11

void nexLoop(struct NexObject *nex_listen_list[])
{
     290:	cf 92       	push	r12
     292:	df 92       	push	r13
     294:	ef 92       	push	r14
     296:	ff 92       	push	r15
     298:	0f 93       	push	r16
     29a:	1f 93       	push	r17
     29c:	cf 93       	push	r28
     29e:	df 93       	push	r29
     2a0:	6c 01       	movw	r12, r24

        if (NEX_RET_EVENT_TOUCH_HEAD == c)
        {
            if (nexSerial_available() >= 6)
            {
                __buffer[0] = c;
     2a2:	0f 2e       	mov	r0, r31
     2a4:	f8 e6       	ldi	r31, 0x68	; 104
     2a6:	ef 2e       	mov	r14, r31
     2a8:	f4 e0       	ldi	r31, 0x04	; 4
     2aa:	ff 2e       	mov	r15, r31
     2ac:	f0 2d       	mov	r31, r0
     2ae:	0f 2e       	mov	r0, r31
     2b0:	f5 e6       	ldi	r31, 0x65	; 101
     2b2:	bf 2e       	mov	r11, r31
     2b4:	f0 2d       	mov	r31, r0
     2b6:	cf e6       	ldi	r28, 0x6F	; 111
     2b8:	d4 e0       	ldi	r29, 0x04	; 4

    uint16_t i;
    uint8_t limit = 20;
    uint8_t c;

    while (nexSerial_available() > 0)
     2ba:	2a c0       	rjmp	.+84     	; 0x310 <nexLoop+0x82>
	#else
		//round up by default
		__ticks_dc = (uint32_t)(ceil(fabs(__tmp)));
	#endif

	__builtin_avr_delay_cycles(__ticks_dc);
     2bc:	8f e3       	ldi	r24, 0x3F	; 63
     2be:	9c e9       	ldi	r25, 0x9C	; 156
     2c0:	01 97       	sbiw	r24, 0x01	; 1
     2c2:	f1 f7       	brne	.-4      	; 0x2c0 <nexLoop+0x32>
     2c4:	00 c0       	rjmp	.+0      	; 0x2c6 <nexLoop+0x38>
     2c6:	00 00       	nop
    {
        nexDelay(10);
        c = nexSerial_read();
     2c8:	0a d1       	rcall	.+532    	; 0x4de <Serial_Read>

        if (NEX_RET_EVENT_TOUCH_HEAD == c)
     2ca:	85 36       	cpi	r24, 0x65	; 101
        {
            if (nexSerial_available() >= 6)
     2cc:	09 f5       	brne	.+66     	; 0x310 <nexLoop+0x82>
     2ce:	0b d1       	rcall	.+534    	; 0x4e6 <Serial_Available>
     2d0:	86 30       	cpi	r24, 0x06	; 6
     2d2:	f0 f0       	brcs	.+60     	; 0x310 <nexLoop+0x82>
            {
                __buffer[0] = c;
     2d4:	f7 01       	movw	r30, r14
     2d6:	b0 82       	st	Z, r11
     2d8:	09 e6       	ldi	r16, 0x69	; 105
                for (i = 1; i < 7; i++)
                {
                    __buffer[i] = nexSerial_read();
     2da:	14 e0       	ldi	r17, 0x04	; 4
     2dc:	00 d1       	rcall	.+512    	; 0x4de <Serial_Read>
     2de:	f8 01       	movw	r30, r16
     2e0:	81 93       	st	Z+, r24
     2e2:	8f 01       	movw	r16, r30
        if (NEX_RET_EVENT_TOUCH_HEAD == c)
        {
            if (nexSerial_available() >= 6)
            {
                __buffer[0] = c;
                for (i = 1; i < 7; i++)
     2e4:	ec 17       	cp	r30, r28
     2e6:	fd 07       	cpc	r31, r29
     2e8:	c9 f7       	brne	.-14     	; 0x2dc <nexLoop+0x4e>
                {
                    __buffer[i] = nexSerial_read();
                }
                __buffer[i] = 0x00;
     2ea:	f7 01       	movw	r30, r14
     2ec:	17 82       	std	Z+7, r1	; 0x07
				
                if (0xFF == __buffer[4] && 0xFF == __buffer[5] && 0xFF == __buffer[6])
     2ee:	84 81       	ldd	r24, Z+4	; 0x04
     2f0:	8f 3f       	cpi	r24, 0xFF	; 255
     2f2:	71 f4       	brne	.+28     	; 0x310 <nexLoop+0x82>
     2f4:	85 81       	ldd	r24, Z+5	; 0x05
     2f6:	8f 3f       	cpi	r24, 0xFF	; 255
     2f8:	59 f4       	brne	.+22     	; 0x310 <nexLoop+0x82>
     2fa:	86 81       	ldd	r24, Z+6	; 0x06
     2fc:	8f 3f       	cpi	r24, 0xFF	; 255
     2fe:	41 f4       	brne	.+16     	; 0x310 <nexLoop+0x82>
                {
                    NexTouch_iterate(nex_listen_list, __buffer[1], __buffer[2], (int32_t)__buffer[3]);
     300:	03 81       	ldd	r16, Z+3	; 0x03
     302:	10 e0       	ldi	r17, 0x00	; 0
     304:	20 e0       	ldi	r18, 0x00	; 0
     306:	30 e0       	ldi	r19, 0x00	; 0
     308:	42 81       	ldd	r20, Z+2	; 0x02
     30a:	61 81       	ldd	r22, Z+1	; 0x01
     30c:	c6 01       	movw	r24, r12

    uint16_t i;
    uint8_t limit = 20;
    uint8_t c;

    while (nexSerial_available() > 0)
     30e:	a6 d0       	rcall	.+332    	; 0x45c <NexTouch_iterate>
     310:	ea d0       	rcall	.+468    	; 0x4e6 <Serial_Available>
     312:	81 11       	cpse	r24, r1
     314:	d3 cf       	rjmp	.-90     	; 0x2bc <nexLoop+0x2e>
                    NexTouch_iterate(nex_listen_list, __buffer[1], __buffer[2], (int32_t)__buffer[3]);
                }
            }
        }
    }
     316:	df 91       	pop	r29
     318:	cf 91       	pop	r28
     31a:	1f 91       	pop	r17
     31c:	0f 91       	pop	r16
     31e:	ff 90       	pop	r15
     320:	ef 90       	pop	r14
     322:	df 90       	pop	r13
     324:	cf 90       	pop	r12
     326:	bf 90       	pop	r11
     328:	08 95       	ret

0000032a <NexSlider_getValue>:

extern char buf[12];
extern char cmd[64];

uint8_t NexSlider_getValue(struct NexObject *slider, uint32_t *number)
{
     32a:	ef 92       	push	r14
     32c:	ff 92       	push	r15
     32e:	0f 93       	push	r16
     330:	1f 93       	push	r17
     332:	cf 93       	push	r28
     334:	df 93       	push	r29
     336:	7c 01       	movw	r14, r24
     338:	8b 01       	movw	r16, r22
    ClearString(cmd);
     33a:	c8 ec       	ldi	r28, 0xC8	; 200
     33c:	d4 e0       	ldi	r29, 0x04	; 4
     33e:	fe 01       	movw	r30, r28
     340:	01 90       	ld	r0, Z+
     342:	00 20       	and	r0, r0
     344:	e9 f7       	brne	.-6      	; 0x340 <NexSlider_getValue+0x16>
     346:	31 97       	sbiw	r30, 0x01	; 1
     348:	af 01       	movw	r20, r30
     34a:	48 5c       	subi	r20, 0xC8	; 200
     34c:	54 40       	sbci	r21, 0x04	; 4
     34e:	60 e0       	ldi	r22, 0x00	; 0
     350:	70 e0       	ldi	r23, 0x00	; 0
     352:	ce 01       	movw	r24, r28
     354:	0e 94 40 0b 	call	0x1680	; 0x1680 <memset>
    strcat(cmd, "get ");
     358:	de 01       	movw	r26, r28
     35a:	0d 90       	ld	r0, X+
     35c:	00 20       	and	r0, r0
     35e:	e9 f7       	brne	.-6      	; 0x35a <NexSlider_getValue+0x30>
     360:	11 97       	sbiw	r26, 0x01	; 1
     362:	85 e0       	ldi	r24, 0x05	; 5
     364:	e3 e1       	ldi	r30, 0x13	; 19
     366:	f2 e0       	ldi	r31, 0x02	; 2
     368:	01 90       	ld	r0, Z+
     36a:	0d 92       	st	X+, r0
     36c:	8a 95       	dec	r24
     36e:	e1 f7       	brne	.-8      	; 0x368 <NexSlider_getValue+0x3e>
    strcat(cmd, slider->__name);
     370:	b7 01       	movw	r22, r14
     372:	6e 5f       	subi	r22, 0xFE	; 254
     374:	7f 4f       	sbci	r23, 0xFF	; 255
     376:	ce 01       	movw	r24, r28
     378:	0e 94 47 0b 	call	0x168e	; 0x168e <strcat>
    strcat(cmd, ".val");
     37c:	de 01       	movw	r26, r28
     37e:	0d 90       	ld	r0, X+
     380:	00 20       	and	r0, r0
     382:	e9 f7       	brne	.-6      	; 0x37e <NexSlider_getValue+0x54>
     384:	11 97       	sbiw	r26, 0x01	; 1
     386:	85 e0       	ldi	r24, 0x05	; 5
     388:	e8 e1       	ldi	r30, 0x18	; 24
     38a:	f2 e0       	ldi	r31, 0x02	; 2
     38c:	01 90       	ld	r0, Z+
     38e:	0d 92       	st	X+, r0
     390:	8a 95       	dec	r24
     392:	e1 f7       	brne	.-8      	; 0x38c <NexSlider_getValue+0x62>
    sendCommand(cmd);
     394:	ce 01       	movw	r24, r28
     396:	56 df       	rcall	.-340    	; 0x244 <sendCommand>
    return recvRetNumber(number);
     398:	c8 01       	movw	r24, r16
     39a:	c5 de       	rcall	.-630    	; 0x126 <recvRetNumber>
}
     39c:	df 91       	pop	r29
     39e:	cf 91       	pop	r28
     3a0:	1f 91       	pop	r17
     3a2:	0f 91       	pop	r16
     3a4:	ff 90       	pop	r15
     3a6:	ef 90       	pop	r14
     3a8:	08 95       	ret

000003aa <NexSlider_setValue>:

uint8_t NexSlider_setValue(struct NexObject *slider, uint32_t number)
{
     3aa:	cf 92       	push	r12
     3ac:	df 92       	push	r13
     3ae:	ef 92       	push	r14
     3b0:	ff 92       	push	r15
     3b2:	0f 93       	push	r16
     3b4:	1f 93       	push	r17
     3b6:	cf 93       	push	r28
     3b8:	df 93       	push	r29
     3ba:	8c 01       	movw	r16, r24
     3bc:	6a 01       	movw	r12, r20
     3be:	7b 01       	movw	r14, r22
    ClearString(buf);
     3c0:	ec eb       	ldi	r30, 0xBC	; 188
     3c2:	f4 e0       	ldi	r31, 0x04	; 4
     3c4:	01 90       	ld	r0, Z+
     3c6:	00 20       	and	r0, r0
     3c8:	e9 f7       	brne	.-6      	; 0x3c4 <NexSlider_setValue+0x1a>
     3ca:	31 97       	sbiw	r30, 0x01	; 1
     3cc:	af 01       	movw	r20, r30
     3ce:	4c 5b       	subi	r20, 0xBC	; 188
     3d0:	54 40       	sbci	r21, 0x04	; 4
     3d2:	60 e0       	ldi	r22, 0x00	; 0
     3d4:	70 e0       	ldi	r23, 0x00	; 0
     3d6:	8c eb       	ldi	r24, 0xBC	; 188
     3d8:	94 e0       	ldi	r25, 0x04	; 4
     3da:	0e 94 40 0b 	call	0x1680	; 0x1680 <memset>
    ClearString(cmd);
     3de:	c8 ec       	ldi	r28, 0xC8	; 200
     3e0:	d4 e0       	ldi	r29, 0x04	; 4
     3e2:	fe 01       	movw	r30, r28
     3e4:	01 90       	ld	r0, Z+
     3e6:	00 20       	and	r0, r0
     3e8:	e9 f7       	brne	.-6      	; 0x3e4 <NexSlider_setValue+0x3a>
     3ea:	31 97       	sbiw	r30, 0x01	; 1
     3ec:	af 01       	movw	r20, r30
     3ee:	48 5c       	subi	r20, 0xC8	; 200
     3f0:	54 40       	sbci	r21, 0x04	; 4
     3f2:	60 e0       	ldi	r22, 0x00	; 0
     3f4:	70 e0       	ldi	r23, 0x00	; 0
     3f6:	ce 01       	movw	r24, r28
     3f8:	0e 94 40 0b 	call	0x1680	; 0x1680 <memset>

    my_utoa(buf, number, 10);
     3fc:	2a e0       	ldi	r18, 0x0A	; 10
     3fe:	30 e0       	ldi	r19, 0x00	; 0
     400:	b7 01       	movw	r22, r14
     402:	a6 01       	movw	r20, r12
     404:	8c eb       	ldi	r24, 0xBC	; 188
     406:	94 e0       	ldi	r25, 0x04	; 4
     408:	37 d2       	rcall	.+1134   	; 0x878 <my_utoa>
    strcat(cmd, slider->__name);
     40a:	b8 01       	movw	r22, r16
     40c:	6e 5f       	subi	r22, 0xFE	; 254
     40e:	7f 4f       	sbci	r23, 0xFF	; 255
     410:	ce 01       	movw	r24, r28
     412:	0e 94 47 0b 	call	0x168e	; 0x168e <strcat>
    strcat(cmd, ".val=");
     416:	de 01       	movw	r26, r28
     418:	0d 90       	ld	r0, X+
     41a:	00 20       	and	r0, r0
     41c:	e9 f7       	brne	.-6      	; 0x418 <__LOCK_REGION_LENGTH__+0x18>
     41e:	11 97       	sbiw	r26, 0x01	; 1
     420:	86 e0       	ldi	r24, 0x06	; 6
     422:	ed e1       	ldi	r30, 0x1D	; 29
     424:	f2 e0       	ldi	r31, 0x02	; 2
     426:	01 90       	ld	r0, Z+
     428:	0d 92       	st	X+, r0
     42a:	8a 95       	dec	r24
     42c:	e1 f7       	brne	.-8      	; 0x426 <__LOCK_REGION_LENGTH__+0x26>
    strcat(cmd, buf);
     42e:	6c eb       	ldi	r22, 0xBC	; 188
     430:	74 e0       	ldi	r23, 0x04	; 4
     432:	ce 01       	movw	r24, r28
     434:	0e 94 47 0b 	call	0x168e	; 0x168e <strcat>

    sendCommand(cmd);
     438:	ce 01       	movw	r24, r28
    return recvRetCommandFinished();
     43a:	04 df       	rcall	.-504    	; 0x244 <sendCommand>
     43c:	d4 de       	rcall	.-600    	; 0x1e6 <recvRetCommandFinished>
}
     43e:	df 91       	pop	r29
     440:	cf 91       	pop	r28
     442:	1f 91       	pop	r17
     444:	0f 91       	pop	r16
     446:	ff 90       	pop	r15
     448:	ef 90       	pop	r14
     44a:	df 90       	pop	r13
     44c:	cf 90       	pop	r12
     44e:	08 95       	ret

00000450 <NexTouch_attachPop>:

void NexTouch_pop(struct NexObject *touch)
{
    if (touch->__cb_pop)
    {
        touch->__cb_pop(__cbpop_ptr);
     450:	fc 01       	movw	r30, r24
     452:	77 8b       	std	Z+23, r23	; 0x17
     454:	66 8b       	std	Z+22, r22	; 0x16
     456:	51 8f       	std	Z+25, r21	; 0x19
     458:	40 8f       	std	Z+24, r20	; 0x18
     45a:	08 95       	ret

0000045c <NexTouch_iterate>:
    }
}

void NexTouch_iterate(struct NexObject **list, uint8_t pid, uint8_t cid, int32_t event)
{
     45c:	0f 93       	push	r16
     45e:	1f 93       	push	r17
    struct NexObject *e = 0;
    uint16_t i = 0;

    if (0 == list)
     460:	00 97       	sbiw	r24, 0x00	; 0
     462:	99 f1       	breq	.+102    	; 0x4ca <NexTouch_iterate+0x6e>
    {
        return;
    }

    for (i = 0; (e = list[i]) != 0; i++)
     464:	fc 01       	movw	r30, r24
     466:	a0 81       	ld	r26, Z
     468:	b1 81       	ldd	r27, Z+1	; 0x01
     46a:	10 97       	sbiw	r26, 0x00	; 0
     46c:	71 f1       	breq	.+92     	; 0x4ca <NexTouch_iterate+0x6e>
     46e:	32 96       	adiw	r30, 0x02	; 2
    {
        if (e->__pid == pid && e->__cid == cid)
     470:	8c 91       	ld	r24, X
     472:	86 13       	cpse	r24, r22
     474:	26 c0       	rjmp	.+76     	; 0x4c2 <NexTouch_iterate+0x66>
     476:	11 96       	adiw	r26, 0x01	; 1
     478:	8c 91       	ld	r24, X
     47a:	11 97       	sbiw	r26, 0x01	; 1
     47c:	84 13       	cpse	r24, r20
     47e:	21 c0       	rjmp	.+66     	; 0x4c2 <NexTouch_iterate+0x66>
        {
            //e->printObjInfo();
            if (NEX_EVENT_PUSH == event)
     480:	01 30       	cpi	r16, 0x01	; 1
     482:	11 05       	cpc	r17, r1
     484:	21 05       	cpc	r18, r1
     486:	31 05       	cpc	r19, r1
     488:	61 f4       	brne	.+24     	; 0x4a2 <NexTouch_iterate+0x46>
            {

                if (e->__cb_push)
     48a:	52 96       	adiw	r26, 0x12	; 18
     48c:	ed 91       	ld	r30, X+
     48e:	fc 91       	ld	r31, X
     490:	53 97       	sbiw	r26, 0x13	; 19
     492:	30 97       	sbiw	r30, 0x00	; 0
     494:	d1 f0       	breq	.+52     	; 0x4ca <NexTouch_iterate+0x6e>
                {
                    e->__cb_push(e->__cbpush_ptr);
     496:	54 96       	adiw	r26, 0x14	; 20
     498:	8d 91       	ld	r24, X+
     49a:	9c 91       	ld	r25, X
     49c:	55 97       	sbiw	r26, 0x15	; 21
     49e:	19 95       	eicall
     4a0:	14 c0       	rjmp	.+40     	; 0x4ca <NexTouch_iterate+0x6e>
                }
            }
            else if (NEX_EVENT_POP == event)
     4a2:	01 2b       	or	r16, r17
     4a4:	02 2b       	or	r16, r18
     4a6:	03 2b       	or	r16, r19
     4a8:	81 f4       	brne	.+32     	; 0x4ca <NexTouch_iterate+0x6e>
            {
                if (e->__cb_pop)
     4aa:	56 96       	adiw	r26, 0x16	; 22
     4ac:	ed 91       	ld	r30, X+
     4ae:	fc 91       	ld	r31, X
     4b0:	57 97       	sbiw	r26, 0x17	; 23
     4b2:	30 97       	sbiw	r30, 0x00	; 0
     4b4:	51 f0       	breq	.+20     	; 0x4ca <NexTouch_iterate+0x6e>
                {
                    e->__cb_pop(e->__cbpop_ptr);
     4b6:	58 96       	adiw	r26, 0x18	; 24
     4b8:	8d 91       	ld	r24, X+
     4ba:	9c 91       	ld	r25, X
     4bc:	59 97       	sbiw	r26, 0x19	; 25
     4be:	19 95       	eicall
     4c0:	04 c0       	rjmp	.+8      	; 0x4ca <NexTouch_iterate+0x6e>
    if (0 == list)
    {
        return;
    }

    for (i = 0; (e = list[i]) != 0; i++)
     4c2:	a1 91       	ld	r26, Z+
     4c4:	b1 91       	ld	r27, Z+
     4c6:	10 97       	sbiw	r26, 0x00	; 0
     4c8:	99 f6       	brne	.-90     	; 0x470 <NexTouch_iterate+0x14>
            }

            break;
        }
    }
     4ca:	1f 91       	pop	r17
     4cc:	0f 91       	pop	r16
     4ce:	08 95       	ret

000004d0 <Serial_Init>:
#include "../util/Display_Utilities.h"
#include "../../UART/UART.h"			// Benutzerspezifische Schnittstelle
#include <avr/interrupt.h>

void Serial_Init(long baudrate)
{
     4d0:	08 95       	ret

000004d2 <Serial_Write>:
// 	UART_init();
}

unsigned char Serial_Write(unsigned char c)
{
	RB_writeByte(&rb_tx_ESP,c);
     4d2:	68 2f       	mov	r22, r24
     4d4:	8a e4       	ldi	r24, 0x4A	; 74
     4d6:	9e e0       	ldi	r25, 0x0E	; 14
     4d8:	2c d2       	rcall	.+1112   	; 0x932 <RB_writeByte>
	return 1;
}
     4da:	81 e0       	ldi	r24, 0x01	; 1
     4dc:	08 95       	ret

000004de <Serial_Read>:

unsigned char Serial_Read()
{
	unsigned char ch = RB_readByte(&rb_rx_ESP);
     4de:	86 e4       	ldi	r24, 0x46	; 70
     4e0:	99 e0       	ldi	r25, 0x09	; 9
     4e2:	13 c2       	rjmp	.+1062   	; 0x90a <RB_readByte>
	return ch;
}
     4e4:	08 95       	ret

000004e6 <Serial_Available>:

unsigned char Serial_Available()
{
	return RB_length(&rb_rx_ESP);
     4e6:	86 e4       	ldi	r24, 0x46	; 70
     4e8:	99 e0       	ldi	r25, 0x09	; 9
     4ea:	03 c2       	rjmp	.+1030   	; 0x8f2 <RB_length>
}
     4ec:	08 95       	ret

000004ee <Serial_ReadBytes>:

unsigned char Serial_ReadBytes(char *buf, unsigned char len)
{
     4ee:	cf 93       	push	r28
     4f0:	c6 2f       	mov	r28, r22
    unsigned char cnt = 0;
    if (len < RB_length(&rb_rx_ESP))
     4f2:	86 e4       	ldi	r24, 0x46	; 70
     4f4:	99 e0       	ldi	r25, 0x09	; 9
     4f6:	fd d1       	rcall	.+1018   	; 0x8f2 <RB_length>
     4f8:	c8 17       	cp	r28, r24
     4fa:	18 f0       	brcs	.+6      	; 0x502 <Serial_ReadBytes+0x14>
    {
// 	    ArrayCopy(buf, &rb_rx_ESP[&rb_rx_ESP->tail], len);
// 	    rb_rx_ESP.tail += len;
// 	    cnt = len;
    }
    else if (len == RB_length(&rb_rx_ESP))
     4fc:	86 e4       	ldi	r24, 0x46	; 70
     4fe:	99 e0       	ldi	r25, 0x09	; 9
     500:	f8 d1       	rcall	.+1008   	; 0x8f2 <RB_length>
// 	    cnt = RB_length(&rb_rx_ESP);
// 	    rb_rx_ESP->tail = 0;
// 	    rb_rx_ESP.head = 0;
    }
    return cnt;
}
     502:	80 e0       	ldi	r24, 0x00	; 0
     504:	cf 91       	pop	r28
     506:	08 95       	ret

00000508 <Serial_Print>:

void Serial_Print(unsigned char *txt)
{
     508:	08 95       	ret

0000050a <endConversation>:
	}
}


void endConversation(char UART_PORT)
{
     50a:	cf 93       	push	r28
     50c:	df 93       	push	r29
     50e:	00 d0       	rcall	.+0      	; 0x510 <endConversation+0x6>
     510:	cd b7       	in	r28, 0x3d	; 61
     512:	de b7       	in	r29, 0x3e	; 62
	unsigned char ch2 [3]= {255,255,255};
     514:	9f ef       	ldi	r25, 0xFF	; 255
     516:	99 83       	std	Y+1, r25	; 0x01
     518:	9a 83       	std	Y+2, r25	; 0x02
     51a:	9b 83       	std	Y+3, r25	; 0x03
	if (UART_PORT == 0)
     51c:	81 11       	cpse	r24, r1
     51e:	05 c0       	rjmp	.+10     	; 0x52a <endConversation+0x20>
	{
		Uart_Transmit_IT_PC((unsigned char *)ch2,3);
     520:	63 e0       	ldi	r22, 0x03	; 3
     522:	ce 01       	movw	r24, r28
     524:	01 96       	adiw	r24, 0x01	; 1
     526:	22 d4       	rcall	.+2116   	; 0xd6c <Uart_Transmit_IT_PC>
     528:	0d c0       	rjmp	.+26     	; 0x544 <endConversation+0x3a>
	}
	
	if (UART_PORT == 1)
     52a:	81 30       	cpi	r24, 0x01	; 1
     52c:	29 f4       	brne	.+10     	; 0x538 <endConversation+0x2e>
	{
		Uart_Transmit_IT_Display((unsigned char *)ch2,3);
     52e:	63 e0       	ldi	r22, 0x03	; 3
     530:	ce 01       	movw	r24, r28
     532:	01 96       	adiw	r24, 0x01	; 1
     534:	26 d4       	rcall	.+2124   	; 0xd82 <Uart_Transmit_IT_Display>
     536:	06 c0       	rjmp	.+12     	; 0x544 <endConversation+0x3a>
	}
	
	if (UART_PORT == 2)
     538:	82 30       	cpi	r24, 0x02	; 2
     53a:	21 f4       	brne	.+8      	; 0x544 <endConversation+0x3a>
	{
		Uart_Transmit_IT_ESP((unsigned char *)ch2,3);
     53c:	63 e0       	ldi	r22, 0x03	; 3
     53e:	ce 01       	movw	r24, r28
     540:	01 96       	adiw	r24, 0x01	; 1
     542:	2a d4       	rcall	.+2132   	; 0xd98 <Uart_Transmit_IT_ESP>
     544:	8f e1       	ldi	r24, 0x1F	; 31
     546:	9e e4       	ldi	r25, 0x4E	; 78
     548:	01 97       	sbiw	r24, 0x01	; 1
     54a:	f1 f7       	brne	.-4      	; 0x548 <endConversation+0x3e>
     54c:	00 c0       	rjmp	.+0      	; 0x54e <endConversation+0x44>
     54e:	00 00       	nop
	}
	_delay_ms(5);
     550:	0f 90       	pop	r0
     552:	0f 90       	pop	r0
     554:	0f 90       	pop	r0
     556:	df 91       	pop	r29
     558:	cf 91       	pop	r28
     55a:	08 95       	ret

0000055c <nextion_change_page>:
 */ 

#include "Nextion_Display.h"

void nextion_change_page(unsigned char * page)
{
     55c:	cf 93       	push	r28
     55e:	df 93       	push	r29
     560:	ec 01       	movw	r28, r24
	unsigned char * ch1 = (unsigned char *) "page ";
	unsigned char * ch2 = page;

	Uart_Transmit_IT_ESP(ch1,strlen((const char*)ch1));
     562:	65 e0       	ldi	r22, 0x05	; 5
     564:	86 e7       	ldi	r24, 0x76	; 118
     566:	92 e0       	ldi	r25, 0x02	; 2
     568:	17 d4       	rcall	.+2094   	; 0xd98 <Uart_Transmit_IT_ESP>
	Uart_Transmit_IT_ESP(ch2,strlen((const char*)ch2));
     56a:	fe 01       	movw	r30, r28
     56c:	01 90       	ld	r0, Z+
     56e:	00 20       	and	r0, r0
     570:	e9 f7       	brne	.-6      	; 0x56c <nextion_change_page+0x10>
     572:	31 97       	sbiw	r30, 0x01	; 1
     574:	bf 01       	movw	r22, r30
     576:	6c 1b       	sub	r22, r28
     578:	7d 0b       	sbc	r23, r29
     57a:	ce 01       	movw	r24, r28
     57c:	0d d4       	rcall	.+2074   	; 0xd98 <Uart_Transmit_IT_ESP>
	endConversation(2);
     57e:	82 e0       	ldi	r24, 0x02	; 2
     580:	c4 df       	rcall	.-120    	; 0x50a <endConversation>
     582:	65 e0       	ldi	r22, 0x05	; 5

	Uart_Transmit_IT_PC(ch1,strlen((const char*)ch1));
     584:	86 e7       	ldi	r24, 0x76	; 118
     586:	92 e0       	ldi	r25, 0x02	; 2
     588:	f1 d3       	rcall	.+2018   	; 0xd6c <Uart_Transmit_IT_PC>
     58a:	fe 01       	movw	r30, r28
	Uart_Transmit_IT_PC(ch2,strlen((const char*)ch2));
     58c:	01 90       	ld	r0, Z+
     58e:	00 20       	and	r0, r0
     590:	e9 f7       	brne	.-6      	; 0x58c <nextion_change_page+0x30>
     592:	31 97       	sbiw	r30, 0x01	; 1
     594:	bf 01       	movw	r22, r30
     596:	6c 1b       	sub	r22, r28
     598:	7d 0b       	sbc	r23, r29
     59a:	ce 01       	movw	r24, r28
     59c:	e7 d3       	rcall	.+1998   	; 0xd6c <Uart_Transmit_IT_PC>
	Uart_Transmit_IT_PC((unsigned char *)"\r\n",strlen((const char*)"\r\n"));
     59e:	62 e0       	ldi	r22, 0x02	; 2
     5a0:	84 e6       	ldi	r24, 0x64	; 100
     5a2:	93 e0       	ldi	r25, 0x03	; 3
     5a4:	e3 d3       	rcall	.+1990   	; 0xd6c <Uart_Transmit_IT_PC>
     5a6:	df 91       	pop	r29
}
     5a8:	cf 91       	pop	r28
     5aa:	08 95       	ret

000005ac <nextion_setText>:
     5ac:	cf 93       	push	r28

void nextion_setText(unsigned char * object, unsigned char * text, char UART_PORT)
{
     5ae:	df 93       	push	r29
     5b0:	eb 01       	movw	r28, r22
	const char * ch2 = (const char *) ".txt=";
	const char * ch3 = (const char *) "\"";
	const char * ch4 = (const char *) text;
	const char * ch5 = (const char *) "\"";

	if(UART_PORT==0)
     5b2:	41 11       	cpse	r20, r1
     5b4:	22 c0       	rjmp	.+68     	; 0x5fa <nextion_setText+0x4e>
	{
		Uart_Transmit_IT_PC((unsigned char *)ch1,(unsigned char)strlen((const char *)ch1));
     5b6:	fc 01       	movw	r30, r24
     5b8:	01 90       	ld	r0, Z+
     5ba:	00 20       	and	r0, r0
     5bc:	e9 f7       	brne	.-6      	; 0x5b8 <nextion_setText+0xc>
     5be:	31 97       	sbiw	r30, 0x01	; 1
     5c0:	bf 01       	movw	r22, r30
     5c2:	68 1b       	sub	r22, r24
     5c4:	79 0b       	sbc	r23, r25
     5c6:	d2 d3       	rcall	.+1956   	; 0xd6c <Uart_Transmit_IT_PC>
		Uart_Transmit_IT_PC((unsigned char *)ch2,(unsigned char)strlen((const char *)ch2));
     5c8:	65 e0       	ldi	r22, 0x05	; 5
     5ca:	8c e7       	ldi	r24, 0x7C	; 124
     5cc:	92 e0       	ldi	r25, 0x02	; 2
     5ce:	ce d3       	rcall	.+1948   	; 0xd6c <Uart_Transmit_IT_PC>
		Uart_Transmit_IT_PC((unsigned char *)ch3,(unsigned char)strlen((const char *)ch3));
     5d0:	61 e0       	ldi	r22, 0x01	; 1
     5d2:	82 e8       	ldi	r24, 0x82	; 130
     5d4:	92 e0       	ldi	r25, 0x02	; 2
     5d6:	ca d3       	rcall	.+1940   	; 0xd6c <Uart_Transmit_IT_PC>
		Uart_Transmit_IT_PC((unsigned char *)ch4,(unsigned char)strlen((const char *)ch4));
     5d8:	fe 01       	movw	r30, r28
     5da:	01 90       	ld	r0, Z+
     5dc:	00 20       	and	r0, r0
     5de:	e9 f7       	brne	.-6      	; 0x5da <nextion_setText+0x2e>
     5e0:	31 97       	sbiw	r30, 0x01	; 1
     5e2:	bf 01       	movw	r22, r30
     5e4:	6c 1b       	sub	r22, r28
     5e6:	7d 0b       	sbc	r23, r29
     5e8:	ce 01       	movw	r24, r28
     5ea:	c0 d3       	rcall	.+1920   	; 0xd6c <Uart_Transmit_IT_PC>
		Uart_Transmit_IT_PC((unsigned char *)ch5,(unsigned char)strlen((const char *)ch5));
     5ec:	61 e0       	ldi	r22, 0x01	; 1
     5ee:	82 e8       	ldi	r24, 0x82	; 130
     5f0:	92 e0       	ldi	r25, 0x02	; 2
     5f2:	bc d3       	rcall	.+1912   	; 0xd6c <Uart_Transmit_IT_PC>
		endConversation(UART_PORT);
     5f4:	80 e0       	ldi	r24, 0x00	; 0
     5f6:	89 df       	rcall	.-238    	; 0x50a <endConversation>
     5f8:	47 c0       	rjmp	.+142    	; 0x688 <nextion_setText+0xdc>
     5fa:	41 30       	cpi	r20, 0x01	; 1
	}
	if(UART_PORT==1)
     5fc:	11 f5       	brne	.+68     	; 0x642 <nextion_setText+0x96>
     5fe:	fc 01       	movw	r30, r24
	{
		Uart_Transmit_IT_Display((unsigned char *)ch1,(unsigned char)strlen((const char *)ch1));
     600:	01 90       	ld	r0, Z+
     602:	00 20       	and	r0, r0
     604:	e9 f7       	brne	.-6      	; 0x600 <nextion_setText+0x54>
     606:	31 97       	sbiw	r30, 0x01	; 1
     608:	bf 01       	movw	r22, r30
     60a:	68 1b       	sub	r22, r24
     60c:	79 0b       	sbc	r23, r25
     60e:	b9 d3       	rcall	.+1906   	; 0xd82 <Uart_Transmit_IT_Display>
		Uart_Transmit_IT_Display((unsigned char *)ch2,(unsigned char)strlen((const char *)ch2));
     610:	65 e0       	ldi	r22, 0x05	; 5
     612:	8c e7       	ldi	r24, 0x7C	; 124
     614:	92 e0       	ldi	r25, 0x02	; 2
     616:	b5 d3       	rcall	.+1898   	; 0xd82 <Uart_Transmit_IT_Display>
		Uart_Transmit_IT_Display((unsigned char *)ch3,(unsigned char)strlen((const char *)ch3));
     618:	61 e0       	ldi	r22, 0x01	; 1
     61a:	82 e8       	ldi	r24, 0x82	; 130
     61c:	92 e0       	ldi	r25, 0x02	; 2
     61e:	b1 d3       	rcall	.+1890   	; 0xd82 <Uart_Transmit_IT_Display>
     620:	fe 01       	movw	r30, r28
		Uart_Transmit_IT_Display((unsigned char *)ch4,(unsigned char)strlen((const char *)ch4));
     622:	01 90       	ld	r0, Z+
     624:	00 20       	and	r0, r0
     626:	e9 f7       	brne	.-6      	; 0x622 <nextion_setText+0x76>
     628:	31 97       	sbiw	r30, 0x01	; 1
     62a:	bf 01       	movw	r22, r30
     62c:	6c 1b       	sub	r22, r28
     62e:	7d 0b       	sbc	r23, r29
     630:	ce 01       	movw	r24, r28
		Uart_Transmit_IT_Display((unsigned char *)ch5,(unsigned char)strlen((const char *)ch5));
     632:	a7 d3       	rcall	.+1870   	; 0xd82 <Uart_Transmit_IT_Display>
     634:	61 e0       	ldi	r22, 0x01	; 1
     636:	82 e8       	ldi	r24, 0x82	; 130
     638:	92 e0       	ldi	r25, 0x02	; 2
     63a:	a3 d3       	rcall	.+1862   	; 0xd82 <Uart_Transmit_IT_Display>
		
		endConversation(UART_PORT);
     63c:	81 e0       	ldi	r24, 0x01	; 1
     63e:	65 df       	rcall	.-310    	; 0x50a <endConversation>
     640:	23 c0       	rjmp	.+70     	; 0x688 <nextion_setText+0xdc>
// 		Uart_Transmit_IT_PC((unsigned char *)ch2,(unsigned char)strlen((const char *)ch2));
// 		Uart_Transmit_IT_PC((unsigned char *)ch3,(unsigned char)strlen((const char *)ch3));
// 		Uart_Transmit_IT_PC((unsigned char *)ch4,(unsigned char)strlen((const char *)ch4));
// 		Uart_Transmit_IT_PC((unsigned char *)ch5,(unsigned char)strlen((const char *)ch5));
	}
	if(UART_PORT==2)
     642:	42 30       	cpi	r20, 0x02	; 2
     644:	09 f5       	brne	.+66     	; 0x688 <nextion_setText+0xdc>
	{
		Uart_Transmit_IT_ESP((unsigned char *)ch1,(unsigned char)strlen((const char *)ch1));
     646:	fc 01       	movw	r30, r24
     648:	01 90       	ld	r0, Z+
     64a:	00 20       	and	r0, r0
     64c:	e9 f7       	brne	.-6      	; 0x648 <nextion_setText+0x9c>
     64e:	31 97       	sbiw	r30, 0x01	; 1
     650:	bf 01       	movw	r22, r30
     652:	68 1b       	sub	r22, r24
     654:	79 0b       	sbc	r23, r25
		Uart_Transmit_IT_ESP((unsigned char *)ch2,(unsigned char)strlen((const char *)ch2));
     656:	a0 d3       	rcall	.+1856   	; 0xd98 <Uart_Transmit_IT_ESP>
     658:	65 e0       	ldi	r22, 0x05	; 5
     65a:	8c e7       	ldi	r24, 0x7C	; 124
     65c:	92 e0       	ldi	r25, 0x02	; 2
		Uart_Transmit_IT_ESP((unsigned char *)ch3,(unsigned char)strlen((const char *)ch3));
     65e:	9c d3       	rcall	.+1848   	; 0xd98 <Uart_Transmit_IT_ESP>
     660:	61 e0       	ldi	r22, 0x01	; 1
     662:	82 e8       	ldi	r24, 0x82	; 130
     664:	92 e0       	ldi	r25, 0x02	; 2
		Uart_Transmit_IT_ESP((unsigned char *)ch4,(unsigned char)strlen((const char *)ch4));
     666:	98 d3       	rcall	.+1840   	; 0xd98 <Uart_Transmit_IT_ESP>
     668:	fe 01       	movw	r30, r28
     66a:	01 90       	ld	r0, Z+
     66c:	00 20       	and	r0, r0
     66e:	e9 f7       	brne	.-6      	; 0x66a <nextion_setText+0xbe>
     670:	31 97       	sbiw	r30, 0x01	; 1
     672:	bf 01       	movw	r22, r30
     674:	6c 1b       	sub	r22, r28
     676:	7d 0b       	sbc	r23, r29
     678:	ce 01       	movw	r24, r28
		Uart_Transmit_IT_ESP((unsigned char *)ch5,(unsigned char)strlen((const char *)ch5));
     67a:	8e d3       	rcall	.+1820   	; 0xd98 <Uart_Transmit_IT_ESP>
     67c:	61 e0       	ldi	r22, 0x01	; 1
     67e:	82 e8       	ldi	r24, 0x82	; 130
     680:	92 e0       	ldi	r25, 0x02	; 2
     682:	8a d3       	rcall	.+1812   	; 0xd98 <Uart_Transmit_IT_ESP>

		endConversation(UART_PORT);
     684:	82 e0       	ldi	r24, 0x02	; 2
     686:	41 df       	rcall	.-382    	; 0x50a <endConversation>
     688:	df 91       	pop	r29
// 		Uart_Transmit_IT_PC((unsigned char *)ch2,(unsigned char)strlen((const char *)ch2));
// 		Uart_Transmit_IT_PC((unsigned char *)ch3,(unsigned char)strlen((const char *)ch3));
// 		Uart_Transmit_IT_PC((unsigned char *)ch4,(unsigned char)strlen((const char *)ch4));
// 		Uart_Transmit_IT_PC((unsigned char *)ch5,(unsigned char)strlen((const char *)ch5));
	}
}
     68a:	cf 91       	pop	r28
     68c:	08 95       	ret

0000068e <nextion_setValue>:
     68e:	cf 93       	push	r28


void nextion_setValue(unsigned char * object, unsigned char * value, char UART_PORT)
{
     690:	df 93       	push	r29
     692:	eb 01       	movw	r28, r22
	unsigned char * ch1 = object;
	unsigned char * ch2 = (unsigned char *) ".val=";
	unsigned char * ch3 = value;
	if(UART_PORT==0)
     694:	41 11       	cpse	r20, r1
     696:	1a c0       	rjmp	.+52     	; 0x6cc <nextion_setValue+0x3e>
	{
		Uart_Transmit_IT_PC(ch1,(unsigned char)strlen((const char *)ch1));
     698:	fc 01       	movw	r30, r24
     69a:	01 90       	ld	r0, Z+
     69c:	00 20       	and	r0, r0
     69e:	e9 f7       	brne	.-6      	; 0x69a <nextion_setValue+0xc>
     6a0:	31 97       	sbiw	r30, 0x01	; 1
     6a2:	bf 01       	movw	r22, r30
     6a4:	68 1b       	sub	r22, r24
     6a6:	79 0b       	sbc	r23, r25
     6a8:	61 d3       	rcall	.+1730   	; 0xd6c <Uart_Transmit_IT_PC>
		Uart_Transmit_IT_PC(ch2,(unsigned char)strlen((const char *)ch2));
     6aa:	65 e0       	ldi	r22, 0x05	; 5
     6ac:	8d e1       	ldi	r24, 0x1D	; 29
     6ae:	92 e0       	ldi	r25, 0x02	; 2
     6b0:	5d d3       	rcall	.+1722   	; 0xd6c <Uart_Transmit_IT_PC>
		Uart_Transmit_IT_PC(ch3,(unsigned char)strlen((const char *)ch3));
     6b2:	fe 01       	movw	r30, r28
     6b4:	01 90       	ld	r0, Z+
     6b6:	00 20       	and	r0, r0
     6b8:	e9 f7       	brne	.-6      	; 0x6b4 <nextion_setValue+0x26>
     6ba:	31 97       	sbiw	r30, 0x01	; 1
     6bc:	bf 01       	movw	r22, r30
     6be:	6c 1b       	sub	r22, r28
     6c0:	7d 0b       	sbc	r23, r29
     6c2:	ce 01       	movw	r24, r28

		endConversation(UART_PORT);
     6c4:	53 d3       	rcall	.+1702   	; 0xd6c <Uart_Transmit_IT_PC>
     6c6:	80 e0       	ldi	r24, 0x00	; 0
     6c8:	20 df       	rcall	.-448    	; 0x50a <endConversation>
     6ca:	37 c0       	rjmp	.+110    	; 0x73a <nextion_setValue+0xac>
	}
	if(UART_PORT==1)
     6cc:	41 30       	cpi	r20, 0x01	; 1
     6ce:	d1 f4       	brne	.+52     	; 0x704 <nextion_setValue+0x76>
	{
		Uart_Transmit_IT_Display(ch1,(unsigned char)strlen((const char *)ch1));
     6d0:	fc 01       	movw	r30, r24
     6d2:	01 90       	ld	r0, Z+
     6d4:	00 20       	and	r0, r0
     6d6:	e9 f7       	brne	.-6      	; 0x6d2 <nextion_setValue+0x44>
     6d8:	31 97       	sbiw	r30, 0x01	; 1
     6da:	bf 01       	movw	r22, r30
     6dc:	68 1b       	sub	r22, r24
     6de:	79 0b       	sbc	r23, r25
		Uart_Transmit_IT_Display(ch2,(unsigned char)strlen((const char *)ch2));
     6e0:	50 d3       	rcall	.+1696   	; 0xd82 <Uart_Transmit_IT_Display>
     6e2:	65 e0       	ldi	r22, 0x05	; 5
     6e4:	8d e1       	ldi	r24, 0x1D	; 29
     6e6:	92 e0       	ldi	r25, 0x02	; 2
     6e8:	4c d3       	rcall	.+1688   	; 0xd82 <Uart_Transmit_IT_Display>
		Uart_Transmit_IT_Display(ch3,(unsigned char)strlen((const char *)ch3));
     6ea:	fe 01       	movw	r30, r28
     6ec:	01 90       	ld	r0, Z+
     6ee:	00 20       	and	r0, r0
     6f0:	e9 f7       	brne	.-6      	; 0x6ec <nextion_setValue+0x5e>
     6f2:	31 97       	sbiw	r30, 0x01	; 1
     6f4:	bf 01       	movw	r22, r30
     6f6:	6c 1b       	sub	r22, r28
     6f8:	7d 0b       	sbc	r23, r29
     6fa:	ce 01       	movw	r24, r28

		
		endConversation(UART_PORT);
     6fc:	42 d3       	rcall	.+1668   	; 0xd82 <Uart_Transmit_IT_Display>
     6fe:	81 e0       	ldi	r24, 0x01	; 1
     700:	04 df       	rcall	.-504    	; 0x50a <endConversation>
     702:	1b c0       	rjmp	.+54     	; 0x73a <nextion_setValue+0xac>
// 		Uart_Transmit_IT_PC(ch2,(unsigned char)strlen((const char *)ch2));
// 		Uart_Transmit_IT_PC(ch3,(unsigned char)strlen((const char *)ch3));
// 		Uart_Transmit_IT_PC((unsigned char *)"\r\n",(unsigned char)strlen((const char *)ch3));

	}
	if(UART_PORT==2)
     704:	42 30       	cpi	r20, 0x02	; 2
     706:	c9 f4       	brne	.+50     	; 0x73a <nextion_setValue+0xac>
	{
		Uart_Transmit_IT_ESP(ch1,(unsigned char)strlen((const char *)ch1));
     708:	fc 01       	movw	r30, r24
     70a:	01 90       	ld	r0, Z+
     70c:	00 20       	and	r0, r0
     70e:	e9 f7       	brne	.-6      	; 0x70a <nextion_setValue+0x7c>
     710:	31 97       	sbiw	r30, 0x01	; 1
     712:	bf 01       	movw	r22, r30
     714:	68 1b       	sub	r22, r24
     716:	79 0b       	sbc	r23, r25
		Uart_Transmit_IT_ESP(ch2,(unsigned char)strlen((const char *)ch2));
     718:	3f d3       	rcall	.+1662   	; 0xd98 <Uart_Transmit_IT_ESP>
     71a:	65 e0       	ldi	r22, 0x05	; 5
     71c:	8d e1       	ldi	r24, 0x1D	; 29
     71e:	92 e0       	ldi	r25, 0x02	; 2
		Uart_Transmit_IT_ESP(ch3,(unsigned char)strlen((const char *)ch3));
     720:	3b d3       	rcall	.+1654   	; 0xd98 <Uart_Transmit_IT_ESP>
     722:	fe 01       	movw	r30, r28
     724:	01 90       	ld	r0, Z+
     726:	00 20       	and	r0, r0
     728:	e9 f7       	brne	.-6      	; 0x724 <nextion_setValue+0x96>
     72a:	31 97       	sbiw	r30, 0x01	; 1
     72c:	bf 01       	movw	r22, r30
     72e:	6c 1b       	sub	r22, r28
     730:	7d 0b       	sbc	r23, r29
     732:	ce 01       	movw	r24, r28


		endConversation(UART_PORT);
     734:	31 d3       	rcall	.+1634   	; 0xd98 <Uart_Transmit_IT_ESP>
     736:	82 e0       	ldi	r24, 0x02	; 2
     738:	e8 de       	rcall	.-560    	; 0x50a <endConversation>
// 		Uart_Transmit_IT_PC(ch1,(unsigned char)strlen((const char *)ch1));
// 		Uart_Transmit_IT_PC(ch2,(unsigned char)strlen((const char *)ch2));
// 		Uart_Transmit_IT_PC(ch3,(unsigned char)strlen((const char *)ch3));
// 		Uart_Transmit_IT_PC((unsigned char *)"\r\n",(unsigned char)strlen((const char *)ch3));
	}
}
     73a:	df 91       	pop	r29
     73c:	cf 91       	pop	r28
     73e:	08 95       	ret

00000740 <nextion_setPicture>:

void nextion_setPicture(unsigned char * x, unsigned char * y, unsigned char * picture, char UART_PORT)
{
     740:	ef 92       	push	r14
     742:	ff 92       	push	r15
     744:	0f 93       	push	r16
     746:	1f 93       	push	r17
     748:	cf 93       	push	r28
     74a:	df 93       	push	r29
     74c:	7c 01       	movw	r14, r24
     74e:	8b 01       	movw	r16, r22
     750:	ea 01       	movw	r28, r20
	unsigned char * ch3 = (unsigned char *) ",";
	unsigned char * ch4 = y;
	unsigned char * ch5 = (unsigned char *) ",";
	unsigned char * ch6 = picture;

	if(UART_PORT==0)
     752:	21 11       	cpse	r18, r1
     754:	2d c0       	rjmp	.+90     	; 0x7b0 <nextion_setPicture+0x70>
	{
		Uart_Transmit_IT_PC(ch1,(unsigned char)strlen((const char *)ch1));
     756:	64 e0       	ldi	r22, 0x04	; 4
     758:	84 e8       	ldi	r24, 0x84	; 132
     75a:	92 e0       	ldi	r25, 0x02	; 2
     75c:	07 d3       	rcall	.+1550   	; 0xd6c <Uart_Transmit_IT_PC>
		Uart_Transmit_IT_PC(ch2,(unsigned char)strlen((const char *)ch2));
     75e:	f7 01       	movw	r30, r14
     760:	01 90       	ld	r0, Z+
     762:	00 20       	and	r0, r0
     764:	e9 f7       	brne	.-6      	; 0x760 <nextion_setPicture+0x20>
     766:	31 97       	sbiw	r30, 0x01	; 1
     768:	bf 01       	movw	r22, r30
     76a:	6e 19       	sub	r22, r14
     76c:	7f 09       	sbc	r23, r15
     76e:	c7 01       	movw	r24, r14
     770:	fd d2       	rcall	.+1530   	; 0xd6c <Uart_Transmit_IT_PC>
		Uart_Transmit_IT_PC(ch3,(unsigned char)strlen((const char *)ch3));
     772:	61 e0       	ldi	r22, 0x01	; 1
     774:	89 e8       	ldi	r24, 0x89	; 137
     776:	92 e0       	ldi	r25, 0x02	; 2
     778:	f9 d2       	rcall	.+1522   	; 0xd6c <Uart_Transmit_IT_PC>
		Uart_Transmit_IT_PC(ch4,(unsigned char)strlen((const char *)ch4));
     77a:	f8 01       	movw	r30, r16
     77c:	01 90       	ld	r0, Z+
     77e:	00 20       	and	r0, r0
     780:	e9 f7       	brne	.-6      	; 0x77c <nextion_setPicture+0x3c>
     782:	31 97       	sbiw	r30, 0x01	; 1
     784:	bf 01       	movw	r22, r30
     786:	60 1b       	sub	r22, r16
     788:	71 0b       	sbc	r23, r17
     78a:	c8 01       	movw	r24, r16
     78c:	ef d2       	rcall	.+1502   	; 0xd6c <Uart_Transmit_IT_PC>
		Uart_Transmit_IT_PC(ch5,(unsigned char)strlen((const char *)ch5));
     78e:	61 e0       	ldi	r22, 0x01	; 1
     790:	89 e8       	ldi	r24, 0x89	; 137
     792:	92 e0       	ldi	r25, 0x02	; 2
     794:	eb d2       	rcall	.+1494   	; 0xd6c <Uart_Transmit_IT_PC>
     796:	fe 01       	movw	r30, r28
		Uart_Transmit_IT_PC(ch6,(unsigned char)strlen((const char *)ch6));
     798:	01 90       	ld	r0, Z+
     79a:	00 20       	and	r0, r0
     79c:	e9 f7       	brne	.-6      	; 0x798 <nextion_setPicture+0x58>
     79e:	31 97       	sbiw	r30, 0x01	; 1
     7a0:	bf 01       	movw	r22, r30
     7a2:	6c 1b       	sub	r22, r28
     7a4:	7d 0b       	sbc	r23, r29
     7a6:	ce 01       	movw	r24, r28
     7a8:	e1 d2       	rcall	.+1474   	; 0xd6c <Uart_Transmit_IT_PC>

		endConversation(UART_PORT);
     7aa:	80 e0       	ldi	r24, 0x00	; 0
     7ac:	ae de       	rcall	.-676    	; 0x50a <endConversation>
     7ae:	5d c0       	rjmp	.+186    	; 0x86a <nextion_setPicture+0x12a>
	}
	if(UART_PORT==1)
     7b0:	21 30       	cpi	r18, 0x01	; 1
     7b2:	69 f5       	brne	.+90     	; 0x80e <nextion_setPicture+0xce>
	{
		Uart_Transmit_IT_Display(ch1,(unsigned char)strlen((const char *)ch1));
     7b4:	64 e0       	ldi	r22, 0x04	; 4
     7b6:	84 e8       	ldi	r24, 0x84	; 132
     7b8:	92 e0       	ldi	r25, 0x02	; 2
     7ba:	e3 d2       	rcall	.+1478   	; 0xd82 <Uart_Transmit_IT_Display>
     7bc:	f7 01       	movw	r30, r14
		Uart_Transmit_IT_Display(ch2,(unsigned char)strlen((const char *)ch2));
     7be:	01 90       	ld	r0, Z+
     7c0:	00 20       	and	r0, r0
     7c2:	e9 f7       	brne	.-6      	; 0x7be <nextion_setPicture+0x7e>
     7c4:	31 97       	sbiw	r30, 0x01	; 1
     7c6:	bf 01       	movw	r22, r30
     7c8:	6e 19       	sub	r22, r14
     7ca:	7f 09       	sbc	r23, r15
     7cc:	c7 01       	movw	r24, r14
     7ce:	d9 d2       	rcall	.+1458   	; 0xd82 <Uart_Transmit_IT_Display>
		Uart_Transmit_IT_Display(ch3,(unsigned char)strlen((const char *)ch3));
     7d0:	61 e0       	ldi	r22, 0x01	; 1
     7d2:	89 e8       	ldi	r24, 0x89	; 137
     7d4:	92 e0       	ldi	r25, 0x02	; 2
     7d6:	d5 d2       	rcall	.+1450   	; 0xd82 <Uart_Transmit_IT_Display>
		Uart_Transmit_IT_Display(ch4,(unsigned char)strlen((const char *)ch4));
     7d8:	f8 01       	movw	r30, r16
     7da:	01 90       	ld	r0, Z+
     7dc:	00 20       	and	r0, r0
     7de:	e9 f7       	brne	.-6      	; 0x7da <nextion_setPicture+0x9a>
     7e0:	31 97       	sbiw	r30, 0x01	; 1
     7e2:	bf 01       	movw	r22, r30
     7e4:	60 1b       	sub	r22, r16
     7e6:	71 0b       	sbc	r23, r17
     7e8:	c8 01       	movw	r24, r16
     7ea:	cb d2       	rcall	.+1430   	; 0xd82 <Uart_Transmit_IT_Display>
		Uart_Transmit_IT_Display(ch5,(unsigned char)strlen((const char *)ch5));
     7ec:	61 e0       	ldi	r22, 0x01	; 1
     7ee:	89 e8       	ldi	r24, 0x89	; 137
     7f0:	92 e0       	ldi	r25, 0x02	; 2
     7f2:	c7 d2       	rcall	.+1422   	; 0xd82 <Uart_Transmit_IT_Display>
		Uart_Transmit_IT_Display(ch6,(unsigned char)strlen((const char *)ch6));
     7f4:	fe 01       	movw	r30, r28
     7f6:	01 90       	ld	r0, Z+
     7f8:	00 20       	and	r0, r0
     7fa:	e9 f7       	brne	.-6      	; 0x7f6 <nextion_setPicture+0xb6>
     7fc:	31 97       	sbiw	r30, 0x01	; 1
     7fe:	bf 01       	movw	r22, r30
     800:	6c 1b       	sub	r22, r28
     802:	7d 0b       	sbc	r23, r29
     804:	ce 01       	movw	r24, r28
     806:	bd d2       	rcall	.+1402   	; 0xd82 <Uart_Transmit_IT_Display>
		
		endConversation(UART_PORT);
     808:	81 e0       	ldi	r24, 0x01	; 1
     80a:	7f de       	rcall	.-770    	; 0x50a <endConversation>
     80c:	2e c0       	rjmp	.+92     	; 0x86a <nextion_setPicture+0x12a>
     80e:	22 30       	cpi	r18, 0x02	; 2
// 		Uart_Transmit_IT_PC(ch5,(unsigned char)strlen((const char *)ch5));
// 		Uart_Transmit_IT_PC(ch6,(unsigned char)strlen((const char *)ch6));
// 		Uart_Transmit_IT_PC((unsigned char *)"\r\n",(unsigned char)strlen((const char *)ch3));

	}
	if(UART_PORT==2)
     810:	61 f5       	brne	.+88     	; 0x86a <nextion_setPicture+0x12a>
	{
		Uart_Transmit_IT_ESP(ch1,(unsigned char)strlen((const char *)ch1));
     812:	64 e0       	ldi	r22, 0x04	; 4
     814:	84 e8       	ldi	r24, 0x84	; 132
     816:	92 e0       	ldi	r25, 0x02	; 2
     818:	bf d2       	rcall	.+1406   	; 0xd98 <Uart_Transmit_IT_ESP>
		Uart_Transmit_IT_ESP(ch2,(unsigned char)strlen((const char *)ch2));
     81a:	f7 01       	movw	r30, r14
     81c:	01 90       	ld	r0, Z+
     81e:	00 20       	and	r0, r0
     820:	e9 f7       	brne	.-6      	; 0x81c <nextion_setPicture+0xdc>
     822:	31 97       	sbiw	r30, 0x01	; 1
     824:	bf 01       	movw	r22, r30
     826:	6e 19       	sub	r22, r14
     828:	7f 09       	sbc	r23, r15
     82a:	c7 01       	movw	r24, r14
     82c:	b5 d2       	rcall	.+1386   	; 0xd98 <Uart_Transmit_IT_ESP>
		Uart_Transmit_IT_ESP(ch3,(unsigned char)strlen((const char *)ch3));
     82e:	61 e0       	ldi	r22, 0x01	; 1
     830:	89 e8       	ldi	r24, 0x89	; 137
     832:	92 e0       	ldi	r25, 0x02	; 2
     834:	b1 d2       	rcall	.+1378   	; 0xd98 <Uart_Transmit_IT_ESP>
		Uart_Transmit_IT_ESP(ch4,(unsigned char)strlen((const char *)ch4));
     836:	f8 01       	movw	r30, r16
     838:	01 90       	ld	r0, Z+
     83a:	00 20       	and	r0, r0
     83c:	e9 f7       	brne	.-6      	; 0x838 <nextion_setPicture+0xf8>
     83e:	31 97       	sbiw	r30, 0x01	; 1
     840:	bf 01       	movw	r22, r30
     842:	60 1b       	sub	r22, r16
     844:	71 0b       	sbc	r23, r17
     846:	c8 01       	movw	r24, r16
		Uart_Transmit_IT_ESP(ch5,(unsigned char)strlen((const char *)ch5));
     848:	a7 d2       	rcall	.+1358   	; 0xd98 <Uart_Transmit_IT_ESP>
     84a:	61 e0       	ldi	r22, 0x01	; 1
     84c:	89 e8       	ldi	r24, 0x89	; 137
     84e:	92 e0       	ldi	r25, 0x02	; 2
     850:	a3 d2       	rcall	.+1350   	; 0xd98 <Uart_Transmit_IT_ESP>
		Uart_Transmit_IT_ESP(ch6,(unsigned char)strlen((const char *)ch6));
     852:	fe 01       	movw	r30, r28
     854:	01 90       	ld	r0, Z+
     856:	00 20       	and	r0, r0
     858:	e9 f7       	brne	.-6      	; 0x854 <nextion_setPicture+0x114>
     85a:	31 97       	sbiw	r30, 0x01	; 1
     85c:	bf 01       	movw	r22, r30
     85e:	6c 1b       	sub	r22, r28
     860:	7d 0b       	sbc	r23, r29
     862:	ce 01       	movw	r24, r28
     864:	99 d2       	rcall	.+1330   	; 0xd98 <Uart_Transmit_IT_ESP>
     866:	82 e0       	ldi	r24, 0x02	; 2

		endConversation(UART_PORT);
     868:	50 de       	rcall	.-864    	; 0x50a <endConversation>
     86a:	df 91       	pop	r29
     86c:	cf 91       	pop	r28
// 		Uart_Transmit_IT_PC(ch4,(unsigned char)strlen((const char *)ch4));
// 		Uart_Transmit_IT_PC(ch5,(unsigned char)strlen((const char *)ch5));
// 		Uart_Transmit_IT_PC(ch6,(unsigned char)strlen((const char *)ch6));
// 		Uart_Transmit_IT_PC((unsigned char *)"\r\n",(unsigned char)strlen((const char *)ch3));
	}
}
     86e:	1f 91       	pop	r17
     870:	0f 91       	pop	r16
     872:	ff 90       	pop	r15
     874:	ef 90       	pop	r14
     876:	08 95       	ret

00000878 <my_utoa>:
     878:	cf 93       	push	r28
     87a:	df 93       	push	r29

char *my_utoa(char *str, unsigned long value, int radix)
{
    int size;
    const char *format = 0;
    switch (radix)
     87c:	2a 30       	cpi	r18, 0x0A	; 10
     87e:	31 05       	cpc	r19, r1
     880:	39 f0       	breq	.+14     	; 0x890 <my_utoa+0x18>
     882:	20 31       	cpi	r18, 0x10	; 16
     884:	31 05       	cpc	r19, r1
     886:	51 f0       	breq	.+20     	; 0x89c <my_utoa+0x24>
     888:	28 30       	cpi	r18, 0x08	; 8
     88a:	31 05       	cpc	r19, r1
     88c:	f1 f4       	brne	.+60     	; 0x8ca <my_utoa+0x52>
     88e:	03 c0       	rjmp	.+6      	; 0x896 <my_utoa+0x1e>
    {
    case 8:
        format = "%o";
        break;
    case 10:
        format = "%u";
     890:	2e e8       	ldi	r18, 0x8E	; 142
     892:	32 e0       	ldi	r19, 0x02	; 2
     894:	05 c0       	rjmp	.+10     	; 0x8a0 <my_utoa+0x28>
    int size;
    const char *format = 0;
    switch (radix)
    {
    case 8:
        format = "%o";
     896:	21 e9       	ldi	r18, 0x91	; 145
     898:	32 e0       	ldi	r19, 0x02	; 2
     89a:	02 c0       	rjmp	.+4      	; 0x8a0 <my_utoa+0x28>
        break;
    case 10:
        format = "%u";
        break;
    case 16:
        format = "%x";
     89c:	2b e8       	ldi	r18, 0x8B	; 139
     89e:	32 e0       	ldi	r19, 0x02	; 2
     8a0:	ec 01       	movw	r28, r24
        break;
    }
    if (format == 0)
        return str;
    size = sprintf(str, format, value);
     8a2:	7f 93       	push	r23
     8a4:	6f 93       	push	r22
     8a6:	5f 93       	push	r21
     8a8:	4f 93       	push	r20
     8aa:	3f 93       	push	r19
     8ac:	2f 93       	push	r18
     8ae:	df 93       	push	r29
     8b0:	8f 93       	push	r24
     8b2:	1b d7       	rcall	.+3638   	; 0x16ea <sprintf>
    return &str[size];
     8b4:	8c 0f       	add	r24, r28
     8b6:	9d 1f       	adc	r25, r29
     8b8:	2d b7       	in	r18, 0x3d	; 61
     8ba:	3e b7       	in	r19, 0x3e	; 62
     8bc:	28 5f       	subi	r18, 0xF8	; 248
     8be:	3f 4f       	sbci	r19, 0xFF	; 255
     8c0:	0f b6       	in	r0, 0x3f	; 63
     8c2:	f8 94       	cli
     8c4:	3e bf       	out	0x3e, r19	; 62
     8c6:	0f be       	out	0x3f, r0	; 63
     8c8:	2d bf       	out	0x3d, r18	; 61
}
     8ca:	df 91       	pop	r29
     8cc:	cf 91       	pop	r28
     8ce:	08 95       	ret

000008d0 <ArrayLength>:

uint8_t ArrayLength(char *arr)
{
    return sizeof(arr) / sizeof(arr[0]);
     8d0:	82 e0       	ldi	r24, 0x02	; 2
     8d2:	08 95       	ret

000008d4 <RB_init>:
		}
	}
	rb->tail = tail;
	
	return 1;
}
     8d4:	fc 01       	movw	r30, r24
     8d6:	11 82       	std	Z+1, r1	; 0x01
     8d8:	10 82       	st	Z, r1
     8da:	08 95       	ret

000008dc <RB_free>:
     8dc:	fc 01       	movw	r30, r24
     8de:	90 81       	ld	r25, Z
     8e0:	81 81       	ldd	r24, Z+1	; 0x01
     8e2:	98 17       	cp	r25, r24
     8e4:	20 f0       	brcs	.+8      	; 0x8ee <RB_free+0x12>
     8e6:	98 1b       	sub	r25, r24
     8e8:	89 2f       	mov	r24, r25
     8ea:	80 95       	com	r24
     8ec:	08 95       	ret
     8ee:	89 1b       	sub	r24, r25
     8f0:	08 95       	ret

000008f2 <RB_length>:
     8f2:	fc 01       	movw	r30, r24
     8f4:	20 81       	ld	r18, Z
     8f6:	91 81       	ldd	r25, Z+1	; 0x01
     8f8:	29 17       	cp	r18, r25
     8fa:	18 f0       	brcs	.+6      	; 0x902 <RB_length+0x10>
     8fc:	82 2f       	mov	r24, r18
     8fe:	89 1b       	sub	r24, r25
     900:	08 95       	ret
     902:	89 2f       	mov	r24, r25
     904:	82 1b       	sub	r24, r18
     906:	80 95       	com	r24
     908:	08 95       	ret

0000090a <RB_readByte>:
     90a:	cf 93       	push	r28
     90c:	df 93       	push	r29
     90e:	ec 01       	movw	r28, r24
     910:	f0 df       	rcall	.-32     	; 0x8f2 <RB_length>
     912:	88 23       	and	r24, r24
     914:	59 f0       	breq	.+22     	; 0x92c <RB_readByte+0x22>
     916:	89 81       	ldd	r24, Y+1	; 0x01
     918:	91 e0       	ldi	r25, 0x01	; 1
     91a:	98 0f       	add	r25, r24
     91c:	fe 01       	movw	r30, r28
     91e:	e8 0f       	add	r30, r24
     920:	f1 1d       	adc	r31, r1
     922:	82 81       	ldd	r24, Z+2	; 0x02
     924:	9f 3f       	cpi	r25, 0xFF	; 255
     926:	09 f4       	brne	.+2      	; 0x92a <RB_readByte+0x20>
     928:	90 e0       	ldi	r25, 0x00	; 0
     92a:	99 83       	std	Y+1, r25	; 0x01
     92c:	df 91       	pop	r29
     92e:	cf 91       	pop	r28
     930:	08 95       	ret

00000932 <RB_writeByte>:
     932:	0f 93       	push	r16
     934:	1f 93       	push	r17
     936:	cf 93       	push	r28
     938:	df 93       	push	r29
     93a:	ec 01       	movw	r28, r24
     93c:	16 2f       	mov	r17, r22
     93e:	08 81       	ld	r16, Y
     940:	cd df       	rcall	.-102    	; 0x8dc <RB_free>
     942:	88 23       	and	r24, r24
     944:	f1 f3       	breq	.-4      	; 0x942 <RB_writeByte+0x10>
     946:	11 11       	cpse	r17, r1
     948:	01 c0       	rjmp	.+2      	; 0x94c <RB_writeByte+0x1a>
     94a:	1f ef       	ldi	r17, 0xFF	; 255
     94c:	81 e0       	ldi	r24, 0x01	; 1
     94e:	80 0f       	add	r24, r16
     950:	fe 01       	movw	r30, r28
     952:	e0 0f       	add	r30, r16
     954:	f1 1d       	adc	r31, r1
     956:	12 83       	std	Z+2, r17	; 0x02
     958:	8f 3f       	cpi	r24, 0xFF	; 255
     95a:	09 f4       	brne	.+2      	; 0x95e <RB_writeByte+0x2c>
     95c:	80 e0       	ldi	r24, 0x00	; 0
     95e:	88 83       	st	Y, r24
     960:	81 e0       	ldi	r24, 0x01	; 1
     962:	df 91       	pop	r29
     964:	cf 91       	pop	r28
     966:	1f 91       	pop	r17
     968:	0f 91       	pop	r16
     96a:	08 95       	ret

0000096c <RB_write>:

unsigned char RB_write( ring_buffer_t *rb, unsigned char *data, unsigned char datal )
{
     96c:	ff 92       	push	r15
     96e:	0f 93       	push	r16
     970:	1f 93       	push	r17
     972:	cf 93       	push	r28
     974:	df 93       	push	r29
	unsigned char head;
	
	head = rb->head;
	
	if (datal == 0)
     976:	44 23       	and	r20, r20
     978:	d9 f0       	breq	.+54     	; 0x9b0 <RB_write+0x44>
     97a:	c4 2f       	mov	r28, r20
     97c:	d7 2f       	mov	r29, r23
     97e:	f6 2e       	mov	r15, r22
     980:	8c 01       	movw	r16, r24
	{
		return  0;
	}
	
	while(RB_free(rb) < datal);
     982:	ac df       	rcall	.-168    	; 0x8dc <RB_free>
     984:	8c 17       	cp	r24, r28
     986:	f0 f3       	brcs	.-4      	; 0x984 <RB_write+0x18>
     988:	15 c0       	rjmp	.+42     	; 0x9b4 <RB_write+0x48>
	
	while(datal--)
	{
		rb->data[head++] = *data++;
     98a:	21 e0       	ldi	r18, 0x01	; 1
     98c:	29 0f       	add	r18, r25
     98e:	31 91       	ld	r19, Z+
     990:	d8 01       	movw	r26, r16
     992:	a9 0f       	add	r26, r25
     994:	b1 1d       	adc	r27, r1
     996:	12 96       	adiw	r26, 0x02	; 2
     998:	3c 93       	st	X, r19
		if (head >= RING_BUFFER_SIZE)
     99a:	2f 3f       	cpi	r18, 0xFF	; 255
     99c:	11 f4       	brne	.+4      	; 0x9a2 <RB_write+0x36>
		{
			head = 0;
     99e:	98 2f       	mov	r25, r24
     9a0:	01 c0       	rjmp	.+2      	; 0x9a4 <RB_write+0x38>
	
	while(RB_free(rb) < datal);
	
	while(datal--)
	{
		rb->data[head++] = *data++;
     9a2:	92 2f       	mov	r25, r18
		return  0;
	}
	
	while(RB_free(rb) < datal);
	
	while(datal--)
     9a4:	41 50       	subi	r20, 0x01	; 1
     9a6:	88 f7       	brcc	.-30     	; 0x98a <RB_write+0x1e>
		{
			head = 0;
		}
	}
	
	rb->head = head;
     9a8:	f8 01       	movw	r30, r16
     9aa:	90 83       	st	Z, r25
	
	return 1;
     9ac:	81 e0       	ldi	r24, 0x01	; 1
     9ae:	0a c0       	rjmp	.+20     	; 0x9c4 <RB_write+0x58>
	
	head = rb->head;
	
	if (datal == 0)
	{
		return  0;
     9b0:	80 e0       	ldi	r24, 0x00	; 0
     9b2:	08 c0       	rjmp	.+16     	; 0x9c4 <RB_write+0x58>

unsigned char RB_write( ring_buffer_t *rb, unsigned char *data, unsigned char datal )
{
	unsigned char head;
	
	head = rb->head;
     9b4:	f8 01       	movw	r30, r16
     9b6:	90 81       	ld	r25, Z
		return  0;
	}
	
	while(RB_free(rb) < datal);
	
	while(datal--)
     9b8:	4f ef       	ldi	r20, 0xFF	; 255
     9ba:	4c 0f       	add	r20, r28
     9bc:	ef 2d       	mov	r30, r15
     9be:	fd 2f       	mov	r31, r29
	{
		rb->data[head++] = *data++;
		if (head >= RING_BUFFER_SIZE)
		{
			head = 0;
     9c0:	80 e0       	ldi	r24, 0x00	; 0
     9c2:	e3 cf       	rjmp	.-58     	; 0x98a <RB_write+0x1e>
	}
	
	rb->head = head;
	
	return 1;
}
     9c4:	df 91       	pop	r29
     9c6:	cf 91       	pop	r28
     9c8:	1f 91       	pop	r17
     9ca:	0f 91       	pop	r16
     9cc:	ff 90       	pop	r15
     9ce:	08 95       	ret

000009d0 <SPI_w_completed>:
	SPDR=RB_readByte(&rb_SPI_w);
}

void SPI_w_completed()
{
	asm("nop");
     9d0:	00 00       	nop
	asm("nop");
     9d2:	00 00       	nop
     9d4:	08 95       	ret

000009d6 <SPI_init>:

void SPI_init(void)
{
	// Einstellungen fr TMC4671: CLK = 1MHz, SPI-Mode = 3, MSB first)

	SPCR = ((1<<SPE)|       // SPI Enable					(1 = Enable, 0 = Disable)					Datasheet S. 197 (Kapitel 21.2.1)
     9d6:	8d ed       	ldi	r24, 0xDD	; 221
     9d8:	8c bd       	out	0x2c, r24	; 44
	(1<<MSTR)|              // Master/Slave select			(0 = Slave, 1 = Master)						Datasheet S. 197 (Kapitel 21.2.1)
	(0<<SPR1)|(1<<SPR0)|    // SPI Clock Rate				(Divider Systemclock 16MHz)					Datasheet S. 198 (Kapitel 21.2.1)
	(1<<CPOL)|              // Clock Polarity when idle		(0 = low, 1 = SCK high)						Datasheet S. 197 (Kapitel 21.2.1)
	(1<<CPHA));             // Clock Phase edge sampling	(0 = leading, 1 = trailing edge sampling)	Datasheet S. 197 (Kapitel 21.2.1)

	SPSR = (0<<SPI2X);      // Double Clock Rate			(0 = Disable, 1 = Enable)					Datasheet S. 198 (Kapitel 21.2.1)
     9da:	1d bc       	out	0x2d, r1	; 45

	RB_init(&rb_SPI_w);
     9dc:	8b e4       	ldi	r24, 0x4B	; 75
     9de:	9f e0       	ldi	r25, 0x0F	; 15
     9e0:	79 df       	rcall	.-270    	; 0x8d4 <RB_init>
	RB_init(&rb_SPI_r);
     9e2:	88 e4       	ldi	r24, 0x48	; 72
     9e4:	9c e0       	ldi	r25, 0x0C	; 12
     9e6:	76 df       	rcall	.-276    	; 0x8d4 <RB_init>

	sei();
     9e8:	78 94       	sei

	ptr_SPI_w_completed=SPI_w_completed;
     9ea:	88 ee       	ldi	r24, 0xE8	; 232
     9ec:	94 e0       	ldi	r25, 0x04	; 4
     9ee:	90 93 09 05 	sts	0x0509, r25	; 0x800509 <ptr_SPI_w_completed+0x1>
     9f2:	80 93 08 05 	sts	0x0508, r24	; 0x800508 <ptr_SPI_w_completed>

	DISABLE_CS(SPI_PORT,SPI_CS_TMC4671);
     9f6:	28 9a       	sbi	0x05, 0	; 5
     9f8:	08 95       	ret

000009fa <SPI_Transmit_IT_TMC>:
}

void SPI_Transmit_IT_TMC( unsigned char *data, unsigned char nbytes)
{
     9fa:	46 2f       	mov	r20, r22
#endif
#ifdef ACTUAL_PIN
#undef ACTUAL_PIN
#define ACTUAL_PIN SPI_CS_TMC4671
#endif
	ENABLE_CS(ACTUAL_PORT,ACTUAL_PIN);
     9fc:	28 98       	cbi	0x05, 0	; 5
	RB_write(&rb_SPI_w, data, nbytes);
     9fe:	bc 01       	movw	r22, r24
     a00:	8b e4       	ldi	r24, 0x4B	; 75
     a02:	9f e0       	ldi	r25, 0x0F	; 15
     a04:	b3 df       	rcall	.-154    	; 0x96c <RB_write>
	SPDR=RB_readByte(&rb_SPI_w);
     a06:	8b e4       	ldi	r24, 0x4B	; 75
     a08:	9f e0       	ldi	r25, 0x0F	; 15
     a0a:	7f df       	rcall	.-258    	; 0x90a <RB_readByte>
     a0c:	8e bd       	out	0x2e, r24	; 46
     a0e:	08 95       	ret

00000a10 <__vector_24>:
	asm("nop");
	asm("nop");
}

ISR (SPI_STC_vect)
{
     a10:	1f 92       	push	r1
     a12:	0f 92       	push	r0
     a14:	0f b6       	in	r0, 0x3f	; 63
     a16:	0f 92       	push	r0
     a18:	11 24       	eor	r1, r1
     a1a:	0b b6       	in	r0, 0x3b	; 59
     a1c:	0f 92       	push	r0
     a1e:	2f 93       	push	r18
     a20:	3f 93       	push	r19
     a22:	4f 93       	push	r20
     a24:	5f 93       	push	r21
     a26:	6f 93       	push	r22
     a28:	7f 93       	push	r23
     a2a:	8f 93       	push	r24
     a2c:	9f 93       	push	r25
     a2e:	af 93       	push	r26
     a30:	bf 93       	push	r27
     a32:	ef 93       	push	r30
     a34:	ff 93       	push	r31
	if(RB_length(&rb_SPI_w) > 0)
     a36:	8b e4       	ldi	r24, 0x4B	; 75
     a38:	9f e0       	ldi	r25, 0x0F	; 15
     a3a:	5b df       	rcall	.-330    	; 0x8f2 <RB_length>
     a3c:	88 23       	and	r24, r24
     a3e:	29 f0       	breq	.+10     	; 0xa4a <__vector_24+0x3a>
	{
		SPDR = RB_readByte(&rb_SPI_w);
     a40:	8b e4       	ldi	r24, 0x4B	; 75
     a42:	9f e0       	ldi	r25, 0x0F	; 15
     a44:	62 df       	rcall	.-316    	; 0x90a <RB_readByte>
     a46:	8e bd       	out	0x2e, r24	; 46
     a48:	08 c0       	rjmp	.+16     	; 0xa5a <__vector_24+0x4a>
	}
	else
	{
	if(ptr_SPI_w_completed != 0)
     a4a:	e0 91 08 05 	lds	r30, 0x0508	; 0x800508 <ptr_SPI_w_completed>
     a4e:	f0 91 09 05 	lds	r31, 0x0509	; 0x800509 <ptr_SPI_w_completed+0x1>
     a52:	30 97       	sbiw	r30, 0x00	; 0
     a54:	09 f0       	breq	.+2      	; 0xa58 <__vector_24+0x48>
	{
	ptr_SPI_w_completed();
     a56:	19 95       	eicall
	}
		DISABLE_CS(ACTUAL_PORT,ACTUAL_PIN);
     a58:	28 9a       	sbi	0x05, 0	; 5
	}
     a5a:	ff 91       	pop	r31
     a5c:	ef 91       	pop	r30
     a5e:	bf 91       	pop	r27
     a60:	af 91       	pop	r26
     a62:	9f 91       	pop	r25
     a64:	8f 91       	pop	r24
     a66:	7f 91       	pop	r23
     a68:	6f 91       	pop	r22
     a6a:	5f 91       	pop	r21
     a6c:	4f 91       	pop	r20
     a6e:	3f 91       	pop	r19
     a70:	2f 91       	pop	r18
     a72:	0f 90       	pop	r0
     a74:	0b be       	out	0x3b, r0	; 59
     a76:	0f 90       	pop	r0
     a78:	0f be       	out	0x3f, r0	; 63
     a7a:	0f 90       	pop	r0
     a7c:	1f 90       	pop	r1
     a7e:	18 95       	reti

00000a80 <tmc40bit_writeInt>:
	tmc40bit_writeInt(motor, address, value);
}

void tmc4671_writeInt(unsigned int motor, unsigned char address, unsigned long value)
{
	tmc40bit_writeInt(motor, address, value);
     a80:	cf 93       	push	r28
     a82:	df 93       	push	r29
     a84:	00 d0       	rcall	.+0      	; 0xa86 <tmc40bit_writeInt+0x6>
     a86:	1f 92       	push	r1
     a88:	1f 92       	push	r1
     a8a:	cd b7       	in	r28, 0x3d	; 61
     a8c:	de b7       	in	r29, 0x3e	; 62
     a8e:	60 68       	ori	r22, 0x80	; 128
     a90:	69 83       	std	Y+1, r22	; 0x01
     a92:	5a 83       	std	Y+2, r21	; 0x02
     a94:	4b 83       	std	Y+3, r20	; 0x03
     a96:	3c 83       	std	Y+4, r19	; 0x04
     a98:	2d 83       	std	Y+5, r18	; 0x05
     a9a:	85 b1       	in	r24, 0x05	; 5
     a9c:	88 23       	and	r24, r24
     a9e:	e9 f3       	breq	.-6      	; 0xa9a <tmc40bit_writeInt+0x1a>
     aa0:	80 ea       	ldi	r24, 0xA0	; 160
     aa2:	8a 95       	dec	r24
     aa4:	f1 f7       	brne	.-4      	; 0xaa2 <tmc40bit_writeInt+0x22>
     aa6:	65 e0       	ldi	r22, 0x05	; 5
     aa8:	ce 01       	movw	r24, r28
     aaa:	01 96       	adiw	r24, 0x01	; 1
     aac:	a6 df       	rcall	.-180    	; 0x9fa <SPI_Transmit_IT_TMC>
     aae:	0f 90       	pop	r0
     ab0:	0f 90       	pop	r0
     ab2:	0f 90       	pop	r0
     ab4:	0f 90       	pop	r0
     ab6:	0f 90       	pop	r0
     ab8:	df 91       	pop	r29
     aba:	cf 91       	pop	r28
     abc:	08 95       	ret

00000abe <TMC4671_init>:
     abe:	23 e0       	ldi	r18, 0x03	; 3
     ac0:	30 e0       	ldi	r19, 0x00	; 0
     ac2:	a9 01       	movw	r20, r18
     ac4:	6b e1       	ldi	r22, 0x1B	; 27
     ac6:	80 e0       	ldi	r24, 0x00	; 0
     ac8:	90 e0       	ldi	r25, 0x00	; 0
     aca:	da df       	rcall	.-76     	; 0xa80 <tmc40bit_writeInt>
     acc:	20 e0       	ldi	r18, 0x00	; 0
     ace:	30 e0       	ldi	r19, 0x00	; 0
     ad0:	a9 01       	movw	r20, r18
     ad2:	67 e1       	ldi	r22, 0x17	; 23
     ad4:	80 e0       	ldi	r24, 0x00	; 0
     ad6:	90 e0       	ldi	r25, 0x00	; 0
     ad8:	d3 df       	rcall	.-90     	; 0xa80 <tmc40bit_writeInt>
     ada:	2f e9       	ldi	r18, 0x9F	; 159
     adc:	3f e0       	ldi	r19, 0x0F	; 15
     ade:	40 e0       	ldi	r20, 0x00	; 0
     ae0:	50 e0       	ldi	r21, 0x00	; 0
     ae2:	68 e1       	ldi	r22, 0x18	; 24
     ae4:	80 e0       	ldi	r24, 0x00	; 0
     ae6:	90 e0       	ldi	r25, 0x00	; 0
     ae8:	cb df       	rcall	.-106    	; 0xa80 <tmc40bit_writeInt>
     aea:	25 e0       	ldi	r18, 0x05	; 5
     aec:	35 e0       	ldi	r19, 0x05	; 5
     aee:	40 e0       	ldi	r20, 0x00	; 0
     af0:	50 e0       	ldi	r21, 0x00	; 0
     af2:	69 e1       	ldi	r22, 0x19	; 25
     af4:	80 e0       	ldi	r24, 0x00	; 0
     af6:	90 e0       	ldi	r25, 0x00	; 0
     af8:	c3 df       	rcall	.-122    	; 0xa80 <tmc40bit_writeInt>
     afa:	27 e0       	ldi	r18, 0x07	; 7
     afc:	30 e0       	ldi	r19, 0x00	; 0
     afe:	40 e0       	ldi	r20, 0x00	; 0
     b00:	50 e0       	ldi	r21, 0x00	; 0
     b02:	6a e1       	ldi	r22, 0x1A	; 26
     b04:	80 e0       	ldi	r24, 0x00	; 0
     b06:	90 e0       	ldi	r25, 0x00	; 0
     b08:	bb df       	rcall	.-138    	; 0xa80 <tmc40bit_writeInt>
     b0a:	20 e0       	ldi	r18, 0x00	; 0
     b0c:	31 e0       	ldi	r19, 0x01	; 1
     b0e:	40 e0       	ldi	r20, 0x00	; 0
     b10:	58 e1       	ldi	r21, 0x18	; 24
     b12:	6a e0       	ldi	r22, 0x0A	; 10
     b14:	80 e0       	ldi	r24, 0x00	; 0
     b16:	90 e0       	ldi	r25, 0x00	; 0
     b18:	b3 df       	rcall	.-154    	; 0xa80 <tmc40bit_writeInt>
     b1a:	20 e1       	ldi	r18, 0x10	; 16
     b1c:	30 e0       	ldi	r19, 0x00	; 0
     b1e:	a9 01       	movw	r20, r18
     b20:	64 e0       	ldi	r22, 0x04	; 4
     b22:	80 e0       	ldi	r24, 0x00	; 0
     b24:	90 e0       	ldi	r25, 0x00	; 0
     b26:	ac df       	rcall	.-168    	; 0xa80 <tmc40bit_writeInt>
     b28:	20 e0       	ldi	r18, 0x00	; 0
     b2a:	30 e0       	ldi	r19, 0x00	; 0
     b2c:	40 e0       	ldi	r20, 0x00	; 0
     b2e:	50 e2       	ldi	r21, 0x20	; 32
     b30:	65 e0       	ldi	r22, 0x05	; 5
     b32:	80 e0       	ldi	r24, 0x00	; 0
     b34:	90 e0       	ldi	r25, 0x00	; 0
     b36:	a4 df       	rcall	.-184    	; 0xa80 <tmc40bit_writeInt>
     b38:	20 e0       	ldi	r18, 0x00	; 0
     b3a:	30 e0       	ldi	r19, 0x00	; 0
     b3c:	a9 01       	movw	r20, r18
     b3e:	66 e0       	ldi	r22, 0x06	; 6
     b40:	80 e0       	ldi	r24, 0x00	; 0
     b42:	90 e0       	ldi	r25, 0x00	; 0
     b44:	9d df       	rcall	.-198    	; 0xa80 <tmc40bit_writeInt>
     b46:	2b e4       	ldi	r18, 0x4B	; 75
     b48:	31 e0       	ldi	r19, 0x01	; 1
     b4a:	a9 01       	movw	r20, r18
     b4c:	67 e0       	ldi	r22, 0x07	; 7
     b4e:	80 e0       	ldi	r24, 0x00	; 0
     b50:	90 e0       	ldi	r25, 0x00	; 0
     b52:	96 df       	rcall	.-212    	; 0xa80 <tmc40bit_writeInt>
     b54:	26 e6       	ldi	r18, 0x66	; 102
     b56:	3c e5       	ldi	r19, 0x5C	; 92
     b58:	40 e0       	ldi	r20, 0x00	; 0
     b5a:	51 e0       	ldi	r21, 0x01	; 1
     b5c:	69 e0       	ldi	r22, 0x09	; 9
     b5e:	80 e0       	ldi	r24, 0x00	; 0
     b60:	90 e0       	ldi	r25, 0x00	; 0
     b62:	8e df       	rcall	.-228    	; 0xa80 <tmc40bit_writeInt>
     b64:	22 ef       	ldi	r18, 0xF2	; 242
     b66:	3b e5       	ldi	r19, 0x5B	; 91
     b68:	40 e0       	ldi	r20, 0x00	; 0
     b6a:	51 e0       	ldi	r21, 0x01	; 1
     b6c:	68 e0       	ldi	r22, 0x08	; 8
     b6e:	80 e0       	ldi	r24, 0x00	; 0
     b70:	90 e0       	ldi	r25, 0x00	; 0
     b72:	86 cf       	rjmp	.-244    	; 0xa80 <tmc40bit_writeInt>
     b74:	08 95       	ret

00000b76 <initTMC4671_Openloop>:
	// 	// Stop
	// 	tmc4671_writeInt(0, TMC4671_PID_TORQUE_FLUX_TARGET, 0x00000000);
}

void initTMC4671_Openloop(void)
{
     b76:	0f 93       	push	r16
     b78:	1f 93       	push	r17
     b7a:	cf 93       	push	r28
     b7c:	df 93       	push	r29
     b7e:	cd b7       	in	r28, 0x3d	; 61
     b80:	de b7       	in	r29, 0x3e	; 62
     b82:	2a 97       	sbiw	r28, 0x0a	; 10
     b84:	0f b6       	in	r0, 0x3f	; 63
     b86:	f8 94       	cli
     b88:	de bf       	out	0x3e, r29	; 62
     b8a:	0f be       	out	0x3f, r0	; 63
     b8c:	cd bf       	out	0x3d, r28	; 61
	tmc40bit_writeInt(motor, address, value);
}

void tmc4671_writeInt(unsigned int motor, unsigned char address, unsigned long value)
{
	tmc40bit_writeInt(motor, address, value);
     b8e:	20 e0       	ldi	r18, 0x00	; 0
     b90:	30 e0       	ldi	r19, 0x00	; 0
     b92:	a9 01       	movw	r20, r18
     b94:	6f e1       	ldi	r22, 0x1F	; 31
     b96:	80 e0       	ldi	r24, 0x00	; 0
     b98:	90 e0       	ldi	r25, 0x00	; 0
     b9a:	72 df       	rcall	.-284    	; 0xa80 <tmc40bit_writeInt>
     b9c:	2c e3       	ldi	r18, 0x3C	; 60
     b9e:	30 e0       	ldi	r19, 0x00	; 0
     ba0:	40 e0       	ldi	r20, 0x00	; 0
     ba2:	50 e0       	ldi	r21, 0x00	; 0
     ba4:	60 e2       	ldi	r22, 0x20	; 32
     ba6:	80 e0       	ldi	r24, 0x00	; 0
     ba8:	90 e0       	ldi	r25, 0x00	; 0
     baa:	6a df       	rcall	.-300    	; 0xa80 <tmc40bit_writeInt>
     bac:	26 ef       	ldi	r18, 0xF6	; 246
     bae:	3f ef       	ldi	r19, 0xFF	; 255
     bb0:	4f ef       	ldi	r20, 0xFF	; 255
     bb2:	5f ef       	ldi	r21, 0xFF	; 255
     bb4:	61 e2       	ldi	r22, 0x21	; 33
     bb6:	80 e0       	ldi	r24, 0x00	; 0
     bb8:	90 e0       	ldi	r25, 0x00	; 0
     bba:	62 df       	rcall	.-316    	; 0xa80 <tmc40bit_writeInt>
     bbc:	22 e0       	ldi	r18, 0x02	; 2
     bbe:	30 e0       	ldi	r19, 0x00	; 0
     bc0:	40 e0       	ldi	r20, 0x00	; 0
     bc2:	50 e0       	ldi	r21, 0x00	; 0
     bc4:	62 e5       	ldi	r22, 0x52	; 82
     bc6:	80 e0       	ldi	r24, 0x00	; 0
     bc8:	90 e0       	ldi	r25, 0x00	; 0
     bca:	5a df       	rcall	.-332    	; 0xa80 <tmc40bit_writeInt>
     bcc:	20 ea       	ldi	r18, 0xA0	; 160
     bce:	3f e0       	ldi	r19, 0x0F	; 15
     bd0:	40 e0       	ldi	r20, 0x00	; 0
     bd2:	50 e0       	ldi	r21, 0x00	; 0
     bd4:	64 e2       	ldi	r22, 0x24	; 36
     bd6:	80 e0       	ldi	r24, 0x00	; 0
     bd8:	90 e0       	ldi	r25, 0x00	; 0
     bda:	52 df       	rcall	.-348    	; 0xa80 <tmc40bit_writeInt>
     bdc:	28 e0       	ldi	r18, 0x08	; 8
     bde:	30 e0       	ldi	r19, 0x00	; 0
     be0:	40 e0       	ldi	r20, 0x00	; 0
     be2:	50 e0       	ldi	r21, 0x00	; 0
     be4:	63 e6       	ldi	r22, 0x63	; 99
     be6:	80 e0       	ldi	r24, 0x00	; 0
     be8:	90 e0       	ldi	r25, 0x00	; 0
     bea:	4a df       	rcall	.-364    	; 0xa80 <tmc40bit_writeInt>
     bec:	2c e3       	ldi	r18, 0x3C	; 60
     bee:	30 e0       	ldi	r19, 0x00	; 0
     bf0:	40 e0       	ldi	r20, 0x00	; 0
     bf2:	50 e0       	ldi	r21, 0x00	; 0
     bf4:	61 e2       	ldi	r22, 0x21	; 33
     bf6:	80 e0       	ldi	r24, 0x00	; 0
     bf8:	90 e0       	ldi	r25, 0x00	; 0
     bfa:	42 df       	rcall	.-380    	; 0xa80 <tmc40bit_writeInt>
	// Switch to open loop velocity mode
	tmc4671_writeInt(0, TMC4671_MODE_RAMP_MODE_MOTION, 0x00000008);

	// Rotate right
	tmc4671_writeInt(0, TMC4671_OPENLOOP_VELOCITY_TARGET, 0x0000003C);
	int val = 0;
     bfc:	00 e0       	ldi	r16, 0x00	; 0
    } else if (__radix < 2 || __radix > 36) {
	*__s = 0;
	return __s;
    } else {
	extern char *__itoa_ncheck (int, char *, unsigned char);
	return __itoa_ncheck (__val, __s, __radix);
     bfe:	10 e0       	ldi	r17, 0x00	; 0
     c00:	4a e0       	ldi	r20, 0x0A	; 10
     c02:	be 01       	movw	r22, r28
     c04:	6f 5f       	subi	r22, 0xFF	; 255
     c06:	7f 4f       	sbci	r23, 0xFF	; 255
     c08:	c8 01       	movw	r24, r16
{
	itoa((int)val,(char *)ch4,10);
// 	Uart_Transmit_IT_2(ab,strlen((const char*)ab));
// 	Uart_Transmit_IT_2((unsigned char *)ch4,2);
// 	Uart_Transmit_IT_2((unsigned char *)ch3,3);
	nextion_setValue((unsigned char *)"j0",(unsigned char *)ch4,1);
     c0a:	4c d5       	rcall	.+2712   	; 0x16a4 <__itoa_ncheck>
     c0c:	41 e0       	ldi	r20, 0x01	; 1
     c0e:	be 01       	movw	r22, r28
     c10:	6f 5f       	subi	r22, 0xFF	; 255
     c12:	7f 4f       	sbci	r23, 0xFF	; 255
     c14:	84 e9       	ldi	r24, 0x94	; 148
     c16:	92 e0       	ldi	r25, 0x02	; 2
     c18:	3a dd       	rcall	.-1420   	; 0x68e <nextion_setValue>
     c1a:	2f ef       	ldi	r18, 0xFF	; 255
     c1c:	80 e7       	ldi	r24, 0x70	; 112
     c1e:	92 e0       	ldi	r25, 0x02	; 2
     c20:	21 50       	subi	r18, 0x01	; 1
     c22:	80 40       	sbci	r24, 0x00	; 0
     c24:	90 40       	sbci	r25, 0x00	; 0
     c26:	e1 f7       	brne	.-8      	; 0xc20 <initTMC4671_Openloop+0xaa>
     c28:	00 c0       	rjmp	.+0      	; 0xc2a <initTMC4671_Openloop+0xb4>
     c2a:	00 00       	nop
	_delay_ms(50);
	val++;
     c2c:	0f 5f       	subi	r16, 0xFF	; 255
     c2e:	1f 4f       	sbci	r17, 0xFF	; 255
	// Rotate right
	tmc4671_writeInt(0, TMC4671_OPENLOOP_VELOCITY_TARGET, 0x0000003C);
	int val = 0;
	unsigned char ch4 [10];

for (char i =0;i<50;i++)
     c30:	02 33       	cpi	r16, 0x32	; 50
     c32:	11 05       	cpc	r17, r1
	tmc40bit_writeInt(motor, address, value);
}

void tmc4671_writeInt(unsigned int motor, unsigned char address, unsigned long value)
{
	tmc40bit_writeInt(motor, address, value);
     c34:	29 f7       	brne	.-54     	; 0xc00 <initTMC4671_Openloop+0x8a>
     c36:	24 ec       	ldi	r18, 0xC4	; 196
     c38:	3f ef       	ldi	r19, 0xFF	; 255
     c3a:	4f ef       	ldi	r20, 0xFF	; 255
     c3c:	5f ef       	ldi	r21, 0xFF	; 255
     c3e:	61 e2       	ldi	r22, 0x21	; 33
     c40:	80 e0       	ldi	r24, 0x00	; 0
     c42:	90 e0       	ldi	r25, 0x00	; 0
     c44:	1d df       	rcall	.-454    	; 0xa80 <tmc40bit_writeInt>
     c46:	4a e0       	ldi	r20, 0x0A	; 10
     c48:	be 01       	movw	r22, r28
     c4a:	6f 5f       	subi	r22, 0xFF	; 255
     c4c:	7f 4f       	sbci	r23, 0xFF	; 255
     c4e:	c8 01       	movw	r24, r16
{
	itoa(val,(char *)ch4,10);
// 	Uart_Transmit_IT_2(ab,strlen((const char*)ab));
// 	Uart_Transmit_IT_2((unsigned char *)ch4,2);
// 	Uart_Transmit_IT_2((unsigned char *)ch3,3);
	nextion_setValue((unsigned char *)"j0",(unsigned char *)ch4,1);
     c50:	29 d5       	rcall	.+2642   	; 0x16a4 <__itoa_ncheck>
     c52:	41 e0       	ldi	r20, 0x01	; 1
     c54:	be 01       	movw	r22, r28
     c56:	6f 5f       	subi	r22, 0xFF	; 255
     c58:	7f 4f       	sbci	r23, 0xFF	; 255
     c5a:	84 e9       	ldi	r24, 0x94	; 148
     c5c:	92 e0       	ldi	r25, 0x02	; 2
     c5e:	17 dd       	rcall	.-1490   	; 0x68e <nextion_setValue>
     c60:	2f ef       	ldi	r18, 0xFF	; 255
     c62:	80 e7       	ldi	r24, 0x70	; 112
     c64:	92 e0       	ldi	r25, 0x02	; 2
     c66:	21 50       	subi	r18, 0x01	; 1
     c68:	80 40       	sbci	r24, 0x00	; 0
     c6a:	90 40       	sbci	r25, 0x00	; 0
     c6c:	e1 f7       	brne	.-8      	; 0xc66 <initTMC4671_Openloop+0xf0>
     c6e:	00 c0       	rjmp	.+0      	; 0xc70 <initTMC4671_Openloop+0xfa>
	_delay_ms(50);
	val++;
     c70:	00 00       	nop
     c72:	0f 5f       	subi	r16, 0xFF	; 255
}

	// Rotate left
	tmc4671_writeInt(0, TMC4671_OPENLOOP_VELOCITY_TARGET, 0xFFFFFFC4);
	
for (unsigned char i =0;i<50;i++)
     c74:	1f 4f       	sbci	r17, 0xFF	; 255
     c76:	04 36       	cpi	r16, 0x64	; 100
     c78:	11 05       	cpc	r17, r1
	tmc40bit_writeInt(motor, address, value);
}

void tmc4671_writeInt(unsigned int motor, unsigned char address, unsigned long value)
{
	tmc40bit_writeInt(motor, address, value);
     c7a:	29 f7       	brne	.-54     	; 0xc46 <initTMC4671_Openloop+0xd0>
     c7c:	20 e0       	ldi	r18, 0x00	; 0
     c7e:	30 e0       	ldi	r19, 0x00	; 0
     c80:	a9 01       	movw	r20, r18
     c82:	61 e2       	ldi	r22, 0x21	; 33
     c84:	80 e0       	ldi	r24, 0x00	; 0
     c86:	90 e0       	ldi	r25, 0x00	; 0
     c88:	fb de       	rcall	.-522    	; 0xa80 <tmc40bit_writeInt>
     c8a:	20 e0       	ldi	r18, 0x00	; 0
     c8c:	30 e0       	ldi	r19, 0x00	; 0
     c8e:	a9 01       	movw	r20, r18
     c90:	64 e2       	ldi	r22, 0x24	; 36
     c92:	80 e0       	ldi	r24, 0x00	; 0
     c94:	90 e0       	ldi	r25, 0x00	; 0
     c96:	f4 de       	rcall	.-536    	; 0xa80 <tmc40bit_writeInt>
	val++;
}
	// Stop
	tmc4671_writeInt(0, TMC4671_OPENLOOP_VELOCITY_TARGET, 0x00000000);
	tmc4671_writeInt(0, TMC4671_UQ_UD_EXT, 0x00000000);
}
     c98:	2a 96       	adiw	r28, 0x0a	; 10
     c9a:	0f b6       	in	r0, 0x3f	; 63
     c9c:	f8 94       	cli
     c9e:	de bf       	out	0x3e, r29	; 62
     ca0:	0f be       	out	0x3f, r0	; 63
     ca2:	cd bf       	out	0x3d, r28	; 61
     ca4:	df 91       	pop	r29
     ca6:	cf 91       	pop	r28
     ca8:	1f 91       	pop	r17
     caa:	0f 91       	pop	r16
     cac:	08 95       	ret

00000cae <tx_completed>:
	Uart_EnableTransmitIT_2();
}

void tx_completed()
{
	asm("nop");
     cae:	00 00       	nop
	asm("nop");
     cb0:	00 00       	nop
     cb2:	08 95       	ret

00000cb4 <UART_init>:
void (*ptr_tx_completed_0)(void);
void (*ptr_tx_completed_1)(void);
void (*ptr_tx_completed_2)(void);

void UART_init()
{
     cb4:	ef 92       	push	r14
     cb6:	ff 92       	push	r15
     cb8:	0f 93       	push	r16
     cba:	1f 93       	push	r17
     cbc:	cf 93       	push	r28
     cbe:	df 93       	push	r29
	UBRR0H = UBRRH_VALUE;
     cc0:	10 92 c5 00 	sts	0x00C5, r1	; 0x8000c5 <__TEXT_REGION_LENGTH__+0x7000c5>
	UBRR0L = UBRRL_VALUE;
     cc4:	27 e6       	ldi	r18, 0x67	; 103
     cc6:	20 93 c4 00 	sts	0x00C4, r18	; 0x8000c4 <__TEXT_REGION_LENGTH__+0x7000c4>
	UCSR0B = (1<<RXEN0)|(1<<TXEN0)|(1<<RXCIE0);
     cca:	0f 2e       	mov	r0, r31
     ccc:	f1 ec       	ldi	r31, 0xC1	; 193
     cce:	ef 2e       	mov	r14, r31
     cd0:	f1 2c       	mov	r15, r1
     cd2:	f0 2d       	mov	r31, r0
     cd4:	98 e9       	ldi	r25, 0x98	; 152
     cd6:	f7 01       	movw	r30, r14
     cd8:	90 83       	st	Z, r25
	UCSR0C = (1<<UCSZ00)|(1<<UCSZ01);	
     cda:	86 e0       	ldi	r24, 0x06	; 6
     cdc:	80 93 c2 00 	sts	0x00C2, r24	; 0x8000c2 <__TEXT_REGION_LENGTH__+0x7000c2>
	
	UBRR1H = UBRRH_VALUE;
     ce0:	10 92 cd 00 	sts	0x00CD, r1	; 0x8000cd <__TEXT_REGION_LENGTH__+0x7000cd>
	UBRR1L = UBRRL_VALUE;
     ce4:	20 93 cc 00 	sts	0x00CC, r18	; 0x8000cc <__TEXT_REGION_LENGTH__+0x7000cc>
	UCSR1B = (1<<RXEN1)|(1<<TXEN1)|(1<<RXCIE1);
     ce8:	09 ec       	ldi	r16, 0xC9	; 201
     cea:	10 e0       	ldi	r17, 0x00	; 0
     cec:	f8 01       	movw	r30, r16
     cee:	90 83       	st	Z, r25
	UCSR1C = (1<<UCSZ10)|(1<<UCSZ11);
     cf0:	80 93 ca 00 	sts	0x00CA, r24	; 0x8000ca <__TEXT_REGION_LENGTH__+0x7000ca>
	
	UBRR2H = UBRRH_VALUE;
     cf4:	10 92 d5 00 	sts	0x00D5, r1	; 0x8000d5 <__TEXT_REGION_LENGTH__+0x7000d5>
	UBRR2L = UBRRL_VALUE;
     cf8:	20 93 d4 00 	sts	0x00D4, r18	; 0x8000d4 <__TEXT_REGION_LENGTH__+0x7000d4>
	UCSR2B = (1<<RXEN2)|(1<<TXEN2)|(1<<RXCIE2);
     cfc:	c1 ed       	ldi	r28, 0xD1	; 209
     cfe:	d0 e0       	ldi	r29, 0x00	; 0
     d00:	98 83       	st	Y, r25
	UCSR2C = (1<<UCSZ20)|(1<<UCSZ21);
     d02:	80 93 d2 00 	sts	0x00D2, r24	; 0x8000d2 <__TEXT_REGION_LENGTH__+0x7000d2>
	
	RB_init(&rb_tx_PC);
     d06:	80 e1       	ldi	r24, 0x10	; 16
     d08:	95 e0       	ldi	r25, 0x05	; 5
     d0a:	e4 dd       	rcall	.-1080   	; 0x8d4 <RB_init>
	RB_init(&rb_rx_PC);
     d0c:	89 e4       	ldi	r24, 0x49	; 73
     d0e:	9d e0       	ldi	r25, 0x0D	; 13
     d10:	e1 dd       	rcall	.-1086   	; 0x8d4 <RB_init>
	
	RB_init(&rb_tx_Display);
     d12:	8b e2       	ldi	r24, 0x2B	; 43
     d14:	96 e0       	ldi	r25, 0x06	; 6
     d16:	de dd       	rcall	.-1092   	; 0x8d4 <RB_init>
	RB_init(&rb_rx_Display);
     d18:	87 e4       	ldi	r24, 0x47	; 71
     d1a:	9a e0       	ldi	r25, 0x0A	; 10
     d1c:	db dd       	rcall	.-1098   	; 0x8d4 <RB_init>
	
	RB_init(&rb_tx_ESP);
     d1e:	8a e4       	ldi	r24, 0x4A	; 74
     d20:	9e e0       	ldi	r25, 0x0E	; 14
     d22:	d8 dd       	rcall	.-1104   	; 0x8d4 <RB_init>
	RB_init(&rb_rx_ESP);
     d24:	86 e4       	ldi	r24, 0x46	; 70
     d26:	99 e0       	ldi	r25, 0x09	; 9
     d28:	d5 dd       	rcall	.-1110   	; 0x8d4 <RB_init>
     d2a:	f7 01       	movw	r30, r14
	
	Uart_EnableRxIT_0();
     d2c:	80 81       	ld	r24, Z
     d2e:	80 68       	ori	r24, 0x80	; 128
     d30:	80 83       	st	Z, r24
     d32:	f8 01       	movw	r30, r16
	
	Uart_EnableRxIT_1();
     d34:	80 81       	ld	r24, Z
     d36:	80 68       	ori	r24, 0x80	; 128
     d38:	80 83       	st	Z, r24
     d3a:	88 81       	ld	r24, Y

	Uart_EnableRxIT_2();
     d3c:	80 68       	ori	r24, 0x80	; 128
     d3e:	88 83       	st	Y, r24
     d40:	78 94       	sei

	sei();
     d42:	87 e5       	ldi	r24, 0x57	; 87
	
	ptr_tx_completed_0=tx_completed;
     d44:	96 e0       	ldi	r25, 0x06	; 6
     d46:	90 93 0f 05 	sts	0x050F, r25	; 0x80050f <ptr_tx_completed_0+0x1>
     d4a:	80 93 0e 05 	sts	0x050E, r24	; 0x80050e <ptr_tx_completed_0>
     d4e:	90 93 0b 05 	sts	0x050B, r25	; 0x80050b <ptr_tx_completed_1+0x1>
	ptr_tx_completed_1=tx_completed;
     d52:	80 93 0a 05 	sts	0x050A, r24	; 0x80050a <ptr_tx_completed_1>
     d56:	90 93 0d 05 	sts	0x050D, r25	; 0x80050d <ptr_tx_completed_2+0x1>
	ptr_tx_completed_2=tx_completed;
     d5a:	80 93 0c 05 	sts	0x050C, r24	; 0x80050c <ptr_tx_completed_2>
     d5e:	df 91       	pop	r29
}
     d60:	cf 91       	pop	r28
     d62:	1f 91       	pop	r17
     d64:	0f 91       	pop	r16
     d66:	ff 90       	pop	r15
     d68:	ef 90       	pop	r14
     d6a:	08 95       	ret

00000d6c <Uart_Transmit_IT_PC>:
     d6c:	46 2f       	mov	r20, r22

void Uart_Transmit_IT_PC(unsigned char *data, unsigned char nbytes )
{
	RB_write(&rb_tx_PC, data, nbytes);
     d6e:	bc 01       	movw	r22, r24
     d70:	80 e1       	ldi	r24, 0x10	; 16
     d72:	95 e0       	ldi	r25, 0x05	; 5
     d74:	fb dd       	rcall	.-1034   	; 0x96c <RB_write>
	Uart_EnableTransmitIT_0();
     d76:	e1 ec       	ldi	r30, 0xC1	; 193
     d78:	f0 e0       	ldi	r31, 0x00	; 0
     d7a:	80 81       	ld	r24, Z
     d7c:	80 62       	ori	r24, 0x20	; 32
     d7e:	80 83       	st	Z, r24
     d80:	08 95       	ret

00000d82 <Uart_Transmit_IT_Display>:
}

void Uart_Transmit_IT_Display(unsigned char *data, unsigned char nbytes )
{
     d82:	46 2f       	mov	r20, r22
	RB_write(&rb_tx_Display, data, nbytes);
     d84:	bc 01       	movw	r22, r24
     d86:	8b e2       	ldi	r24, 0x2B	; 43
     d88:	96 e0       	ldi	r25, 0x06	; 6
     d8a:	f0 dd       	rcall	.-1056   	; 0x96c <RB_write>
	Uart_EnableTransmitIT_1();
     d8c:	e9 ec       	ldi	r30, 0xC9	; 201
     d8e:	f0 e0       	ldi	r31, 0x00	; 0
     d90:	80 81       	ld	r24, Z
     d92:	80 62       	ori	r24, 0x20	; 32
     d94:	80 83       	st	Z, r24
     d96:	08 95       	ret

00000d98 <Uart_Transmit_IT_ESP>:
}

void Uart_Transmit_IT_ESP(unsigned char *data, unsigned char nbytes )
{
     d98:	46 2f       	mov	r20, r22
	RB_write(&rb_tx_ESP, data, nbytes);
     d9a:	bc 01       	movw	r22, r24
     d9c:	8a e4       	ldi	r24, 0x4A	; 74
     d9e:	9e e0       	ldi	r25, 0x0E	; 14
     da0:	e5 dd       	rcall	.-1078   	; 0x96c <RB_write>
	Uart_EnableTransmitIT_2();
     da2:	e1 ed       	ldi	r30, 0xD1	; 209
     da4:	f0 e0       	ldi	r31, 0x00	; 0
     da6:	80 81       	ld	r24, Z
     da8:	80 62       	ori	r24, 0x20	; 32
     daa:	80 83       	st	Z, r24
     dac:	08 95       	ret

00000dae <__vector_26>:
	asm("nop");
	asm("nop");
}

ISR(USART0_UDRE_vect)
{
     dae:	1f 92       	push	r1
     db0:	0f 92       	push	r0
     db2:	0f b6       	in	r0, 0x3f	; 63
     db4:	0f 92       	push	r0
     db6:	11 24       	eor	r1, r1
     db8:	0b b6       	in	r0, 0x3b	; 59
     dba:	0f 92       	push	r0
     dbc:	2f 93       	push	r18
     dbe:	3f 93       	push	r19
     dc0:	4f 93       	push	r20
     dc2:	5f 93       	push	r21
     dc4:	6f 93       	push	r22
     dc6:	7f 93       	push	r23
     dc8:	8f 93       	push	r24
     dca:	9f 93       	push	r25
     dcc:	af 93       	push	r26
     dce:	bf 93       	push	r27
     dd0:	ef 93       	push	r30
     dd2:	ff 93       	push	r31
	if (RB_length(&rb_tx_PC) > 0)
     dd4:	80 e1       	ldi	r24, 0x10	; 16
     dd6:	95 e0       	ldi	r25, 0x05	; 5
     dd8:	8c dd       	rcall	.-1256   	; 0x8f2 <RB_length>
     dda:	88 23       	and	r24, r24
     ddc:	31 f0       	breq	.+12     	; 0xdea <__vector_26+0x3c>
	{
		UDR0 = RB_readByte(&rb_tx_PC);
     dde:	80 e1       	ldi	r24, 0x10	; 16
     de0:	95 e0       	ldi	r25, 0x05	; 5
     de2:	93 dd       	rcall	.-1242   	; 0x90a <RB_readByte>
     de4:	80 93 c6 00 	sts	0x00C6, r24	; 0x8000c6 <__TEXT_REGION_LENGTH__+0x7000c6>
     de8:	0c c0       	rjmp	.+24     	; 0xe02 <__vector_26+0x54>
	}
	else
	{
		Uart_DisableTransmitIT_0();
     dea:	e1 ec       	ldi	r30, 0xC1	; 193
     dec:	f0 e0       	ldi	r31, 0x00	; 0
     dee:	80 81       	ld	r24, Z
     df0:	8f 7d       	andi	r24, 0xDF	; 223
     df2:	80 83       	st	Z, r24
		if(ptr_tx_completed_0 != 0)
     df4:	e0 91 0e 05 	lds	r30, 0x050E	; 0x80050e <ptr_tx_completed_0>
     df8:	f0 91 0f 05 	lds	r31, 0x050F	; 0x80050f <ptr_tx_completed_0+0x1>
     dfc:	30 97       	sbiw	r30, 0x00	; 0
     dfe:	09 f0       	breq	.+2      	; 0xe02 <__vector_26+0x54>
			ptr_tx_completed_0();
     e00:	19 95       	eicall
	}
}
     e02:	ff 91       	pop	r31
     e04:	ef 91       	pop	r30
     e06:	bf 91       	pop	r27
     e08:	af 91       	pop	r26
     e0a:	9f 91       	pop	r25
     e0c:	8f 91       	pop	r24
     e0e:	7f 91       	pop	r23
     e10:	6f 91       	pop	r22
     e12:	5f 91       	pop	r21
     e14:	4f 91       	pop	r20
     e16:	3f 91       	pop	r19
     e18:	2f 91       	pop	r18
     e1a:	0f 90       	pop	r0
     e1c:	0b be       	out	0x3b, r0	; 59
     e1e:	0f 90       	pop	r0
     e20:	0f be       	out	0x3f, r0	; 63
     e22:	0f 90       	pop	r0
     e24:	1f 90       	pop	r1
     e26:	18 95       	reti

00000e28 <__vector_25>:

ISR(USART0_RX_vect)
{	
     e28:	1f 92       	push	r1
     e2a:	0f 92       	push	r0
     e2c:	0f b6       	in	r0, 0x3f	; 63
     e2e:	0f 92       	push	r0
     e30:	11 24       	eor	r1, r1
     e32:	0b b6       	in	r0, 0x3b	; 59
     e34:	0f 92       	push	r0
     e36:	2f 93       	push	r18
     e38:	3f 93       	push	r19
     e3a:	4f 93       	push	r20
     e3c:	5f 93       	push	r21
     e3e:	6f 93       	push	r22
     e40:	7f 93       	push	r23
     e42:	8f 93       	push	r24
     e44:	9f 93       	push	r25
     e46:	af 93       	push	r26
     e48:	bf 93       	push	r27
     e4a:	ef 93       	push	r30
     e4c:	ff 93       	push	r31
	RB_writeByte(&rb_rx_PC,UDR0);
     e4e:	60 91 c6 00 	lds	r22, 0x00C6	; 0x8000c6 <__TEXT_REGION_LENGTH__+0x7000c6>
     e52:	89 e4       	ldi	r24, 0x49	; 73
     e54:	9d e0       	ldi	r25, 0x0D	; 13
     e56:	6d dd       	rcall	.-1318   	; 0x932 <RB_writeByte>
}
     e58:	ff 91       	pop	r31
     e5a:	ef 91       	pop	r30
     e5c:	bf 91       	pop	r27
     e5e:	af 91       	pop	r26
     e60:	9f 91       	pop	r25
     e62:	8f 91       	pop	r24
     e64:	7f 91       	pop	r23
     e66:	6f 91       	pop	r22
     e68:	5f 91       	pop	r21
     e6a:	4f 91       	pop	r20
     e6c:	3f 91       	pop	r19
     e6e:	2f 91       	pop	r18
     e70:	0f 90       	pop	r0
     e72:	0b be       	out	0x3b, r0	; 59
     e74:	0f 90       	pop	r0
     e76:	0f be       	out	0x3f, r0	; 63
     e78:	0f 90       	pop	r0
     e7a:	1f 90       	pop	r1
     e7c:	18 95       	reti

00000e7e <__vector_37>:

ISR(USART1_UDRE_vect)
{
     e7e:	1f 92       	push	r1
     e80:	0f 92       	push	r0
     e82:	0f b6       	in	r0, 0x3f	; 63
     e84:	0f 92       	push	r0
     e86:	11 24       	eor	r1, r1
     e88:	0b b6       	in	r0, 0x3b	; 59
     e8a:	0f 92       	push	r0
     e8c:	2f 93       	push	r18
     e8e:	3f 93       	push	r19
     e90:	4f 93       	push	r20
     e92:	5f 93       	push	r21
     e94:	6f 93       	push	r22
     e96:	7f 93       	push	r23
     e98:	8f 93       	push	r24
     e9a:	9f 93       	push	r25
     e9c:	af 93       	push	r26
     e9e:	bf 93       	push	r27
     ea0:	ef 93       	push	r30
     ea2:	ff 93       	push	r31
	if (RB_length(&rb_tx_Display) > 0)
     ea4:	8b e2       	ldi	r24, 0x2B	; 43
     ea6:	96 e0       	ldi	r25, 0x06	; 6
     ea8:	24 dd       	rcall	.-1464   	; 0x8f2 <RB_length>
     eaa:	88 23       	and	r24, r24
     eac:	31 f0       	breq	.+12     	; 0xeba <__vector_37+0x3c>
	{
		UDR1 = RB_readByte(&rb_tx_Display);
     eae:	8b e2       	ldi	r24, 0x2B	; 43
     eb0:	96 e0       	ldi	r25, 0x06	; 6
     eb2:	2b dd       	rcall	.-1450   	; 0x90a <RB_readByte>
     eb4:	80 93 ce 00 	sts	0x00CE, r24	; 0x8000ce <__TEXT_REGION_LENGTH__+0x7000ce>
     eb8:	0c c0       	rjmp	.+24     	; 0xed2 <__vector_37+0x54>
	}
	else
	{
		Uart_DisableTransmitIT_1();
     eba:	e9 ec       	ldi	r30, 0xC9	; 201
     ebc:	f0 e0       	ldi	r31, 0x00	; 0
     ebe:	80 81       	ld	r24, Z
     ec0:	8f 7d       	andi	r24, 0xDF	; 223
     ec2:	80 83       	st	Z, r24
		if(ptr_tx_completed_1 != 0)
     ec4:	e0 91 0a 05 	lds	r30, 0x050A	; 0x80050a <ptr_tx_completed_1>
     ec8:	f0 91 0b 05 	lds	r31, 0x050B	; 0x80050b <ptr_tx_completed_1+0x1>
     ecc:	30 97       	sbiw	r30, 0x00	; 0
     ece:	09 f0       	breq	.+2      	; 0xed2 <__vector_37+0x54>
		ptr_tx_completed_1();
     ed0:	19 95       	eicall
	}
}
     ed2:	ff 91       	pop	r31
     ed4:	ef 91       	pop	r30
     ed6:	bf 91       	pop	r27
     ed8:	af 91       	pop	r26
     eda:	9f 91       	pop	r25
     edc:	8f 91       	pop	r24
     ede:	7f 91       	pop	r23
     ee0:	6f 91       	pop	r22
     ee2:	5f 91       	pop	r21
     ee4:	4f 91       	pop	r20
     ee6:	3f 91       	pop	r19
     ee8:	2f 91       	pop	r18
     eea:	0f 90       	pop	r0
     eec:	0b be       	out	0x3b, r0	; 59
     eee:	0f 90       	pop	r0
     ef0:	0f be       	out	0x3f, r0	; 63
     ef2:	0f 90       	pop	r0
     ef4:	1f 90       	pop	r1
     ef6:	18 95       	reti

00000ef8 <__vector_36>:

ISR(USART1_RX_vect)
{
     ef8:	1f 92       	push	r1
     efa:	0f 92       	push	r0
     efc:	0f b6       	in	r0, 0x3f	; 63
     efe:	0f 92       	push	r0
     f00:	11 24       	eor	r1, r1
     f02:	0b b6       	in	r0, 0x3b	; 59
     f04:	0f 92       	push	r0
     f06:	2f 93       	push	r18
     f08:	3f 93       	push	r19
     f0a:	4f 93       	push	r20
     f0c:	5f 93       	push	r21
     f0e:	6f 93       	push	r22
     f10:	7f 93       	push	r23
     f12:	8f 93       	push	r24
     f14:	9f 93       	push	r25
     f16:	af 93       	push	r26
     f18:	bf 93       	push	r27
     f1a:	ef 93       	push	r30
     f1c:	ff 93       	push	r31
	char ch = UDR1;
     f1e:	60 91 ce 00 	lds	r22, 0x00CE	; 0x8000ce <__TEXT_REGION_LENGTH__+0x7000ce>
	RB_writeByte(&rb_rx_Display,ch);
     f22:	87 e4       	ldi	r24, 0x47	; 71
     f24:	9a e0       	ldi	r25, 0x0A	; 10
     f26:	05 dd       	rcall	.-1526   	; 0x932 <RB_writeByte>
}
     f28:	ff 91       	pop	r31
     f2a:	ef 91       	pop	r30
     f2c:	bf 91       	pop	r27
     f2e:	af 91       	pop	r26
     f30:	9f 91       	pop	r25
     f32:	8f 91       	pop	r24
     f34:	7f 91       	pop	r23
     f36:	6f 91       	pop	r22
     f38:	5f 91       	pop	r21
     f3a:	4f 91       	pop	r20
     f3c:	3f 91       	pop	r19
     f3e:	2f 91       	pop	r18
     f40:	0f 90       	pop	r0
     f42:	0b be       	out	0x3b, r0	; 59
     f44:	0f 90       	pop	r0
     f46:	0f be       	out	0x3f, r0	; 63
     f48:	0f 90       	pop	r0
     f4a:	1f 90       	pop	r1
     f4c:	18 95       	reti

00000f4e <__vector_52>:

ISR(USART2_UDRE_vect)
{
     f4e:	1f 92       	push	r1
     f50:	0f 92       	push	r0
     f52:	0f b6       	in	r0, 0x3f	; 63
     f54:	0f 92       	push	r0
     f56:	11 24       	eor	r1, r1
     f58:	0b b6       	in	r0, 0x3b	; 59
     f5a:	0f 92       	push	r0
     f5c:	2f 93       	push	r18
     f5e:	3f 93       	push	r19
     f60:	4f 93       	push	r20
     f62:	5f 93       	push	r21
     f64:	6f 93       	push	r22
     f66:	7f 93       	push	r23
     f68:	8f 93       	push	r24
     f6a:	9f 93       	push	r25
     f6c:	af 93       	push	r26
     f6e:	bf 93       	push	r27
     f70:	ef 93       	push	r30
     f72:	ff 93       	push	r31
	if (RB_length(&rb_tx_ESP) > 0)
     f74:	8a e4       	ldi	r24, 0x4A	; 74
     f76:	9e e0       	ldi	r25, 0x0E	; 14
     f78:	bc dc       	rcall	.-1672   	; 0x8f2 <RB_length>
     f7a:	88 23       	and	r24, r24
     f7c:	31 f0       	breq	.+12     	; 0xf8a <__vector_52+0x3c>
	{
		UDR2 = RB_readByte(&rb_tx_ESP);
     f7e:	8a e4       	ldi	r24, 0x4A	; 74
     f80:	9e e0       	ldi	r25, 0x0E	; 14
     f82:	c3 dc       	rcall	.-1658   	; 0x90a <RB_readByte>
     f84:	80 93 d6 00 	sts	0x00D6, r24	; 0x8000d6 <__TEXT_REGION_LENGTH__+0x7000d6>
     f88:	0c c0       	rjmp	.+24     	; 0xfa2 <__vector_52+0x54>
	}
	else
	{
		Uart_DisableTransmitIT_2();
     f8a:	e1 ed       	ldi	r30, 0xD1	; 209
     f8c:	f0 e0       	ldi	r31, 0x00	; 0
     f8e:	80 81       	ld	r24, Z
     f90:	8f 7d       	andi	r24, 0xDF	; 223
     f92:	80 83       	st	Z, r24
		if(ptr_tx_completed_2 != 0)
     f94:	e0 91 0c 05 	lds	r30, 0x050C	; 0x80050c <ptr_tx_completed_2>
     f98:	f0 91 0d 05 	lds	r31, 0x050D	; 0x80050d <ptr_tx_completed_2+0x1>
     f9c:	30 97       	sbiw	r30, 0x00	; 0
     f9e:	09 f0       	breq	.+2      	; 0xfa2 <__vector_52+0x54>
		ptr_tx_completed_2();
     fa0:	19 95       	eicall
	}
}
     fa2:	ff 91       	pop	r31
     fa4:	ef 91       	pop	r30
     fa6:	bf 91       	pop	r27
     fa8:	af 91       	pop	r26
     faa:	9f 91       	pop	r25
     fac:	8f 91       	pop	r24
     fae:	7f 91       	pop	r23
     fb0:	6f 91       	pop	r22
     fb2:	5f 91       	pop	r21
     fb4:	4f 91       	pop	r20
     fb6:	3f 91       	pop	r19
     fb8:	2f 91       	pop	r18
     fba:	0f 90       	pop	r0
     fbc:	0b be       	out	0x3b, r0	; 59
     fbe:	0f 90       	pop	r0
     fc0:	0f be       	out	0x3f, r0	; 63
     fc2:	0f 90       	pop	r0
     fc4:	1f 90       	pop	r1
     fc6:	18 95       	reti

00000fc8 <__vector_51>:

ISR(USART2_RX_vect)
{
     fc8:	1f 92       	push	r1
     fca:	0f 92       	push	r0
     fcc:	0f b6       	in	r0, 0x3f	; 63
     fce:	0f 92       	push	r0
     fd0:	11 24       	eor	r1, r1
     fd2:	0b b6       	in	r0, 0x3b	; 59
     fd4:	0f 92       	push	r0
     fd6:	2f 93       	push	r18
     fd8:	3f 93       	push	r19
     fda:	4f 93       	push	r20
     fdc:	5f 93       	push	r21
     fde:	6f 93       	push	r22
     fe0:	7f 93       	push	r23
     fe2:	8f 93       	push	r24
     fe4:	9f 93       	push	r25
     fe6:	af 93       	push	r26
     fe8:	bf 93       	push	r27
     fea:	ef 93       	push	r30
     fec:	ff 93       	push	r31
	char ch = UDR2;
     fee:	60 91 d6 00 	lds	r22, 0x00D6	; 0x8000d6 <__TEXT_REGION_LENGTH__+0x7000d6>
	RB_writeByte(&rb_rx_ESP,ch);
     ff2:	86 e4       	ldi	r24, 0x46	; 70
     ff4:	99 e0       	ldi	r25, 0x09	; 9
     ff6:	9d dc       	rcall	.-1734   	; 0x932 <RB_writeByte>
     ff8:	ff 91       	pop	r31
     ffa:	ef 91       	pop	r30
     ffc:	bf 91       	pop	r27
     ffe:	af 91       	pop	r26
    1000:	9f 91       	pop	r25
    1002:	8f 91       	pop	r24
    1004:	7f 91       	pop	r23
    1006:	6f 91       	pop	r22
    1008:	5f 91       	pop	r21
    100a:	4f 91       	pop	r20
    100c:	3f 91       	pop	r19
    100e:	2f 91       	pop	r18
    1010:	0f 90       	pop	r0
    1012:	0b be       	out	0x3b, r0	; 59
    1014:	0f 90       	pop	r0
    1016:	0f be       	out	0x3f, r0	; 63
    1018:	0f 90       	pop	r0
    101a:	1f 90       	pop	r1
    101c:	18 95       	reti

0000101e <buttonCallback>:
	}
}

void buttonCallback(void *ptr)
{
	TOGGLE_LED();
    101e:	85 b1       	in	r24, 0x05	; 5
    1020:	80 58       	subi	r24, 0x80	; 128
    1022:	85 b9       	out	0x05, r24	; 5
    1024:	08 95       	ret

00001026 <sliderCallback>:
}

void sliderCallback(void *ptr)
{
	TOGGLE_LED();
    1026:	85 b1       	in	r24, 0x05	; 5
    1028:	80 58       	subi	r24, 0x80	; 128
    102a:	85 b9       	out	0x05, r24	; 5
    102c:	08 95       	ret

0000102e <main>:
// MainLoop
int main(void)
{	
	
//Initialisierungen
	IO_init();
    102e:	70 d0       	rcall	.+224    	; 0x1110 <IO_init>
	TIMER_init();
    1030:	75 d0       	rcall	.+234    	; 0x111c <TIMER_init>
	SPI_init();
    1032:	d1 dc       	rcall	.-1630   	; 0x9d6 <SPI_init>
	UART_init();
    1034:	3f de       	rcall	.-898    	; 0xcb4 <UART_init>
    1036:	43 dd       	rcall	.-1402   	; 0xabe <TMC4671_init>
	TMC4671_init();
    1038:	ec e2       	ldi	r30, 0x2C	; 44
    103a:	f9 e0       	ldi	r31, 0x09	; 9
	
    CreateNexObject(button, buttonPageID, buttonID, "b1");
    103c:	8f ef       	ldi	r24, 0xFF	; 255
    103e:	80 83       	st	Z, r24
    1040:	81 eb       	ldi	r24, 0xB1	; 177
    1042:	81 83       	std	Z+1, r24	; 0x01
    1044:	ce e2       	ldi	r28, 0x2E	; 46
    1046:	d9 e0       	ldi	r29, 0x09	; 9
    1048:	fe 01       	movw	r30, r28
    104a:	01 90       	ld	r0, Z+
    104c:	00 20       	and	r0, r0
    104e:	e9 f7       	brne	.-6      	; 0x104a <main+0x1c>
    1050:	af 01       	movw	r20, r30
    1052:	4f 52       	subi	r20, 0x2F	; 47
    1054:	59 40       	sbci	r21, 0x09	; 9
    1056:	60 e0       	ldi	r22, 0x00	; 0
    1058:	70 e0       	ldi	r23, 0x00	; 0
    105a:	ce 01       	movw	r24, r28
    105c:	11 d3       	rcall	.+1570   	; 0x1680 <memset>
    105e:	82 e6       	ldi	r24, 0x62	; 98
    1060:	91 e3       	ldi	r25, 0x31	; 49
    1062:	99 83       	std	Y+1, r25	; 0x01
    1064:	88 83       	st	Y, r24
    1066:	e1 e1       	ldi	r30, 0x11	; 17
    1068:	f6 e0       	ldi	r31, 0x06	; 6
    CreateNexObject(slider, sliderPageID, sliderID, "MySlider");
    106a:	10 82       	st	Z, r1
    106c:	82 e0       	ldi	r24, 0x02	; 2
    106e:	81 83       	std	Z+1, r24	; 0x01
    1070:	e3 e1       	ldi	r30, 0x13	; 19
    1072:	f6 e0       	ldi	r31, 0x06	; 6
    1074:	01 90       	ld	r0, Z+
    1076:	00 20       	and	r0, r0
    1078:	e9 f7       	brne	.-6      	; 0x1074 <main+0x46>
    107a:	af 01       	movw	r20, r30
    107c:	44 51       	subi	r20, 0x14	; 20
    107e:	56 40       	sbci	r21, 0x06	; 6
    1080:	60 e0       	ldi	r22, 0x00	; 0
    1082:	70 e0       	ldi	r23, 0x00	; 0
    1084:	83 e1       	ldi	r24, 0x13	; 19
    1086:	96 e0       	ldi	r25, 0x06	; 6
    1088:	fb d2       	rcall	.+1526   	; 0x1680 <memset>
    108a:	88 e0       	ldi	r24, 0x08	; 8
    108c:	e7 e9       	ldi	r30, 0x97	; 151
    108e:	f2 e0       	ldi	r31, 0x02	; 2
    1090:	a3 e1       	ldi	r26, 0x13	; 19
    1092:	b6 e0       	ldi	r27, 0x06	; 6
    1094:	01 90       	ld	r0, Z+
    1096:	0d 92       	st	X+, r0
    1098:	8a 95       	dec	r24
    109a:	e1 f7       	brne	.-8      	; 0x1094 <main+0x66>
    109c:	db d8       	rcall	.-3658   	; 0x254 <nexInit>

    nexInit();
    109e:	6c e4       	ldi	r22, 0x4C	; 76
    10a0:	72 e1       	ldi	r23, 0x12	; 18

    NexSlider_getValue(&slider, &value);
    10a2:	81 e1       	ldi	r24, 0x11	; 17
    10a4:	96 e0       	ldi	r25, 0x06	; 6
    10a6:	41 d9       	rcall	.-3454   	; 0x32a <NexSlider_getValue>
    10a8:	40 91 4c 12 	lds	r20, 0x124C	; 0x80124c <value>
    10ac:	50 91 4d 12 	lds	r21, 0x124D	; 0x80124d <value+0x1>
    NexSlider_setValue(&slider, value + 20);
    10b0:	60 91 4e 12 	lds	r22, 0x124E	; 0x80124e <value+0x2>
    10b4:	70 91 4f 12 	lds	r23, 0x124F	; 0x80124f <value+0x3>
    10b8:	4c 5e       	subi	r20, 0xEC	; 236
    10ba:	5f 4f       	sbci	r21, 0xFF	; 255
    10bc:	6f 4f       	sbci	r22, 0xFF	; 255
    10be:	7f 4f       	sbci	r23, 0xFF	; 255
    10c0:	81 e1       	ldi	r24, 0x11	; 17
    10c2:	96 e0       	ldi	r25, 0x06	; 6
    10c4:	72 d9       	rcall	.-3356   	; 0x3aa <NexSlider_setValue>
    10c6:	40 e0       	ldi	r20, 0x00	; 0
    10c8:	50 e0       	ldi	r21, 0x00	; 0

    NexTouch_attachPop(&button, buttonCallback, 0);
    10ca:	6f e0       	ldi	r22, 0x0F	; 15
    10cc:	78 e0       	ldi	r23, 0x08	; 8
    10ce:	8c e2       	ldi	r24, 0x2C	; 44
    10d0:	99 e0       	ldi	r25, 0x09	; 9
    10d2:	be d9       	rcall	.-3204   	; 0x450 <NexTouch_attachPop>
    10d4:	40 e0       	ldi	r20, 0x00	; 0
    NexTouch_attachPop(&slider, sliderCallback, 0);
    10d6:	50 e0       	ldi	r21, 0x00	; 0
    10d8:	63 e1       	ldi	r22, 0x13	; 19
    10da:	78 e0       	ldi	r23, 0x08	; 8
    10dc:	81 e1       	ldi	r24, 0x11	; 17
    10de:	96 e0       	ldi	r25, 0x06	; 6
    10e0:	b7 d9       	rcall	.-3218   	; 0x450 <NexTouch_attachPop>
    10e2:	80 e0       	ldi	r24, 0x00	; 0
    10e4:	92 e0       	ldi	r25, 0x02	; 2

	
// Mainroutine
	while (1)
	{
		        nexLoop(nex_listen_list);
    10e6:	d3 d8       	rcall	.-3674   	; 0x28e <nexLoop>
    10e8:	2f ef       	ldi	r18, 0xFF	; 255
    10ea:	80 e7       	ldi	r24, 0x70	; 112
    10ec:	92 e0       	ldi	r25, 0x02	; 2
    10ee:	21 50       	subi	r18, 0x01	; 1
    10f0:	80 40       	sbci	r24, 0x00	; 0
    10f2:	90 40       	sbci	r25, 0x00	; 0
    10f4:	e1 f7       	brne	.-8      	; 0x10ee <main+0xc0>
		        _delay_ms(50);
				
		
		if (check_Communication_Input_UART_0())				// Check UART_0 (USB), ob vollstndige bertragung stattgefunden hat (Ende = "\r")
    10f6:	00 c0       	rjmp	.+0      	; 0x10f8 <main+0xca>
    10f8:	00 00       	nop
    10fa:	2e d0       	rcall	.+92     	; 0x1158 <check_Communication_Input_UART_0>
		{
			proceed_Communication_Input_UART_0();				// Vollstndige bertragung des USB verarbeiten
    10fc:	81 11       	cpse	r24, r1
    10fe:	52 d0       	rcall	.+164    	; 0x11a4 <proceed_Communication_Input_UART_0>
		}
		
		if (check_Communication_Input_UART_1())				// Check UART_1 (Nextion-Display), ob vollstndige bertragung stattgefunden hat (Ende = "0xFF 0xFF 0xFF")
    1100:	69 d0       	rcall	.+210    	; 0x11d4 <check_Communication_Input_UART_1>
    1102:	81 11       	cpse	r24, r1
    1104:	cd d0       	rcall	.+410    	; 0x12a0 <proceed_Communication_INPUT_UART_1>
		{
			proceed_Communication_INPUT_UART_1();				// Vollstndige bertragung des Displays verarbeiten
    1106:	8f d1       	rcall	.+798    	; 0x1426 <check_Communication_Input_UART_2>
    1108:	88 23       	and	r24, r24
		}

		if (check_Communication_Input_UART_2())				// Check UART_2 (ESP), ob vollstndige bertragung stattgefunden hat (Ende = "0xFF 0xFF 0xFF")
    110a:	59 f3       	breq	.-42     	; 0x10e2 <main+0xb4>
    110c:	06 d2       	rcall	.+1036   	; 0x151a <proceed_Communication_Input_UART_2>
    110e:	e9 cf       	rjmp	.-46     	; 0x10e2 <main+0xb4>

00001110 <IO_init>:
    1110:	87 e9       	ldi	r24, 0x97	; 151
		{
			proceed_Communication_Input_UART_2();				// Vollstndige bertragung des ESP's verarbeiten
    1112:	84 b9       	out	0x04, r24	; 4
    1114:	80 e1       	ldi	r24, 0x10	; 16
    1116:	80 93 01 01 	sts	0x0101, r24	; 0x800101 <__TEXT_REGION_LENGTH__+0x700101>
    111a:	08 95       	ret

0000111c <TIMER_init>:
    111c:	a8 ea       	ldi	r26, 0xA8	; 168
    111e:	b0 e0       	ldi	r27, 0x00	; 0
    1120:	11 96       	adiw	r26, 0x01	; 1
    1122:	1c 92       	st	X, r1
    1124:	1e 92       	st	-X, r1
    1126:	10 92 a0 00 	sts	0x00A0, r1	; 0x8000a0 <__TEXT_REGION_LENGTH__+0x7000a0>
    112a:	e1 ea       	ldi	r30, 0xA1	; 161
    112c:	f0 e0       	ldi	r31, 0x00	; 0
    112e:	10 82       	st	Z, r1
    1130:	10 92 a5 00 	sts	0x00A5, r1	; 0x8000a5 <__TEXT_REGION_LENGTH__+0x7000a5>
    1134:	10 92 a4 00 	sts	0x00A4, r1	; 0x8000a4 <__TEXT_REGION_LENGTH__+0x7000a4>
    1138:	8c e7       	ldi	r24, 0x7C	; 124
    113a:	90 e0       	ldi	r25, 0x00	; 0
    113c:	11 96       	adiw	r26, 0x01	; 1
    113e:	9c 93       	st	X, r25
    1140:	8e 93       	st	-X, r24
    1142:	80 81       	ld	r24, Z
    1144:	88 60       	ori	r24, 0x08	; 8
    1146:	80 83       	st	Z, r24
    1148:	80 81       	ld	r24, Z
    114a:	82 60       	ori	r24, 0x02	; 2
    114c:	80 83       	st	Z, r24
    114e:	08 95       	ret

00001150 <toggle_LED>:
    1150:	85 b1       	in	r24, 0x05	; 5
    1152:	80 58       	subi	r24, 0x80	; 128
    1154:	85 b9       	out	0x05, r24	; 5
    1156:	08 95       	ret

00001158 <check_Communication_Input_UART_0>:

char check_Communication_Input_UART_0(void)
{
	char ret = 0;
	// Check Buffer auf Einkommende Daten
	if(RB_length(&rb_rx_PC)>0)
    1158:	89 e4       	ldi	r24, 0x49	; 73
    115a:	9d e0       	ldi	r25, 0x0D	; 13
    115c:	ca db       	rcall	.-2156   	; 0x8f2 <RB_length>
    115e:	88 23       	and	r24, r24
    1160:	f9 f0       	breq	.+62     	; 0x11a0 <check_Communication_Input_UART_0+0x48>
	{
		unsigned char ch = RB_readByte(&rb_rx_PC);
    1162:	89 e4       	ldi	r24, 0x49	; 73
    1164:	9d e0       	ldi	r25, 0x0D	; 13
    1166:	d1 db       	rcall	.-2142   	; 0x90a <RB_readByte>
		if (ch == 13)
    1168:	8d 30       	cpi	r24, 0x0D	; 13
    116a:	69 f4       	brne	.+26     	; 0x1186 <check_Communication_Input_UART_0+0x2e>
		{
			INPUT_UART_0[cntr_UART_0] = 0;
    116c:	e0 91 7a 04 	lds	r30, 0x047A	; 0x80047a <cntr_UART_0>
    1170:	f0 e0       	ldi	r31, 0x00	; 0
    1172:	e4 5d       	subi	r30, 0xD4	; 212
    1174:	f8 4f       	sbci	r31, 0xF8	; 248
    1176:	10 82       	st	Z, r1
			cntr_UART_0 = 0;
    1178:	10 92 7a 04 	sts	0x047A, r1	; 0x80047a <cntr_UART_0>
			cntr_End_UART_0 = 0;
    117c:	10 92 78 04 	sts	0x0478, r1	; 0x800478 <cntr_End_UART_0>
			ret = 1;
			toggle_LED();
    1180:	e7 df       	rcall	.-50     	; 0x1150 <toggle_LED>
		if (ch == 13)
		{
			INPUT_UART_0[cntr_UART_0] = 0;
			cntr_UART_0 = 0;
			cntr_End_UART_0 = 0;
			ret = 1;
    1182:	81 e0       	ldi	r24, 0x01	; 1
    1184:	08 95       	ret
			toggle_LED();
		}
		else
		{
			INPUT_UART_0[cntr_UART_0]=ch;
    1186:	90 91 7a 04 	lds	r25, 0x047A	; 0x80047a <cntr_UART_0>
    118a:	e9 2f       	mov	r30, r25
    118c:	f0 e0       	ldi	r31, 0x00	; 0
    118e:	e4 5d       	subi	r30, 0xD4	; 212
    1190:	f8 4f       	sbci	r31, 0xF8	; 248
    1192:	80 83       	st	Z, r24
			cntr_UART_0++;
    1194:	9f 5f       	subi	r25, 0xFF	; 255
    1196:	90 93 7a 04 	sts	0x047A, r25	; 0x80047a <cntr_UART_0>
			ret = 0;
			toggle_LED();
    119a:	da df       	rcall	.-76     	; 0x1150 <toggle_LED>
		}
		else
		{
			INPUT_UART_0[cntr_UART_0]=ch;
			cntr_UART_0++;
			ret = 0;
    119c:	80 e0       	ldi	r24, 0x00	; 0
    119e:	08 95       	ret
   		SPI_PORT = SPI_PORT ^ (HEARTBEAT_LED);				// Toggelt nur HEARTBEAT_LED
}

char check_Communication_Input_UART_0(void)
{
	char ret = 0;
    11a0:	80 e0       	ldi	r24, 0x00	; 0
			ret = 0;
			toggle_LED();
		}
	}
	return ret;
}
    11a2:	08 95       	ret

000011a4 <proceed_Communication_Input_UART_0>:

void proceed_Communication_Input_UART_0(void)
{
	Uart_Transmit_IT_PC((unsigned char *)"Empfangen0:",strlen((const char*)"Empfangen0:"));
    11a4:	6b e0       	ldi	r22, 0x0B	; 11
    11a6:	80 ea       	ldi	r24, 0xA0	; 160
    11a8:	92 e0       	ldi	r25, 0x02	; 2
    11aa:	e0 dd       	rcall	.-1088   	; 0xd6c <Uart_Transmit_IT_PC>
	Uart_Transmit_IT_PC((unsigned char *)INPUT_UART_0,strlen((const char*)INPUT_UART_0));
    11ac:	ec e2       	ldi	r30, 0x2C	; 44
    11ae:	f7 e0       	ldi	r31, 0x07	; 7
    11b0:	01 90       	ld	r0, Z+
    11b2:	00 20       	and	r0, r0
    11b4:	e9 f7       	brne	.-6      	; 0x11b0 <proceed_Communication_Input_UART_0+0xc>
    11b6:	31 97       	sbiw	r30, 0x01	; 1
    11b8:	bf 01       	movw	r22, r30
    11ba:	6c 52       	subi	r22, 0x2C	; 44
    11bc:	77 40       	sbci	r23, 0x07	; 7
    11be:	8c e2       	ldi	r24, 0x2C	; 44
    11c0:	97 e0       	ldi	r25, 0x07	; 7
    11c2:	d4 dd       	rcall	.-1112   	; 0xd6c <Uart_Transmit_IT_PC>
	Uart_Transmit_IT_PC((unsigned char *)"\r\n",strlen((const char*)"\r\n"));
    11c4:	62 e0       	ldi	r22, 0x02	; 2
    11c6:	84 e6       	ldi	r24, 0x64	; 100
    11c8:	93 e0       	ldi	r25, 0x03	; 3
    11ca:	d0 dd       	rcall	.-1120   	; 0xd6c <Uart_Transmit_IT_PC>
	UART_recieved_finished_0 = 0;
    11cc:	10 92 79 04 	sts	0x0479, r1	; 0x800479 <UART_recieved_finished_0>
	toggle_LED();
    11d0:	bf cf       	rjmp	.-130    	; 0x1150 <toggle_LED>
    11d2:	08 95       	ret

000011d4 <check_Communication_Input_UART_1>:
    11d4:	87 e4       	ldi	r24, 0x47	; 71
}

char check_Communication_Input_UART_1(void)
{
	char ret = 0;
	if(RB_length(&rb_rx_Display)>0)					// UART_1
    11d6:	9a e0       	ldi	r25, 0x0A	; 10
    11d8:	8c db       	rcall	.-2280   	; 0x8f2 <RB_length>
    11da:	88 23       	and	r24, r24
    11dc:	09 f4       	brne	.+2      	; 0x11e0 <check_Communication_Input_UART_1+0xc>
    11de:	4d c0       	rjmp	.+154    	; 0x127a <check_Communication_Input_UART_1+0xa6>
	{
		unsigned char ch = RB_readByte(&rb_rx_Display);
    11e0:	87 e4       	ldi	r24, 0x47	; 71
    11e2:	9a e0       	ldi	r25, 0x0A	; 10
    11e4:	92 db       	rcall	.-2268   	; 0x90a <RB_readByte>
		// Verbesserung oder Verschlimmbesserung: Falls cntr_UART_1 >=2 dann schauen ob die letzten drei bertragungen [cntr_UART_1], [cntr_UART_1-1], [cntr_UART_1-2] 0xFF sind
		if (ch == 0xFF)
    11e6:	8f 3f       	cpi	r24, 0xFF	; 255
    11e8:	29 f5       	brne	.+74     	; 0x1234 <check_Communication_Input_UART_1+0x60>
		{
			if (cntr_End_UART_1==0)
    11ea:	90 91 75 04 	lds	r25, 0x0475	; 0x800475 <cntr_End_UART_1>
    11ee:	99 23       	and	r25, r25
    11f0:	19 f0       	breq	.+6      	; 0x11f8 <check_Communication_Input_UART_1+0x24>
			{
				cntr_End_UART_1++;
			}
			if (cntr_End_UART_1==1 && (INPUT_UART_1[cntr_UART_1-1] == 0xFF))
    11f2:	91 30       	cpi	r25, 0x01	; 1
    11f4:	09 f0       	breq	.+2      	; 0x11f8 <check_Communication_Input_UART_1+0x24>
    11f6:	46 c0       	rjmp	.+140    	; 0x1284 <check_Communication_Input_UART_1+0xb0>
    11f8:	e0 91 77 04 	lds	r30, 0x0477	; 0x800477 <cntr_UART_1>
    11fc:	f0 e0       	ldi	r31, 0x00	; 0
    11fe:	e9 5b       	subi	r30, 0xB9	; 185
    1200:	f4 4f       	sbci	r31, 0xF4	; 244
    1202:	90 81       	ld	r25, Z
    1204:	9f 3f       	cpi	r25, 0xFF	; 255
    1206:	d9 f5       	brne	.+118    	; 0x127e <check_Communication_Input_UART_1+0xaa>
			{
				cntr_End_UART_1++;
    1208:	92 e0       	ldi	r25, 0x02	; 2
    120a:	90 93 75 04 	sts	0x0475, r25	; 0x800475 <cntr_End_UART_1>
			}
			if (cntr_End_UART_1==1 && (INPUT_UART_1[cntr_UART_1-1] != 0xFF))
			{
				cntr_End_UART_1=0;
			}
			if (cntr_End_UART_1==2 && (INPUT_UART_1[cntr_UART_1-1] == 0xFF) && (INPUT_UART_1[cntr_UART_1-2] == 0xFF))
    120e:	20 91 77 04 	lds	r18, 0x0477	; 0x800477 <cntr_UART_1>
    1212:	30 e0       	ldi	r19, 0x00	; 0
    1214:	f9 01       	movw	r30, r18
    1216:	e9 5b       	subi	r30, 0xB9	; 185
    1218:	f4 4f       	sbci	r31, 0xF4	; 244
    121a:	90 81       	ld	r25, Z
    121c:	9f 3f       	cpi	r25, 0xFF	; 255
    121e:	39 f4       	brne	.+14     	; 0x122e <check_Communication_Input_UART_1+0x5a>
    1220:	f9 01       	movw	r30, r18
    1222:	ea 5b       	subi	r30, 0xBA	; 186
    1224:	f4 4f       	sbci	r31, 0xF4	; 244
    1226:	90 81       	ld	r25, Z
    1228:	9f 3f       	cpi	r25, 0xFF	; 255
    122a:	89 f5       	brne	.+98     	; 0x128e <check_Communication_Input_UART_1+0xba>
    122c:	07 c0       	rjmp	.+14     	; 0x123c <check_Communication_Input_UART_1+0x68>
			{
				cntr_End_UART_1++;
			}
			if (cntr_End_UART_1==2 && ((INPUT_UART_1[cntr_UART_1-1] != 0xFF) || (INPUT_UART_1[cntr_UART_1-2] != 0xFF)))
			{
				cntr_End_UART_1 = 0;
    122e:	10 92 75 04 	sts	0x0475, r1	; 0x800475 <cntr_End_UART_1>
    1232:	16 c0       	rjmp	.+44     	; 0x1260 <check_Communication_Input_UART_1+0x8c>
			}
		}
		if (cntr_End_UART_1 == 3)
    1234:	90 91 75 04 	lds	r25, 0x0475	; 0x800475 <cntr_End_UART_1>
    1238:	93 30       	cpi	r25, 0x03	; 3
    123a:	91 f4       	brne	.+36     	; 0x1260 <check_Communication_Input_UART_1+0x8c>
		{
			INPUT_UART_1[cntr_UART_1] = 0;
    123c:	e0 91 77 04 	lds	r30, 0x0477	; 0x800477 <cntr_UART_1>
    1240:	f0 e0       	ldi	r31, 0x00	; 0
    1242:	e8 5b       	subi	r30, 0xB8	; 184
    1244:	f4 4f       	sbci	r31, 0xF4	; 244
    1246:	10 82       	st	Z, r1
			INPUT_UART_1[cntr_UART_1-1]=0;
    1248:	df 01       	movw	r26, r30
    124a:	11 97       	sbiw	r26, 0x01	; 1
    124c:	1c 92       	st	X, r1
			INPUT_UART_1[cntr_UART_1-2]=0;
    124e:	32 97       	sbiw	r30, 0x02	; 2
    1250:	10 82       	st	Z, r1
			cntr_UART_1 = 0;
    1252:	10 92 77 04 	sts	0x0477, r1	; 0x800477 <cntr_UART_1>
			cntr_End_UART_1 = 0;
    1256:	10 92 75 04 	sts	0x0475, r1	; 0x800475 <cntr_End_UART_1>
			ret = 1;
			toggle_LED();
    125a:	7a df       	rcall	.-268    	; 0x1150 <toggle_LED>
			INPUT_UART_1[cntr_UART_1] = 0;
			INPUT_UART_1[cntr_UART_1-1]=0;
			INPUT_UART_1[cntr_UART_1-2]=0;
			cntr_UART_1 = 0;
			cntr_End_UART_1 = 0;
			ret = 1;
    125c:	81 e0       	ldi	r24, 0x01	; 1
    125e:	08 95       	ret
			toggle_LED();
		}
		else
		{
			INPUT_UART_1[cntr_UART_1]=ch;
    1260:	90 91 77 04 	lds	r25, 0x0477	; 0x800477 <cntr_UART_1>
    1264:	e9 2f       	mov	r30, r25
    1266:	f0 e0       	ldi	r31, 0x00	; 0
    1268:	e8 5b       	subi	r30, 0xB8	; 184
    126a:	f4 4f       	sbci	r31, 0xF4	; 244
    126c:	80 83       	st	Z, r24
			cntr_UART_1++;
    126e:	9f 5f       	subi	r25, 0xFF	; 255
    1270:	90 93 77 04 	sts	0x0477, r25	; 0x800477 <cntr_UART_1>
			ret = 0;
			toggle_LED();
    1274:	6d df       	rcall	.-294    	; 0x1150 <toggle_LED>
		}
		else
		{
			INPUT_UART_1[cntr_UART_1]=ch;
			cntr_UART_1++;
			ret = 0;
    1276:	80 e0       	ldi	r24, 0x00	; 0
    1278:	08 95       	ret
	toggle_LED();
}

char check_Communication_Input_UART_1(void)
{
	char ret = 0;
    127a:	80 e0       	ldi	r24, 0x00	; 0
			cntr_UART_1++;
			ret = 0;
			toggle_LED();
		}
	}
	return ret;
    127c:	08 95       	ret
			{
				cntr_End_UART_1++;
			}
			if (cntr_End_UART_1==1 && (INPUT_UART_1[cntr_UART_1-1] != 0xFF))
			{
				cntr_End_UART_1=0;
    127e:	10 92 75 04 	sts	0x0475, r1	; 0x800475 <cntr_End_UART_1>
    1282:	d8 cf       	rjmp	.-80     	; 0x1234 <check_Communication_Input_UART_1+0x60>
			}
			if (cntr_End_UART_1==2 && (INPUT_UART_1[cntr_UART_1-1] == 0xFF) && (INPUT_UART_1[cntr_UART_1-2] == 0xFF))
    1284:	90 91 75 04 	lds	r25, 0x0475	; 0x800475 <cntr_End_UART_1>
    1288:	92 30       	cpi	r25, 0x02	; 2
    128a:	a1 f6       	brne	.-88     	; 0x1234 <check_Communication_Input_UART_1+0x60>
    128c:	c0 cf       	rjmp	.-128    	; 0x120e <check_Communication_Input_UART_1+0x3a>
			{
				cntr_End_UART_1++;
			}
			if (cntr_End_UART_1==2 && ((INPUT_UART_1[cntr_UART_1-1] != 0xFF) || (INPUT_UART_1[cntr_UART_1-2] != 0xFF)))
    128e:	e0 91 77 04 	lds	r30, 0x0477	; 0x800477 <cntr_UART_1>
    1292:	f0 e0       	ldi	r31, 0x00	; 0
    1294:	ea 5b       	subi	r30, 0xBA	; 186
    1296:	f4 4f       	sbci	r31, 0xF4	; 244
    1298:	90 81       	ld	r25, Z
    129a:	9f 3f       	cpi	r25, 0xFF	; 255
    129c:	41 f6       	brne	.-112    	; 0x122e <check_Communication_Input_UART_1+0x5a>
    129e:	e0 cf       	rjmp	.-64     	; 0x1260 <check_Communication_Input_UART_1+0x8c>

000012a0 <proceed_Communication_INPUT_UART_1>:
	}
	return ret;
}

void proceed_Communication_INPUT_UART_1(void)
{
    12a0:	cf 93       	push	r28
    12a2:	df 93       	push	r29
	Uart_Transmit_IT_PC((unsigned char *)"Empfangen1:",strlen((const char*)"Empfangen1:"));
    12a4:	6b e0       	ldi	r22, 0x0B	; 11
    12a6:	8c ea       	ldi	r24, 0xAC	; 172
    12a8:	92 e0       	ldi	r25, 0x02	; 2
    12aa:	60 dd       	rcall	.-1344   	; 0xd6c <Uart_Transmit_IT_PC>
	Uart_Transmit_IT_PC((unsigned char *)INPUT_UART_1,strlen((const char*)INPUT_UART_1));
    12ac:	c8 e4       	ldi	r28, 0x48	; 72
    12ae:	db e0       	ldi	r29, 0x0B	; 11
    12b0:	fe 01       	movw	r30, r28
    12b2:	01 90       	ld	r0, Z+
    12b4:	00 20       	and	r0, r0
    12b6:	e9 f7       	brne	.-6      	; 0x12b2 <proceed_Communication_INPUT_UART_1+0x12>
    12b8:	31 97       	sbiw	r30, 0x01	; 1
    12ba:	bf 01       	movw	r22, r30
    12bc:	68 54       	subi	r22, 0x48	; 72
    12be:	7b 40       	sbci	r23, 0x0B	; 11
    12c0:	ce 01       	movw	r24, r28
    12c2:	54 dd       	rcall	.-1368   	; 0xd6c <Uart_Transmit_IT_PC>
	Uart_Transmit_IT_PC((unsigned char *)"\r\n",strlen((const char*)"\r\n"));
    12c4:	62 e0       	ldi	r22, 0x02	; 2
    12c6:	84 e6       	ldi	r24, 0x64	; 100
    12c8:	93 e0       	ldi	r25, 0x03	; 3
    12ca:	50 dd       	rcall	.-1376   	; 0xd6c <Uart_Transmit_IT_PC>
	UART_recieved_finished_1 = 0;
    12cc:	10 92 76 04 	sts	0x0476, r1	; 0x800476 <UART_recieved_finished_1>
	if(INPUT_UART_1[0]==0xFF&&INPUT_UART_1[1]==0xB1)
    12d0:	88 81       	ld	r24, Y
    12d2:	8f 3f       	cpi	r24, 0xFF	; 255
    12d4:	09 f0       	breq	.+2      	; 0x12d8 <proceed_Communication_INPUT_UART_1+0x38>
    12d6:	4a c0       	rjmp	.+148    	; 0x136c <proceed_Communication_INPUT_UART_1+0xcc>
    12d8:	80 91 49 0b 	lds	r24, 0x0B49	; 0x800b49 <INPUT_UART_1+0x1>
    12dc:	81 3b       	cpi	r24, 0xB1	; 177
    12de:	09 f0       	breq	.+2      	; 0x12e2 <proceed_Communication_INPUT_UART_1+0x42>
    12e0:	9f c0       	rjmp	.+318    	; 0x1420 <proceed_Communication_INPUT_UART_1+0x180>
	{
		unsigned char *ch0 = (unsigned char *)"Beginn Tests: \r\n\r\n";//************************	Start
		Uart_Transmit_IT_PC(ch0,strlen((const char*)ch0));
    12e2:	62 e1       	ldi	r22, 0x12	; 18
    12e4:	88 eb       	ldi	r24, 0xB8	; 184
    12e6:	92 e0       	ldi	r25, 0x02	; 2
    12e8:	41 dd       	rcall	.-1406   	; 0xd6c <Uart_Transmit_IT_PC>
		
		ch0 = (unsigned char *)"Initialisiere TMC: \r\n";//******************************************	Status Beginn:		Init_SPI
		Uart_Transmit_IT_PC(ch0,strlen((const char*)ch0));
    12ea:	65 e1       	ldi	r22, 0x15	; 21
    12ec:	8b ec       	ldi	r24, 0xCB	; 203
    12ee:	92 e0       	ldi	r25, 0x02	; 2
    12f0:	3d dd       	rcall	.-1414   	; 0xd6c <Uart_Transmit_IT_PC>
		
 		TMC4671_init();//****************************************************************************	Aktion:				Initialisiere SPI
    12f2:	e5 db       	rcall	.-2102   	; 0xabe <TMC4671_init>
    12f4:	62 e0       	ldi	r22, 0x02	; 2
		
		ch0 = (unsigned char *)"\r\n";
		Uart_Transmit_IT_PC(ch0,strlen((const char*)ch0));//*****************************************	Status Ende:		Init_SPI
    12f6:	84 e6       	ldi	r24, 0x64	; 100
    12f8:	93 e0       	ldi	r25, 0x03	; 3
    12fa:	38 dd       	rcall	.-1424   	; 0xd6c <Uart_Transmit_IT_PC>
    12fc:	68 e1       	ldi	r22, 0x18	; 24

		ch0 = (unsigned char *)"Setze Text Display 1: \r\n";//***************************************	Status Beginn:		Test Text 1
		Uart_Transmit_IT_PC(ch0,strlen((const char*)ch0));
    12fe:	81 ee       	ldi	r24, 0xE1	; 225
    1300:	92 e0       	ldi	r25, 0x02	; 2
    1302:	34 dd       	rcall	.-1432   	; 0xd6c <Uart_Transmit_IT_PC>
    1304:	41 e0       	ldi	r20, 0x01	; 1
		
		unsigned char * ch1 = (unsigned char *)"b1";//***********************************************	Button:				b1
		unsigned char * ch2 = (unsigned char *)"Lemon Soda1";//**************************************	Text:				Lemon Soda1
		nextion_setText(ch1,ch2,NEXTION_DISPLAY_1);//************************************************	Aktion:				setText
    1306:	6a ef       	ldi	r22, 0xFA	; 250
    1308:	72 e0       	ldi	r23, 0x02	; 2
    130a:	86 e0       	ldi	r24, 0x06	; 6
    130c:	93 e0       	ldi	r25, 0x03	; 3
    130e:	4e d9       	rcall	.-3428   	; 0x5ac <nextion_setText>

		ch0 = (unsigned char *)"\r\n\r\n";
		Uart_Transmit_IT_PC(ch0,strlen((const char*)ch0));//*****************************************	Status Ende:		Test Text 1
    1310:	64 e0       	ldi	r22, 0x04	; 4
    1312:	82 e6       	ldi	r24, 0x62	; 98
    1314:	93 e0       	ldi	r25, 0x03	; 3
    1316:	2a dd       	rcall	.-1452   	; 0xd6c <Uart_Transmit_IT_PC>


		ch0 = (unsigned char *)"Setze Text Display 2: \r\n";//***************************************	Status Beginn:		Test Text 2
		Uart_Transmit_IT_PC(ch0,strlen((const char*)ch0));
    1318:	68 e1       	ldi	r22, 0x18	; 24
    131a:	89 e0       	ldi	r24, 0x09	; 9
    131c:	93 e0       	ldi	r25, 0x03	; 3
    131e:	26 dd       	rcall	.-1460   	; 0xd6c <Uart_Transmit_IT_PC>
    1320:	41 e0       	ldi	r20, 0x01	; 1

		ch1 = (unsigned char *)"b0";//***************************************************************	Button:				b0
		ch2 = (unsigned char *)"Lemon Soda2";//******************************************************	Text:				Lemon Soda2
		nextion_setText(ch1,ch2,NEXTION_DISPLAY_1);//************************************************	Aktion:				setText
    1322:	62 e2       	ldi	r22, 0x22	; 34
    1324:	73 e0       	ldi	r23, 0x03	; 3
    1326:	8e e2       	ldi	r24, 0x2E	; 46
    1328:	93 e0       	ldi	r25, 0x03	; 3
    132a:	40 d9       	rcall	.-3456   	; 0x5ac <nextion_setText>
// 		Uart_Transmit_IT_PC(ch0,strlen((const char*)ch0));
		
		ch1 = (unsigned char *)"t0";//****************************************************************	Button:				t0
		ch2 = (unsigned char *)"Lemon Soda3";//*******************************************************	Text:				Lemon Soda3

		nextion_setText(ch1,ch2,NEXTION_DISPLAY_1);//*************************************************	Aktion:				setText
    132c:	41 e0       	ldi	r20, 0x01	; 1
    132e:	61 e3       	ldi	r22, 0x31	; 49
    1330:	73 e0       	ldi	r23, 0x03	; 3
    1332:	8d e3       	ldi	r24, 0x3D	; 61
    1334:	93 e0       	ldi	r25, 0x03	; 3
    1336:	3a d9       	rcall	.-3468   	; 0x5ac <nextion_setText>
		
		ch0 = (unsigned char *)"\r\n\r\n";
		Uart_Transmit_IT_PC(ch0,strlen((const char*)ch0));//******************************************	Status Ende:		Test Text 3
    1338:	64 e0       	ldi	r22, 0x04	; 4
    133a:	82 e6       	ldi	r24, 0x62	; 98
    133c:	93 e0       	ldi	r25, 0x03	; 3
    133e:	16 dd       	rcall	.-1492   	; 0xd6c <Uart_Transmit_IT_PC>
    1340:	21 e0       	ldi	r18, 0x01	; 1
		
		ch1 = (unsigned char *)"250";//***************************************************************	x-Koordinate:		250
		ch2 = (unsigned char *)"80";//****************************************************************	y-Koordinate:		80
		unsigned char * ch3 = (unsigned char *)"7";//*************************************************	Bild Nr.:			7

		nextion_setPicture(ch1,ch2,ch3,NEXTION_DISPLAY_1);//******************************************	Aktion:				setPicture
    1342:	40 e4       	ldi	r20, 0x40	; 64
    1344:	53 e0       	ldi	r21, 0x03	; 3
    1346:	62 e4       	ldi	r22, 0x42	; 66
    1348:	73 e0       	ldi	r23, 0x03	; 3
    134a:	85 e4       	ldi	r24, 0x45	; 69
    134c:	93 e0       	ldi	r25, 0x03	; 3
    134e:	f8 d9       	rcall	.-3088   	; 0x740 <nextion_setPicture>
		
		ch1 = (unsigned char *)"0";//*****************************************************************	x-Koordinate:		0
		ch2 = (unsigned char *)"80";//****************************************************************	y-Koordinate:		80
		ch3 = (unsigned char *)"7";//*****************************************************************	Bild Nr.:			7

		nextion_setPicture(ch1,ch2,ch3,NEXTION_DISPLAY_1);//******************************************	Aktion:				setPicture
    1350:	21 e0       	ldi	r18, 0x01	; 1
    1352:	40 e4       	ldi	r20, 0x40	; 64
    1354:	53 e0       	ldi	r21, 0x03	; 3
    1356:	62 e4       	ldi	r22, 0x42	; 66
    1358:	73 e0       	ldi	r23, 0x03	; 3
    135a:	81 e1       	ldi	r24, 0x11	; 17
    135c:	92 e0       	ldi	r25, 0x02	; 2
    135e:	f0 d9       	rcall	.-3104   	; 0x740 <nextion_setPicture>
    1360:	f7 de       	rcall	.-530    	; 0x1150 <toggle_LED>
// 		Uart_Transmit_IT_PC(ch0,strlen((const char*)ch0));//******************************************	Status Ende:		Test Setze Bild 2
		
		ch0 = (unsigned char *)"Toggle LED: \r\n";//**************************************************	Status Beginn:		Toggle LED
// 		Uart_Transmit_IT_PC(ch0,strlen((const char*)ch0));
		
		toggle_LED();//*******************************************************************************	Aktion:				Toggle LED
    1362:	e0 ea       	ldi	r30, 0xA0	; 160
    1364:	f0 e0       	ldi	r31, 0x00	; 0
// 		Uart_Transmit_IT_PC(ch0,strlen((const char*)ch0));//******************************************	Status Ende:		Toggle LED

		ch0 = (unsigned char *)"8kHz-Signal: \r\n";// *************************************	Status Beginn:		Test 8kHz-Signal einschalten
// 		Uart_Transmit_IT_PC(ch0,strlen((const char*)ch0));
		
		PWM_ON;//*************************************************************************************	Aktion:				WPM Einschalten
    1366:	80 81       	ld	r24, Z
    1368:	80 61       	ori	r24, 0x10	; 16
    136a:	80 83       	st	Z, r24
    136c:	80 91 48 0b 	lds	r24, 0x0B48	; 0x800b48 <INPUT_UART_1>
// 		Uart_Transmit_IT_PC(ch0,strlen((const char*)ch0));//******************************************	Status Ende:		Toggle LED
	}

//**************************** PAGE 0x07, BUTTON 0x01***********************(Whiskey Cola Zubereitung)	Aktionsherkunft		0.5L
	
	if(INPUT_UART_1[0]==0x07&&INPUT_UART_1[1]==0x01)
    1370:	87 30       	cpi	r24, 0x07	; 7
    1372:	09 f0       	breq	.+2      	; 0x1376 <proceed_Communication_INPUT_UART_1+0xd6>
    1374:	55 c0       	rjmp	.+170    	; 0x1420 <proceed_Communication_INPUT_UART_1+0x180>
    1376:	80 91 49 0b 	lds	r24, 0x0B49	; 0x800b49 <INPUT_UART_1+0x1>
    137a:	81 30       	cpi	r24, 0x01	; 1
    137c:	09 f0       	breq	.+2      	; 0x1380 <proceed_Communication_INPUT_UART_1+0xe0>
	{
		unsigned char *ch0 = (unsigned char *)"Beginn Programmablauf: \r\n\r\n\r\n";//****************	Start
		Uart_Transmit_IT_PC(ch0,strlen((const char*)ch0));
    137e:	50 c0       	rjmp	.+160    	; 0x1420 <proceed_Communication_INPUT_UART_1+0x180>
    1380:	6d e1       	ldi	r22, 0x1D	; 29
    1382:	89 e4       	ldi	r24, 0x49	; 73
    1384:	93 e0       	ldi	r25, 0x03	; 3

		ch0 = (unsigned char *)"Unterhaltungstext schreiben: \r\n";//********************************	Status Beginn:		Test Text 1
		Uart_Transmit_IT_PC(ch0,strlen((const char*)ch0));
    1386:	f2 dc       	rcall	.-1564   	; 0xd6c <Uart_Transmit_IT_PC>
    1388:	6f e1       	ldi	r22, 0x1F	; 31
    138a:	87 e6       	ldi	r24, 0x67	; 103
    138c:	93 e0       	ldi	r25, 0x03	; 3
		
		unsigned char * ch1 = (unsigned char *)"t1";//***********************************************	Button:				b1
		unsigned char * ch2 = (unsigned char *)"Wussten Sie, dass dieser\\rDrink in unter einer Minute\\rhergestellt wird?\\rNicht?";
		//*******************************************************************************************	Text:				Lemon Soda1
		nextion_setText(ch1,ch2,NEXTION_DISPLAY_1);//************************************************	Aktion:				setText
    138e:	ee dc       	rcall	.-1572   	; 0xd6c <Uart_Transmit_IT_PC>
    1390:	41 e0       	ldi	r20, 0x01	; 1
    1392:	67 e8       	ldi	r22, 0x87	; 135
    1394:	73 e0       	ldi	r23, 0x03	; 3
    1396:	88 ed       	ldi	r24, 0xD8	; 216
    1398:	93 e0       	ldi	r25, 0x03	; 3

		ch0 = (unsigned char *)"\r\n\r\n";
		Uart_Transmit_IT_PC(ch0,strlen((const char*)ch0));//*****************************************	Status Ende:		Test Text 1
    139a:	08 d9       	rcall	.-3568   	; 0x5ac <nextion_setText>
    139c:	64 e0       	ldi	r22, 0x04	; 4
    139e:	82 e6       	ldi	r24, 0x62	; 98
    13a0:	93 e0       	ldi	r25, 0x03	; 3
				
		ch0 = (unsigned char *)"TMC im Openloop laufen lassen: \r\n";//******************************	Status Beginn:		TMC Openloop
		Uart_Transmit_IT_PC(ch0,strlen((const char*)ch0));
    13a2:	e4 dc       	rcall	.-1592   	; 0xd6c <Uart_Transmit_IT_PC>
    13a4:	61 e2       	ldi	r22, 0x21	; 33
    13a6:	8b ed       	ldi	r24, 0xDB	; 219
    13a8:	93 e0       	ldi	r25, 0x03	; 3
    13aa:	e0 dc       	rcall	.-1600   	; 0xd6c <Uart_Transmit_IT_PC>
		
		initTMC4671_Openloop();//********************************************************************	Aktion:				TMC Openloop
    13ac:	e4 db       	rcall	.-2104   	; 0xb76 <initTMC4671_Openloop>
    13ae:	62 e0       	ldi	r22, 0x02	; 2
		
		ch0 = (unsigned char *)"\r\n";
		Uart_Transmit_IT_PC(ch0,strlen((const char*)ch0));//*****************************************	Status Ende:		TMC Openloop
    13b0:	84 e6       	ldi	r24, 0x64	; 100
    13b2:	93 e0       	ldi	r25, 0x03	; 3
    13b4:	db dc       	rcall	.-1610   	; 0xd6c <Uart_Transmit_IT_PC>
    13b6:	68 e1       	ldi	r22, 0x18	; 24
		
		ch0 = (unsigned char *)"Auf Seite 9 wechseln: \r\n";//***************************************	Status Beginn:		Seite wechseln
		Uart_Transmit_IT_PC(ch0,strlen((const char*)ch0));
    13b8:	8d ef       	ldi	r24, 0xFD	; 253
    13ba:	93 e0       	ldi	r25, 0x03	; 3
    13bc:	d7 dc       	rcall	.-1618   	; 0xd6c <Uart_Transmit_IT_PC>
    13be:	86 e1       	ldi	r24, 0x16	; 22
		
		ch1 = (unsigned char *)"9";//****************************************************************	Seite:				9
		nextion_change_page(ch1);//******************************************************************	Aktion:				changePage
    13c0:	94 e0       	ldi	r25, 0x04	; 4
    13c2:	cc d8       	rcall	.-3688   	; 0x55c <nextion_change_page>
    13c4:	62 e0       	ldi	r22, 0x02	; 2

		ch0 = (unsigned char *)"\r\n";
		Uart_Transmit_IT_PC(ch0,strlen((const char*)ch0));//*****************************************	Status Ende:		Seite wechseln
    13c6:	84 e6       	ldi	r24, 0x64	; 100
    13c8:	93 e0       	ldi	r25, 0x03	; 3
    13ca:	d0 dc       	rcall	.-1632   	; 0xd6c <Uart_Transmit_IT_PC>
    13cc:	2f ef       	ldi	r18, 0xFF	; 255
    13ce:	87 ea       	ldi	r24, 0xA7	; 167
    13d0:	91 e6       	ldi	r25, 0x61	; 97
    13d2:	21 50       	subi	r18, 0x01	; 1
    13d4:	80 40       	sbci	r24, 0x00	; 0
    13d6:	90 40       	sbci	r25, 0x00	; 0
    13d8:	e1 f7       	brne	.-8      	; 0x13d2 <proceed_Communication_INPUT_UART_1+0x132>
		
		_delay_ms(2000);

		ch0 = (unsigned char *)"Auf Seite 4 wechseln: \r\n";//***************************************	Status Beginn:		Seite wechseln
		Uart_Transmit_IT_PC(ch0,strlen((const char*)ch0));
    13da:	00 c0       	rjmp	.+0      	; 0x13dc <proceed_Communication_INPUT_UART_1+0x13c>
    13dc:	00 00       	nop
    13de:	68 e1       	ldi	r22, 0x18	; 24
    13e0:	88 e1       	ldi	r24, 0x18	; 24
    13e2:	94 e0       	ldi	r25, 0x04	; 4
		
		ch1 = (unsigned char *)"4";// ****************************************************************	Seite:				4 (Cocktailliste)
		nextion_change_page(ch1);// ******************************************************************	Aktion:				changePage
    13e4:	c3 dc       	rcall	.-1658   	; 0xd6c <Uart_Transmit_IT_PC>
    13e6:	81 e3       	ldi	r24, 0x31	; 49
    13e8:	94 e0       	ldi	r25, 0x04	; 4

		ch0 = (unsigned char *)"\r\n";
		Uart_Transmit_IT_PC(ch0,strlen((const char*)ch0));// *****************************************	Status Ende:		Seite wechseln
    13ea:	b8 d8       	rcall	.-3728   	; 0x55c <nextion_change_page>
    13ec:	62 e0       	ldi	r22, 0x02	; 2
    13ee:	84 e6       	ldi	r24, 0x64	; 100
    13f0:	93 e0       	ldi	r25, 0x03	; 3
    13f2:	bc dc       	rcall	.-1672   	; 0xd6c <Uart_Transmit_IT_PC>


		ch0 = (unsigned char *)"Toggle LED: \r\n";//**************************************************	Status Beginn:		Toggle LED
		Uart_Transmit_IT_PC(ch0,strlen((const char*)ch0));
    13f4:	6e e0       	ldi	r22, 0x0E	; 14
    13f6:	83 e3       	ldi	r24, 0x33	; 51
    13f8:	94 e0       	ldi	r25, 0x04	; 4
    13fa:	b8 dc       	rcall	.-1680   	; 0xd6c <Uart_Transmit_IT_PC>
    13fc:	a9 de       	rcall	.-686    	; 0x1150 <toggle_LED>
		
		toggle_LED();//*******************************************************************************	Aktion:				Toggle LED
    13fe:	62 e0       	ldi	r22, 0x02	; 2
    1400:	84 e6       	ldi	r24, 0x64	; 100
		
		ch0 = (unsigned char *)"\r\n";
		Uart_Transmit_IT_PC(ch0,strlen((const char*)ch0));//******************************************	Status Ende:		Toggle LED
    1402:	93 e0       	ldi	r25, 0x03	; 3
    1404:	b3 dc       	rcall	.-1690   	; 0xd6c <Uart_Transmit_IT_PC>
    1406:	6f e0       	ldi	r22, 0x0F	; 15
    1408:	82 e4       	ldi	r24, 0x42	; 66
    140a:	94 e0       	ldi	r25, 0x04	; 4

		ch0 = (unsigned char *)"8kHz-Signal: \r\n";// ************************************************	Status Beginn:		Test 8kHz-Signal ausschalten
		Uart_Transmit_IT_PC(ch0,strlen((const char*)ch0));
    140c:	af dc       	rcall	.-1698   	; 0xd6c <Uart_Transmit_IT_PC>
    140e:	e0 ea       	ldi	r30, 0xA0	; 160
    1410:	f0 e0       	ldi	r31, 0x00	; 0
    1412:	80 81       	ld	r24, Z
    1414:	8f 7e       	andi	r24, 0xEF	; 239
		
		PWM_OFF;//************************************************************************************	Aktion:				WPM Einschalten
    1416:	80 83       	st	Z, r24
    1418:	62 e0       	ldi	r22, 0x02	; 2
    141a:	84 e6       	ldi	r24, 0x64	; 100
    141c:	93 e0       	ldi	r25, 0x03	; 3
    141e:	a6 dc       	rcall	.-1716   	; 0xd6c <Uart_Transmit_IT_PC>
		
		ch0 = (unsigned char *)"\r\n";
		Uart_Transmit_IT_PC(ch0,strlen((const char*)ch0));//******************************************	Status Ende:		Test 8kHz-Signal ausschalten
    1420:	df 91       	pop	r29
    1422:	cf 91       	pop	r28
    1424:	08 95       	ret

00001426 <check_Communication_Input_UART_2>:
    1426:	86 e4       	ldi	r24, 0x46	; 70
    1428:	99 e0       	ldi	r25, 0x09	; 9
	}
}
    142a:	63 da       	rcall	.-2874   	; 0x8f2 <RB_length>
    142c:	88 23       	and	r24, r24
    142e:	09 f4       	brne	.+2      	; 0x1432 <check_Communication_Input_UART_2+0xc>

char check_Communication_Input_UART_2(void)
{
	char ret = 0;
	if(RB_length(&rb_rx_ESP)>0)					// UART_2
    1430:	60 c0       	rjmp	.+192    	; 0x14f2 <check_Communication_Input_UART_2+0xcc>
	{
		unsigned char ch = RB_readByte(&rb_rx_ESP);
    1432:	86 e4       	ldi	r24, 0x46	; 70
    1434:	99 e0       	ldi	r25, 0x09	; 9
    1436:	69 da       	rcall	.-2862   	; 0x90a <RB_readByte>
		if (ch == 0xFF)
    1438:	8f 3f       	cpi	r24, 0xFF	; 255
    143a:	51 f5       	brne	.+84     	; 0x1490 <check_Communication_Input_UART_2+0x6a>
		{
			if (cntr_End_UART_2==0)
    143c:	90 91 72 04 	lds	r25, 0x0472	; 0x800472 <cntr_End_UART_2>
    1440:	99 23       	and	r25, r25
    1442:	19 f0       	breq	.+6      	; 0x144a <check_Communication_Input_UART_2+0x24>
			{
				cntr_End_UART_2++;
			}
			if (cntr_End_UART_2==1 && (INPUT_UART_2[cntr_UART_2-1] == 0xFF))
    1444:	91 30       	cpi	r25, 0x01	; 1
    1446:	09 f0       	breq	.+2      	; 0x144a <check_Communication_Input_UART_2+0x24>
    1448:	59 c0       	rjmp	.+178    	; 0x14fc <check_Communication_Input_UART_2+0xd6>
    144a:	e0 91 74 04 	lds	r30, 0x0474	; 0x800474 <cntr_UART_2>
    144e:	f0 e0       	ldi	r31, 0x00	; 0
    1450:	e5 5b       	subi	r30, 0xB5	; 181
    1452:	ff 4e       	sbci	r31, 0xEF	; 239
    1454:	90 81       	ld	r25, Z
    1456:	9f 3f       	cpi	r25, 0xFF	; 255
    1458:	09 f0       	breq	.+2      	; 0x145c <check_Communication_Input_UART_2+0x36>
    145a:	4d c0       	rjmp	.+154    	; 0x14f6 <check_Communication_Input_UART_2+0xd0>
			{
				cntr_End_UART_2++;
    145c:	92 e0       	ldi	r25, 0x02	; 2
    145e:	90 93 72 04 	sts	0x0472, r25	; 0x800472 <cntr_End_UART_2>
			}
			if (cntr_End_UART_2==1 && (INPUT_UART_2[cntr_UART_2-1] != 0xFF))
			{
				cntr_End_UART_2=0;
			}
			if (cntr_End_UART_2==2 && (INPUT_UART_2[cntr_UART_2-1] == 0xFF) && (INPUT_UART_2[cntr_UART_2-2] == 0xFF))
    1462:	20 91 74 04 	lds	r18, 0x0474	; 0x800474 <cntr_UART_2>
    1466:	30 e0       	ldi	r19, 0x00	; 0
    1468:	f9 01       	movw	r30, r18
    146a:	e5 5b       	subi	r30, 0xB5	; 181
    146c:	ff 4e       	sbci	r31, 0xEF	; 239
    146e:	90 81       	ld	r25, Z
    1470:	9f 3f       	cpi	r25, 0xFF	; 255
    1472:	59 f4       	brne	.+22     	; 0x148a <check_Communication_Input_UART_2+0x64>
    1474:	f9 01       	movw	r30, r18
    1476:	e6 5b       	subi	r30, 0xB6	; 182
    1478:	ff 4e       	sbci	r31, 0xEF	; 239
    147a:	90 81       	ld	r25, Z
    147c:	9f 3f       	cpi	r25, 0xFF	; 255
    147e:	09 f0       	breq	.+2      	; 0x1482 <check_Communication_Input_UART_2+0x5c>
    1480:	42 c0       	rjmp	.+132    	; 0x1506 <check_Communication_Input_UART_2+0xe0>
			{
				cntr_End_UART_2++;
    1482:	83 e0       	ldi	r24, 0x03	; 3
    1484:	80 93 72 04 	sts	0x0472, r24	; 0x800472 <cntr_End_UART_2>
    1488:	07 c0       	rjmp	.+14     	; 0x1498 <check_Communication_Input_UART_2+0x72>
			}
			if (cntr_End_UART_2==2 && ((INPUT_UART_2[cntr_UART_2-1] != 0xFF) || (INPUT_UART_2[cntr_UART_2-2] != 0xFF)))
			{
				cntr_End_UART_2 = 0;
    148a:	10 92 72 04 	sts	0x0472, r1	; 0x800472 <cntr_End_UART_2>
    148e:	25 c0       	rjmp	.+74     	; 0x14da <check_Communication_Input_UART_2+0xb4>
			}
		}
		if (cntr_End_UART_2 == 3)
    1490:	90 91 72 04 	lds	r25, 0x0472	; 0x800472 <cntr_End_UART_2>
    1494:	93 30       	cpi	r25, 0x03	; 3
    1496:	09 f5       	brne	.+66     	; 0x14da <check_Communication_Input_UART_2+0xb4>
		{
		Uart_Transmit_IT_PC((unsigned char *)INPUT_UART_2,strlen((const char*)INPUT_UART_2));
    1498:	ec e4       	ldi	r30, 0x4C	; 76
    149a:	f0 e1       	ldi	r31, 0x10	; 16
    149c:	01 90       	ld	r0, Z+
    149e:	00 20       	and	r0, r0
    14a0:	e9 f7       	brne	.-6      	; 0x149c <check_Communication_Input_UART_2+0x76>
    14a2:	31 97       	sbiw	r30, 0x01	; 1
    14a4:	bf 01       	movw	r22, r30
    14a6:	6c 54       	subi	r22, 0x4C	; 76
    14a8:	70 41       	sbci	r23, 0x10	; 16
    14aa:	8c e4       	ldi	r24, 0x4C	; 76
    14ac:	90 e1       	ldi	r25, 0x10	; 16
    14ae:	5e dc       	rcall	.-1860   	; 0xd6c <Uart_Transmit_IT_PC>
		Uart_Transmit_IT_PC((unsigned char *)"\r\n",strlen((const char*)"\r\n"));
    14b0:	62 e0       	ldi	r22, 0x02	; 2
    14b2:	84 e6       	ldi	r24, 0x64	; 100
    14b4:	93 e0       	ldi	r25, 0x03	; 3
    14b6:	5a dc       	rcall	.-1868   	; 0xd6c <Uart_Transmit_IT_PC>
			INPUT_UART_2[cntr_UART_2] = 0;
    14b8:	e0 91 74 04 	lds	r30, 0x0474	; 0x800474 <cntr_UART_2>
    14bc:	f0 e0       	ldi	r31, 0x00	; 0
    14be:	e4 5b       	subi	r30, 0xB4	; 180
    14c0:	ff 4e       	sbci	r31, 0xEF	; 239
    14c2:	10 82       	st	Z, r1
			INPUT_UART_2[cntr_UART_2-1]=0;
    14c4:	df 01       	movw	r26, r30
    14c6:	11 97       	sbiw	r26, 0x01	; 1
    14c8:	1c 92       	st	X, r1
			INPUT_UART_2[cntr_UART_2-2]=0;
    14ca:	32 97       	sbiw	r30, 0x02	; 2
    14cc:	10 82       	st	Z, r1
			cntr_UART_2 = 0;
    14ce:	10 92 74 04 	sts	0x0474, r1	; 0x800474 <cntr_UART_2>
			cntr_End_UART_2 = 0;
    14d2:	10 92 72 04 	sts	0x0472, r1	; 0x800472 <cntr_End_UART_2>
			ret = 1;
    14d6:	81 e0       	ldi	r24, 0x01	; 1
    14d8:	08 95       	ret


		}
		else
		{
			INPUT_UART_2[cntr_UART_2]=ch;
    14da:	90 91 74 04 	lds	r25, 0x0474	; 0x800474 <cntr_UART_2>
    14de:	e9 2f       	mov	r30, r25
    14e0:	f0 e0       	ldi	r31, 0x00	; 0
    14e2:	e4 5b       	subi	r30, 0xB4	; 180
    14e4:	ff 4e       	sbci	r31, 0xEF	; 239
    14e6:	80 83       	st	Z, r24
			cntr_UART_2++;
    14e8:	9f 5f       	subi	r25, 0xFF	; 255
    14ea:	90 93 74 04 	sts	0x0474, r25	; 0x800474 <cntr_UART_2>
			ret = 0;
    14ee:	80 e0       	ldi	r24, 0x00	; 0
    14f0:	08 95       	ret
	}
}

char check_Communication_Input_UART_2(void)
{
	char ret = 0;
    14f2:	80 e0       	ldi	r24, 0x00	; 0
			INPUT_UART_2[cntr_UART_2]=ch;
			cntr_UART_2++;
			ret = 0;
		}
	}
	return ret;
    14f4:	08 95       	ret
			{
				cntr_End_UART_2++;
			}
			if (cntr_End_UART_2==1 && (INPUT_UART_2[cntr_UART_2-1] != 0xFF))
			{
				cntr_End_UART_2=0;
    14f6:	10 92 72 04 	sts	0x0472, r1	; 0x800472 <cntr_End_UART_2>
    14fa:	ca cf       	rjmp	.-108    	; 0x1490 <check_Communication_Input_UART_2+0x6a>
			}
			if (cntr_End_UART_2==2 && (INPUT_UART_2[cntr_UART_2-1] == 0xFF) && (INPUT_UART_2[cntr_UART_2-2] == 0xFF))
    14fc:	90 91 72 04 	lds	r25, 0x0472	; 0x800472 <cntr_End_UART_2>
    1500:	92 30       	cpi	r25, 0x02	; 2
    1502:	31 f6       	brne	.-116    	; 0x1490 <check_Communication_Input_UART_2+0x6a>
    1504:	ae cf       	rjmp	.-164    	; 0x1462 <check_Communication_Input_UART_2+0x3c>
			{
				cntr_End_UART_2++;
			}
			if (cntr_End_UART_2==2 && ((INPUT_UART_2[cntr_UART_2-1] != 0xFF) || (INPUT_UART_2[cntr_UART_2-2] != 0xFF)))
    1506:	e0 91 74 04 	lds	r30, 0x0474	; 0x800474 <cntr_UART_2>
    150a:	f0 e0       	ldi	r31, 0x00	; 0
    150c:	e6 5b       	subi	r30, 0xB6	; 182
    150e:	ff 4e       	sbci	r31, 0xEF	; 239
    1510:	90 81       	ld	r25, Z
    1512:	9f 3f       	cpi	r25, 0xFF	; 255
    1514:	09 f0       	breq	.+2      	; 0x1518 <check_Communication_Input_UART_2+0xf2>
    1516:	b9 cf       	rjmp	.-142    	; 0x148a <check_Communication_Input_UART_2+0x64>
    1518:	e0 cf       	rjmp	.-64     	; 0x14da <check_Communication_Input_UART_2+0xb4>

0000151a <proceed_Communication_Input_UART_2>:
}

void proceed_Communication_Input_UART_2(void)
{
		unsigned char *ch0 = (unsigned char *)"Proceed UART 2: \r\n\r\n";//************************	Start
		Uart_Transmit_IT_PC(ch0,strlen((const char*)ch0));
    151a:	64 e1       	ldi	r22, 0x14	; 20
    151c:	82 e5       	ldi	r24, 0x52	; 82
    151e:	94 e0       	ldi	r25, 0x04	; 4
    1520:	25 dc       	rcall	.-1974   	; 0xd6c <Uart_Transmit_IT_PC>
	UART_recieved_finished_2 = 0;
    1522:	10 92 73 04 	sts	0x0473, r1	; 0x800473 <UART_recieved_finished_2>

//**************************** PAGE 0xFF, BUTTON 0xB1**************************(Gin Tonic Startseite)	Aktionsherkunft		Menu-Button
	
	if(INPUT_UART_2[0]==0xFF&&INPUT_UART_2[1]==0xB1)
    1526:	80 91 4c 10 	lds	r24, 0x104C	; 0x80104c <INPUT_UART_2>
    152a:	8f 3f       	cpi	r24, 0xFF	; 255
    152c:	09 f0       	breq	.+2      	; 0x1530 <proceed_Communication_Input_UART_2+0x16>
    152e:	4a c0       	rjmp	.+148    	; 0x15c4 <proceed_Communication_Input_UART_2+0xaa>
    1530:	80 91 4d 10 	lds	r24, 0x104D	; 0x80104d <INPUT_UART_2+0x1>
    1534:	81 3b       	cpi	r24, 0xB1	; 177
    1536:	09 f0       	breq	.+2      	; 0x153a <proceed_Communication_Input_UART_2+0x20>
    1538:	45 c0       	rjmp	.+138    	; 0x15c4 <proceed_Communication_Input_UART_2+0xaa>
	{
		unsigned char *ch0 = (unsigned char *)"Beginn Tests: \r\n\r\n";//************************	Start
		Uart_Transmit_IT_PC(ch0,strlen((const char*)ch0));
    153a:	62 e1       	ldi	r22, 0x12	; 18
    153c:	88 eb       	ldi	r24, 0xB8	; 184
    153e:	92 e0       	ldi	r25, 0x02	; 2
    1540:	15 dc       	rcall	.-2006   	; 0xd6c <Uart_Transmit_IT_PC>
		
		ch0 = (unsigned char *)"Initialisiere TMC: \r\n";//******************************************	Status Beginn:		Init_SPI
		Uart_Transmit_IT_PC(ch0,strlen((const char*)ch0));
    1542:	65 e1       	ldi	r22, 0x15	; 21
    1544:	8b ec       	ldi	r24, 0xCB	; 203
    1546:	92 e0       	ldi	r25, 0x02	; 2
		
 		TMC4671_init();//****************************************************************************	Aktion:				Initialisiere SPI
    1548:	11 dc       	rcall	.-2014   	; 0xd6c <Uart_Transmit_IT_PC>
		
		ch0 = (unsigned char *)"\r\n";
		Uart_Transmit_IT_PC(ch0,strlen((const char*)ch0));//*****************************************	Status Ende:		Init_SPI
    154a:	b9 da       	rcall	.-2702   	; 0xabe <TMC4671_init>
    154c:	62 e0       	ldi	r22, 0x02	; 2
    154e:	84 e6       	ldi	r24, 0x64	; 100
    1550:	93 e0       	ldi	r25, 0x03	; 3

		ch0 = (unsigned char *)"Setze Text Display 1: \r\n";//***************************************	Status Beginn:		Test Text 1
		Uart_Transmit_IT_PC(ch0,strlen((const char*)ch0));
    1552:	0c dc       	rcall	.-2024   	; 0xd6c <Uart_Transmit_IT_PC>
    1554:	68 e1       	ldi	r22, 0x18	; 24
    1556:	81 ee       	ldi	r24, 0xE1	; 225
    1558:	92 e0       	ldi	r25, 0x02	; 2
		
		unsigned char * ch1 = (unsigned char *)"b1";//***********************************************	Button:				b1
		unsigned char * ch2 = (unsigned char *)"Lemon Soda1";//**************************************	Text:				Lemon Soda1
		nextion_setText(ch1,ch2,NEXTION_DISPLAY_2);//************************************************	Aktion:				setText
    155a:	08 dc       	rcall	.-2032   	; 0xd6c <Uart_Transmit_IT_PC>
    155c:	42 e0       	ldi	r20, 0x02	; 2
    155e:	6a ef       	ldi	r22, 0xFA	; 250
    1560:	72 e0       	ldi	r23, 0x02	; 2
    1562:	86 e0       	ldi	r24, 0x06	; 6
    1564:	93 e0       	ldi	r25, 0x03	; 3

		ch0 = (unsigned char *)"\r\n\r\n";
		Uart_Transmit_IT_PC(ch0,strlen((const char*)ch0));//*****************************************	Status Ende:		Test Text 1
    1566:	22 d8       	rcall	.-4028   	; 0x5ac <nextion_setText>
    1568:	64 e0       	ldi	r22, 0x04	; 4
    156a:	82 e6       	ldi	r24, 0x62	; 98
    156c:	93 e0       	ldi	r25, 0x03	; 3


		ch0 = (unsigned char *)"Setze Text Display 2: \r\n";//***************************************	Status Beginn:		Test Text 2
		Uart_Transmit_IT_PC(ch0,strlen((const char*)ch0));
    156e:	fe db       	rcall	.-2052   	; 0xd6c <Uart_Transmit_IT_PC>
    1570:	68 e1       	ldi	r22, 0x18	; 24
    1572:	89 e0       	ldi	r24, 0x09	; 9
    1574:	93 e0       	ldi	r25, 0x03	; 3

		ch1 = (unsigned char *)"b0";//***************************************************************	Button:				b0
		ch2 = (unsigned char *)"Lemon Soda2";//******************************************************	Text:				Lemon Soda2
		nextion_setText(ch1,ch2,NEXTION_DISPLAY_2);//************************************************	Aktion:				setText
    1576:	fa db       	rcall	.-2060   	; 0xd6c <Uart_Transmit_IT_PC>
    1578:	42 e0       	ldi	r20, 0x02	; 2
    157a:	62 e2       	ldi	r22, 0x22	; 34
    157c:	73 e0       	ldi	r23, 0x03	; 3
    157e:	8e e2       	ldi	r24, 0x2E	; 46
    1580:	93 e0       	ldi	r25, 0x03	; 3
// 		Uart_Transmit_IT_PC(ch0,strlen((const char*)ch0));
		
		ch1 = (unsigned char *)"t0";//****************************************************************	Button:				t0
		ch2 = (unsigned char *)"Lemon Soda3";//*******************************************************	Text:				Lemon Soda3

		nextion_setText(ch1,ch2,NEXTION_DISPLAY_2);//*************************************************	Aktion:				setText
    1582:	14 d8       	rcall	.-4056   	; 0x5ac <nextion_setText>
    1584:	42 e0       	ldi	r20, 0x02	; 2
    1586:	61 e3       	ldi	r22, 0x31	; 49
    1588:	73 e0       	ldi	r23, 0x03	; 3
    158a:	8d e3       	ldi	r24, 0x3D	; 61
    158c:	93 e0       	ldi	r25, 0x03	; 3
		
		ch0 = (unsigned char *)"\r\n\r\n";
		Uart_Transmit_IT_PC(ch0,strlen((const char*)ch0));//******************************************	Status Ende:		Test Text 3
    158e:	0e d8       	rcall	.-4068   	; 0x5ac <nextion_setText>
    1590:	64 e0       	ldi	r22, 0x04	; 4
    1592:	82 e6       	ldi	r24, 0x62	; 98
    1594:	93 e0       	ldi	r25, 0x03	; 3
		
		ch1 = (unsigned char *)"250";//***************************************************************	x-Koordinate:		250
		ch2 = (unsigned char *)"80";//****************************************************************	y-Koordinate:		80
		unsigned char * ch3 = (unsigned char *)"7";//*************************************************	Bild Nr.:			7

		nextion_setPicture(ch1,ch2,ch3,NEXTION_DISPLAY_2);//******************************************	Aktion:				setPicture
    1596:	ea db       	rcall	.-2092   	; 0xd6c <Uart_Transmit_IT_PC>
    1598:	22 e0       	ldi	r18, 0x02	; 2
    159a:	40 e4       	ldi	r20, 0x40	; 64
    159c:	53 e0       	ldi	r21, 0x03	; 3
    159e:	62 e4       	ldi	r22, 0x42	; 66
    15a0:	73 e0       	ldi	r23, 0x03	; 3
    15a2:	85 e4       	ldi	r24, 0x45	; 69
    15a4:	93 e0       	ldi	r25, 0x03	; 3
		
		ch1 = (unsigned char *)"0";//*****************************************************************	x-Koordinate:		0
		ch2 = (unsigned char *)"80";//****************************************************************	y-Koordinate:		80
		ch3 = (unsigned char *)"7";//*****************************************************************	Bild Nr.:			7

		nextion_setPicture(ch1,ch2,ch3,NEXTION_DISPLAY_2);//******************************************	Aktion:				setPicture
    15a6:	cc d8       	rcall	.-3688   	; 0x740 <nextion_setPicture>
    15a8:	22 e0       	ldi	r18, 0x02	; 2
    15aa:	40 e4       	ldi	r20, 0x40	; 64
    15ac:	53 e0       	ldi	r21, 0x03	; 3
    15ae:	62 e4       	ldi	r22, 0x42	; 66
    15b0:	73 e0       	ldi	r23, 0x03	; 3
    15b2:	81 e1       	ldi	r24, 0x11	; 17
    15b4:	92 e0       	ldi	r25, 0x02	; 2
// 		Uart_Transmit_IT_PC(ch0,strlen((const char*)ch0));//******************************************	Status Ende:		Test Setze Bild 2
		
		ch0 = (unsigned char *)"Toggle LED: \r\n";//**************************************************	Status Beginn:		Toggle LED
// 		Uart_Transmit_IT_PC(ch0,strlen((const char*)ch0));
		
		toggle_LED();//*******************************************************************************	Aktion:				Toggle LED
    15b6:	c4 d8       	rcall	.-3704   	; 0x740 <nextion_setPicture>
    15b8:	cb dd       	rcall	.-1130   	; 0x1150 <toggle_LED>
// 		Uart_Transmit_IT_PC(ch0,strlen((const char*)ch0));//******************************************	Status Ende:		Toggle LED

		ch0 = (unsigned char *)"8kHz-Signal: \r\n";// *************************************	Status Beginn:		Test 8kHz-Signal einschalten
// 		Uart_Transmit_IT_PC(ch0,strlen((const char*)ch0));
		
		PWM_ON;//*************************************************************************************	Aktion:				WPM Einschalten
    15ba:	e0 ea       	ldi	r30, 0xA0	; 160
    15bc:	f0 e0       	ldi	r31, 0x00	; 0
    15be:	80 81       	ld	r24, Z
    15c0:	80 61       	ori	r24, 0x10	; 16
    15c2:	80 83       	st	Z, r24
// 		Uart_Transmit_IT_PC(ch0,strlen((const char*)ch0));//******************************************	Status Ende:		Toggle LED
	}

//**************************** PAGE 0x07, BUTTON 0x01***********************(Whiskey Cola Zubereitung)	Aktionsherkunft		0.5L
	
	if(INPUT_UART_1[0]==0x07&&INPUT_UART_1[1]==0x01)
    15c4:	80 91 48 0b 	lds	r24, 0x0B48	; 0x800b48 <INPUT_UART_1>
    15c8:	87 30       	cpi	r24, 0x07	; 7
    15ca:	09 f0       	breq	.+2      	; 0x15ce <proceed_Communication_Input_UART_2+0xb4>
    15cc:	58 c0       	rjmp	.+176    	; 0x167e <proceed_Communication_Input_UART_2+0x164>
    15ce:	80 91 49 0b 	lds	r24, 0x0B49	; 0x800b49 <INPUT_UART_1+0x1>
    15d2:	81 30       	cpi	r24, 0x01	; 1
	{
		unsigned char *ch0 = (unsigned char *)"Beginn Programmablauf: \r\n\r\n\r\n";//****************	Start
		Uart_Transmit_IT_PC(ch0,strlen((const char*)ch0));
    15d4:	09 f0       	breq	.+2      	; 0x15d8 <proceed_Communication_Input_UART_2+0xbe>
    15d6:	53 c0       	rjmp	.+166    	; 0x167e <proceed_Communication_Input_UART_2+0x164>
    15d8:	6d e1       	ldi	r22, 0x1D	; 29
    15da:	89 e4       	ldi	r24, 0x49	; 73
    15dc:	93 e0       	ldi	r25, 0x03	; 3

		ch0 = (unsigned char *)"Unterhaltungstext schreiben: \r\n";//********************************	Status Beginn:		Test Text 1
		Uart_Transmit_IT_PC(ch0,strlen((const char*)ch0));
    15de:	c6 db       	rcall	.-2164   	; 0xd6c <Uart_Transmit_IT_PC>
    15e0:	6f e1       	ldi	r22, 0x1F	; 31
    15e2:	87 e6       	ldi	r24, 0x67	; 103
    15e4:	93 e0       	ldi	r25, 0x03	; 3
		
		unsigned char * ch1 = (unsigned char *)"t1";//***********************************************	Button:				b1
		unsigned char * ch2 = (unsigned char *)"Wussten Sie, dass dieser\\rDrink in unter einer Minute\\rhergestellt wird?\\rNicht?";
		//*******************************************************************************************	Text:				Lemon Soda1
		nextion_setText(ch1,ch2,NEXTION_DISPLAY_2);//************************************************	Aktion:				setText
    15e6:	c2 db       	rcall	.-2172   	; 0xd6c <Uart_Transmit_IT_PC>
    15e8:	42 e0       	ldi	r20, 0x02	; 2
    15ea:	67 e8       	ldi	r22, 0x87	; 135
    15ec:	73 e0       	ldi	r23, 0x03	; 3
    15ee:	88 ed       	ldi	r24, 0xD8	; 216

		ch0 = (unsigned char *)"\r\n\r\n";
		Uart_Transmit_IT_PC(ch0,strlen((const char*)ch0));//*****************************************	Status Ende:		Test Text 1
    15f0:	93 e0       	ldi	r25, 0x03	; 3
    15f2:	0e 94 d6 02 	call	0x5ac	; 0x5ac <nextion_setText>
    15f6:	64 e0       	ldi	r22, 0x04	; 4
				
		ch0 = (unsigned char *)"TMC im Openloop laufen lassen: \r\n";//******************************	Status Beginn:		TMC Openloop
		Uart_Transmit_IT_PC(ch0,strlen((const char*)ch0));
    15f8:	82 e6       	ldi	r24, 0x62	; 98
    15fa:	93 e0       	ldi	r25, 0x03	; 3
    15fc:	b7 db       	rcall	.-2194   	; 0xd6c <Uart_Transmit_IT_PC>
    15fe:	61 e2       	ldi	r22, 0x21	; 33
    1600:	8b ed       	ldi	r24, 0xDB	; 219
		
		initTMC4671_Openloop();//********************************************************************	Aktion:				TMC Openloop
    1602:	93 e0       	ldi	r25, 0x03	; 3
    1604:	b3 db       	rcall	.-2202   	; 0xd6c <Uart_Transmit_IT_PC>
		
		ch0 = (unsigned char *)"\r\n";
		Uart_Transmit_IT_PC(ch0,strlen((const char*)ch0));//*****************************************	Status Ende:		TMC Openloop
    1606:	b7 da       	rcall	.-2706   	; 0xb76 <initTMC4671_Openloop>
    1608:	62 e0       	ldi	r22, 0x02	; 2
    160a:	84 e6       	ldi	r24, 0x64	; 100
    160c:	93 e0       	ldi	r25, 0x03	; 3
		
		ch0 = (unsigned char *)"Auf Seite 9 wechseln: \r\n";//***************************************	Status Beginn:		Seite wechseln
		Uart_Transmit_IT_PC(ch0,strlen((const char*)ch0));
    160e:	ae db       	rcall	.-2212   	; 0xd6c <Uart_Transmit_IT_PC>
    1610:	68 e1       	ldi	r22, 0x18	; 24
    1612:	8d ef       	ldi	r24, 0xFD	; 253
    1614:	93 e0       	ldi	r25, 0x03	; 3
    1616:	aa db       	rcall	.-2220   	; 0xd6c <Uart_Transmit_IT_PC>
		
		ch1 = (unsigned char *)"9";//****************************************************************	Seite:				9
		nextion_change_page(ch1);//******************************************************************	Aktion:				changePage
    1618:	86 e1       	ldi	r24, 0x16	; 22
    161a:	94 e0       	ldi	r25, 0x04	; 4
    161c:	0e 94 ae 02 	call	0x55c	; 0x55c <nextion_change_page>

		ch0 = (unsigned char *)"\r\n";
		Uart_Transmit_IT_PC(ch0,strlen((const char*)ch0));//*****************************************	Status Ende:		Seite wechseln
    1620:	62 e0       	ldi	r22, 0x02	; 2
    1622:	84 e6       	ldi	r24, 0x64	; 100
    1624:	93 e0       	ldi	r25, 0x03	; 3
    1626:	a2 db       	rcall	.-2236   	; 0xd6c <Uart_Transmit_IT_PC>
    1628:	2f ef       	ldi	r18, 0xFF	; 255
    162a:	87 ea       	ldi	r24, 0xA7	; 167
    162c:	91 e6       	ldi	r25, 0x61	; 97
    162e:	21 50       	subi	r18, 0x01	; 1
    1630:	80 40       	sbci	r24, 0x00	; 0
    1632:	90 40       	sbci	r25, 0x00	; 0
    1634:	e1 f7       	brne	.-8      	; 0x162e <proceed_Communication_Input_UART_2+0x114>
		
		_delay_ms(2000);

		ch0 = (unsigned char *)"Auf Seite 4 wechseln: \r\n";//***************************************	Status Beginn:		Seite wechseln
		Uart_Transmit_IT_PC(ch0,strlen((const char*)ch0));
    1636:	00 c0       	rjmp	.+0      	; 0x1638 <proceed_Communication_Input_UART_2+0x11e>
    1638:	00 00       	nop
    163a:	68 e1       	ldi	r22, 0x18	; 24
    163c:	88 e1       	ldi	r24, 0x18	; 24
		
		ch1 = (unsigned char *)"4";// ****************************************************************	Seite:				4 (Cocktailliste)
		nextion_change_page(ch1);// ******************************************************************	Aktion:				changePage
    163e:	94 e0       	ldi	r25, 0x04	; 4
    1640:	95 db       	rcall	.-2262   	; 0xd6c <Uart_Transmit_IT_PC>
    1642:	81 e3       	ldi	r24, 0x31	; 49

		ch0 = (unsigned char *)"\r\n";
		Uart_Transmit_IT_PC(ch0,strlen((const char*)ch0));// *****************************************	Status Ende:		Seite wechseln
    1644:	94 e0       	ldi	r25, 0x04	; 4
    1646:	0e 94 ae 02 	call	0x55c	; 0x55c <nextion_change_page>
    164a:	62 e0       	ldi	r22, 0x02	; 2
    164c:	84 e6       	ldi	r24, 0x64	; 100


		ch0 = (unsigned char *)"Toggle LED: \r\n";//**************************************************	Status Beginn:		Toggle LED
		Uart_Transmit_IT_PC(ch0,strlen((const char*)ch0));
    164e:	93 e0       	ldi	r25, 0x03	; 3
    1650:	8d db       	rcall	.-2278   	; 0xd6c <Uart_Transmit_IT_PC>
    1652:	6e e0       	ldi	r22, 0x0E	; 14
    1654:	83 e3       	ldi	r24, 0x33	; 51
		
		toggle_LED();//*******************************************************************************	Aktion:				Toggle LED
    1656:	94 e0       	ldi	r25, 0x04	; 4
    1658:	89 db       	rcall	.-2286   	; 0xd6c <Uart_Transmit_IT_PC>
		
		ch0 = (unsigned char *)"\r\n";
		Uart_Transmit_IT_PC(ch0,strlen((const char*)ch0));//******************************************	Status Ende:		Toggle LED
    165a:	7a dd       	rcall	.-1292   	; 0x1150 <toggle_LED>
    165c:	62 e0       	ldi	r22, 0x02	; 2
    165e:	84 e6       	ldi	r24, 0x64	; 100
    1660:	93 e0       	ldi	r25, 0x03	; 3
    1662:	84 db       	rcall	.-2296   	; 0xd6c <Uart_Transmit_IT_PC>

		ch0 = (unsigned char *)"8kHz-Signal: \r\n";// ************************************************	Status Beginn:		Test 8kHz-Signal ausschalten
		Uart_Transmit_IT_PC(ch0,strlen((const char*)ch0));
    1664:	6f e0       	ldi	r22, 0x0F	; 15
    1666:	82 e4       	ldi	r24, 0x42	; 66
    1668:	94 e0       	ldi	r25, 0x04	; 4
    166a:	80 db       	rcall	.-2304   	; 0xd6c <Uart_Transmit_IT_PC>
    166c:	e0 ea       	ldi	r30, 0xA0	; 160
		
		PWM_OFF;//************************************************************************************	Aktion:				WPM Einschalten
    166e:	f0 e0       	ldi	r31, 0x00	; 0
    1670:	80 81       	ld	r24, Z
    1672:	8f 7e       	andi	r24, 0xEF	; 239
    1674:	80 83       	st	Z, r24
    1676:	62 e0       	ldi	r22, 0x02	; 2
		
		ch0 = (unsigned char *)"\r\n";
		Uart_Transmit_IT_PC(ch0,strlen((const char*)ch0));//******************************************	Status Ende:		Test 8kHz-Signal ausschalten
    1678:	84 e6       	ldi	r24, 0x64	; 100
    167a:	93 e0       	ldi	r25, 0x03	; 3
    167c:	77 cb       	rjmp	.-2322   	; 0xd6c <Uart_Transmit_IT_PC>
    167e:	08 95       	ret

00001680 <memset>:
    1680:	dc 01       	movw	r26, r24
    1682:	01 c0       	rjmp	.+2      	; 0x1686 <memset+0x6>
    1684:	6d 93       	st	X+, r22
    1686:	41 50       	subi	r20, 0x01	; 1
    1688:	50 40       	sbci	r21, 0x00	; 0
    168a:	e0 f7       	brcc	.-8      	; 0x1684 <memset+0x4>
    168c:	08 95       	ret

0000168e <strcat>:
    168e:	fb 01       	movw	r30, r22
    1690:	dc 01       	movw	r26, r24
    1692:	0d 90       	ld	r0, X+
    1694:	00 20       	and	r0, r0
    1696:	e9 f7       	brne	.-6      	; 0x1692 <strcat+0x4>
    1698:	11 97       	sbiw	r26, 0x01	; 1
    169a:	01 90       	ld	r0, Z+
    169c:	0d 92       	st	X+, r0
    169e:	00 20       	and	r0, r0
    16a0:	e1 f7       	brne	.-8      	; 0x169a <strcat+0xc>
    16a2:	08 95       	ret

000016a4 <__itoa_ncheck>:
    16a4:	bb 27       	eor	r27, r27
    16a6:	4a 30       	cpi	r20, 0x0A	; 10
    16a8:	31 f4       	brne	.+12     	; 0x16b6 <__itoa_ncheck+0x12>
    16aa:	99 23       	and	r25, r25
    16ac:	22 f4       	brpl	.+8      	; 0x16b6 <__itoa_ncheck+0x12>
    16ae:	bd e2       	ldi	r27, 0x2D	; 45
    16b0:	90 95       	com	r25
    16b2:	81 95       	neg	r24
    16b4:	9f 4f       	sbci	r25, 0xFF	; 255
    16b6:	01 c0       	rjmp	.+2      	; 0x16ba <__utoa_common>

000016b8 <__utoa_ncheck>:
    16b8:	bb 27       	eor	r27, r27

000016ba <__utoa_common>:
    16ba:	fb 01       	movw	r30, r22
    16bc:	55 27       	eor	r21, r21
    16be:	aa 27       	eor	r26, r26
    16c0:	88 0f       	add	r24, r24
    16c2:	99 1f       	adc	r25, r25
    16c4:	aa 1f       	adc	r26, r26
    16c6:	a4 17       	cp	r26, r20
    16c8:	10 f0       	brcs	.+4      	; 0x16ce <__utoa_common+0x14>
    16ca:	a4 1b       	sub	r26, r20
    16cc:	83 95       	inc	r24
    16ce:	50 51       	subi	r21, 0x10	; 16
    16d0:	b9 f7       	brne	.-18     	; 0x16c0 <__utoa_common+0x6>
    16d2:	a0 5d       	subi	r26, 0xD0	; 208
    16d4:	aa 33       	cpi	r26, 0x3A	; 58
    16d6:	08 f0       	brcs	.+2      	; 0x16da <__utoa_common+0x20>
    16d8:	a9 5d       	subi	r26, 0xD9	; 217
    16da:	a1 93       	st	Z+, r26
    16dc:	00 97       	sbiw	r24, 0x00	; 0
    16de:	79 f7       	brne	.-34     	; 0x16be <__utoa_common+0x4>
    16e0:	b1 11       	cpse	r27, r1
    16e2:	b1 93       	st	Z+, r27
    16e4:	11 92       	st	Z+, r1
    16e6:	cb 01       	movw	r24, r22
    16e8:	41 c2       	rjmp	.+1154   	; 0x1b6c <strrev>

000016ea <sprintf>:
    16ea:	0f 93       	push	r16
    16ec:	1f 93       	push	r17
    16ee:	cf 93       	push	r28
    16f0:	df 93       	push	r29
    16f2:	cd b7       	in	r28, 0x3d	; 61
    16f4:	de b7       	in	r29, 0x3e	; 62
    16f6:	2e 97       	sbiw	r28, 0x0e	; 14
    16f8:	0f b6       	in	r0, 0x3f	; 63
    16fa:	f8 94       	cli
    16fc:	de bf       	out	0x3e, r29	; 62
    16fe:	0f be       	out	0x3f, r0	; 63
    1700:	cd bf       	out	0x3d, r28	; 61
    1702:	0e 89       	ldd	r16, Y+22	; 0x16
    1704:	1f 89       	ldd	r17, Y+23	; 0x17
    1706:	86 e0       	ldi	r24, 0x06	; 6
    1708:	8c 83       	std	Y+4, r24	; 0x04
    170a:	1a 83       	std	Y+2, r17	; 0x02
    170c:	09 83       	std	Y+1, r16	; 0x01
    170e:	8f ef       	ldi	r24, 0xFF	; 255
    1710:	9f e7       	ldi	r25, 0x7F	; 127
    1712:	9e 83       	std	Y+6, r25	; 0x06
    1714:	8d 83       	std	Y+5, r24	; 0x05
    1716:	ae 01       	movw	r20, r28
    1718:	46 5e       	subi	r20, 0xE6	; 230
    171a:	5f 4f       	sbci	r21, 0xFF	; 255
    171c:	68 8d       	ldd	r22, Y+24	; 0x18
    171e:	79 8d       	ldd	r23, Y+25	; 0x19
    1720:	ce 01       	movw	r24, r28
    1722:	01 96       	adiw	r24, 0x01	; 1
    1724:	10 d0       	rcall	.+32     	; 0x1746 <vfprintf>
    1726:	ef 81       	ldd	r30, Y+7	; 0x07
    1728:	f8 85       	ldd	r31, Y+8	; 0x08
    172a:	e0 0f       	add	r30, r16
    172c:	f1 1f       	adc	r31, r17
    172e:	10 82       	st	Z, r1
    1730:	2e 96       	adiw	r28, 0x0e	; 14
    1732:	0f b6       	in	r0, 0x3f	; 63
    1734:	f8 94       	cli
    1736:	de bf       	out	0x3e, r29	; 62
    1738:	0f be       	out	0x3f, r0	; 63
    173a:	cd bf       	out	0x3d, r28	; 61
    173c:	df 91       	pop	r29
    173e:	cf 91       	pop	r28
    1740:	1f 91       	pop	r17
    1742:	0f 91       	pop	r16
    1744:	08 95       	ret

00001746 <vfprintf>:
    1746:	2f 92       	push	r2
    1748:	3f 92       	push	r3
    174a:	4f 92       	push	r4
    174c:	5f 92       	push	r5
    174e:	6f 92       	push	r6
    1750:	7f 92       	push	r7
    1752:	8f 92       	push	r8
    1754:	9f 92       	push	r9
    1756:	af 92       	push	r10
    1758:	bf 92       	push	r11
    175a:	cf 92       	push	r12
    175c:	df 92       	push	r13
    175e:	ef 92       	push	r14
    1760:	ff 92       	push	r15
    1762:	0f 93       	push	r16
    1764:	1f 93       	push	r17
    1766:	cf 93       	push	r28
    1768:	df 93       	push	r29
    176a:	cd b7       	in	r28, 0x3d	; 61
    176c:	de b7       	in	r29, 0x3e	; 62
    176e:	2b 97       	sbiw	r28, 0x0b	; 11
    1770:	0f b6       	in	r0, 0x3f	; 63
    1772:	f8 94       	cli
    1774:	de bf       	out	0x3e, r29	; 62
    1776:	0f be       	out	0x3f, r0	; 63
    1778:	cd bf       	out	0x3d, r28	; 61
    177a:	6c 01       	movw	r12, r24
    177c:	7b 01       	movw	r14, r22
    177e:	8a 01       	movw	r16, r20
    1780:	fc 01       	movw	r30, r24
    1782:	17 82       	std	Z+7, r1	; 0x07
    1784:	16 82       	std	Z+6, r1	; 0x06
    1786:	83 81       	ldd	r24, Z+3	; 0x03
    1788:	81 ff       	sbrs	r24, 1
    178a:	bf c1       	rjmp	.+894    	; 0x1b0a <vfprintf+0x3c4>
    178c:	ce 01       	movw	r24, r28
    178e:	01 96       	adiw	r24, 0x01	; 1
    1790:	3c 01       	movw	r6, r24
    1792:	f6 01       	movw	r30, r12
    1794:	93 81       	ldd	r25, Z+3	; 0x03
    1796:	f7 01       	movw	r30, r14
    1798:	93 fd       	sbrc	r25, 3
    179a:	85 91       	lpm	r24, Z+
    179c:	93 ff       	sbrs	r25, 3
    179e:	81 91       	ld	r24, Z+
    17a0:	7f 01       	movw	r14, r30
    17a2:	88 23       	and	r24, r24
    17a4:	09 f4       	brne	.+2      	; 0x17a8 <vfprintf+0x62>
    17a6:	ad c1       	rjmp	.+858    	; 0x1b02 <vfprintf+0x3bc>
    17a8:	85 32       	cpi	r24, 0x25	; 37
    17aa:	39 f4       	brne	.+14     	; 0x17ba <vfprintf+0x74>
    17ac:	93 fd       	sbrc	r25, 3
    17ae:	85 91       	lpm	r24, Z+
    17b0:	93 ff       	sbrs	r25, 3
    17b2:	81 91       	ld	r24, Z+
    17b4:	7f 01       	movw	r14, r30
    17b6:	85 32       	cpi	r24, 0x25	; 37
    17b8:	21 f4       	brne	.+8      	; 0x17c2 <vfprintf+0x7c>
    17ba:	b6 01       	movw	r22, r12
    17bc:	90 e0       	ldi	r25, 0x00	; 0
    17be:	e6 d1       	rcall	.+972    	; 0x1b8c <fputc>
    17c0:	e8 cf       	rjmp	.-48     	; 0x1792 <vfprintf+0x4c>
    17c2:	91 2c       	mov	r9, r1
    17c4:	21 2c       	mov	r2, r1
    17c6:	31 2c       	mov	r3, r1
    17c8:	ff e1       	ldi	r31, 0x1F	; 31
    17ca:	f3 15       	cp	r31, r3
    17cc:	d8 f0       	brcs	.+54     	; 0x1804 <vfprintf+0xbe>
    17ce:	8b 32       	cpi	r24, 0x2B	; 43
    17d0:	79 f0       	breq	.+30     	; 0x17f0 <vfprintf+0xaa>
    17d2:	38 f4       	brcc	.+14     	; 0x17e2 <vfprintf+0x9c>
    17d4:	80 32       	cpi	r24, 0x20	; 32
    17d6:	79 f0       	breq	.+30     	; 0x17f6 <vfprintf+0xb0>
    17d8:	83 32       	cpi	r24, 0x23	; 35
    17da:	a1 f4       	brne	.+40     	; 0x1804 <vfprintf+0xbe>
    17dc:	23 2d       	mov	r18, r3
    17de:	20 61       	ori	r18, 0x10	; 16
    17e0:	1d c0       	rjmp	.+58     	; 0x181c <vfprintf+0xd6>
    17e2:	8d 32       	cpi	r24, 0x2D	; 45
    17e4:	61 f0       	breq	.+24     	; 0x17fe <vfprintf+0xb8>
    17e6:	80 33       	cpi	r24, 0x30	; 48
    17e8:	69 f4       	brne	.+26     	; 0x1804 <vfprintf+0xbe>
    17ea:	23 2d       	mov	r18, r3
    17ec:	21 60       	ori	r18, 0x01	; 1
    17ee:	16 c0       	rjmp	.+44     	; 0x181c <vfprintf+0xd6>
    17f0:	83 2d       	mov	r24, r3
    17f2:	82 60       	ori	r24, 0x02	; 2
    17f4:	38 2e       	mov	r3, r24
    17f6:	e3 2d       	mov	r30, r3
    17f8:	e4 60       	ori	r30, 0x04	; 4
    17fa:	3e 2e       	mov	r3, r30
    17fc:	2a c0       	rjmp	.+84     	; 0x1852 <vfprintf+0x10c>
    17fe:	f3 2d       	mov	r31, r3
    1800:	f8 60       	ori	r31, 0x08	; 8
    1802:	1d c0       	rjmp	.+58     	; 0x183e <vfprintf+0xf8>
    1804:	37 fc       	sbrc	r3, 7
    1806:	2d c0       	rjmp	.+90     	; 0x1862 <vfprintf+0x11c>
    1808:	20 ed       	ldi	r18, 0xD0	; 208
    180a:	28 0f       	add	r18, r24
    180c:	2a 30       	cpi	r18, 0x0A	; 10
    180e:	40 f0       	brcs	.+16     	; 0x1820 <vfprintf+0xda>
    1810:	8e 32       	cpi	r24, 0x2E	; 46
    1812:	b9 f4       	brne	.+46     	; 0x1842 <vfprintf+0xfc>
    1814:	36 fc       	sbrc	r3, 6
    1816:	75 c1       	rjmp	.+746    	; 0x1b02 <vfprintf+0x3bc>
    1818:	23 2d       	mov	r18, r3
    181a:	20 64       	ori	r18, 0x40	; 64
    181c:	32 2e       	mov	r3, r18
    181e:	19 c0       	rjmp	.+50     	; 0x1852 <vfprintf+0x10c>
    1820:	36 fe       	sbrs	r3, 6
    1822:	06 c0       	rjmp	.+12     	; 0x1830 <vfprintf+0xea>
    1824:	8a e0       	ldi	r24, 0x0A	; 10
    1826:	98 9e       	mul	r9, r24
    1828:	20 0d       	add	r18, r0
    182a:	11 24       	eor	r1, r1
    182c:	92 2e       	mov	r9, r18
    182e:	11 c0       	rjmp	.+34     	; 0x1852 <vfprintf+0x10c>
    1830:	ea e0       	ldi	r30, 0x0A	; 10
    1832:	2e 9e       	mul	r2, r30
    1834:	20 0d       	add	r18, r0
    1836:	11 24       	eor	r1, r1
    1838:	22 2e       	mov	r2, r18
    183a:	f3 2d       	mov	r31, r3
    183c:	f0 62       	ori	r31, 0x20	; 32
    183e:	3f 2e       	mov	r3, r31
    1840:	08 c0       	rjmp	.+16     	; 0x1852 <vfprintf+0x10c>
    1842:	8c 36       	cpi	r24, 0x6C	; 108
    1844:	21 f4       	brne	.+8      	; 0x184e <vfprintf+0x108>
    1846:	83 2d       	mov	r24, r3
    1848:	80 68       	ori	r24, 0x80	; 128
    184a:	38 2e       	mov	r3, r24
    184c:	02 c0       	rjmp	.+4      	; 0x1852 <vfprintf+0x10c>
    184e:	88 36       	cpi	r24, 0x68	; 104
    1850:	41 f4       	brne	.+16     	; 0x1862 <vfprintf+0x11c>
    1852:	f7 01       	movw	r30, r14
    1854:	93 fd       	sbrc	r25, 3
    1856:	85 91       	lpm	r24, Z+
    1858:	93 ff       	sbrs	r25, 3
    185a:	81 91       	ld	r24, Z+
    185c:	7f 01       	movw	r14, r30
    185e:	81 11       	cpse	r24, r1
    1860:	b3 cf       	rjmp	.-154    	; 0x17c8 <vfprintf+0x82>
    1862:	98 2f       	mov	r25, r24
    1864:	9f 7d       	andi	r25, 0xDF	; 223
    1866:	95 54       	subi	r25, 0x45	; 69
    1868:	93 30       	cpi	r25, 0x03	; 3
    186a:	28 f4       	brcc	.+10     	; 0x1876 <vfprintf+0x130>
    186c:	0c 5f       	subi	r16, 0xFC	; 252
    186e:	1f 4f       	sbci	r17, 0xFF	; 255
    1870:	9f e3       	ldi	r25, 0x3F	; 63
    1872:	99 83       	std	Y+1, r25	; 0x01
    1874:	0d c0       	rjmp	.+26     	; 0x1890 <vfprintf+0x14a>
    1876:	83 36       	cpi	r24, 0x63	; 99
    1878:	31 f0       	breq	.+12     	; 0x1886 <vfprintf+0x140>
    187a:	83 37       	cpi	r24, 0x73	; 115
    187c:	71 f0       	breq	.+28     	; 0x189a <vfprintf+0x154>
    187e:	83 35       	cpi	r24, 0x53	; 83
    1880:	09 f0       	breq	.+2      	; 0x1884 <vfprintf+0x13e>
    1882:	55 c0       	rjmp	.+170    	; 0x192e <vfprintf+0x1e8>
    1884:	20 c0       	rjmp	.+64     	; 0x18c6 <vfprintf+0x180>
    1886:	f8 01       	movw	r30, r16
    1888:	80 81       	ld	r24, Z
    188a:	89 83       	std	Y+1, r24	; 0x01
    188c:	0e 5f       	subi	r16, 0xFE	; 254
    188e:	1f 4f       	sbci	r17, 0xFF	; 255
    1890:	88 24       	eor	r8, r8
    1892:	83 94       	inc	r8
    1894:	91 2c       	mov	r9, r1
    1896:	53 01       	movw	r10, r6
    1898:	12 c0       	rjmp	.+36     	; 0x18be <vfprintf+0x178>
    189a:	28 01       	movw	r4, r16
    189c:	f2 e0       	ldi	r31, 0x02	; 2
    189e:	4f 0e       	add	r4, r31
    18a0:	51 1c       	adc	r5, r1
    18a2:	f8 01       	movw	r30, r16
    18a4:	a0 80       	ld	r10, Z
    18a6:	b1 80       	ldd	r11, Z+1	; 0x01
    18a8:	36 fe       	sbrs	r3, 6
    18aa:	03 c0       	rjmp	.+6      	; 0x18b2 <vfprintf+0x16c>
    18ac:	69 2d       	mov	r22, r9
    18ae:	70 e0       	ldi	r23, 0x00	; 0
    18b0:	02 c0       	rjmp	.+4      	; 0x18b6 <vfprintf+0x170>
    18b2:	6f ef       	ldi	r22, 0xFF	; 255
    18b4:	7f ef       	ldi	r23, 0xFF	; 255
    18b6:	c5 01       	movw	r24, r10
    18b8:	4e d1       	rcall	.+668    	; 0x1b56 <strnlen>
    18ba:	4c 01       	movw	r8, r24
    18bc:	82 01       	movw	r16, r4
    18be:	f3 2d       	mov	r31, r3
    18c0:	ff 77       	andi	r31, 0x7F	; 127
    18c2:	3f 2e       	mov	r3, r31
    18c4:	15 c0       	rjmp	.+42     	; 0x18f0 <vfprintf+0x1aa>
    18c6:	28 01       	movw	r4, r16
    18c8:	22 e0       	ldi	r18, 0x02	; 2
    18ca:	42 0e       	add	r4, r18
    18cc:	51 1c       	adc	r5, r1
    18ce:	f8 01       	movw	r30, r16
    18d0:	a0 80       	ld	r10, Z
    18d2:	b1 80       	ldd	r11, Z+1	; 0x01
    18d4:	36 fe       	sbrs	r3, 6
    18d6:	03 c0       	rjmp	.+6      	; 0x18de <vfprintf+0x198>
    18d8:	69 2d       	mov	r22, r9
    18da:	70 e0       	ldi	r23, 0x00	; 0
    18dc:	02 c0       	rjmp	.+4      	; 0x18e2 <vfprintf+0x19c>
    18de:	6f ef       	ldi	r22, 0xFF	; 255
    18e0:	7f ef       	ldi	r23, 0xFF	; 255
    18e2:	c5 01       	movw	r24, r10
    18e4:	2d d1       	rcall	.+602    	; 0x1b40 <strnlen_P>
    18e6:	4c 01       	movw	r8, r24
    18e8:	f3 2d       	mov	r31, r3
    18ea:	f0 68       	ori	r31, 0x80	; 128
    18ec:	3f 2e       	mov	r3, r31
    18ee:	82 01       	movw	r16, r4
    18f0:	33 fc       	sbrc	r3, 3
    18f2:	19 c0       	rjmp	.+50     	; 0x1926 <vfprintf+0x1e0>
    18f4:	82 2d       	mov	r24, r2
    18f6:	90 e0       	ldi	r25, 0x00	; 0
    18f8:	88 16       	cp	r8, r24
    18fa:	99 06       	cpc	r9, r25
    18fc:	a0 f4       	brcc	.+40     	; 0x1926 <vfprintf+0x1e0>
    18fe:	b6 01       	movw	r22, r12
    1900:	80 e2       	ldi	r24, 0x20	; 32
    1902:	90 e0       	ldi	r25, 0x00	; 0
    1904:	43 d1       	rcall	.+646    	; 0x1b8c <fputc>
    1906:	2a 94       	dec	r2
    1908:	f5 cf       	rjmp	.-22     	; 0x18f4 <vfprintf+0x1ae>
    190a:	f5 01       	movw	r30, r10
    190c:	37 fc       	sbrc	r3, 7
    190e:	85 91       	lpm	r24, Z+
    1910:	37 fe       	sbrs	r3, 7
    1912:	81 91       	ld	r24, Z+
    1914:	5f 01       	movw	r10, r30
    1916:	b6 01       	movw	r22, r12
    1918:	90 e0       	ldi	r25, 0x00	; 0
    191a:	38 d1       	rcall	.+624    	; 0x1b8c <fputc>
    191c:	21 10       	cpse	r2, r1
    191e:	2a 94       	dec	r2
    1920:	21 e0       	ldi	r18, 0x01	; 1
    1922:	82 1a       	sub	r8, r18
    1924:	91 08       	sbc	r9, r1
    1926:	81 14       	cp	r8, r1
    1928:	91 04       	cpc	r9, r1
    192a:	79 f7       	brne	.-34     	; 0x190a <vfprintf+0x1c4>
    192c:	e1 c0       	rjmp	.+450    	; 0x1af0 <vfprintf+0x3aa>
    192e:	84 36       	cpi	r24, 0x64	; 100
    1930:	11 f0       	breq	.+4      	; 0x1936 <vfprintf+0x1f0>
    1932:	89 36       	cpi	r24, 0x69	; 105
    1934:	39 f5       	brne	.+78     	; 0x1984 <vfprintf+0x23e>
    1936:	f8 01       	movw	r30, r16
    1938:	37 fe       	sbrs	r3, 7
    193a:	07 c0       	rjmp	.+14     	; 0x194a <vfprintf+0x204>
    193c:	60 81       	ld	r22, Z
    193e:	71 81       	ldd	r23, Z+1	; 0x01
    1940:	82 81       	ldd	r24, Z+2	; 0x02
    1942:	93 81       	ldd	r25, Z+3	; 0x03
    1944:	0c 5f       	subi	r16, 0xFC	; 252
    1946:	1f 4f       	sbci	r17, 0xFF	; 255
    1948:	08 c0       	rjmp	.+16     	; 0x195a <vfprintf+0x214>
    194a:	60 81       	ld	r22, Z
    194c:	71 81       	ldd	r23, Z+1	; 0x01
    194e:	07 2e       	mov	r0, r23
    1950:	00 0c       	add	r0, r0
    1952:	88 0b       	sbc	r24, r24
    1954:	99 0b       	sbc	r25, r25
    1956:	0e 5f       	subi	r16, 0xFE	; 254
    1958:	1f 4f       	sbci	r17, 0xFF	; 255
    195a:	f3 2d       	mov	r31, r3
    195c:	ff 76       	andi	r31, 0x6F	; 111
    195e:	3f 2e       	mov	r3, r31
    1960:	97 ff       	sbrs	r25, 7
    1962:	09 c0       	rjmp	.+18     	; 0x1976 <vfprintf+0x230>
    1964:	90 95       	com	r25
    1966:	80 95       	com	r24
    1968:	70 95       	com	r23
    196a:	61 95       	neg	r22
    196c:	7f 4f       	sbci	r23, 0xFF	; 255
    196e:	8f 4f       	sbci	r24, 0xFF	; 255
    1970:	9f 4f       	sbci	r25, 0xFF	; 255
    1972:	f0 68       	ori	r31, 0x80	; 128
    1974:	3f 2e       	mov	r3, r31
    1976:	2a e0       	ldi	r18, 0x0A	; 10
    1978:	30 e0       	ldi	r19, 0x00	; 0
    197a:	a3 01       	movw	r20, r6
    197c:	43 d1       	rcall	.+646    	; 0x1c04 <__ultoa_invert>
    197e:	88 2e       	mov	r8, r24
    1980:	86 18       	sub	r8, r6
    1982:	44 c0       	rjmp	.+136    	; 0x1a0c <vfprintf+0x2c6>
    1984:	85 37       	cpi	r24, 0x75	; 117
    1986:	31 f4       	brne	.+12     	; 0x1994 <vfprintf+0x24e>
    1988:	23 2d       	mov	r18, r3
    198a:	2f 7e       	andi	r18, 0xEF	; 239
    198c:	b2 2e       	mov	r11, r18
    198e:	2a e0       	ldi	r18, 0x0A	; 10
    1990:	30 e0       	ldi	r19, 0x00	; 0
    1992:	25 c0       	rjmp	.+74     	; 0x19de <vfprintf+0x298>
    1994:	93 2d       	mov	r25, r3
    1996:	99 7f       	andi	r25, 0xF9	; 249
    1998:	b9 2e       	mov	r11, r25
    199a:	8f 36       	cpi	r24, 0x6F	; 111
    199c:	c1 f0       	breq	.+48     	; 0x19ce <vfprintf+0x288>
    199e:	18 f4       	brcc	.+6      	; 0x19a6 <vfprintf+0x260>
    19a0:	88 35       	cpi	r24, 0x58	; 88
    19a2:	79 f0       	breq	.+30     	; 0x19c2 <vfprintf+0x27c>
    19a4:	ae c0       	rjmp	.+348    	; 0x1b02 <vfprintf+0x3bc>
    19a6:	80 37       	cpi	r24, 0x70	; 112
    19a8:	19 f0       	breq	.+6      	; 0x19b0 <vfprintf+0x26a>
    19aa:	88 37       	cpi	r24, 0x78	; 120
    19ac:	21 f0       	breq	.+8      	; 0x19b6 <vfprintf+0x270>
    19ae:	a9 c0       	rjmp	.+338    	; 0x1b02 <vfprintf+0x3bc>
    19b0:	e9 2f       	mov	r30, r25
    19b2:	e0 61       	ori	r30, 0x10	; 16
    19b4:	be 2e       	mov	r11, r30
    19b6:	b4 fe       	sbrs	r11, 4
    19b8:	0d c0       	rjmp	.+26     	; 0x19d4 <vfprintf+0x28e>
    19ba:	fb 2d       	mov	r31, r11
    19bc:	f4 60       	ori	r31, 0x04	; 4
    19be:	bf 2e       	mov	r11, r31
    19c0:	09 c0       	rjmp	.+18     	; 0x19d4 <vfprintf+0x28e>
    19c2:	34 fe       	sbrs	r3, 4
    19c4:	0a c0       	rjmp	.+20     	; 0x19da <vfprintf+0x294>
    19c6:	29 2f       	mov	r18, r25
    19c8:	26 60       	ori	r18, 0x06	; 6
    19ca:	b2 2e       	mov	r11, r18
    19cc:	06 c0       	rjmp	.+12     	; 0x19da <vfprintf+0x294>
    19ce:	28 e0       	ldi	r18, 0x08	; 8
    19d0:	30 e0       	ldi	r19, 0x00	; 0
    19d2:	05 c0       	rjmp	.+10     	; 0x19de <vfprintf+0x298>
    19d4:	20 e1       	ldi	r18, 0x10	; 16
    19d6:	30 e0       	ldi	r19, 0x00	; 0
    19d8:	02 c0       	rjmp	.+4      	; 0x19de <vfprintf+0x298>
    19da:	20 e1       	ldi	r18, 0x10	; 16
    19dc:	32 e0       	ldi	r19, 0x02	; 2
    19de:	f8 01       	movw	r30, r16
    19e0:	b7 fe       	sbrs	r11, 7
    19e2:	07 c0       	rjmp	.+14     	; 0x19f2 <vfprintf+0x2ac>
    19e4:	60 81       	ld	r22, Z
    19e6:	71 81       	ldd	r23, Z+1	; 0x01
    19e8:	82 81       	ldd	r24, Z+2	; 0x02
    19ea:	93 81       	ldd	r25, Z+3	; 0x03
    19ec:	0c 5f       	subi	r16, 0xFC	; 252
    19ee:	1f 4f       	sbci	r17, 0xFF	; 255
    19f0:	06 c0       	rjmp	.+12     	; 0x19fe <vfprintf+0x2b8>
    19f2:	60 81       	ld	r22, Z
    19f4:	71 81       	ldd	r23, Z+1	; 0x01
    19f6:	80 e0       	ldi	r24, 0x00	; 0
    19f8:	90 e0       	ldi	r25, 0x00	; 0
    19fa:	0e 5f       	subi	r16, 0xFE	; 254
    19fc:	1f 4f       	sbci	r17, 0xFF	; 255
    19fe:	a3 01       	movw	r20, r6
    1a00:	01 d1       	rcall	.+514    	; 0x1c04 <__ultoa_invert>
    1a02:	88 2e       	mov	r8, r24
    1a04:	86 18       	sub	r8, r6
    1a06:	fb 2d       	mov	r31, r11
    1a08:	ff 77       	andi	r31, 0x7F	; 127
    1a0a:	3f 2e       	mov	r3, r31
    1a0c:	36 fe       	sbrs	r3, 6
    1a0e:	0d c0       	rjmp	.+26     	; 0x1a2a <vfprintf+0x2e4>
    1a10:	23 2d       	mov	r18, r3
    1a12:	2e 7f       	andi	r18, 0xFE	; 254
    1a14:	a2 2e       	mov	r10, r18
    1a16:	89 14       	cp	r8, r9
    1a18:	58 f4       	brcc	.+22     	; 0x1a30 <vfprintf+0x2ea>
    1a1a:	34 fe       	sbrs	r3, 4
    1a1c:	0b c0       	rjmp	.+22     	; 0x1a34 <vfprintf+0x2ee>
    1a1e:	32 fc       	sbrc	r3, 2
    1a20:	09 c0       	rjmp	.+18     	; 0x1a34 <vfprintf+0x2ee>
    1a22:	83 2d       	mov	r24, r3
    1a24:	8e 7e       	andi	r24, 0xEE	; 238
    1a26:	a8 2e       	mov	r10, r24
    1a28:	05 c0       	rjmp	.+10     	; 0x1a34 <vfprintf+0x2ee>
    1a2a:	b8 2c       	mov	r11, r8
    1a2c:	a3 2c       	mov	r10, r3
    1a2e:	03 c0       	rjmp	.+6      	; 0x1a36 <vfprintf+0x2f0>
    1a30:	b8 2c       	mov	r11, r8
    1a32:	01 c0       	rjmp	.+2      	; 0x1a36 <vfprintf+0x2f0>
    1a34:	b9 2c       	mov	r11, r9
    1a36:	a4 fe       	sbrs	r10, 4
    1a38:	0f c0       	rjmp	.+30     	; 0x1a58 <vfprintf+0x312>
    1a3a:	fe 01       	movw	r30, r28
    1a3c:	e8 0d       	add	r30, r8
    1a3e:	f1 1d       	adc	r31, r1
    1a40:	80 81       	ld	r24, Z
    1a42:	80 33       	cpi	r24, 0x30	; 48
    1a44:	21 f4       	brne	.+8      	; 0x1a4e <vfprintf+0x308>
    1a46:	9a 2d       	mov	r25, r10
    1a48:	99 7e       	andi	r25, 0xE9	; 233
    1a4a:	a9 2e       	mov	r10, r25
    1a4c:	09 c0       	rjmp	.+18     	; 0x1a60 <vfprintf+0x31a>
    1a4e:	a2 fe       	sbrs	r10, 2
    1a50:	06 c0       	rjmp	.+12     	; 0x1a5e <vfprintf+0x318>
    1a52:	b3 94       	inc	r11
    1a54:	b3 94       	inc	r11
    1a56:	04 c0       	rjmp	.+8      	; 0x1a60 <vfprintf+0x31a>
    1a58:	8a 2d       	mov	r24, r10
    1a5a:	86 78       	andi	r24, 0x86	; 134
    1a5c:	09 f0       	breq	.+2      	; 0x1a60 <vfprintf+0x31a>
    1a5e:	b3 94       	inc	r11
    1a60:	a3 fc       	sbrc	r10, 3
    1a62:	10 c0       	rjmp	.+32     	; 0x1a84 <vfprintf+0x33e>
    1a64:	a0 fe       	sbrs	r10, 0
    1a66:	06 c0       	rjmp	.+12     	; 0x1a74 <vfprintf+0x32e>
    1a68:	b2 14       	cp	r11, r2
    1a6a:	80 f4       	brcc	.+32     	; 0x1a8c <vfprintf+0x346>
    1a6c:	28 0c       	add	r2, r8
    1a6e:	92 2c       	mov	r9, r2
    1a70:	9b 18       	sub	r9, r11
    1a72:	0d c0       	rjmp	.+26     	; 0x1a8e <vfprintf+0x348>
    1a74:	b2 14       	cp	r11, r2
    1a76:	58 f4       	brcc	.+22     	; 0x1a8e <vfprintf+0x348>
    1a78:	b6 01       	movw	r22, r12
    1a7a:	80 e2       	ldi	r24, 0x20	; 32
    1a7c:	90 e0       	ldi	r25, 0x00	; 0
    1a7e:	86 d0       	rcall	.+268    	; 0x1b8c <fputc>
    1a80:	b3 94       	inc	r11
    1a82:	f8 cf       	rjmp	.-16     	; 0x1a74 <vfprintf+0x32e>
    1a84:	b2 14       	cp	r11, r2
    1a86:	18 f4       	brcc	.+6      	; 0x1a8e <vfprintf+0x348>
    1a88:	2b 18       	sub	r2, r11
    1a8a:	02 c0       	rjmp	.+4      	; 0x1a90 <vfprintf+0x34a>
    1a8c:	98 2c       	mov	r9, r8
    1a8e:	21 2c       	mov	r2, r1
    1a90:	a4 fe       	sbrs	r10, 4
    1a92:	0f c0       	rjmp	.+30     	; 0x1ab2 <vfprintf+0x36c>
    1a94:	b6 01       	movw	r22, r12
    1a96:	80 e3       	ldi	r24, 0x30	; 48
    1a98:	90 e0       	ldi	r25, 0x00	; 0
    1a9a:	78 d0       	rcall	.+240    	; 0x1b8c <fputc>
    1a9c:	a2 fe       	sbrs	r10, 2
    1a9e:	16 c0       	rjmp	.+44     	; 0x1acc <vfprintf+0x386>
    1aa0:	a1 fc       	sbrc	r10, 1
    1aa2:	03 c0       	rjmp	.+6      	; 0x1aaa <vfprintf+0x364>
    1aa4:	88 e7       	ldi	r24, 0x78	; 120
    1aa6:	90 e0       	ldi	r25, 0x00	; 0
    1aa8:	02 c0       	rjmp	.+4      	; 0x1aae <vfprintf+0x368>
    1aaa:	88 e5       	ldi	r24, 0x58	; 88
    1aac:	90 e0       	ldi	r25, 0x00	; 0
    1aae:	b6 01       	movw	r22, r12
    1ab0:	0c c0       	rjmp	.+24     	; 0x1aca <vfprintf+0x384>
    1ab2:	8a 2d       	mov	r24, r10
    1ab4:	86 78       	andi	r24, 0x86	; 134
    1ab6:	51 f0       	breq	.+20     	; 0x1acc <vfprintf+0x386>
    1ab8:	a1 fe       	sbrs	r10, 1
    1aba:	02 c0       	rjmp	.+4      	; 0x1ac0 <vfprintf+0x37a>
    1abc:	8b e2       	ldi	r24, 0x2B	; 43
    1abe:	01 c0       	rjmp	.+2      	; 0x1ac2 <vfprintf+0x37c>
    1ac0:	80 e2       	ldi	r24, 0x20	; 32
    1ac2:	a7 fc       	sbrc	r10, 7
    1ac4:	8d e2       	ldi	r24, 0x2D	; 45
    1ac6:	b6 01       	movw	r22, r12
    1ac8:	90 e0       	ldi	r25, 0x00	; 0
    1aca:	60 d0       	rcall	.+192    	; 0x1b8c <fputc>
    1acc:	89 14       	cp	r8, r9
    1ace:	30 f4       	brcc	.+12     	; 0x1adc <vfprintf+0x396>
    1ad0:	b6 01       	movw	r22, r12
    1ad2:	80 e3       	ldi	r24, 0x30	; 48
    1ad4:	90 e0       	ldi	r25, 0x00	; 0
    1ad6:	5a d0       	rcall	.+180    	; 0x1b8c <fputc>
    1ad8:	9a 94       	dec	r9
    1ada:	f8 cf       	rjmp	.-16     	; 0x1acc <vfprintf+0x386>
    1adc:	8a 94       	dec	r8
    1ade:	f3 01       	movw	r30, r6
    1ae0:	e8 0d       	add	r30, r8
    1ae2:	f1 1d       	adc	r31, r1
    1ae4:	80 81       	ld	r24, Z
    1ae6:	b6 01       	movw	r22, r12
    1ae8:	90 e0       	ldi	r25, 0x00	; 0
    1aea:	50 d0       	rcall	.+160    	; 0x1b8c <fputc>
    1aec:	81 10       	cpse	r8, r1
    1aee:	f6 cf       	rjmp	.-20     	; 0x1adc <vfprintf+0x396>
    1af0:	22 20       	and	r2, r2
    1af2:	09 f4       	brne	.+2      	; 0x1af6 <vfprintf+0x3b0>
    1af4:	4e ce       	rjmp	.-868    	; 0x1792 <vfprintf+0x4c>
    1af6:	b6 01       	movw	r22, r12
    1af8:	80 e2       	ldi	r24, 0x20	; 32
    1afa:	90 e0       	ldi	r25, 0x00	; 0
    1afc:	47 d0       	rcall	.+142    	; 0x1b8c <fputc>
    1afe:	2a 94       	dec	r2
    1b00:	f7 cf       	rjmp	.-18     	; 0x1af0 <vfprintf+0x3aa>
    1b02:	f6 01       	movw	r30, r12
    1b04:	86 81       	ldd	r24, Z+6	; 0x06
    1b06:	97 81       	ldd	r25, Z+7	; 0x07
    1b08:	02 c0       	rjmp	.+4      	; 0x1b0e <vfprintf+0x3c8>
    1b0a:	8f ef       	ldi	r24, 0xFF	; 255
    1b0c:	9f ef       	ldi	r25, 0xFF	; 255
    1b0e:	2b 96       	adiw	r28, 0x0b	; 11
    1b10:	0f b6       	in	r0, 0x3f	; 63
    1b12:	f8 94       	cli
    1b14:	de bf       	out	0x3e, r29	; 62
    1b16:	0f be       	out	0x3f, r0	; 63
    1b18:	cd bf       	out	0x3d, r28	; 61
    1b1a:	df 91       	pop	r29
    1b1c:	cf 91       	pop	r28
    1b1e:	1f 91       	pop	r17
    1b20:	0f 91       	pop	r16
    1b22:	ff 90       	pop	r15
    1b24:	ef 90       	pop	r14
    1b26:	df 90       	pop	r13
    1b28:	cf 90       	pop	r12
    1b2a:	bf 90       	pop	r11
    1b2c:	af 90       	pop	r10
    1b2e:	9f 90       	pop	r9
    1b30:	8f 90       	pop	r8
    1b32:	7f 90       	pop	r7
    1b34:	6f 90       	pop	r6
    1b36:	5f 90       	pop	r5
    1b38:	4f 90       	pop	r4
    1b3a:	3f 90       	pop	r3
    1b3c:	2f 90       	pop	r2
    1b3e:	08 95       	ret

00001b40 <strnlen_P>:
    1b40:	fc 01       	movw	r30, r24
    1b42:	05 90       	lpm	r0, Z+
    1b44:	61 50       	subi	r22, 0x01	; 1
    1b46:	70 40       	sbci	r23, 0x00	; 0
    1b48:	01 10       	cpse	r0, r1
    1b4a:	d8 f7       	brcc	.-10     	; 0x1b42 <strnlen_P+0x2>
    1b4c:	80 95       	com	r24
    1b4e:	90 95       	com	r25
    1b50:	8e 0f       	add	r24, r30
    1b52:	9f 1f       	adc	r25, r31
    1b54:	08 95       	ret

00001b56 <strnlen>:
    1b56:	fc 01       	movw	r30, r24
    1b58:	61 50       	subi	r22, 0x01	; 1
    1b5a:	70 40       	sbci	r23, 0x00	; 0
    1b5c:	01 90       	ld	r0, Z+
    1b5e:	01 10       	cpse	r0, r1
    1b60:	d8 f7       	brcc	.-10     	; 0x1b58 <strnlen+0x2>
    1b62:	80 95       	com	r24
    1b64:	90 95       	com	r25
    1b66:	8e 0f       	add	r24, r30
    1b68:	9f 1f       	adc	r25, r31
    1b6a:	08 95       	ret

00001b6c <strrev>:
    1b6c:	dc 01       	movw	r26, r24
    1b6e:	fc 01       	movw	r30, r24
    1b70:	67 2f       	mov	r22, r23
    1b72:	71 91       	ld	r23, Z+
    1b74:	77 23       	and	r23, r23
    1b76:	e1 f7       	brne	.-8      	; 0x1b70 <strrev+0x4>
    1b78:	32 97       	sbiw	r30, 0x02	; 2
    1b7a:	04 c0       	rjmp	.+8      	; 0x1b84 <strrev+0x18>
    1b7c:	7c 91       	ld	r23, X
    1b7e:	6d 93       	st	X+, r22
    1b80:	70 83       	st	Z, r23
    1b82:	62 91       	ld	r22, -Z
    1b84:	ae 17       	cp	r26, r30
    1b86:	bf 07       	cpc	r27, r31
    1b88:	c8 f3       	brcs	.-14     	; 0x1b7c <strrev+0x10>
    1b8a:	08 95       	ret

00001b8c <fputc>:
    1b8c:	0f 93       	push	r16
    1b8e:	1f 93       	push	r17
    1b90:	cf 93       	push	r28
    1b92:	df 93       	push	r29
    1b94:	fb 01       	movw	r30, r22
    1b96:	23 81       	ldd	r18, Z+3	; 0x03
    1b98:	21 fd       	sbrc	r18, 1
    1b9a:	03 c0       	rjmp	.+6      	; 0x1ba2 <fputc+0x16>
    1b9c:	8f ef       	ldi	r24, 0xFF	; 255
    1b9e:	9f ef       	ldi	r25, 0xFF	; 255
    1ba0:	2c c0       	rjmp	.+88     	; 0x1bfa <fputc+0x6e>
    1ba2:	22 ff       	sbrs	r18, 2
    1ba4:	16 c0       	rjmp	.+44     	; 0x1bd2 <fputc+0x46>
    1ba6:	46 81       	ldd	r20, Z+6	; 0x06
    1ba8:	57 81       	ldd	r21, Z+7	; 0x07
    1baa:	24 81       	ldd	r18, Z+4	; 0x04
    1bac:	35 81       	ldd	r19, Z+5	; 0x05
    1bae:	42 17       	cp	r20, r18
    1bb0:	53 07       	cpc	r21, r19
    1bb2:	44 f4       	brge	.+16     	; 0x1bc4 <fputc+0x38>
    1bb4:	a0 81       	ld	r26, Z
    1bb6:	b1 81       	ldd	r27, Z+1	; 0x01
    1bb8:	9d 01       	movw	r18, r26
    1bba:	2f 5f       	subi	r18, 0xFF	; 255
    1bbc:	3f 4f       	sbci	r19, 0xFF	; 255
    1bbe:	31 83       	std	Z+1, r19	; 0x01
    1bc0:	20 83       	st	Z, r18
    1bc2:	8c 93       	st	X, r24
    1bc4:	26 81       	ldd	r18, Z+6	; 0x06
    1bc6:	37 81       	ldd	r19, Z+7	; 0x07
    1bc8:	2f 5f       	subi	r18, 0xFF	; 255
    1bca:	3f 4f       	sbci	r19, 0xFF	; 255
    1bcc:	37 83       	std	Z+7, r19	; 0x07
    1bce:	26 83       	std	Z+6, r18	; 0x06
    1bd0:	14 c0       	rjmp	.+40     	; 0x1bfa <fputc+0x6e>
    1bd2:	8b 01       	movw	r16, r22
    1bd4:	ec 01       	movw	r28, r24
    1bd6:	fb 01       	movw	r30, r22
    1bd8:	00 84       	ldd	r0, Z+8	; 0x08
    1bda:	f1 85       	ldd	r31, Z+9	; 0x09
    1bdc:	e0 2d       	mov	r30, r0
    1bde:	19 95       	eicall
    1be0:	89 2b       	or	r24, r25
    1be2:	e1 f6       	brne	.-72     	; 0x1b9c <fputc+0x10>
    1be4:	d8 01       	movw	r26, r16
    1be6:	16 96       	adiw	r26, 0x06	; 6
    1be8:	8d 91       	ld	r24, X+
    1bea:	9c 91       	ld	r25, X
    1bec:	17 97       	sbiw	r26, 0x07	; 7
    1bee:	01 96       	adiw	r24, 0x01	; 1
    1bf0:	17 96       	adiw	r26, 0x07	; 7
    1bf2:	9c 93       	st	X, r25
    1bf4:	8e 93       	st	-X, r24
    1bf6:	16 97       	sbiw	r26, 0x06	; 6
    1bf8:	ce 01       	movw	r24, r28
    1bfa:	df 91       	pop	r29
    1bfc:	cf 91       	pop	r28
    1bfe:	1f 91       	pop	r17
    1c00:	0f 91       	pop	r16
    1c02:	08 95       	ret

00001c04 <__ultoa_invert>:
    1c04:	fa 01       	movw	r30, r20
    1c06:	aa 27       	eor	r26, r26
    1c08:	28 30       	cpi	r18, 0x08	; 8
    1c0a:	51 f1       	breq	.+84     	; 0x1c60 <__ultoa_invert+0x5c>
    1c0c:	20 31       	cpi	r18, 0x10	; 16
    1c0e:	81 f1       	breq	.+96     	; 0x1c70 <__ultoa_invert+0x6c>
    1c10:	e8 94       	clt
    1c12:	6f 93       	push	r22
    1c14:	6e 7f       	andi	r22, 0xFE	; 254
    1c16:	6e 5f       	subi	r22, 0xFE	; 254
    1c18:	7f 4f       	sbci	r23, 0xFF	; 255
    1c1a:	8f 4f       	sbci	r24, 0xFF	; 255
    1c1c:	9f 4f       	sbci	r25, 0xFF	; 255
    1c1e:	af 4f       	sbci	r26, 0xFF	; 255
    1c20:	b1 e0       	ldi	r27, 0x01	; 1
    1c22:	3e d0       	rcall	.+124    	; 0x1ca0 <__ultoa_invert+0x9c>
    1c24:	b4 e0       	ldi	r27, 0x04	; 4
    1c26:	3c d0       	rcall	.+120    	; 0x1ca0 <__ultoa_invert+0x9c>
    1c28:	67 0f       	add	r22, r23
    1c2a:	78 1f       	adc	r23, r24
    1c2c:	89 1f       	adc	r24, r25
    1c2e:	9a 1f       	adc	r25, r26
    1c30:	a1 1d       	adc	r26, r1
    1c32:	68 0f       	add	r22, r24
    1c34:	79 1f       	adc	r23, r25
    1c36:	8a 1f       	adc	r24, r26
    1c38:	91 1d       	adc	r25, r1
    1c3a:	a1 1d       	adc	r26, r1
    1c3c:	6a 0f       	add	r22, r26
    1c3e:	71 1d       	adc	r23, r1
    1c40:	81 1d       	adc	r24, r1
    1c42:	91 1d       	adc	r25, r1
    1c44:	a1 1d       	adc	r26, r1
    1c46:	20 d0       	rcall	.+64     	; 0x1c88 <__ultoa_invert+0x84>
    1c48:	09 f4       	brne	.+2      	; 0x1c4c <__ultoa_invert+0x48>
    1c4a:	68 94       	set
    1c4c:	3f 91       	pop	r19
    1c4e:	2a e0       	ldi	r18, 0x0A	; 10
    1c50:	26 9f       	mul	r18, r22
    1c52:	11 24       	eor	r1, r1
    1c54:	30 19       	sub	r19, r0
    1c56:	30 5d       	subi	r19, 0xD0	; 208
    1c58:	31 93       	st	Z+, r19
    1c5a:	de f6       	brtc	.-74     	; 0x1c12 <__ultoa_invert+0xe>
    1c5c:	cf 01       	movw	r24, r30
    1c5e:	08 95       	ret
    1c60:	46 2f       	mov	r20, r22
    1c62:	47 70       	andi	r20, 0x07	; 7
    1c64:	40 5d       	subi	r20, 0xD0	; 208
    1c66:	41 93       	st	Z+, r20
    1c68:	b3 e0       	ldi	r27, 0x03	; 3
    1c6a:	0f d0       	rcall	.+30     	; 0x1c8a <__ultoa_invert+0x86>
    1c6c:	c9 f7       	brne	.-14     	; 0x1c60 <__ultoa_invert+0x5c>
    1c6e:	f6 cf       	rjmp	.-20     	; 0x1c5c <__ultoa_invert+0x58>
    1c70:	46 2f       	mov	r20, r22
    1c72:	4f 70       	andi	r20, 0x0F	; 15
    1c74:	40 5d       	subi	r20, 0xD0	; 208
    1c76:	4a 33       	cpi	r20, 0x3A	; 58
    1c78:	18 f0       	brcs	.+6      	; 0x1c80 <__ultoa_invert+0x7c>
    1c7a:	49 5d       	subi	r20, 0xD9	; 217
    1c7c:	31 fd       	sbrc	r19, 1
    1c7e:	40 52       	subi	r20, 0x20	; 32
    1c80:	41 93       	st	Z+, r20
    1c82:	02 d0       	rcall	.+4      	; 0x1c88 <__ultoa_invert+0x84>
    1c84:	a9 f7       	brne	.-22     	; 0x1c70 <__ultoa_invert+0x6c>
    1c86:	ea cf       	rjmp	.-44     	; 0x1c5c <__ultoa_invert+0x58>
    1c88:	b4 e0       	ldi	r27, 0x04	; 4
    1c8a:	a6 95       	lsr	r26
    1c8c:	97 95       	ror	r25
    1c8e:	87 95       	ror	r24
    1c90:	77 95       	ror	r23
    1c92:	67 95       	ror	r22
    1c94:	ba 95       	dec	r27
    1c96:	c9 f7       	brne	.-14     	; 0x1c8a <__ultoa_invert+0x86>
    1c98:	00 97       	sbiw	r24, 0x00	; 0
    1c9a:	61 05       	cpc	r22, r1
    1c9c:	71 05       	cpc	r23, r1
    1c9e:	08 95       	ret
    1ca0:	9b 01       	movw	r18, r22
    1ca2:	ac 01       	movw	r20, r24
    1ca4:	0a 2e       	mov	r0, r26
    1ca6:	06 94       	lsr	r0
    1ca8:	57 95       	ror	r21
    1caa:	47 95       	ror	r20
    1cac:	37 95       	ror	r19
    1cae:	27 95       	ror	r18
    1cb0:	ba 95       	dec	r27
    1cb2:	c9 f7       	brne	.-14     	; 0x1ca6 <__ultoa_invert+0xa2>
    1cb4:	62 0f       	add	r22, r18
    1cb6:	73 1f       	adc	r23, r19
    1cb8:	84 1f       	adc	r24, r20
    1cba:	95 1f       	adc	r25, r21
    1cbc:	a0 1d       	adc	r26, r0
    1cbe:	08 95       	ret

00001cc0 <_exit>:
    1cc0:	f8 94       	cli

00001cc2 <__stop_program>:
    1cc2:	ff cf       	rjmp	.-2      	; 0x1cc2 <__stop_program>
