
Mikrocontroller.elf:     file format elf32-avr

Sections:
Idx Name          Size      VMA       LMA       File off  Algn
  0 .data         00000726  00800200  000091f6  0000928a  2**0
                  CONTENTS, ALLOC, LOAD, DATA
  1 .text         000091f6  00000000  00000000  00000094  2**1
                  CONTENTS, ALLOC, LOAD, READONLY, CODE
  2 .bss          00000df0  00800926  00800926  000099b0  2**0
                  ALLOC
  3 .comment      00000030  00000000  00000000  000099b0  2**0
                  CONTENTS, READONLY
  4 .note.gnu.avr.deviceinfo 00000040  00000000  00000000  000099e0  2**2
                  CONTENTS, READONLY
  5 .debug_aranges 00000978  00000000  00000000  00009a20  2**0
                  CONTENTS, READONLY, DEBUGGING
  6 .debug_info   000160cc  00000000  00000000  0000a398  2**0
                  CONTENTS, READONLY, DEBUGGING
  7 .debug_abbrev 000032d3  00000000  00000000  00020464  2**0
                  CONTENTS, READONLY, DEBUGGING
  8 .debug_line   00008fda  00000000  00000000  00023737  2**0
                  CONTENTS, READONLY, DEBUGGING
  9 .debug_frame  000028b8  00000000  00000000  0002c714  2**2
                  CONTENTS, READONLY, DEBUGGING
 10 .debug_str    000033ee  00000000  00000000  0002efcc  2**0
                  CONTENTS, READONLY, DEBUGGING
 11 .debug_loc    0000f357  00000000  00000000  000323ba  2**0
                  CONTENTS, READONLY, DEBUGGING
 12 .debug_ranges 00000a50  00000000  00000000  00041711  2**0
                  CONTENTS, READONLY, DEBUGGING

Disassembly of section .text:

00000000 <__vectors>:
       0:	2e c1       	rjmp	.+604    	; 0x25e <__ctors_end>
       2:	00 00       	nop
       4:	4d c1       	rjmp	.+666    	; 0x2a0 <__bad_interrupt>
       6:	00 00       	nop
       8:	4b c1       	rjmp	.+662    	; 0x2a0 <__bad_interrupt>
       a:	00 00       	nop
       c:	49 c1       	rjmp	.+658    	; 0x2a0 <__bad_interrupt>
       e:	00 00       	nop
      10:	47 c1       	rjmp	.+654    	; 0x2a0 <__bad_interrupt>
      12:	00 00       	nop
      14:	45 c1       	rjmp	.+650    	; 0x2a0 <__bad_interrupt>
      16:	00 00       	nop
      18:	43 c1       	rjmp	.+646    	; 0x2a0 <__bad_interrupt>
      1a:	00 00       	nop
      1c:	41 c1       	rjmp	.+642    	; 0x2a0 <__bad_interrupt>
      1e:	00 00       	nop
      20:	3f c1       	rjmp	.+638    	; 0x2a0 <__bad_interrupt>
      22:	00 00       	nop
      24:	3d c1       	rjmp	.+634    	; 0x2a0 <__bad_interrupt>
      26:	00 00       	nop
      28:	3b c1       	rjmp	.+630    	; 0x2a0 <__bad_interrupt>
      2a:	00 00       	nop
      2c:	39 c1       	rjmp	.+626    	; 0x2a0 <__bad_interrupt>
      2e:	00 00       	nop
      30:	37 c1       	rjmp	.+622    	; 0x2a0 <__bad_interrupt>
      32:	00 00       	nop
      34:	35 c1       	rjmp	.+618    	; 0x2a0 <__bad_interrupt>
      36:	00 00       	nop
      38:	33 c1       	rjmp	.+614    	; 0x2a0 <__bad_interrupt>
      3a:	00 00       	nop
      3c:	31 c1       	rjmp	.+610    	; 0x2a0 <__bad_interrupt>
      3e:	00 00       	nop
      40:	2f c1       	rjmp	.+606    	; 0x2a0 <__bad_interrupt>
      42:	00 00       	nop
      44:	0c 94 45 26 	jmp	0x4c8a	; 0x4c8a <__vector_17>
      48:	0c 94 50 26 	jmp	0x4ca0	; 0x4ca0 <__vector_18>
      4c:	29 c1       	rjmp	.+594    	; 0x2a0 <__bad_interrupt>
      4e:	00 00       	nop
      50:	27 c1       	rjmp	.+590    	; 0x2a0 <__bad_interrupt>
      52:	00 00       	nop
      54:	0c 94 7d 27 	jmp	0x4efa	; 0x4efa <__vector_21>
      58:	23 c1       	rjmp	.+582    	; 0x2a0 <__bad_interrupt>
      5a:	00 00       	nop
      5c:	21 c1       	rjmp	.+578    	; 0x2a0 <__bad_interrupt>
      5e:	00 00       	nop
      60:	1f c1       	rjmp	.+574    	; 0x2a0 <__bad_interrupt>
      62:	00 00       	nop
      64:	0c 94 cc 41 	jmp	0x8398	; 0x8398 <__vector_25>
      68:	0c 94 8d 41 	jmp	0x831a	; 0x831a <__vector_26>
      6c:	19 c1       	rjmp	.+562    	; 0x2a0 <__bad_interrupt>
      6e:	00 00       	nop
      70:	17 c1       	rjmp	.+558    	; 0x2a0 <__bad_interrupt>
      72:	00 00       	nop
      74:	15 c1       	rjmp	.+554    	; 0x2a0 <__bad_interrupt>
      76:	00 00       	nop
      78:	13 c1       	rjmp	.+550    	; 0x2a0 <__bad_interrupt>
      7a:	00 00       	nop
      7c:	11 c1       	rjmp	.+546    	; 0x2a0 <__bad_interrupt>
      7e:	00 00       	nop
      80:	0c 94 5b 26 	jmp	0x4cb6	; 0x4cb6 <__vector_32>
      84:	0c 94 66 26 	jmp	0x4ccc	; 0x4ccc <__vector_33>
      88:	0b c1       	rjmp	.+534    	; 0x2a0 <__bad_interrupt>
      8a:	00 00       	nop
      8c:	09 c1       	rjmp	.+530    	; 0x2a0 <__bad_interrupt>
      8e:	00 00       	nop
      90:	0c 94 f8 41 	jmp	0x83f0	; 0x83f0 <__vector_36>
      94:	05 c1       	rjmp	.+522    	; 0x2a0 <__bad_interrupt>
      96:	00 00       	nop
      98:	03 c1       	rjmp	.+518    	; 0x2a0 <__bad_interrupt>
      9a:	00 00       	nop
      9c:	01 c1       	rjmp	.+514    	; 0x2a0 <__bad_interrupt>
      9e:	00 00       	nop
      a0:	ff c0       	rjmp	.+510    	; 0x2a0 <__bad_interrupt>
      a2:	00 00       	nop
      a4:	fd c0       	rjmp	.+506    	; 0x2a0 <__bad_interrupt>
      a6:	00 00       	nop
      a8:	0c 94 71 26 	jmp	0x4ce2	; 0x4ce2 <__vector_42>
      ac:	0c 94 7c 26 	jmp	0x4cf8	; 0x4cf8 <__vector_43>
      b0:	f7 c0       	rjmp	.+494    	; 0x2a0 <__bad_interrupt>
      b2:	00 00       	nop
      b4:	f5 c0       	rjmp	.+490    	; 0x2a0 <__bad_interrupt>
      b6:	00 00       	nop
      b8:	f3 c0       	rjmp	.+486    	; 0x2a0 <__bad_interrupt>
      ba:	00 00       	nop
      bc:	0c 94 87 26 	jmp	0x4d0e	; 0x4d0e <__vector_47>
      c0:	0c 94 92 26 	jmp	0x4d24	; 0x4d24 <__vector_48>
      c4:	ed c0       	rjmp	.+474    	; 0x2a0 <__bad_interrupt>
      c6:	00 00       	nop
      c8:	eb c0       	rjmp	.+470    	; 0x2a0 <__bad_interrupt>
      ca:	00 00       	nop
      cc:	0c 94 63 42 	jmp	0x84c6	; 0x84c6 <__vector_51>
      d0:	0c 94 24 42 	jmp	0x8448	; 0x8448 <__vector_52>
      d4:	e5 c0       	rjmp	.+458    	; 0x2a0 <__bad_interrupt>
      d6:	00 00       	nop
      d8:	0c 94 ce 42 	jmp	0x859c	; 0x859c <__vector_54>
      dc:	0c 94 8f 42 	jmp	0x851e	; 0x851e <__vector_55>
      e0:	df c0       	rjmp	.+446    	; 0x2a0 <__bad_interrupt>
      e2:	00 00       	nop
      e4:	42 02       	muls	r20, r18
      e6:	44 02       	muls	r20, r20
      e8:	46 02       	muls	r20, r22
      ea:	48 02       	muls	r20, r24
      ec:	4a 02       	muls	r20, r26
      ee:	4c 02       	muls	r20, r28
      f0:	4e 02       	muls	r20, r30
      f2:	50 02       	muls	r21, r16
      f4:	56 02       	muls	r21, r22
      f6:	5c 02       	muls	r21, r28
      f8:	62 02       	muls	r22, r18
      fa:	68 02       	muls	r22, r24
      fc:	79 02       	muls	r23, r25
      fe:	7b 02       	muls	r23, r27
     100:	7d 02       	muls	r23, r29
     102:	7f 02       	muls	r23, r31
     104:	81 02       	muls	r24, r17
     106:	83 02       	muls	r24, r19
     108:	85 02       	muls	r24, r21
     10a:	87 02       	muls	r24, r23
     10c:	8d 02       	muls	r24, r29
     10e:	93 02       	muls	r25, r19
     110:	99 02       	muls	r25, r25
     112:	9f 02       	muls	r25, r31
     114:	b0 02       	muls	r27, r16
     116:	b3 02       	muls	r27, r19
     118:	b7 02       	muls	r27, r23
     11a:	bb 02       	muls	r27, r27
     11c:	bf 02       	muls	r27, r31
     11e:	c3 02       	muls	r28, r19
     120:	c7 02       	muls	r28, r23
     122:	cb 02       	muls	r28, r27
     124:	cf 02       	muls	r28, r31
     126:	d3 02       	muls	r29, r19
     128:	d7 02       	muls	r29, r23
     12a:	da 02       	muls	r29, r26
     12c:	57 13       	cpse	r21, r23
     12e:	6b 13       	cpse	r22, r27
     130:	a2 13       	cpse	r26, r18
     132:	ad 13       	cpse	r26, r29
     134:	e4 13       	cpse	r30, r20
     136:	f6 13       	cpse	r31, r22
     138:	fa 13       	cpse	r31, r26
     13a:	3e 14       	cp	r3, r14
     13c:	65 14       	cp	r6, r5
     13e:	72 14       	cp	r7, r2
     140:	7f 14       	cp	r7, r15
     142:	8c 14       	cp	r8, r12
     144:	99 14       	cp	r9, r9
     146:	a6 14       	cp	r10, r6
     148:	b3 14       	cp	r11, r3
     14a:	c6 14       	cp	r12, r6
     14c:	d9 14       	cp	r13, r9
     14e:	35 15       	cp	r19, r5
     150:	3f 15       	cp	r19, r15
     152:	7a 15       	cp	r23, r10
     154:	7e 15       	cp	r23, r14
     156:	82 15       	cp	r24, r2
     158:	8c 15       	cp	r24, r12
     15a:	92 15       	cp	r25, r2
     15c:	da 15       	cp	r29, r10
     15e:	fe 15       	cp	r31, r14
     160:	02 16       	cp	r0, r18
     162:	06 16       	cp	r0, r22
     164:	0a 16       	cp	r0, r26
     166:	0e 16       	cp	r0, r30
     168:	12 16       	cp	r1, r18
     16a:	16 16       	cp	r1, r22
     16c:	29 16       	cp	r2, r25
     16e:	3c 16       	cp	r3, r28
     170:	53 16       	cp	r5, r19
     172:	63 16       	cp	r6, r19
     174:	7b 16       	cp	r7, r27
     176:	c3 16       	cp	r12, r19
     178:	c7 16       	cp	r12, r23
     17a:	cb 16       	cp	r12, r27
     17c:	cf 16       	cp	r12, r31
     17e:	d3 16       	cp	r13, r19
     180:	ed 16       	cp	r14, r29
     182:	73 16       	cp	r7, r19
     184:	73 17       	cp	r23, r19
     186:	8c 17       	cp	r24, r28
     188:	a5 17       	cp	r26, r21
     18a:	be 17       	cp	r27, r30
     18c:	d7 17       	cp	r29, r23
     18e:	f0 17       	cp	r31, r16
     190:	09 18       	sub	r0, r9
     192:	22 18       	sub	r2, r2
     194:	3b 18       	sub	r3, r11
     196:	54 18       	sub	r5, r4
     198:	6d 18       	sub	r6, r13
     19a:	86 18       	sub	r8, r6
     19c:	9f 18       	sub	r9, r15
     19e:	b8 18       	sub	r11, r8
     1a0:	d1 18       	sub	r13, r1
     1a2:	ea 18       	sub	r14, r10
     1a4:	03 19       	sub	r16, r3
     1a6:	1c 19       	sub	r17, r12
     1a8:	35 19       	sub	r19, r5
     1aa:	4e 19       	sub	r20, r14
     1ac:	67 19       	sub	r22, r7
     1ae:	80 19       	sub	r24, r0
     1b0:	99 19       	sub	r25, r9
     1b2:	b2 19       	sub	r27, r2
     1b4:	cb 19       	sub	r28, r11
     1b6:	e4 19       	sub	r30, r4
     1b8:	55 1a       	sub	r5, r21
     1ba:	fd 19       	sub	r31, r13
     1bc:	07 1a       	sub	r0, r23
     1be:	22 1a       	sub	r2, r18
     1c0:	2e 1a       	sub	r2, r30
     1c2:	2a 1c       	adc	r2, r10
     1c4:	35 1c       	adc	r3, r5
     1c6:	40 1c       	adc	r4, r0
     1c8:	4b 1c       	adc	r4, r11
     1ca:	56 1c       	adc	r5, r6
     1cc:	61 1c       	adc	r6, r1
     1ce:	6c 1c       	adc	r6, r12
     1d0:	77 1c       	adc	r7, r7
     1d2:	82 1c       	adc	r8, r2
     1d4:	8d 1c       	adc	r8, r13
     1d6:	98 1c       	adc	r9, r8
     1d8:	a3 1c       	adc	r10, r3
     1da:	ae 1c       	adc	r10, r14
     1dc:	0c 1d       	adc	r16, r12
     1de:	11 1d       	adc	r17, r1
     1e0:	16 1d       	adc	r17, r6
     1e2:	1b 1d       	adc	r17, r11
     1e4:	20 1d       	adc	r18, r0
     1e6:	25 1d       	adc	r18, r5
     1e8:	2a 1d       	adc	r18, r10
     1ea:	3a 1d       	adc	r19, r10
     1ec:	4a 1d       	adc	r20, r10
     1ee:	50 1d       	adc	r21, r0
     1f0:	55 1d       	adc	r21, r5
     1f2:	eb 1e       	adc	r14, r27
     1f4:	14 1f       	adc	r17, r20
     1f6:	3c 1f       	adc	r19, r28
     1f8:	64 1f       	adc	r22, r20
     1fa:	8c 1f       	adc	r24, r28
     1fc:	b4 1f       	adc	r27, r20
     1fe:	dc 1f       	adc	r29, r28
     200:	ce 20       	and	r12, r14
     202:	c0 21       	and	r28, r0
     204:	cd 22       	and	r12, r29
     206:	d0 22       	and	r13, r16
     208:	d3 22       	and	r13, r19
     20a:	d6 22       	and	r13, r22
     20c:	d9 22       	and	r13, r25
     20e:	dc 22       	and	r13, r28
     210:	df 22       	and	r13, r31
     212:	ef 22       	and	r14, r31
     214:	ff 22       	and	r15, r31
     216:	43 23       	and	r20, r19
     218:	46 23       	and	r20, r22
     21a:	4a 23       	and	r20, r26
     21c:	02 24       	eor	r0, r2
     21e:	c6 23       	and	r28, r22
     220:	d5 23       	and	r29, r21
     222:	e4 23       	and	r30, r20
     224:	f3 23       	and	r31, r19
     226:	22 24       	eor	r2, r2
     228:	26 24       	eor	r2, r6
     22a:	2a 24       	eor	r2, r10
     22c:	2e 24       	eor	r2, r14
     22e:	32 24       	eor	r3, r2
     230:	88 24       	eor	r8, r8
     232:	36 24       	eor	r3, r6
     234:	3a 24       	eor	r3, r10
     236:	3e 24       	eor	r3, r14
     238:	42 24       	eor	r4, r2
     23a:	46 24       	eor	r4, r6
     23c:	4a 24       	eor	r4, r10
     23e:	4e 24       	eor	r4, r14
     240:	88 24       	eor	r8, r8
     242:	88 24       	eor	r8, r8
     244:	52 24       	eor	r5, r2
     246:	56 24       	eor	r5, r6
     248:	5a 24       	eor	r5, r10
     24a:	5e 24       	eor	r5, r14
     24c:	62 24       	eor	r6, r2
     24e:	65 24       	eor	r6, r5
     250:	68 24       	eor	r6, r8
     252:	6b 24       	eor	r6, r11
     254:	6e 24       	eor	r6, r14
     256:	71 24       	eor	r7, r1
     258:	74 24       	eor	r7, r4
     25a:	7b 24       	eor	r7, r11
     25c:	82 24       	eor	r8, r2

0000025e <__ctors_end>:
     25e:	11 24       	eor	r1, r1
     260:	1f be       	out	0x3f, r1	; 63
     262:	cf ef       	ldi	r28, 0xFF	; 255
     264:	d1 e2       	ldi	r29, 0x21	; 33
     266:	de bf       	out	0x3e, r29	; 62
     268:	cd bf       	out	0x3d, r28	; 61
     26a:	00 e0       	ldi	r16, 0x00	; 0
     26c:	0c bf       	out	0x3c, r16	; 60

0000026e <__do_copy_data>:
     26e:	19 e0       	ldi	r17, 0x09	; 9
     270:	a0 e0       	ldi	r26, 0x00	; 0
     272:	b2 e0       	ldi	r27, 0x02	; 2
     274:	e6 ef       	ldi	r30, 0xF6	; 246
     276:	f1 e9       	ldi	r31, 0x91	; 145
     278:	00 e0       	ldi	r16, 0x00	; 0
     27a:	0b bf       	out	0x3b, r16	; 59
     27c:	02 c0       	rjmp	.+4      	; 0x282 <__do_copy_data+0x14>
     27e:	07 90       	elpm	r0, Z+
     280:	0d 92       	st	X+, r0
     282:	a6 32       	cpi	r26, 0x26	; 38
     284:	b1 07       	cpc	r27, r17
     286:	d9 f7       	brne	.-10     	; 0x27e <__do_copy_data+0x10>

00000288 <__do_clear_bss>:
     288:	27 e1       	ldi	r18, 0x17	; 23
     28a:	a6 e2       	ldi	r26, 0x26	; 38
     28c:	b9 e0       	ldi	r27, 0x09	; 9
     28e:	01 c0       	rjmp	.+2      	; 0x292 <.do_clear_bss_start>

00000290 <.do_clear_bss_loop>:
     290:	1d 92       	st	X+, r1

00000292 <.do_clear_bss_start>:
     292:	a6 31       	cpi	r26, 0x16	; 22
     294:	b2 07       	cpc	r27, r18
     296:	e1 f7       	brne	.-8      	; 0x290 <.do_clear_bss_loop>
     298:	0e 94 10 43 	call	0x8620	; 0x8620 <main>
     29c:	0c 94 f9 48 	jmp	0x91f2	; 0x91f2 <_exit>

000002a0 <__bad_interrupt>:
     2a0:	af ce       	rjmp	.-674    	; 0x0 <__vectors>

000002a2 <schreibe_Menge_in_Getraenk>:
    */
    Uart_Transmit_IT_PC("Test Command: ");
    Uart_Transmit_IT_PC((char *)INPUT);
    Uart_Transmit_IT_PC("\r\n");
    send_List_Zutaten();
}
     2a2:	cf 92       	push	r12
     2a4:	df 92       	push	r13
     2a6:	ef 92       	push	r14
     2a8:	ff 92       	push	r15
     2aa:	0f 93       	push	r16
     2ac:	1f 93       	push	r17
     2ae:	cf 93       	push	r28
     2b0:	df 93       	push	r29
     2b2:	cd b7       	in	r28, 0x3d	; 61
     2b4:	de b7       	in	r29, 0x3e	; 62
     2b6:	69 97       	sbiw	r28, 0x19	; 25
     2b8:	0f b6       	in	r0, 0x3f	; 63
     2ba:	f8 94       	cli
     2bc:	de bf       	out	0x3e, r29	; 62
     2be:	0f be       	out	0x3f, r0	; 63
     2c0:	cd bf       	out	0x3d, r28	; 61
     2c2:	e8 2e       	mov	r14, r24
     2c4:	6c e8       	ldi	r22, 0x8C	; 140
     2c6:	74 e0       	ldi	r23, 0x04	; 4
     2c8:	86 e3       	ldi	r24, 0x36	; 54
     2ca:	92 e0       	ldi	r25, 0x02	; 2
     2cc:	0e 94 1c 2c 	call	0x5838	; 0x5838 <nextion_setText>
     2d0:	fe 01       	movw	r30, r28
     2d2:	31 96       	adiw	r30, 0x01	; 1
     2d4:	8f e0       	ldi	r24, 0x0F	; 15
     2d6:	df 01       	movw	r26, r30
     2d8:	1d 92       	st	X+, r1
     2da:	8a 95       	dec	r24
     2dc:	e9 f7       	brne	.-6      	; 0x2d8 <schreibe_Menge_in_Getraenk+0x36>
     2de:	f1 2c       	mov	r15, r1
     2e0:	80 91 d1 12 	lds	r24, 0x12D1	; 0x8012d1 <i_Liste>
     2e4:	b7 01       	movw	r22, r14
     2e6:	68 0f       	add	r22, r24
     2e8:	71 1d       	adc	r23, r1
     2ea:	a0 91 0b 13 	lds	r26, 0x130B	; 0x80130b <aktuellesGetraenk>
     2ee:	b0 91 0c 13 	lds	r27, 0x130C	; 0x80130c <aktuellesGetraenk+0x1>
     2f2:	20 e0       	ldi	r18, 0x00	; 0
     2f4:	30 e0       	ldi	r19, 0x00	; 0
     2f6:	90 e0       	ldi	r25, 0x00	; 0
     2f8:	62 17       	cp	r22, r18
     2fa:	73 07       	cpc	r23, r19
     2fc:	41 f0       	breq	.+16     	; 0x30e <schreibe_Menge_in_Getraenk+0x6c>
     2fe:	14 96       	adiw	r26, 0x04	; 4
     300:	ed 91       	ld	r30, X+
     302:	fc 91       	ld	r31, X
     304:	15 97       	sbiw	r26, 0x05	; 5
     306:	e2 0f       	add	r30, r18
     308:	f3 1f       	adc	r31, r19
     30a:	40 81       	ld	r20, Z
     30c:	94 0f       	add	r25, r20
     30e:	2f 5f       	subi	r18, 0xFF	; 255
     310:	3f 4f       	sbci	r19, 0xFF	; 255
     312:	2c 30       	cpi	r18, 0x0C	; 12
     314:	31 05       	cpc	r19, r1
     316:	81 f7       	brne	.-32     	; 0x2f8 <schreibe_Menge_in_Getraenk+0x56>
     318:	14 e6       	ldi	r17, 0x64	; 100
     31a:	19 1b       	sub	r17, r25
     31c:	87 e0       	ldi	r24, 0x07	; 7
     31e:	e9 e3       	ldi	r30, 0x39	; 57
     320:	f2 e0       	ldi	r31, 0x02	; 2
     322:	de 01       	movw	r26, r28
     324:	11 96       	adiw	r26, 0x01	; 1
     326:	01 90       	ld	r0, Z+
     328:	0d 92       	st	X+, r0
     32a:	8a 95       	dec	r24
     32c:	e1 f7       	brne	.-8      	; 0x326 <schreibe_Menge_in_Getraenk+0x84>
     32e:	67 01       	movw	r12, r14
     330:	bf ef       	ldi	r27, 0xFF	; 255
     332:	cb 1a       	sub	r12, r27
     334:	db 0a       	sbc	r13, r27
     336:	4a e0       	ldi	r20, 0x0A	; 10
     338:	be 01       	movw	r22, r28
     33a:	60 5f       	subi	r22, 0xF0	; 240
     33c:	7f 4f       	sbci	r23, 0xFF	; 255
     33e:	c6 01       	movw	r24, r12
     340:	0e 94 be 48 	call	0x917c	; 0x917c <__itoa_ncheck>
     344:	be 01       	movw	r22, r28
     346:	60 5f       	subi	r22, 0xF0	; 240
     348:	7f 4f       	sbci	r23, 0xFF	; 255
     34a:	ce 01       	movw	r24, r28
     34c:	01 96       	adiw	r24, 0x01	; 1
     34e:	0e 94 7c 48 	call	0x90f8	; 0x90f8 <strcat>
     352:	60 e1       	ldi	r22, 0x10	; 16
     354:	75 e1       	ldi	r23, 0x15	; 21
     356:	ce 01       	movw	r24, r28
     358:	01 96       	adiw	r24, 0x01	; 1
     35a:	0e 94 6a 2c 	call	0x58d4	; 0x58d4 <nextion_getSliderValue>
     35e:	0d ec       	ldi	r16, 0xCD	; 205
     360:	80 9f       	mul	r24, r16
     362:	01 2d       	mov	r16, r1
     364:	11 24       	eor	r1, r1
     366:	80 2f       	mov	r24, r16
     368:	86 95       	lsr	r24
     36a:	86 95       	lsr	r24
     36c:	08 2f       	mov	r16, r24
     36e:	00 0f       	add	r16, r16
     370:	00 0f       	add	r16, r16
     372:	08 0f       	add	r16, r24
     374:	10 17       	cp	r17, r16
     376:	38 f4       	brcc	.+14     	; 0x386 <schreibe_Menge_in_Getraenk+0xe4>
     378:	60 e4       	ldi	r22, 0x40	; 64
     37a:	72 e0       	ldi	r23, 0x02	; 2
     37c:	86 e3       	ldi	r24, 0x36	; 54
     37e:	92 e0       	ldi	r25, 0x02	; 2
     380:	0e 94 1c 2c 	call	0x5838	; 0x5838 <nextion_setText>
     384:	01 2f       	mov	r16, r17
     386:	e0 91 0b 13 	lds	r30, 0x130B	; 0x80130b <aktuellesGetraenk>
     38a:	f0 91 0c 13 	lds	r31, 0x130C	; 0x80130c <aktuellesGetraenk+0x1>
     38e:	80 91 d1 12 	lds	r24, 0x12D1	; 0x8012d1 <i_Liste>
     392:	04 80       	ldd	r0, Z+4	; 0x04
     394:	f5 81       	ldd	r31, Z+5	; 0x05
     396:	e0 2d       	mov	r30, r0
     398:	ee 0e       	add	r14, r30
     39a:	ff 1e       	adc	r15, r31
     39c:	f7 01       	movw	r30, r14
     39e:	e8 0f       	add	r30, r24
     3a0:	f1 1d       	adc	r31, r1
     3a2:	00 83       	st	Z, r16
     3a4:	10 e0       	ldi	r17, 0x00	; 0
     3a6:	7e 01       	movw	r14, r28
     3a8:	80 e1       	ldi	r24, 0x10	; 16
     3aa:	e8 0e       	add	r14, r24
     3ac:	f1 1c       	adc	r15, r1
     3ae:	4a e0       	ldi	r20, 0x0A	; 10
     3b0:	b7 01       	movw	r22, r14
     3b2:	c8 01       	movw	r24, r16
     3b4:	0e 94 be 48 	call	0x917c	; 0x917c <__itoa_ncheck>
     3b8:	f7 01       	movw	r30, r14
     3ba:	01 90       	ld	r0, Z+
     3bc:	00 20       	and	r0, r0
     3be:	e9 f7       	brne	.-6      	; 0x3ba <schreibe_Menge_in_Getraenk+0x118>
     3c0:	31 97       	sbiw	r30, 0x01	; 1
     3c2:	85 e2       	ldi	r24, 0x25	; 37
     3c4:	90 e0       	ldi	r25, 0x00	; 0
     3c6:	91 83       	std	Z+1, r25	; 0x01
     3c8:	80 83       	st	Z, r24
     3ca:	86 e0       	ldi	r24, 0x06	; 6
     3cc:	e4 e5       	ldi	r30, 0x54	; 84
     3ce:	f2 e0       	ldi	r31, 0x02	; 2
     3d0:	de 01       	movw	r26, r28
     3d2:	11 96       	adiw	r26, 0x01	; 1
     3d4:	01 90       	ld	r0, Z+
     3d6:	0d 92       	st	X+, r0
     3d8:	8a 95       	dec	r24
     3da:	e1 f7       	brne	.-8      	; 0x3d4 <schreibe_Menge_in_Getraenk+0x132>
     3dc:	4a e0       	ldi	r20, 0x0A	; 10
     3de:	be 01       	movw	r22, r28
     3e0:	6b 5e       	subi	r22, 0xEB	; 235
     3e2:	7f 4f       	sbci	r23, 0xFF	; 255
     3e4:	c6 01       	movw	r24, r12
     3e6:	0e 94 be 48 	call	0x917c	; 0x917c <__itoa_ncheck>
     3ea:	be 01       	movw	r22, r28
     3ec:	6b 5e       	subi	r22, 0xEB	; 235
     3ee:	7f 4f       	sbci	r23, 0xFF	; 255
     3f0:	ce 01       	movw	r24, r28
     3f2:	01 96       	adiw	r24, 0x01	; 1
     3f4:	0e 94 7c 48 	call	0x90f8	; 0x90f8 <strcat>
     3f8:	b7 01       	movw	r22, r14
     3fa:	ce 01       	movw	r24, r28
     3fc:	01 96       	adiw	r24, 0x01	; 1
     3fe:	0e 94 1c 2c 	call	0x5838	; 0x5838 <nextion_setText>
     402:	4a e0       	ldi	r20, 0x0A	; 10
     404:	b7 01       	movw	r22, r14
     406:	c8 01       	movw	r24, r16
     408:	0e 94 be 48 	call	0x917c	; 0x917c <__itoa_ncheck>
     40c:	87 e0       	ldi	r24, 0x07	; 7
     40e:	e9 e3       	ldi	r30, 0x39	; 57
     410:	f2 e0       	ldi	r31, 0x02	; 2
     412:	de 01       	movw	r26, r28
     414:	11 96       	adiw	r26, 0x01	; 1
     416:	01 90       	ld	r0, Z+
     418:	0d 92       	st	X+, r0
     41a:	8a 95       	dec	r24
     41c:	e1 f7       	brne	.-8      	; 0x416 <__LOCK_REGION_LENGTH__+0x16>
     41e:	4a e0       	ldi	r20, 0x0A	; 10
     420:	be 01       	movw	r22, r28
     422:	6b 5e       	subi	r22, 0xEB	; 235
     424:	7f 4f       	sbci	r23, 0xFF	; 255
     426:	c6 01       	movw	r24, r12
     428:	0e 94 be 48 	call	0x917c	; 0x917c <__itoa_ncheck>
     42c:	be 01       	movw	r22, r28
     42e:	6b 5e       	subi	r22, 0xEB	; 235
     430:	7f 4f       	sbci	r23, 0xFF	; 255
     432:	ce 01       	movw	r24, r28
     434:	01 96       	adiw	r24, 0x01	; 1
     436:	0e 94 7c 48 	call	0x90f8	; 0x90f8 <strcat>
     43a:	b7 01       	movw	r22, r14
     43c:	ce 01       	movw	r24, r28
     43e:	01 96       	adiw	r24, 0x01	; 1
     440:	0e 94 34 2c 	call	0x5868	; 0x5868 <nextion_setValue>
     444:	af e3       	ldi	r26, 0x3F	; 63
     446:	bf e1       	ldi	r27, 0x1F	; 31
     448:	11 97       	sbiw	r26, 0x01	; 1
     44a:	f1 f7       	brne	.-4      	; 0x448 <__LOCK_REGION_LENGTH__+0x48>
     44c:	00 c0       	rjmp	.+0      	; 0x44e <__LOCK_REGION_LENGTH__+0x4e>
     44e:	00 00       	nop
     450:	69 96       	adiw	r28, 0x19	; 25
     452:	0f b6       	in	r0, 0x3f	; 63
     454:	f8 94       	cli
     456:	de bf       	out	0x3e, r29	; 62
     458:	0f be       	out	0x3f, r0	; 63
     45a:	cd bf       	out	0x3d, r28	; 61
     45c:	df 91       	pop	r29
     45e:	cf 91       	pop	r28
     460:	1f 91       	pop	r17
     462:	0f 91       	pop	r16
     464:	ff 90       	pop	r15
     466:	ef 90       	pop	r14
     468:	df 90       	pop	r13
     46a:	cf 90       	pop	r12
     46c:	08 95       	ret

0000046e <schalte_pumpe_ein>:
     46e:	90 e0       	ldi	r25, 0x00	; 0
     470:	8c 30       	cpi	r24, 0x0C	; 12
     472:	91 05       	cpc	r25, r1
     474:	90 f5       	brcc	.+100    	; 0x4da <schalte_pumpe_ein+0x6c>
     476:	fc 01       	movw	r30, r24
     478:	88 27       	eor	r24, r24
     47a:	ee 58       	subi	r30, 0x8E	; 142
     47c:	ff 4f       	sbci	r31, 0xFF	; 255
     47e:	8f 4f       	sbci	r24, 0xFF	; 255
     480:	0c 94 1d 46 	jmp	0x8c3a	; 0x8c3a <__tablejump2__>
     484:	12 9a       	sbi	0x02, 2	; 2
     486:	08 95       	ret
     488:	13 9a       	sbi	0x02, 3	; 2
     48a:	08 95       	ret
     48c:	14 9a       	sbi	0x02, 4	; 2
     48e:	08 95       	ret
     490:	15 9a       	sbi	0x02, 5	; 2
     492:	08 95       	ret
     494:	16 9a       	sbi	0x02, 6	; 2
     496:	08 95       	ret
     498:	17 9a       	sbi	0x02, 7	; 2
     49a:	08 95       	ret
     49c:	a2 9a       	sbi	0x14, 2	; 20
     49e:	08 95       	ret
     4a0:	e5 e0       	ldi	r30, 0x05	; 5
     4a2:	f1 e0       	ldi	r31, 0x01	; 1
     4a4:	80 81       	ld	r24, Z
     4a6:	80 64       	ori	r24, 0x40	; 64
     4a8:	80 83       	st	Z, r24
     4aa:	08 95       	ret
     4ac:	e5 e0       	ldi	r30, 0x05	; 5
     4ae:	f1 e0       	ldi	r31, 0x01	; 1
     4b0:	80 81       	ld	r24, Z
     4b2:	80 62       	ori	r24, 0x20	; 32
     4b4:	80 83       	st	Z, r24
     4b6:	08 95       	ret
     4b8:	e5 e0       	ldi	r30, 0x05	; 5
     4ba:	f1 e0       	ldi	r31, 0x01	; 1
     4bc:	80 81       	ld	r24, Z
     4be:	80 61       	ori	r24, 0x10	; 16
     4c0:	80 83       	st	Z, r24
     4c2:	08 95       	ret
     4c4:	e5 e0       	ldi	r30, 0x05	; 5
     4c6:	f1 e0       	ldi	r31, 0x01	; 1
     4c8:	80 81       	ld	r24, Z
     4ca:	88 60       	ori	r24, 0x08	; 8
     4cc:	80 83       	st	Z, r24
     4ce:	08 95       	ret
     4d0:	e5 e0       	ldi	r30, 0x05	; 5
     4d2:	f1 e0       	ldi	r31, 0x01	; 1
     4d4:	80 81       	ld	r24, Z
     4d6:	84 60       	ori	r24, 0x04	; 4
     4d8:	80 83       	st	Z, r24
     4da:	08 95       	ret

000004dc <schalte_pumpe_aus>:
     4dc:	90 e0       	ldi	r25, 0x00	; 0
     4de:	8c 30       	cpi	r24, 0x0C	; 12
     4e0:	91 05       	cpc	r25, r1
     4e2:	90 f5       	brcc	.+100    	; 0x548 <schalte_pumpe_aus+0x6c>
     4e4:	fc 01       	movw	r30, r24
     4e6:	88 27       	eor	r24, r24
     4e8:	e2 58       	subi	r30, 0x82	; 130
     4ea:	ff 4f       	sbci	r31, 0xFF	; 255
     4ec:	8f 4f       	sbci	r24, 0xFF	; 255
     4ee:	0c 94 1d 46 	jmp	0x8c3a	; 0x8c3a <__tablejump2__>
     4f2:	12 98       	cbi	0x02, 2	; 2
     4f4:	08 95       	ret
     4f6:	13 98       	cbi	0x02, 3	; 2
     4f8:	08 95       	ret
     4fa:	14 98       	cbi	0x02, 4	; 2
     4fc:	08 95       	ret
     4fe:	15 98       	cbi	0x02, 5	; 2
     500:	08 95       	ret
     502:	16 98       	cbi	0x02, 6	; 2
     504:	08 95       	ret
     506:	17 98       	cbi	0x02, 7	; 2
     508:	08 95       	ret
     50a:	a2 98       	cbi	0x14, 2	; 20
     50c:	08 95       	ret
     50e:	e5 e0       	ldi	r30, 0x05	; 5
     510:	f1 e0       	ldi	r31, 0x01	; 1
     512:	80 81       	ld	r24, Z
     514:	8f 7b       	andi	r24, 0xBF	; 191
     516:	80 83       	st	Z, r24
     518:	08 95       	ret
     51a:	e5 e0       	ldi	r30, 0x05	; 5
     51c:	f1 e0       	ldi	r31, 0x01	; 1
     51e:	80 81       	ld	r24, Z
     520:	8f 7d       	andi	r24, 0xDF	; 223
     522:	80 83       	st	Z, r24
     524:	08 95       	ret
     526:	e5 e0       	ldi	r30, 0x05	; 5
     528:	f1 e0       	ldi	r31, 0x01	; 1
     52a:	80 81       	ld	r24, Z
     52c:	8f 7e       	andi	r24, 0xEF	; 239
     52e:	80 83       	st	Z, r24
     530:	08 95       	ret
     532:	e5 e0       	ldi	r30, 0x05	; 5
     534:	f1 e0       	ldi	r31, 0x01	; 1
     536:	80 81       	ld	r24, Z
     538:	87 7f       	andi	r24, 0xF7	; 247
     53a:	80 83       	st	Z, r24
     53c:	08 95       	ret
     53e:	e5 e0       	ldi	r30, 0x05	; 5
     540:	f1 e0       	ldi	r31, 0x01	; 1
     542:	80 81       	ld	r24, Z
     544:	8b 7f       	andi	r24, 0xFB	; 251
     546:	80 83       	st	Z, r24
     548:	08 95       	ret

0000054a <lese_sensor>:
     54a:	90 e0       	ldi	r25, 0x00	; 0
     54c:	8c 30       	cpi	r24, 0x0C	; 12
     54e:	91 05       	cpc	r25, r1
     550:	a0 f5       	brcc	.+104    	; 0x5ba <lese_sensor+0x70>
     552:	fc 01       	movw	r30, r24
     554:	88 27       	eor	r24, r24
     556:	e6 57       	subi	r30, 0x76	; 118
     558:	ff 4f       	sbci	r31, 0xFF	; 255
     55a:	8f 4f       	sbci	r24, 0xFF	; 255
     55c:	0c 94 1d 46 	jmp	0x8c3a	; 0x8c3a <__tablejump2__>
     560:	8f b1       	in	r24, 0x0f	; 15
     562:	80 78       	andi	r24, 0x80	; 128
     564:	08 95       	ret
     566:	80 91 06 01 	lds	r24, 0x0106	; 0x800106 <__TEXT_REGION_LENGTH__+0x700106>
     56a:	81 70       	andi	r24, 0x01	; 1
     56c:	08 95       	ret
     56e:	80 91 06 01 	lds	r24, 0x0106	; 0x800106 <__TEXT_REGION_LENGTH__+0x700106>
     572:	82 70       	andi	r24, 0x02	; 2
     574:	08 95       	ret
     576:	80 91 06 01 	lds	r24, 0x0106	; 0x800106 <__TEXT_REGION_LENGTH__+0x700106>
     57a:	84 70       	andi	r24, 0x04	; 4
     57c:	08 95       	ret
     57e:	80 91 06 01 	lds	r24, 0x0106	; 0x800106 <__TEXT_REGION_LENGTH__+0x700106>
     582:	88 70       	andi	r24, 0x08	; 8
     584:	08 95       	ret
     586:	80 91 06 01 	lds	r24, 0x0106	; 0x800106 <__TEXT_REGION_LENGTH__+0x700106>
     58a:	80 71       	andi	r24, 0x10	; 16
     58c:	08 95       	ret
     58e:	80 91 06 01 	lds	r24, 0x0106	; 0x800106 <__TEXT_REGION_LENGTH__+0x700106>
     592:	80 72       	andi	r24, 0x20	; 32
     594:	08 95       	ret
     596:	80 91 06 01 	lds	r24, 0x0106	; 0x800106 <__TEXT_REGION_LENGTH__+0x700106>
     59a:	80 74       	andi	r24, 0x40	; 64
     59c:	08 95       	ret
     59e:	80 91 06 01 	lds	r24, 0x0106	; 0x800106 <__TEXT_REGION_LENGTH__+0x700106>
     5a2:	80 78       	andi	r24, 0x80	; 128
     5a4:	08 95       	ret
     5a6:	80 91 03 01 	lds	r24, 0x0103	; 0x800103 <__TEXT_REGION_LENGTH__+0x700103>
     5aa:	80 78       	andi	r24, 0x80	; 128
     5ac:	08 95       	ret
     5ae:	80 b1       	in	r24, 0x00	; 0
     5b0:	81 70       	andi	r24, 0x01	; 1
     5b2:	08 95       	ret
     5b4:	80 b1       	in	r24, 0x00	; 0
     5b6:	82 70       	andi	r24, 0x02	; 2
     5b8:	08 95       	ret
     5ba:	80 e0       	ldi	r24, 0x00	; 0
     5bc:	08 95       	ret

000005be <erstelle_Liste_zutat>:
     5be:	9f 92       	push	r9
     5c0:	af 92       	push	r10
     5c2:	bf 92       	push	r11
     5c4:	cf 92       	push	r12
     5c6:	df 92       	push	r13
     5c8:	ef 92       	push	r14
     5ca:	ff 92       	push	r15
     5cc:	0f 93       	push	r16
     5ce:	1f 93       	push	r17
     5d0:	cf 93       	push	r28
     5d2:	df 93       	push	r29
     5d4:	cd b7       	in	r28, 0x3d	; 61
     5d6:	de b7       	in	r29, 0x3e	; 62
     5d8:	c4 54       	subi	r28, 0x44	; 68
     5da:	d1 09       	sbc	r29, r1
     5dc:	0f b6       	in	r0, 0x3f	; 63
     5de:	f8 94       	cli
     5e0:	de bf       	out	0x3e, r29	; 62
     5e2:	0f be       	out	0x3f, r0	; 63
     5e4:	cd bf       	out	0x3d, r28	; 61
     5e6:	6c 01       	movw	r12, r24
     5e8:	85 e1       	ldi	r24, 0x15	; 21
     5ea:	fe 01       	movw	r30, r28
     5ec:	31 96       	adiw	r30, 0x01	; 1
     5ee:	df 01       	movw	r26, r30
     5f0:	98 2f       	mov	r25, r24
     5f2:	1d 92       	st	X+, r1
     5f4:	9a 95       	dec	r25
     5f6:	e9 f7       	brne	.-6      	; 0x5f2 <erstelle_Liste_zutat+0x34>
     5f8:	75 96       	adiw	r30, 0x15	; 21
     5fa:	df 01       	movw	r26, r30
     5fc:	98 2f       	mov	r25, r24
     5fe:	1d 92       	st	X+, r1
     600:	9a 95       	dec	r25
     602:	e9 f7       	brne	.-6      	; 0x5fe <erstelle_Liste_zutat+0x40>
     604:	75 96       	adiw	r30, 0x15	; 21
     606:	df 01       	movw	r26, r30
     608:	1d 92       	st	X+, r1
     60a:	8a 95       	dec	r24
     60c:	e9 f7       	brne	.-6      	; 0x608 <erstelle_Liste_zutat+0x4a>
     60e:	75 96       	adiw	r30, 0x15	; 21
     610:	85 e0       	ldi	r24, 0x05	; 5
     612:	df 01       	movw	r26, r30
     614:	1d 92       	st	X+, r1
     616:	8a 95       	dec	r24
     618:	e9 f7       	brne	.-6      	; 0x614 <erstelle_Liste_zutat+0x56>
     61a:	e0 91 a7 0f 	lds	r30, 0x0FA7	; 0x800fa7 <tail_zut_in_Maschine>
     61e:	f0 91 a8 0f 	lds	r31, 0x0FA8	; 0x800fa8 <tail_zut_in_Maschine+0x1>
     622:	f0 93 47 0a 	sts	0x0A47, r31	; 0x800a47 <aktuelleZutatInMaschine+0x1>
     626:	e0 93 46 0a 	sts	0x0A46, r30	; 0x800a46 <aktuelleZutatInMaschine>
     62a:	20 91 d1 12 	lds	r18, 0x12D1	; 0x8012d1 <i_Liste>
     62e:	30 e0       	ldi	r19, 0x00	; 0
     630:	12 16       	cp	r1, r18
     632:	13 06       	cpc	r1, r19
     634:	0c f0       	brlt	.+2      	; 0x638 <erstelle_Liste_zutat+0x7a>
     636:	d0 c0       	rjmp	.+416    	; 0x7d8 <erstelle_Liste_zutat+0x21a>
     638:	80 e0       	ldi	r24, 0x00	; 0
     63a:	90 e0       	ldi	r25, 0x00	; 0
     63c:	04 84       	ldd	r0, Z+12	; 0x0c
     63e:	f5 85       	ldd	r31, Z+13	; 0x0d
     640:	e0 2d       	mov	r30, r0
     642:	01 96       	adiw	r24, 0x01	; 1
     644:	82 17       	cp	r24, r18
     646:	93 07       	cpc	r25, r19
     648:	c9 f7       	brne	.-14     	; 0x63c <erstelle_Liste_zutat+0x7e>
     64a:	f0 93 47 0a 	sts	0x0A47, r31	; 0x800a47 <aktuelleZutatInMaschine+0x1>
     64e:	e0 93 46 0a 	sts	0x0A46, r30	; 0x800a46 <aktuelleZutatInMaschine>
     652:	c2 c0       	rjmp	.+388    	; 0x7d8 <erstelle_Liste_zutat+0x21a>
     654:	bf ef       	ldi	r27, 0xFF	; 255
     656:	eb 1a       	sub	r14, r27
     658:	fb 0a       	sbc	r15, r27
     65a:	4a e0       	ldi	r20, 0x0A	; 10
     65c:	b8 01       	movw	r22, r16
     65e:	c7 01       	movw	r24, r14
     660:	0e 94 be 48 	call	0x917c	; 0x917c <__itoa_ncheck>
     664:	b6 01       	movw	r22, r12
     666:	ce 01       	movw	r24, r28
     668:	01 96       	adiw	r24, 0x01	; 1
     66a:	0e 94 90 48 	call	0x9120	; 0x9120 <strcpy>
     66e:	b8 01       	movw	r22, r16
     670:	ce 01       	movw	r24, r28
     672:	01 96       	adiw	r24, 0x01	; 1
     674:	0e 94 7c 48 	call	0x90f8	; 0x90f8 <strcat>
     678:	87 e0       	ldi	r24, 0x07	; 7
     67a:	e9 e3       	ldi	r30, 0x39	; 57
     67c:	f2 e0       	ldi	r31, 0x02	; 2
     67e:	de 01       	movw	r26, r28
     680:	56 96       	adiw	r26, 0x16	; 22
     682:	01 90       	ld	r0, Z+
     684:	0d 92       	st	X+, r0
     686:	8a 95       	dec	r24
     688:	e1 f7       	brne	.-8      	; 0x682 <erstelle_Liste_zutat+0xc4>
     68a:	b8 01       	movw	r22, r16
     68c:	ce 01       	movw	r24, r28
     68e:	46 96       	adiw	r24, 0x16	; 22
     690:	0e 94 7c 48 	call	0x90f8	; 0x90f8 <strcat>
     694:	86 e0       	ldi	r24, 0x06	; 6
     696:	e4 e5       	ldi	r30, 0x54	; 84
     698:	f2 e0       	ldi	r31, 0x02	; 2
     69a:	de 01       	movw	r26, r28
     69c:	9b 96       	adiw	r26, 0x2b	; 43
     69e:	01 90       	ld	r0, Z+
     6a0:	0d 92       	st	X+, r0
     6a2:	8a 95       	dec	r24
     6a4:	e1 f7       	brne	.-8      	; 0x69e <erstelle_Liste_zutat+0xe0>
     6a6:	b8 01       	movw	r22, r16
     6a8:	ce 01       	movw	r24, r28
     6aa:	8b 96       	adiw	r24, 0x2b	; 43
     6ac:	0e 94 7c 48 	call	0x90f8	; 0x90f8 <strcat>
     6b0:	e0 91 46 0a 	lds	r30, 0x0A46	; 0x800a46 <aktuelleZutatInMaschine>
     6b4:	f0 91 47 0a 	lds	r31, 0x0A47	; 0x800a47 <aktuelleZutatInMaschine+0x1>
     6b8:	80 91 39 0a 	lds	r24, 0x0A39	; 0x800a39 <head_zut_in_Maschine>
     6bc:	90 91 3a 0a 	lds	r25, 0x0A3A	; 0x800a3a <head_zut_in_Maschine+0x1>
     6c0:	e8 17       	cp	r30, r24
     6c2:	f9 07       	cpc	r31, r25
     6c4:	99 f5       	brne	.+102    	; 0x72c <erstelle_Liste_zutat+0x16e>
     6c6:	80 91 80 0a 	lds	r24, 0x0A80	; 0x800a80 <block_list_runter>
     6ca:	81 11       	cpse	r24, r1
     6cc:	33 c0       	rjmp	.+102    	; 0x734 <erstelle_Liste_zutat+0x176>
     6ce:	90 92 80 0a 	sts	0x0A80, r9	; 0x800a80 <block_list_runter>
     6d2:	60 81       	ld	r22, Z
     6d4:	71 81       	ldd	r23, Z+1	; 0x01
     6d6:	ce 01       	movw	r24, r28
     6d8:	01 96       	adiw	r24, 0x01	; 1
     6da:	0e 94 1c 2c 	call	0x5838	; 0x5838 <nextion_setText>
     6de:	e0 91 0b 13 	lds	r30, 0x130B	; 0x80130b <aktuellesGetraenk>
     6e2:	f0 91 0c 13 	lds	r31, 0x130C	; 0x80130c <aktuellesGetraenk+0x1>
     6e6:	a0 91 46 0a 	lds	r26, 0x0A46	; 0x800a46 <aktuelleZutatInMaschine>
     6ea:	b0 91 47 0a 	lds	r27, 0x0A47	; 0x800a47 <aktuelleZutatInMaschine+0x1>
     6ee:	15 96       	adiw	r26, 0x05	; 5
     6f0:	8c 91       	ld	r24, X
     6f2:	04 80       	ldd	r0, Z+4	; 0x04
     6f4:	f5 81       	ldd	r31, Z+5	; 0x05
     6f6:	e0 2d       	mov	r30, r0
     6f8:	e8 0f       	add	r30, r24
     6fa:	f1 1d       	adc	r31, r1
     6fc:	80 81       	ld	r24, Z
     6fe:	4a e0       	ldi	r20, 0x0A	; 10
     700:	b8 01       	movw	r22, r16
     702:	90 e0       	ldi	r25, 0x00	; 0
     704:	0e 94 be 48 	call	0x917c	; 0x917c <__itoa_ncheck>
     708:	b8 01       	movw	r22, r16
     70a:	ce 01       	movw	r24, r28
     70c:	46 96       	adiw	r24, 0x16	; 22
     70e:	0e 94 34 2c 	call	0x5868	; 0x5868 <nextion_setValue>
     712:	f8 01       	movw	r30, r16
     714:	01 90       	ld	r0, Z+
     716:	00 20       	and	r0, r0
     718:	e9 f7       	brne	.-6      	; 0x714 <erstelle_Liste_zutat+0x156>
     71a:	31 97       	sbiw	r30, 0x01	; 1
     71c:	b1 82       	std	Z+1, r11	; 0x01
     71e:	a0 82       	st	Z, r10
     720:	b8 01       	movw	r22, r16
     722:	ce 01       	movw	r24, r28
     724:	8b 96       	adiw	r24, 0x2b	; 43
     726:	0e 94 1c 2c 	call	0x5838	; 0x5838 <nextion_setText>
     72a:	3d c0       	rjmp	.+122    	; 0x7a6 <erstelle_Liste_zutat+0x1e8>
     72c:	80 91 80 0a 	lds	r24, 0x0A80	; 0x800a80 <block_list_runter>
     730:	88 23       	and	r24, r24
     732:	69 f0       	breq	.+26     	; 0x74e <erstelle_Liste_zutat+0x190>
     734:	6c e8       	ldi	r22, 0x8C	; 140
     736:	74 e0       	ldi	r23, 0x04	; 4
     738:	ce 01       	movw	r24, r28
     73a:	01 96       	adiw	r24, 0x01	; 1
     73c:	0e 94 1c 2c 	call	0x5838	; 0x5838 <nextion_setText>
     740:	65 e5       	ldi	r22, 0x55	; 85
     742:	73 e0       	ldi	r23, 0x03	; 3
     744:	ce 01       	movw	r24, r28
     746:	46 96       	adiw	r24, 0x16	; 22
     748:	0e 94 34 2c 	call	0x5868	; 0x5868 <nextion_setValue>
     74c:	2c c0       	rjmp	.+88     	; 0x7a6 <erstelle_Liste_zutat+0x1e8>
     74e:	60 81       	ld	r22, Z
     750:	71 81       	ldd	r23, Z+1	; 0x01
     752:	ce 01       	movw	r24, r28
     754:	01 96       	adiw	r24, 0x01	; 1
     756:	0e 94 1c 2c 	call	0x5838	; 0x5838 <nextion_setText>
     75a:	e0 91 0b 13 	lds	r30, 0x130B	; 0x80130b <aktuellesGetraenk>
     75e:	f0 91 0c 13 	lds	r31, 0x130C	; 0x80130c <aktuellesGetraenk+0x1>
     762:	a0 91 46 0a 	lds	r26, 0x0A46	; 0x800a46 <aktuelleZutatInMaschine>
     766:	b0 91 47 0a 	lds	r27, 0x0A47	; 0x800a47 <aktuelleZutatInMaschine+0x1>
     76a:	15 96       	adiw	r26, 0x05	; 5
     76c:	8c 91       	ld	r24, X
     76e:	04 80       	ldd	r0, Z+4	; 0x04
     770:	f5 81       	ldd	r31, Z+5	; 0x05
     772:	e0 2d       	mov	r30, r0
     774:	e8 0f       	add	r30, r24
     776:	f1 1d       	adc	r31, r1
     778:	80 81       	ld	r24, Z
     77a:	4a e0       	ldi	r20, 0x0A	; 10
     77c:	b8 01       	movw	r22, r16
     77e:	90 e0       	ldi	r25, 0x00	; 0
     780:	0e 94 be 48 	call	0x917c	; 0x917c <__itoa_ncheck>
     784:	b8 01       	movw	r22, r16
     786:	ce 01       	movw	r24, r28
     788:	46 96       	adiw	r24, 0x16	; 22
     78a:	0e 94 34 2c 	call	0x5868	; 0x5868 <nextion_setValue>
     78e:	f8 01       	movw	r30, r16
     790:	01 90       	ld	r0, Z+
     792:	00 20       	and	r0, r0
     794:	e9 f7       	brne	.-6      	; 0x790 <erstelle_Liste_zutat+0x1d2>
     796:	31 97       	sbiw	r30, 0x01	; 1
     798:	b1 82       	std	Z+1, r11	; 0x01
     79a:	a0 82       	st	Z, r10
     79c:	b8 01       	movw	r22, r16
     79e:	ce 01       	movw	r24, r28
     7a0:	8b 96       	adiw	r24, 0x2b	; 43
     7a2:	0e 94 1c 2c 	call	0x5838	; 0x5838 <nextion_setText>
     7a6:	e0 91 46 0a 	lds	r30, 0x0A46	; 0x800a46 <aktuelleZutatInMaschine>
     7aa:	f0 91 47 0a 	lds	r31, 0x0A47	; 0x800a47 <aktuelleZutatInMaschine+0x1>
     7ae:	80 91 a7 0f 	lds	r24, 0x0FA7	; 0x800fa7 <tail_zut_in_Maschine>
     7b2:	90 91 a8 0f 	lds	r25, 0x0FA8	; 0x800fa8 <tail_zut_in_Maschine+0x1>
     7b6:	e8 17       	cp	r30, r24
     7b8:	f9 07       	cpc	r31, r25
     7ba:	11 f4       	brne	.+4      	; 0x7c0 <erstelle_Liste_zutat+0x202>
     7bc:	90 92 9b 0e 	sts	0x0E9B, r9	; 0x800e9b <block_list_hoch>
     7c0:	84 85       	ldd	r24, Z+12	; 0x0c
     7c2:	95 85       	ldd	r25, Z+13	; 0x0d
     7c4:	90 93 47 0a 	sts	0x0A47, r25	; 0x800a47 <aktuelleZutatInMaschine+0x1>
     7c8:	80 93 46 0a 	sts	0x0A46, r24	; 0x800a46 <aktuelleZutatInMaschine>
     7cc:	84 e0       	ldi	r24, 0x04	; 4
     7ce:	e8 16       	cp	r14, r24
     7d0:	f1 04       	cpc	r15, r1
     7d2:	09 f0       	breq	.+2      	; 0x7d6 <erstelle_Liste_zutat+0x218>
     7d4:	3f cf       	rjmp	.-386    	; 0x654 <erstelle_Liste_zutat+0x96>
     7d6:	0d c0       	rjmp	.+26     	; 0x7f2 <erstelle_Liste_zutat+0x234>
     7d8:	e1 2c       	mov	r14, r1
     7da:	f1 2c       	mov	r15, r1
     7dc:	8e 01       	movw	r16, r28
     7de:	00 5c       	subi	r16, 0xC0	; 192
     7e0:	1f 4f       	sbci	r17, 0xFF	; 255
     7e2:	0f 2e       	mov	r0, r31
     7e4:	f5 e2       	ldi	r31, 0x25	; 37
     7e6:	af 2e       	mov	r10, r31
     7e8:	b1 2c       	mov	r11, r1
     7ea:	f0 2d       	mov	r31, r0
     7ec:	99 24       	eor	r9, r9
     7ee:	93 94       	inc	r9
     7f0:	31 cf       	rjmp	.-414    	; 0x654 <erstelle_Liste_zutat+0x96>
     7f2:	cc 5b       	subi	r28, 0xBC	; 188
     7f4:	df 4f       	sbci	r29, 0xFF	; 255
     7f6:	0f b6       	in	r0, 0x3f	; 63
     7f8:	f8 94       	cli
     7fa:	de bf       	out	0x3e, r29	; 62
     7fc:	0f be       	out	0x3f, r0	; 63
     7fe:	cd bf       	out	0x3d, r28	; 61
     800:	df 91       	pop	r29
     802:	cf 91       	pop	r28
     804:	1f 91       	pop	r17
     806:	0f 91       	pop	r16
     808:	ff 90       	pop	r15
     80a:	ef 90       	pop	r14
     80c:	df 90       	pop	r13
     80e:	cf 90       	pop	r12
     810:	bf 90       	pop	r11
     812:	af 90       	pop	r10
     814:	9f 90       	pop	r9
     816:	08 95       	ret

00000818 <setze_startanzeige>:
     818:	0f 93       	push	r16
     81a:	1f 93       	push	r17
     81c:	cf 93       	push	r28
     81e:	df 93       	push	r29
     820:	00 d0       	rcall	.+0      	; 0x822 <setze_startanzeige+0xa>
     822:	1f 92       	push	r1
     824:	cd b7       	in	r28, 0x3d	; 61
     826:	de b7       	in	r29, 0x3e	; 62
     828:	8c 01       	movw	r16, r24
     82a:	e0 91 0b 13 	lds	r30, 0x130B	; 0x80130b <aktuellesGetraenk>
     82e:	f0 91 0c 13 	lds	r31, 0x130C	; 0x80130c <aktuellesGetraenk+0x1>
     832:	86 81       	ldd	r24, Z+6	; 0x06
     834:	80 32       	cpi	r24, 0x20	; 32
     836:	28 f0       	brcs	.+10     	; 0x842 <setze_startanzeige+0x2a>
     838:	8a e5       	ldi	r24, 0x5A	; 90
     83a:	92 e0       	ldi	r25, 0x02	; 2
     83c:	0e 94 70 2d 	call	0x5ae0	; 0x5ae0 <nextion_visible_on>
     840:	04 c0       	rjmp	.+8      	; 0x84a <setze_startanzeige+0x32>
     842:	8a e5       	ldi	r24, 0x5A	; 90
     844:	92 e0       	ldi	r25, 0x02	; 2
     846:	0e 94 37 2d 	call	0x5a6e	; 0x5a6e <nextion_visible_off>
     84a:	f8 01       	movw	r30, r16
     84c:	60 81       	ld	r22, Z
     84e:	71 81       	ldd	r23, Z+1	; 0x01
     850:	83 e6       	ldi	r24, 0x63	; 99
     852:	92 e0       	ldi	r25, 0x02	; 2
     854:	0e 94 1c 2c 	call	0x5838	; 0x5838 <nextion_setText>
     858:	f8 01       	movw	r30, r16
     85a:	86 81       	ldd	r24, Z+6	; 0x06
     85c:	4a e0       	ldi	r20, 0x0A	; 10
     85e:	be 01       	movw	r22, r28
     860:	6f 5f       	subi	r22, 0xFF	; 255
     862:	7f 4f       	sbci	r23, 0xFF	; 255
     864:	90 e0       	ldi	r25, 0x00	; 0
     866:	0e 94 be 48 	call	0x917c	; 0x917c <__itoa_ncheck>
     86a:	ae 01       	movw	r20, r28
     86c:	4f 5f       	subi	r20, 0xFF	; 255
     86e:	5f 4f       	sbci	r21, 0xFF	; 255
     870:	60 e7       	ldi	r22, 0x70	; 112
     872:	72 e0       	ldi	r23, 0x02	; 2
     874:	83 e7       	ldi	r24, 0x73	; 115
     876:	92 e0       	ldi	r25, 0x02	; 2
     878:	0e 94 44 2c 	call	0x5888	; 0x5888 <nextion_setPicture>
     87c:	80 91 45 0a 	lds	r24, 0x0A45	; 0x800a45 <Liste>
     880:	81 30       	cpi	r24, 0x01	; 1
     882:	59 f0       	breq	.+22     	; 0x89a <setze_startanzeige+0x82>
     884:	18 f0       	brcs	.+6      	; 0x88c <setze_startanzeige+0x74>
     886:	82 30       	cpi	r24, 0x02	; 2
     888:	79 f0       	breq	.+30     	; 0x8a8 <setze_startanzeige+0x90>
     88a:	14 c0       	rjmp	.+40     	; 0x8b4 <setze_startanzeige+0x9c>
     88c:	67 e7       	ldi	r22, 0x77	; 119
     88e:	72 e0       	ldi	r23, 0x02	; 2
     890:	83 e8       	ldi	r24, 0x83	; 131
     892:	92 e0       	ldi	r25, 0x02	; 2
     894:	0e 94 1c 2c 	call	0x5838	; 0x5838 <nextion_setText>
     898:	0d c0       	rjmp	.+26     	; 0x8b4 <setze_startanzeige+0x9c>
     89a:	61 e9       	ldi	r22, 0x91	; 145
     89c:	72 e0       	ldi	r23, 0x02	; 2
     89e:	83 e8       	ldi	r24, 0x83	; 131
     8a0:	92 e0       	ldi	r25, 0x02	; 2
     8a2:	0e 94 1c 2c 	call	0x5838	; 0x5838 <nextion_setText>
     8a6:	06 c0       	rjmp	.+12     	; 0x8b4 <setze_startanzeige+0x9c>
     8a8:	6d e9       	ldi	r22, 0x9D	; 157
     8aa:	72 e0       	ldi	r23, 0x02	; 2
     8ac:	83 e8       	ldi	r24, 0x83	; 131
     8ae:	92 e0       	ldi	r25, 0x02	; 2
     8b0:	0e 94 1c 2c 	call	0x5838	; 0x5838 <nextion_setText>
     8b4:	0f 90       	pop	r0
     8b6:	0f 90       	pop	r0
     8b8:	0f 90       	pop	r0
     8ba:	0f 90       	pop	r0
     8bc:	df 91       	pop	r29
     8be:	cf 91       	pop	r28
     8c0:	1f 91       	pop	r17
     8c2:	0f 91       	pop	r16
     8c4:	08 95       	ret

000008c6 <fuelle_getraenk>:
     8c6:	4f 92       	push	r4
     8c8:	5f 92       	push	r5
     8ca:	6f 92       	push	r6
     8cc:	7f 92       	push	r7
     8ce:	8f 92       	push	r8
     8d0:	9f 92       	push	r9
     8d2:	af 92       	push	r10
     8d4:	bf 92       	push	r11
     8d6:	ef 92       	push	r14
     8d8:	ff 92       	push	r15
     8da:	0f 93       	push	r16
     8dc:	1f 93       	push	r17
     8de:	cf 93       	push	r28
     8e0:	df 93       	push	r29
     8e2:	cd b7       	in	r28, 0x3d	; 61
     8e4:	de b7       	in	r29, 0x3e	; 62
     8e6:	e4 97       	sbiw	r28, 0x34	; 52
     8e8:	0f b6       	in	r0, 0x3f	; 63
     8ea:	f8 94       	cli
     8ec:	de bf       	out	0x3e, r29	; 62
     8ee:	0f be       	out	0x3f, r0	; 63
     8f0:	cd bf       	out	0x3d, r28	; 61
     8f2:	69 ab       	std	Y+49, r22	; 0x31
     8f4:	7a ab       	std	Y+50, r23	; 0x32
     8f6:	8b ab       	std	Y+51, r24	; 0x33
     8f8:	9c ab       	std	Y+52, r25	; 0x34
     8fa:	80 91 a7 0f 	lds	r24, 0x0FA7	; 0x800fa7 <tail_zut_in_Maschine>
     8fe:	90 91 a8 0f 	lds	r25, 0x0FA8	; 0x800fa8 <tail_zut_in_Maschine+0x1>
     902:	90 93 47 0a 	sts	0x0A47, r25	; 0x800a47 <aktuelleZutatInMaschine+0x1>
     906:	80 93 46 0a 	sts	0x0A46, r24	; 0x800a46 <aktuelleZutatInMaschine>
     90a:	10 92 94 0e 	sts	0x0E94, r1	; 0x800e94 <externes_Getraenk_flag>
     90e:	11 e0       	ldi	r17, 0x01	; 1
     910:	0f 2e       	mov	r0, r31
     912:	f4 e6       	ldi	r31, 0x64	; 100
     914:	4f 2e       	mov	r4, r31
     916:	51 2c       	mov	r5, r1
     918:	61 2c       	mov	r6, r1
     91a:	71 2c       	mov	r7, r1
     91c:	f0 2d       	mov	r31, r0
     91e:	e0 91 46 0a 	lds	r30, 0x0A46	; 0x800a46 <aktuelleZutatInMaschine>
     922:	f0 91 47 0a 	lds	r31, 0x0A47	; 0x800a47 <aktuelleZutatInMaschine+0x1>
     926:	80 81       	ld	r24, Z
     928:	91 81       	ldd	r25, Z+1	; 0x01
     92a:	0e 94 51 41 	call	0x82a2	; 0x82a2 <Uart_Transmit_IT_PC>
     92e:	88 e2       	ldi	r24, 0x28	; 40
     930:	97 e0       	ldi	r25, 0x07	; 7
     932:	0e 94 51 41 	call	0x82a2	; 0x82a2 <Uart_Transmit_IT_PC>
     936:	a0 91 46 0a 	lds	r26, 0x0A46	; 0x800a46 <aktuelleZutatInMaschine>
     93a:	b0 91 47 0a 	lds	r27, 0x0A47	; 0x800a47 <aktuelleZutatInMaschine+0x1>
     93e:	e0 91 0b 13 	lds	r30, 0x130B	; 0x80130b <aktuellesGetraenk>
     942:	f0 91 0c 13 	lds	r31, 0x130C	; 0x80130c <aktuellesGetraenk+0x1>
     946:	15 96       	adiw	r26, 0x05	; 5
     948:	8c 91       	ld	r24, X
     94a:	15 97       	sbiw	r26, 0x05	; 5
     94c:	04 80       	ldd	r0, Z+4	; 0x04
     94e:	f5 81       	ldd	r31, Z+5	; 0x05
     950:	e0 2d       	mov	r30, r0
     952:	e8 0f       	add	r30, r24
     954:	f1 1d       	adc	r31, r1
     956:	80 81       	ld	r24, Z
     958:	88 23       	and	r24, r24
     95a:	09 f4       	brne	.+2      	; 0x95e <fuelle_getraenk+0x98>
     95c:	d3 c0       	rjmp	.+422    	; 0xb04 <fuelle_getraenk+0x23e>
     95e:	80 91 05 13 	lds	r24, 0x1305	; 0x801305 <stop>
     962:	81 11       	cpse	r24, r1
     964:	cf c0       	rjmp	.+414    	; 0xb04 <fuelle_getraenk+0x23e>
     966:	8d 91       	ld	r24, X+
     968:	9c 91       	ld	r25, X
     96a:	0e 94 51 41 	call	0x82a2	; 0x82a2 <Uart_Transmit_IT_PC>
     96e:	88 e2       	ldi	r24, 0x28	; 40
     970:	97 e0       	ldi	r25, 0x07	; 7
     972:	0e 94 51 41 	call	0x82a2	; 0x82a2 <Uart_Transmit_IT_PC>
     976:	e0 90 46 0a 	lds	r14, 0x0A46	; 0x800a46 <aktuelleZutatInMaschine>
     97a:	f0 90 47 0a 	lds	r15, 0x0A47	; 0x800a47 <aktuelleZutatInMaschine+0x1>
     97e:	f7 01       	movw	r30, r14
     980:	84 81       	ldd	r24, Z+4	; 0x04
     982:	81 11       	cpse	r24, r1
     984:	bd c0       	rjmp	.+378    	; 0xb00 <fuelle_getraenk+0x23a>
     986:	80 e3       	ldi	r24, 0x30	; 48
     988:	e6 e0       	ldi	r30, 0x06	; 6
     98a:	f2 e0       	ldi	r31, 0x02	; 2
     98c:	de 01       	movw	r26, r28
     98e:	11 96       	adiw	r26, 0x01	; 1
     990:	01 90       	ld	r0, Z+
     992:	0d 92       	st	X+, r0
     994:	8a 95       	dec	r24
     996:	e1 f7       	brne	.-8      	; 0x990 <fuelle_getraenk+0xca>
     998:	80 91 8d 0b 	lds	r24, 0x0B8D	; 0x800b8d <i>
     99c:	90 91 8e 0b 	lds	r25, 0x0B8E	; 0x800b8e <i+0x1>
     9a0:	e0 91 0b 13 	lds	r30, 0x130B	; 0x80130b <aktuellesGetraenk>
     9a4:	f0 91 0c 13 	lds	r31, 0x130C	; 0x80130c <aktuellesGetraenk+0x1>
     9a8:	04 80       	ldd	r0, Z+4	; 0x04
     9aa:	f5 81       	ldd	r31, Z+5	; 0x05
     9ac:	e0 2d       	mov	r30, r0
     9ae:	e8 0f       	add	r30, r24
     9b0:	f9 1f       	adc	r31, r25
     9b2:	00 81       	ld	r16, Z
     9b4:	88 0f       	add	r24, r24
     9b6:	99 1f       	adc	r25, r25
     9b8:	88 0f       	add	r24, r24
     9ba:	99 1f       	adc	r25, r25
     9bc:	e1 e0       	ldi	r30, 0x01	; 1
     9be:	f0 e0       	ldi	r31, 0x00	; 0
     9c0:	ec 0f       	add	r30, r28
     9c2:	fd 1f       	adc	r31, r29
     9c4:	e8 0f       	add	r30, r24
     9c6:	f9 1f       	adc	r31, r25
     9c8:	60 81       	ld	r22, Z
     9ca:	71 81       	ldd	r23, Z+1	; 0x01
     9cc:	82 81       	ldd	r24, Z+2	; 0x02
     9ce:	93 81       	ldd	r25, Z+3	; 0x03
     9d0:	29 a9       	ldd	r18, Y+49	; 0x31
     9d2:	3a a9       	ldd	r19, Y+50	; 0x32
     9d4:	4b a9       	ldd	r20, Y+51	; 0x33
     9d6:	5c a9       	ldd	r21, Y+52	; 0x34
     9d8:	0e 94 ec 45 	call	0x8bd8	; 0x8bd8 <__mulsi3>
     9dc:	9b 01       	movw	r18, r22
     9de:	ac 01       	movw	r20, r24
     9e0:	a0 2f       	mov	r26, r16
     9e2:	b0 e0       	ldi	r27, 0x00	; 0
     9e4:	0e 94 34 46 	call	0x8c68	; 0x8c68 <__muluhisi3>
     9e8:	a3 01       	movw	r20, r6
     9ea:	92 01       	movw	r18, r4
     9ec:	0e 94 fb 45 	call	0x8bf6	; 0x8bf6 <__udivmodsi4>
     9f0:	49 01       	movw	r8, r18
     9f2:	5a 01       	movw	r10, r20
     9f4:	f7 01       	movw	r30, r14
     9f6:	85 81       	ldd	r24, Z+5	; 0x05
     9f8:	a8 dd       	rcall	.-1200   	; 0x54a <lese_sensor>
     9fa:	e0 91 46 0a 	lds	r30, 0x0A46	; 0x800a46 <aktuelleZutatInMaschine>
     9fe:	f0 91 47 0a 	lds	r31, 0x0A47	; 0x800a47 <aktuelleZutatInMaschine+0x1>
     a02:	85 81       	ldd	r24, Z+5	; 0x05
     a04:	34 dd       	rcall	.-1432   	; 0x46e <schalte_pumpe_ein>
     a06:	f1 2e       	mov	r15, r17
     a08:	01 c0       	rjmp	.+2      	; 0xa0c <fuelle_getraenk+0x146>
     a0a:	f8 2e       	mov	r15, r24
     a0c:	00 91 2c 09 	lds	r16, 0x092C	; 0x80092c <oldval.3215>
     a10:	e0 2e       	mov	r14, r16
     a12:	e1 26       	eor	r14, r17
     a14:	01 11       	cpse	r16, r1
     a16:	68 c0       	rjmp	.+208    	; 0xae8 <fuelle_getraenk+0x222>
     a18:	09 f4       	brne	.+2      	; 0xa1c <fuelle_getraenk+0x156>
     a1a:	68 c0       	rjmp	.+208    	; 0xaec <fuelle_getraenk+0x226>
     a1c:	80 91 28 09 	lds	r24, 0x0928	; 0x800928 <count.3216>
     a20:	90 91 29 09 	lds	r25, 0x0929	; 0x800929 <count.3216+0x1>
     a24:	a0 91 2a 09 	lds	r26, 0x092A	; 0x80092a <count.3216+0x2>
     a28:	b0 91 2b 09 	lds	r27, 0x092B	; 0x80092b <count.3216+0x3>
     a2c:	ac 01       	movw	r20, r24
     a2e:	bd 01       	movw	r22, r26
     a30:	4f 5f       	subi	r20, 0xFF	; 255
     a32:	5f 4f       	sbci	r21, 0xFF	; 255
     a34:	6f 4f       	sbci	r22, 0xFF	; 255
     a36:	7f 4f       	sbci	r23, 0xFF	; 255
     a38:	40 93 28 09 	sts	0x0928, r20	; 0x800928 <count.3216>
     a3c:	50 93 29 09 	sts	0x0929, r21	; 0x800929 <count.3216+0x1>
     a40:	60 93 2a 09 	sts	0x092A, r22	; 0x80092a <count.3216+0x2>
     a44:	70 93 2b 09 	sts	0x092B, r23	; 0x80092b <count.3216+0x3>
     a48:	88 16       	cp	r8, r24
     a4a:	99 06       	cpc	r9, r25
     a4c:	aa 06       	cpc	r10, r26
     a4e:	bb 06       	cpc	r11, r27
     a50:	d0 f4       	brcc	.+52     	; 0xa86 <fuelle_getraenk+0x1c0>
     a52:	e0 91 46 0a 	lds	r30, 0x0A46	; 0x800a46 <aktuelleZutatInMaschine>
     a56:	f0 91 47 0a 	lds	r31, 0x0A47	; 0x800a47 <aktuelleZutatInMaschine+0x1>
     a5a:	85 81       	ldd	r24, Z+5	; 0x05
     a5c:	3f dd       	rcall	.-1410   	; 0x4dc <schalte_pumpe_aus>
     a5e:	10 92 28 09 	sts	0x0928, r1	; 0x800928 <count.3216>
     a62:	10 92 29 09 	sts	0x0929, r1	; 0x800929 <count.3216+0x1>
     a66:	10 92 2a 09 	sts	0x092A, r1	; 0x80092a <count.3216+0x2>
     a6a:	10 92 2b 09 	sts	0x092B, r1	; 0x80092b <count.3216+0x3>
     a6e:	8f e3       	ldi	r24, 0x3F	; 63
     a70:	9f e1       	ldi	r25, 0x1F	; 31
     a72:	01 97       	sbiw	r24, 0x01	; 1
     a74:	f1 f7       	brne	.-4      	; 0xa72 <fuelle_getraenk+0x1ac>
     a76:	00 c0       	rjmp	.+0      	; 0xa78 <fuelle_getraenk+0x1b2>
     a78:	00 00       	nop
     a7a:	0e 94 c1 2a 	call	0x5582	; 0x5582 <check_Communication_Input_UART_1>
     a7e:	88 23       	and	r24, r24
     a80:	09 f4       	brne	.+2      	; 0xa84 <fuelle_getraenk+0x1be>
     a82:	6b c0       	rjmp	.+214    	; 0xb5a <fuelle_getraenk+0x294>
     a84:	70 c0       	rjmp	.+224    	; 0xb66 <fuelle_getraenk+0x2a0>
     a86:	ef e3       	ldi	r30, 0x3F	; 63
     a88:	ff e1       	ldi	r31, 0x1F	; 31
     a8a:	31 97       	sbiw	r30, 0x01	; 1
     a8c:	f1 f7       	brne	.-4      	; 0xa8a <fuelle_getraenk+0x1c4>
     a8e:	00 c0       	rjmp	.+0      	; 0xa90 <fuelle_getraenk+0x1ca>
     a90:	00 00       	nop
     a92:	0e 94 c1 2a 	call	0x5582	; 0x5582 <check_Communication_Input_UART_1>
     a96:	88 23       	and	r24, r24
     a98:	59 f1       	breq	.+86     	; 0xaf0 <fuelle_getraenk+0x22a>
     a9a:	0e 94 4a 2b 	call	0x5694	; 0x5694 <proceed_Communication_INPUT_UART_1>
     a9e:	80 91 05 13 	lds	r24, 0x1305	; 0x801305 <stop>
     aa2:	81 30       	cpi	r24, 0x01	; 1
     aa4:	39 f5       	brne	.+78     	; 0xaf4 <fuelle_getraenk+0x22e>
     aa6:	80 2f       	mov	r24, r16
     aa8:	19 dd       	rcall	.-1486   	; 0x4dc <schalte_pumpe_aus>
     aaa:	0f 5f       	subi	r16, 0xFF	; 255
     aac:	0c 30       	cpi	r16, 0x0C	; 12
     aae:	d9 f7       	brne	.-10     	; 0xaa6 <fuelle_getraenk+0x1e0>
     ab0:	8e e0       	ldi	r24, 0x0E	; 14
     ab2:	0e 94 fd 2b 	call	0x57fa	; 0x57fa <nextion_change_page>
     ab6:	ff ef       	ldi	r31, 0xFF	; 255
     ab8:	27 ea       	ldi	r18, 0xA7	; 167
     aba:	81 e6       	ldi	r24, 0x61	; 97
     abc:	f1 50       	subi	r31, 0x01	; 1
     abe:	20 40       	sbci	r18, 0x00	; 0
     ac0:	80 40       	sbci	r24, 0x00	; 0
     ac2:	e1 f7       	brne	.-8      	; 0xabc <fuelle_getraenk+0x1f6>
     ac4:	00 c0       	rjmp	.+0      	; 0xac6 <fuelle_getraenk+0x200>
     ac6:	00 00       	nop
     ac8:	80 91 0b 13 	lds	r24, 0x130B	; 0x80130b <aktuellesGetraenk>
     acc:	90 91 0c 13 	lds	r25, 0x130C	; 0x80130c <aktuellesGetraenk+0x1>
     ad0:	a3 de       	rcall	.-698    	; 0x818 <setze_startanzeige>
     ad2:	10 92 28 09 	sts	0x0928, r1	; 0x800928 <count.3216>
     ad6:	10 92 29 09 	sts	0x0929, r1	; 0x800929 <count.3216+0x1>
     ada:	10 92 2a 09 	sts	0x092A, r1	; 0x80092a <count.3216+0x2>
     ade:	10 92 2b 09 	sts	0x092B, r1	; 0x80092b <count.3216+0x3>
     ae2:	e0 92 2c 09 	sts	0x092C, r14	; 0x80092c <oldval.3215>
     ae6:	0e c0       	rjmp	.+28     	; 0xb04 <fuelle_getraenk+0x23e>
     ae8:	8f 2d       	mov	r24, r15
     aea:	05 c0       	rjmp	.+10     	; 0xaf6 <fuelle_getraenk+0x230>
     aec:	8f 2d       	mov	r24, r15
     aee:	03 c0       	rjmp	.+6      	; 0xaf6 <fuelle_getraenk+0x230>
     af0:	8f 2d       	mov	r24, r15
     af2:	01 c0       	rjmp	.+2      	; 0xaf6 <fuelle_getraenk+0x230>
     af4:	8f 2d       	mov	r24, r15
     af6:	e0 92 2c 09 	sts	0x092C, r14	; 0x80092c <oldval.3215>
     afa:	f1 10       	cpse	r15, r1
     afc:	86 cf       	rjmp	.-244    	; 0xa0a <fuelle_getraenk+0x144>
     afe:	02 c0       	rjmp	.+4      	; 0xb04 <fuelle_getraenk+0x23e>
     b00:	10 93 94 0e 	sts	0x0E94, r17	; 0x800e94 <externes_Getraenk_flag>
     b04:	e0 91 46 0a 	lds	r30, 0x0A46	; 0x800a46 <aktuelleZutatInMaschine>
     b08:	f0 91 47 0a 	lds	r31, 0x0A47	; 0x800a47 <aktuelleZutatInMaschine+0x1>
     b0c:	84 85       	ldd	r24, Z+12	; 0x0c
     b0e:	95 85       	ldd	r25, Z+13	; 0x0d
     b10:	90 93 47 0a 	sts	0x0A47, r25	; 0x800a47 <aktuelleZutatInMaschine+0x1>
     b14:	80 93 46 0a 	sts	0x0A46, r24	; 0x800a46 <aktuelleZutatInMaschine>
     b18:	20 91 a7 0f 	lds	r18, 0x0FA7	; 0x800fa7 <tail_zut_in_Maschine>
     b1c:	30 91 a8 0f 	lds	r19, 0x0FA8	; 0x800fa8 <tail_zut_in_Maschine+0x1>
     b20:	82 17       	cp	r24, r18
     b22:	93 07       	cpc	r25, r19
     b24:	09 f0       	breq	.+2      	; 0xb28 <fuelle_getraenk+0x262>
     b26:	fb ce       	rjmp	.-522    	; 0x91e <fuelle_getraenk+0x58>
     b28:	10 92 05 13 	sts	0x1305, r1	; 0x801305 <stop>
     b2c:	80 91 94 0e 	lds	r24, 0x0E94	; 0x800e94 <externes_Getraenk_flag>
     b30:	81 30       	cpi	r24, 0x01	; 1
     b32:	01 f5       	brne	.+64     	; 0xb74 <fuelle_getraenk+0x2ae>
     b34:	8d e0       	ldi	r24, 0x0D	; 13
     b36:	0e 94 fd 2b 	call	0x57fa	; 0x57fa <nextion_change_page>
     b3a:	62 ea       	ldi	r22, 0xA2	; 162
     b3c:	72 e0       	ldi	r23, 0x02	; 2
     b3e:	8a eb       	ldi	r24, 0xBA	; 186
     b40:	92 e0       	ldi	r25, 0x02	; 2
     b42:	0e 94 1c 2c 	call	0x5838	; 0x5838 <nextion_setText>
     b46:	9f ef       	ldi	r25, 0xFF	; 255
     b48:	e7 ea       	ldi	r30, 0xA7	; 167
     b4a:	f1 e6       	ldi	r31, 0x61	; 97
     b4c:	91 50       	subi	r25, 0x01	; 1
     b4e:	e0 40       	sbci	r30, 0x00	; 0
     b50:	f0 40       	sbci	r31, 0x00	; 0
     b52:	e1 f7       	brne	.-8      	; 0xb4c <fuelle_getraenk+0x286>
     b54:	00 c0       	rjmp	.+0      	; 0xb56 <fuelle_getraenk+0x290>
     b56:	00 00       	nop
     b58:	0d c0       	rjmp	.+26     	; 0xb74 <fuelle_getraenk+0x2ae>
     b5a:	e0 92 2c 09 	sts	0x092C, r14	; 0x80092c <oldval.3215>
     b5e:	d2 cf       	rjmp	.-92     	; 0xb04 <fuelle_getraenk+0x23e>
     b60:	e0 92 2c 09 	sts	0x092C, r14	; 0x80092c <oldval.3215>
     b64:	cf cf       	rjmp	.-98     	; 0xb04 <fuelle_getraenk+0x23e>
     b66:	0e 94 4a 2b 	call	0x5694	; 0x5694 <proceed_Communication_INPUT_UART_1>
     b6a:	80 91 05 13 	lds	r24, 0x1305	; 0x801305 <stop>
     b6e:	81 30       	cpi	r24, 0x01	; 1
     b70:	b9 f7       	brne	.-18     	; 0xb60 <fuelle_getraenk+0x29a>
     b72:	99 cf       	rjmp	.-206    	; 0xaa6 <fuelle_getraenk+0x1e0>
     b74:	e4 96       	adiw	r28, 0x34	; 52
     b76:	0f b6       	in	r0, 0x3f	; 63
     b78:	f8 94       	cli
     b7a:	de bf       	out	0x3e, r29	; 62
     b7c:	0f be       	out	0x3f, r0	; 63
     b7e:	cd bf       	out	0x3d, r28	; 61
     b80:	df 91       	pop	r29
     b82:	cf 91       	pop	r28
     b84:	1f 91       	pop	r17
     b86:	0f 91       	pop	r16
     b88:	ff 90       	pop	r15
     b8a:	ef 90       	pop	r14
     b8c:	bf 90       	pop	r11
     b8e:	af 90       	pop	r10
     b90:	9f 90       	pop	r9
     b92:	8f 90       	pop	r8
     b94:	7f 90       	pop	r7
     b96:	6f 90       	pop	r6
     b98:	5f 90       	pop	r5
     b9a:	4f 90       	pop	r4
     b9c:	08 95       	ret

00000b9e <zubereitung_getraenk>:
     b9e:	cf 92       	push	r12
     ba0:	df 92       	push	r13
     ba2:	ef 92       	push	r14
     ba4:	ff 92       	push	r15
     ba6:	6b 01       	movw	r12, r22
     ba8:	7c 01       	movw	r14, r24
     baa:	85 e0       	ldi	r24, 0x05	; 5
     bac:	0e 94 fd 2b 	call	0x57fa	; 0x57fa <nextion_change_page>
     bb0:	62 ec       	ldi	r22, 0xC2	; 194
     bb2:	72 e0       	ldi	r23, 0x02	; 2
     bb4:	8b ee       	ldi	r24, 0xEB	; 235
     bb6:	92 e0       	ldi	r25, 0x02	; 2
     bb8:	0e 94 1c 2c 	call	0x5838	; 0x5838 <nextion_setText>
     bbc:	2f ef       	ldi	r18, 0xFF	; 255
     bbe:	83 ed       	ldi	r24, 0xD3	; 211
     bc0:	90 e3       	ldi	r25, 0x30	; 48
     bc2:	21 50       	subi	r18, 0x01	; 1
     bc4:	80 40       	sbci	r24, 0x00	; 0
     bc6:	90 40       	sbci	r25, 0x00	; 0
     bc8:	e1 f7       	brne	.-8      	; 0xbc2 <zubereitung_getraenk+0x24>
     bca:	00 c0       	rjmp	.+0      	; 0xbcc <zubereitung_getraenk+0x2e>
     bcc:	00 00       	nop
     bce:	c7 01       	movw	r24, r14
     bd0:	b6 01       	movw	r22, r12
     bd2:	79 de       	rcall	.-782    	; 0x8c6 <fuelle_getraenk>
     bd4:	86 e0       	ldi	r24, 0x06	; 6
     bd6:	0e 94 fd 2b 	call	0x57fa	; 0x57fa <nextion_change_page>
     bda:	2f ef       	ldi	r18, 0xFF	; 255
     bdc:	87 ea       	ldi	r24, 0xA7	; 167
     bde:	91 e6       	ldi	r25, 0x61	; 97
     be0:	21 50       	subi	r18, 0x01	; 1
     be2:	80 40       	sbci	r24, 0x00	; 0
     be4:	90 40       	sbci	r25, 0x00	; 0
     be6:	e1 f7       	brne	.-8      	; 0xbe0 <zubereitung_getraenk+0x42>
     be8:	00 c0       	rjmp	.+0      	; 0xbea <zubereitung_getraenk+0x4c>
     bea:	00 00       	nop
     bec:	81 e0       	ldi	r24, 0x01	; 1
     bee:	0e 94 fd 2b 	call	0x57fa	; 0x57fa <nextion_change_page>
     bf2:	80 91 0b 13 	lds	r24, 0x130B	; 0x80130b <aktuellesGetraenk>
     bf6:	90 91 0c 13 	lds	r25, 0x130C	; 0x80130c <aktuellesGetraenk+0x1>
     bfa:	0e de       	rcall	.-996    	; 0x818 <setze_startanzeige>
     bfc:	ff 90       	pop	r15
     bfe:	ef 90       	pop	r14
     c00:	df 90       	pop	r13
     c02:	cf 90       	pop	r12
     c04:	08 95       	ret

00000c06 <erstelle_Zutatenliste>:
     c06:	2f 92       	push	r2
     c08:	3f 92       	push	r3
     c0a:	4f 92       	push	r4
     c0c:	5f 92       	push	r5
     c0e:	6f 92       	push	r6
     c10:	7f 92       	push	r7
     c12:	8f 92       	push	r8
     c14:	9f 92       	push	r9
     c16:	af 92       	push	r10
     c18:	bf 92       	push	r11
     c1a:	cf 92       	push	r12
     c1c:	df 92       	push	r13
     c1e:	ef 92       	push	r14
     c20:	ff 92       	push	r15
     c22:	0f 93       	push	r16
     c24:	1f 93       	push	r17
     c26:	cf 93       	push	r28
     c28:	df 93       	push	r29
     c2a:	cd b7       	in	r28, 0x3d	; 61
     c2c:	de b7       	in	r29, 0x3e	; 62
     c2e:	ca 50       	subi	r28, 0x0A	; 10
     c30:	d2 40       	sbci	r29, 0x02	; 2
     c32:	0f b6       	in	r0, 0x3f	; 63
     c34:	f8 94       	cli
     c36:	de bf       	out	0x3e, r29	; 62
     c38:	0f be       	out	0x3f, r0	; 63
     c3a:	cd bf       	out	0x3d, r28	; 61
     c3c:	fe 01       	movw	r30, r28
     c3e:	31 96       	adiw	r30, 0x01	; 1
     c40:	8a e0       	ldi	r24, 0x0A	; 10
     c42:	df 01       	movw	r26, r30
     c44:	1d 92       	st	X+, r1
     c46:	8a 95       	dec	r24
     c48:	e9 f7       	brne	.-6      	; 0xc44 <erstelle_Zutatenliste+0x3e>
     c4a:	3a 96       	adiw	r30, 0x0a	; 10
     c4c:	80 e0       	ldi	r24, 0x00	; 0
     c4e:	92 e0       	ldi	r25, 0x02	; 2
     c50:	df 01       	movw	r26, r30
     c52:	9c 01       	movw	r18, r24
     c54:	1d 92       	st	X+, r1
     c56:	21 50       	subi	r18, 0x01	; 1
     c58:	30 40       	sbci	r19, 0x00	; 0
     c5a:	e1 f7       	brne	.-8      	; 0xc54 <erstelle_Zutatenliste+0x4e>
     c5c:	80 91 a7 0f 	lds	r24, 0x0FA7	; 0x800fa7 <tail_zut_in_Maschine>
     c60:	90 91 a8 0f 	lds	r25, 0x0FA8	; 0x800fa8 <tail_zut_in_Maschine+0x1>
     c64:	90 93 47 0a 	sts	0x0A47, r25	; 0x800a47 <aktuelleZutatInMaschine+0x1>
     c68:	80 93 46 0a 	sts	0x0A46, r24	; 0x800a46 <aktuelleZutatInMaschine>
     c6c:	00 e0       	ldi	r16, 0x00	; 0
     c6e:	10 e0       	ldi	r17, 0x00	; 0
     c70:	7f 01       	movw	r14, r30
     c72:	0f 2e       	mov	r0, r31
     c74:	f4 e1       	ldi	r31, 0x14	; 20
     c76:	af 2e       	mov	r10, r31
     c78:	b1 2c       	mov	r11, r1
     c7a:	f0 2d       	mov	r31, r0
     c7c:	0f 2e       	mov	r0, r31
     c7e:	fd e2       	ldi	r31, 0x2D	; 45
     c80:	8f 2e       	mov	r8, r31
     c82:	91 2c       	mov	r9, r1
     c84:	f0 2d       	mov	r31, r0
     c86:	0f 2e       	mov	r0, r31
     c88:	f8 e2       	ldi	r31, 0x28	; 40
     c8a:	2f 2e       	mov	r2, r31
     c8c:	31 2c       	mov	r3, r1
     c8e:	f0 2d       	mov	r31, r0
     c90:	60 90 0b 13 	lds	r6, 0x130B	; 0x80130b <aktuellesGetraenk>
     c94:	70 90 0c 13 	lds	r7, 0x130C	; 0x80130c <aktuellesGetraenk+0x1>
     c98:	28 01       	movw	r4, r16
     c9a:	d3 01       	movw	r26, r6
     c9c:	14 96       	adiw	r26, 0x04	; 4
     c9e:	ed 91       	ld	r30, X+
     ca0:	fc 91       	ld	r31, X
     ca2:	15 97       	sbiw	r26, 0x05	; 5
     ca4:	e0 0f       	add	r30, r16
     ca6:	f1 1f       	adc	r31, r17
     ca8:	80 81       	ld	r24, Z
     caa:	88 23       	and	r24, r24
     cac:	09 f4       	brne	.+2      	; 0xcb0 <erstelle_Zutatenliste+0xaa>
     cae:	4e c0       	rjmp	.+156    	; 0xd4c <erstelle_Zutatenliste+0x146>
     cb0:	c0 90 46 0a 	lds	r12, 0x0A46	; 0x800a46 <aktuelleZutatInMaschine>
     cb4:	d0 90 47 0a 	lds	r13, 0x0A47	; 0x800a47 <aktuelleZutatInMaschine+0x1>
     cb8:	f6 01       	movw	r30, r12
     cba:	60 81       	ld	r22, Z
     cbc:	71 81       	ldd	r23, Z+1	; 0x01
     cbe:	c7 01       	movw	r24, r14
     cc0:	0e 94 7c 48 	call	0x90f8	; 0x90f8 <strcat>
     cc4:	80 e0       	ldi	r24, 0x00	; 0
     cc6:	90 e0       	ldi	r25, 0x00	; 0
     cc8:	08 c0       	rjmp	.+16     	; 0xcda <erstelle_Zutatenliste+0xd4>
     cca:	f7 01       	movw	r30, r14
     ccc:	01 90       	ld	r0, Z+
     cce:	00 20       	and	r0, r0
     cd0:	e9 f7       	brne	.-6      	; 0xccc <erstelle_Zutatenliste+0xc6>
     cd2:	31 97       	sbiw	r30, 0x01	; 1
     cd4:	91 82       	std	Z+1, r9	; 0x01
     cd6:	80 82       	st	Z, r8
     cd8:	01 96       	adiw	r24, 0x01	; 1
     cda:	f6 01       	movw	r30, r12
     cdc:	a0 81       	ld	r26, Z
     cde:	b1 81       	ldd	r27, Z+1	; 0x01
     ce0:	fd 01       	movw	r30, r26
     ce2:	01 90       	ld	r0, Z+
     ce4:	00 20       	and	r0, r0
     ce6:	e9 f7       	brne	.-6      	; 0xce2 <erstelle_Zutatenliste+0xdc>
     ce8:	31 97       	sbiw	r30, 0x01	; 1
     cea:	ea 1b       	sub	r30, r26
     cec:	fb 0b       	sbc	r31, r27
     cee:	95 01       	movw	r18, r10
     cf0:	2e 1b       	sub	r18, r30
     cf2:	3f 0b       	sbc	r19, r31
     cf4:	82 17       	cp	r24, r18
     cf6:	93 07       	cpc	r25, r19
     cf8:	40 f3       	brcs	.-48     	; 0xcca <erstelle_Zutatenliste+0xc4>
     cfa:	f7 01       	movw	r30, r14
     cfc:	01 90       	ld	r0, Z+
     cfe:	00 20       	and	r0, r0
     d00:	e9 f7       	brne	.-6      	; 0xcfc <erstelle_Zutatenliste+0xf6>
     d02:	31 97       	sbiw	r30, 0x01	; 1
     d04:	31 82       	std	Z+1, r3	; 0x01
     d06:	20 82       	st	Z, r2
     d08:	d3 01       	movw	r26, r6
     d0a:	14 96       	adiw	r26, 0x04	; 4
     d0c:	8d 91       	ld	r24, X+
     d0e:	9c 91       	ld	r25, X
     d10:	15 97       	sbiw	r26, 0x05	; 5
     d12:	fc 01       	movw	r30, r24
     d14:	e4 0d       	add	r30, r4
     d16:	f5 1d       	adc	r31, r5
     d18:	80 81       	ld	r24, Z
     d1a:	4a e0       	ldi	r20, 0x0A	; 10
     d1c:	be 01       	movw	r22, r28
     d1e:	6f 5f       	subi	r22, 0xFF	; 255
     d20:	7f 4f       	sbci	r23, 0xFF	; 255
     d22:	90 e0       	ldi	r25, 0x00	; 0
     d24:	0e 94 be 48 	call	0x917c	; 0x917c <__itoa_ncheck>
     d28:	be 01       	movw	r22, r28
     d2a:	6f 5f       	subi	r22, 0xFF	; 255
     d2c:	7f 4f       	sbci	r23, 0xFF	; 255
     d2e:	c7 01       	movw	r24, r14
     d30:	0e 94 7c 48 	call	0x90f8	; 0x90f8 <strcat>
     d34:	d7 01       	movw	r26, r14
     d36:	0d 90       	ld	r0, X+
     d38:	00 20       	and	r0, r0
     d3a:	e9 f7       	brne	.-6      	; 0xd36 <erstelle_Zutatenliste+0x130>
     d3c:	11 97       	sbiw	r26, 0x01	; 1
     d3e:	85 e0       	ldi	r24, 0x05	; 5
     d40:	e6 ef       	ldi	r30, 0xF6	; 246
     d42:	f2 e0       	ldi	r31, 0x02	; 2
     d44:	01 90       	ld	r0, Z+
     d46:	0d 92       	st	X+, r0
     d48:	8a 95       	dec	r24
     d4a:	e1 f7       	brne	.-8      	; 0xd44 <erstelle_Zutatenliste+0x13e>
     d4c:	e0 91 46 0a 	lds	r30, 0x0A46	; 0x800a46 <aktuelleZutatInMaschine>
     d50:	f0 91 47 0a 	lds	r31, 0x0A47	; 0x800a47 <aktuelleZutatInMaschine+0x1>
     d54:	84 85       	ldd	r24, Z+12	; 0x0c
     d56:	95 85       	ldd	r25, Z+13	; 0x0d
     d58:	90 93 47 0a 	sts	0x0A47, r25	; 0x800a47 <aktuelleZutatInMaschine+0x1>
     d5c:	80 93 46 0a 	sts	0x0A46, r24	; 0x800a46 <aktuelleZutatInMaschine>
     d60:	0f 5f       	subi	r16, 0xFF	; 255
     d62:	1f 4f       	sbci	r17, 0xFF	; 255
     d64:	0c 30       	cpi	r16, 0x0C	; 12
     d66:	11 05       	cpc	r17, r1
     d68:	09 f0       	breq	.+2      	; 0xd6c <erstelle_Zutatenliste+0x166>
     d6a:	92 cf       	rjmp	.-220    	; 0xc90 <erstelle_Zutatenliste+0x8a>
     d6c:	be 01       	movw	r22, r28
     d6e:	65 5f       	subi	r22, 0xF5	; 245
     d70:	7f 4f       	sbci	r23, 0xFF	; 255
     d72:	8b ef       	ldi	r24, 0xFB	; 251
     d74:	92 e0       	ldi	r25, 0x02	; 2
     d76:	0e 94 1c 2c 	call	0x5838	; 0x5838 <nextion_setText>
     d7a:	c6 5f       	subi	r28, 0xF6	; 246
     d7c:	dd 4f       	sbci	r29, 0xFD	; 253
     d7e:	0f b6       	in	r0, 0x3f	; 63
     d80:	f8 94       	cli
     d82:	de bf       	out	0x3e, r29	; 62
     d84:	0f be       	out	0x3f, r0	; 63
     d86:	cd bf       	out	0x3d, r28	; 61
     d88:	df 91       	pop	r29
     d8a:	cf 91       	pop	r28
     d8c:	1f 91       	pop	r17
     d8e:	0f 91       	pop	r16
     d90:	ff 90       	pop	r15
     d92:	ef 90       	pop	r14
     d94:	df 90       	pop	r13
     d96:	cf 90       	pop	r12
     d98:	bf 90       	pop	r11
     d9a:	af 90       	pop	r10
     d9c:	9f 90       	pop	r9
     d9e:	8f 90       	pop	r8
     da0:	7f 90       	pop	r7
     da2:	6f 90       	pop	r6
     da4:	5f 90       	pop	r5
     da6:	4f 90       	pop	r4
     da8:	3f 90       	pop	r3
     daa:	2f 90       	pop	r2
     dac:	08 95       	ret

00000dae <lese_textfile_in_getraenk>:
     dae:	af 92       	push	r10
     db0:	bf 92       	push	r11
     db2:	cf 92       	push	r12
     db4:	df 92       	push	r13
     db6:	ef 92       	push	r14
     db8:	ff 92       	push	r15
     dba:	0f 93       	push	r16
     dbc:	1f 93       	push	r17
     dbe:	cf 93       	push	r28
     dc0:	df 93       	push	r29
     dc2:	cd b7       	in	r28, 0x3d	; 61
     dc4:	de b7       	in	r29, 0x3e	; 62
     dc6:	e6 97       	sbiw	r28, 0x36	; 54
     dc8:	0f b6       	in	r0, 0x3f	; 63
     dca:	f8 94       	cli
     dcc:	de bf       	out	0x3e, r29	; 62
     dce:	0f be       	out	0x3f, r0	; 63
     dd0:	cd bf       	out	0x3d, r28	; 61
     dd2:	4a e0       	ldi	r20, 0x0A	; 10
     dd4:	8e 01       	movw	r16, r28
     dd6:	0f 5f       	subi	r16, 0xFF	; 255
     dd8:	1f 4f       	sbci	r17, 0xFF	; 255
     dda:	b8 01       	movw	r22, r16
     ddc:	90 e0       	ldi	r25, 0x00	; 0
     dde:	0e 94 be 48 	call	0x917c	; 0x917c <__itoa_ncheck>
     de2:	d8 01       	movw	r26, r16
     de4:	0d 90       	ld	r0, X+
     de6:	00 20       	and	r0, r0
     de8:	e9 f7       	brne	.-6      	; 0xde4 <lese_textfile_in_getraenk+0x36>
     dea:	11 97       	sbiw	r26, 0x01	; 1
     dec:	85 e0       	ldi	r24, 0x05	; 5
     dee:	e0 ee       	ldi	r30, 0xE0	; 224
     df0:	f4 e0       	ldi	r31, 0x04	; 4
     df2:	01 90       	ld	r0, Z+
     df4:	0d 92       	st	X+, r0
     df6:	8a 95       	dec	r24
     df8:	e1 f7       	brne	.-8      	; 0xdf2 <lese_textfile_in_getraenk+0x44>
     dfa:	b8 01       	movw	r22, r16
     dfc:	80 e0       	ldi	r24, 0x00	; 0
     dfe:	0e 94 52 33 	call	0x66a4	; 0x66a4 <readFile>
     e02:	8a e3       	ldi	r24, 0x3A	; 58
     e04:	9d e0       	ldi	r25, 0x0D	; 13
     e06:	9c ab       	std	Y+52, r25	; 0x34
     e08:	8b ab       	std	Y+51, r24	; 0x33
     e0a:	8a e0       	ldi	r24, 0x0A	; 10
     e0c:	90 e0       	ldi	r25, 0x00	; 0
     e0e:	9e ab       	std	Y+54, r25	; 0x36
     e10:	8d ab       	std	Y+53, r24	; 0x35
     e12:	be 01       	movw	r22, r28
     e14:	6d 5c       	subi	r22, 0xCD	; 205
     e16:	7f 4f       	sbci	r23, 0xFF	; 255
     e18:	84 e9       	ldi	r24, 0x94	; 148
     e1a:	9c e0       	ldi	r25, 0x0C	; 12
     e1c:	0e 94 72 48 	call	0x90e4	; 0x90e4 <strtok>
     e20:	8c 01       	movw	r16, r24
     e22:	89 2b       	or	r24, r25
     e24:	09 f4       	brne	.+2      	; 0xe28 <lese_textfile_in_getraenk+0x7a>
     e26:	f1 c0       	rjmp	.+482    	; 0x100a <lese_textfile_in_getraenk+0x25c>
     e28:	7e 01       	movw	r14, r28
     e2a:	83 e3       	ldi	r24, 0x33	; 51
     e2c:	e8 0e       	add	r14, r24
     e2e:	f1 1c       	adc	r15, r1
     e30:	68 e0       	ldi	r22, 0x08	; 8
     e32:	73 e0       	ldi	r23, 0x03	; 3
     e34:	c8 01       	movw	r24, r16
     e36:	0e 94 87 48 	call	0x910e	; 0x910e <strcmp>
     e3a:	89 2b       	or	r24, r25
     e3c:	79 f4       	brne	.+30     	; 0xe5c <lese_textfile_in_getraenk+0xae>
     e3e:	b7 01       	movw	r22, r14
     e40:	80 e0       	ldi	r24, 0x00	; 0
     e42:	90 e0       	ldi	r25, 0x00	; 0
     e44:	0e 94 72 48 	call	0x90e4	; 0x90e4 <strtok>
     e48:	8c 01       	movw	r16, r24
     e4a:	e0 91 0b 13 	lds	r30, 0x130B	; 0x80130b <aktuellesGetraenk>
     e4e:	f0 91 0c 13 	lds	r31, 0x130C	; 0x80130c <aktuellesGetraenk+0x1>
     e52:	bc 01       	movw	r22, r24
     e54:	80 81       	ld	r24, Z
     e56:	91 81       	ldd	r25, Z+1	; 0x01
     e58:	0e 94 90 48 	call	0x9120	; 0x9120 <strcpy>
     e5c:	6d e0       	ldi	r22, 0x0D	; 13
     e5e:	73 e0       	ldi	r23, 0x03	; 3
     e60:	c8 01       	movw	r24, r16
     e62:	0e 94 87 48 	call	0x910e	; 0x910e <strcmp>
     e66:	89 2b       	or	r24, r25
     e68:	09 f0       	breq	.+2      	; 0xe6c <lese_textfile_in_getraenk+0xbe>
     e6a:	88 c0       	rjmp	.+272    	; 0xf7c <lese_textfile_in_getraenk+0x1ce>
     e6c:	b7 01       	movw	r22, r14
     e6e:	80 e0       	ldi	r24, 0x00	; 0
     e70:	90 e0       	ldi	r25, 0x00	; 0
     e72:	0e 94 72 48 	call	0x90e4	; 0x90e4 <strtok>
     e76:	8c 01       	movw	r16, r24
     e78:	80 91 a7 0f 	lds	r24, 0x0FA7	; 0x800fa7 <tail_zut_in_Maschine>
     e7c:	90 91 a8 0f 	lds	r25, 0x0FA8	; 0x800fa8 <tail_zut_in_Maschine+0x1>
     e80:	90 93 47 0a 	sts	0x0A47, r25	; 0x800a47 <aktuelleZutatInMaschine+0x1>
     e84:	80 93 46 0a 	sts	0x0A46, r24	; 0x800a46 <aktuelleZutatInMaschine>
     e88:	e0 91 0b 13 	lds	r30, 0x130B	; 0x80130b <aktuellesGetraenk>
     e8c:	f0 91 0c 13 	lds	r31, 0x130C	; 0x80130c <aktuellesGetraenk+0x1>
     e90:	a0 91 46 0a 	lds	r26, 0x0A46	; 0x800a46 <aktuelleZutatInMaschine>
     e94:	b0 91 47 0a 	lds	r27, 0x0A47	; 0x800a47 <aktuelleZutatInMaschine+0x1>
     e98:	15 96       	adiw	r26, 0x05	; 5
     e9a:	8c 91       	ld	r24, X
     e9c:	04 80       	ldd	r0, Z+4	; 0x04
     e9e:	f5 81       	ldd	r31, Z+5	; 0x05
     ea0:	e0 2d       	mov	r30, r0
     ea2:	e8 0f       	add	r30, r24
     ea4:	f1 1d       	adc	r31, r1
     ea6:	10 82       	st	Z, r1
     ea8:	e0 91 46 0a 	lds	r30, 0x0A46	; 0x800a46 <aktuelleZutatInMaschine>
     eac:	f0 91 47 0a 	lds	r31, 0x0A47	; 0x800a47 <aktuelleZutatInMaschine+0x1>
     eb0:	84 85       	ldd	r24, Z+12	; 0x0c
     eb2:	95 85       	ldd	r25, Z+13	; 0x0d
     eb4:	90 93 47 0a 	sts	0x0A47, r25	; 0x800a47 <aktuelleZutatInMaschine+0x1>
     eb8:	80 93 46 0a 	sts	0x0A46, r24	; 0x800a46 <aktuelleZutatInMaschine>
     ebc:	20 91 a7 0f 	lds	r18, 0x0FA7	; 0x800fa7 <tail_zut_in_Maschine>
     ec0:	30 91 a8 0f 	lds	r19, 0x0FA8	; 0x800fa8 <tail_zut_in_Maschine+0x1>
     ec4:	82 17       	cp	r24, r18
     ec6:	93 07       	cpc	r25, r19
     ec8:	f9 f6       	brne	.-66     	; 0xe88 <lese_textfile_in_getraenk+0xda>
     eca:	f8 01       	movw	r30, r16
     ecc:	80 81       	ld	r24, Z
     ece:	8b 33       	cpi	r24, 0x3B	; 59
     ed0:	09 f4       	brne	.+2      	; 0xed4 <lese_textfile_in_getraenk+0x126>
     ed2:	54 c0       	rjmp	.+168    	; 0xf7c <lese_textfile_in_getraenk+0x1ce>
     ed4:	ce 2c       	mov	r12, r14
     ed6:	df 2c       	mov	r13, r15
     ed8:	80 91 a7 0f 	lds	r24, 0x0FA7	; 0x800fa7 <tail_zut_in_Maschine>
     edc:	90 91 a8 0f 	lds	r25, 0x0FA8	; 0x800fa8 <tail_zut_in_Maschine+0x1>
     ee0:	90 93 47 0a 	sts	0x0A47, r25	; 0x800a47 <aktuelleZutatInMaschine+0x1>
     ee4:	80 93 46 0a 	sts	0x0A46, r24	; 0x800a46 <aktuelleZutatInMaschine>
     ee8:	e0 91 46 0a 	lds	r30, 0x0A46	; 0x800a46 <aktuelleZutatInMaschine>
     eec:	f0 91 47 0a 	lds	r31, 0x0A47	; 0x800a47 <aktuelleZutatInMaschine+0x1>
     ef0:	60 81       	ld	r22, Z
     ef2:	71 81       	ldd	r23, Z+1	; 0x01
     ef4:	c8 01       	movw	r24, r16
     ef6:	0e 94 87 48 	call	0x910e	; 0x910e <strcmp>
     efa:	89 2b       	or	r24, r25
     efc:	11 f5       	brne	.+68     	; 0xf42 <lese_textfile_in_getraenk+0x194>
     efe:	6c 2d       	mov	r22, r12
     f00:	7d 2d       	mov	r23, r13
     f02:	80 e0       	ldi	r24, 0x00	; 0
     f04:	90 e0       	ldi	r25, 0x00	; 0
     f06:	0e 94 72 48 	call	0x90e4	; 0x90e4 <strtok>
     f0a:	8c 01       	movw	r16, r24
     f0c:	e0 91 0b 13 	lds	r30, 0x130B	; 0x80130b <aktuellesGetraenk>
     f10:	f0 91 0c 13 	lds	r31, 0x130C	; 0x80130c <aktuellesGetraenk+0x1>
     f14:	a0 91 46 0a 	lds	r26, 0x0A46	; 0x800a46 <aktuelleZutatInMaschine>
     f18:	b0 91 47 0a 	lds	r27, 0x0A47	; 0x800a47 <aktuelleZutatInMaschine+0x1>
     f1c:	15 96       	adiw	r26, 0x05	; 5
     f1e:	8c 91       	ld	r24, X
     f20:	a4 80       	ldd	r10, Z+4	; 0x04
     f22:	b5 80       	ldd	r11, Z+5	; 0x05
     f24:	a8 0e       	add	r10, r24
     f26:	b1 1c       	adc	r11, r1
     f28:	c8 01       	movw	r24, r16
     f2a:	0e 94 55 48 	call	0x90aa	; 0x90aa <atoi>
     f2e:	f5 01       	movw	r30, r10
     f30:	80 83       	st	Z, r24
     f32:	80 91 a7 0f 	lds	r24, 0x0FA7	; 0x800fa7 <tail_zut_in_Maschine>
     f36:	90 91 a8 0f 	lds	r25, 0x0FA8	; 0x800fa8 <tail_zut_in_Maschine+0x1>
     f3a:	90 93 47 0a 	sts	0x0A47, r25	; 0x800a47 <aktuelleZutatInMaschine+0x1>
     f3e:	80 93 46 0a 	sts	0x0A46, r24	; 0x800a46 <aktuelleZutatInMaschine>
     f42:	e0 91 46 0a 	lds	r30, 0x0A46	; 0x800a46 <aktuelleZutatInMaschine>
     f46:	f0 91 47 0a 	lds	r31, 0x0A47	; 0x800a47 <aktuelleZutatInMaschine+0x1>
     f4a:	84 85       	ldd	r24, Z+12	; 0x0c
     f4c:	95 85       	ldd	r25, Z+13	; 0x0d
     f4e:	90 93 47 0a 	sts	0x0A47, r25	; 0x800a47 <aktuelleZutatInMaschine+0x1>
     f52:	80 93 46 0a 	sts	0x0A46, r24	; 0x800a46 <aktuelleZutatInMaschine>
     f56:	20 91 a7 0f 	lds	r18, 0x0FA7	; 0x800fa7 <tail_zut_in_Maschine>
     f5a:	30 91 a8 0f 	lds	r19, 0x0FA8	; 0x800fa8 <tail_zut_in_Maschine+0x1>
     f5e:	82 17       	cp	r24, r18
     f60:	93 07       	cpc	r25, r19
     f62:	11 f6       	brne	.-124    	; 0xee8 <lese_textfile_in_getraenk+0x13a>
     f64:	6c 2d       	mov	r22, r12
     f66:	7d 2d       	mov	r23, r13
     f68:	80 e0       	ldi	r24, 0x00	; 0
     f6a:	90 e0       	ldi	r25, 0x00	; 0
     f6c:	0e 94 72 48 	call	0x90e4	; 0x90e4 <strtok>
     f70:	8c 01       	movw	r16, r24
     f72:	fc 01       	movw	r30, r24
     f74:	80 81       	ld	r24, Z
     f76:	8b 33       	cpi	r24, 0x3B	; 59
     f78:	09 f0       	breq	.+2      	; 0xf7c <lese_textfile_in_getraenk+0x1ce>
     f7a:	ae cf       	rjmp	.-164    	; 0xed8 <lese_textfile_in_getraenk+0x12a>
     f7c:	64 e1       	ldi	r22, 0x14	; 20
     f7e:	73 e0       	ldi	r23, 0x03	; 3
     f80:	c8 01       	movw	r24, r16
     f82:	0e 94 87 48 	call	0x910e	; 0x910e <strcmp>
     f86:	89 2b       	or	r24, r25
     f88:	71 f4       	brne	.+28     	; 0xfa6 <lese_textfile_in_getraenk+0x1f8>
     f8a:	b7 01       	movw	r22, r14
     f8c:	80 e0       	ldi	r24, 0x00	; 0
     f8e:	90 e0       	ldi	r25, 0x00	; 0
     f90:	0e 94 72 48 	call	0x90e4	; 0x90e4 <strtok>
     f94:	8c 01       	movw	r16, r24
     f96:	c0 90 0b 13 	lds	r12, 0x130B	; 0x80130b <aktuellesGetraenk>
     f9a:	d0 90 0c 13 	lds	r13, 0x130C	; 0x80130c <aktuellesGetraenk+0x1>
     f9e:	0e 94 55 48 	call	0x90aa	; 0x90aa <atoi>
     fa2:	f6 01       	movw	r30, r12
     fa4:	82 83       	std	Z+2, r24	; 0x02
     fa6:	6c e1       	ldi	r22, 0x1C	; 28
     fa8:	73 e0       	ldi	r23, 0x03	; 3
     faa:	c8 01       	movw	r24, r16
     fac:	0e 94 87 48 	call	0x910e	; 0x910e <strcmp>
     fb0:	89 2b       	or	r24, r25
     fb2:	71 f4       	brne	.+28     	; 0xfd0 <lese_textfile_in_getraenk+0x222>
     fb4:	b7 01       	movw	r22, r14
     fb6:	80 e0       	ldi	r24, 0x00	; 0
     fb8:	90 e0       	ldi	r25, 0x00	; 0
     fba:	0e 94 72 48 	call	0x90e4	; 0x90e4 <strtok>
     fbe:	8c 01       	movw	r16, r24
     fc0:	c0 90 0b 13 	lds	r12, 0x130B	; 0x80130b <aktuellesGetraenk>
     fc4:	d0 90 0c 13 	lds	r13, 0x130C	; 0x80130c <aktuellesGetraenk+0x1>
     fc8:	0e 94 55 48 	call	0x90aa	; 0x90aa <atoi>
     fcc:	f6 01       	movw	r30, r12
     fce:	83 83       	std	Z+3, r24	; 0x03
     fd0:	69 e2       	ldi	r22, 0x29	; 41
     fd2:	73 e0       	ldi	r23, 0x03	; 3
     fd4:	c8 01       	movw	r24, r16
     fd6:	0e 94 87 48 	call	0x910e	; 0x910e <strcmp>
     fda:	89 2b       	or	r24, r25
     fdc:	69 f4       	brne	.+26     	; 0xff8 <lese_textfile_in_getraenk+0x24a>
     fde:	b7 01       	movw	r22, r14
     fe0:	80 e0       	ldi	r24, 0x00	; 0
     fe2:	90 e0       	ldi	r25, 0x00	; 0
     fe4:	0e 94 72 48 	call	0x90e4	; 0x90e4 <strtok>
     fe8:	00 91 0b 13 	lds	r16, 0x130B	; 0x80130b <aktuellesGetraenk>
     fec:	10 91 0c 13 	lds	r17, 0x130C	; 0x80130c <aktuellesGetraenk+0x1>
     ff0:	0e 94 55 48 	call	0x90aa	; 0x90aa <atoi>
     ff4:	f8 01       	movw	r30, r16
     ff6:	86 83       	std	Z+6, r24	; 0x06
     ff8:	b7 01       	movw	r22, r14
     ffa:	80 e0       	ldi	r24, 0x00	; 0
     ffc:	90 e0       	ldi	r25, 0x00	; 0
     ffe:	0e 94 72 48 	call	0x90e4	; 0x90e4 <strtok>
    1002:	8c 01       	movw	r16, r24
    1004:	89 2b       	or	r24, r25
    1006:	09 f0       	breq	.+2      	; 0x100a <lese_textfile_in_getraenk+0x25c>
    1008:	13 cf       	rjmp	.-474    	; 0xe30 <lese_textfile_in_getraenk+0x82>
    100a:	e6 96       	adiw	r28, 0x36	; 54
    100c:	0f b6       	in	r0, 0x3f	; 63
    100e:	f8 94       	cli
    1010:	de bf       	out	0x3e, r29	; 62
    1012:	0f be       	out	0x3f, r0	; 63
    1014:	cd bf       	out	0x3d, r28	; 61
    1016:	df 91       	pop	r29
    1018:	cf 91       	pop	r28
    101a:	1f 91       	pop	r17
    101c:	0f 91       	pop	r16
    101e:	ff 90       	pop	r15
    1020:	ef 90       	pop	r14
    1022:	df 90       	pop	r13
    1024:	cf 90       	pop	r12
    1026:	bf 90       	pop	r11
    1028:	af 90       	pop	r10
    102a:	08 95       	ret

0000102c <choose_aktuellesGetraenk>:
    102c:	e0 91 37 0a 	lds	r30, 0x0A37	; 0x800a37 <tail_getraenk_file>
    1030:	f0 91 38 0a 	lds	r31, 0x0A38	; 0x800a38 <tail_getraenk_file+0x1>
    1034:	f0 93 78 0a 	sts	0x0A78, r31	; 0x800a78 <aktuellesGetraenk_file+0x1>
    1038:	e0 93 77 0a 	sts	0x0A77, r30	; 0x800a77 <aktuellesGetraenk_file>
    103c:	20 91 d1 12 	lds	r18, 0x12D1	; 0x8012d1 <i_Liste>
    1040:	90 e0       	ldi	r25, 0x00	; 0
    1042:	82 0f       	add	r24, r18
    1044:	91 1d       	adc	r25, r1
    1046:	18 16       	cp	r1, r24
    1048:	19 06       	cpc	r1, r25
    104a:	74 f4       	brge	.+28     	; 0x1068 <choose_aktuellesGetraenk+0x3c>
    104c:	20 e0       	ldi	r18, 0x00	; 0
    104e:	30 e0       	ldi	r19, 0x00	; 0
    1050:	03 80       	ldd	r0, Z+3	; 0x03
    1052:	f4 81       	ldd	r31, Z+4	; 0x04
    1054:	e0 2d       	mov	r30, r0
    1056:	2f 5f       	subi	r18, 0xFF	; 255
    1058:	3f 4f       	sbci	r19, 0xFF	; 255
    105a:	28 17       	cp	r18, r24
    105c:	39 07       	cpc	r19, r25
    105e:	c1 f7       	brne	.-16     	; 0x1050 <choose_aktuellesGetraenk+0x24>
    1060:	f0 93 78 0a 	sts	0x0A78, r31	; 0x800a78 <aktuellesGetraenk_file+0x1>
    1064:	e0 93 77 0a 	sts	0x0A77, r30	; 0x800a77 <aktuellesGetraenk_file>
    1068:	e0 91 77 0a 	lds	r30, 0x0A77	; 0x800a77 <aktuellesGetraenk_file>
    106c:	f0 91 78 0a 	lds	r31, 0x0A78	; 0x800a78 <aktuellesGetraenk_file+0x1>
    1070:	80 81       	ld	r24, Z
    1072:	9d de       	rcall	.-710    	; 0xdae <lese_textfile_in_getraenk>
    1074:	e0 91 0b 13 	lds	r30, 0x130B	; 0x80130b <aktuellesGetraenk>
    1078:	f0 91 0c 13 	lds	r31, 0x130C	; 0x80130c <aktuellesGetraenk+0x1>
    107c:	80 81       	ld	r24, Z
    107e:	91 81       	ldd	r25, Z+1	; 0x01
    1080:	0e 94 51 41 	call	0x82a2	; 0x82a2 <Uart_Transmit_IT_PC>
    1084:	88 e2       	ldi	r24, 0x28	; 40
    1086:	97 e0       	ldi	r25, 0x07	; 7
    1088:	0e 94 51 41 	call	0x82a2	; 0x82a2 <Uart_Transmit_IT_PC>
    108c:	10 92 9b 0e 	sts	0x0E9B, r1	; 0x800e9b <block_list_hoch>
    1090:	10 92 80 0a 	sts	0x0A80, r1	; 0x800a80 <block_list_runter>
    1094:	10 92 d1 12 	sts	0x12D1, r1	; 0x8012d1 <i_Liste>
    1098:	08 95       	ret

0000109a <bearbeite_Cocktail>:
    109a:	c8 df       	rcall	.-112    	; 0x102c <choose_aktuellesGetraenk>
    109c:	89 e0       	ldi	r24, 0x09	; 9
    109e:	0e 94 fd 2b 	call	0x57fa	; 0x57fa <nextion_change_page>
    10a2:	8e e2       	ldi	r24, 0x2E	; 46
    10a4:	93 e0       	ldi	r25, 0x03	; 3
    10a6:	8b da       	rcall	.-2794   	; 0x5be <erstelle_Liste_zutat>
    10a8:	10 92 d1 12 	sts	0x12D1, r1	; 0x8012d1 <i_Liste>
    10ac:	08 95       	ret

000010ae <erstelle_Liste_name>:
    10ae:	df 92       	push	r13
    10b0:	ef 92       	push	r14
    10b2:	ff 92       	push	r15
    10b4:	0f 93       	push	r16
    10b6:	1f 93       	push	r17
    10b8:	cf 93       	push	r28
    10ba:	df 93       	push	r29
    10bc:	cd b7       	in	r28, 0x3d	; 61
    10be:	de b7       	in	r29, 0x3e	; 62
    10c0:	ad 97       	sbiw	r28, 0x2d	; 45
    10c2:	0f b6       	in	r0, 0x3f	; 63
    10c4:	f8 94       	cli
    10c6:	de bf       	out	0x3e, r29	; 62
    10c8:	0f be       	out	0x3f, r0	; 63
    10ca:	cd bf       	out	0x3d, r28	; 61
    10cc:	7c 01       	movw	r14, r24
    10ce:	e0 91 37 0a 	lds	r30, 0x0A37	; 0x800a37 <tail_getraenk_file>
    10d2:	f0 91 38 0a 	lds	r31, 0x0A38	; 0x800a38 <tail_getraenk_file+0x1>
    10d6:	f0 93 78 0a 	sts	0x0A78, r31	; 0x800a78 <aktuellesGetraenk_file+0x1>
    10da:	e0 93 77 0a 	sts	0x0A77, r30	; 0x800a77 <aktuellesGetraenk_file>
    10de:	20 91 d1 12 	lds	r18, 0x12D1	; 0x8012d1 <i_Liste>
    10e2:	30 e0       	ldi	r19, 0x00	; 0
    10e4:	12 16       	cp	r1, r18
    10e6:	13 06       	cpc	r1, r19
    10e8:	6c f4       	brge	.+26     	; 0x1104 <erstelle_Liste_name+0x56>
    10ea:	80 e0       	ldi	r24, 0x00	; 0
    10ec:	90 e0       	ldi	r25, 0x00	; 0
    10ee:	03 80       	ldd	r0, Z+3	; 0x03
    10f0:	f4 81       	ldd	r31, Z+4	; 0x04
    10f2:	e0 2d       	mov	r30, r0
    10f4:	01 96       	adiw	r24, 0x01	; 1
    10f6:	82 17       	cp	r24, r18
    10f8:	93 07       	cpc	r25, r19
    10fa:	c9 f7       	brne	.-14     	; 0x10ee <erstelle_Liste_name+0x40>
    10fc:	f0 93 78 0a 	sts	0x0A78, r31	; 0x800a78 <aktuellesGetraenk_file+0x1>
    1100:	e0 93 77 0a 	sts	0x0A77, r30	; 0x800a77 <aktuellesGetraenk_file>
    1104:	fe 01       	movw	r30, r28
    1106:	31 96       	adiw	r30, 0x01	; 1
    1108:	85 e1       	ldi	r24, 0x15	; 21
    110a:	df 01       	movw	r26, r30
    110c:	1d 92       	st	X+, r1
    110e:	8a 95       	dec	r24
    1110:	e9 f7       	brne	.-6      	; 0x110c <erstelle_Liste_name+0x5e>
    1112:	1e 8a       	std	Y+22, r1	; 0x16
    1114:	1f 8a       	std	Y+23, r1	; 0x17
    1116:	18 8e       	std	Y+24, r1	; 0x18
    1118:	19 8e       	std	Y+25, r1	; 0x19
    111a:	8e 01       	movw	r16, r28
    111c:	06 5e       	subi	r16, 0xE6	; 230
    111e:	1f 4f       	sbci	r17, 0xFF	; 255
    1120:	84 e1       	ldi	r24, 0x14	; 20
    1122:	f8 01       	movw	r30, r16
    1124:	11 92       	st	Z+, r1
    1126:	8a 95       	dec	r24
    1128:	e9 f7       	brne	.-6      	; 0x1124 <erstelle_Liste_name+0x76>
    112a:	b7 01       	movw	r22, r14
    112c:	c8 01       	movw	r24, r16
    112e:	0e 94 7c 48 	call	0x90f8	; 0x90f8 <strcat>
    1132:	80 91 8d 0b 	lds	r24, 0x0B8D	; 0x800b8d <i>
    1136:	90 91 8e 0b 	lds	r25, 0x0B8E	; 0x800b8e <i+0x1>
    113a:	4a e0       	ldi	r20, 0x0A	; 10
    113c:	be 01       	movw	r22, r28
    113e:	6a 5e       	subi	r22, 0xEA	; 234
    1140:	7f 4f       	sbci	r23, 0xFF	; 255
    1142:	01 96       	adiw	r24, 0x01	; 1
    1144:	0e 94 be 48 	call	0x917c	; 0x917c <__itoa_ncheck>
    1148:	be 01       	movw	r22, r28
    114a:	6a 5e       	subi	r22, 0xEA	; 234
    114c:	7f 4f       	sbci	r23, 0xFF	; 255
    114e:	c8 01       	movw	r24, r16
    1150:	0e 94 7c 48 	call	0x90f8	; 0x90f8 <strcat>
    1154:	c8 01       	movw	r24, r16
    1156:	0e 94 fe 2c 	call	0x59fc	; 0x59fc <nextion_enableButton>
    115a:	00 e0       	ldi	r16, 0x00	; 0
    115c:	10 e0       	ldi	r17, 0x00	; 0
    115e:	dd 24       	eor	r13, r13
    1160:	d3 94       	inc	r13
    1162:	0f 5f       	subi	r16, 0xFF	; 255
    1164:	1f 4f       	sbci	r17, 0xFF	; 255
    1166:	4a e0       	ldi	r20, 0x0A	; 10
    1168:	be 01       	movw	r22, r28
    116a:	6a 5e       	subi	r22, 0xEA	; 234
    116c:	7f 4f       	sbci	r23, 0xFF	; 255
    116e:	c8 01       	movw	r24, r16
    1170:	0e 94 be 48 	call	0x917c	; 0x917c <__itoa_ncheck>
    1174:	b7 01       	movw	r22, r14
    1176:	ce 01       	movw	r24, r28
    1178:	01 96       	adiw	r24, 0x01	; 1
    117a:	0e 94 90 48 	call	0x9120	; 0x9120 <strcpy>
    117e:	be 01       	movw	r22, r28
    1180:	6a 5e       	subi	r22, 0xEA	; 234
    1182:	7f 4f       	sbci	r23, 0xFF	; 255
    1184:	ce 01       	movw	r24, r28
    1186:	01 96       	adiw	r24, 0x01	; 1
    1188:	0e 94 7c 48 	call	0x90f8	; 0x90f8 <strcat>
    118c:	e0 91 77 0a 	lds	r30, 0x0A77	; 0x800a77 <aktuellesGetraenk_file>
    1190:	f0 91 78 0a 	lds	r31, 0x0A78	; 0x800a78 <aktuellesGetraenk_file+0x1>
    1194:	80 91 79 0a 	lds	r24, 0x0A79	; 0x800a79 <head_getraenk_file>
    1198:	90 91 7a 0a 	lds	r25, 0x0A7A	; 0x800a7a <head_getraenk_file+0x1>
    119c:	e8 17       	cp	r30, r24
    119e:	f9 07       	cpc	r31, r25
    11a0:	99 f4       	brne	.+38     	; 0x11c8 <erstelle_Liste_name+0x11a>
    11a2:	80 91 80 0a 	lds	r24, 0x0A80	; 0x800a80 <block_list_runter>
    11a6:	81 11       	cpse	r24, r1
    11a8:	13 c0       	rjmp	.+38     	; 0x11d0 <erstelle_Liste_name+0x122>
    11aa:	d0 92 80 0a 	sts	0x0A80, r13	; 0x800a80 <block_list_runter>
    11ae:	80 81       	ld	r24, Z
    11b0:	fe dd       	rcall	.-1028   	; 0xdae <lese_textfile_in_getraenk>
    11b2:	e0 91 0b 13 	lds	r30, 0x130B	; 0x80130b <aktuellesGetraenk>
    11b6:	f0 91 0c 13 	lds	r31, 0x130C	; 0x80130c <aktuellesGetraenk+0x1>
    11ba:	60 81       	ld	r22, Z
    11bc:	71 81       	ldd	r23, Z+1	; 0x01
    11be:	ce 01       	movw	r24, r28
    11c0:	01 96       	adiw	r24, 0x01	; 1
    11c2:	0e 94 1c 2c 	call	0x5838	; 0x5838 <nextion_setText>
    11c6:	34 c0       	rjmp	.+104    	; 0x1230 <erstelle_Liste_name+0x182>
    11c8:	80 91 80 0a 	lds	r24, 0x0A80	; 0x800a80 <block_list_runter>
    11cc:	88 23       	and	r24, r24
    11ce:	21 f1       	breq	.+72     	; 0x1218 <erstelle_Liste_name+0x16a>
    11d0:	6c e8       	ldi	r22, 0x8C	; 140
    11d2:	74 e0       	ldi	r23, 0x04	; 4
    11d4:	ce 01       	movw	r24, r28
    11d6:	01 96       	adiw	r24, 0x01	; 1
    11d8:	0e 94 1c 2c 	call	0x5838	; 0x5838 <nextion_setText>
    11dc:	8f e3       	ldi	r24, 0x3F	; 63
    11de:	9c e9       	ldi	r25, 0x9C	; 156
    11e0:	01 97       	sbiw	r24, 0x01	; 1
    11e2:	f1 f7       	brne	.-4      	; 0x11e0 <erstelle_Liste_name+0x132>
    11e4:	00 c0       	rjmp	.+0      	; 0x11e6 <erstelle_Liste_name+0x138>
    11e6:	00 00       	nop
    11e8:	b7 01       	movw	r22, r14
    11ea:	ce 01       	movw	r24, r28
    11ec:	4a 96       	adiw	r24, 0x1a	; 26
    11ee:	0e 94 90 48 	call	0x9120	; 0x9120 <strcpy>
    11f2:	4a e0       	ldi	r20, 0x0A	; 10
    11f4:	be 01       	movw	r22, r28
    11f6:	6a 5e       	subi	r22, 0xEA	; 234
    11f8:	7f 4f       	sbci	r23, 0xFF	; 255
    11fa:	c8 01       	movw	r24, r16
    11fc:	0e 94 be 48 	call	0x917c	; 0x917c <__itoa_ncheck>
    1200:	be 01       	movw	r22, r28
    1202:	6a 5e       	subi	r22, 0xEA	; 234
    1204:	7f 4f       	sbci	r23, 0xFF	; 255
    1206:	ce 01       	movw	r24, r28
    1208:	4a 96       	adiw	r24, 0x1a	; 26
    120a:	0e 94 7c 48 	call	0x90f8	; 0x90f8 <strcat>
    120e:	ce 01       	movw	r24, r28
    1210:	4a 96       	adiw	r24, 0x1a	; 26
    1212:	0e 94 c5 2c 	call	0x598a	; 0x598a <nextion_disableButton>
    1216:	0c c0       	rjmp	.+24     	; 0x1230 <erstelle_Liste_name+0x182>
    1218:	80 81       	ld	r24, Z
    121a:	c9 dd       	rcall	.-1134   	; 0xdae <lese_textfile_in_getraenk>
    121c:	e0 91 0b 13 	lds	r30, 0x130B	; 0x80130b <aktuellesGetraenk>
    1220:	f0 91 0c 13 	lds	r31, 0x130C	; 0x80130c <aktuellesGetraenk+0x1>
    1224:	60 81       	ld	r22, Z
    1226:	71 81       	ldd	r23, Z+1	; 0x01
    1228:	ce 01       	movw	r24, r28
    122a:	01 96       	adiw	r24, 0x01	; 1
    122c:	0e 94 1c 2c 	call	0x5838	; 0x5838 <nextion_setText>
    1230:	e0 91 77 0a 	lds	r30, 0x0A77	; 0x800a77 <aktuellesGetraenk_file>
    1234:	f0 91 78 0a 	lds	r31, 0x0A78	; 0x800a78 <aktuellesGetraenk_file+0x1>
    1238:	80 91 37 0a 	lds	r24, 0x0A37	; 0x800a37 <tail_getraenk_file>
    123c:	90 91 38 0a 	lds	r25, 0x0A38	; 0x800a38 <tail_getraenk_file+0x1>
    1240:	e8 17       	cp	r30, r24
    1242:	f9 07       	cpc	r31, r25
    1244:	31 f4       	brne	.+12     	; 0x1252 <erstelle_Liste_name+0x1a4>
    1246:	80 91 80 0a 	lds	r24, 0x0A80	; 0x800a80 <block_list_runter>
    124a:	81 11       	cpse	r24, r1
    124c:	02 c0       	rjmp	.+4      	; 0x1252 <erstelle_Liste_name+0x1a4>
    124e:	d0 92 9b 0e 	sts	0x0E9B, r13	; 0x800e9b <block_list_hoch>
    1252:	83 81       	ldd	r24, Z+3	; 0x03
    1254:	94 81       	ldd	r25, Z+4	; 0x04
    1256:	90 93 78 0a 	sts	0x0A78, r25	; 0x800a78 <aktuellesGetraenk_file+0x1>
    125a:	80 93 77 0a 	sts	0x0A77, r24	; 0x800a77 <aktuellesGetraenk_file>
    125e:	af e3       	ldi	r26, 0x3F	; 63
    1260:	bc e9       	ldi	r27, 0x9C	; 156
    1262:	11 97       	sbiw	r26, 0x01	; 1
    1264:	f1 f7       	brne	.-4      	; 0x1262 <erstelle_Liste_name+0x1b4>
    1266:	00 c0       	rjmp	.+0      	; 0x1268 <erstelle_Liste_name+0x1ba>
    1268:	00 00       	nop
    126a:	06 30       	cpi	r16, 0x06	; 6
    126c:	11 05       	cpc	r17, r1
    126e:	09 f0       	breq	.+2      	; 0x1272 <erstelle_Liste_name+0x1c4>
    1270:	78 cf       	rjmp	.-272    	; 0x1162 <erstelle_Liste_name+0xb4>
    1272:	ad 96       	adiw	r28, 0x2d	; 45
    1274:	0f b6       	in	r0, 0x3f	; 63
    1276:	f8 94       	cli
    1278:	de bf       	out	0x3e, r29	; 62
    127a:	0f be       	out	0x3f, r0	; 63
    127c:	cd bf       	out	0x3d, r28	; 61
    127e:	df 91       	pop	r29
    1280:	cf 91       	pop	r28
    1282:	1f 91       	pop	r17
    1284:	0f 91       	pop	r16
    1286:	ff 90       	pop	r15
    1288:	ef 90       	pop	r14
    128a:	df 90       	pop	r13
    128c:	08 95       	ret

0000128e <schiebe_file_next>:
    128e:	cf 93       	push	r28
    1290:	df 93       	push	r29
    1292:	cd b7       	in	r28, 0x3d	; 61
    1294:	de b7       	in	r29, 0x3e	; 62
    1296:	e2 97       	sbiw	r28, 0x32	; 50
    1298:	0f b6       	in	r0, 0x3f	; 63
    129a:	f8 94       	cli
    129c:	de bf       	out	0x3e, r29	; 62
    129e:	0f be       	out	0x3f, r0	; 63
    12a0:	cd bf       	out	0x3d, r28	; 61
    12a2:	e0 91 77 0a 	lds	r30, 0x0A77	; 0x800a77 <aktuellesGetraenk_file>
    12a6:	f0 91 78 0a 	lds	r31, 0x0A78	; 0x800a78 <aktuellesGetraenk_file+0x1>
    12aa:	01 80       	ldd	r0, Z+1	; 0x01
    12ac:	f2 81       	ldd	r31, Z+2	; 0x02
    12ae:	e0 2d       	mov	r30, r0
    12b0:	f0 93 78 0a 	sts	0x0A78, r31	; 0x800a78 <aktuellesGetraenk_file+0x1>
    12b4:	e0 93 77 0a 	sts	0x0A77, r30	; 0x800a77 <aktuellesGetraenk_file>
    12b8:	be 01       	movw	r22, r28
    12ba:	6f 5f       	subi	r22, 0xFF	; 255
    12bc:	7f 4f       	sbci	r23, 0xFF	; 255
    12be:	82 e3       	ldi	r24, 0x32	; 50
    12c0:	db 01       	movw	r26, r22
    12c2:	1d 92       	st	X+, r1
    12c4:	8a 95       	dec	r24
    12c6:	e9 f7       	brne	.-6      	; 0x12c2 <schiebe_file_next+0x34>
    12c8:	80 81       	ld	r24, Z
    12ca:	4a e0       	ldi	r20, 0x0A	; 10
    12cc:	90 e0       	ldi	r25, 0x00	; 0
    12ce:	0e 94 be 48 	call	0x917c	; 0x917c <__itoa_ncheck>
    12d2:	e0 91 77 0a 	lds	r30, 0x0A77	; 0x800a77 <aktuellesGetraenk_file>
    12d6:	f0 91 78 0a 	lds	r31, 0x0A78	; 0x800a78 <aktuellesGetraenk_file+0x1>
    12da:	80 81       	ld	r24, Z
    12dc:	68 dd       	rcall	.-1328   	; 0xdae <lese_textfile_in_getraenk>
    12de:	e2 96       	adiw	r28, 0x32	; 50
    12e0:	0f b6       	in	r0, 0x3f	; 63
    12e2:	f8 94       	cli
    12e4:	de bf       	out	0x3e, r29	; 62
    12e6:	0f be       	out	0x3f, r0	; 63
    12e8:	cd bf       	out	0x3d, r28	; 61
    12ea:	df 91       	pop	r29
    12ec:	cf 91       	pop	r28
    12ee:	08 95       	ret

000012f0 <schiebe_file_prev>:
    12f0:	cf 93       	push	r28
    12f2:	df 93       	push	r29
    12f4:	cd b7       	in	r28, 0x3d	; 61
    12f6:	de b7       	in	r29, 0x3e	; 62
    12f8:	e2 97       	sbiw	r28, 0x32	; 50
    12fa:	0f b6       	in	r0, 0x3f	; 63
    12fc:	f8 94       	cli
    12fe:	de bf       	out	0x3e, r29	; 62
    1300:	0f be       	out	0x3f, r0	; 63
    1302:	cd bf       	out	0x3d, r28	; 61
    1304:	e0 91 77 0a 	lds	r30, 0x0A77	; 0x800a77 <aktuellesGetraenk_file>
    1308:	f0 91 78 0a 	lds	r31, 0x0A78	; 0x800a78 <aktuellesGetraenk_file+0x1>
    130c:	03 80       	ldd	r0, Z+3	; 0x03
    130e:	f4 81       	ldd	r31, Z+4	; 0x04
    1310:	e0 2d       	mov	r30, r0
    1312:	f0 93 78 0a 	sts	0x0A78, r31	; 0x800a78 <aktuellesGetraenk_file+0x1>
    1316:	e0 93 77 0a 	sts	0x0A77, r30	; 0x800a77 <aktuellesGetraenk_file>
    131a:	be 01       	movw	r22, r28
    131c:	6f 5f       	subi	r22, 0xFF	; 255
    131e:	7f 4f       	sbci	r23, 0xFF	; 255
    1320:	82 e3       	ldi	r24, 0x32	; 50
    1322:	db 01       	movw	r26, r22
    1324:	1d 92       	st	X+, r1
    1326:	8a 95       	dec	r24
    1328:	e9 f7       	brne	.-6      	; 0x1324 <schiebe_file_prev+0x34>
    132a:	80 81       	ld	r24, Z
    132c:	4a e0       	ldi	r20, 0x0A	; 10
    132e:	90 e0       	ldi	r25, 0x00	; 0
    1330:	0e 94 be 48 	call	0x917c	; 0x917c <__itoa_ncheck>
    1334:	e0 91 77 0a 	lds	r30, 0x0A77	; 0x800a77 <aktuellesGetraenk_file>
    1338:	f0 91 78 0a 	lds	r31, 0x0A78	; 0x800a78 <aktuellesGetraenk_file+0x1>
    133c:	80 81       	ld	r24, Z
    133e:	37 dd       	rcall	.-1426   	; 0xdae <lese_textfile_in_getraenk>
    1340:	e2 96       	adiw	r28, 0x32	; 50
    1342:	0f b6       	in	r0, 0x3f	; 63
    1344:	f8 94       	cli
    1346:	de bf       	out	0x3e, r29	; 62
    1348:	0f be       	out	0x3f, r0	; 63
    134a:	cd bf       	out	0x3d, r28	; 61
    134c:	df 91       	pop	r29
    134e:	cf 91       	pop	r28
    1350:	08 95       	ret

00001352 <erstelle_File>:
    1352:	5f 92       	push	r5
    1354:	6f 92       	push	r6
    1356:	7f 92       	push	r7
    1358:	8f 92       	push	r8
    135a:	9f 92       	push	r9
    135c:	af 92       	push	r10
    135e:	bf 92       	push	r11
    1360:	cf 92       	push	r12
    1362:	df 92       	push	r13
    1364:	ef 92       	push	r14
    1366:	ff 92       	push	r15
    1368:	0f 93       	push	r16
    136a:	1f 93       	push	r17
    136c:	cf 93       	push	r28
    136e:	df 93       	push	r29
    1370:	cd b7       	in	r28, 0x3d	; 61
    1372:	de b7       	in	r29, 0x3e	; 62
    1374:	c9 59       	subi	r28, 0x99	; 153
    1376:	d1 09       	sbc	r29, r1
    1378:	0f b6       	in	r0, 0x3f	; 63
    137a:	f8 94       	cli
    137c:	de bf       	out	0x3e, r29	; 62
    137e:	0f be       	out	0x3f, r0	; 63
    1380:	cd bf       	out	0x3d, r28	; 61
    1382:	78 2e       	mov	r7, r24
    1384:	54 2e       	mov	r5, r20
    1386:	62 2e       	mov	r6, r18
    1388:	8e 01       	movw	r16, r28
    138a:	0f 5f       	subi	r16, 0xFF	; 255
    138c:	1f 4f       	sbci	r17, 0xFF	; 255
    138e:	80 e8       	ldi	r24, 0x80	; 128
    1390:	d8 01       	movw	r26, r16
    1392:	1d 92       	st	X+, r1
    1394:	8a 95       	dec	r24
    1396:	e9 f7       	brne	.-6      	; 0x1392 <erstelle_File+0x40>
    1398:	d8 01       	movw	r26, r16
    139a:	0d 90       	ld	r0, X+
    139c:	00 20       	and	r0, r0
    139e:	e9 f7       	brne	.-6      	; 0x139a <erstelle_File+0x48>
    13a0:	11 97       	sbiw	r26, 0x01	; 1
    13a2:	86 e0       	ldi	r24, 0x06	; 6
    13a4:	ed e8       	ldi	r30, 0x8D	; 141
    13a6:	f4 e0       	ldi	r31, 0x04	; 4
    13a8:	01 90       	ld	r0, Z+
    13aa:	0d 92       	st	X+, r0
    13ac:	8a 95       	dec	r24
    13ae:	e1 f7       	brne	.-8      	; 0x13a8 <erstelle_File+0x56>
    13b0:	c8 01       	movw	r24, r16
    13b2:	0e 94 7c 48 	call	0x90f8	; 0x90f8 <strcat>
    13b6:	d8 01       	movw	r26, r16
    13b8:	0d 90       	ld	r0, X+
    13ba:	00 20       	and	r0, r0
    13bc:	e9 f7       	brne	.-6      	; 0x13b8 <erstelle_File+0x66>
    13be:	11 97       	sbiw	r26, 0x01	; 1
    13c0:	8a e0       	ldi	r24, 0x0A	; 10
    13c2:	e3 e9       	ldi	r30, 0x93	; 147
    13c4:	f4 e0       	ldi	r31, 0x04	; 4
    13c6:	01 90       	ld	r0, Z+
    13c8:	0d 92       	st	X+, r0
    13ca:	8a 95       	dec	r24
    13cc:	e1 f7       	brne	.-8      	; 0x13c6 <erstelle_File+0x74>
    13ce:	fe 01       	movw	r30, r28
    13d0:	ef 57       	subi	r30, 0x7F	; 127
    13d2:	ff 4f       	sbci	r31, 0xFF	; 255
    13d4:	85 e0       	ldi	r24, 0x05	; 5
    13d6:	df 01       	movw	r26, r30
    13d8:	1d 92       	st	X+, r1
    13da:	8a 95       	dec	r24
    13dc:	e9 f7       	brne	.-6      	; 0x13d8 <erstelle_File+0x86>
    13de:	80 91 a7 0f 	lds	r24, 0x0FA7	; 0x800fa7 <tail_zut_in_Maschine>
    13e2:	90 91 a8 0f 	lds	r25, 0x0FA8	; 0x800fa8 <tail_zut_in_Maschine+0x1>
    13e6:	90 93 47 0a 	sts	0x0A47, r25	; 0x800a47 <aktuelleZutatInMaschine+0x1>
    13ea:	80 93 46 0a 	sts	0x0A46, r24	; 0x800a46 <aktuelleZutatInMaschine>
    13ee:	68 01       	movw	r12, r16
    13f0:	0f 2e       	mov	r0, r31
    13f2:	fa e3       	ldi	r31, 0x3A	; 58
    13f4:	8f 2e       	mov	r8, r31
    13f6:	91 2c       	mov	r9, r1
    13f8:	f0 2d       	mov	r31, r0
    13fa:	0f 2e       	mov	r0, r31
    13fc:	fd e0       	ldi	r31, 0x0D	; 13
    13fe:	af 2e       	mov	r10, r31
    1400:	b1 2c       	mov	r11, r1
    1402:	f0 2d       	mov	r31, r0
    1404:	e0 90 0b 13 	lds	r14, 0x130B	; 0x80130b <aktuellesGetraenk>
    1408:	f0 90 0c 13 	lds	r15, 0x130C	; 0x80130c <aktuellesGetraenk+0x1>
    140c:	00 91 46 0a 	lds	r16, 0x0A46	; 0x800a46 <aktuelleZutatInMaschine>
    1410:	10 91 47 0a 	lds	r17, 0x0A47	; 0x800a47 <aktuelleZutatInMaschine+0x1>
    1414:	d8 01       	movw	r26, r16
    1416:	15 96       	adiw	r26, 0x05	; 5
    1418:	8c 91       	ld	r24, X
    141a:	d7 01       	movw	r26, r14
    141c:	14 96       	adiw	r26, 0x04	; 4
    141e:	ed 91       	ld	r30, X+
    1420:	fc 91       	ld	r31, X
    1422:	15 97       	sbiw	r26, 0x05	; 5
    1424:	e8 0f       	add	r30, r24
    1426:	f1 1d       	adc	r31, r1
    1428:	80 81       	ld	r24, Z
    142a:	88 23       	and	r24, r24
    142c:	61 f1       	breq	.+88     	; 0x1486 <erstelle_File+0x134>
    142e:	f8 01       	movw	r30, r16
    1430:	60 81       	ld	r22, Z
    1432:	71 81       	ldd	r23, Z+1	; 0x01
    1434:	c6 01       	movw	r24, r12
    1436:	0e 94 7c 48 	call	0x90f8	; 0x90f8 <strcat>
    143a:	f6 01       	movw	r30, r12
    143c:	01 90       	ld	r0, Z+
    143e:	00 20       	and	r0, r0
    1440:	e9 f7       	brne	.-6      	; 0x143c <erstelle_File+0xea>
    1442:	31 97       	sbiw	r30, 0x01	; 1
    1444:	91 82       	std	Z+1, r9	; 0x01
    1446:	80 82       	st	Z, r8
    1448:	d8 01       	movw	r26, r16
    144a:	15 96       	adiw	r26, 0x05	; 5
    144c:	8c 91       	ld	r24, X
    144e:	d7 01       	movw	r26, r14
    1450:	14 96       	adiw	r26, 0x04	; 4
    1452:	ed 91       	ld	r30, X+
    1454:	fc 91       	ld	r31, X
    1456:	15 97       	sbiw	r26, 0x05	; 5
    1458:	e8 0f       	add	r30, r24
    145a:	f1 1d       	adc	r31, r1
    145c:	80 81       	ld	r24, Z
    145e:	4a e0       	ldi	r20, 0x0A	; 10
    1460:	be 01       	movw	r22, r28
    1462:	6f 57       	subi	r22, 0x7F	; 127
    1464:	7f 4f       	sbci	r23, 0xFF	; 255
    1466:	90 e0       	ldi	r25, 0x00	; 0
    1468:	0e 94 be 48 	call	0x917c	; 0x917c <__itoa_ncheck>
    146c:	be 01       	movw	r22, r28
    146e:	6f 57       	subi	r22, 0x7F	; 127
    1470:	7f 4f       	sbci	r23, 0xFF	; 255
    1472:	c6 01       	movw	r24, r12
    1474:	0e 94 7c 48 	call	0x90f8	; 0x90f8 <strcat>
    1478:	f6 01       	movw	r30, r12
    147a:	01 90       	ld	r0, Z+
    147c:	00 20       	and	r0, r0
    147e:	e9 f7       	brne	.-6      	; 0x147a <erstelle_File+0x128>
    1480:	31 97       	sbiw	r30, 0x01	; 1
    1482:	b1 82       	std	Z+1, r11	; 0x01
    1484:	a0 82       	st	Z, r10
    1486:	e0 91 46 0a 	lds	r30, 0x0A46	; 0x800a46 <aktuelleZutatInMaschine>
    148a:	f0 91 47 0a 	lds	r31, 0x0A47	; 0x800a47 <aktuelleZutatInMaschine+0x1>
    148e:	84 85       	ldd	r24, Z+12	; 0x0c
    1490:	95 85       	ldd	r25, Z+13	; 0x0d
    1492:	90 93 47 0a 	sts	0x0A47, r25	; 0x800a47 <aktuelleZutatInMaschine+0x1>
    1496:	80 93 46 0a 	sts	0x0A46, r24	; 0x800a46 <aktuelleZutatInMaschine>
    149a:	20 91 a7 0f 	lds	r18, 0x0FA7	; 0x800fa7 <tail_zut_in_Maschine>
    149e:	30 91 a8 0f 	lds	r19, 0x0FA8	; 0x800fa8 <tail_zut_in_Maschine+0x1>
    14a2:	82 17       	cp	r24, r18
    14a4:	93 07       	cpc	r25, r19
    14a6:	09 f0       	breq	.+2      	; 0x14aa <erstelle_File+0x158>
    14a8:	ad cf       	rjmp	.-166    	; 0x1404 <erstelle_File+0xb2>
    14aa:	8e 01       	movw	r16, r28
    14ac:	0f 5f       	subi	r16, 0xFF	; 255
    14ae:	1f 4f       	sbci	r17, 0xFF	; 255
    14b0:	f8 01       	movw	r30, r16
    14b2:	01 90       	ld	r0, Z+
    14b4:	00 20       	and	r0, r0
    14b6:	e9 f7       	brne	.-6      	; 0x14b2 <erstelle_File+0x160>
    14b8:	31 97       	sbiw	r30, 0x01	; 1
    14ba:	8b e3       	ldi	r24, 0x3B	; 59
    14bc:	9d e0       	ldi	r25, 0x0D	; 13
    14be:	91 83       	std	Z+1, r25	; 0x01
    14c0:	80 83       	st	Z, r24
    14c2:	12 82       	std	Z+2, r1	; 0x02
    14c4:	d8 01       	movw	r26, r16
    14c6:	0d 90       	ld	r0, X+
    14c8:	00 20       	and	r0, r0
    14ca:	e9 f7       	brne	.-6      	; 0x14c6 <erstelle_File+0x174>
    14cc:	11 97       	sbiw	r26, 0x01	; 1
    14ce:	89 e0       	ldi	r24, 0x09	; 9
    14d0:	e1 e5       	ldi	r30, 0x51	; 81
    14d2:	f6 e0       	ldi	r31, 0x06	; 6
    14d4:	01 90       	ld	r0, Z+
    14d6:	0d 92       	st	X+, r0
    14d8:	8a 95       	dec	r24
    14da:	e1 f7       	brne	.-8      	; 0x14d4 <erstelle_File+0x182>
    14dc:	4a e0       	ldi	r20, 0x0A	; 10
    14de:	be 01       	movw	r22, r28
    14e0:	6f 57       	subi	r22, 0x7F	; 127
    14e2:	7f 4f       	sbci	r23, 0xFF	; 255
    14e4:	85 2d       	mov	r24, r5
    14e6:	90 e0       	ldi	r25, 0x00	; 0
    14e8:	0e 94 be 48 	call	0x917c	; 0x917c <__itoa_ncheck>
    14ec:	be 01       	movw	r22, r28
    14ee:	6f 57       	subi	r22, 0x7F	; 127
    14f0:	7f 4f       	sbci	r23, 0xFF	; 255
    14f2:	c8 01       	movw	r24, r16
    14f4:	0e 94 7c 48 	call	0x90f8	; 0x90f8 <strcat>
    14f8:	f8 01       	movw	r30, r16
    14fa:	01 90       	ld	r0, Z+
    14fc:	00 20       	and	r0, r0
    14fe:	e9 f7       	brne	.-6      	; 0x14fa <erstelle_File+0x1a8>
    1500:	31 97       	sbiw	r30, 0x01	; 1
    1502:	0f 2e       	mov	r0, r31
    1504:	fd e0       	ldi	r31, 0x0D	; 13
    1506:	ef 2e       	mov	r14, r31
    1508:	f1 2c       	mov	r15, r1
    150a:	f0 2d       	mov	r31, r0
    150c:	f1 82       	std	Z+1, r15	; 0x01
    150e:	e0 82       	st	Z, r14
    1510:	d8 01       	movw	r26, r16
    1512:	0d 90       	ld	r0, X+
    1514:	00 20       	and	r0, r0
    1516:	e9 f7       	brne	.-6      	; 0x1512 <erstelle_File+0x1c0>
    1518:	11 97       	sbiw	r26, 0x01	; 1
    151a:	8e e0       	ldi	r24, 0x0E	; 14
    151c:	ed e9       	ldi	r30, 0x9D	; 157
    151e:	f4 e0       	ldi	r31, 0x04	; 4
    1520:	01 90       	ld	r0, Z+
    1522:	0d 92       	st	X+, r0
    1524:	8a 95       	dec	r24
    1526:	e1 f7       	brne	.-8      	; 0x1520 <erstelle_File+0x1ce>
    1528:	4a e0       	ldi	r20, 0x0A	; 10
    152a:	be 01       	movw	r22, r28
    152c:	6f 57       	subi	r22, 0x7F	; 127
    152e:	7f 4f       	sbci	r23, 0xFF	; 255
    1530:	86 2d       	mov	r24, r6
    1532:	90 e0       	ldi	r25, 0x00	; 0
    1534:	0e 94 be 48 	call	0x917c	; 0x917c <__itoa_ncheck>
    1538:	be 01       	movw	r22, r28
    153a:	6f 57       	subi	r22, 0x7F	; 127
    153c:	7f 4f       	sbci	r23, 0xFF	; 255
    153e:	c8 01       	movw	r24, r16
    1540:	0e 94 7c 48 	call	0x90f8	; 0x90f8 <strcat>
    1544:	f8 01       	movw	r30, r16
    1546:	01 90       	ld	r0, Z+
    1548:	00 20       	and	r0, r0
    154a:	e9 f7       	brne	.-6      	; 0x1546 <erstelle_File+0x1f4>
    154c:	31 97       	sbiw	r30, 0x01	; 1
    154e:	f1 82       	std	Z+1, r15	; 0x01
    1550:	e0 82       	st	Z, r14
    1552:	d8 01       	movw	r26, r16
    1554:	0d 90       	ld	r0, X+
    1556:	00 20       	and	r0, r0
    1558:	e9 f7       	brne	.-6      	; 0x1554 <erstelle_File+0x202>
    155a:	11 97       	sbiw	r26, 0x01	; 1
    155c:	86 e0       	ldi	r24, 0x06	; 6
    155e:	eb ea       	ldi	r30, 0xAB	; 171
    1560:	f4 e0       	ldi	r31, 0x04	; 4
    1562:	01 90       	ld	r0, Z+
    1564:	0d 92       	st	X+, r0
    1566:	8a 95       	dec	r24
    1568:	e1 f7       	brne	.-8      	; 0x1562 <erstelle_File+0x210>
    156a:	e0 91 0b 13 	lds	r30, 0x130B	; 0x80130b <aktuellesGetraenk>
    156e:	f0 91 0c 13 	lds	r31, 0x130C	; 0x80130c <aktuellesGetraenk+0x1>
    1572:	86 81       	ldd	r24, Z+6	; 0x06
    1574:	88 31       	cpi	r24, 0x18	; 24
    1576:	71 f0       	breq	.+28     	; 0x1594 <erstelle_File+0x242>
    1578:	4a e0       	ldi	r20, 0x0A	; 10
    157a:	be 01       	movw	r22, r28
    157c:	6b 56       	subi	r22, 0x6B	; 107
    157e:	7f 4f       	sbci	r23, 0xFF	; 255
    1580:	90 e0       	ldi	r25, 0x00	; 0
    1582:	0e 94 be 48 	call	0x917c	; 0x917c <__itoa_ncheck>
    1586:	be 01       	movw	r22, r28
    1588:	6b 56       	subi	r22, 0x6B	; 107
    158a:	7f 4f       	sbci	r23, 0xFF	; 255
    158c:	c8 01       	movw	r24, r16
    158e:	0e 94 7c 48 	call	0x90f8	; 0x90f8 <strcat>
    1592:	0b c0       	rjmp	.+22     	; 0x15aa <erstelle_File+0x258>
    1594:	fe 01       	movw	r30, r28
    1596:	31 96       	adiw	r30, 0x01	; 1
    1598:	01 90       	ld	r0, Z+
    159a:	00 20       	and	r0, r0
    159c:	e9 f7       	brne	.-6      	; 0x1598 <erstelle_File+0x246>
    159e:	31 97       	sbiw	r30, 0x01	; 1
    15a0:	82 e3       	ldi	r24, 0x32	; 50
    15a2:	94 e3       	ldi	r25, 0x34	; 52
    15a4:	91 83       	std	Z+1, r25	; 0x01
    15a6:	80 83       	st	Z, r24
    15a8:	12 82       	std	Z+2, r1	; 0x02
    15aa:	fe 01       	movw	r30, r28
    15ac:	31 96       	adiw	r30, 0x01	; 1
    15ae:	7f 01       	movw	r14, r30
    15b0:	01 90       	ld	r0, Z+
    15b2:	00 20       	and	r0, r0
    15b4:	e9 f7       	brne	.-6      	; 0x15b0 <erstelle_File+0x25e>
    15b6:	31 97       	sbiw	r30, 0x01	; 1
    15b8:	8e e7       	ldi	r24, 0x7E	; 126
    15ba:	90 e0       	ldi	r25, 0x00	; 0
    15bc:	91 83       	std	Z+1, r25	; 0x01
    15be:	80 83       	st	Z, r24
    15c0:	8e 01       	movw	r16, r28
    15c2:	0a 57       	subi	r16, 0x7A	; 122
    15c4:	1f 4f       	sbci	r17, 0xFF	; 255
    15c6:	8f e0       	ldi	r24, 0x0F	; 15
    15c8:	d8 01       	movw	r26, r16
    15ca:	1d 92       	st	X+, r1
    15cc:	8a 95       	dec	r24
    15ce:	e9 f7       	brne	.-6      	; 0x15ca <erstelle_File+0x278>
    15d0:	4a e0       	ldi	r20, 0x0A	; 10
    15d2:	b8 01       	movw	r22, r16
    15d4:	87 2d       	mov	r24, r7
    15d6:	90 e0       	ldi	r25, 0x00	; 0
    15d8:	0e 94 be 48 	call	0x917c	; 0x917c <__itoa_ncheck>
    15dc:	d8 01       	movw	r26, r16
    15de:	0d 90       	ld	r0, X+
    15e0:	00 20       	and	r0, r0
    15e2:	e9 f7       	brne	.-6      	; 0x15de <erstelle_File+0x28c>
    15e4:	11 97       	sbiw	r26, 0x01	; 1
    15e6:	85 e0       	ldi	r24, 0x05	; 5
    15e8:	e0 ee       	ldi	r30, 0xE0	; 224
    15ea:	f4 e0       	ldi	r31, 0x04	; 4
    15ec:	01 90       	ld	r0, Z+
    15ee:	0d 92       	st	X+, r0
    15f0:	8a 95       	dec	r24
    15f2:	e1 f7       	brne	.-8      	; 0x15ec <erstelle_File+0x29a>
    15f4:	b7 01       	movw	r22, r14
    15f6:	c8 01       	movw	r24, r16
    15f8:	0e 94 2d 34 	call	0x685a	; 0x685a <writeFile>
    15fc:	c7 56       	subi	r28, 0x67	; 103
    15fe:	df 4f       	sbci	r29, 0xFF	; 255
    1600:	0f b6       	in	r0, 0x3f	; 63
    1602:	f8 94       	cli
    1604:	de bf       	out	0x3e, r29	; 62
    1606:	0f be       	out	0x3f, r0	; 63
    1608:	cd bf       	out	0x3d, r28	; 61
    160a:	df 91       	pop	r29
    160c:	cf 91       	pop	r28
    160e:	1f 91       	pop	r17
    1610:	0f 91       	pop	r16
    1612:	ff 90       	pop	r15
    1614:	ef 90       	pop	r14
    1616:	df 90       	pop	r13
    1618:	cf 90       	pop	r12
    161a:	bf 90       	pop	r11
    161c:	af 90       	pop	r10
    161e:	9f 90       	pop	r9
    1620:	8f 90       	pop	r8
    1622:	7f 90       	pop	r7
    1624:	6f 90       	pop	r6
    1626:	5f 90       	pop	r5
    1628:	08 95       	ret

0000162a <loesche_FIle>:
    162a:	0f 93       	push	r16
    162c:	1f 93       	push	r17
    162e:	cf 93       	push	r28
    1630:	df 93       	push	r29
    1632:	cd b7       	in	r28, 0x3d	; 61
    1634:	de b7       	in	r29, 0x3e	; 62
    1636:	64 97       	sbiw	r28, 0x14	; 20
    1638:	0f b6       	in	r0, 0x3f	; 63
    163a:	f8 94       	cli
    163c:	de bf       	out	0x3e, r29	; 62
    163e:	0f be       	out	0x3f, r0	; 63
    1640:	cd bf       	out	0x3d, r28	; 61
    1642:	8e 01       	movw	r16, r28
    1644:	0f 5f       	subi	r16, 0xFF	; 255
    1646:	1f 4f       	sbci	r17, 0xFF	; 255
    1648:	94 e1       	ldi	r25, 0x14	; 20
    164a:	f8 01       	movw	r30, r16
    164c:	11 92       	st	Z+, r1
    164e:	9a 95       	dec	r25
    1650:	e9 f7       	brne	.-6      	; 0x164c <loesche_FIle+0x22>
    1652:	4a e0       	ldi	r20, 0x0A	; 10
    1654:	b8 01       	movw	r22, r16
    1656:	90 e0       	ldi	r25, 0x00	; 0
    1658:	0e 94 be 48 	call	0x917c	; 0x917c <__itoa_ncheck>
    165c:	d8 01       	movw	r26, r16
    165e:	0d 90       	ld	r0, X+
    1660:	00 20       	and	r0, r0
    1662:	e9 f7       	brne	.-6      	; 0x165e <loesche_FIle+0x34>
    1664:	11 97       	sbiw	r26, 0x01	; 1
    1666:	85 e0       	ldi	r24, 0x05	; 5
    1668:	e0 ee       	ldi	r30, 0xE0	; 224
    166a:	f4 e0       	ldi	r31, 0x04	; 4
    166c:	01 90       	ld	r0, Z+
    166e:	0d 92       	st	X+, r0
    1670:	8a 95       	dec	r24
    1672:	e1 f7       	brne	.-8      	; 0x166c <loesche_FIle+0x42>
    1674:	c8 01       	movw	r24, r16
    1676:	0e 94 21 34 	call	0x6842	; 0x6842 <deleteFile>
    167a:	64 96       	adiw	r28, 0x14	; 20
    167c:	0f b6       	in	r0, 0x3f	; 63
    167e:	f8 94       	cli
    1680:	de bf       	out	0x3e, r29	; 62
    1682:	0f be       	out	0x3f, r0	; 63
    1684:	cd bf       	out	0x3d, r28	; 61
    1686:	df 91       	pop	r29
    1688:	cf 91       	pop	r28
    168a:	1f 91       	pop	r17
    168c:	0f 91       	pop	r16
    168e:	08 95       	ret

00001690 <lese_textfile_in_zutat>:
    1690:	ef 92       	push	r14
    1692:	ff 92       	push	r15
    1694:	0f 93       	push	r16
    1696:	1f 93       	push	r17
    1698:	cf 93       	push	r28
    169a:	df 93       	push	r29
    169c:	cd b7       	in	r28, 0x3d	; 61
    169e:	de b7       	in	r29, 0x3e	; 62
    16a0:	a1 97       	sbiw	r28, 0x21	; 33
    16a2:	0f b6       	in	r0, 0x3f	; 63
    16a4:	f8 94       	cli
    16a6:	de bf       	out	0x3e, r29	; 62
    16a8:	0f be       	out	0x3f, r0	; 63
    16aa:	cd bf       	out	0x3d, r28	; 61
    16ac:	8e 01       	movw	r16, r28
    16ae:	0f 5f       	subi	r16, 0xFF	; 255
    16b0:	1f 4f       	sbci	r17, 0xFF	; 255
    16b2:	95 e1       	ldi	r25, 0x15	; 21
    16b4:	f8 01       	movw	r30, r16
    16b6:	11 92       	st	Z+, r1
    16b8:	9a 95       	dec	r25
    16ba:	e9 f7       	brne	.-6      	; 0x16b6 <lese_textfile_in_zutat+0x26>
    16bc:	7e 01       	movw	r14, r28
    16be:	f6 e1       	ldi	r31, 0x16	; 22
    16c0:	ef 0e       	add	r14, r31
    16c2:	f1 1c       	adc	r15, r1
    16c4:	95 e0       	ldi	r25, 0x05	; 5
    16c6:	f7 01       	movw	r30, r14
    16c8:	11 92       	st	Z+, r1
    16ca:	9a 95       	dec	r25
    16cc:	e9 f7       	brne	.-6      	; 0x16c8 <lese_textfile_in_zutat+0x38>
    16ce:	2a e5       	ldi	r18, 0x5A	; 90
    16d0:	30 e0       	ldi	r19, 0x00	; 0
    16d2:	3a 83       	std	Y+2, r19	; 0x02
    16d4:	29 83       	std	Y+1, r18	; 0x01
    16d6:	4a e0       	ldi	r20, 0x0A	; 10
    16d8:	b7 01       	movw	r22, r14
    16da:	90 e0       	ldi	r25, 0x00	; 0
    16dc:	0e 94 be 48 	call	0x917c	; 0x917c <__itoa_ncheck>
    16e0:	b7 01       	movw	r22, r14
    16e2:	c8 01       	movw	r24, r16
    16e4:	0e 94 7c 48 	call	0x90f8	; 0x90f8 <strcat>
    16e8:	d8 01       	movw	r26, r16
    16ea:	0d 90       	ld	r0, X+
    16ec:	00 20       	and	r0, r0
    16ee:	e9 f7       	brne	.-6      	; 0x16ea <lese_textfile_in_zutat+0x5a>
    16f0:	11 97       	sbiw	r26, 0x01	; 1
    16f2:	85 e0       	ldi	r24, 0x05	; 5
    16f4:	e0 ee       	ldi	r30, 0xE0	; 224
    16f6:	f4 e0       	ldi	r31, 0x04	; 4
    16f8:	01 90       	ld	r0, Z+
    16fa:	0d 92       	st	X+, r0
    16fc:	8a 95       	dec	r24
    16fe:	e1 f7       	brne	.-8      	; 0x16f8 <lese_textfile_in_zutat+0x68>
    1700:	b8 01       	movw	r22, r16
    1702:	80 e0       	ldi	r24, 0x00	; 0
    1704:	0e 94 52 33 	call	0x66a4	; 0x66a4 <readFile>
    1708:	87 e0       	ldi	r24, 0x07	; 7
    170a:	e1 eb       	ldi	r30, 0xB1	; 177
    170c:	f4 e0       	ldi	r31, 0x04	; 4
    170e:	de 01       	movw	r26, r28
    1710:	5b 96       	adiw	r26, 0x1b	; 27
    1712:	01 90       	ld	r0, Z+
    1714:	0d 92       	st	X+, r0
    1716:	8a 95       	dec	r24
    1718:	e1 f7       	brne	.-8      	; 0x1712 <lese_textfile_in_zutat+0x82>
    171a:	be 01       	movw	r22, r28
    171c:	65 5e       	subi	r22, 0xE5	; 229
    171e:	7f 4f       	sbci	r23, 0xFF	; 255
    1720:	84 e9       	ldi	r24, 0x94	; 148
    1722:	9c e0       	ldi	r25, 0x0C	; 12
    1724:	0e 94 72 48 	call	0x90e4	; 0x90e4 <strtok>
    1728:	8c 01       	movw	r16, r24
    172a:	89 2b       	or	r24, r25
    172c:	c1 f1       	breq	.+112    	; 0x179e <lese_textfile_in_zutat+0x10e>
    172e:	68 e0       	ldi	r22, 0x08	; 8
    1730:	73 e0       	ldi	r23, 0x03	; 3
    1732:	c8 01       	movw	r24, r16
    1734:	0e 94 87 48 	call	0x910e	; 0x910e <strcmp>
    1738:	89 2b       	or	r24, r25
    173a:	89 f4       	brne	.+34     	; 0x175e <lese_textfile_in_zutat+0xce>
    173c:	be 01       	movw	r22, r28
    173e:	65 5e       	subi	r22, 0xE5	; 229
    1740:	7f 4f       	sbci	r23, 0xFF	; 255
    1742:	80 e0       	ldi	r24, 0x00	; 0
    1744:	90 e0       	ldi	r25, 0x00	; 0
    1746:	0e 94 72 48 	call	0x90e4	; 0x90e4 <strtok>
    174a:	8c 01       	movw	r16, r24
    174c:	e0 91 50 0a 	lds	r30, 0x0A50	; 0x800a50 <aktuelle_zutat>
    1750:	f0 91 51 0a 	lds	r31, 0x0A51	; 0x800a51 <aktuelle_zutat+0x1>
    1754:	bc 01       	movw	r22, r24
    1756:	80 81       	ld	r24, Z
    1758:	91 81       	ldd	r25, Z+1	; 0x01
    175a:	0e 94 90 48 	call	0x9120	; 0x9120 <strcpy>
    175e:	64 e1       	ldi	r22, 0x14	; 20
    1760:	73 e0       	ldi	r23, 0x03	; 3
    1762:	c8 01       	movw	r24, r16
    1764:	0e 94 87 48 	call	0x910e	; 0x910e <strcmp>
    1768:	89 2b       	or	r24, r25
    176a:	79 f4       	brne	.+30     	; 0x178a <lese_textfile_in_zutat+0xfa>
    176c:	be 01       	movw	r22, r28
    176e:	65 5e       	subi	r22, 0xE5	; 229
    1770:	7f 4f       	sbci	r23, 0xFF	; 255
    1772:	80 e0       	ldi	r24, 0x00	; 0
    1774:	90 e0       	ldi	r25, 0x00	; 0
    1776:	0e 94 72 48 	call	0x90e4	; 0x90e4 <strtok>
    177a:	00 91 50 0a 	lds	r16, 0x0A50	; 0x800a50 <aktuelle_zutat>
    177e:	10 91 51 0a 	lds	r17, 0x0A51	; 0x800a51 <aktuelle_zutat+0x1>
    1782:	0e 94 55 48 	call	0x90aa	; 0x90aa <atoi>
    1786:	f8 01       	movw	r30, r16
    1788:	82 83       	std	Z+2, r24	; 0x02
    178a:	be 01       	movw	r22, r28
    178c:	65 5e       	subi	r22, 0xE5	; 229
    178e:	7f 4f       	sbci	r23, 0xFF	; 255
    1790:	80 e0       	ldi	r24, 0x00	; 0
    1792:	90 e0       	ldi	r25, 0x00	; 0
    1794:	0e 94 72 48 	call	0x90e4	; 0x90e4 <strtok>
    1798:	8c 01       	movw	r16, r24
    179a:	89 2b       	or	r24, r25
    179c:	41 f6       	brne	.-112    	; 0x172e <lese_textfile_in_zutat+0x9e>
    179e:	a1 96       	adiw	r28, 0x21	; 33
    17a0:	0f b6       	in	r0, 0x3f	; 63
    17a2:	f8 94       	cli
    17a4:	de bf       	out	0x3e, r29	; 62
    17a6:	0f be       	out	0x3f, r0	; 63
    17a8:	cd bf       	out	0x3d, r28	; 61
    17aa:	df 91       	pop	r29
    17ac:	cf 91       	pop	r28
    17ae:	1f 91       	pop	r17
    17b0:	0f 91       	pop	r16
    17b2:	ff 90       	pop	r15
    17b4:	ef 90       	pop	r14
    17b6:	08 95       	ret

000017b8 <erstelle_Liste_Zutat_Pos>:
    17b8:	bf 92       	push	r11
    17ba:	cf 92       	push	r12
    17bc:	df 92       	push	r13
    17be:	ef 92       	push	r14
    17c0:	ff 92       	push	r15
    17c2:	0f 93       	push	r16
    17c4:	1f 93       	push	r17
    17c6:	cf 93       	push	r28
    17c8:	df 93       	push	r29
    17ca:	cd b7       	in	r28, 0x3d	; 61
    17cc:	de b7       	in	r29, 0x3e	; 62
    17ce:	c9 56       	subi	r28, 0x69	; 105
    17d0:	d1 09       	sbc	r29, r1
    17d2:	0f b6       	in	r0, 0x3f	; 63
    17d4:	f8 94       	cli
    17d6:	de bf       	out	0x3e, r29	; 62
    17d8:	0f be       	out	0x3f, r0	; 63
    17da:	cd bf       	out	0x3d, r28	; 61
    17dc:	7c 01       	movw	r14, r24
    17de:	84 e1       	ldi	r24, 0x14	; 20
    17e0:	0e 94 fd 2b 	call	0x57fa	; 0x57fa <nextion_change_page>
    17e4:	e0 91 54 0a 	lds	r30, 0x0A54	; 0x800a54 <tail_zutat_file>
    17e8:	f0 91 55 0a 	lds	r31, 0x0A55	; 0x800a55 <tail_zutat_file+0x1>
    17ec:	f0 93 c4 0f 	sts	0x0FC4, r31	; 0x800fc4 <aktuelles_zutat_file+0x1>
    17f0:	e0 93 c3 0f 	sts	0x0FC3, r30	; 0x800fc3 <aktuelles_zutat_file>
    17f4:	20 91 d1 12 	lds	r18, 0x12D1	; 0x8012d1 <i_Liste>
    17f8:	30 e0       	ldi	r19, 0x00	; 0
    17fa:	12 16       	cp	r1, r18
    17fc:	13 06       	cpc	r1, r19
    17fe:	6c f4       	brge	.+26     	; 0x181a <erstelle_Liste_Zutat_Pos+0x62>
    1800:	80 e0       	ldi	r24, 0x00	; 0
    1802:	90 e0       	ldi	r25, 0x00	; 0
    1804:	03 80       	ldd	r0, Z+3	; 0x03
    1806:	f4 81       	ldd	r31, Z+4	; 0x04
    1808:	e0 2d       	mov	r30, r0
    180a:	01 96       	adiw	r24, 0x01	; 1
    180c:	82 17       	cp	r24, r18
    180e:	93 07       	cpc	r25, r19
    1810:	c9 f7       	brne	.-14     	; 0x1804 <erstelle_Liste_Zutat_Pos+0x4c>
    1812:	f0 93 c4 0f 	sts	0x0FC4, r31	; 0x800fc4 <aktuelles_zutat_file+0x1>
    1816:	e0 93 c3 0f 	sts	0x0FC3, r30	; 0x800fc3 <aktuelles_zutat_file>
    181a:	82 e3       	ldi	r24, 0x32	; 50
    181c:	fe 01       	movw	r30, r28
    181e:	31 96       	adiw	r30, 0x01	; 1
    1820:	df 01       	movw	r26, r30
    1822:	98 2f       	mov	r25, r24
    1824:	1d 92       	st	X+, r1
    1826:	9a 95       	dec	r25
    1828:	e9 f7       	brne	.-6      	; 0x1824 <erstelle_Liste_Zutat_Pos+0x6c>
    182a:	f2 96       	adiw	r30, 0x32	; 50
    182c:	95 e0       	ldi	r25, 0x05	; 5
    182e:	df 01       	movw	r26, r30
    1830:	1d 92       	st	X+, r1
    1832:	9a 95       	dec	r25
    1834:	e9 f7       	brne	.-6      	; 0x1830 <erstelle_Liste_Zutat_Pos+0x78>
    1836:	35 96       	adiw	r30, 0x05	; 5
    1838:	df 01       	movw	r26, r30
    183a:	1d 92       	st	X+, r1
    183c:	8a 95       	dec	r24
    183e:	e9 f7       	brne	.-6      	; 0x183a <erstelle_Liste_Zutat_Pos+0x82>
    1840:	00 e0       	ldi	r16, 0x00	; 0
    1842:	10 e0       	ldi	r17, 0x00	; 0
    1844:	bb 24       	eor	r11, r11
    1846:	b3 94       	inc	r11
    1848:	6f 01       	movw	r12, r30
    184a:	0f 5f       	subi	r16, 0xFF	; 255
    184c:	1f 4f       	sbci	r17, 0xFF	; 255
    184e:	4a e0       	ldi	r20, 0x0A	; 10
    1850:	be 01       	movw	r22, r28
    1852:	6d 5c       	subi	r22, 0xCD	; 205
    1854:	7f 4f       	sbci	r23, 0xFF	; 255
    1856:	c8 01       	movw	r24, r16
    1858:	0e 94 be 48 	call	0x917c	; 0x917c <__itoa_ncheck>
    185c:	b7 01       	movw	r22, r14
    185e:	ce 01       	movw	r24, r28
    1860:	01 96       	adiw	r24, 0x01	; 1
    1862:	0e 94 90 48 	call	0x9120	; 0x9120 <strcpy>
    1866:	be 01       	movw	r22, r28
    1868:	6d 5c       	subi	r22, 0xCD	; 205
    186a:	7f 4f       	sbci	r23, 0xFF	; 255
    186c:	ce 01       	movw	r24, r28
    186e:	01 96       	adiw	r24, 0x01	; 1
    1870:	0e 94 7c 48 	call	0x90f8	; 0x90f8 <strcat>
    1874:	e0 91 c3 0f 	lds	r30, 0x0FC3	; 0x800fc3 <aktuelles_zutat_file>
    1878:	f0 91 c4 0f 	lds	r31, 0x0FC4	; 0x800fc4 <aktuelles_zutat_file+0x1>
    187c:	80 91 34 09 	lds	r24, 0x0934	; 0x800934 <head_zutat_file>
    1880:	90 91 35 09 	lds	r25, 0x0935	; 0x800935 <head_zutat_file+0x1>
    1884:	e8 17       	cp	r30, r24
    1886:	f9 07       	cpc	r31, r25
    1888:	99 f4       	brne	.+38     	; 0x18b0 <erstelle_Liste_Zutat_Pos+0xf8>
    188a:	80 91 80 0a 	lds	r24, 0x0A80	; 0x800a80 <block_list_runter>
    188e:	81 11       	cpse	r24, r1
    1890:	13 c0       	rjmp	.+38     	; 0x18b8 <erstelle_Liste_Zutat_Pos+0x100>
    1892:	b0 92 80 0a 	sts	0x0A80, r11	; 0x800a80 <block_list_runter>
    1896:	80 81       	ld	r24, Z
    1898:	fb de       	rcall	.-522    	; 0x1690 <lese_textfile_in_zutat>
    189a:	e0 91 50 0a 	lds	r30, 0x0A50	; 0x800a50 <aktuelle_zutat>
    189e:	f0 91 51 0a 	lds	r31, 0x0A51	; 0x800a51 <aktuelle_zutat+0x1>
    18a2:	60 81       	ld	r22, Z
    18a4:	71 81       	ldd	r23, Z+1	; 0x01
    18a6:	ce 01       	movw	r24, r28
    18a8:	01 96       	adiw	r24, 0x01	; 1
    18aa:	0e 94 1c 2c 	call	0x5838	; 0x5838 <nextion_setText>
    18ae:	21 c0       	rjmp	.+66     	; 0x18f2 <erstelle_Liste_Zutat_Pos+0x13a>
    18b0:	80 91 80 0a 	lds	r24, 0x0A80	; 0x800a80 <block_list_runter>
    18b4:	88 23       	and	r24, r24
    18b6:	89 f0       	breq	.+34     	; 0x18da <erstelle_Liste_Zutat_Pos+0x122>
    18b8:	6c e8       	ldi	r22, 0x8C	; 140
    18ba:	74 e0       	ldi	r23, 0x04	; 4
    18bc:	ce 01       	movw	r24, r28
    18be:	01 96       	adiw	r24, 0x01	; 1
    18c0:	0e 94 1c 2c 	call	0x5838	; 0x5838 <nextion_setText>
    18c4:	8f e3       	ldi	r24, 0x3F	; 63
    18c6:	9c e9       	ldi	r25, 0x9C	; 156
    18c8:	01 97       	sbiw	r24, 0x01	; 1
    18ca:	f1 f7       	brne	.-4      	; 0x18c8 <erstelle_Liste_Zutat_Pos+0x110>
    18cc:	00 c0       	rjmp	.+0      	; 0x18ce <erstelle_Liste_Zutat_Pos+0x116>
    18ce:	00 00       	nop
    18d0:	ce 01       	movw	r24, r28
    18d2:	01 96       	adiw	r24, 0x01	; 1
    18d4:	0e 94 c5 2c 	call	0x598a	; 0x598a <nextion_disableButton>
    18d8:	0c c0       	rjmp	.+24     	; 0x18f2 <erstelle_Liste_Zutat_Pos+0x13a>
    18da:	80 81       	ld	r24, Z
    18dc:	d9 de       	rcall	.-590    	; 0x1690 <lese_textfile_in_zutat>
    18de:	e0 91 50 0a 	lds	r30, 0x0A50	; 0x800a50 <aktuelle_zutat>
    18e2:	f0 91 51 0a 	lds	r31, 0x0A51	; 0x800a51 <aktuelle_zutat+0x1>
    18e6:	60 81       	ld	r22, Z
    18e8:	71 81       	ldd	r23, Z+1	; 0x01
    18ea:	ce 01       	movw	r24, r28
    18ec:	01 96       	adiw	r24, 0x01	; 1
    18ee:	0e 94 1c 2c 	call	0x5838	; 0x5838 <nextion_setText>
    18f2:	20 91 c3 0f 	lds	r18, 0x0FC3	; 0x800fc3 <aktuelles_zutat_file>
    18f6:	30 91 c4 0f 	lds	r19, 0x0FC4	; 0x800fc4 <aktuelles_zutat_file+0x1>
    18fa:	80 91 54 0a 	lds	r24, 0x0A54	; 0x800a54 <tail_zutat_file>
    18fe:	90 91 55 0a 	lds	r25, 0x0A55	; 0x800a55 <tail_zutat_file+0x1>
    1902:	28 17       	cp	r18, r24
    1904:	39 07       	cpc	r19, r25
    1906:	31 f4       	brne	.+12     	; 0x1914 <erstelle_Liste_Zutat_Pos+0x15c>
    1908:	80 91 80 0a 	lds	r24, 0x0A80	; 0x800a80 <block_list_runter>
    190c:	81 11       	cpse	r24, r1
    190e:	02 c0       	rjmp	.+4      	; 0x1914 <erstelle_Liste_Zutat_Pos+0x15c>
    1910:	b0 92 9b 0e 	sts	0x0E9B, r11	; 0x800e9b <block_list_hoch>
    1914:	e0 91 50 0a 	lds	r30, 0x0A50	; 0x800a50 <aktuelle_zutat>
    1918:	f0 91 51 0a 	lds	r31, 0x0A51	; 0x800a51 <aktuelle_zutat+0x1>
    191c:	60 81       	ld	r22, Z
    191e:	71 81       	ldd	r23, Z+1	; 0x01
    1920:	e0 91 46 0a 	lds	r30, 0x0A46	; 0x800a46 <aktuelleZutatInMaschine>
    1924:	f0 91 47 0a 	lds	r31, 0x0A47	; 0x800a47 <aktuelleZutatInMaschine+0x1>
    1928:	80 81       	ld	r24, Z
    192a:	91 81       	ldd	r25, Z+1	; 0x01
    192c:	0e 94 87 48 	call	0x910e	; 0x910e <strcmp>
    1930:	89 2b       	or	r24, r25
    1932:	b9 f4       	brne	.+46     	; 0x1962 <erstelle_Liste_Zutat_Pos+0x1aa>
    1934:	be 01       	movw	r22, r28
    1936:	6f 5f       	subi	r22, 0xFF	; 255
    1938:	7f 4f       	sbci	r23, 0xFF	; 255
    193a:	c6 01       	movw	r24, r12
    193c:	0e 94 90 48 	call	0x9120	; 0x9120 <strcpy>
    1940:	d6 01       	movw	r26, r12
    1942:	0d 90       	ld	r0, X+
    1944:	00 20       	and	r0, r0
    1946:	e9 f7       	brne	.-6      	; 0x1942 <erstelle_Liste_Zutat_Pos+0x18a>
    1948:	11 97       	sbiw	r26, 0x01	; 1
    194a:	8a e0       	ldi	r24, 0x0A	; 10
    194c:	e8 eb       	ldi	r30, 0xB8	; 184
    194e:	f4 e0       	ldi	r31, 0x04	; 4
    1950:	01 90       	ld	r0, Z+
    1952:	0d 92       	st	X+, r0
    1954:	8a 95       	dec	r24
    1956:	e1 f7       	brne	.-8      	; 0x1950 <erstelle_Liste_Zutat_Pos+0x198>
    1958:	c6 01       	movw	r24, r12
    195a:	0e 94 64 41 	call	0x82c8	; 0x82c8 <Uart_Transmit_IT_Display>
    195e:	0e 94 e7 2b 	call	0x57ce	; 0x57ce <endConversation>
    1962:	e0 91 c3 0f 	lds	r30, 0x0FC3	; 0x800fc3 <aktuelles_zutat_file>
    1966:	f0 91 c4 0f 	lds	r31, 0x0FC4	; 0x800fc4 <aktuelles_zutat_file+0x1>
    196a:	83 81       	ldd	r24, Z+3	; 0x03
    196c:	94 81       	ldd	r25, Z+4	; 0x04
    196e:	90 93 c4 0f 	sts	0x0FC4, r25	; 0x800fc4 <aktuelles_zutat_file+0x1>
    1972:	80 93 c3 0f 	sts	0x0FC3, r24	; 0x800fc3 <aktuelles_zutat_file>
    1976:	af e9       	ldi	r26, 0x9F	; 159
    1978:	bf e0       	ldi	r27, 0x0F	; 15
    197a:	11 97       	sbiw	r26, 0x01	; 1
    197c:	f1 f7       	brne	.-4      	; 0x197a <erstelle_Liste_Zutat_Pos+0x1c2>
    197e:	00 c0       	rjmp	.+0      	; 0x1980 <erstelle_Liste_Zutat_Pos+0x1c8>
    1980:	00 00       	nop
    1982:	06 30       	cpi	r16, 0x06	; 6
    1984:	11 05       	cpc	r17, r1
    1986:	09 f0       	breq	.+2      	; 0x198a <erstelle_Liste_Zutat_Pos+0x1d2>
    1988:	60 cf       	rjmp	.-320    	; 0x184a <erstelle_Liste_Zutat_Pos+0x92>
    198a:	c7 59       	subi	r28, 0x97	; 151
    198c:	df 4f       	sbci	r29, 0xFF	; 255
    198e:	0f b6       	in	r0, 0x3f	; 63
    1990:	f8 94       	cli
    1992:	de bf       	out	0x3e, r29	; 62
    1994:	0f be       	out	0x3f, r0	; 63
    1996:	cd bf       	out	0x3d, r28	; 61
    1998:	df 91       	pop	r29
    199a:	cf 91       	pop	r28
    199c:	1f 91       	pop	r17
    199e:	0f 91       	pop	r16
    19a0:	ff 90       	pop	r15
    19a2:	ef 90       	pop	r14
    19a4:	df 90       	pop	r13
    19a6:	cf 90       	pop	r12
    19a8:	bf 90       	pop	r11
    19aa:	08 95       	ret

000019ac <setze_Posanzeige_Rot_Gruen>:
    19ac:	cf 92       	push	r12
    19ae:	df 92       	push	r13
    19b0:	ef 92       	push	r14
    19b2:	ff 92       	push	r15
    19b4:	0f 93       	push	r16
    19b6:	1f 93       	push	r17
    19b8:	cf 93       	push	r28
    19ba:	df 93       	push	r29
    19bc:	cd b7       	in	r28, 0x3d	; 61
    19be:	de b7       	in	r29, 0x3e	; 62
    19c0:	ec 97       	sbiw	r28, 0x3c	; 60
    19c2:	0f b6       	in	r0, 0x3f	; 63
    19c4:	f8 94       	cli
    19c6:	de bf       	out	0x3e, r29	; 62
    19c8:	0f be       	out	0x3f, r0	; 63
    19ca:	cd bf       	out	0x3d, r28	; 61
    19cc:	80 91 a7 0f 	lds	r24, 0x0FA7	; 0x800fa7 <tail_zut_in_Maschine>
    19d0:	90 91 a8 0f 	lds	r25, 0x0FA8	; 0x800fa8 <tail_zut_in_Maschine+0x1>
    19d4:	90 93 47 0a 	sts	0x0A47, r25	; 0x800a47 <aktuelleZutatInMaschine+0x1>
    19d8:	80 93 46 0a 	sts	0x0A46, r24	; 0x800a46 <aktuelleZutatInMaschine>
    19dc:	00 e0       	ldi	r16, 0x00	; 0
    19de:	10 e0       	ldi	r17, 0x00	; 0
    19e0:	0f 2e       	mov	r0, r31
    19e2:	f2 e6       	ldi	r31, 0x62	; 98
    19e4:	cf 2e       	mov	r12, r31
    19e6:	d1 2c       	mov	r13, r1
    19e8:	f0 2d       	mov	r31, r0
    19ea:	ce 01       	movw	r24, r28
    19ec:	01 96       	adiw	r24, 0x01	; 1
    19ee:	7c 01       	movw	r14, r24
    19f0:	da 82       	std	Y+2, r13	; 0x02
    19f2:	c9 82       	std	Y+1, r12	; 0x01
    19f4:	4a e0       	ldi	r20, 0x0A	; 10
    19f6:	be 01       	movw	r22, r28
    19f8:	6d 5c       	subi	r22, 0xCD	; 205
    19fa:	7f 4f       	sbci	r23, 0xFF	; 255
    19fc:	c8 01       	movw	r24, r16
    19fe:	0e 94 be 48 	call	0x917c	; 0x917c <__itoa_ncheck>
    1a02:	be 01       	movw	r22, r28
    1a04:	6d 5c       	subi	r22, 0xCD	; 205
    1a06:	7f 4f       	sbci	r23, 0xFF	; 255
    1a08:	c7 01       	movw	r24, r14
    1a0a:	0e 94 7c 48 	call	0x90f8	; 0x90f8 <strcat>
    1a0e:	e0 91 46 0a 	lds	r30, 0x0A46	; 0x800a46 <aktuelleZutatInMaschine>
    1a12:	f0 91 47 0a 	lds	r31, 0x0A47	; 0x800a47 <aktuelleZutatInMaschine+0x1>
    1a16:	82 81       	ldd	r24, Z+2	; 0x02
    1a18:	81 30       	cpi	r24, 0x01	; 1
    1a1a:	89 f0       	breq	.+34     	; 0x1a3e <setze_Posanzeige_Rot_Gruen+0x92>
    1a1c:	18 f0       	brcs	.+6      	; 0x1a24 <setze_Posanzeige_Rot_Gruen+0x78>
    1a1e:	82 30       	cpi	r24, 0x02	; 2
    1a20:	d9 f0       	breq	.+54     	; 0x1a58 <setze_Posanzeige_Rot_Gruen+0xac>
    1a22:	26 c0       	rjmp	.+76     	; 0x1a70 <setze_Posanzeige_Rot_Gruen+0xc4>
    1a24:	d7 01       	movw	r26, r14
    1a26:	0d 90       	ld	r0, X+
    1a28:	00 20       	and	r0, r0
    1a2a:	e9 f7       	brne	.-6      	; 0x1a26 <setze_Posanzeige_Rot_Gruen+0x7a>
    1a2c:	11 97       	sbiw	r26, 0x01	; 1
    1a2e:	87 e0       	ldi	r24, 0x07	; 7
    1a30:	e2 ec       	ldi	r30, 0xC2	; 194
    1a32:	f4 e0       	ldi	r31, 0x04	; 4
    1a34:	01 90       	ld	r0, Z+
    1a36:	0d 92       	st	X+, r0
    1a38:	8a 95       	dec	r24
    1a3a:	e1 f7       	brne	.-8      	; 0x1a34 <setze_Posanzeige_Rot_Gruen+0x88>
    1a3c:	19 c0       	rjmp	.+50     	; 0x1a70 <setze_Posanzeige_Rot_Gruen+0xc4>
    1a3e:	d7 01       	movw	r26, r14
    1a40:	0d 90       	ld	r0, X+
    1a42:	00 20       	and	r0, r0
    1a44:	e9 f7       	brne	.-6      	; 0x1a40 <setze_Posanzeige_Rot_Gruen+0x94>
    1a46:	11 97       	sbiw	r26, 0x01	; 1
    1a48:	8a e0       	ldi	r24, 0x0A	; 10
    1a4a:	e8 eb       	ldi	r30, 0xB8	; 184
    1a4c:	f4 e0       	ldi	r31, 0x04	; 4
    1a4e:	01 90       	ld	r0, Z+
    1a50:	0d 92       	st	X+, r0
    1a52:	8a 95       	dec	r24
    1a54:	e1 f7       	brne	.-8      	; 0x1a4e <setze_Posanzeige_Rot_Gruen+0xa2>
    1a56:	0c c0       	rjmp	.+24     	; 0x1a70 <setze_Posanzeige_Rot_Gruen+0xc4>
    1a58:	d7 01       	movw	r26, r14
    1a5a:	0d 90       	ld	r0, X+
    1a5c:	00 20       	and	r0, r0
    1a5e:	e9 f7       	brne	.-6      	; 0x1a5a <setze_Posanzeige_Rot_Gruen+0xae>
    1a60:	11 97       	sbiw	r26, 0x01	; 1
    1a62:	8b e0       	ldi	r24, 0x0B	; 11
    1a64:	e9 ec       	ldi	r30, 0xC9	; 201
    1a66:	f4 e0       	ldi	r31, 0x04	; 4
    1a68:	01 90       	ld	r0, Z+
    1a6a:	0d 92       	st	X+, r0
    1a6c:	8a 95       	dec	r24
    1a6e:	e1 f7       	brne	.-8      	; 0x1a68 <setze_Posanzeige_Rot_Gruen+0xbc>
    1a70:	c7 01       	movw	r24, r14
    1a72:	0e 94 64 41 	call	0x82c8	; 0x82c8 <Uart_Transmit_IT_Display>
    1a76:	0e 94 e7 2b 	call	0x57ce	; 0x57ce <endConversation>
    1a7a:	e0 91 46 0a 	lds	r30, 0x0A46	; 0x800a46 <aktuelleZutatInMaschine>
    1a7e:	f0 91 47 0a 	lds	r31, 0x0A47	; 0x800a47 <aktuelleZutatInMaschine+0x1>
    1a82:	84 85       	ldd	r24, Z+12	; 0x0c
    1a84:	95 85       	ldd	r25, Z+13	; 0x0d
    1a86:	90 93 47 0a 	sts	0x0A47, r25	; 0x800a47 <aktuelleZutatInMaschine+0x1>
    1a8a:	80 93 46 0a 	sts	0x0A46, r24	; 0x800a46 <aktuelleZutatInMaschine>
    1a8e:	0f 5f       	subi	r16, 0xFF	; 255
    1a90:	1f 4f       	sbci	r17, 0xFF	; 255
    1a92:	0c 30       	cpi	r16, 0x0C	; 12
    1a94:	11 05       	cpc	r17, r1
    1a96:	09 f0       	breq	.+2      	; 0x1a9a <setze_Posanzeige_Rot_Gruen+0xee>
    1a98:	ab cf       	rjmp	.-170    	; 0x19f0 <setze_Posanzeige_Rot_Gruen+0x44>
    1a9a:	ec 96       	adiw	r28, 0x3c	; 60
    1a9c:	0f b6       	in	r0, 0x3f	; 63
    1a9e:	f8 94       	cli
    1aa0:	de bf       	out	0x3e, r29	; 62
    1aa2:	0f be       	out	0x3f, r0	; 63
    1aa4:	cd bf       	out	0x3d, r28	; 61
    1aa6:	df 91       	pop	r29
    1aa8:	cf 91       	pop	r28
    1aaa:	1f 91       	pop	r17
    1aac:	0f 91       	pop	r16
    1aae:	ff 90       	pop	r15
    1ab0:	ef 90       	pop	r14
    1ab2:	df 90       	pop	r13
    1ab4:	cf 90       	pop	r12
    1ab6:	08 95       	ret

00001ab8 <setze_aktuelle_Zutat_in_Maschine_prev>:
    1ab8:	e0 91 a7 0f 	lds	r30, 0x0FA7	; 0x800fa7 <tail_zut_in_Maschine>
    1abc:	f0 91 a8 0f 	lds	r31, 0x0FA8	; 0x800fa8 <tail_zut_in_Maschine+0x1>
    1ac0:	f0 93 47 0a 	sts	0x0A47, r31	; 0x800a47 <aktuelleZutatInMaschine+0x1>
    1ac4:	e0 93 46 0a 	sts	0x0A46, r30	; 0x800a46 <aktuelleZutatInMaschine>
    1ac8:	90 e0       	ldi	r25, 0x00	; 0
    1aca:	18 16       	cp	r1, r24
    1acc:	19 06       	cpc	r1, r25
    1ace:	74 f4       	brge	.+28     	; 0x1aec <setze_aktuelle_Zutat_in_Maschine_prev+0x34>
    1ad0:	20 e0       	ldi	r18, 0x00	; 0
    1ad2:	30 e0       	ldi	r19, 0x00	; 0
    1ad4:	04 84       	ldd	r0, Z+12	; 0x0c
    1ad6:	f5 85       	ldd	r31, Z+13	; 0x0d
    1ad8:	e0 2d       	mov	r30, r0
    1ada:	2f 5f       	subi	r18, 0xFF	; 255
    1adc:	3f 4f       	sbci	r19, 0xFF	; 255
    1ade:	28 17       	cp	r18, r24
    1ae0:	39 07       	cpc	r19, r25
    1ae2:	c1 f7       	brne	.-16     	; 0x1ad4 <setze_aktuelle_Zutat_in_Maschine_prev+0x1c>
    1ae4:	f0 93 47 0a 	sts	0x0A47, r31	; 0x800a47 <aktuelleZutatInMaschine+0x1>
    1ae8:	e0 93 46 0a 	sts	0x0A46, r30	; 0x800a46 <aktuelleZutatInMaschine>
    1aec:	08 95       	ret

00001aee <setze_Fluessgkeit_in_Position>:
    1aee:	8f 92       	push	r8
    1af0:	9f 92       	push	r9
    1af2:	af 92       	push	r10
    1af4:	bf 92       	push	r11
    1af6:	cf 92       	push	r12
    1af8:	df 92       	push	r13
    1afa:	ef 92       	push	r14
    1afc:	ff 92       	push	r15
    1afe:	0f 93       	push	r16
    1b00:	1f 93       	push	r17
    1b02:	cf 93       	push	r28
    1b04:	df 93       	push	r29
    1b06:	cd b7       	in	r28, 0x3d	; 61
    1b08:	de b7       	in	r29, 0x3e	; 62
    1b0a:	c9 56       	subi	r28, 0x69	; 105
    1b0c:	d2 40       	sbci	r29, 0x02	; 2
    1b0e:	0f b6       	in	r0, 0x3f	; 63
    1b10:	f8 94       	cli
    1b12:	de bf       	out	0x3e, r29	; 62
    1b14:	0f be       	out	0x3f, r0	; 63
    1b16:	cd bf       	out	0x3d, r28	; 61
    1b18:	16 2f       	mov	r17, r22
    1b1a:	86 30       	cpi	r24, 0x06	; 6
    1b1c:	91 f5       	brne	.+100    	; 0x1b82 <setze_Fluessgkeit_in_Position+0x94>
    1b1e:	e0 91 46 0a 	lds	r30, 0x0A46	; 0x800a46 <aktuelleZutatInMaschine>
    1b22:	f0 91 47 0a 	lds	r31, 0x0A47	; 0x800a47 <aktuelleZutatInMaschine+0x1>
    1b26:	a0 81       	ld	r26, Z
    1b28:	b1 81       	ldd	r27, Z+1	; 0x01
    1b2a:	fd 01       	movw	r30, r26
    1b2c:	01 90       	ld	r0, Z+
    1b2e:	00 20       	and	r0, r0
    1b30:	e9 f7       	brne	.-6      	; 0x1b2c <setze_Fluessgkeit_in_Position+0x3e>
    1b32:	31 97       	sbiw	r30, 0x01	; 1
    1b34:	9f 01       	movw	r18, r30
    1b36:	2a 1b       	sub	r18, r26
    1b38:	3b 0b       	sbc	r19, r27
    1b3a:	33 27       	eor	r19, r19
    1b3c:	2f 5f       	subi	r18, 0xFF	; 255
    1b3e:	3f 4f       	sbci	r19, 0xFF	; 255
    1b40:	80 e0       	ldi	r24, 0x00	; 0
    1b42:	90 e0       	ldi	r25, 0x00	; 0
    1b44:	e0 91 46 0a 	lds	r30, 0x0A46	; 0x800a46 <aktuelleZutatInMaschine>
    1b48:	f0 91 47 0a 	lds	r31, 0x0A47	; 0x800a47 <aktuelleZutatInMaschine+0x1>
    1b4c:	01 90       	ld	r0, Z+
    1b4e:	f0 81       	ld	r31, Z
    1b50:	e0 2d       	mov	r30, r0
    1b52:	e8 0f       	add	r30, r24
    1b54:	f9 1f       	adc	r31, r25
    1b56:	10 82       	st	Z, r1
    1b58:	01 96       	adiw	r24, 0x01	; 1
    1b5a:	82 17       	cp	r24, r18
    1b5c:	93 07       	cpc	r25, r19
    1b5e:	94 f3       	brlt	.-28     	; 0x1b44 <setze_Fluessgkeit_in_Position+0x56>
    1b60:	b6 c1       	rjmp	.+876    	; 0x1ece <setze_Fluessgkeit_in_Position+0x3e0>
    1b62:	2d 91       	ld	r18, X+
    1b64:	e0 91 46 0a 	lds	r30, 0x0A46	; 0x800a46 <aktuelleZutatInMaschine>
    1b68:	f0 91 47 0a 	lds	r31, 0x0A47	; 0x800a47 <aktuelleZutatInMaschine+0x1>
    1b6c:	01 90       	ld	r0, Z+
    1b6e:	f0 81       	ld	r31, Z
    1b70:	e0 2d       	mov	r30, r0
    1b72:	e8 0f       	add	r30, r24
    1b74:	f9 1f       	adc	r31, r25
    1b76:	20 83       	st	Z, r18
    1b78:	01 96       	adiw	r24, 0x01	; 1
    1b7a:	88 30       	cpi	r24, 0x08	; 8
    1b7c:	91 05       	cpc	r25, r1
    1b7e:	89 f7       	brne	.-30     	; 0x1b62 <setze_Fluessgkeit_in_Position+0x74>
    1b80:	7d c0       	rjmp	.+250    	; 0x1c7c <setze_Fluessgkeit_in_Position+0x18e>
    1b82:	87 30       	cpi	r24, 0x07	; 7
    1b84:	61 f5       	brne	.+88     	; 0x1bde <setze_Fluessgkeit_in_Position+0xf0>
    1b86:	e0 91 50 0a 	lds	r30, 0x0A50	; 0x800a50 <aktuelle_zutat>
    1b8a:	f0 91 51 0a 	lds	r31, 0x0A51	; 0x800a51 <aktuelle_zutat+0x1>
    1b8e:	a0 81       	ld	r26, Z
    1b90:	b1 81       	ldd	r27, Z+1	; 0x01
    1b92:	fd 01       	movw	r30, r26
    1b94:	01 90       	ld	r0, Z+
    1b96:	00 20       	and	r0, r0
    1b98:	e9 f7       	brne	.-6      	; 0x1b94 <setze_Fluessgkeit_in_Position+0xa6>
    1b9a:	31 97       	sbiw	r30, 0x01	; 1
    1b9c:	af 01       	movw	r20, r30
    1b9e:	4a 1b       	sub	r20, r26
    1ba0:	5b 0b       	sbc	r21, r27
    1ba2:	55 27       	eor	r21, r21
    1ba4:	4f 5f       	subi	r20, 0xFF	; 255
    1ba6:	5f 4f       	sbci	r21, 0xFF	; 255
    1ba8:	80 e0       	ldi	r24, 0x00	; 0
    1baa:	90 e0       	ldi	r25, 0x00	; 0
    1bac:	e0 91 50 0a 	lds	r30, 0x0A50	; 0x800a50 <aktuelle_zutat>
    1bb0:	f0 91 51 0a 	lds	r31, 0x0A51	; 0x800a51 <aktuelle_zutat+0x1>
    1bb4:	01 90       	ld	r0, Z+
    1bb6:	f0 81       	ld	r31, Z
    1bb8:	e0 2d       	mov	r30, r0
    1bba:	e8 0f       	add	r30, r24
    1bbc:	f9 1f       	adc	r31, r25
    1bbe:	20 81       	ld	r18, Z
    1bc0:	e0 91 46 0a 	lds	r30, 0x0A46	; 0x800a46 <aktuelleZutatInMaschine>
    1bc4:	f0 91 47 0a 	lds	r31, 0x0A47	; 0x800a47 <aktuelleZutatInMaschine+0x1>
    1bc8:	01 90       	ld	r0, Z+
    1bca:	f0 81       	ld	r31, Z
    1bcc:	e0 2d       	mov	r30, r0
    1bce:	e8 0f       	add	r30, r24
    1bd0:	f9 1f       	adc	r31, r25
    1bd2:	20 83       	st	Z, r18
    1bd4:	01 96       	adiw	r24, 0x01	; 1
    1bd6:	84 17       	cp	r24, r20
    1bd8:	95 07       	cpc	r25, r21
    1bda:	44 f3       	brlt	.-48     	; 0x1bac <setze_Fluessgkeit_in_Position+0xbe>
    1bdc:	4f c0       	rjmp	.+158    	; 0x1c7c <setze_Fluessgkeit_in_Position+0x18e>
    1bde:	e0 91 54 0a 	lds	r30, 0x0A54	; 0x800a54 <tail_zutat_file>
    1be2:	f0 91 55 0a 	lds	r31, 0x0A55	; 0x800a55 <tail_zutat_file+0x1>
    1be6:	f0 93 c4 0f 	sts	0x0FC4, r31	; 0x800fc4 <aktuelles_zutat_file+0x1>
    1bea:	e0 93 c3 0f 	sts	0x0FC3, r30	; 0x800fc3 <aktuelles_zutat_file>
    1bee:	20 91 d1 12 	lds	r18, 0x12D1	; 0x8012d1 <i_Liste>
    1bf2:	90 e0       	ldi	r25, 0x00	; 0
    1bf4:	82 0f       	add	r24, r18
    1bf6:	91 1d       	adc	r25, r1
    1bf8:	18 16       	cp	r1, r24
    1bfa:	19 06       	cpc	r1, r25
    1bfc:	74 f4       	brge	.+28     	; 0x1c1a <setze_Fluessgkeit_in_Position+0x12c>
    1bfe:	20 e0       	ldi	r18, 0x00	; 0
    1c00:	30 e0       	ldi	r19, 0x00	; 0
    1c02:	03 80       	ldd	r0, Z+3	; 0x03
    1c04:	f4 81       	ldd	r31, Z+4	; 0x04
    1c06:	e0 2d       	mov	r30, r0
    1c08:	2f 5f       	subi	r18, 0xFF	; 255
    1c0a:	3f 4f       	sbci	r19, 0xFF	; 255
    1c0c:	28 17       	cp	r18, r24
    1c0e:	39 07       	cpc	r19, r25
    1c10:	c1 f7       	brne	.-16     	; 0x1c02 <setze_Fluessgkeit_in_Position+0x114>
    1c12:	f0 93 c4 0f 	sts	0x0FC4, r31	; 0x800fc4 <aktuelles_zutat_file+0x1>
    1c16:	e0 93 c3 0f 	sts	0x0FC3, r30	; 0x800fc3 <aktuelles_zutat_file>
    1c1a:	e0 91 c3 0f 	lds	r30, 0x0FC3	; 0x800fc3 <aktuelles_zutat_file>
    1c1e:	f0 91 c4 0f 	lds	r31, 0x0FC4	; 0x800fc4 <aktuelles_zutat_file+0x1>
    1c22:	80 81       	ld	r24, Z
    1c24:	35 dd       	rcall	.-1430   	; 0x1690 <lese_textfile_in_zutat>
    1c26:	e0 91 50 0a 	lds	r30, 0x0A50	; 0x800a50 <aktuelle_zutat>
    1c2a:	f0 91 51 0a 	lds	r31, 0x0A51	; 0x800a51 <aktuelle_zutat+0x1>
    1c2e:	a0 81       	ld	r26, Z
    1c30:	b1 81       	ldd	r27, Z+1	; 0x01
    1c32:	fd 01       	movw	r30, r26
    1c34:	01 90       	ld	r0, Z+
    1c36:	00 20       	and	r0, r0
    1c38:	e9 f7       	brne	.-6      	; 0x1c34 <setze_Fluessgkeit_in_Position+0x146>
    1c3a:	31 97       	sbiw	r30, 0x01	; 1
    1c3c:	af 01       	movw	r20, r30
    1c3e:	4a 1b       	sub	r20, r26
    1c40:	5b 0b       	sbc	r21, r27
    1c42:	55 27       	eor	r21, r21
    1c44:	4f 5f       	subi	r20, 0xFF	; 255
    1c46:	5f 4f       	sbci	r21, 0xFF	; 255
    1c48:	80 e0       	ldi	r24, 0x00	; 0
    1c4a:	90 e0       	ldi	r25, 0x00	; 0
    1c4c:	e0 91 50 0a 	lds	r30, 0x0A50	; 0x800a50 <aktuelle_zutat>
    1c50:	f0 91 51 0a 	lds	r31, 0x0A51	; 0x800a51 <aktuelle_zutat+0x1>
    1c54:	01 90       	ld	r0, Z+
    1c56:	f0 81       	ld	r31, Z
    1c58:	e0 2d       	mov	r30, r0
    1c5a:	e8 0f       	add	r30, r24
    1c5c:	f9 1f       	adc	r31, r25
    1c5e:	20 81       	ld	r18, Z
    1c60:	e0 91 46 0a 	lds	r30, 0x0A46	; 0x800a46 <aktuelleZutatInMaschine>
    1c64:	f0 91 47 0a 	lds	r31, 0x0A47	; 0x800a47 <aktuelleZutatInMaschine+0x1>
    1c68:	01 90       	ld	r0, Z+
    1c6a:	f0 81       	ld	r31, Z
    1c6c:	e0 2d       	mov	r30, r0
    1c6e:	e8 0f       	add	r30, r24
    1c70:	f9 1f       	adc	r31, r25
    1c72:	20 83       	st	Z, r18
    1c74:	01 96       	adiw	r24, 0x01	; 1
    1c76:	84 17       	cp	r24, r20
    1c78:	95 07       	cpc	r25, r21
    1c7a:	44 f3       	brlt	.-48     	; 0x1c4c <setze_Fluessgkeit_in_Position+0x15e>
    1c7c:	e0 91 46 0a 	lds	r30, 0x0A46	; 0x800a46 <aktuelleZutatInMaschine>
    1c80:	f0 91 47 0a 	lds	r31, 0x0A47	; 0x800a47 <aktuelleZutatInMaschine+0x1>
    1c84:	12 83       	std	Z+2, r17	; 0x02
    1c86:	83 e1       	ldi	r24, 0x13	; 19
    1c88:	0e 94 fd 2b 	call	0x57fa	; 0x57fa <nextion_change_page>
    1c8c:	8e 01       	movw	r16, r28
    1c8e:	0f 5f       	subi	r16, 0xFF	; 255
    1c90:	1f 4f       	sbci	r17, 0xFF	; 255
    1c92:	82 e3       	ldi	r24, 0x32	; 50
    1c94:	d8 01       	movw	r26, r16
    1c96:	1d 92       	st	X+, r1
    1c98:	8a 95       	dec	r24
    1c9a:	e9 f7       	brne	.-6      	; 0x1c96 <setze_Fluessgkeit_in_Position+0x1a8>
    1c9c:	7e 01       	movw	r14, r28
    1c9e:	b3 e3       	ldi	r27, 0x33	; 51
    1ca0:	eb 0e       	add	r14, r27
    1ca2:	f1 1c       	adc	r15, r1
    1ca4:	85 e0       	ldi	r24, 0x05	; 5
    1ca6:	f7 01       	movw	r30, r14
    1ca8:	11 92       	st	Z+, r1
    1caa:	8a 95       	dec	r24
    1cac:	e9 f7       	brne	.-6      	; 0x1ca8 <setze_Fluessgkeit_in_Position+0x1ba>
    1cae:	8e e4       	ldi	r24, 0x4E	; 78
    1cb0:	92 e7       	ldi	r25, 0x72	; 114
    1cb2:	9a 83       	std	Y+2, r25	; 0x02
    1cb4:	89 83       	std	Y+1, r24	; 0x01
    1cb6:	8e e2       	ldi	r24, 0x2E	; 46
    1cb8:	90 e0       	ldi	r25, 0x00	; 0
    1cba:	9c 83       	std	Y+4, r25	; 0x04
    1cbc:	8b 83       	std	Y+3, r24	; 0x03
    1cbe:	e0 91 46 0a 	lds	r30, 0x0A46	; 0x800a46 <aktuelleZutatInMaschine>
    1cc2:	f0 91 47 0a 	lds	r31, 0x0A47	; 0x800a47 <aktuelleZutatInMaschine+0x1>
    1cc6:	85 81       	ldd	r24, Z+5	; 0x05
    1cc8:	90 e0       	ldi	r25, 0x00	; 0
    1cca:	4a e0       	ldi	r20, 0x0A	; 10
    1ccc:	b7 01       	movw	r22, r14
    1cce:	01 96       	adiw	r24, 0x01	; 1
    1cd0:	0e 94 be 48 	call	0x917c	; 0x917c <__itoa_ncheck>
    1cd4:	b7 01       	movw	r22, r14
    1cd6:	c8 01       	movw	r24, r16
    1cd8:	0e 94 7c 48 	call	0x90f8	; 0x90f8 <strcat>
    1cdc:	f8 01       	movw	r30, r16
    1cde:	01 90       	ld	r0, Z+
    1ce0:	00 20       	and	r0, r0
    1ce2:	e9 f7       	brne	.-6      	; 0x1cde <setze_Fluessgkeit_in_Position+0x1f0>
    1ce4:	31 97       	sbiw	r30, 0x01	; 1
    1ce6:	80 e2       	ldi	r24, 0x20	; 32
    1ce8:	9d e3       	ldi	r25, 0x3D	; 61
    1cea:	91 83       	std	Z+1, r25	; 0x01
    1cec:	80 83       	st	Z, r24
    1cee:	80 e2       	ldi	r24, 0x20	; 32
    1cf0:	90 e0       	ldi	r25, 0x00	; 0
    1cf2:	93 83       	std	Z+3, r25	; 0x03
    1cf4:	82 83       	std	Z+2, r24	; 0x02
    1cf6:	e0 91 46 0a 	lds	r30, 0x0A46	; 0x800a46 <aktuelleZutatInMaschine>
    1cfa:	f0 91 47 0a 	lds	r31, 0x0A47	; 0x800a47 <aktuelleZutatInMaschine+0x1>
    1cfe:	60 81       	ld	r22, Z
    1d00:	71 81       	ldd	r23, Z+1	; 0x01
    1d02:	c8 01       	movw	r24, r16
    1d04:	0e 94 7c 48 	call	0x90f8	; 0x90f8 <strcat>
    1d08:	b8 01       	movw	r22, r16
    1d0a:	84 ed       	ldi	r24, 0xD4	; 212
    1d0c:	94 e0       	ldi	r25, 0x04	; 4
    1d0e:	0e 94 1c 2c 	call	0x5838	; 0x5838 <nextion_setText>
    1d12:	4c de       	rcall	.-872    	; 0x19ac <setze_Posanzeige_Rot_Gruen>
    1d14:	10 92 9b 0e 	sts	0x0E9B, r1	; 0x800e9b <block_list_hoch>
    1d18:	10 92 80 0a 	sts	0x0A80, r1	; 0x800a80 <block_list_runter>
    1d1c:	10 92 d1 12 	sts	0x12D1, r1	; 0x8012d1 <i_Liste>
    1d20:	ce 01       	movw	r24, r28
    1d22:	c8 96       	adiw	r24, 0x38	; 56
    1d24:	24 e1       	ldi	r18, 0x14	; 20
    1d26:	dc 01       	movw	r26, r24
    1d28:	1d 92       	st	X+, r1
    1d2a:	2a 95       	dec	r18
    1d2c:	e9 f7       	brne	.-6      	; 0x1d28 <setze_Fluessgkeit_in_Position+0x23a>
    1d2e:	26 e0       	ldi	r18, 0x06	; 6
    1d30:	ef ed       	ldi	r30, 0xDF	; 223
    1d32:	f4 e0       	ldi	r31, 0x04	; 4
    1d34:	dc 01       	movw	r26, r24
    1d36:	01 90       	ld	r0, Z+
    1d38:	0d 92       	st	X+, r0
    1d3a:	2a 95       	dec	r18
    1d3c:	e1 f7       	brne	.-8      	; 0x1d36 <setze_Fluessgkeit_in_Position+0x248>
    1d3e:	0e 94 21 34 	call	0x6842	; 0x6842 <deleteFile>
    1d42:	fe 01       	movw	r30, r28
    1d44:	e4 5b       	subi	r30, 0xB4	; 180
    1d46:	ff 4f       	sbci	r31, 0xFF	; 255
    1d48:	80 e0       	ldi	r24, 0x00	; 0
    1d4a:	92 e0       	ldi	r25, 0x02	; 2
    1d4c:	df 01       	movw	r26, r30
    1d4e:	9c 01       	movw	r18, r24
    1d50:	1d 92       	st	X+, r1
    1d52:	21 50       	subi	r18, 0x01	; 1
    1d54:	30 40       	sbci	r19, 0x00	; 0
    1d56:	e1 f7       	brne	.-8      	; 0x1d50 <setze_Fluessgkeit_in_Position+0x262>
    1d58:	80 91 a7 0f 	lds	r24, 0x0FA7	; 0x800fa7 <tail_zut_in_Maschine>
    1d5c:	90 91 a8 0f 	lds	r25, 0x0FA8	; 0x800fa8 <tail_zut_in_Maschine+0x1>
    1d60:	90 93 47 0a 	sts	0x0A47, r25	; 0x800a47 <aktuelleZutatInMaschine+0x1>
    1d64:	80 93 46 0a 	sts	0x0A46, r24	; 0x800a46 <aktuelleZutatInMaschine>
    1d68:	e1 2c       	mov	r14, r1
    1d6a:	f1 2c       	mov	r15, r1
    1d6c:	8f 01       	movw	r16, r30
    1d6e:	0f 2e       	mov	r0, r31
    1d70:	fc e2       	ldi	r31, 0x2C	; 44
    1d72:	cf 2e       	mov	r12, r31
    1d74:	d1 2c       	mov	r13, r1
    1d76:	f0 2d       	mov	r31, r0
    1d78:	0f 2e       	mov	r0, r31
    1d7a:	fe e7       	ldi	r31, 0x7E	; 126
    1d7c:	8f 2e       	mov	r8, r31
    1d7e:	91 2c       	mov	r9, r1
    1d80:	f0 2d       	mov	r31, r0
    1d82:	0f 2e       	mov	r0, r31
    1d84:	fd e0       	ldi	r31, 0x0D	; 13
    1d86:	af 2e       	mov	r10, r31
    1d88:	b1 2c       	mov	r11, r1
    1d8a:	f0 2d       	mov	r31, r0
    1d8c:	e1 14       	cp	r14, r1
    1d8e:	f1 04       	cpc	r15, r1
    1d90:	51 f0       	breq	.+20     	; 0x1da6 <setze_Fluessgkeit_in_Position+0x2b8>
    1d92:	e0 91 46 0a 	lds	r30, 0x0A46	; 0x800a46 <aktuelleZutatInMaschine>
    1d96:	f0 91 47 0a 	lds	r31, 0x0A47	; 0x800a47 <aktuelleZutatInMaschine+0x1>
    1d9a:	60 81       	ld	r22, Z
    1d9c:	71 81       	ldd	r23, Z+1	; 0x01
    1d9e:	c8 01       	movw	r24, r16
    1da0:	0e 94 7c 48 	call	0x90f8	; 0x90f8 <strcat>
    1da4:	09 c0       	rjmp	.+18     	; 0x1db8 <setze_Fluessgkeit_in_Position+0x2ca>
    1da6:	e0 91 46 0a 	lds	r30, 0x0A46	; 0x800a46 <aktuelleZutatInMaschine>
    1daa:	f0 91 47 0a 	lds	r31, 0x0A47	; 0x800a47 <aktuelleZutatInMaschine+0x1>
    1dae:	60 81       	ld	r22, Z
    1db0:	71 81       	ldd	r23, Z+1	; 0x01
    1db2:	c8 01       	movw	r24, r16
    1db4:	0e 94 90 48 	call	0x9120	; 0x9120 <strcpy>
    1db8:	f8 01       	movw	r30, r16
    1dba:	01 90       	ld	r0, Z+
    1dbc:	00 20       	and	r0, r0
    1dbe:	e9 f7       	brne	.-6      	; 0x1dba <setze_Fluessgkeit_in_Position+0x2cc>
    1dc0:	31 97       	sbiw	r30, 0x01	; 1
    1dc2:	d1 82       	std	Z+1, r13	; 0x01
    1dc4:	c0 82       	st	Z, r12
    1dc6:	e0 91 46 0a 	lds	r30, 0x0A46	; 0x800a46 <aktuelleZutatInMaschine>
    1dca:	f0 91 47 0a 	lds	r31, 0x0A47	; 0x800a47 <aktuelleZutatInMaschine+0x1>
    1dce:	82 81       	ldd	r24, Z+2	; 0x02
    1dd0:	4a e0       	ldi	r20, 0x0A	; 10
    1dd2:	be 01       	movw	r22, r28
    1dd4:	64 5b       	subi	r22, 0xB4	; 180
    1dd6:	7d 4f       	sbci	r23, 0xFD	; 253
    1dd8:	90 e0       	ldi	r25, 0x00	; 0
    1dda:	0e 94 be 48 	call	0x917c	; 0x917c <__itoa_ncheck>
    1dde:	be 01       	movw	r22, r28
    1de0:	64 5b       	subi	r22, 0xB4	; 180
    1de2:	7d 4f       	sbci	r23, 0xFD	; 253
    1de4:	c8 01       	movw	r24, r16
    1de6:	0e 94 7c 48 	call	0x90f8	; 0x90f8 <strcat>
    1dea:	f8 01       	movw	r30, r16
    1dec:	01 90       	ld	r0, Z+
    1dee:	00 20       	and	r0, r0
    1df0:	e9 f7       	brne	.-6      	; 0x1dec <setze_Fluessgkeit_in_Position+0x2fe>
    1df2:	31 97       	sbiw	r30, 0x01	; 1
    1df4:	d1 82       	std	Z+1, r13	; 0x01
    1df6:	c0 82       	st	Z, r12
    1df8:	e0 91 46 0a 	lds	r30, 0x0A46	; 0x800a46 <aktuelleZutatInMaschine>
    1dfc:	f0 91 47 0a 	lds	r31, 0x0A47	; 0x800a47 <aktuelleZutatInMaschine+0x1>
    1e00:	83 81       	ldd	r24, Z+3	; 0x03
    1e02:	4a e0       	ldi	r20, 0x0A	; 10
    1e04:	be 01       	movw	r22, r28
    1e06:	64 5b       	subi	r22, 0xB4	; 180
    1e08:	7d 4f       	sbci	r23, 0xFD	; 253
    1e0a:	90 e0       	ldi	r25, 0x00	; 0
    1e0c:	0e 94 be 48 	call	0x917c	; 0x917c <__itoa_ncheck>
    1e10:	be 01       	movw	r22, r28
    1e12:	64 5b       	subi	r22, 0xB4	; 180
    1e14:	7d 4f       	sbci	r23, 0xFD	; 253
    1e16:	c8 01       	movw	r24, r16
    1e18:	0e 94 7c 48 	call	0x90f8	; 0x90f8 <strcat>
    1e1c:	f8 01       	movw	r30, r16
    1e1e:	01 90       	ld	r0, Z+
    1e20:	00 20       	and	r0, r0
    1e22:	e9 f7       	brne	.-6      	; 0x1e1e <setze_Fluessgkeit_in_Position+0x330>
    1e24:	31 97       	sbiw	r30, 0x01	; 1
    1e26:	d1 82       	std	Z+1, r13	; 0x01
    1e28:	c0 82       	st	Z, r12
    1e2a:	e0 91 46 0a 	lds	r30, 0x0A46	; 0x800a46 <aktuelleZutatInMaschine>
    1e2e:	f0 91 47 0a 	lds	r31, 0x0A47	; 0x800a47 <aktuelleZutatInMaschine+0x1>
    1e32:	84 81       	ldd	r24, Z+4	; 0x04
    1e34:	4a e0       	ldi	r20, 0x0A	; 10
    1e36:	be 01       	movw	r22, r28
    1e38:	64 5b       	subi	r22, 0xB4	; 180
    1e3a:	7d 4f       	sbci	r23, 0xFD	; 253
    1e3c:	90 e0       	ldi	r25, 0x00	; 0
    1e3e:	0e 94 be 48 	call	0x917c	; 0x917c <__itoa_ncheck>
    1e42:	be 01       	movw	r22, r28
    1e44:	64 5b       	subi	r22, 0xB4	; 180
    1e46:	7d 4f       	sbci	r23, 0xFD	; 253
    1e48:	c8 01       	movw	r24, r16
    1e4a:	0e 94 7c 48 	call	0x90f8	; 0x90f8 <strcat>
    1e4e:	a0 91 46 0a 	lds	r26, 0x0A46	; 0x800a46 <aktuelleZutatInMaschine>
    1e52:	b0 91 47 0a 	lds	r27, 0x0A47	; 0x800a47 <aktuelleZutatInMaschine+0x1>
    1e56:	80 91 39 0a 	lds	r24, 0x0A39	; 0x800a39 <head_zut_in_Maschine>
    1e5a:	90 91 3a 0a 	lds	r25, 0x0A3A	; 0x800a3a <head_zut_in_Maschine+0x1>
    1e5e:	a8 17       	cp	r26, r24
    1e60:	b9 07       	cpc	r27, r25
    1e62:	41 f0       	breq	.+16     	; 0x1e74 <setze_Fluessgkeit_in_Position+0x386>
    1e64:	f8 01       	movw	r30, r16
    1e66:	01 90       	ld	r0, Z+
    1e68:	00 20       	and	r0, r0
    1e6a:	e9 f7       	brne	.-6      	; 0x1e66 <setze_Fluessgkeit_in_Position+0x378>
    1e6c:	31 97       	sbiw	r30, 0x01	; 1
    1e6e:	b1 82       	std	Z+1, r11	; 0x01
    1e70:	a0 82       	st	Z, r10
    1e72:	07 c0       	rjmp	.+14     	; 0x1e82 <setze_Fluessgkeit_in_Position+0x394>
    1e74:	f8 01       	movw	r30, r16
    1e76:	01 90       	ld	r0, Z+
    1e78:	00 20       	and	r0, r0
    1e7a:	e9 f7       	brne	.-6      	; 0x1e76 <setze_Fluessgkeit_in_Position+0x388>
    1e7c:	31 97       	sbiw	r30, 0x01	; 1
    1e7e:	91 82       	std	Z+1, r9	; 0x01
    1e80:	80 82       	st	Z, r8
    1e82:	1c 96       	adiw	r26, 0x0c	; 12
    1e84:	8d 91       	ld	r24, X+
    1e86:	9c 91       	ld	r25, X
    1e88:	1d 97       	sbiw	r26, 0x0d	; 13
    1e8a:	90 93 47 0a 	sts	0x0A47, r25	; 0x800a47 <aktuelleZutatInMaschine+0x1>
    1e8e:	80 93 46 0a 	sts	0x0A46, r24	; 0x800a46 <aktuelleZutatInMaschine>
    1e92:	3f ef       	ldi	r19, 0xFF	; 255
    1e94:	e3 1a       	sub	r14, r19
    1e96:	f3 0a       	sbc	r15, r19
    1e98:	8c e0       	ldi	r24, 0x0C	; 12
    1e9a:	e8 16       	cp	r14, r24
    1e9c:	f1 04       	cpc	r15, r1
    1e9e:	09 f0       	breq	.+2      	; 0x1ea2 <setze_Fluessgkeit_in_Position+0x3b4>
    1ea0:	75 cf       	rjmp	.-278    	; 0x1d8c <setze_Fluessgkeit_in_Position+0x29e>
    1ea2:	ce 01       	movw	r24, r28
    1ea4:	8a 5a       	subi	r24, 0xAA	; 170
    1ea6:	9d 4f       	sbci	r25, 0xFD	; 253
    1ea8:	24 e1       	ldi	r18, 0x14	; 20
    1eaa:	dc 01       	movw	r26, r24
    1eac:	1d 92       	st	X+, r1
    1eae:	2a 95       	dec	r18
    1eb0:	e9 f7       	brne	.-6      	; 0x1eac <setze_Fluessgkeit_in_Position+0x3be>
    1eb2:	26 e0       	ldi	r18, 0x06	; 6
    1eb4:	ef ed       	ldi	r30, 0xDF	; 223
    1eb6:	f4 e0       	ldi	r31, 0x04	; 4
    1eb8:	dc 01       	movw	r26, r24
    1eba:	01 90       	ld	r0, Z+
    1ebc:	0d 92       	st	X+, r0
    1ebe:	2a 95       	dec	r18
    1ec0:	e1 f7       	brne	.-8      	; 0x1eba <setze_Fluessgkeit_in_Position+0x3cc>
    1ec2:	be 01       	movw	r22, r28
    1ec4:	64 5b       	subi	r22, 0xB4	; 180
    1ec6:	7f 4f       	sbci	r23, 0xFF	; 255
    1ec8:	0e 94 2d 34 	call	0x685a	; 0x685a <writeFile>
    1ecc:	05 c0       	rjmp	.+10     	; 0x1ed8 <setze_Fluessgkeit_in_Position+0x3ea>
    1ece:	a5 ee       	ldi	r26, 0xE5	; 229
    1ed0:	b4 e0       	ldi	r27, 0x04	; 4
    1ed2:	80 e0       	ldi	r24, 0x00	; 0
    1ed4:	90 e0       	ldi	r25, 0x00	; 0
    1ed6:	45 ce       	rjmp	.-886    	; 0x1b62 <setze_Fluessgkeit_in_Position+0x74>
    1ed8:	c7 59       	subi	r28, 0x97	; 151
    1eda:	dd 4f       	sbci	r29, 0xFD	; 253
    1edc:	0f b6       	in	r0, 0x3f	; 63
    1ede:	f8 94       	cli
    1ee0:	de bf       	out	0x3e, r29	; 62
    1ee2:	0f be       	out	0x3f, r0	; 63
    1ee4:	cd bf       	out	0x3d, r28	; 61
    1ee6:	df 91       	pop	r29
    1ee8:	cf 91       	pop	r28
    1eea:	1f 91       	pop	r17
    1eec:	0f 91       	pop	r16
    1eee:	ff 90       	pop	r15
    1ef0:	ef 90       	pop	r14
    1ef2:	df 90       	pop	r13
    1ef4:	cf 90       	pop	r12
    1ef6:	bf 90       	pop	r11
    1ef8:	af 90       	pop	r10
    1efa:	9f 90       	pop	r9
    1efc:	8f 90       	pop	r8
    1efe:	08 95       	ret

00001f00 <send_List_Getraenke>:
    1f00:	af 92       	push	r10
    1f02:	bf 92       	push	r11
    1f04:	cf 92       	push	r12
    1f06:	df 92       	push	r13
    1f08:	ef 92       	push	r14
    1f0a:	ff 92       	push	r15
    1f0c:	0f 93       	push	r16
    1f0e:	1f 93       	push	r17
    1f10:	cf 93       	push	r28
    1f12:	df 93       	push	r29
    1f14:	cd b7       	in	r28, 0x3d	; 61
    1f16:	de b7       	in	r29, 0x3e	; 62
    1f18:	c5 50       	subi	r28, 0x05	; 5
    1f1a:	d2 40       	sbci	r29, 0x02	; 2
    1f1c:	0f b6       	in	r0, 0x3f	; 63
    1f1e:	f8 94       	cli
    1f20:	de bf       	out	0x3e, r29	; 62
    1f22:	0f be       	out	0x3f, r0	; 63
    1f24:	cd bf       	out	0x3d, r28	; 61
    1f26:	fe 01       	movw	r30, r28
    1f28:	31 96       	adiw	r30, 0x01	; 1
    1f2a:	80 e0       	ldi	r24, 0x00	; 0
    1f2c:	92 e0       	ldi	r25, 0x02	; 2
    1f2e:	df 01       	movw	r26, r30
    1f30:	9c 01       	movw	r18, r24
    1f32:	1d 92       	st	X+, r1
    1f34:	21 50       	subi	r18, 0x01	; 1
    1f36:	30 40       	sbci	r19, 0x00	; 0
    1f38:	e1 f7       	brne	.-8      	; 0x1f32 <send_List_Getraenke+0x32>
    1f3a:	80 91 37 0a 	lds	r24, 0x0A37	; 0x800a37 <tail_getraenk_file>
    1f3e:	90 91 38 0a 	lds	r25, 0x0A38	; 0x800a38 <tail_getraenk_file+0x1>
    1f42:	90 93 78 0a 	sts	0x0A78, r25	; 0x800a78 <aktuellesGetraenk_file+0x1>
    1f46:	80 93 77 0a 	sts	0x0A77, r24	; 0x800a77 <aktuellesGetraenk_file>
    1f4a:	fc 01       	movw	r30, r24
    1f4c:	00 e0       	ldi	r16, 0x00	; 0
    1f4e:	0f 5f       	subi	r16, 0xFF	; 255
    1f50:	03 80       	ldd	r0, Z+3	; 0x03
    1f52:	f4 81       	ldd	r31, Z+4	; 0x04
    1f54:	e0 2d       	mov	r30, r0
    1f56:	8e 17       	cp	r24, r30
    1f58:	9f 07       	cpc	r25, r31
    1f5a:	c9 f7       	brne	.-14     	; 0x1f4e <send_List_Getraenke+0x4e>
    1f5c:	ce 01       	movw	r24, r28
    1f5e:	01 96       	adiw	r24, 0x01	; 1
    1f60:	7c 01       	movw	r14, r24
    1f62:	dc 01       	movw	r26, r24
    1f64:	0d 90       	ld	r0, X+
    1f66:	00 20       	and	r0, r0
    1f68:	e9 f7       	brne	.-6      	; 0x1f64 <send_List_Getraenke+0x64>
    1f6a:	11 97       	sbiw	r26, 0x01	; 1
    1f6c:	80 e1       	ldi	r24, 0x10	; 16
    1f6e:	ed ee       	ldi	r30, 0xED	; 237
    1f70:	f4 e0       	ldi	r31, 0x04	; 4
    1f72:	01 90       	ld	r0, Z+
    1f74:	0d 92       	st	X+, r0
    1f76:	8a 95       	dec	r24
    1f78:	e1 f7       	brne	.-8      	; 0x1f72 <send_List_Getraenke+0x72>
    1f7a:	6e 01       	movw	r12, r28
    1f7c:	9f ef       	ldi	r25, 0xFF	; 255
    1f7e:	c9 1a       	sub	r12, r25
    1f80:	9d ef       	ldi	r25, 0xFD	; 253
    1f82:	d9 0a       	sbc	r13, r25
    1f84:	85 e0       	ldi	r24, 0x05	; 5
    1f86:	d6 01       	movw	r26, r12
    1f88:	1d 92       	st	X+, r1
    1f8a:	8a 95       	dec	r24
    1f8c:	e9 f7       	brne	.-6      	; 0x1f88 <send_List_Getraenke+0x88>
    1f8e:	10 e0       	ldi	r17, 0x00	; 0
    1f90:	4a e0       	ldi	r20, 0x0A	; 10
    1f92:	b6 01       	movw	r22, r12
    1f94:	c8 01       	movw	r24, r16
    1f96:	0e 94 be 48 	call	0x917c	; 0x917c <__itoa_ncheck>
    1f9a:	b6 01       	movw	r22, r12
    1f9c:	c7 01       	movw	r24, r14
    1f9e:	0e 94 7c 48 	call	0x90f8	; 0x90f8 <strcat>
    1fa2:	f7 01       	movw	r30, r14
    1fa4:	01 90       	ld	r0, Z+
    1fa6:	00 20       	and	r0, r0
    1fa8:	e9 f7       	brne	.-6      	; 0x1fa4 <send_List_Getraenke+0xa4>
    1faa:	31 97       	sbiw	r30, 0x01	; 1
    1fac:	8a e3       	ldi	r24, 0x3A	; 58
    1fae:	90 e0       	ldi	r25, 0x00	; 0
    1fb0:	91 83       	std	Z+1, r25	; 0x01
    1fb2:	80 83       	st	Z, r24
    1fb4:	e0 91 37 0a 	lds	r30, 0x0A37	; 0x800a37 <tail_getraenk_file>
    1fb8:	f0 91 38 0a 	lds	r31, 0x0A38	; 0x800a38 <tail_getraenk_file+0x1>
    1fbc:	f0 93 78 0a 	sts	0x0A78, r31	; 0x800a78 <aktuellesGetraenk_file+0x1>
    1fc0:	e0 93 77 0a 	sts	0x0A77, r30	; 0x800a77 <aktuellesGetraenk_file>
    1fc4:	80 81       	ld	r24, Z
    1fc6:	0e 94 d7 06 	call	0xdae	; 0xdae <lese_textfile_in_getraenk>
    1fca:	e0 91 0b 13 	lds	r30, 0x130B	; 0x80130b <aktuellesGetraenk>
    1fce:	f0 91 0c 13 	lds	r31, 0x130C	; 0x80130c <aktuellesGetraenk+0x1>
    1fd2:	60 81       	ld	r22, Z
    1fd4:	71 81       	ldd	r23, Z+1	; 0x01
    1fd6:	c7 01       	movw	r24, r14
    1fd8:	0e 94 7c 48 	call	0x90f8	; 0x90f8 <strcat>
    1fdc:	e0 91 77 0a 	lds	r30, 0x0A77	; 0x800a77 <aktuellesGetraenk_file>
    1fe0:	f0 91 78 0a 	lds	r31, 0x0A78	; 0x800a78 <aktuellesGetraenk_file+0x1>
    1fe4:	83 81       	ldd	r24, Z+3	; 0x03
    1fe6:	94 81       	ldd	r25, Z+4	; 0x04
    1fe8:	90 93 78 0a 	sts	0x0A78, r25	; 0x800a78 <aktuellesGetraenk_file+0x1>
    1fec:	80 93 77 0a 	sts	0x0A77, r24	; 0x800a77 <aktuellesGetraenk_file>
    1ff0:	01 50       	subi	r16, 0x01	; 1
    1ff2:	11 09       	sbc	r17, r1
    1ff4:	10 16       	cp	r1, r16
    1ff6:	11 06       	cpc	r1, r17
    1ff8:	8c f5       	brge	.+98     	; 0x205c <send_List_Getraenke+0x15c>
    1ffa:	e1 2c       	mov	r14, r1
    1ffc:	f1 2c       	mov	r15, r1
    1ffe:	fe 01       	movw	r30, r28
    2000:	31 96       	adiw	r30, 0x01	; 1
    2002:	6f 01       	movw	r12, r30
    2004:	0f 2e       	mov	r0, r31
    2006:	fc e2       	ldi	r31, 0x2C	; 44
    2008:	af 2e       	mov	r10, r31
    200a:	b1 2c       	mov	r11, r1
    200c:	f0 2d       	mov	r31, r0
    200e:	f6 01       	movw	r30, r12
    2010:	01 90       	ld	r0, Z+
    2012:	00 20       	and	r0, r0
    2014:	e9 f7       	brne	.-6      	; 0x2010 <send_List_Getraenke+0x110>
    2016:	31 97       	sbiw	r30, 0x01	; 1
    2018:	b1 82       	std	Z+1, r11	; 0x01
    201a:	a0 82       	st	Z, r10
    201c:	e0 91 77 0a 	lds	r30, 0x0A77	; 0x800a77 <aktuellesGetraenk_file>
    2020:	f0 91 78 0a 	lds	r31, 0x0A78	; 0x800a78 <aktuellesGetraenk_file+0x1>
    2024:	80 81       	ld	r24, Z
    2026:	0e 94 d7 06 	call	0xdae	; 0xdae <lese_textfile_in_getraenk>
    202a:	e0 91 0b 13 	lds	r30, 0x130B	; 0x80130b <aktuellesGetraenk>
    202e:	f0 91 0c 13 	lds	r31, 0x130C	; 0x80130c <aktuellesGetraenk+0x1>
    2032:	60 81       	ld	r22, Z
    2034:	71 81       	ldd	r23, Z+1	; 0x01
    2036:	c6 01       	movw	r24, r12
    2038:	0e 94 7c 48 	call	0x90f8	; 0x90f8 <strcat>
    203c:	e0 91 77 0a 	lds	r30, 0x0A77	; 0x800a77 <aktuellesGetraenk_file>
    2040:	f0 91 78 0a 	lds	r31, 0x0A78	; 0x800a78 <aktuellesGetraenk_file+0x1>
    2044:	83 81       	ldd	r24, Z+3	; 0x03
    2046:	94 81       	ldd	r25, Z+4	; 0x04
    2048:	90 93 78 0a 	sts	0x0A78, r25	; 0x800a78 <aktuellesGetraenk_file+0x1>
    204c:	80 93 77 0a 	sts	0x0A77, r24	; 0x800a77 <aktuellesGetraenk_file>
    2050:	ff ef       	ldi	r31, 0xFF	; 255
    2052:	ef 1a       	sub	r14, r31
    2054:	ff 0a       	sbc	r15, r31
    2056:	e0 16       	cp	r14, r16
    2058:	f1 06       	cpc	r15, r17
    205a:	cc f2       	brlt	.-78     	; 0x200e <send_List_Getraenke+0x10e>
    205c:	8e 01       	movw	r16, r28
    205e:	0f 5f       	subi	r16, 0xFF	; 255
    2060:	1f 4f       	sbci	r17, 0xFF	; 255
    2062:	f8 01       	movw	r30, r16
    2064:	01 90       	ld	r0, Z+
    2066:	00 20       	and	r0, r0
    2068:	e9 f7       	brne	.-6      	; 0x2064 <send_List_Getraenke+0x164>
    206a:	31 97       	sbiw	r30, 0x01	; 1
    206c:	8a e3       	ldi	r24, 0x3A	; 58
    206e:	90 e0       	ldi	r25, 0x00	; 0
    2070:	91 83       	std	Z+1, r25	; 0x01
    2072:	80 83       	st	Z, r24
    2074:	c8 01       	movw	r24, r16
    2076:	0e 94 51 41 	call	0x82a2	; 0x82a2 <Uart_Transmit_IT_PC>
    207a:	c8 01       	movw	r24, r16
    207c:	0e 94 7a 41 	call	0x82f4	; 0x82f4 <Uart_Transmit_IT_ESP>
    2080:	cb 5f       	subi	r28, 0xFB	; 251
    2082:	dd 4f       	sbci	r29, 0xFD	; 253
    2084:	0f b6       	in	r0, 0x3f	; 63
    2086:	f8 94       	cli
    2088:	de bf       	out	0x3e, r29	; 62
    208a:	0f be       	out	0x3f, r0	; 63
    208c:	cd bf       	out	0x3d, r28	; 61
    208e:	df 91       	pop	r29
    2090:	cf 91       	pop	r28
    2092:	1f 91       	pop	r17
    2094:	0f 91       	pop	r16
    2096:	ff 90       	pop	r15
    2098:	ef 90       	pop	r14
    209a:	df 90       	pop	r13
    209c:	cf 90       	pop	r12
    209e:	bf 90       	pop	r11
    20a0:	af 90       	pop	r10
    20a2:	08 95       	ret

000020a4 <send_List_Zutaten>:
    20a4:	9f 92       	push	r9
    20a6:	af 92       	push	r10
    20a8:	bf 92       	push	r11
    20aa:	cf 92       	push	r12
    20ac:	df 92       	push	r13
    20ae:	ef 92       	push	r14
    20b0:	ff 92       	push	r15
    20b2:	0f 93       	push	r16
    20b4:	1f 93       	push	r17
    20b6:	cf 93       	push	r28
    20b8:	df 93       	push	r29
    20ba:	cd b7       	in	r28, 0x3d	; 61
    20bc:	de b7       	in	r29, 0x3e	; 62
    20be:	ca 50       	subi	r28, 0x0A	; 10
    20c0:	d4 40       	sbci	r29, 0x04	; 4
    20c2:	0f b6       	in	r0, 0x3f	; 63
    20c4:	f8 94       	cli
    20c6:	de bf       	out	0x3e, r29	; 62
    20c8:	0f be       	out	0x3f, r0	; 63
    20ca:	cd bf       	out	0x3d, r28	; 61
    20cc:	80 e0       	ldi	r24, 0x00	; 0
    20ce:	92 e0       	ldi	r25, 0x02	; 2
    20d0:	fe 01       	movw	r30, r28
    20d2:	31 96       	adiw	r30, 0x01	; 1
    20d4:	df 01       	movw	r26, r30
    20d6:	9c 01       	movw	r18, r24
    20d8:	1d 92       	st	X+, r1
    20da:	21 50       	subi	r18, 0x01	; 1
    20dc:	30 40       	sbci	r19, 0x00	; 0
    20de:	e1 f7       	brne	.-8      	; 0x20d8 <send_List_Zutaten+0x34>
    20e0:	de 01       	movw	r26, r28
    20e2:	af 5f       	subi	r26, 0xFF	; 255
    20e4:	bd 4f       	sbci	r27, 0xFD	; 253
    20e6:	fd 01       	movw	r30, r26
    20e8:	9c 01       	movw	r18, r24
    20ea:	11 92       	st	Z+, r1
    20ec:	21 50       	subi	r18, 0x01	; 1
    20ee:	30 40       	sbci	r19, 0x00	; 0
    20f0:	e1 f7       	brne	.-8      	; 0x20ea <send_List_Zutaten+0x46>
    20f2:	9e 01       	movw	r18, r28
    20f4:	2f 5f       	subi	r18, 0xFF	; 255
    20f6:	3b 4f       	sbci	r19, 0xFB	; 251
    20f8:	8a e0       	ldi	r24, 0x0A	; 10
    20fa:	f9 01       	movw	r30, r18
    20fc:	11 92       	st	Z+, r1
    20fe:	8a 95       	dec	r24
    2100:	e9 f7       	brne	.-6      	; 0x20fc <send_List_Zutaten+0x58>
    2102:	80 91 a7 0f 	lds	r24, 0x0FA7	; 0x800fa7 <tail_zut_in_Maschine>
    2106:	90 91 a8 0f 	lds	r25, 0x0FA8	; 0x800fa8 <tail_zut_in_Maschine+0x1>
    210a:	90 93 47 0a 	sts	0x0A47, r25	; 0x800a47 <aktuelleZutatInMaschine+0x1>
    210e:	80 93 46 0a 	sts	0x0A46, r24	; 0x800a46 <aktuelleZutatInMaschine>
    2112:	89 e0       	ldi	r24, 0x09	; 9
    2114:	ed ef       	ldi	r30, 0xFD	; 253
    2116:	f4 e0       	ldi	r31, 0x04	; 4
    2118:	01 90       	ld	r0, Z+
    211a:	0d 92       	st	X+, r0
    211c:	8a 95       	dec	r24
    211e:	e1 f7       	brne	.-8      	; 0x2118 <send_List_Zutaten+0x74>
    2120:	aa 24       	eor	r10, r10
    2122:	a3 94       	inc	r10
    2124:	b1 2c       	mov	r11, r1
    2126:	34 50       	subi	r19, 0x04	; 4
    2128:	79 01       	movw	r14, r18
    212a:	0f 2e       	mov	r0, r31
    212c:	fc e2       	ldi	r31, 0x2C	; 44
    212e:	cf 2e       	mov	r12, r31
    2130:	d1 2c       	mov	r13, r1
    2132:	f0 2d       	mov	r31, r0
    2134:	91 2c       	mov	r9, r1
    2136:	e0 91 46 0a 	lds	r30, 0x0A46	; 0x800a46 <aktuelleZutatInMaschine>
    213a:	f0 91 47 0a 	lds	r31, 0x0A47	; 0x800a47 <aktuelleZutatInMaschine+0x1>
    213e:	00 81       	ld	r16, Z
    2140:	11 81       	ldd	r17, Z+1	; 0x01
    2142:	b8 01       	movw	r22, r16
    2144:	85 ee       	ldi	r24, 0xE5	; 229
    2146:	94 e0       	ldi	r25, 0x04	; 4
    2148:	0e 94 87 48 	call	0x910e	; 0x910e <strcmp>
    214c:	89 2b       	or	r24, r25
    214e:	a9 f0       	breq	.+42     	; 0x217a <send_List_Zutaten+0xd6>
    2150:	31 e0       	ldi	r19, 0x01	; 1
    2152:	a3 12       	cpse	r10, r19
    2154:	06 c0       	rjmp	.+12     	; 0x2162 <send_List_Zutaten+0xbe>
    2156:	b8 01       	movw	r22, r16
    2158:	c7 01       	movw	r24, r14
    215a:	0e 94 7c 48 	call	0x90f8	; 0x90f8 <strcat>
    215e:	a9 2c       	mov	r10, r9
    2160:	0b c0       	rjmp	.+22     	; 0x2178 <send_List_Zutaten+0xd4>
    2162:	f7 01       	movw	r30, r14
    2164:	01 90       	ld	r0, Z+
    2166:	00 20       	and	r0, r0
    2168:	e9 f7       	brne	.-6      	; 0x2164 <send_List_Zutaten+0xc0>
    216a:	31 97       	sbiw	r30, 0x01	; 1
    216c:	d1 82       	std	Z+1, r13	; 0x01
    216e:	c0 82       	st	Z, r12
    2170:	b8 01       	movw	r22, r16
    2172:	c7 01       	movw	r24, r14
    2174:	0e 94 7c 48 	call	0x90f8	; 0x90f8 <strcat>
    2178:	b3 94       	inc	r11
    217a:	e0 91 46 0a 	lds	r30, 0x0A46	; 0x800a46 <aktuelleZutatInMaschine>
    217e:	f0 91 47 0a 	lds	r31, 0x0A47	; 0x800a47 <aktuelleZutatInMaschine+0x1>
    2182:	84 85       	ldd	r24, Z+12	; 0x0c
    2184:	95 85       	ldd	r25, Z+13	; 0x0d
    2186:	90 93 47 0a 	sts	0x0A47, r25	; 0x800a47 <aktuelleZutatInMaschine+0x1>
    218a:	80 93 46 0a 	sts	0x0A46, r24	; 0x800a46 <aktuelleZutatInMaschine>
    218e:	20 91 a7 0f 	lds	r18, 0x0FA7	; 0x800fa7 <tail_zut_in_Maschine>
    2192:	30 91 a8 0f 	lds	r19, 0x0FA8	; 0x800fa8 <tail_zut_in_Maschine+0x1>
    2196:	82 17       	cp	r24, r18
    2198:	93 07       	cpc	r25, r19
    219a:	69 f6       	brne	.-102    	; 0x2136 <send_List_Zutaten+0x92>
    219c:	4a e0       	ldi	r20, 0x0A	; 10
    219e:	be 01       	movw	r22, r28
    21a0:	6f 5f       	subi	r22, 0xFF	; 255
    21a2:	7b 4f       	sbci	r23, 0xFB	; 251
    21a4:	8b 2d       	mov	r24, r11
    21a6:	90 e0       	ldi	r25, 0x00	; 0
    21a8:	0e 94 be 48 	call	0x917c	; 0x917c <__itoa_ncheck>
    21ac:	8e 01       	movw	r16, r28
    21ae:	0f 5f       	subi	r16, 0xFF	; 255
    21b0:	1d 4f       	sbci	r17, 0xFD	; 253
    21b2:	be 01       	movw	r22, r28
    21b4:	6f 5f       	subi	r22, 0xFF	; 255
    21b6:	7b 4f       	sbci	r23, 0xFB	; 251
    21b8:	c8 01       	movw	r24, r16
    21ba:	0e 94 7c 48 	call	0x90f8	; 0x90f8 <strcat>
    21be:	f8 01       	movw	r30, r16
    21c0:	01 90       	ld	r0, Z+
    21c2:	00 20       	and	r0, r0
    21c4:	e9 f7       	brne	.-6      	; 0x21c0 <send_List_Zutaten+0x11c>
    21c6:	31 97       	sbiw	r30, 0x01	; 1
    21c8:	8a e3       	ldi	r24, 0x3A	; 58
    21ca:	90 e0       	ldi	r25, 0x00	; 0
    21cc:	91 83       	std	Z+1, r25	; 0x01
    21ce:	80 83       	st	Z, r24
    21d0:	be 01       	movw	r22, r28
    21d2:	6f 5f       	subi	r22, 0xFF	; 255
    21d4:	7f 4f       	sbci	r23, 0xFF	; 255
    21d6:	c8 01       	movw	r24, r16
    21d8:	0e 94 7c 48 	call	0x90f8	; 0x90f8 <strcat>
    21dc:	c8 01       	movw	r24, r16
    21de:	0e 94 7a 41 	call	0x82f4	; 0x82f4 <Uart_Transmit_IT_ESP>
    21e2:	c8 01       	movw	r24, r16
    21e4:	0e 94 51 41 	call	0x82a2	; 0x82a2 <Uart_Transmit_IT_PC>
    21e8:	c6 5f       	subi	r28, 0xF6	; 246
    21ea:	db 4f       	sbci	r29, 0xFB	; 251
    21ec:	0f b6       	in	r0, 0x3f	; 63
    21ee:	f8 94       	cli
    21f0:	de bf       	out	0x3e, r29	; 62
    21f2:	0f be       	out	0x3f, r0	; 63
    21f4:	cd bf       	out	0x3d, r28	; 61
    21f6:	df 91       	pop	r29
    21f8:	cf 91       	pop	r28
    21fa:	1f 91       	pop	r17
    21fc:	0f 91       	pop	r16
    21fe:	ff 90       	pop	r15
    2200:	ef 90       	pop	r14
    2202:	df 90       	pop	r13
    2204:	cf 90       	pop	r12
    2206:	bf 90       	pop	r11
    2208:	af 90       	pop	r10
    220a:	9f 90       	pop	r9
    220c:	08 95       	ret

0000220e <ESP_Getraenk>:
    Uart_Transmit_IT_ESP(ptr2);
    Uart_Transmit_IT_PC(ptr2);
}

void ESP_Getraenk(void)
{
    220e:	0f 93       	push	r16
    2210:	1f 93       	push	r17
    2212:	cf 93       	push	r28
    2214:	df 93       	push	r29
    2216:	cd b7       	in	r28, 0x3d	; 61
    2218:	de b7       	in	r29, 0x3e	; 62
    221a:	c4 50       	subi	r28, 0x04	; 4
    221c:	d1 40       	sbci	r29, 0x01	; 1
    221e:	0f b6       	in	r0, 0x3f	; 63
    2220:	f8 94       	cli
    2222:	de bf       	out	0x3e, r29	; 62
    2224:	0f be       	out	0x3f, r0	; 63
    2226:	cd bf       	out	0x3d, r28	; 61
    while (check_Communication_Input_UART_2()==0)
    2228:	0e 94 5c 2b 	call	0x56b8	; 0x56b8 <check_Communication_Input_UART_2>
    222c:	88 23       	and	r24, r24
    222e:	e1 f3       	breq	.-8      	; 0x2228 <ESP_Getraenk+0x1a>
        ;
     char buff[256] = {'\0'};
    2230:	8e 01       	movw	r16, r28
    2232:	0f 5f       	subi	r16, 0xFF	; 255
    2234:	1f 4f       	sbci	r17, 0xFF	; 255
    2236:	80 e0       	ldi	r24, 0x00	; 0
    2238:	91 e0       	ldi	r25, 0x01	; 1
    223a:	f8 01       	movw	r30, r16
    223c:	9c 01       	movw	r18, r24
    223e:	11 92       	st	Z+, r1
    2240:	21 50       	subi	r18, 0x01	; 1
    2242:	30 40       	sbci	r19, 0x00	; 0
    2244:	e1 f7       	brne	.-8      	; 0x223e <ESP_Getraenk+0x30>
     char * ptr = buff;
     char delimiter[] = ",:\r";
    2246:	8c e2       	ldi	r24, 0x2C	; 44
    2248:	9a e3       	ldi	r25, 0x3A	; 58
    224a:	cf 5f       	subi	r28, 0xFF	; 255
    224c:	de 4f       	sbci	r29, 0xFE	; 254
    224e:	99 83       	std	Y+1, r25	; 0x01
    2250:	88 83       	st	Y, r24
    2252:	c1 50       	subi	r28, 0x01	; 1
    2254:	d1 40       	sbci	r29, 0x01	; 1
    2256:	8d e0       	ldi	r24, 0x0D	; 13
    2258:	90 e0       	ldi	r25, 0x00	; 0
    225a:	cd 5f       	subi	r28, 0xFD	; 253
    225c:	de 4f       	sbci	r29, 0xFE	; 254
    225e:	99 83       	std	Y+1, r25	; 0x01
    2260:	88 83       	st	Y, r24
    2262:	c3 50       	subi	r28, 0x03	; 3
    2264:	d1 40       	sbci	r29, 0x01	; 1

     strcpy(ptr, (const char *)INPUT_UART_2);
    2266:	62 e1       	ldi	r22, 0x12	; 18
    2268:	76 e1       	ldi	r23, 0x16	; 22
    226a:	c8 01       	movw	r24, r16
    226c:	0e 94 90 48 	call	0x9120	; 0x9120 <strcpy>
     //Name
     ptr = strtok(ptr, delimiter);
    2270:	be 01       	movw	r22, r28
    2272:	6f 5f       	subi	r22, 0xFF	; 255
    2274:	7e 4f       	sbci	r23, 0xFE	; 254
    2276:	c8 01       	movw	r24, r16
    2278:	0e 94 72 48 	call	0x90e4	; 0x90e4 <strtok>
    227c:	8c 01       	movw	r16, r24
     Uart_Transmit_IT_PC("\rCocktail: ");
    227e:	85 e1       	ldi	r24, 0x15	; 21
    2280:	95 e0       	ldi	r25, 0x05	; 5
    2282:	0e 94 51 41 	call	0x82a2	; 0x82a2 <Uart_Transmit_IT_PC>
     Uart_Transmit_IT_PC(ptr);
    2286:	c8 01       	movw	r24, r16
    2288:	0e 94 51 41 	call	0x82a2	; 0x82a2 <Uart_Transmit_IT_PC>

    aktuellesGetraenk_file = tail_getraenk_file;
    228c:	e0 91 37 0a 	lds	r30, 0x0A37	; 0x800a37 <tail_getraenk_file>
    2290:	f0 91 38 0a 	lds	r31, 0x0A38	; 0x800a38 <tail_getraenk_file+0x1>
    2294:	f0 93 78 0a 	sts	0x0A78, r31	; 0x800a78 <aktuellesGetraenk_file+0x1>
    2298:	e0 93 77 0a 	sts	0x0A77, r30	; 0x800a77 <aktuellesGetraenk_file>
    lese_textfile_in_getraenk(aktuellesGetraenk_file->file);
    229c:	80 81       	ld	r24, Z
    229e:	0e 94 d7 06 	call	0xdae	; 0xdae <lese_textfile_in_getraenk>

    while (strcmp(aktuellesGetraenk->name, ptr)!=0)
    22a2:	12 c0       	rjmp	.+36     	; 0x22c8 <ESP_Getraenk+0xba>
    {
        aktuellesGetraenk_file = aktuellesGetraenk_file->prev;
    22a4:	e0 91 77 0a 	lds	r30, 0x0A77	; 0x800a77 <aktuellesGetraenk_file>
    22a8:	f0 91 78 0a 	lds	r31, 0x0A78	; 0x800a78 <aktuellesGetraenk_file+0x1>
    22ac:	03 80       	ldd	r0, Z+3	; 0x03
    22ae:	f4 81       	ldd	r31, Z+4	; 0x04
    22b0:	e0 2d       	mov	r30, r0
    22b2:	f0 93 78 0a 	sts	0x0A78, r31	; 0x800a78 <aktuellesGetraenk_file+0x1>
    22b6:	e0 93 77 0a 	sts	0x0A77, r30	; 0x800a77 <aktuellesGetraenk_file>
        lese_textfile_in_getraenk(aktuellesGetraenk_file->file);
    22ba:	80 81       	ld	r24, Z
    22bc:	0e 94 d7 06 	call	0xdae	; 0xdae <lese_textfile_in_getraenk>
		Uart_Transmit_IT_PC("While\r");
    22c0:	81 e2       	ldi	r24, 0x21	; 33
    22c2:	95 e0       	ldi	r25, 0x05	; 5
    22c4:	0e 94 51 41 	call	0x82a2	; 0x82a2 <Uart_Transmit_IT_PC>
     Uart_Transmit_IT_PC(ptr);

    aktuellesGetraenk_file = tail_getraenk_file;
    lese_textfile_in_getraenk(aktuellesGetraenk_file->file);

    while (strcmp(aktuellesGetraenk->name, ptr)!=0)
    22c8:	e0 91 0b 13 	lds	r30, 0x130B	; 0x80130b <aktuellesGetraenk>
    22cc:	f0 91 0c 13 	lds	r31, 0x130C	; 0x80130c <aktuellesGetraenk+0x1>
    22d0:	b8 01       	movw	r22, r16
    22d2:	80 81       	ld	r24, Z
    22d4:	91 81       	ldd	r25, Z+1	; 0x01
    22d6:	0e 94 87 48 	call	0x910e	; 0x910e <strcmp>
    22da:	89 2b       	or	r24, r25
    22dc:	19 f7       	brne	.-58     	; 0x22a4 <ESP_Getraenk+0x96>
    {
        aktuellesGetraenk_file = aktuellesGetraenk_file->prev;
        lese_textfile_in_getraenk(aktuellesGetraenk_file->file);
		Uart_Transmit_IT_PC("While\r");
    }
    nextion_change_page(ZUBABFRAGE);
    22de:	84 e0       	ldi	r24, 0x04	; 4
    22e0:	0e 94 fd 2b 	call	0x57fa	; 0x57fa <nextion_change_page>
}
    22e4:	cc 5f       	subi	r28, 0xFC	; 252
    22e6:	de 4f       	sbci	r29, 0xFE	; 254
    22e8:	0f b6       	in	r0, 0x3f	; 63
    22ea:	f8 94       	cli
    22ec:	de bf       	out	0x3e, r29	; 62
    22ee:	0f be       	out	0x3f, r0	; 63
    22f0:	cd bf       	out	0x3d, r28	; 61
    22f2:	df 91       	pop	r29
    22f4:	cf 91       	pop	r28
    22f6:	1f 91       	pop	r17
    22f8:	0f 91       	pop	r16
    22fa:	08 95       	ret

000022fc <Getraenk_erstellt>:

void Getraenk_erstellt()
{
    22fc:	2f 92       	push	r2
    22fe:	3f 92       	push	r3
    2300:	4f 92       	push	r4
    2302:	5f 92       	push	r5
    2304:	6f 92       	push	r6
    2306:	7f 92       	push	r7
    2308:	8f 92       	push	r8
    230a:	9f 92       	push	r9
    230c:	af 92       	push	r10
    230e:	bf 92       	push	r11
    2310:	cf 92       	push	r12
    2312:	df 92       	push	r13
    2314:	ef 92       	push	r14
    2316:	ff 92       	push	r15
    2318:	0f 93       	push	r16
    231a:	1f 93       	push	r17
    231c:	cf 93       	push	r28
    231e:	df 93       	push	r29
    2320:	cd b7       	in	r28, 0x3d	; 61
    2322:	de b7       	in	r29, 0x3e	; 62
    2324:	c1 54       	subi	r28, 0x41	; 65
    2326:	d2 40       	sbci	r29, 0x02	; 2
    2328:	0f b6       	in	r0, 0x3f	; 63
    232a:	f8 94       	cli
    232c:	de bf       	out	0x3e, r29	; 62
    232e:	0f be       	out	0x3f, r0	; 63
    2330:	cd bf       	out	0x3d, r28	; 61
    // String extrahieren und SD-Karten-File speichern (Getraenk)

    while (check_Communication_Input_UART_2()==0)
    2332:	0e 94 5c 2b 	call	0x56b8	; 0x56b8 <check_Communication_Input_UART_2>
    2336:	88 23       	and	r24, r24
    2338:	e1 f3       	breq	.-8      	; 0x2332 <Getraenk_erstellt+0x36>
        ;
    Uart_Transmit_IT_PC((char *)INPUT_UART_2);
    233a:	82 e1       	ldi	r24, 0x12	; 18
    233c:	96 e1       	ldi	r25, 0x16	; 22
    233e:	0e 94 51 41 	call	0x82a2	; 0x82a2 <Uart_Transmit_IT_PC>
    char buff[256] = {'\0'};
    2342:	80 e0       	ldi	r24, 0x00	; 0
    2344:	91 e0       	ldi	r25, 0x01	; 1
    2346:	9e 01       	movw	r18, r28
    2348:	2f 5f       	subi	r18, 0xFF	; 255
    234a:	3f 4f       	sbci	r19, 0xFF	; 255
    234c:	79 01       	movw	r14, r18
    234e:	d9 01       	movw	r26, r18
    2350:	fc 01       	movw	r30, r24
    2352:	1d 92       	st	X+, r1
    2354:	31 97       	sbiw	r30, 0x01	; 1
    2356:	e9 f7       	brne	.-6      	; 0x2352 <Getraenk_erstellt+0x56>
    char string[256] = {'\0'};
    2358:	8e 01       	movw	r16, r28
    235a:	0f 5f       	subi	r16, 0xFF	; 255
    235c:	1e 4f       	sbci	r17, 0xFE	; 254
    235e:	d8 01       	movw	r26, r16
    2360:	fc 01       	movw	r30, r24
    2362:	1d 92       	st	X+, r1
    2364:	31 97       	sbiw	r30, 0x01	; 1
    2366:	e9 f7       	brne	.-6      	; 0x2362 <Getraenk_erstellt+0x66>
    char * ptr = buff;
    char * ptr2 = string;
    char delimiter[] = ",:\r";
    2368:	8c e2       	ldi	r24, 0x2C	; 44
    236a:	9a e3       	ldi	r25, 0x3A	; 58
    236c:	cf 5f       	subi	r28, 0xFF	; 255
    236e:	dd 4f       	sbci	r29, 0xFD	; 253
    2370:	99 83       	std	Y+1, r25	; 0x01
    2372:	88 83       	st	Y, r24
    2374:	c1 50       	subi	r28, 0x01	; 1
    2376:	d2 40       	sbci	r29, 0x02	; 2
    2378:	8d e0       	ldi	r24, 0x0D	; 13
    237a:	90 e0       	ldi	r25, 0x00	; 0
    237c:	cd 5f       	subi	r28, 0xFD	; 253
    237e:	dd 4f       	sbci	r29, 0xFD	; 253
    2380:	99 83       	std	Y+1, r25	; 0x01
    2382:	88 83       	st	Y, r24
    2384:	c3 50       	subi	r28, 0x03	; 3
    2386:	d2 40       	sbci	r29, 0x02	; 2

    strcpy(buff, (char *)INPUT_UART_2);
    2388:	62 e1       	ldi	r22, 0x12	; 18
    238a:	76 e1       	ldi	r23, 0x16	; 22
    238c:	c9 01       	movw	r24, r18
    238e:	0e 94 90 48 	call	0x9120	; 0x9120 <strcpy>
    //Name
    ptr = strtok(ptr, delimiter);
    2392:	be 01       	movw	r22, r28
    2394:	6f 5f       	subi	r22, 0xFF	; 255
    2396:	7d 4f       	sbci	r23, 0xFD	; 253
    2398:	c7 01       	movw	r24, r14
    239a:	0e 94 72 48 	call	0x90e4	; 0x90e4 <strtok>
    239e:	7c 01       	movw	r14, r24
 Uart_Transmit_IT_PC("\rName: ");
    23a0:	88 e2       	ldi	r24, 0x28	; 40
    23a2:	95 e0       	ldi	r25, 0x05	; 5
    23a4:	0e 94 51 41 	call	0x82a2	; 0x82a2 <Uart_Transmit_IT_PC>
 Uart_Transmit_IT_PC(ptr);
    23a8:	c7 01       	movw	r24, r14
    23aa:	0e 94 51 41 	call	0x82a2	; 0x82a2 <Uart_Transmit_IT_PC>
    strcat(ptr2, "Name:");
    23ae:	d8 01       	movw	r26, r16
    23b0:	0d 90       	ld	r0, X+
    23b2:	00 20       	and	r0, r0
    23b4:	e9 f7       	brne	.-6      	; 0x23b0 <Getraenk_erstellt+0xb4>
    23b6:	11 97       	sbiw	r26, 0x01	; 1
    23b8:	86 e0       	ldi	r24, 0x06	; 6
    23ba:	ed e8       	ldi	r30, 0x8D	; 141
    23bc:	f4 e0       	ldi	r31, 0x04	; 4
    23be:	01 90       	ld	r0, Z+
    23c0:	0d 92       	st	X+, r0
    23c2:	8a 95       	dec	r24
    23c4:	e1 f7       	brne	.-8      	; 0x23be <Getraenk_erstellt+0xc2>
    strcat(ptr2, ptr);
    23c6:	b7 01       	movw	r22, r14
    23c8:	c8 01       	movw	r24, r16
    23ca:	0e 94 7c 48 	call	0x90f8	; 0x90f8 <strcat>
    strcat(ptr2, "\rMengen:\r");
    23ce:	d8 01       	movw	r26, r16
    23d0:	0d 90       	ld	r0, X+
    23d2:	00 20       	and	r0, r0
    23d4:	e9 f7       	brne	.-6      	; 0x23d0 <Getraenk_erstellt+0xd4>
    23d6:	11 97       	sbiw	r26, 0x01	; 1
    23d8:	8a e0       	ldi	r24, 0x0A	; 10
    23da:	e3 e9       	ldi	r30, 0x93	; 147
    23dc:	f4 e0       	ldi	r31, 0x04	; 4
    23de:	01 90       	ld	r0, Z+
    23e0:	0d 92       	st	X+, r0
    23e2:	8a 95       	dec	r24
    23e4:	e1 f7       	brne	.-8      	; 0x23de <Getraenk_erstellt+0xe2>

    char buff2[20] = {'\0'};
    23e6:	fe 01       	movw	r30, r28
    23e8:	eb 5f       	subi	r30, 0xFB	; 251
    23ea:	fd 4f       	sbci	r31, 0xFD	; 253
    23ec:	84 e1       	ldi	r24, 0x14	; 20
    23ee:	df 01       	movw	r26, r30
    23f0:	1d 92       	st	X+, r1
    23f2:	8a 95       	dec	r24
    23f4:	e9 f7       	brne	.-6      	; 0x23f0 <Getraenk_erstellt+0xf4>
    char temp2[21] = {'\0'};
    23f6:	74 96       	adiw	r30, 0x14	; 20
    23f8:	85 e1       	ldi	r24, 0x15	; 21
    23fa:	df 01       	movw	r26, r30
    23fc:	1d 92       	st	X+, r1
    23fe:	8a 95       	dec	r24
    2400:	e9 f7       	brne	.-6      	; 0x23fc <Getraenk_erstellt+0x100>
    char alkohol = 0;
    for (int count = 0 ; count < 12 ; count++)
    2402:	c1 2c       	mov	r12, r1
    2404:	d1 2c       	mov	r13, r1
    strcat(ptr2, ptr);
    strcat(ptr2, "\rMengen:\r");

    char buff2[20] = {'\0'};
    char temp2[21] = {'\0'};
    char alkohol = 0;
    2406:	31 2c       	mov	r3, r1
                        alkohol = 1;
                    }
                }
                aktuelleZutatInMaschine = aktuelleZutatInMaschine->prev;
            }
            strcat(ptr2, (const char *)temp2);
    2408:	48 01       	movw	r8, r16
            strcat(ptr2, ":");
    240a:	0f 2e       	mov	r0, r31
    240c:	fa e3       	ldi	r31, 0x3A	; 58
    240e:	6f 2e       	mov	r6, r31
    2410:	71 2c       	mov	r7, r1
    2412:	f0 2d       	mov	r31, r0
            strcat(ptr2, ptr);
            strcat(ptr2, "\r");
    2414:	0f 2e       	mov	r0, r31
    2416:	fd e0       	ldi	r31, 0x0D	; 13
    2418:	4f 2e       	mov	r4, r31
    241a:	51 2c       	mov	r5, r1
    241c:	f0 2d       	mov	r31, r0
            {
                if (strcmp(aktuelleZutatInMaschine->name, temp2) == 0)
                {
                    if (aktuelleZutatInMaschine->alkohol == 1)
                    {
                        alkohol = 1;
    241e:	22 24       	eor	r2, r2
    2420:	23 94       	inc	r2
    char temp2[21] = {'\0'};
    char alkohol = 0;
    for (int count = 0 ; count < 12 ; count++)
    {
        // Zutat 1 Name
 Uart_Transmit_IT_PC("\rZutat");
    2422:	80 e3       	ldi	r24, 0x30	; 48
    2424:	95 e0       	ldi	r25, 0x05	; 5
    2426:	0e 94 51 41 	call	0x82a2	; 0x82a2 <Uart_Transmit_IT_PC>
 itoa((count + 1), (char *)buff2, 10);
    242a:	ef ef       	ldi	r30, 0xFF	; 255
    242c:	ce 1a       	sub	r12, r30
    242e:	de 0a       	sbc	r13, r30
    } else if (__radix < 2 || __radix > 36) {
	*__s = 0;
	return __s;
    } else {
	extern char *__itoa_ncheck (int, char *, unsigned char);
	return __itoa_ncheck (__val, __s, __radix);
    2430:	4a e0       	ldi	r20, 0x0A	; 10
    2432:	be 01       	movw	r22, r28
    2434:	6b 5f       	subi	r22, 0xFB	; 251
    2436:	7d 4f       	sbci	r23, 0xFD	; 253
    2438:	c6 01       	movw	r24, r12
    243a:	0e 94 be 48 	call	0x917c	; 0x917c <__itoa_ncheck>
 Uart_Transmit_IT_PC(buff2);
    243e:	ce 01       	movw	r24, r28
    2440:	8b 5f       	subi	r24, 0xFB	; 251
    2442:	9d 4f       	sbci	r25, 0xFD	; 253
    2444:	0e 94 51 41 	call	0x82a2	; 0x82a2 <Uart_Transmit_IT_PC>
 Uart_Transmit_IT_PC(": ");
    2448:	85 e6       	ldi	r24, 0x65	; 101
    244a:	97 e0       	ldi	r25, 0x07	; 7
    244c:	0e 94 51 41 	call	0x82a2	; 0x82a2 <Uart_Transmit_IT_PC>
        ptr = strtok(NULL, delimiter);
    2450:	be 01       	movw	r22, r28
    2452:	6f 5f       	subi	r22, 0xFF	; 255
    2454:	7d 4f       	sbci	r23, 0xFD	; 253
    2456:	80 e0       	ldi	r24, 0x00	; 0
    2458:	90 e0       	ldi	r25, 0x00	; 0
    245a:	0e 94 72 48 	call	0x90e4	; 0x90e4 <strtok>
    245e:	8c 01       	movw	r16, r24
 Uart_Transmit_IT_PC(ptr);
    2460:	0e 94 51 41 	call	0x82a2	; 0x82a2 <Uart_Transmit_IT_PC>
        strcpy((char *)temp2, ptr);
    2464:	b8 01       	movw	r22, r16
    2466:	ce 01       	movw	r24, r28
    2468:	87 5e       	subi	r24, 0xE7	; 231
    246a:	9d 4f       	sbci	r25, 0xFD	; 253
    246c:	0e 94 90 48 	call	0x9120	; 0x9120 <strcpy>

        // Zutat 1 Menge
 Uart_Transmit_IT_PC("\rMenge");
    2470:	87 e3       	ldi	r24, 0x37	; 55
    2472:	95 e0       	ldi	r25, 0x05	; 5
    2474:	0e 94 51 41 	call	0x82a2	; 0x82a2 <Uart_Transmit_IT_PC>
    2478:	4a e0       	ldi	r20, 0x0A	; 10
    247a:	be 01       	movw	r22, r28
    247c:	6b 5f       	subi	r22, 0xFB	; 251
    247e:	7d 4f       	sbci	r23, 0xFD	; 253
    2480:	c6 01       	movw	r24, r12
    2482:	0e 94 be 48 	call	0x917c	; 0x917c <__itoa_ncheck>
 itoa((count + 1), (char *)buff2, 10);
 Uart_Transmit_IT_PC(buff2);
    2486:	ce 01       	movw	r24, r28
    2488:	8b 5f       	subi	r24, 0xFB	; 251
    248a:	9d 4f       	sbci	r25, 0xFD	; 253
    248c:	0e 94 51 41 	call	0x82a2	; 0x82a2 <Uart_Transmit_IT_PC>
 Uart_Transmit_IT_PC(": ");
    2490:	85 e6       	ldi	r24, 0x65	; 101
    2492:	97 e0       	ldi	r25, 0x07	; 7
    2494:	0e 94 51 41 	call	0x82a2	; 0x82a2 <Uart_Transmit_IT_PC>
        ptr = strtok(NULL, delimiter);
    2498:	be 01       	movw	r22, r28
    249a:	6f 5f       	subi	r22, 0xFF	; 255
    249c:	7d 4f       	sbci	r23, 0xFD	; 253
    249e:	80 e0       	ldi	r24, 0x00	; 0
    24a0:	90 e0       	ldi	r25, 0x00	; 0
    24a2:	0e 94 72 48 	call	0x90e4	; 0x90e4 <strtok>
    24a6:	5c 01       	movw	r10, r24
        if (atoi(ptr)>0)
    24a8:	0e 94 55 48 	call	0x90aa	; 0x90aa <atoi>
    24ac:	18 16       	cp	r1, r24
    24ae:	19 06       	cpc	r1, r25
    24b0:	0c f0       	brlt	.+2      	; 0x24b4 <Getraenk_erstellt+0x1b8>
    24b2:	45 c0       	rjmp	.+138    	; 0x253e <Getraenk_erstellt+0x242>
        {
            aktuelleZutatInMaschine = tail_zut_in_Maschine;
    24b4:	80 91 a7 0f 	lds	r24, 0x0FA7	; 0x800fa7 <tail_zut_in_Maschine>
    24b8:	90 91 a8 0f 	lds	r25, 0x0FA8	; 0x800fa8 <tail_zut_in_Maschine+0x1>
    24bc:	90 93 47 0a 	sts	0x0A47, r25	; 0x800a47 <aktuelleZutatInMaschine+0x1>
    24c0:	80 93 46 0a 	sts	0x0A46, r24	; 0x800a46 <aktuelleZutatInMaschine>
    24c4:	0f 2e       	mov	r0, r31
    24c6:	fc e0       	ldi	r31, 0x0C	; 12
    24c8:	ef 2e       	mov	r14, r31
    24ca:	f1 2c       	mov	r15, r1
    24cc:	f0 2d       	mov	r31, r0
            for (int count2 = 0 ; count2 < 12 ; count2++)
            {
                if (strcmp(aktuelleZutatInMaschine->name, temp2) == 0)
    24ce:	00 91 46 0a 	lds	r16, 0x0A46	; 0x800a46 <aktuelleZutatInMaschine>
    24d2:	10 91 47 0a 	lds	r17, 0x0A47	; 0x800a47 <aktuelleZutatInMaschine+0x1>
    24d6:	be 01       	movw	r22, r28
    24d8:	67 5e       	subi	r22, 0xE7	; 231
    24da:	7d 4f       	sbci	r23, 0xFD	; 253
    24dc:	d8 01       	movw	r26, r16
    24de:	8d 91       	ld	r24, X+
    24e0:	9c 91       	ld	r25, X
    24e2:	0e 94 87 48 	call	0x910e	; 0x910e <strcmp>
    24e6:	89 2b       	or	r24, r25
    24e8:	29 f4       	brne	.+10     	; 0x24f4 <Getraenk_erstellt+0x1f8>
                {
                    if (aktuelleZutatInMaschine->alkohol == 1)
    24ea:	f8 01       	movw	r30, r16
    24ec:	83 81       	ldd	r24, Z+3	; 0x03
    24ee:	81 30       	cpi	r24, 0x01	; 1
    24f0:	09 f4       	brne	.+2      	; 0x24f4 <Getraenk_erstellt+0x1f8>
                    {
                        alkohol = 1;
    24f2:	32 2c       	mov	r3, r2
                    }
                }
                aktuelleZutatInMaschine = aktuelleZutatInMaschine->prev;
    24f4:	d8 01       	movw	r26, r16
    24f6:	1c 96       	adiw	r26, 0x0c	; 12
    24f8:	8d 91       	ld	r24, X+
    24fa:	9c 91       	ld	r25, X
    24fc:	1d 97       	sbiw	r26, 0x0d	; 13
    24fe:	90 93 47 0a 	sts	0x0A47, r25	; 0x800a47 <aktuelleZutatInMaschine+0x1>
    2502:	80 93 46 0a 	sts	0x0A46, r24	; 0x800a46 <aktuelleZutatInMaschine>
    2506:	b1 e0       	ldi	r27, 0x01	; 1
    2508:	eb 1a       	sub	r14, r27
    250a:	f1 08       	sbc	r15, r1
 Uart_Transmit_IT_PC(": ");
        ptr = strtok(NULL, delimiter);
        if (atoi(ptr)>0)
        {
            aktuelleZutatInMaschine = tail_zut_in_Maschine;
            for (int count2 = 0 ; count2 < 12 ; count2++)
    250c:	01 f7       	brne	.-64     	; 0x24ce <Getraenk_erstellt+0x1d2>
                        alkohol = 1;
                    }
                }
                aktuelleZutatInMaschine = aktuelleZutatInMaschine->prev;
            }
            strcat(ptr2, (const char *)temp2);
    250e:	be 01       	movw	r22, r28
    2510:	67 5e       	subi	r22, 0xE7	; 231
    2512:	7d 4f       	sbci	r23, 0xFD	; 253
    2514:	c4 01       	movw	r24, r8
    2516:	0e 94 7c 48 	call	0x90f8	; 0x90f8 <strcat>
            strcat(ptr2, ":");
    251a:	f4 01       	movw	r30, r8
    251c:	01 90       	ld	r0, Z+
    251e:	00 20       	and	r0, r0
    2520:	e9 f7       	brne	.-6      	; 0x251c <Getraenk_erstellt+0x220>
    2522:	31 97       	sbiw	r30, 0x01	; 1
    2524:	71 82       	std	Z+1, r7	; 0x01
    2526:	60 82       	st	Z, r6
            strcat(ptr2, ptr);
    2528:	b5 01       	movw	r22, r10
    252a:	c4 01       	movw	r24, r8
    252c:	0e 94 7c 48 	call	0x90f8	; 0x90f8 <strcat>
            strcat(ptr2, "\r");
    2530:	f4 01       	movw	r30, r8
    2532:	01 90       	ld	r0, Z+
    2534:	00 20       	and	r0, r0
    2536:	e9 f7       	brne	.-6      	; 0x2532 <Getraenk_erstellt+0x236>
    2538:	31 97       	sbiw	r30, 0x01	; 1
    253a:	51 82       	std	Z+1, r5	; 0x01
    253c:	40 82       	st	Z, r4
        }
 Uart_Transmit_IT_PC(ptr);
    253e:	c5 01       	movw	r24, r10
    2540:	0e 94 51 41 	call	0x82a2	; 0x82a2 <Uart_Transmit_IT_PC>
	#else
		//round up by default
		__ticks_dc = (uint32_t)(ceil(fabs(__tmp)));
	#endif

	__builtin_avr_delay_cycles(__ticks_dc);
    2544:	ef ef       	ldi	r30, 0xFF	; 255
    2546:	f3 ec       	ldi	r31, 0xC3	; 195
    2548:	29 e0       	ldi	r18, 0x09	; 9
    254a:	e1 50       	subi	r30, 0x01	; 1
    254c:	f0 40       	sbci	r31, 0x00	; 0
    254e:	20 40       	sbci	r18, 0x00	; 0
    2550:	e1 f7       	brne	.-8      	; 0x254a <Getraenk_erstellt+0x24e>
    2552:	00 c0       	rjmp	.+0      	; 0x2554 <Getraenk_erstellt+0x258>
    2554:	00 00       	nop
    strcat(ptr2, "\rMengen:\r");

    char buff2[20] = {'\0'};
    char temp2[21] = {'\0'};
    char alkohol = 0;
    for (int count = 0 ; count < 12 ; count++)
    2556:	3c e0       	ldi	r19, 0x0C	; 12
    2558:	c3 16       	cp	r12, r19
    255a:	d1 04       	cpc	r13, r1
    255c:	09 f0       	breq	.+2      	; 0x2560 <Getraenk_erstellt+0x264>
    255e:	61 cf       	rjmp	.-318    	; 0x2422 <Getraenk_erstellt+0x126>
            strcat(ptr2, "\r");
        }
 Uart_Transmit_IT_PC(ptr);
        _delay_ms(200);
    }
    strcat(ptr2, ";\r");
    2560:	8e 01       	movw	r16, r28
    2562:	0f 5f       	subi	r16, 0xFF	; 255
    2564:	1e 4f       	sbci	r17, 0xFE	; 254
    2566:	f8 01       	movw	r30, r16
    2568:	01 90       	ld	r0, Z+
    256a:	00 20       	and	r0, r0
    256c:	e9 f7       	brne	.-6      	; 0x2568 <Getraenk_erstellt+0x26c>
    256e:	31 97       	sbiw	r30, 0x01	; 1
    2570:	8b e3       	ldi	r24, 0x3B	; 59
    2572:	9d e0       	ldi	r25, 0x0D	; 13
    2574:	91 83       	std	Z+1, r25	; 0x01
    2576:	80 83       	st	Z, r24
    2578:	12 82       	std	Z+2, r1	; 0x02
    strcat(ptr2, "Alkohol:");
    257a:	d8 01       	movw	r26, r16
    257c:	0d 90       	ld	r0, X+
    257e:	00 20       	and	r0, r0
    2580:	e9 f7       	brne	.-6      	; 0x257c <Getraenk_erstellt+0x280>
    2582:	11 97       	sbiw	r26, 0x01	; 1
    2584:	89 e0       	ldi	r24, 0x09	; 9
    2586:	e1 e5       	ldi	r30, 0x51	; 81
    2588:	f6 e0       	ldi	r31, 0x06	; 6
    258a:	01 90       	ld	r0, Z+
    258c:	0d 92       	st	X+, r0
    258e:	8a 95       	dec	r24
    2590:	e1 f7       	brne	.-8      	; 0x258a <Getraenk_erstellt+0x28e>
    2592:	4a e0       	ldi	r20, 0x0A	; 10
    2594:	be 01       	movw	r22, r28
    2596:	6b 5f       	subi	r22, 0xFB	; 251
    2598:	7d 4f       	sbci	r23, 0xFD	; 253
    259a:	83 2d       	mov	r24, r3
    259c:	90 e0       	ldi	r25, 0x00	; 0
    259e:	0e 94 be 48 	call	0x917c	; 0x917c <__itoa_ncheck>
    itoa(alkohol, (char *)buff2, 10);
    strcat(ptr2, (char *)buff2);
    25a2:	be 01       	movw	r22, r28
    25a4:	6b 5f       	subi	r22, 0xFB	; 251
    25a6:	7d 4f       	sbci	r23, 0xFD	; 253
    25a8:	c8 01       	movw	r24, r16
    25aa:	0e 94 7c 48 	call	0x90f8	; 0x90f8 <strcat>
    strcat(ptr2, "\rBild:32");
    25ae:	d8 01       	movw	r26, r16
    25b0:	0d 90       	ld	r0, X+
    25b2:	00 20       	and	r0, r0
    25b4:	e9 f7       	brne	.-6      	; 0x25b0 <Getraenk_erstellt+0x2b4>
    25b6:	11 97       	sbiw	r26, 0x01	; 1
    25b8:	89 e0       	ldi	r24, 0x09	; 9
    25ba:	ee e3       	ldi	r30, 0x3E	; 62
    25bc:	f5 e0       	ldi	r31, 0x05	; 5
    25be:	01 90       	ld	r0, Z+
    25c0:	0d 92       	st	X+, r0
    25c2:	8a 95       	dec	r24
    25c4:	e1 f7       	brne	.-8      	; 0x25be <Getraenk_erstellt+0x2c2>
    strcat(ptr2, "~");
    25c6:	f8 01       	movw	r30, r16
    25c8:	01 90       	ld	r0, Z+
    25ca:	00 20       	and	r0, r0
    25cc:	e9 f7       	brne	.-6      	; 0x25c8 <Getraenk_erstellt+0x2cc>
    25ce:	31 97       	sbiw	r30, 0x01	; 1
    25d0:	8e e7       	ldi	r24, 0x7E	; 126
    25d2:	90 e0       	ldi	r25, 0x00	; 0
    25d4:	91 83       	std	Z+1, r25	; 0x01
    25d6:	80 83       	st	Z, r24

 Uart_Transmit_IT_PC(ptr2);
    25d8:	c8 01       	movw	r24, r16
    25da:	0e 94 51 41 	call	0x82a2	; 0x82a2 <Uart_Transmit_IT_PC>

    // Filename erstellen
    char buff97[20] = {'\0'};
    25de:	7e 01       	movw	r14, r28
    25e0:	82 ed       	ldi	r24, 0xD2	; 210
    25e2:	e8 1a       	sub	r14, r24
    25e4:	8d ef       	ldi	r24, 0xFD	; 253
    25e6:	f8 0a       	sbc	r15, r24
    25e8:	84 e1       	ldi	r24, 0x14	; 20
    25ea:	d7 01       	movw	r26, r14
    25ec:	1d 92       	st	X+, r1
    25ee:	8a 95       	dec	r24
    25f0:	e9 f7       	brne	.-6      	; 0x25ec <Getraenk_erstellt+0x2f0>
    itoa((head_getraenk_file->file)+1, (char *)buff2, 10);
    25f2:	e0 91 79 0a 	lds	r30, 0x0A79	; 0x800a79 <head_getraenk_file>
    25f6:	f0 91 7a 0a 	lds	r31, 0x0A7A	; 0x800a7a <head_getraenk_file+0x1>
    25fa:	80 81       	ld	r24, Z
    25fc:	90 e0       	ldi	r25, 0x00	; 0
    25fe:	4a e0       	ldi	r20, 0x0A	; 10
    2600:	be 01       	movw	r22, r28
    2602:	6b 5f       	subi	r22, 0xFB	; 251
    2604:	7d 4f       	sbci	r23, 0xFD	; 253
    2606:	01 96       	adiw	r24, 0x01	; 1
    2608:	0e 94 be 48 	call	0x917c	; 0x917c <__itoa_ncheck>
    strcpy((char *)buff97, (char *)buff2);
    260c:	be 01       	movw	r22, r28
    260e:	6b 5f       	subi	r22, 0xFB	; 251
    2610:	7d 4f       	sbci	r23, 0xFD	; 253
    2612:	c7 01       	movw	r24, r14
    2614:	0e 94 90 48 	call	0x9120	; 0x9120 <strcpy>
    strcat((char *)buff97, (const char *)".txt");
    2618:	d7 01       	movw	r26, r14
    261a:	0d 90       	ld	r0, X+
    261c:	00 20       	and	r0, r0
    261e:	e9 f7       	brne	.-6      	; 0x261a <Getraenk_erstellt+0x31e>
    2620:	11 97       	sbiw	r26, 0x01	; 1
    2622:	85 e0       	ldi	r24, 0x05	; 5
    2624:	e0 ee       	ldi	r30, 0xE0	; 224
    2626:	f4 e0       	ldi	r31, 0x04	; 4
    2628:	01 90       	ld	r0, Z+
    262a:	0d 92       	st	X+, r0
    262c:	8a 95       	dec	r24
    262e:	e1 f7       	brne	.-8      	; 0x2628 <Getraenk_erstellt+0x32c>
    writeFile((unsigned char *)buff97, (unsigned char *)ptr2);
    2630:	b8 01       	movw	r22, r16
    2632:	c7 01       	movw	r24, r14
    2634:	0e 94 2d 34 	call	0x685a	; 0x685a <writeFile>
    Uart_Transmit_IT_PC((char *)buff97);
    2638:	c7 01       	movw	r24, r14
    263a:	0e 94 51 41 	call	0x82a2	; 0x82a2 <Uart_Transmit_IT_PC>

    // An dynamic linked list anhngen
    getraenk_file_t * tmp2;
    tmp2 = create_new_getraenk_file((head_getraenk_file_2->file)+1);
    263e:	e0 91 41 0a 	lds	r30, 0x0A41	; 0x800a41 <head_getraenk_file_2>
    2642:	f0 91 42 0a 	lds	r31, 0x0A42	; 0x800a42 <head_getraenk_file_2+0x1>
    2646:	80 81       	ld	r24, Z
    2648:	8f 5f       	subi	r24, 0xFF	; 255
    264a:	0e 94 5a 25 	call	0x4ab4	; 0x4ab4 <create_new_getraenk_file>
    head_getraenk_file = insert_file_at_head(&head_getraenk_file, tmp2);
    264e:	bc 01       	movw	r22, r24
    2650:	89 e7       	ldi	r24, 0x79	; 121
    2652:	9a e0       	ldi	r25, 0x0A	; 10
    2654:	0e 94 66 25 	call	0x4acc	; 0x4acc <insert_file_at_head>
    2658:	90 93 7a 0a 	sts	0x0A7A, r25	; 0x800a7a <head_getraenk_file+0x1>
    265c:	80 93 79 0a 	sts	0x0A79, r24	; 0x800a79 <head_getraenk_file>
    2660:	cf 5b       	subi	r28, 0xBF	; 191
    2662:	dd 4f       	sbci	r29, 0xFD	; 253
    2664:	0f b6       	in	r0, 0x3f	; 63
    2666:	f8 94       	cli
    2668:	de bf       	out	0x3e, r29	; 62
    266a:	0f be       	out	0x3f, r0	; 63
    266c:	cd bf       	out	0x3d, r28	; 61
    266e:	df 91       	pop	r29
    2670:	cf 91       	pop	r28
    2672:	1f 91       	pop	r17
    2674:	0f 91       	pop	r16
    2676:	ff 90       	pop	r15
    2678:	ef 90       	pop	r14
    267a:	df 90       	pop	r13
    267c:	cf 90       	pop	r12
    267e:	bf 90       	pop	r11
    2680:	af 90       	pop	r10
    2682:	9f 90       	pop	r9
    2684:	8f 90       	pop	r8
    2686:	7f 90       	pop	r7
    2688:	6f 90       	pop	r6
    268a:	5f 90       	pop	r5
    268c:	4f 90       	pop	r4
    268e:	3f 90       	pop	r3
    2690:	2f 90       	pop	r2
    2692:	08 95       	ret

00002694 <check_startseite>:
        break;
    }
}

void check_fehleranzeige(uint8_t button)
{
    2694:	90 e0       	ldi	r25, 0x00	; 0
    2696:	fc 01       	movw	r30, r24
    2698:	32 97       	sbiw	r30, 0x02	; 2
    269a:	e8 30       	cpi	r30, 0x08	; 8
    269c:	f1 05       	cpc	r31, r1
    269e:	08 f0       	brcs	.+2      	; 0x26a2 <check_startseite+0xe>
    26a0:	f0 c0       	rjmp	.+480    	; 0x2882 <check_startseite+0x1ee>
    26a2:	88 27       	eor	r24, r24
    26a4:	ea 56       	subi	r30, 0x6A	; 106
    26a6:	ff 4f       	sbci	r31, 0xFF	; 255
    26a8:	8f 4f       	sbci	r24, 0xFF	; 255
    26aa:	0c 94 1d 46 	jmp	0x8c3a	; 0x8c3a <__tablejump2__>
    26ae:	82 e0       	ldi	r24, 0x02	; 2
    26b0:	0e 94 fd 2b 	call	0x57fa	; 0x57fa <nextion_change_page>
    26b4:	e0 91 0b 13 	lds	r30, 0x130B	; 0x80130b <aktuellesGetraenk>
    26b8:	f0 91 0c 13 	lds	r31, 0x130C	; 0x80130c <aktuellesGetraenk+0x1>
    26bc:	60 81       	ld	r22, Z
    26be:	71 81       	ldd	r23, Z+1	; 0x01
    26c0:	83 e6       	ldi	r24, 0x63	; 99
    26c2:	92 e0       	ldi	r25, 0x02	; 2
    26c4:	0e 94 1c 2c 	call	0x5838	; 0x5838 <nextion_setText>
    26c8:	80 91 0b 13 	lds	r24, 0x130B	; 0x80130b <aktuellesGetraenk>
    26cc:	90 91 0c 13 	lds	r25, 0x130C	; 0x80130c <aktuellesGetraenk+0x1>
    26d0:	0c 94 03 06 	jmp	0xc06	; 0xc06 <erstelle_Zutatenliste>
    26d4:	08 95       	ret
    26d6:	80 91 45 0a 	lds	r24, 0x0A45	; 0x800a45 <Liste>
    26da:	81 30       	cpi	r24, 0x01	; 1
    26dc:	39 f0       	breq	.+14     	; 0x26ec <check_startseite+0x58>
    26de:	18 f0       	brcs	.+6      	; 0x26e6 <check_startseite+0x52>
    26e0:	82 30       	cpi	r24, 0x02	; 2
    26e2:	b9 f0       	breq	.+46     	; 0x2712 <check_startseite+0x7e>
    26e4:	28 c0       	rjmp	.+80     	; 0x2736 <check_startseite+0xa2>
    26e6:	0e 94 47 09 	call	0x128e	; 0x128e <schiebe_file_next>
    26ea:	25 c0       	rjmp	.+74     	; 0x2736 <check_startseite+0xa2>
    26ec:	0e 94 47 09 	call	0x128e	; 0x128e <schiebe_file_next>
    26f0:	e0 91 0b 13 	lds	r30, 0x130B	; 0x80130b <aktuellesGetraenk>
    26f4:	f0 91 0c 13 	lds	r31, 0x130C	; 0x80130c <aktuellesGetraenk+0x1>
    26f8:	82 81       	ldd	r24, Z+2	; 0x02
    26fa:	81 11       	cpse	r24, r1
    26fc:	1c c0       	rjmp	.+56     	; 0x2736 <check_startseite+0xa2>
    26fe:	0e 94 47 09 	call	0x128e	; 0x128e <schiebe_file_next>
    2702:	e0 91 0b 13 	lds	r30, 0x130B	; 0x80130b <aktuellesGetraenk>
    2706:	f0 91 0c 13 	lds	r31, 0x130C	; 0x80130c <aktuellesGetraenk+0x1>
    270a:	82 81       	ldd	r24, Z+2	; 0x02
    270c:	88 23       	and	r24, r24
    270e:	b9 f3       	breq	.-18     	; 0x26fe <check_startseite+0x6a>
    2710:	12 c0       	rjmp	.+36     	; 0x2736 <check_startseite+0xa2>
    2712:	0e 94 47 09 	call	0x128e	; 0x128e <schiebe_file_next>
    2716:	e0 91 0b 13 	lds	r30, 0x130B	; 0x80130b <aktuellesGetraenk>
    271a:	f0 91 0c 13 	lds	r31, 0x130C	; 0x80130c <aktuellesGetraenk+0x1>
    271e:	82 81       	ldd	r24, Z+2	; 0x02
    2720:	81 30       	cpi	r24, 0x01	; 1
    2722:	49 f4       	brne	.+18     	; 0x2736 <check_startseite+0xa2>
    2724:	0e 94 47 09 	call	0x128e	; 0x128e <schiebe_file_next>
    2728:	e0 91 0b 13 	lds	r30, 0x130B	; 0x80130b <aktuellesGetraenk>
    272c:	f0 91 0c 13 	lds	r31, 0x130C	; 0x80130c <aktuellesGetraenk+0x1>
    2730:	82 81       	ldd	r24, Z+2	; 0x02
    2732:	81 30       	cpi	r24, 0x01	; 1
    2734:	b9 f3       	breq	.-18     	; 0x2724 <check_startseite+0x90>
    2736:	80 91 0b 13 	lds	r24, 0x130B	; 0x80130b <aktuellesGetraenk>
    273a:	90 91 0c 13 	lds	r25, 0x130C	; 0x80130c <aktuellesGetraenk+0x1>
    273e:	0c 94 0c 04 	jmp	0x818	; 0x818 <setze_startanzeige>
    2742:	08 95       	ret
    2744:	84 e0       	ldi	r24, 0x04	; 4
    2746:	0e 94 fd 2b 	call	0x57fa	; 0x57fa <nextion_change_page>
    274a:	e0 91 77 0a 	lds	r30, 0x0A77	; 0x800a77 <aktuellesGetraenk_file>
    274e:	f0 91 78 0a 	lds	r31, 0x0A78	; 0x800a78 <aktuellesGetraenk_file+0x1>
    2752:	80 81       	ld	r24, Z
    2754:	0c 94 d7 06 	jmp	0xdae	; 0xdae <lese_textfile_in_getraenk>
    2758:	08 95       	ret
    275a:	80 91 45 0a 	lds	r24, 0x0A45	; 0x800a45 <Liste>
    275e:	81 30       	cpi	r24, 0x01	; 1
    2760:	39 f0       	breq	.+14     	; 0x2770 <check_startseite+0xdc>
    2762:	18 f0       	brcs	.+6      	; 0x276a <check_startseite+0xd6>
    2764:	82 30       	cpi	r24, 0x02	; 2
    2766:	b9 f0       	breq	.+46     	; 0x2796 <check_startseite+0x102>
    2768:	28 c0       	rjmp	.+80     	; 0x27ba <check_startseite+0x126>
    276a:	0e 94 78 09 	call	0x12f0	; 0x12f0 <schiebe_file_prev>
    276e:	25 c0       	rjmp	.+74     	; 0x27ba <check_startseite+0x126>
    2770:	0e 94 78 09 	call	0x12f0	; 0x12f0 <schiebe_file_prev>
    2774:	e0 91 0b 13 	lds	r30, 0x130B	; 0x80130b <aktuellesGetraenk>
    2778:	f0 91 0c 13 	lds	r31, 0x130C	; 0x80130c <aktuellesGetraenk+0x1>
    277c:	82 81       	ldd	r24, Z+2	; 0x02
    277e:	81 11       	cpse	r24, r1
    2780:	1c c0       	rjmp	.+56     	; 0x27ba <check_startseite+0x126>
    2782:	0e 94 78 09 	call	0x12f0	; 0x12f0 <schiebe_file_prev>
    2786:	e0 91 0b 13 	lds	r30, 0x130B	; 0x80130b <aktuellesGetraenk>
    278a:	f0 91 0c 13 	lds	r31, 0x130C	; 0x80130c <aktuellesGetraenk+0x1>
    278e:	82 81       	ldd	r24, Z+2	; 0x02
    2790:	88 23       	and	r24, r24
    2792:	b9 f3       	breq	.-18     	; 0x2782 <check_startseite+0xee>
    2794:	12 c0       	rjmp	.+36     	; 0x27ba <check_startseite+0x126>
    2796:	0e 94 78 09 	call	0x12f0	; 0x12f0 <schiebe_file_prev>
    279a:	e0 91 0b 13 	lds	r30, 0x130B	; 0x80130b <aktuellesGetraenk>
    279e:	f0 91 0c 13 	lds	r31, 0x130C	; 0x80130c <aktuellesGetraenk+0x1>
    27a2:	82 81       	ldd	r24, Z+2	; 0x02
    27a4:	81 30       	cpi	r24, 0x01	; 1
    27a6:	49 f4       	brne	.+18     	; 0x27ba <check_startseite+0x126>
    27a8:	0e 94 78 09 	call	0x12f0	; 0x12f0 <schiebe_file_prev>
    27ac:	e0 91 0b 13 	lds	r30, 0x130B	; 0x80130b <aktuellesGetraenk>
    27b0:	f0 91 0c 13 	lds	r31, 0x130C	; 0x80130c <aktuellesGetraenk+0x1>
    27b4:	82 81       	ldd	r24, Z+2	; 0x02
    27b6:	81 30       	cpi	r24, 0x01	; 1
    27b8:	b9 f3       	breq	.-18     	; 0x27a8 <check_startseite+0x114>
    27ba:	80 91 0b 13 	lds	r24, 0x130B	; 0x80130b <aktuellesGetraenk>
    27be:	90 91 0c 13 	lds	r25, 0x130C	; 0x80130c <aktuellesGetraenk+0x1>
    27c2:	0c 94 0c 04 	jmp	0x818	; 0x818 <setze_startanzeige>
    27c6:	08 95       	ret
    27c8:	80 91 77 0a 	lds	r24, 0x0A77	; 0x800a77 <aktuellesGetraenk_file>
    27cc:	90 91 78 0a 	lds	r25, 0x0A78	; 0x800a78 <aktuellesGetraenk_file+0x1>
    27d0:	90 93 53 0a 	sts	0x0A53, r25	; 0x800a53 <bufferGetraenk_file+0x1>
    27d4:	80 93 52 0a 	sts	0x0A52, r24	; 0x800a52 <bufferGetraenk_file>
    27d8:	83 e0       	ldi	r24, 0x03	; 3
    27da:	0e 94 fd 2b 	call	0x57fa	; 0x57fa <nextion_change_page>
    27de:	10 92 d1 12 	sts	0x12D1, r1	; 0x8012d1 <i_Liste>
    27e2:	89 e3       	ldi	r24, 0x39	; 57
    27e4:	93 e0       	ldi	r25, 0x03	; 3
    27e6:	0c 94 57 08 	jmp	0x10ae	; 0x10ae <erstelle_Liste_name>
    27ea:	08 95       	ret
    27ec:	87 e0       	ldi	r24, 0x07	; 7
    27ee:	0c 94 fd 2b 	jmp	0x57fa	; 0x57fa <nextion_change_page>
    27f2:	08 95       	ret
    27f4:	e0 91 37 0a 	lds	r30, 0x0A37	; 0x800a37 <tail_getraenk_file>
    27f8:	f0 91 38 0a 	lds	r31, 0x0A38	; 0x800a38 <tail_getraenk_file+0x1>
    27fc:	f0 93 78 0a 	sts	0x0A78, r31	; 0x800a78 <aktuellesGetraenk_file+0x1>
    2800:	e0 93 77 0a 	sts	0x0A77, r30	; 0x800a77 <aktuellesGetraenk_file>
    2804:	80 81       	ld	r24, Z
    2806:	0e 94 d7 06 	call	0xdae	; 0xdae <lese_textfile_in_getraenk>
    280a:	80 91 45 0a 	lds	r24, 0x0A45	; 0x800a45 <Liste>
    280e:	81 30       	cpi	r24, 0x01	; 1
    2810:	c1 f0       	breq	.+48     	; 0x2842 <check_startseite+0x1ae>
    2812:	18 f0       	brcs	.+6      	; 0x281a <check_startseite+0x186>
    2814:	82 30       	cpi	r24, 0x02	; 2
    2816:	49 f1       	breq	.+82     	; 0x286a <check_startseite+0x1d6>
    2818:	2a c0       	rjmp	.+84     	; 0x286e <check_startseite+0x1da>
    281a:	81 e0       	ldi	r24, 0x01	; 1
    281c:	80 93 45 0a 	sts	0x0A45, r24	; 0x800a45 <Liste>
    2820:	e0 91 0b 13 	lds	r30, 0x130B	; 0x80130b <aktuellesGetraenk>
    2824:	f0 91 0c 13 	lds	r31, 0x130C	; 0x80130c <aktuellesGetraenk+0x1>
    2828:	82 81       	ldd	r24, Z+2	; 0x02
    282a:	81 11       	cpse	r24, r1
    282c:	20 c0       	rjmp	.+64     	; 0x286e <check_startseite+0x1da>
    282e:	0e 94 78 09 	call	0x12f0	; 0x12f0 <schiebe_file_prev>
    2832:	e0 91 0b 13 	lds	r30, 0x130B	; 0x80130b <aktuellesGetraenk>
    2836:	f0 91 0c 13 	lds	r31, 0x130C	; 0x80130c <aktuellesGetraenk+0x1>
    283a:	82 81       	ldd	r24, Z+2	; 0x02
    283c:	88 23       	and	r24, r24
    283e:	b9 f3       	breq	.-18     	; 0x282e <check_startseite+0x19a>
    2840:	16 c0       	rjmp	.+44     	; 0x286e <check_startseite+0x1da>
    2842:	82 e0       	ldi	r24, 0x02	; 2
    2844:	80 93 45 0a 	sts	0x0A45, r24	; 0x800a45 <Liste>
    2848:	e0 91 0b 13 	lds	r30, 0x130B	; 0x80130b <aktuellesGetraenk>
    284c:	f0 91 0c 13 	lds	r31, 0x130C	; 0x80130c <aktuellesGetraenk+0x1>
    2850:	82 81       	ldd	r24, Z+2	; 0x02
    2852:	81 30       	cpi	r24, 0x01	; 1
    2854:	61 f4       	brne	.+24     	; 0x286e <check_startseite+0x1da>
    2856:	0e 94 78 09 	call	0x12f0	; 0x12f0 <schiebe_file_prev>
    285a:	e0 91 0b 13 	lds	r30, 0x130B	; 0x80130b <aktuellesGetraenk>
    285e:	f0 91 0c 13 	lds	r31, 0x130C	; 0x80130c <aktuellesGetraenk+0x1>
    2862:	82 81       	ldd	r24, Z+2	; 0x02
    2864:	81 30       	cpi	r24, 0x01	; 1
    2866:	b9 f3       	breq	.-18     	; 0x2856 <check_startseite+0x1c2>
    2868:	02 c0       	rjmp	.+4      	; 0x286e <check_startseite+0x1da>
    286a:	10 92 45 0a 	sts	0x0A45, r1	; 0x800a45 <Liste>
    286e:	80 91 0b 13 	lds	r24, 0x130B	; 0x80130b <aktuellesGetraenk>
    2872:	90 91 0c 13 	lds	r25, 0x130C	; 0x80130c <aktuellesGetraenk+0x1>
    2876:	0c 94 0c 04 	jmp	0x818	; 0x818 <setze_startanzeige>
    287a:	08 95       	ret
    287c:	82 e1       	ldi	r24, 0x12	; 18
    287e:	0c 94 fd 2b 	jmp	0x57fa	; 0x57fa <nextion_change_page>
    2882:	08 95       	ret

00002884 <check_zutatenanzeige>:
    2884:	81 30       	cpi	r24, 0x01	; 1
    2886:	19 f0       	breq	.+6      	; 0x288e <check_zutatenanzeige+0xa>
    2888:	82 30       	cpi	r24, 0x02	; 2
    288a:	59 f0       	breq	.+22     	; 0x28a2 <check_zutatenanzeige+0x1e>
    288c:	08 95       	ret
    288e:	81 e0       	ldi	r24, 0x01	; 1
    2890:	0e 94 fd 2b 	call	0x57fa	; 0x57fa <nextion_change_page>
    2894:	80 91 0b 13 	lds	r24, 0x130B	; 0x80130b <aktuellesGetraenk>
    2898:	90 91 0c 13 	lds	r25, 0x130C	; 0x80130c <aktuellesGetraenk+0x1>
    289c:	0c 94 0c 04 	jmp	0x818	; 0x818 <setze_startanzeige>
    28a0:	08 95       	ret
    28a2:	80 91 0b 13 	lds	r24, 0x130B	; 0x80130b <aktuellesGetraenk>
    28a6:	90 91 0c 13 	lds	r25, 0x130C	; 0x80130c <aktuellesGetraenk+0x1>
    28aa:	0c 94 0c 04 	jmp	0x818	; 0x818 <setze_startanzeige>
    28ae:	08 95       	ret

000028b0 <check_listenanzeige>:
    28b0:	90 e0       	ldi	r25, 0x00	; 0
    28b2:	fc 01       	movw	r30, r24
    28b4:	31 97       	sbiw	r30, 0x01	; 1
    28b6:	e9 30       	cpi	r30, 0x09	; 9
    28b8:	f1 05       	cpc	r31, r1
    28ba:	08 f0       	brcs	.+2      	; 0x28be <check_listenanzeige+0xe>
    28bc:	94 c0       	rjmp	.+296    	; 0x29e6 <check_listenanzeige+0x136>
    28be:	88 27       	eor	r24, r24
    28c0:	e2 56       	subi	r30, 0x62	; 98
    28c2:	ff 4f       	sbci	r31, 0xFF	; 255
    28c4:	8f 4f       	sbci	r24, 0xFF	; 255
    28c6:	0c 94 1d 46 	jmp	0x8c3a	; 0x8c3a <__tablejump2__>
    28ca:	80 e0       	ldi	r24, 0x00	; 0
    28cc:	0e 94 16 08 	call	0x102c	; 0x102c <choose_aktuellesGetraenk>
    28d0:	81 e0       	ldi	r24, 0x01	; 1
    28d2:	0e 94 fd 2b 	call	0x57fa	; 0x57fa <nextion_change_page>
    28d6:	80 91 0b 13 	lds	r24, 0x130B	; 0x80130b <aktuellesGetraenk>
    28da:	90 91 0c 13 	lds	r25, 0x130C	; 0x80130c <aktuellesGetraenk+0x1>
    28de:	0c 94 0c 04 	jmp	0x818	; 0x818 <setze_startanzeige>
    28e2:	08 95       	ret
    28e4:	81 e0       	ldi	r24, 0x01	; 1
    28e6:	0e 94 16 08 	call	0x102c	; 0x102c <choose_aktuellesGetraenk>
    28ea:	81 e0       	ldi	r24, 0x01	; 1
    28ec:	0e 94 fd 2b 	call	0x57fa	; 0x57fa <nextion_change_page>
    28f0:	80 91 0b 13 	lds	r24, 0x130B	; 0x80130b <aktuellesGetraenk>
    28f4:	90 91 0c 13 	lds	r25, 0x130C	; 0x80130c <aktuellesGetraenk+0x1>
    28f8:	0c 94 0c 04 	jmp	0x818	; 0x818 <setze_startanzeige>
    28fc:	08 95       	ret
    28fe:	82 e0       	ldi	r24, 0x02	; 2
    2900:	0e 94 16 08 	call	0x102c	; 0x102c <choose_aktuellesGetraenk>
    2904:	81 e0       	ldi	r24, 0x01	; 1
    2906:	0e 94 fd 2b 	call	0x57fa	; 0x57fa <nextion_change_page>
    290a:	80 91 0b 13 	lds	r24, 0x130B	; 0x80130b <aktuellesGetraenk>
    290e:	90 91 0c 13 	lds	r25, 0x130C	; 0x80130c <aktuellesGetraenk+0x1>
    2912:	0c 94 0c 04 	jmp	0x818	; 0x818 <setze_startanzeige>
    2916:	08 95       	ret
    2918:	83 e0       	ldi	r24, 0x03	; 3
    291a:	0e 94 16 08 	call	0x102c	; 0x102c <choose_aktuellesGetraenk>
    291e:	81 e0       	ldi	r24, 0x01	; 1
    2920:	0e 94 fd 2b 	call	0x57fa	; 0x57fa <nextion_change_page>
    2924:	80 91 0b 13 	lds	r24, 0x130B	; 0x80130b <aktuellesGetraenk>
    2928:	90 91 0c 13 	lds	r25, 0x130C	; 0x80130c <aktuellesGetraenk+0x1>
    292c:	0c 94 0c 04 	jmp	0x818	; 0x818 <setze_startanzeige>
    2930:	08 95       	ret
    2932:	84 e0       	ldi	r24, 0x04	; 4
    2934:	0e 94 16 08 	call	0x102c	; 0x102c <choose_aktuellesGetraenk>
    2938:	81 e0       	ldi	r24, 0x01	; 1
    293a:	0e 94 fd 2b 	call	0x57fa	; 0x57fa <nextion_change_page>
    293e:	80 91 0b 13 	lds	r24, 0x130B	; 0x80130b <aktuellesGetraenk>
    2942:	90 91 0c 13 	lds	r25, 0x130C	; 0x80130c <aktuellesGetraenk+0x1>
    2946:	0c 94 0c 04 	jmp	0x818	; 0x818 <setze_startanzeige>
    294a:	08 95       	ret
    294c:	85 e0       	ldi	r24, 0x05	; 5
    294e:	0e 94 16 08 	call	0x102c	; 0x102c <choose_aktuellesGetraenk>
    2952:	81 e0       	ldi	r24, 0x01	; 1
    2954:	0e 94 fd 2b 	call	0x57fa	; 0x57fa <nextion_change_page>
    2958:	80 91 0b 13 	lds	r24, 0x130B	; 0x80130b <aktuellesGetraenk>
    295c:	90 91 0c 13 	lds	r25, 0x130C	; 0x80130c <aktuellesGetraenk+0x1>
    2960:	0c 94 0c 04 	jmp	0x818	; 0x818 <setze_startanzeige>
    2964:	08 95       	ret
    2966:	80 91 9b 0e 	lds	r24, 0x0E9B	; 0x800e9b <block_list_hoch>
    296a:	81 11       	cpse	r24, r1
    296c:	3c c0       	rjmp	.+120    	; 0x29e6 <check_listenanzeige+0x136>
    296e:	10 92 80 0a 	sts	0x0A80, r1	; 0x800a80 <block_list_runter>
    2972:	80 91 d1 12 	lds	r24, 0x12D1	; 0x8012d1 <i_Liste>
    2976:	86 50       	subi	r24, 0x06	; 6
    2978:	80 93 d1 12 	sts	0x12D1, r24	; 0x8012d1 <i_Liste>
    297c:	83 e0       	ldi	r24, 0x03	; 3
    297e:	0e 94 fd 2b 	call	0x57fa	; 0x57fa <nextion_change_page>
    2982:	89 e3       	ldi	r24, 0x39	; 57
    2984:	93 e0       	ldi	r25, 0x03	; 3
    2986:	0c 94 57 08 	jmp	0x10ae	; 0x10ae <erstelle_Liste_name>
    298a:	08 95       	ret
    298c:	80 91 80 0a 	lds	r24, 0x0A80	; 0x800a80 <block_list_runter>
    2990:	81 11       	cpse	r24, r1
    2992:	29 c0       	rjmp	.+82     	; 0x29e6 <check_listenanzeige+0x136>
    2994:	10 92 9b 0e 	sts	0x0E9B, r1	; 0x800e9b <block_list_hoch>
    2998:	80 91 d1 12 	lds	r24, 0x12D1	; 0x8012d1 <i_Liste>
    299c:	8a 5f       	subi	r24, 0xFA	; 250
    299e:	80 93 d1 12 	sts	0x12D1, r24	; 0x8012d1 <i_Liste>
    29a2:	83 e0       	ldi	r24, 0x03	; 3
    29a4:	0e 94 fd 2b 	call	0x57fa	; 0x57fa <nextion_change_page>
    29a8:	89 e3       	ldi	r24, 0x39	; 57
    29aa:	93 e0       	ldi	r25, 0x03	; 3
    29ac:	0c 94 57 08 	jmp	0x10ae	; 0x10ae <erstelle_Liste_name>
    29b0:	08 95       	ret
    29b2:	10 92 9b 0e 	sts	0x0E9B, r1	; 0x800e9b <block_list_hoch>
    29b6:	10 92 80 0a 	sts	0x0A80, r1	; 0x800a80 <block_list_runter>
    29ba:	10 92 d1 12 	sts	0x12D1, r1	; 0x8012d1 <i_Liste>
    29be:	e0 91 52 0a 	lds	r30, 0x0A52	; 0x800a52 <bufferGetraenk_file>
    29c2:	f0 91 53 0a 	lds	r31, 0x0A53	; 0x800a53 <bufferGetraenk_file+0x1>
    29c6:	f0 93 78 0a 	sts	0x0A78, r31	; 0x800a78 <aktuellesGetraenk_file+0x1>
    29ca:	e0 93 77 0a 	sts	0x0A77, r30	; 0x800a77 <aktuellesGetraenk_file>
    29ce:	80 81       	ld	r24, Z
    29d0:	0e 94 d7 06 	call	0xdae	; 0xdae <lese_textfile_in_getraenk>
    29d4:	81 e0       	ldi	r24, 0x01	; 1
    29d6:	0e 94 fd 2b 	call	0x57fa	; 0x57fa <nextion_change_page>
    29da:	80 91 0b 13 	lds	r24, 0x130B	; 0x80130b <aktuellesGetraenk>
    29de:	90 91 0c 13 	lds	r25, 0x130C	; 0x80130c <aktuellesGetraenk+0x1>
    29e2:	0c 94 0c 04 	jmp	0x818	; 0x818 <setze_startanzeige>
    29e6:	08 95       	ret

000029e8 <check_zubabfrage>:
    29e8:	82 30       	cpi	r24, 0x02	; 2
    29ea:	59 f0       	breq	.+22     	; 0x2a02 <check_zubabfrage+0x1a>
    29ec:	83 30       	cpi	r24, 0x03	; 3
    29ee:	81 f0       	breq	.+32     	; 0x2a10 <check_zubabfrage+0x28>
    29f0:	81 30       	cpi	r24, 0x01	; 1
    29f2:	a1 f4       	brne	.+40     	; 0x2a1c <check_zubabfrage+0x34>
    29f4:	63 e0       	ldi	r22, 0x03	; 3
    29f6:	70 e0       	ldi	r23, 0x00	; 0
    29f8:	80 e0       	ldi	r24, 0x00	; 0
    29fa:	90 e0       	ldi	r25, 0x00	; 0
    29fc:	0c 94 cf 05 	jmp	0xb9e	; 0xb9e <zubereitung_getraenk>
    2a00:	08 95       	ret
    2a02:	65 e0       	ldi	r22, 0x05	; 5
    2a04:	70 e0       	ldi	r23, 0x00	; 0
    2a06:	80 e0       	ldi	r24, 0x00	; 0
    2a08:	90 e0       	ldi	r25, 0x00	; 0
    2a0a:	0c 94 cf 05 	jmp	0xb9e	; 0xb9e <zubereitung_getraenk>
    2a0e:	08 95       	ret
    2a10:	80 91 0b 13 	lds	r24, 0x130B	; 0x80130b <aktuellesGetraenk>
    2a14:	90 91 0c 13 	lds	r25, 0x130C	; 0x80130c <aktuellesGetraenk+0x1>
    2a18:	0c 94 0c 04 	jmp	0x818	; 0x818 <setze_startanzeige>
    2a1c:	08 95       	ret

00002a1e <check_zubbildschirm>:
    2a1e:	81 30       	cpi	r24, 0x01	; 1
    2a20:	11 f4       	brne	.+4      	; 0x2a26 <check_zubbildschirm+0x8>
    2a22:	80 93 05 13 	sts	0x1305, r24	; 0x801305 <stop>
    2a26:	08 95       	ret

00002a28 <check_menuanzeige>:
    2a28:	8f 92       	push	r8
    2a2a:	9f 92       	push	r9
    2a2c:	af 92       	push	r10
    2a2e:	bf 92       	push	r11
    2a30:	cf 92       	push	r12
    2a32:	df 92       	push	r13
    2a34:	ef 92       	push	r14
    2a36:	ff 92       	push	r15
    2a38:	0f 93       	push	r16
    2a3a:	1f 93       	push	r17
    2a3c:	cf 93       	push	r28
    2a3e:	df 93       	push	r29
    2a40:	cd b7       	in	r28, 0x3d	; 61
    2a42:	de b7       	in	r29, 0x3e	; 62
    2a44:	69 97       	sbiw	r28, 0x19	; 25
    2a46:	0f b6       	in	r0, 0x3f	; 63
    2a48:	f8 94       	cli
    2a4a:	de bf       	out	0x3e, r29	; 62
    2a4c:	0f be       	out	0x3f, r0	; 63
    2a4e:	cd bf       	out	0x3d, r28	; 61
    2a50:	90 e0       	ldi	r25, 0x00	; 0
    2a52:	fc 01       	movw	r30, r24
    2a54:	31 97       	sbiw	r30, 0x01	; 1
    2a56:	e8 30       	cpi	r30, 0x08	; 8
    2a58:	f1 05       	cpc	r31, r1
    2a5a:	08 f0       	brcs	.+2      	; 0x2a5e <check_menuanzeige+0x36>
    2a5c:	af c0       	rjmp	.+350    	; 0x2bbc <check_menuanzeige+0x194>
    2a5e:	88 27       	eor	r24, r24
    2a60:	e9 55       	subi	r30, 0x59	; 89
    2a62:	ff 4f       	sbci	r31, 0xFF	; 255
    2a64:	8f 4f       	sbci	r24, 0xFF	; 255
    2a66:	0c 94 1d 46 	jmp	0x8c3a	; 0x8c3a <__tablejump2__>
    2a6a:	88 e0       	ldi	r24, 0x08	; 8
    2a6c:	0e 94 fd 2b 	call	0x57fa	; 0x57fa <nextion_change_page>
    2a70:	10 92 d1 12 	sts	0x12D1, r1	; 0x8012d1 <i_Liste>
    2a74:	89 e3       	ldi	r24, 0x39	; 57
    2a76:	93 e0       	ldi	r25, 0x03	; 3
    2a78:	0e 94 57 08 	call	0x10ae	; 0x10ae <erstelle_Liste_name>
    2a7c:	9f c0       	rjmp	.+318    	; 0x2bbc <check_menuanzeige+0x194>
    2a7e:	80 e1       	ldi	r24, 0x10	; 16
    2a80:	0e 94 fd 2b 	call	0x57fa	; 0x57fa <nextion_change_page>
    2a84:	ce 01       	movw	r24, r28
    2a86:	01 96       	adiw	r24, 0x01	; 1
    2a88:	24 e1       	ldi	r18, 0x14	; 20
    2a8a:	fc 01       	movw	r30, r24
    2a8c:	11 92       	st	Z+, r1
    2a8e:	2a 95       	dec	r18
    2a90:	e9 f7       	brne	.-6      	; 0x2a8c <check_menuanzeige+0x64>
    2a92:	26 e4       	ldi	r18, 0x46	; 70
    2a94:	33 e7       	ldi	r19, 0x73	; 115
    2a96:	3a 83       	std	Y+2, r19	; 0x02
    2a98:	29 83       	std	Y+1, r18	; 0x01
    2a9a:	1b 82       	std	Y+3, r1	; 0x03
    2a9c:	dc 01       	movw	r26, r24
    2a9e:	0d 90       	ld	r0, X+
    2aa0:	00 20       	and	r0, r0
    2aa2:	e9 f7       	brne	.-6      	; 0x2a9e <check_menuanzeige+0x76>
    2aa4:	11 97       	sbiw	r26, 0x01	; 1
    2aa6:	2a e0       	ldi	r18, 0x0A	; 10
    2aa8:	e8 eb       	ldi	r30, 0xB8	; 184
    2aaa:	f4 e0       	ldi	r31, 0x04	; 4
    2aac:	01 90       	ld	r0, Z+
    2aae:	0d 92       	st	X+, r0
    2ab0:	2a 95       	dec	r18
    2ab2:	e1 f7       	brne	.-8      	; 0x2aac <check_menuanzeige+0x84>
    2ab4:	0e 94 64 41 	call	0x82c8	; 0x82c8 <Uart_Transmit_IT_Display>
    2ab8:	0e 94 e7 2b 	call	0x57ce	; 0x57ce <endConversation>
    2abc:	81 e0       	ldi	r24, 0x01	; 1
    2abe:	80 93 7b 0a 	sts	0x0A7B, r24	; 0x800a7b <Grossschreib>
    2ac2:	10 92 a2 0f 	sts	0x0FA2, r1	; 0x800fa2 <counter>
    2ac6:	ea ea       	ldi	r30, 0xAA	; 170
    2ac8:	ff e0       	ldi	r31, 0x0F	; 15
    2aca:	01 90       	ld	r0, Z+
    2acc:	00 20       	and	r0, r0
    2ace:	e9 f7       	brne	.-6      	; 0x2aca <check_menuanzeige+0xa2>
    2ad0:	31 97       	sbiw	r30, 0x01	; 1
    2ad2:	cf 01       	movw	r24, r30
    2ad4:	8a 5a       	subi	r24, 0xAA	; 170
    2ad6:	9f 40       	sbci	r25, 0x0F	; 15
    2ad8:	99 27       	eor	r25, r25
    2ada:	18 16       	cp	r1, r24
    2adc:	19 06       	cpc	r1, r25
    2ade:	0c f0       	brlt	.+2      	; 0x2ae2 <check_menuanzeige+0xba>
    2ae0:	6d c0       	rjmp	.+218    	; 0x2bbc <check_menuanzeige+0x194>
    2ae2:	ea ea       	ldi	r30, 0xAA	; 170
    2ae4:	ff e0       	ldi	r31, 0x0F	; 15
    2ae6:	86 55       	subi	r24, 0x56	; 86
    2ae8:	90 4f       	sbci	r25, 0xF0	; 240
    2aea:	11 92       	st	Z+, r1
    2aec:	8e 17       	cp	r24, r30
    2aee:	9f 07       	cpc	r25, r31
    2af0:	e1 f7       	brne	.-8      	; 0x2aea <check_menuanzeige+0xc2>
    2af2:	64 c0       	rjmp	.+200    	; 0x2bbc <check_menuanzeige+0x194>
    2af4:	8a e0       	ldi	r24, 0x0A	; 10
    2af6:	0e 94 fd 2b 	call	0x57fa	; 0x57fa <nextion_change_page>
    2afa:	60 c0       	rjmp	.+192    	; 0x2bbc <check_menuanzeige+0x194>
    2afc:	8d e0       	ldi	r24, 0x0D	; 13
    2afe:	0e 94 fd 2b 	call	0x57fa	; 0x57fa <nextion_change_page>
    2b02:	5c c0       	rjmp	.+184    	; 0x2bbc <check_menuanzeige+0x194>
    2b04:	81 e0       	ldi	r24, 0x01	; 1
    2b06:	0e 94 fd 2b 	call	0x57fa	; 0x57fa <nextion_change_page>
    2b0a:	80 91 0b 13 	lds	r24, 0x130B	; 0x80130b <aktuellesGetraenk>
    2b0e:	90 91 0c 13 	lds	r25, 0x130C	; 0x80130c <aktuellesGetraenk+0x1>
    2b12:	0e 94 0c 04 	call	0x818	; 0x818 <setze_startanzeige>
    2b16:	52 c0       	rjmp	.+164    	; 0x2bbc <check_menuanzeige+0x194>
    2b18:	83 e1       	ldi	r24, 0x13	; 19
    2b1a:	0e 94 fd 2b 	call	0x57fa	; 0x57fa <nextion_change_page>
    2b1e:	0e 94 d6 0c 	call	0x19ac	; 0x19ac <setze_Posanzeige_Rot_Gruen>
    2b22:	4c c0       	rjmp	.+152    	; 0x2bbc <check_menuanzeige+0x194>
    2b24:	87 e1       	ldi	r24, 0x17	; 23
    2b26:	0e 94 fd 2b 	call	0x57fa	; 0x57fa <nextion_change_page>
    2b2a:	00 e0       	ldi	r16, 0x00	; 0
    2b2c:	10 e0       	ldi	r17, 0x00	; 0
    2b2e:	0f 2e       	mov	r0, r31
    2b30:	fa e0       	ldi	r31, 0x0A	; 10
    2b32:	bf 2e       	mov	r11, r31
    2b34:	f0 2d       	mov	r31, r0
    2b36:	9e 01       	movw	r18, r28
    2b38:	2f 5f       	subi	r18, 0xFF	; 255
    2b3a:	3f 4f       	sbci	r19, 0xFF	; 255
    2b3c:	69 01       	movw	r12, r18
    2b3e:	0f 2e       	mov	r0, r31
    2b40:	f5 e0       	ldi	r31, 0x05	; 5
    2b42:	af 2e       	mov	r10, r31
    2b44:	f0 2d       	mov	r31, r0
    2b46:	7e 01       	movw	r14, r28
    2b48:	35 e1       	ldi	r19, 0x15	; 21
    2b4a:	e3 0e       	add	r14, r19
    2b4c:	f1 1c       	adc	r15, r1
    2b4e:	f6 01       	movw	r30, r12
    2b50:	2b 2d       	mov	r18, r11
    2b52:	11 92       	st	Z+, r1
    2b54:	2a 95       	dec	r18
    2b56:	e9 f7       	brne	.-6      	; 0x2b52 <check_menuanzeige+0x12a>
    2b58:	f7 01       	movw	r30, r14
    2b5a:	2a 2d       	mov	r18, r10
    2b5c:	11 92       	st	Z+, r1
    2b5e:	2a 95       	dec	r18
    2b60:	e9 f7       	brne	.-6      	; 0x2b5c <check_menuanzeige+0x134>
    2b62:	85 e0       	ldi	r24, 0x05	; 5
    2b64:	e7 e4       	ldi	r30, 0x47	; 71
    2b66:	f5 e0       	ldi	r31, 0x05	; 5
    2b68:	d6 01       	movw	r26, r12
    2b6a:	01 90       	ld	r0, Z+
    2b6c:	0d 92       	st	X+, r0
    2b6e:	8a 95       	dec	r24
    2b70:	e1 f7       	brne	.-8      	; 0x2b6a <check_menuanzeige+0x142>
    2b72:	48 01       	movw	r8, r16
    2b74:	3f ef       	ldi	r19, 0xFF	; 255
    2b76:	83 1a       	sub	r8, r19
    2b78:	93 0a       	sbc	r9, r19
    2b7a:	4b 2d       	mov	r20, r11
    2b7c:	b7 01       	movw	r22, r14
    2b7e:	c4 01       	movw	r24, r8
    2b80:	0e 94 be 48 	call	0x917c	; 0x917c <__itoa_ncheck>
    2b84:	b7 01       	movw	r22, r14
    2b86:	c6 01       	movw	r24, r12
    2b88:	0e 94 7c 48 	call	0x90f8	; 0x90f8 <strcat>
    2b8c:	80 91 d1 12 	lds	r24, 0x12D1	; 0x8012d1 <i_Liste>
    2b90:	f8 01       	movw	r30, r16
    2b92:	e8 0f       	add	r30, r24
    2b94:	f1 1d       	adc	r31, r1
    2b96:	cf 01       	movw	r24, r30
    2b98:	4b 2d       	mov	r20, r11
    2b9a:	b7 01       	movw	r22, r14
    2b9c:	01 96       	adiw	r24, 0x01	; 1
    2b9e:	0e 94 be 48 	call	0x917c	; 0x917c <__itoa_ncheck>
    2ba2:	b7 01       	movw	r22, r14
    2ba4:	c6 01       	movw	r24, r12
    2ba6:	0e 94 1c 2c 	call	0x5838	; 0x5838 <nextion_setText>
    2baa:	84 01       	movw	r16, r8
    2bac:	06 30       	cpi	r16, 0x06	; 6
    2bae:	11 05       	cpc	r17, r1
    2bb0:	71 f6       	brne	.-100    	; 0x2b4e <check_menuanzeige+0x126>
    2bb2:	04 c0       	rjmp	.+8      	; 0x2bbc <check_menuanzeige+0x194>
    2bb4:	8a e1       	ldi	r24, 0x1A	; 26
    2bb6:	0e 94 fd 2b 	call	0x57fa	; 0x57fa <nextion_change_page>
    2bba:	00 00       	nop
    2bbc:	69 96       	adiw	r28, 0x19	; 25
    2bbe:	0f b6       	in	r0, 0x3f	; 63
    2bc0:	f8 94       	cli
    2bc2:	de bf       	out	0x3e, r29	; 62
    2bc4:	0f be       	out	0x3f, r0	; 63
    2bc6:	cd bf       	out	0x3d, r28	; 61
    2bc8:	df 91       	pop	r29
    2bca:	cf 91       	pop	r28
    2bcc:	1f 91       	pop	r17
    2bce:	0f 91       	pop	r16
    2bd0:	ff 90       	pop	r15
    2bd2:	ef 90       	pop	r14
    2bd4:	df 90       	pop	r13
    2bd6:	cf 90       	pop	r12
    2bd8:	bf 90       	pop	r11
    2bda:	af 90       	pop	r10
    2bdc:	9f 90       	pop	r9
    2bde:	8f 90       	pop	r8
    2be0:	08 95       	ret

00002be2 <check_bearbeitungsanzeige>:
    2be2:	90 e0       	ldi	r25, 0x00	; 0
    2be4:	fc 01       	movw	r30, r24
    2be6:	31 97       	sbiw	r30, 0x01	; 1
    2be8:	e9 30       	cpi	r30, 0x09	; 9
    2bea:	f1 05       	cpc	r31, r1
    2bec:	08 f0       	brcs	.+2      	; 0x2bf0 <check_bearbeitungsanzeige+0xe>
    2bee:	4d c0       	rjmp	.+154    	; 0x2c8a <check_bearbeitungsanzeige+0xa8>
    2bf0:	88 27       	eor	r24, r24
    2bf2:	e1 55       	subi	r30, 0x51	; 81
    2bf4:	ff 4f       	sbci	r31, 0xFF	; 255
    2bf6:	8f 4f       	sbci	r24, 0xFF	; 255
    2bf8:	0c 94 1d 46 	jmp	0x8c3a	; 0x8c3a <__tablejump2__>
    2bfc:	80 e0       	ldi	r24, 0x00	; 0
    2bfe:	0c 94 4d 08 	jmp	0x109a	; 0x109a <bearbeite_Cocktail>
    2c02:	08 95       	ret
    2c04:	81 e0       	ldi	r24, 0x01	; 1
    2c06:	0c 94 4d 08 	jmp	0x109a	; 0x109a <bearbeite_Cocktail>
    2c0a:	08 95       	ret
    2c0c:	82 e0       	ldi	r24, 0x02	; 2
    2c0e:	0c 94 4d 08 	jmp	0x109a	; 0x109a <bearbeite_Cocktail>
    2c12:	08 95       	ret
    2c14:	83 e0       	ldi	r24, 0x03	; 3
    2c16:	0c 94 4d 08 	jmp	0x109a	; 0x109a <bearbeite_Cocktail>
    2c1a:	08 95       	ret
    2c1c:	84 e0       	ldi	r24, 0x04	; 4
    2c1e:	0c 94 4d 08 	jmp	0x109a	; 0x109a <bearbeite_Cocktail>
    2c22:	08 95       	ret
    2c24:	85 e0       	ldi	r24, 0x05	; 5
    2c26:	0c 94 4d 08 	jmp	0x109a	; 0x109a <bearbeite_Cocktail>
    2c2a:	08 95       	ret
    2c2c:	10 92 80 0a 	sts	0x0A80, r1	; 0x800a80 <block_list_runter>
    2c30:	80 91 9b 0e 	lds	r24, 0x0E9B	; 0x800e9b <block_list_hoch>
    2c34:	81 11       	cpse	r24, r1
    2c36:	29 c0       	rjmp	.+82     	; 0x2c8a <check_bearbeitungsanzeige+0xa8>
    2c38:	80 91 d1 12 	lds	r24, 0x12D1	; 0x8012d1 <i_Liste>
    2c3c:	86 50       	subi	r24, 0x06	; 6
    2c3e:	80 93 d1 12 	sts	0x12D1, r24	; 0x8012d1 <i_Liste>
    2c42:	88 e0       	ldi	r24, 0x08	; 8
    2c44:	0e 94 fd 2b 	call	0x57fa	; 0x57fa <nextion_change_page>
    2c48:	89 e3       	ldi	r24, 0x39	; 57
    2c4a:	93 e0       	ldi	r25, 0x03	; 3
    2c4c:	0c 94 57 08 	jmp	0x10ae	; 0x10ae <erstelle_Liste_name>
    2c50:	08 95       	ret
    2c52:	10 92 9b 0e 	sts	0x0E9B, r1	; 0x800e9b <block_list_hoch>
    2c56:	80 91 80 0a 	lds	r24, 0x0A80	; 0x800a80 <block_list_runter>
    2c5a:	81 11       	cpse	r24, r1
    2c5c:	16 c0       	rjmp	.+44     	; 0x2c8a <check_bearbeitungsanzeige+0xa8>
    2c5e:	80 91 d1 12 	lds	r24, 0x12D1	; 0x8012d1 <i_Liste>
    2c62:	8a 5f       	subi	r24, 0xFA	; 250
    2c64:	80 93 d1 12 	sts	0x12D1, r24	; 0x8012d1 <i_Liste>
    2c68:	88 e0       	ldi	r24, 0x08	; 8
    2c6a:	0e 94 fd 2b 	call	0x57fa	; 0x57fa <nextion_change_page>
    2c6e:	89 e3       	ldi	r24, 0x39	; 57
    2c70:	93 e0       	ldi	r25, 0x03	; 3
    2c72:	0c 94 57 08 	jmp	0x10ae	; 0x10ae <erstelle_Liste_name>
    2c76:	08 95       	ret
    2c78:	10 92 9b 0e 	sts	0x0E9B, r1	; 0x800e9b <block_list_hoch>
    2c7c:	10 92 80 0a 	sts	0x0A80, r1	; 0x800a80 <block_list_runter>
    2c80:	10 92 d1 12 	sts	0x12D1, r1	; 0x8012d1 <i_Liste>
    2c84:	87 e0       	ldi	r24, 0x07	; 7
    2c86:	0c 94 fd 2b 	jmp	0x57fa	; 0x57fa <nextion_change_page>
    2c8a:	08 95       	ret

00002c8c <check_ceinstanzeige>:
    2c8c:	90 e0       	ldi	r25, 0x00	; 0
    2c8e:	fc 01       	movw	r30, r24
    2c90:	31 97       	sbiw	r30, 0x01	; 1
    2c92:	ea 30       	cpi	r30, 0x0A	; 10
    2c94:	f1 05       	cpc	r31, r1
    2c96:	08 f0       	brcs	.+2      	; 0x2c9a <check_ceinstanzeige+0xe>
    2c98:	a0 c0       	rjmp	.+320    	; 0x2dda <check_ceinstanzeige+0x14e>
    2c9a:	88 27       	eor	r24, r24
    2c9c:	e8 54       	subi	r30, 0x48	; 72
    2c9e:	ff 4f       	sbci	r31, 0xFF	; 255
    2ca0:	8f 4f       	sbci	r24, 0xFF	; 255
    2ca2:	0c 94 1d 46 	jmp	0x8c3a	; 0x8c3a <__tablejump2__>
    2ca6:	10 92 80 0a 	sts	0x0A80, r1	; 0x800a80 <block_list_runter>
    2caa:	80 91 9b 0e 	lds	r24, 0x0E9B	; 0x800e9b <block_list_hoch>
    2cae:	81 11       	cpse	r24, r1
    2cb0:	94 c0       	rjmp	.+296    	; 0x2dda <check_ceinstanzeige+0x14e>
    2cb2:	80 91 d1 12 	lds	r24, 0x12D1	; 0x8012d1 <i_Liste>
    2cb6:	84 50       	subi	r24, 0x04	; 4
    2cb8:	80 93 d1 12 	sts	0x12D1, r24	; 0x8012d1 <i_Liste>
    2cbc:	8e e2       	ldi	r24, 0x2E	; 46
    2cbe:	93 e0       	ldi	r25, 0x03	; 3
    2cc0:	0c 94 df 02 	jmp	0x5be	; 0x5be <erstelle_Liste_zutat>
    2cc4:	08 95       	ret
    2cc6:	10 92 9b 0e 	sts	0x0E9B, r1	; 0x800e9b <block_list_hoch>
    2cca:	80 91 80 0a 	lds	r24, 0x0A80	; 0x800a80 <block_list_runter>
    2cce:	81 11       	cpse	r24, r1
    2cd0:	84 c0       	rjmp	.+264    	; 0x2dda <check_ceinstanzeige+0x14e>
    2cd2:	80 91 d1 12 	lds	r24, 0x12D1	; 0x8012d1 <i_Liste>
    2cd6:	8c 5f       	subi	r24, 0xFC	; 252
    2cd8:	80 93 d1 12 	sts	0x12D1, r24	; 0x8012d1 <i_Liste>
    2cdc:	8e e2       	ldi	r24, 0x2E	; 46
    2cde:	93 e0       	ldi	r25, 0x03	; 3
    2ce0:	0c 94 df 02 	jmp	0x5be	; 0x5be <erstelle_Liste_zutat>
    2ce4:	08 95       	ret
    2ce6:	10 92 9b 0e 	sts	0x0E9B, r1	; 0x800e9b <block_list_hoch>
    2cea:	10 92 80 0a 	sts	0x0A80, r1	; 0x800a80 <block_list_runter>
    2cee:	81 e0       	ldi	r24, 0x01	; 1
    2cf0:	0c 94 fd 2b 	jmp	0x57fa	; 0x57fa <nextion_change_page>
    2cf4:	08 95       	ret
    2cf6:	e0 91 0b 13 	lds	r30, 0x130B	; 0x80130b <aktuellesGetraenk>
    2cfa:	f0 91 0c 13 	lds	r31, 0x130C	; 0x80130c <aktuellesGetraenk+0x1>
    2cfe:	04 80       	ldd	r0, Z+4	; 0x04
    2d00:	f5 81       	ldd	r31, Z+5	; 0x05
    2d02:	e0 2d       	mov	r30, r0
    2d04:	9f 01       	movw	r18, r30
    2d06:	24 5f       	subi	r18, 0xF4	; 244
    2d08:	3f 4f       	sbci	r19, 0xFF	; 255
    2d0a:	80 e0       	ldi	r24, 0x00	; 0
    2d0c:	91 91       	ld	r25, Z+
    2d0e:	89 0f       	add	r24, r25
    2d10:	e2 17       	cp	r30, r18
    2d12:	f3 07       	cpc	r31, r19
    2d14:	d9 f7       	brne	.-10     	; 0x2d0c <check_ceinstanzeige+0x80>
    2d16:	84 36       	cpi	r24, 0x64	; 100
    2d18:	79 f5       	brne	.+94     	; 0x2d78 <check_ceinstanzeige+0xec>
    2d1a:	10 92 9b 0e 	sts	0x0E9B, r1	; 0x800e9b <block_list_hoch>
    2d1e:	10 92 80 0a 	sts	0x0A80, r1	; 0x800a80 <block_list_runter>
    2d22:	10 92 d1 12 	sts	0x12D1, r1	; 0x8012d1 <i_Liste>
    2d26:	89 e1       	ldi	r24, 0x19	; 25
    2d28:	0e 94 fd 2b 	call	0x57fa	; 0x57fa <nextion_change_page>
    2d2c:	6c e4       	ldi	r22, 0x4C	; 76
    2d2e:	75 e0       	ldi	r23, 0x05	; 5
    2d30:	8f ed       	ldi	r24, 0xDF	; 223
    2d32:	93 e0       	ldi	r25, 0x03	; 3
    2d34:	0e 94 1c 2c 	call	0x5838	; 0x5838 <nextion_setText>
    2d38:	e0 91 77 0a 	lds	r30, 0x0A77	; 0x800a77 <aktuellesGetraenk_file>
    2d3c:	f0 91 78 0a 	lds	r31, 0x0A78	; 0x800a78 <aktuellesGetraenk_file+0x1>
    2d40:	80 81       	ld	r24, Z
    2d42:	0e 94 15 0b 	call	0x162a	; 0x162a <loesche_FIle>
    2d46:	e0 91 0b 13 	lds	r30, 0x130B	; 0x80130b <aktuellesGetraenk>
    2d4a:	f0 91 0c 13 	lds	r31, 0x130C	; 0x80130c <aktuellesGetraenk+0x1>
    2d4e:	60 81       	ld	r22, Z
    2d50:	71 81       	ldd	r23, Z+1	; 0x01
    2d52:	a0 91 77 0a 	lds	r26, 0x0A77	; 0x800a77 <aktuellesGetraenk_file>
    2d56:	b0 91 78 0a 	lds	r27, 0x0A78	; 0x800a78 <aktuellesGetraenk_file+0x1>
    2d5a:	23 81       	ldd	r18, Z+3	; 0x03
    2d5c:	42 81       	ldd	r20, Z+2	; 0x02
    2d5e:	8c 91       	ld	r24, X
    2d60:	0e 94 a9 09 	call	0x1352	; 0x1352 <erstelle_File>
    2d64:	81 e0       	ldi	r24, 0x01	; 1
    2d66:	0e 94 fd 2b 	call	0x57fa	; 0x57fa <nextion_change_page>
    2d6a:	80 91 0b 13 	lds	r24, 0x130B	; 0x80130b <aktuellesGetraenk>
    2d6e:	90 91 0c 13 	lds	r25, 0x130C	; 0x80130c <aktuellesGetraenk+0x1>
    2d72:	0c 94 0c 04 	jmp	0x818	; 0x818 <setze_startanzeige>
    2d76:	08 95       	ret
    2d78:	60 e6       	ldi	r22, 0x60	; 96
    2d7a:	75 e0       	ldi	r23, 0x05	; 5
    2d7c:	86 e3       	ldi	r24, 0x36	; 54
    2d7e:	92 e0       	ldi	r25, 0x02	; 2
    2d80:	0c 94 1c 2c 	jmp	0x5838	; 0x5838 <nextion_setText>
    2d84:	08 95       	ret
    2d86:	80 e0       	ldi	r24, 0x00	; 0
    2d88:	0c 94 51 01 	jmp	0x2a2	; 0x2a2 <schreibe_Menge_in_Getraenk>
    2d8c:	08 95       	ret
    2d8e:	81 e0       	ldi	r24, 0x01	; 1
    2d90:	0c 94 51 01 	jmp	0x2a2	; 0x2a2 <schreibe_Menge_in_Getraenk>
    2d94:	08 95       	ret
    2d96:	82 e0       	ldi	r24, 0x02	; 2
    2d98:	0c 94 51 01 	jmp	0x2a2	; 0x2a2 <schreibe_Menge_in_Getraenk>
    2d9c:	08 95       	ret
    2d9e:	83 e0       	ldi	r24, 0x03	; 3
    2da0:	0c 94 51 01 	jmp	0x2a2	; 0x2a2 <schreibe_Menge_in_Getraenk>
    2da4:	08 95       	ret
    2da6:	10 92 9b 0e 	sts	0x0E9B, r1	; 0x800e9b <block_list_hoch>
    2daa:	10 92 80 0a 	sts	0x0A80, r1	; 0x800a80 <block_list_runter>
    2dae:	10 92 d1 12 	sts	0x12D1, r1	; 0x8012d1 <i_Liste>
    2db2:	81 e0       	ldi	r24, 0x01	; 1
    2db4:	0e 94 fd 2b 	call	0x57fa	; 0x57fa <nextion_change_page>
    2db8:	e0 91 37 0a 	lds	r30, 0x0A37	; 0x800a37 <tail_getraenk_file>
    2dbc:	f0 91 38 0a 	lds	r31, 0x0A38	; 0x800a38 <tail_getraenk_file+0x1>
    2dc0:	f0 93 78 0a 	sts	0x0A78, r31	; 0x800a78 <aktuellesGetraenk_file+0x1>
    2dc4:	e0 93 77 0a 	sts	0x0A77, r30	; 0x800a77 <aktuellesGetraenk_file>
    2dc8:	80 81       	ld	r24, Z
    2dca:	0e 94 d7 06 	call	0xdae	; 0xdae <lese_textfile_in_getraenk>
    2dce:	80 91 0b 13 	lds	r24, 0x130B	; 0x80130b <aktuellesGetraenk>
    2dd2:	90 91 0c 13 	lds	r25, 0x130C	; 0x80130c <aktuellesGetraenk+0x1>
    2dd6:	0c 94 0c 04 	jmp	0x818	; 0x818 <setze_startanzeige>
    2dda:	08 95       	ret

00002ddc <check_reinanzeige1>:
    2ddc:	81 30       	cpi	r24, 0x01	; 1
    2dde:	19 f0       	breq	.+6      	; 0x2de6 <check_reinanzeige1+0xa>
    2de0:	82 30       	cpi	r24, 0x02	; 2
    2de2:	29 f0       	breq	.+10     	; 0x2dee <check_reinanzeige1+0x12>
    2de4:	08 95       	ret
    2de6:	87 e0       	ldi	r24, 0x07	; 7
    2de8:	0c 94 fd 2b 	jmp	0x57fa	; 0x57fa <nextion_change_page>
    2dec:	08 95       	ret
    2dee:	8b e0       	ldi	r24, 0x0B	; 11
    2df0:	0c 94 fd 2b 	jmp	0x57fa	; 0x57fa <nextion_change_page>
    2df4:	08 95       	ret

00002df6 <check_reinanzeige2>:
    2df6:	1f 93       	push	r17
    2df8:	cf 93       	push	r28
    2dfa:	df 93       	push	r29
    2dfc:	81 30       	cpi	r24, 0x01	; 1
    2dfe:	19 f0       	breq	.+6      	; 0x2e06 <check_reinanzeige2+0x10>
    2e00:	82 30       	cpi	r24, 0x02	; 2
    2e02:	29 f0       	breq	.+10     	; 0x2e0e <check_reinanzeige2+0x18>
    2e04:	3a c0       	rjmp	.+116    	; 0x2e7a <check_reinanzeige2+0x84>
    2e06:	87 e0       	ldi	r24, 0x07	; 7
    2e08:	0e 94 fd 2b 	call	0x57fa	; 0x57fa <nextion_change_page>
    2e0c:	36 c0       	rjmp	.+108    	; 0x2e7a <check_reinanzeige2+0x84>
    2e0e:	8c e0       	ldi	r24, 0x0C	; 12
    2e10:	0e 94 fd 2b 	call	0x57fa	; 0x57fa <nextion_change_page>
    2e14:	10 e0       	ldi	r17, 0x00	; 0
    2e16:	80 91 05 13 	lds	r24, 0x1305	; 0x801305 <stop>
    2e1a:	81 11       	cpse	r24, r1
    2e1c:	12 c0       	rjmp	.+36     	; 0x2e42 <check_reinanzeige2+0x4c>
    2e1e:	81 2f       	mov	r24, r17
    2e20:	0e 94 37 02 	call	0x46e	; 0x46e <schalte_pumpe_ein>
    2e24:	c0 ed       	ldi	r28, 0xD0	; 208
    2e26:	d7 e0       	ldi	r29, 0x07	; 7
    2e28:	0e 94 c1 2a 	call	0x5582	; 0x5582 <check_Communication_Input_UART_1>
    2e2c:	81 11       	cpse	r24, r1
    2e2e:	0e 94 4a 2b 	call	0x5694	; 0x5694 <proceed_Communication_INPUT_UART_1>
    2e32:	8f e9       	ldi	r24, 0x9F	; 159
    2e34:	9f e0       	ldi	r25, 0x0F	; 15
    2e36:	01 97       	sbiw	r24, 0x01	; 1
    2e38:	f1 f7       	brne	.-4      	; 0x2e36 <check_reinanzeige2+0x40>
    2e3a:	00 c0       	rjmp	.+0      	; 0x2e3c <check_reinanzeige2+0x46>
    2e3c:	00 00       	nop
    2e3e:	21 97       	sbiw	r28, 0x01	; 1
    2e40:	99 f7       	brne	.-26     	; 0x2e28 <check_reinanzeige2+0x32>
    2e42:	81 2f       	mov	r24, r17
    2e44:	0e 94 6e 02 	call	0x4dc	; 0x4dc <schalte_pumpe_aus>
    2e48:	1f 5f       	subi	r17, 0xFF	; 255
    2e4a:	1c 30       	cpi	r17, 0x0C	; 12
    2e4c:	21 f7       	brne	.-56     	; 0x2e16 <check_reinanzeige2+0x20>
    2e4e:	10 92 05 13 	sts	0x1305, r1	; 0x801305 <stop>
    2e52:	81 e0       	ldi	r24, 0x01	; 1
    2e54:	0e 94 fd 2b 	call	0x57fa	; 0x57fa <nextion_change_page>
    2e58:	e0 91 37 0a 	lds	r30, 0x0A37	; 0x800a37 <tail_getraenk_file>
    2e5c:	f0 91 38 0a 	lds	r31, 0x0A38	; 0x800a38 <tail_getraenk_file+0x1>
    2e60:	f0 93 78 0a 	sts	0x0A78, r31	; 0x800a78 <aktuellesGetraenk_file+0x1>
    2e64:	e0 93 77 0a 	sts	0x0A77, r30	; 0x800a77 <aktuellesGetraenk_file>
    2e68:	80 81       	ld	r24, Z
    2e6a:	0e 94 d7 06 	call	0xdae	; 0xdae <lese_textfile_in_getraenk>
    2e6e:	80 91 0b 13 	lds	r24, 0x130B	; 0x80130b <aktuellesGetraenk>
    2e72:	90 91 0c 13 	lds	r25, 0x130C	; 0x80130c <aktuellesGetraenk+0x1>
    2e76:	0e 94 0c 04 	call	0x818	; 0x818 <setze_startanzeige>
    2e7a:	df 91       	pop	r29
    2e7c:	cf 91       	pop	r28
    2e7e:	1f 91       	pop	r17
    2e80:	08 95       	ret

00002e82 <check_reinanzeige3>:
    2e82:	81 30       	cpi	r24, 0x01	; 1
    2e84:	31 f4       	brne	.+12     	; 0x2e92 <check_reinanzeige3+0x10>
    2e86:	87 e0       	ldi	r24, 0x07	; 7
    2e88:	0e 94 fd 2b 	call	0x57fa	; 0x57fa <nextion_change_page>
    2e8c:	81 e0       	ldi	r24, 0x01	; 1
    2e8e:	80 93 05 13 	sts	0x1305, r24	; 0x801305 <stop>
    2e92:	08 95       	ret

00002e94 <check_infoanzeige>:
    2e94:	81 30       	cpi	r24, 0x01	; 1
    2e96:	19 f4       	brne	.+6      	; 0x2e9e <check_infoanzeige+0xa>
    2e98:	87 e0       	ldi	r24, 0x07	; 7
    2e9a:	0c 94 fd 2b 	jmp	0x57fa	; 0x57fa <nextion_change_page>
    2e9e:	08 95       	ret

00002ea0 <check_erstanzeige1>:

}

void check_erstanzeige1(uint8_t button)
{
    2ea0:	cf 93       	push	r28
    2ea2:	df 93       	push	r29
    2ea4:	cd b7       	in	r28, 0x3d	; 61
    2ea6:	de b7       	in	r29, 0x3e	; 62
    2ea8:	e2 97       	sbiw	r28, 0x32	; 50
    2eaa:	0f b6       	in	r0, 0x3f	; 63
    2eac:	f8 94       	cli
    2eae:	de bf       	out	0x3e, r29	; 62
    2eb0:	0f be       	out	0x3f, r0	; 63
    2eb2:	cd bf       	out	0x3d, r28	; 61
    2eb4:	e8 2f       	mov	r30, r24
    // Initialisierung fr Gross-/Kleinschreib-Wechsel
    char wechsel = 0;
    char buff10[50] = {'0'};
    2eb6:	9e 01       	movw	r18, r28
    2eb8:	2f 5f       	subi	r18, 0xFF	; 255
    2eba:	3f 4f       	sbci	r19, 0xFF	; 255
    2ebc:	82 e3       	ldi	r24, 0x32	; 50
    2ebe:	d9 01       	movw	r26, r18
    2ec0:	1d 92       	st	X+, r1
    2ec2:	8a 95       	dec	r24
    2ec4:	e9 f7       	brne	.-6      	; 0x2ec0 <check_erstanzeige1+0x20>
    2ec6:	80 e3       	ldi	r24, 0x30	; 48
    2ec8:	89 83       	std	Y+1, r24	; 0x01

    switch (button)
    2eca:	8e 2f       	mov	r24, r30
    2ecc:	90 e0       	ldi	r25, 0x00	; 0
    2ece:	fc 01       	movw	r30, r24
    2ed0:	31 97       	sbiw	r30, 0x01	; 1
    2ed2:	ef 31       	cpi	r30, 0x1F	; 31
    2ed4:	f1 05       	cpc	r31, r1
    2ed6:	08 f0       	brcs	.+2      	; 0x2eda <check_erstanzeige1+0x3a>
    2ed8:	20 c3       	rjmp	.+1600   	; 0x351a <check_erstanzeige1+0x67a>
    2eda:	88 27       	eor	r24, r24
    2edc:	ee 53       	subi	r30, 0x3E	; 62
    2ede:	ff 4f       	sbci	r31, 0xFF	; 255
    2ee0:	8f 4f       	sbci	r24, 0xFF	; 255
    2ee2:	0c 94 1d 46 	jmp	0x8c3a	; 0x8c3a <__tablejump2__>
    case A:
        /*      0x01 = 0b01
                    - Buchstabe A gross/klein in buff_name[counter] schreiben
                    - Counter inkrementieren fr nchste Buchstabenposition des Namens
        */
        if (Grossschreib == 1)
    2ee6:	80 91 7b 0a 	lds	r24, 0x0A7B	; 0x800a7b <Grossschreib>
    2eea:	81 30       	cpi	r24, 0x01	; 1
    2eec:	41 f4       	brne	.+16     	; 0x2efe <check_erstanzeige1+0x5e>
        {
            buff_name[counter] = 'A';
    2eee:	e0 91 a2 0f 	lds	r30, 0x0FA2	; 0x800fa2 <counter>
    2ef2:	f0 e0       	ldi	r31, 0x00	; 0
    2ef4:	e6 55       	subi	r30, 0x56	; 86
    2ef6:	f0 4f       	sbci	r31, 0xF0	; 240
    2ef8:	81 e4       	ldi	r24, 0x41	; 65
    2efa:	80 83       	st	Z, r24
    2efc:	07 c0       	rjmp	.+14     	; 0x2f0c <check_erstanzeige1+0x6c>
        }
        else
        {
            buff_name[counter] = 'a';
    2efe:	e0 91 a2 0f 	lds	r30, 0x0FA2	; 0x800fa2 <counter>
    2f02:	f0 e0       	ldi	r31, 0x00	; 0
    2f04:	e6 55       	subi	r30, 0x56	; 86
    2f06:	f0 4f       	sbci	r31, 0xF0	; 240
    2f08:	81 e6       	ldi	r24, 0x61	; 97
    2f0a:	80 83       	st	Z, r24
        }
        counter++;
    2f0c:	80 91 a2 0f 	lds	r24, 0x0FA2	; 0x800fa2 <counter>
    2f10:	8f 5f       	subi	r24, 0xFF	; 255
    2f12:	80 93 a2 0f 	sts	0x0FA2, r24	; 0x800fa2 <counter>
        break;
    2f16:	01 c3       	rjmp	.+1538   	; 0x351a <check_erstanzeige1+0x67a>
    case B:
        /*      0x02 = 0b02
                    - Buchstabe B gross/klein in buff_name[counter] schreiben
                    - Counter inkrementieren fr nchste Buchstabenposition des Namens
        */
        if (Grossschreib == 1)
    2f18:	80 91 7b 0a 	lds	r24, 0x0A7B	; 0x800a7b <Grossschreib>
    2f1c:	81 30       	cpi	r24, 0x01	; 1
    2f1e:	41 f4       	brne	.+16     	; 0x2f30 <check_erstanzeige1+0x90>
        {
            buff_name[counter] = 'B';
    2f20:	e0 91 a2 0f 	lds	r30, 0x0FA2	; 0x800fa2 <counter>
    2f24:	f0 e0       	ldi	r31, 0x00	; 0
    2f26:	e6 55       	subi	r30, 0x56	; 86
    2f28:	f0 4f       	sbci	r31, 0xF0	; 240
    2f2a:	82 e4       	ldi	r24, 0x42	; 66
    2f2c:	80 83       	st	Z, r24
    2f2e:	07 c0       	rjmp	.+14     	; 0x2f3e <check_erstanzeige1+0x9e>
        }
        else
        {
            buff_name[counter] = 'b';
    2f30:	e0 91 a2 0f 	lds	r30, 0x0FA2	; 0x800fa2 <counter>
    2f34:	f0 e0       	ldi	r31, 0x00	; 0
    2f36:	e6 55       	subi	r30, 0x56	; 86
    2f38:	f0 4f       	sbci	r31, 0xF0	; 240
    2f3a:	82 e6       	ldi	r24, 0x62	; 98
    2f3c:	80 83       	st	Z, r24
        }
        counter++;
    2f3e:	80 91 a2 0f 	lds	r24, 0x0FA2	; 0x800fa2 <counter>
    2f42:	8f 5f       	subi	r24, 0xFF	; 255
    2f44:	80 93 a2 0f 	sts	0x0FA2, r24	; 0x800fa2 <counter>
        break;
    2f48:	e8 c2       	rjmp	.+1488   	; 0x351a <check_erstanzeige1+0x67a>
    case C:
        /*      0x03 = 0b03
                    - Buchstabe C gross/klein in buff_name[counter] schreiben
                    - Counter inkrementieren fr nchste Buchstabenposition des Namens
        */
        if (Grossschreib == 1)
    2f4a:	80 91 7b 0a 	lds	r24, 0x0A7B	; 0x800a7b <Grossschreib>
    2f4e:	81 30       	cpi	r24, 0x01	; 1
    2f50:	41 f4       	brne	.+16     	; 0x2f62 <check_erstanzeige1+0xc2>
        {
            buff_name[counter] = 'C';
    2f52:	e0 91 a2 0f 	lds	r30, 0x0FA2	; 0x800fa2 <counter>
    2f56:	f0 e0       	ldi	r31, 0x00	; 0
    2f58:	e6 55       	subi	r30, 0x56	; 86
    2f5a:	f0 4f       	sbci	r31, 0xF0	; 240
    2f5c:	83 e4       	ldi	r24, 0x43	; 67
    2f5e:	80 83       	st	Z, r24
    2f60:	07 c0       	rjmp	.+14     	; 0x2f70 <check_erstanzeige1+0xd0>
        }
        else
        {
            buff_name[counter] = 'c';
    2f62:	e0 91 a2 0f 	lds	r30, 0x0FA2	; 0x800fa2 <counter>
    2f66:	f0 e0       	ldi	r31, 0x00	; 0
    2f68:	e6 55       	subi	r30, 0x56	; 86
    2f6a:	f0 4f       	sbci	r31, 0xF0	; 240
    2f6c:	83 e6       	ldi	r24, 0x63	; 99
    2f6e:	80 83       	st	Z, r24
        }
        counter++;
    2f70:	80 91 a2 0f 	lds	r24, 0x0FA2	; 0x800fa2 <counter>
    2f74:	8f 5f       	subi	r24, 0xFF	; 255
    2f76:	80 93 a2 0f 	sts	0x0FA2, r24	; 0x800fa2 <counter>
        break;
    2f7a:	cf c2       	rjmp	.+1438   	; 0x351a <check_erstanzeige1+0x67a>
    case D:
        /*      0x04 = 0b04
                    - Buchstabe D gross/klein in buff_name[counter] schreiben
                    - Counter inkrementieren fr nchste Buchstabenposition des Namens
        */
        if (Grossschreib == 1)
    2f7c:	80 91 7b 0a 	lds	r24, 0x0A7B	; 0x800a7b <Grossschreib>
    2f80:	81 30       	cpi	r24, 0x01	; 1
    2f82:	41 f4       	brne	.+16     	; 0x2f94 <check_erstanzeige1+0xf4>
        {
            buff_name[counter] = 'D';
    2f84:	e0 91 a2 0f 	lds	r30, 0x0FA2	; 0x800fa2 <counter>
    2f88:	f0 e0       	ldi	r31, 0x00	; 0
    2f8a:	e6 55       	subi	r30, 0x56	; 86
    2f8c:	f0 4f       	sbci	r31, 0xF0	; 240
    2f8e:	84 e4       	ldi	r24, 0x44	; 68
    2f90:	80 83       	st	Z, r24
    2f92:	07 c0       	rjmp	.+14     	; 0x2fa2 <check_erstanzeige1+0x102>
        }
        else
        {
            buff_name[counter] = 'd';
    2f94:	e0 91 a2 0f 	lds	r30, 0x0FA2	; 0x800fa2 <counter>
    2f98:	f0 e0       	ldi	r31, 0x00	; 0
    2f9a:	e6 55       	subi	r30, 0x56	; 86
    2f9c:	f0 4f       	sbci	r31, 0xF0	; 240
    2f9e:	84 e6       	ldi	r24, 0x64	; 100
    2fa0:	80 83       	st	Z, r24
        }
        counter++;
    2fa2:	80 91 a2 0f 	lds	r24, 0x0FA2	; 0x800fa2 <counter>
    2fa6:	8f 5f       	subi	r24, 0xFF	; 255
    2fa8:	80 93 a2 0f 	sts	0x0FA2, r24	; 0x800fa2 <counter>
        break;
    2fac:	b6 c2       	rjmp	.+1388   	; 0x351a <check_erstanzeige1+0x67a>
    case E:
        /*      0x05 = 0b05
                    - Buchstabe E gross/klein in buff_name[counter] schreiben
                    - Counter inkrementieren fr nchste Buchstabenposition des Namens
        */
        if (Grossschreib == 1)
    2fae:	80 91 7b 0a 	lds	r24, 0x0A7B	; 0x800a7b <Grossschreib>
    2fb2:	81 30       	cpi	r24, 0x01	; 1
    2fb4:	41 f4       	brne	.+16     	; 0x2fc6 <check_erstanzeige1+0x126>
        {
            buff_name[counter] = 'E';
    2fb6:	e0 91 a2 0f 	lds	r30, 0x0FA2	; 0x800fa2 <counter>
    2fba:	f0 e0       	ldi	r31, 0x00	; 0
    2fbc:	e6 55       	subi	r30, 0x56	; 86
    2fbe:	f0 4f       	sbci	r31, 0xF0	; 240
    2fc0:	85 e4       	ldi	r24, 0x45	; 69
    2fc2:	80 83       	st	Z, r24
    2fc4:	07 c0       	rjmp	.+14     	; 0x2fd4 <check_erstanzeige1+0x134>
        }
        else
        {
            buff_name[counter] = 'e';
    2fc6:	e0 91 a2 0f 	lds	r30, 0x0FA2	; 0x800fa2 <counter>
    2fca:	f0 e0       	ldi	r31, 0x00	; 0
    2fcc:	e6 55       	subi	r30, 0x56	; 86
    2fce:	f0 4f       	sbci	r31, 0xF0	; 240
    2fd0:	85 e6       	ldi	r24, 0x65	; 101
    2fd2:	80 83       	st	Z, r24
        }
        counter++;
    2fd4:	80 91 a2 0f 	lds	r24, 0x0FA2	; 0x800fa2 <counter>
    2fd8:	8f 5f       	subi	r24, 0xFF	; 255
    2fda:	80 93 a2 0f 	sts	0x0FA2, r24	; 0x800fa2 <counter>
        break;
    2fde:	9d c2       	rjmp	.+1338   	; 0x351a <check_erstanzeige1+0x67a>
    case F:
        /*      0x06 = 0b06
                    - Buchstabe F gross/klein in buff_name[counter] schreiben
                    - Counter inkrementieren fr nchste Buchstabenposition des Namens
        */
        if (Grossschreib == 1)
    2fe0:	80 91 7b 0a 	lds	r24, 0x0A7B	; 0x800a7b <Grossschreib>
    2fe4:	81 30       	cpi	r24, 0x01	; 1
    2fe6:	41 f4       	brne	.+16     	; 0x2ff8 <check_erstanzeige1+0x158>
        {
            buff_name[counter] = 'F';
    2fe8:	e0 91 a2 0f 	lds	r30, 0x0FA2	; 0x800fa2 <counter>
    2fec:	f0 e0       	ldi	r31, 0x00	; 0
    2fee:	e6 55       	subi	r30, 0x56	; 86
    2ff0:	f0 4f       	sbci	r31, 0xF0	; 240
    2ff2:	86 e4       	ldi	r24, 0x46	; 70
    2ff4:	80 83       	st	Z, r24
    2ff6:	07 c0       	rjmp	.+14     	; 0x3006 <check_erstanzeige1+0x166>
        }
        else
        {
            buff_name[counter] = 'f';
    2ff8:	e0 91 a2 0f 	lds	r30, 0x0FA2	; 0x800fa2 <counter>
    2ffc:	f0 e0       	ldi	r31, 0x00	; 0
    2ffe:	e6 55       	subi	r30, 0x56	; 86
    3000:	f0 4f       	sbci	r31, 0xF0	; 240
    3002:	86 e6       	ldi	r24, 0x66	; 102
    3004:	80 83       	st	Z, r24
        }
        counter++;
    3006:	80 91 a2 0f 	lds	r24, 0x0FA2	; 0x800fa2 <counter>
    300a:	8f 5f       	subi	r24, 0xFF	; 255
    300c:	80 93 a2 0f 	sts	0x0FA2, r24	; 0x800fa2 <counter>
        break;
    3010:	84 c2       	rjmp	.+1288   	; 0x351a <check_erstanzeige1+0x67a>
    case G:
        /*      0x07 = 0b07
                    - Buchstabe G gross/klein in buff_name[counter] schreiben
                    - Counter inkrementieren fr nchste Buchstabenposition des Namens
        */
        if (Grossschreib == 1)
    3012:	80 91 7b 0a 	lds	r24, 0x0A7B	; 0x800a7b <Grossschreib>
    3016:	81 30       	cpi	r24, 0x01	; 1
    3018:	41 f4       	brne	.+16     	; 0x302a <check_erstanzeige1+0x18a>
        {
            buff_name[counter] = 'G';
    301a:	e0 91 a2 0f 	lds	r30, 0x0FA2	; 0x800fa2 <counter>
    301e:	f0 e0       	ldi	r31, 0x00	; 0
    3020:	e6 55       	subi	r30, 0x56	; 86
    3022:	f0 4f       	sbci	r31, 0xF0	; 240
    3024:	87 e4       	ldi	r24, 0x47	; 71
    3026:	80 83       	st	Z, r24
    3028:	07 c0       	rjmp	.+14     	; 0x3038 <check_erstanzeige1+0x198>
        }
        else
        {
            buff_name[counter] = 'g';
    302a:	e0 91 a2 0f 	lds	r30, 0x0FA2	; 0x800fa2 <counter>
    302e:	f0 e0       	ldi	r31, 0x00	; 0
    3030:	e6 55       	subi	r30, 0x56	; 86
    3032:	f0 4f       	sbci	r31, 0xF0	; 240
    3034:	87 e6       	ldi	r24, 0x67	; 103
    3036:	80 83       	st	Z, r24
        }
        counter++;
    3038:	80 91 a2 0f 	lds	r24, 0x0FA2	; 0x800fa2 <counter>
    303c:	8f 5f       	subi	r24, 0xFF	; 255
    303e:	80 93 a2 0f 	sts	0x0FA2, r24	; 0x800fa2 <counter>
        break;
    3042:	6b c2       	rjmp	.+1238   	; 0x351a <check_erstanzeige1+0x67a>
    case H:
        /*      0x08 = 0b08
                    - Buchstabe H gross/klein in buff_name[counter] schreiben
                    - Counter inkrementieren fr nchste Buchstabenposition des Namens
        */
        if (Grossschreib == 1)
    3044:	80 91 7b 0a 	lds	r24, 0x0A7B	; 0x800a7b <Grossschreib>
    3048:	81 30       	cpi	r24, 0x01	; 1
    304a:	41 f4       	brne	.+16     	; 0x305c <check_erstanzeige1+0x1bc>
        {
            buff_name[counter] = 'H';
    304c:	e0 91 a2 0f 	lds	r30, 0x0FA2	; 0x800fa2 <counter>
    3050:	f0 e0       	ldi	r31, 0x00	; 0
    3052:	e6 55       	subi	r30, 0x56	; 86
    3054:	f0 4f       	sbci	r31, 0xF0	; 240
    3056:	88 e4       	ldi	r24, 0x48	; 72
    3058:	80 83       	st	Z, r24
    305a:	07 c0       	rjmp	.+14     	; 0x306a <check_erstanzeige1+0x1ca>
        }
        else
        {
            buff_name[counter] = 'h';
    305c:	e0 91 a2 0f 	lds	r30, 0x0FA2	; 0x800fa2 <counter>
    3060:	f0 e0       	ldi	r31, 0x00	; 0
    3062:	e6 55       	subi	r30, 0x56	; 86
    3064:	f0 4f       	sbci	r31, 0xF0	; 240
    3066:	88 e6       	ldi	r24, 0x68	; 104
    3068:	80 83       	st	Z, r24
        }
        counter++;
    306a:	80 91 a2 0f 	lds	r24, 0x0FA2	; 0x800fa2 <counter>
    306e:	8f 5f       	subi	r24, 0xFF	; 255
    3070:	80 93 a2 0f 	sts	0x0FA2, r24	; 0x800fa2 <counter>
        break;
    3074:	52 c2       	rjmp	.+1188   	; 0x351a <check_erstanzeige1+0x67a>
    case I:
        /*      0x09 = 0b09
                    - Buchstabe I gross/klein in buff_name[counter] schreiben
                    - Counter inkrementieren fr nchste Buchstabenposition des Namens
        */
        if (Grossschreib == 1)
    3076:	80 91 7b 0a 	lds	r24, 0x0A7B	; 0x800a7b <Grossschreib>
    307a:	81 30       	cpi	r24, 0x01	; 1
    307c:	41 f4       	brne	.+16     	; 0x308e <check_erstanzeige1+0x1ee>
        {
            buff_name[counter] = 'I';
    307e:	e0 91 a2 0f 	lds	r30, 0x0FA2	; 0x800fa2 <counter>
    3082:	f0 e0       	ldi	r31, 0x00	; 0
    3084:	e6 55       	subi	r30, 0x56	; 86
    3086:	f0 4f       	sbci	r31, 0xF0	; 240
    3088:	89 e4       	ldi	r24, 0x49	; 73
    308a:	80 83       	st	Z, r24
    308c:	07 c0       	rjmp	.+14     	; 0x309c <check_erstanzeige1+0x1fc>
        }
        else
        {
            buff_name[counter] = 'i';
    308e:	e0 91 a2 0f 	lds	r30, 0x0FA2	; 0x800fa2 <counter>
    3092:	f0 e0       	ldi	r31, 0x00	; 0
    3094:	e6 55       	subi	r30, 0x56	; 86
    3096:	f0 4f       	sbci	r31, 0xF0	; 240
    3098:	89 e6       	ldi	r24, 0x69	; 105
    309a:	80 83       	st	Z, r24
        }
        counter++;
    309c:	80 91 a2 0f 	lds	r24, 0x0FA2	; 0x800fa2 <counter>
    30a0:	8f 5f       	subi	r24, 0xFF	; 255
    30a2:	80 93 a2 0f 	sts	0x0FA2, r24	; 0x800fa2 <counter>
        break;
    30a6:	39 c2       	rjmp	.+1138   	; 0x351a <check_erstanzeige1+0x67a>
    case J:
        /*      0x0A = 0b10
                    - Buchstabe J gross/klein in buff_name[counter] schreiben
                    - Counter inkrementieren fr nchste Buchstabenposition des Namens
        */
        if (Grossschreib == 1)
    30a8:	80 91 7b 0a 	lds	r24, 0x0A7B	; 0x800a7b <Grossschreib>
    30ac:	81 30       	cpi	r24, 0x01	; 1
    30ae:	41 f4       	brne	.+16     	; 0x30c0 <check_erstanzeige1+0x220>
        {
            buff_name[counter] = 'J';
    30b0:	e0 91 a2 0f 	lds	r30, 0x0FA2	; 0x800fa2 <counter>
    30b4:	f0 e0       	ldi	r31, 0x00	; 0
    30b6:	e6 55       	subi	r30, 0x56	; 86
    30b8:	f0 4f       	sbci	r31, 0xF0	; 240
    30ba:	8a e4       	ldi	r24, 0x4A	; 74
    30bc:	80 83       	st	Z, r24
    30be:	07 c0       	rjmp	.+14     	; 0x30ce <check_erstanzeige1+0x22e>
        }
        else
        {
            buff_name[counter] = 'j';
    30c0:	e0 91 a2 0f 	lds	r30, 0x0FA2	; 0x800fa2 <counter>
    30c4:	f0 e0       	ldi	r31, 0x00	; 0
    30c6:	e6 55       	subi	r30, 0x56	; 86
    30c8:	f0 4f       	sbci	r31, 0xF0	; 240
    30ca:	8a e6       	ldi	r24, 0x6A	; 106
    30cc:	80 83       	st	Z, r24
        }
        counter++;
    30ce:	80 91 a2 0f 	lds	r24, 0x0FA2	; 0x800fa2 <counter>
    30d2:	8f 5f       	subi	r24, 0xFF	; 255
    30d4:	80 93 a2 0f 	sts	0x0FA2, r24	; 0x800fa2 <counter>
        break;
    30d8:	20 c2       	rjmp	.+1088   	; 0x351a <check_erstanzeige1+0x67a>
    case K:
        /*      0x0B = 0b11
                    - Buchstabe K gross/klein in buff_name[counter] schreiben
                    - Counter inkrementieren fr nchste Buchstabenposition des Namens
        */
        if (Grossschreib == 1)
    30da:	80 91 7b 0a 	lds	r24, 0x0A7B	; 0x800a7b <Grossschreib>
    30de:	81 30       	cpi	r24, 0x01	; 1
    30e0:	41 f4       	brne	.+16     	; 0x30f2 <check_erstanzeige1+0x252>
        {
            buff_name[counter] = 'K';
    30e2:	e0 91 a2 0f 	lds	r30, 0x0FA2	; 0x800fa2 <counter>
    30e6:	f0 e0       	ldi	r31, 0x00	; 0
    30e8:	e6 55       	subi	r30, 0x56	; 86
    30ea:	f0 4f       	sbci	r31, 0xF0	; 240
    30ec:	8b e4       	ldi	r24, 0x4B	; 75
    30ee:	80 83       	st	Z, r24
    30f0:	07 c0       	rjmp	.+14     	; 0x3100 <check_erstanzeige1+0x260>
        }
        else
        {
            buff_name[counter] = 'k';
    30f2:	e0 91 a2 0f 	lds	r30, 0x0FA2	; 0x800fa2 <counter>
    30f6:	f0 e0       	ldi	r31, 0x00	; 0
    30f8:	e6 55       	subi	r30, 0x56	; 86
    30fa:	f0 4f       	sbci	r31, 0xF0	; 240
    30fc:	8b e6       	ldi	r24, 0x6B	; 107
    30fe:	80 83       	st	Z, r24
        }
        counter++;
    3100:	80 91 a2 0f 	lds	r24, 0x0FA2	; 0x800fa2 <counter>
    3104:	8f 5f       	subi	r24, 0xFF	; 255
    3106:	80 93 a2 0f 	sts	0x0FA2, r24	; 0x800fa2 <counter>
        break;
    310a:	07 c2       	rjmp	.+1038   	; 0x351a <check_erstanzeige1+0x67a>
    case L:
        /*      0x0C = 0b12
                    - Buchstabe L gross/klein in buff_name[counter] schreiben
                    - Counter inkrementieren fr nchste Buchstabenposition des Namens
        */
        if (Grossschreib == 1)
    310c:	80 91 7b 0a 	lds	r24, 0x0A7B	; 0x800a7b <Grossschreib>
    3110:	81 30       	cpi	r24, 0x01	; 1
    3112:	41 f4       	brne	.+16     	; 0x3124 <check_erstanzeige1+0x284>
        {
            buff_name[counter] = 'L';
    3114:	e0 91 a2 0f 	lds	r30, 0x0FA2	; 0x800fa2 <counter>
    3118:	f0 e0       	ldi	r31, 0x00	; 0
    311a:	e6 55       	subi	r30, 0x56	; 86
    311c:	f0 4f       	sbci	r31, 0xF0	; 240
    311e:	8c e4       	ldi	r24, 0x4C	; 76
    3120:	80 83       	st	Z, r24
    3122:	07 c0       	rjmp	.+14     	; 0x3132 <check_erstanzeige1+0x292>
        }
        else
        {
            buff_name[counter] = 'l';
    3124:	e0 91 a2 0f 	lds	r30, 0x0FA2	; 0x800fa2 <counter>
    3128:	f0 e0       	ldi	r31, 0x00	; 0
    312a:	e6 55       	subi	r30, 0x56	; 86
    312c:	f0 4f       	sbci	r31, 0xF0	; 240
    312e:	8c e6       	ldi	r24, 0x6C	; 108
    3130:	80 83       	st	Z, r24
        }
        counter++;
    3132:	80 91 a2 0f 	lds	r24, 0x0FA2	; 0x800fa2 <counter>
    3136:	8f 5f       	subi	r24, 0xFF	; 255
    3138:	80 93 a2 0f 	sts	0x0FA2, r24	; 0x800fa2 <counter>
        break;
    313c:	ee c1       	rjmp	.+988    	; 0x351a <check_erstanzeige1+0x67a>
    case M:
        /*      0x0D = 0b13
                    - Buchstabe M gross/klein in buff_name[counter] schreiben
                    - Counter inkrementieren fr nchste Buchstabenposition des Namens
        */
        if (Grossschreib == 1)
    313e:	80 91 7b 0a 	lds	r24, 0x0A7B	; 0x800a7b <Grossschreib>
    3142:	81 30       	cpi	r24, 0x01	; 1
    3144:	41 f4       	brne	.+16     	; 0x3156 <check_erstanzeige1+0x2b6>
        {
            buff_name[counter] = 'M';
    3146:	e0 91 a2 0f 	lds	r30, 0x0FA2	; 0x800fa2 <counter>
    314a:	f0 e0       	ldi	r31, 0x00	; 0
    314c:	e6 55       	subi	r30, 0x56	; 86
    314e:	f0 4f       	sbci	r31, 0xF0	; 240
    3150:	8d e4       	ldi	r24, 0x4D	; 77
    3152:	80 83       	st	Z, r24
    3154:	07 c0       	rjmp	.+14     	; 0x3164 <check_erstanzeige1+0x2c4>
        }
        else
        {
            buff_name[counter] = 'm';
    3156:	e0 91 a2 0f 	lds	r30, 0x0FA2	; 0x800fa2 <counter>
    315a:	f0 e0       	ldi	r31, 0x00	; 0
    315c:	e6 55       	subi	r30, 0x56	; 86
    315e:	f0 4f       	sbci	r31, 0xF0	; 240
    3160:	8d e6       	ldi	r24, 0x6D	; 109
    3162:	80 83       	st	Z, r24
        }
        counter++;
    3164:	80 91 a2 0f 	lds	r24, 0x0FA2	; 0x800fa2 <counter>
    3168:	8f 5f       	subi	r24, 0xFF	; 255
    316a:	80 93 a2 0f 	sts	0x0FA2, r24	; 0x800fa2 <counter>
        break;
    316e:	d5 c1       	rjmp	.+938    	; 0x351a <check_erstanzeige1+0x67a>
    case N:
        /*      0x0E = 0b14
                    - Buchstabe N gross/klein in buff_name[counter] schreiben
                    - Counter inkrementieren fr nchste Buchstabenposition des Namens
        */
        if (Grossschreib == 1)
    3170:	80 91 7b 0a 	lds	r24, 0x0A7B	; 0x800a7b <Grossschreib>
    3174:	81 30       	cpi	r24, 0x01	; 1
    3176:	41 f4       	brne	.+16     	; 0x3188 <check_erstanzeige1+0x2e8>
        {
            buff_name[counter] = 'N';
    3178:	e0 91 a2 0f 	lds	r30, 0x0FA2	; 0x800fa2 <counter>
    317c:	f0 e0       	ldi	r31, 0x00	; 0
    317e:	e6 55       	subi	r30, 0x56	; 86
    3180:	f0 4f       	sbci	r31, 0xF0	; 240
    3182:	8e e4       	ldi	r24, 0x4E	; 78
    3184:	80 83       	st	Z, r24
    3186:	07 c0       	rjmp	.+14     	; 0x3196 <check_erstanzeige1+0x2f6>
        }
        else
        {
            buff_name[counter] = 'n';
    3188:	e0 91 a2 0f 	lds	r30, 0x0FA2	; 0x800fa2 <counter>
    318c:	f0 e0       	ldi	r31, 0x00	; 0
    318e:	e6 55       	subi	r30, 0x56	; 86
    3190:	f0 4f       	sbci	r31, 0xF0	; 240
    3192:	8e e6       	ldi	r24, 0x6E	; 110
    3194:	80 83       	st	Z, r24
        }
        counter++;
    3196:	80 91 a2 0f 	lds	r24, 0x0FA2	; 0x800fa2 <counter>
    319a:	8f 5f       	subi	r24, 0xFF	; 255
    319c:	80 93 a2 0f 	sts	0x0FA2, r24	; 0x800fa2 <counter>
        break;
    31a0:	bc c1       	rjmp	.+888    	; 0x351a <check_erstanzeige1+0x67a>
    case O:
        /*      0x0F = 0b15
                    - Buchstabe O gross/klein in buff_name[counter] schreiben
                    - Counter inkrementieren fr nchste Buchstabenposition des Namens
        */
        if (Grossschreib == 1)
    31a2:	80 91 7b 0a 	lds	r24, 0x0A7B	; 0x800a7b <Grossschreib>
    31a6:	81 30       	cpi	r24, 0x01	; 1
    31a8:	41 f4       	brne	.+16     	; 0x31ba <check_erstanzeige1+0x31a>
        {
            buff_name[counter] = 'O';
    31aa:	e0 91 a2 0f 	lds	r30, 0x0FA2	; 0x800fa2 <counter>
    31ae:	f0 e0       	ldi	r31, 0x00	; 0
    31b0:	e6 55       	subi	r30, 0x56	; 86
    31b2:	f0 4f       	sbci	r31, 0xF0	; 240
    31b4:	8f e4       	ldi	r24, 0x4F	; 79
    31b6:	80 83       	st	Z, r24
    31b8:	07 c0       	rjmp	.+14     	; 0x31c8 <check_erstanzeige1+0x328>
        }
        else
        {
            buff_name[counter] = 'o';
    31ba:	e0 91 a2 0f 	lds	r30, 0x0FA2	; 0x800fa2 <counter>
    31be:	f0 e0       	ldi	r31, 0x00	; 0
    31c0:	e6 55       	subi	r30, 0x56	; 86
    31c2:	f0 4f       	sbci	r31, 0xF0	; 240
    31c4:	8f e6       	ldi	r24, 0x6F	; 111
    31c6:	80 83       	st	Z, r24
        }
        counter++;
    31c8:	80 91 a2 0f 	lds	r24, 0x0FA2	; 0x800fa2 <counter>
    31cc:	8f 5f       	subi	r24, 0xFF	; 255
    31ce:	80 93 a2 0f 	sts	0x0FA2, r24	; 0x800fa2 <counter>
        break;
    31d2:	a3 c1       	rjmp	.+838    	; 0x351a <check_erstanzeige1+0x67a>
    case P:
        /*      0x10 = 0b16
                    - Buchstabe P gross/klein in buff_name[counter] schreiben
                    - Counter inkrementieren fr nchste Buchstabenposition des Namens
        */
        if (Grossschreib == 1)
    31d4:	80 91 7b 0a 	lds	r24, 0x0A7B	; 0x800a7b <Grossschreib>
    31d8:	81 30       	cpi	r24, 0x01	; 1
    31da:	41 f4       	brne	.+16     	; 0x31ec <check_erstanzeige1+0x34c>
        {
            buff_name[counter] = 'P';
    31dc:	e0 91 a2 0f 	lds	r30, 0x0FA2	; 0x800fa2 <counter>
    31e0:	f0 e0       	ldi	r31, 0x00	; 0
    31e2:	e6 55       	subi	r30, 0x56	; 86
    31e4:	f0 4f       	sbci	r31, 0xF0	; 240
    31e6:	80 e5       	ldi	r24, 0x50	; 80
    31e8:	80 83       	st	Z, r24
    31ea:	07 c0       	rjmp	.+14     	; 0x31fa <check_erstanzeige1+0x35a>
        }
        else
        {
            buff_name[counter] = 'p';
    31ec:	e0 91 a2 0f 	lds	r30, 0x0FA2	; 0x800fa2 <counter>
    31f0:	f0 e0       	ldi	r31, 0x00	; 0
    31f2:	e6 55       	subi	r30, 0x56	; 86
    31f4:	f0 4f       	sbci	r31, 0xF0	; 240
    31f6:	80 e7       	ldi	r24, 0x70	; 112
    31f8:	80 83       	st	Z, r24
        }
        counter++;
    31fa:	80 91 a2 0f 	lds	r24, 0x0FA2	; 0x800fa2 <counter>
    31fe:	8f 5f       	subi	r24, 0xFF	; 255
    3200:	80 93 a2 0f 	sts	0x0FA2, r24	; 0x800fa2 <counter>
        break;
    3204:	8a c1       	rjmp	.+788    	; 0x351a <check_erstanzeige1+0x67a>
    case Q:
        /*      0x11 = 0b17
                    - Buchstabe Q gross/klein in buff_name[counter] schreiben
                    - Counter inkrementieren fr nchste Buchstabenposition des Namens
        */
        if (Grossschreib == 1)
    3206:	80 91 7b 0a 	lds	r24, 0x0A7B	; 0x800a7b <Grossschreib>
    320a:	81 30       	cpi	r24, 0x01	; 1
    320c:	41 f4       	brne	.+16     	; 0x321e <check_erstanzeige1+0x37e>
        {
            buff_name[counter] = 'Q';
    320e:	e0 91 a2 0f 	lds	r30, 0x0FA2	; 0x800fa2 <counter>
    3212:	f0 e0       	ldi	r31, 0x00	; 0
    3214:	e6 55       	subi	r30, 0x56	; 86
    3216:	f0 4f       	sbci	r31, 0xF0	; 240
    3218:	81 e5       	ldi	r24, 0x51	; 81
    321a:	80 83       	st	Z, r24
    321c:	07 c0       	rjmp	.+14     	; 0x322c <check_erstanzeige1+0x38c>
        }
        else
        {
            buff_name[counter] = 'q';
    321e:	e0 91 a2 0f 	lds	r30, 0x0FA2	; 0x800fa2 <counter>
    3222:	f0 e0       	ldi	r31, 0x00	; 0
    3224:	e6 55       	subi	r30, 0x56	; 86
    3226:	f0 4f       	sbci	r31, 0xF0	; 240
    3228:	81 e7       	ldi	r24, 0x71	; 113
    322a:	80 83       	st	Z, r24
        }
        counter++;
    322c:	80 91 a2 0f 	lds	r24, 0x0FA2	; 0x800fa2 <counter>
    3230:	8f 5f       	subi	r24, 0xFF	; 255
    3232:	80 93 a2 0f 	sts	0x0FA2, r24	; 0x800fa2 <counter>
        break;
    3236:	71 c1       	rjmp	.+738    	; 0x351a <check_erstanzeige1+0x67a>
    case R:
        /*      0x12 = 0b18
                    - Buchstabe R gross/klein in buff_name[counter] schreiben
                    - Counter inkrementieren fr nchste Buchstabenposition des Namens
        */
        if (Grossschreib == 1)
    3238:	80 91 7b 0a 	lds	r24, 0x0A7B	; 0x800a7b <Grossschreib>
    323c:	81 30       	cpi	r24, 0x01	; 1
    323e:	41 f4       	brne	.+16     	; 0x3250 <check_erstanzeige1+0x3b0>
        {
            buff_name[counter] = 'R';
    3240:	e0 91 a2 0f 	lds	r30, 0x0FA2	; 0x800fa2 <counter>
    3244:	f0 e0       	ldi	r31, 0x00	; 0
    3246:	e6 55       	subi	r30, 0x56	; 86
    3248:	f0 4f       	sbci	r31, 0xF0	; 240
    324a:	82 e5       	ldi	r24, 0x52	; 82
    324c:	80 83       	st	Z, r24
    324e:	07 c0       	rjmp	.+14     	; 0x325e <check_erstanzeige1+0x3be>
        }
        else
        {
            buff_name[counter] = 'r';
    3250:	e0 91 a2 0f 	lds	r30, 0x0FA2	; 0x800fa2 <counter>
    3254:	f0 e0       	ldi	r31, 0x00	; 0
    3256:	e6 55       	subi	r30, 0x56	; 86
    3258:	f0 4f       	sbci	r31, 0xF0	; 240
    325a:	82 e7       	ldi	r24, 0x72	; 114
    325c:	80 83       	st	Z, r24
        }
        counter++;
    325e:	80 91 a2 0f 	lds	r24, 0x0FA2	; 0x800fa2 <counter>
    3262:	8f 5f       	subi	r24, 0xFF	; 255
    3264:	80 93 a2 0f 	sts	0x0FA2, r24	; 0x800fa2 <counter>
        break;
    3268:	58 c1       	rjmp	.+688    	; 0x351a <check_erstanzeige1+0x67a>
    case S:
        /*      0x13 = 0b19
                    - Buchstabe S gross/klein in buff_name[counter] schreiben
                    - Counter inkrementieren fr nchste Buchstabenposition des Namens
        */
        if (Grossschreib == 1)
    326a:	80 91 7b 0a 	lds	r24, 0x0A7B	; 0x800a7b <Grossschreib>
    326e:	81 30       	cpi	r24, 0x01	; 1
    3270:	41 f4       	brne	.+16     	; 0x3282 <check_erstanzeige1+0x3e2>
        {
            buff_name[counter] = 'S';
    3272:	e0 91 a2 0f 	lds	r30, 0x0FA2	; 0x800fa2 <counter>
    3276:	f0 e0       	ldi	r31, 0x00	; 0
    3278:	e6 55       	subi	r30, 0x56	; 86
    327a:	f0 4f       	sbci	r31, 0xF0	; 240
    327c:	83 e5       	ldi	r24, 0x53	; 83
    327e:	80 83       	st	Z, r24
    3280:	07 c0       	rjmp	.+14     	; 0x3290 <check_erstanzeige1+0x3f0>
        }
        else
        {
            buff_name[counter] = 's';
    3282:	e0 91 a2 0f 	lds	r30, 0x0FA2	; 0x800fa2 <counter>
    3286:	f0 e0       	ldi	r31, 0x00	; 0
    3288:	e6 55       	subi	r30, 0x56	; 86
    328a:	f0 4f       	sbci	r31, 0xF0	; 240
    328c:	83 e7       	ldi	r24, 0x73	; 115
    328e:	80 83       	st	Z, r24
        }
        counter++;
    3290:	80 91 a2 0f 	lds	r24, 0x0FA2	; 0x800fa2 <counter>
    3294:	8f 5f       	subi	r24, 0xFF	; 255
    3296:	80 93 a2 0f 	sts	0x0FA2, r24	; 0x800fa2 <counter>
        break;
    329a:	3f c1       	rjmp	.+638    	; 0x351a <check_erstanzeige1+0x67a>
    case T:
        /*      0x14 = 0b20
                    - Buchstabe T gross/klein in buff_name[counter] schreiben
                    - Counter inkrementieren fr nchste Buchstabenposition des Namens
        */
        if (Grossschreib == 1)
    329c:	80 91 7b 0a 	lds	r24, 0x0A7B	; 0x800a7b <Grossschreib>
    32a0:	81 30       	cpi	r24, 0x01	; 1
    32a2:	41 f4       	brne	.+16     	; 0x32b4 <check_erstanzeige1+0x414>
        {
            buff_name[counter] = 'T';
    32a4:	e0 91 a2 0f 	lds	r30, 0x0FA2	; 0x800fa2 <counter>
    32a8:	f0 e0       	ldi	r31, 0x00	; 0
    32aa:	e6 55       	subi	r30, 0x56	; 86
    32ac:	f0 4f       	sbci	r31, 0xF0	; 240
    32ae:	84 e5       	ldi	r24, 0x54	; 84
    32b0:	80 83       	st	Z, r24
    32b2:	07 c0       	rjmp	.+14     	; 0x32c2 <check_erstanzeige1+0x422>
        }
        else
        {
            buff_name[counter] = 't';
    32b4:	e0 91 a2 0f 	lds	r30, 0x0FA2	; 0x800fa2 <counter>
    32b8:	f0 e0       	ldi	r31, 0x00	; 0
    32ba:	e6 55       	subi	r30, 0x56	; 86
    32bc:	f0 4f       	sbci	r31, 0xF0	; 240
    32be:	84 e7       	ldi	r24, 0x74	; 116
    32c0:	80 83       	st	Z, r24
        }
        counter++;
    32c2:	80 91 a2 0f 	lds	r24, 0x0FA2	; 0x800fa2 <counter>
    32c6:	8f 5f       	subi	r24, 0xFF	; 255
    32c8:	80 93 a2 0f 	sts	0x0FA2, r24	; 0x800fa2 <counter>
        break;
    32cc:	26 c1       	rjmp	.+588    	; 0x351a <check_erstanzeige1+0x67a>
    case U:
        /*      0x15 = 0b21
                    - Buchstabe U gross/klein in buff_name[counter] schreiben
                    - Counter inkrementieren fr nchste Buchstabenposition des Namens
        */
        if (Grossschreib == 1)
    32ce:	80 91 7b 0a 	lds	r24, 0x0A7B	; 0x800a7b <Grossschreib>
    32d2:	81 30       	cpi	r24, 0x01	; 1
    32d4:	41 f4       	brne	.+16     	; 0x32e6 <check_erstanzeige1+0x446>
        {
            buff_name[counter] = 'U';
    32d6:	e0 91 a2 0f 	lds	r30, 0x0FA2	; 0x800fa2 <counter>
    32da:	f0 e0       	ldi	r31, 0x00	; 0
    32dc:	e6 55       	subi	r30, 0x56	; 86
    32de:	f0 4f       	sbci	r31, 0xF0	; 240
    32e0:	85 e5       	ldi	r24, 0x55	; 85
    32e2:	80 83       	st	Z, r24
    32e4:	07 c0       	rjmp	.+14     	; 0x32f4 <check_erstanzeige1+0x454>
        }
        else
        {
            buff_name[counter] = 'u';
    32e6:	e0 91 a2 0f 	lds	r30, 0x0FA2	; 0x800fa2 <counter>
    32ea:	f0 e0       	ldi	r31, 0x00	; 0
    32ec:	e6 55       	subi	r30, 0x56	; 86
    32ee:	f0 4f       	sbci	r31, 0xF0	; 240
    32f0:	85 e7       	ldi	r24, 0x75	; 117
    32f2:	80 83       	st	Z, r24
        }
        counter++;
    32f4:	80 91 a2 0f 	lds	r24, 0x0FA2	; 0x800fa2 <counter>
    32f8:	8f 5f       	subi	r24, 0xFF	; 255
    32fa:	80 93 a2 0f 	sts	0x0FA2, r24	; 0x800fa2 <counter>
        break;
    32fe:	0d c1       	rjmp	.+538    	; 0x351a <check_erstanzeige1+0x67a>
    case V:
        /*      0x16 = 0b22
                    - Buchstabe V gross/klein in buff_name[counter] schreiben
                    - Counter inkrementieren fr nchste Buchstabenposition des Namens
        */
        if (Grossschreib == 1)
    3300:	80 91 7b 0a 	lds	r24, 0x0A7B	; 0x800a7b <Grossschreib>
    3304:	81 30       	cpi	r24, 0x01	; 1
    3306:	41 f4       	brne	.+16     	; 0x3318 <check_erstanzeige1+0x478>
        {
            buff_name[counter] = 'V';
    3308:	e0 91 a2 0f 	lds	r30, 0x0FA2	; 0x800fa2 <counter>
    330c:	f0 e0       	ldi	r31, 0x00	; 0
    330e:	e6 55       	subi	r30, 0x56	; 86
    3310:	f0 4f       	sbci	r31, 0xF0	; 240
    3312:	86 e5       	ldi	r24, 0x56	; 86
    3314:	80 83       	st	Z, r24
    3316:	07 c0       	rjmp	.+14     	; 0x3326 <check_erstanzeige1+0x486>
        }
        else
        {
            buff_name[counter] = 'v';
    3318:	e0 91 a2 0f 	lds	r30, 0x0FA2	; 0x800fa2 <counter>
    331c:	f0 e0       	ldi	r31, 0x00	; 0
    331e:	e6 55       	subi	r30, 0x56	; 86
    3320:	f0 4f       	sbci	r31, 0xF0	; 240
    3322:	86 e7       	ldi	r24, 0x76	; 118
    3324:	80 83       	st	Z, r24
        }
        counter++;
    3326:	80 91 a2 0f 	lds	r24, 0x0FA2	; 0x800fa2 <counter>
    332a:	8f 5f       	subi	r24, 0xFF	; 255
    332c:	80 93 a2 0f 	sts	0x0FA2, r24	; 0x800fa2 <counter>
        break;
    3330:	f4 c0       	rjmp	.+488    	; 0x351a <check_erstanzeige1+0x67a>
    case W:
        /*      0x17 = 0b23
                    - Buchstabe W gross/klein in buff_name[counter] schreiben
                    - Counter inkrementieren fr nchste Buchstabenposition des Namens
        */
        if (Grossschreib == 1)
    3332:	80 91 7b 0a 	lds	r24, 0x0A7B	; 0x800a7b <Grossschreib>
    3336:	81 30       	cpi	r24, 0x01	; 1
    3338:	41 f4       	brne	.+16     	; 0x334a <check_erstanzeige1+0x4aa>
        {
            buff_name[counter] = 'W';
    333a:	e0 91 a2 0f 	lds	r30, 0x0FA2	; 0x800fa2 <counter>
    333e:	f0 e0       	ldi	r31, 0x00	; 0
    3340:	e6 55       	subi	r30, 0x56	; 86
    3342:	f0 4f       	sbci	r31, 0xF0	; 240
    3344:	87 e5       	ldi	r24, 0x57	; 87
    3346:	80 83       	st	Z, r24
    3348:	07 c0       	rjmp	.+14     	; 0x3358 <check_erstanzeige1+0x4b8>
        }
        else
        {
            buff_name[counter] = 'w';
    334a:	e0 91 a2 0f 	lds	r30, 0x0FA2	; 0x800fa2 <counter>
    334e:	f0 e0       	ldi	r31, 0x00	; 0
    3350:	e6 55       	subi	r30, 0x56	; 86
    3352:	f0 4f       	sbci	r31, 0xF0	; 240
    3354:	87 e7       	ldi	r24, 0x77	; 119
    3356:	80 83       	st	Z, r24
        }
        counter++;
    3358:	80 91 a2 0f 	lds	r24, 0x0FA2	; 0x800fa2 <counter>
    335c:	8f 5f       	subi	r24, 0xFF	; 255
    335e:	80 93 a2 0f 	sts	0x0FA2, r24	; 0x800fa2 <counter>
        break;
    3362:	db c0       	rjmp	.+438    	; 0x351a <check_erstanzeige1+0x67a>
    case X:
        /*      0x18 = 0b24
                    - Buchstabe X gross/klein in buff_name[counter] schreiben
                    - Counter inkrementieren fr nchste Buchstabenposition des Namens
        */
        if (Grossschreib == 1)
    3364:	80 91 7b 0a 	lds	r24, 0x0A7B	; 0x800a7b <Grossschreib>
    3368:	81 30       	cpi	r24, 0x01	; 1
    336a:	41 f4       	brne	.+16     	; 0x337c <check_erstanzeige1+0x4dc>
        {
            buff_name[counter] = 'X';
    336c:	e0 91 a2 0f 	lds	r30, 0x0FA2	; 0x800fa2 <counter>
    3370:	f0 e0       	ldi	r31, 0x00	; 0
    3372:	e6 55       	subi	r30, 0x56	; 86
    3374:	f0 4f       	sbci	r31, 0xF0	; 240
    3376:	88 e5       	ldi	r24, 0x58	; 88
    3378:	80 83       	st	Z, r24
    337a:	07 c0       	rjmp	.+14     	; 0x338a <check_erstanzeige1+0x4ea>
        }
        else
        {
            buff_name[counter] = 'x';
    337c:	e0 91 a2 0f 	lds	r30, 0x0FA2	; 0x800fa2 <counter>
    3380:	f0 e0       	ldi	r31, 0x00	; 0
    3382:	e6 55       	subi	r30, 0x56	; 86
    3384:	f0 4f       	sbci	r31, 0xF0	; 240
    3386:	88 e7       	ldi	r24, 0x78	; 120
    3388:	80 83       	st	Z, r24
        }
        counter++;
    338a:	80 91 a2 0f 	lds	r24, 0x0FA2	; 0x800fa2 <counter>
    338e:	8f 5f       	subi	r24, 0xFF	; 255
    3390:	80 93 a2 0f 	sts	0x0FA2, r24	; 0x800fa2 <counter>
        break;
    3394:	c2 c0       	rjmp	.+388    	; 0x351a <check_erstanzeige1+0x67a>
    case Y:
        /*      0x19 = 0b25
                    - Buchstabe Y gross/klein in buff_name[counter] schreiben
                    - Counter inkrementieren fr nchste Buchstabenposition des Namens
        */
        if (Grossschreib == 1)
    3396:	80 91 7b 0a 	lds	r24, 0x0A7B	; 0x800a7b <Grossschreib>
    339a:	81 30       	cpi	r24, 0x01	; 1
    339c:	41 f4       	brne	.+16     	; 0x33ae <check_erstanzeige1+0x50e>
        {
            buff_name[counter] = 'Y';
    339e:	e0 91 a2 0f 	lds	r30, 0x0FA2	; 0x800fa2 <counter>
    33a2:	f0 e0       	ldi	r31, 0x00	; 0
    33a4:	e6 55       	subi	r30, 0x56	; 86
    33a6:	f0 4f       	sbci	r31, 0xF0	; 240
    33a8:	89 e5       	ldi	r24, 0x59	; 89
    33aa:	80 83       	st	Z, r24
    33ac:	07 c0       	rjmp	.+14     	; 0x33bc <check_erstanzeige1+0x51c>
        }
        else
        {
            buff_name[counter] = 'y';
    33ae:	e0 91 a2 0f 	lds	r30, 0x0FA2	; 0x800fa2 <counter>
    33b2:	f0 e0       	ldi	r31, 0x00	; 0
    33b4:	e6 55       	subi	r30, 0x56	; 86
    33b6:	f0 4f       	sbci	r31, 0xF0	; 240
    33b8:	89 e7       	ldi	r24, 0x79	; 121
    33ba:	80 83       	st	Z, r24
        }
        counter++;
    33bc:	80 91 a2 0f 	lds	r24, 0x0FA2	; 0x800fa2 <counter>
    33c0:	8f 5f       	subi	r24, 0xFF	; 255
    33c2:	80 93 a2 0f 	sts	0x0FA2, r24	; 0x800fa2 <counter>
        break;
    33c6:	a9 c0       	rjmp	.+338    	; 0x351a <check_erstanzeige1+0x67a>
    case Z:
        /*      0x1A = 0b26
                    - Buchstabe Z gross/klein in buff_name[counter] schreiben
                    - Counter inkrementieren fr nchste Buchstabenposition des Namens
        */
        if (Grossschreib == 1)
    33c8:	80 91 7b 0a 	lds	r24, 0x0A7B	; 0x800a7b <Grossschreib>
    33cc:	81 30       	cpi	r24, 0x01	; 1
    33ce:	41 f4       	brne	.+16     	; 0x33e0 <check_erstanzeige1+0x540>
        {
            buff_name[counter] = 'Z';
    33d0:	e0 91 a2 0f 	lds	r30, 0x0FA2	; 0x800fa2 <counter>
    33d4:	f0 e0       	ldi	r31, 0x00	; 0
    33d6:	e6 55       	subi	r30, 0x56	; 86
    33d8:	f0 4f       	sbci	r31, 0xF0	; 240
    33da:	8a e5       	ldi	r24, 0x5A	; 90
    33dc:	80 83       	st	Z, r24
    33de:	07 c0       	rjmp	.+14     	; 0x33ee <check_erstanzeige1+0x54e>
        }
        else
        {
            buff_name[counter] = 'z';
    33e0:	e0 91 a2 0f 	lds	r30, 0x0FA2	; 0x800fa2 <counter>
    33e4:	f0 e0       	ldi	r31, 0x00	; 0
    33e6:	e6 55       	subi	r30, 0x56	; 86
    33e8:	f0 4f       	sbci	r31, 0xF0	; 240
    33ea:	8a e7       	ldi	r24, 0x7A	; 122
    33ec:	80 83       	st	Z, r24
        }
        counter++;
    33ee:	80 91 a2 0f 	lds	r24, 0x0FA2	; 0x800fa2 <counter>
    33f2:	8f 5f       	subi	r24, 0xFF	; 255
    33f4:	80 93 a2 0f 	sts	0x0FA2, r24	; 0x800fa2 <counter>
        break;
    33f8:	90 c0       	rjmp	.+288    	; 0x351a <check_erstanzeige1+0x67a>
    case DEL:
        /*      0x1C = 0b28
                    - Counter vorverschieben
                    - String-Terminator setzen
        */
        counter--;
    33fa:	e0 91 a2 0f 	lds	r30, 0x0FA2	; 0x800fa2 <counter>
    33fe:	e1 50       	subi	r30, 0x01	; 1
    3400:	e0 93 a2 0f 	sts	0x0FA2, r30	; 0x800fa2 <counter>
        buff_name[counter] = '\0';
    3404:	f0 e0       	ldi	r31, 0x00	; 0
    3406:	e6 55       	subi	r30, 0x56	; 86
    3408:	f0 4f       	sbci	r31, 0xF0	; 240
    340a:	10 82       	st	Z, r1
        break;
    340c:	86 c0       	rjmp	.+268    	; 0x351a <check_erstanzeige1+0x67a>
        /*      0x1D = 0b29
                    - Erstes File aus der Liste holen und in aktuellesGetraenk speichern
                    - Buffer fr neuen Cocktail-Name rcksetzen
                    - Startanzeige setzen
        */
        lese_textfile_in_getraenk(tail_getraenk_file->file);
    340e:	e0 91 37 0a 	lds	r30, 0x0A37	; 0x800a37 <tail_getraenk_file>
    3412:	f0 91 38 0a 	lds	r31, 0x0A38	; 0x800a38 <tail_getraenk_file+0x1>
    3416:	80 81       	ld	r24, Z
    3418:	0e 94 d7 06 	call	0xdae	; 0xdae <lese_textfile_in_getraenk>
        counter = 0;
    341c:	10 92 a2 0f 	sts	0x0FA2, r1	; 0x800fa2 <counter>
    3420:	ea ea       	ldi	r30, 0xAA	; 170
    3422:	ff e0       	ldi	r31, 0x0F	; 15
    3424:	8e eb       	ldi	r24, 0xBE	; 190
    3426:	9f e0       	ldi	r25, 0x0F	; 15
        for (int i = 0 ; i <20 ; i ++)
        {
            buff_name[i] = '\0';
    3428:	11 92       	st	Z+, r1
                    - Buffer fr neuen Cocktail-Name rcksetzen
                    - Startanzeige setzen
        */
        lese_textfile_in_getraenk(tail_getraenk_file->file);
        counter = 0;
        for (int i = 0 ; i <20 ; i ++)
    342a:	8e 17       	cp	r24, r30
    342c:	9f 07       	cpc	r25, r31
    342e:	e1 f7       	brne	.-8      	; 0x3428 <check_erstanzeige1+0x588>
        {
            buff_name[i] = '\0';
        }
        nextion_change_page(STARTANZEIGE);
    3430:	81 e0       	ldi	r24, 0x01	; 1
    3432:	0e 94 fd 2b 	call	0x57fa	; 0x57fa <nextion_change_page>
        setze_startanzeige(aktuellesGetraenk);
    3436:	80 91 0b 13 	lds	r24, 0x130B	; 0x80130b <aktuellesGetraenk>
    343a:	90 91 0c 13 	lds	r25, 0x130C	; 0x80130c <aktuellesGetraenk+0x1>
    343e:	0e 94 0c 04 	call	0x818	; 0x818 <setze_startanzeige>
        break;
    3442:	6b c0       	rjmp	.+214    	; 0x351a <check_erstanzeige1+0x67a>

    case LEERZEICHEN:
        /*      0x1E = 0b30
                    - Leerzeichen in buff_name[counter] schreiben
        */
        buff_name[counter]= ' ';
    3444:	80 91 a2 0f 	lds	r24, 0x0FA2	; 0x800fa2 <counter>
    3448:	e8 2f       	mov	r30, r24
    344a:	f0 e0       	ldi	r31, 0x00	; 0
    344c:	e6 55       	subi	r30, 0x56	; 86
    344e:	f0 4f       	sbci	r31, 0xF0	; 240
    3450:	90 e2       	ldi	r25, 0x20	; 32
    3452:	90 83       	st	Z, r25
        counter++;
    3454:	8f 5f       	subi	r24, 0xFF	; 255
    3456:	80 93 a2 0f 	sts	0x0FA2, r24	; 0x800fa2 <counter>
        break;
    345a:	5f c0       	rjmp	.+190    	; 0x351a <check_erstanzeige1+0x67a>
                    - Counter fr Buchstaben auf 0 setzen
                    - Listenabschnitt auf den Ersten setzen
                    - Zutaten in Liste schreiben
        */

        if (strlen(buff_name) == 0)
    345c:	80 91 aa 0f 	lds	r24, 0x0FAA	; 0x800faa <buff_name>
    3460:	81 11       	cpse	r24, r1
    3462:	07 c0       	rjmp	.+14     	; 0x3472 <check_erstanzeige1+0x5d2>
        {
            nextion_setText("nameeingtxt", "Bitte mindestens ein Zeichen eingeben.");
    3464:	6c e7       	ldi	r22, 0x7C	; 124
    3466:	75 e0       	ldi	r23, 0x05	; 5
    3468:	83 ea       	ldi	r24, 0xA3	; 163
    346a:	95 e0       	ldi	r25, 0x05	; 5
    346c:	0e 94 1c 2c 	call	0x5838	; 0x5838 <nextion_setText>
    3470:	54 c0       	rjmp	.+168    	; 0x351a <check_erstanzeige1+0x67a>
        }
        else
        {
            nextion_change_page(ERSTANZEIGE2);
    3472:	81 e1       	ldi	r24, 0x11	; 17
    3474:	0e 94 fd 2b 	call	0x57fa	; 0x57fa <nextion_change_page>
            for (int i = 0 ; i < 12 ; i++)
    3478:	80 e0       	ldi	r24, 0x00	; 0
    347a:	90 e0       	ldi	r25, 0x00	; 0
            {
                *(aktuellesGetraenk->mengen + i) = 0;
    347c:	e0 91 0b 13 	lds	r30, 0x130B	; 0x80130b <aktuellesGetraenk>
    3480:	f0 91 0c 13 	lds	r31, 0x130C	; 0x80130c <aktuellesGetraenk+0x1>
    3484:	04 80       	ldd	r0, Z+4	; 0x04
    3486:	f5 81       	ldd	r31, Z+5	; 0x05
    3488:	e0 2d       	mov	r30, r0
    348a:	e8 0f       	add	r30, r24
    348c:	f9 1f       	adc	r31, r25
    348e:	10 82       	st	Z, r1
            nextion_setText("nameeingtxt", "Bitte mindestens ein Zeichen eingeben.");
        }
        else
        {
            nextion_change_page(ERSTANZEIGE2);
            for (int i = 0 ; i < 12 ; i++)
    3490:	01 96       	adiw	r24, 0x01	; 1
    3492:	8c 30       	cpi	r24, 0x0C	; 12
    3494:	91 05       	cpc	r25, r1
    3496:	91 f7       	brne	.-28     	; 0x347c <check_erstanzeige1+0x5dc>
            {
                *(aktuellesGetraenk->mengen + i) = 0;
            }
            counter = 0;
    3498:	10 92 a2 0f 	sts	0x0FA2, r1	; 0x800fa2 <counter>
            i_Liste = 0;
    349c:	10 92 d1 12 	sts	0x12D1, r1	; 0x8012d1 <i_Liste>
            erstelle_Liste_zutat("zutat");
    34a0:	8e e2       	ldi	r24, 0x2E	; 46
    34a2:	93 e0       	ldi	r25, 0x03	; 3
    34a4:	0e 94 df 02 	call	0x5be	; 0x5be <erstelle_Liste_zutat>
    34a8:	38 c0       	rjmp	.+112    	; 0x351a <check_erstanzeige1+0x67a>
                - Enthlt der Name 20 Buchstaben, bleibt der counter, der letzte Buchstabe wird immer berschrieben vom nchsten
    */
    if (wechsel == 1)
    {

        if (Grossschreib == 1)
    34aa:	80 91 7b 0a 	lds	r24, 0x0A7B	; 0x800a7b <Grossschreib>
    34ae:	81 30       	cpi	r24, 0x01	; 1
    34b0:	d1 f4       	brne	.+52     	; 0x34e6 <check_erstanzeige1+0x646>
        {
            Grossschreib = 0;
    34b2:	10 92 7b 0a 	sts	0x0A7B, r1	; 0x800a7b <Grossschreib>
            strcpy((char *)buff10, "Fs");
    34b6:	86 e4       	ldi	r24, 0x46	; 70
    34b8:	93 e7       	ldi	r25, 0x73	; 115
    34ba:	9a 83       	std	Y+2, r25	; 0x02
    34bc:	89 83       	std	Y+1, r24	; 0x01
    34be:	1b 82       	std	Y+3, r1	; 0x03
            strcat((char *)buff10, (const char *)".pco=0");
    34c0:	ce 01       	movw	r24, r28
    34c2:	01 96       	adiw	r24, 0x01	; 1
    34c4:	dc 01       	movw	r26, r24
    34c6:	0d 90       	ld	r0, X+
    34c8:	00 20       	and	r0, r0
    34ca:	e9 f7       	brne	.-6      	; 0x34c6 <check_erstanzeige1+0x626>
    34cc:	11 97       	sbiw	r26, 0x01	; 1
    34ce:	27 e0       	ldi	r18, 0x07	; 7
    34d0:	e2 ec       	ldi	r30, 0xC2	; 194
    34d2:	f4 e0       	ldi	r31, 0x04	; 4
    34d4:	01 90       	ld	r0, Z+
    34d6:	0d 92       	st	X+, r0
    34d8:	2a 95       	dec	r18
    34da:	e1 f7       	brne	.-8      	; 0x34d4 <check_erstanzeige1+0x634>
            Uart_Transmit_IT_Display((char *)buff10);
    34dc:	0e 94 64 41 	call	0x82c8	; 0x82c8 <Uart_Transmit_IT_Display>
            endConversation();
    34e0:	0e 94 e7 2b 	call	0x57ce	; 0x57ce <endConversation>
    34e4:	1a c0       	rjmp	.+52     	; 0x351a <check_erstanzeige1+0x67a>
        }
        else
        {
            Grossschreib = 1;
    34e6:	81 e0       	ldi	r24, 0x01	; 1
    34e8:	80 93 7b 0a 	sts	0x0A7B, r24	; 0x800a7b <Grossschreib>
            strcpy((char *)buff10, "Fs");
    34ec:	86 e4       	ldi	r24, 0x46	; 70
    34ee:	93 e7       	ldi	r25, 0x73	; 115
    34f0:	9a 83       	std	Y+2, r25	; 0x02
    34f2:	89 83       	std	Y+1, r24	; 0x01
    34f4:	1b 82       	std	Y+3, r1	; 0x03
            strcat((char *)buff10, (const char *)".pco=2016");
    34f6:	ce 01       	movw	r24, r28
    34f8:	01 96       	adiw	r24, 0x01	; 1
    34fa:	dc 01       	movw	r26, r24
    34fc:	0d 90       	ld	r0, X+
    34fe:	00 20       	and	r0, r0
    3500:	e9 f7       	brne	.-6      	; 0x34fc <check_erstanzeige1+0x65c>
    3502:	11 97       	sbiw	r26, 0x01	; 1
    3504:	2a e0       	ldi	r18, 0x0A	; 10
    3506:	e8 eb       	ldi	r30, 0xB8	; 184
    3508:	f4 e0       	ldi	r31, 0x04	; 4
    350a:	01 90       	ld	r0, Z+
    350c:	0d 92       	st	X+, r0
    350e:	2a 95       	dec	r18
    3510:	e1 f7       	brne	.-8      	; 0x350a <check_erstanzeige1+0x66a>
            Uart_Transmit_IT_Display((char *)buff10);
    3512:	0e 94 64 41 	call	0x82c8	; 0x82c8 <Uart_Transmit_IT_Display>
            endConversation();
    3516:	0e 94 e7 2b 	call	0x57ce	; 0x57ce <endConversation>
        }
    }

    nextion_setText("neuername",(char *)buff_name);
    351a:	6a ea       	ldi	r22, 0xAA	; 170
    351c:	7f e0       	ldi	r23, 0x0F	; 15
    351e:	8f ea       	ldi	r24, 0xAF	; 175
    3520:	95 e0       	ldi	r25, 0x05	; 5
    3522:	0e 94 1c 2c 	call	0x5838	; 0x5838 <nextion_setText>

    if (counter >= 19)
    3526:	80 91 a2 0f 	lds	r24, 0x0FA2	; 0x800fa2 <counter>
    352a:	83 31       	cpi	r24, 0x13	; 19
    352c:	18 f0       	brcs	.+6      	; 0x3534 <check_erstanzeige1+0x694>
    {
        counter = 19;
    352e:	83 e1       	ldi	r24, 0x13	; 19
    3530:	80 93 a2 0f 	sts	0x0FA2, r24	; 0x800fa2 <counter>
    }
}
    3534:	e2 96       	adiw	r28, 0x32	; 50
    3536:	0f b6       	in	r0, 0x3f	; 63
    3538:	f8 94       	cli
    353a:	de bf       	out	0x3e, r29	; 62
    353c:	0f be       	out	0x3f, r0	; 63
    353e:	cd bf       	out	0x3d, r28	; 61
    3540:	df 91       	pop	r29
    3542:	cf 91       	pop	r28
    3544:	08 95       	ret

00003546 <check_erstanzeige2>:

void check_erstanzeige2(uint8_t button)
{
    3546:	bf 92       	push	r11
    3548:	cf 92       	push	r12
    354a:	df 92       	push	r13
    354c:	ef 92       	push	r14
    354e:	ff 92       	push	r15
    3550:	0f 93       	push	r16
    3552:	1f 93       	push	r17
    3554:	cf 93       	push	r28
    3556:	df 93       	push	r29
    3558:	cd b7       	in	r28, 0x3d	; 61
    355a:	de b7       	in	r29, 0x3e	; 62
    355c:	2f 97       	sbiw	r28, 0x0f	; 15
    355e:	0f b6       	in	r0, 0x3f	; 63
    3560:	f8 94       	cli
    3562:	de bf       	out	0x3e, r29	; 62
    3564:	0f be       	out	0x3f, r0	; 63
    3566:	cd bf       	out	0x3d, r28	; 61
		uint8_t val = 0;

    // Initialisierung fr Erstellung eines neuen Getrnkefiles
    getraenk_file_t * tmp2;

    switch (button)
    3568:	81 30       	cpi	r24, 0x01	; 1
    356a:	19 f0       	breq	.+6      	; 0x3572 <check_erstanzeige2+0x2c>
    356c:	82 30       	cpi	r24, 0x02	; 2
    356e:	69 f0       	breq	.+26     	; 0x358a <check_erstanzeige2+0x44>
    3570:	c9 c0       	rjmp	.+402    	; 0x3704 <check_erstanzeige2+0x1be>
    case ABBRECHEN5:
        /*      0x01 = 0b01
                    - Startanzeige setzen
                    - Listenabschnitt auf 0 setzen
        */
        nextion_change_page(STARTANZEIGE);
    3572:	81 e0       	ldi	r24, 0x01	; 1
    3574:	0e 94 fd 2b 	call	0x57fa	; 0x57fa <nextion_change_page>
        setze_startanzeige(aktuellesGetraenk);
    3578:	80 91 0b 13 	lds	r24, 0x130B	; 0x80130b <aktuellesGetraenk>
    357c:	90 91 0c 13 	lds	r25, 0x130C	; 0x80130c <aktuellesGetraenk+0x1>
    3580:	0e 94 0c 04 	call	0x818	; 0x818 <setze_startanzeige>
        i_Liste = 0;
    3584:	10 92 d1 12 	sts	0x12D1, r1	; 0x8012d1 <i_Liste>
        break;
    3588:	bd c0       	rjmp	.+378    	; 0x3704 <check_erstanzeige2+0x1be>
        */
		
		
        for (int count = 0 ; count <12; count++)
        {
	        val += *(aktuellesGetraenk->mengen+count);
    358a:	e0 91 0b 13 	lds	r30, 0x130B	; 0x80130b <aktuellesGetraenk>
    358e:	f0 91 0c 13 	lds	r31, 0x130C	; 0x80130c <aktuellesGetraenk+0x1>
    3592:	04 80       	ldd	r0, Z+4	; 0x04
    3594:	f5 81       	ldd	r31, Z+5	; 0x05
    3596:	e0 2d       	mov	r30, r0
    3598:	9f 01       	movw	r18, r30
    359a:	24 5f       	subi	r18, 0xF4	; 244
    359c:	3f 4f       	sbci	r19, 0xFF	; 255
    359e:	80 e0       	ldi	r24, 0x00	; 0
    35a0:	91 91       	ld	r25, Z+
    35a2:	89 0f       	add	r24, r25
                    - i_Liste fr Listenabschnitt auf 0 setzen
                    - buff_name auf '\0' initialisieren fr nchstes Getrnk
        */
		
		
        for (int count = 0 ; count <12; count++)
    35a4:	e2 17       	cp	r30, r18
    35a6:	f3 07       	cpc	r31, r19
    35a8:	d9 f7       	brne	.-10     	; 0x35a0 <check_erstanzeige2+0x5a>
        {
	        val += *(aktuellesGetraenk->mengen+count);
        }

        if (val == 100)
    35aa:	84 36       	cpi	r24, 0x64	; 100
    35ac:	09 f0       	breq	.+2      	; 0x35b0 <check_erstanzeige2+0x6a>
    35ae:	a4 c0       	rjmp	.+328    	; 0x36f8 <check_erstanzeige2+0x1b2>
        {
			
        nextion_change_page(RFIDFEHLER);
    35b0:	89 e1       	ldi	r24, 0x19	; 25
    35b2:	0e 94 fd 2b 	call	0x57fa	; 0x57fa <nextion_change_page>
        nextion_setText("fehlertxt", "Wird gespeichert...");
    35b6:	6c e4       	ldi	r22, 0x4C	; 76
    35b8:	75 e0       	ldi	r23, 0x05	; 5
    35ba:	8f ed       	ldi	r24, 0xDF	; 223
    35bc:	93 e0       	ldi	r25, 0x03	; 3
    35be:	0e 94 1c 2c 	call	0x5838	; 0x5838 <nextion_setText>
        strcpy(aktuellesGetraenk->name, (const char *)buff_name);
    35c2:	e0 91 0b 13 	lds	r30, 0x130B	; 0x80130b <aktuellesGetraenk>
    35c6:	f0 91 0c 13 	lds	r31, 0x130C	; 0x80130c <aktuellesGetraenk+0x1>
    35ca:	6a ea       	ldi	r22, 0xAA	; 170
    35cc:	7f e0       	ldi	r23, 0x0F	; 15
    35ce:	80 81       	ld	r24, Z
    35d0:	91 81       	ldd	r25, Z+1	; 0x01
    35d2:	0e 94 90 48 	call	0x9120	; 0x9120 <strcpy>
        aktuellesGetraenk->picture = 32;
    35d6:	60 91 0b 13 	lds	r22, 0x130B	; 0x80130b <aktuellesGetraenk>
    35da:	70 91 0c 13 	lds	r23, 0x130C	; 0x80130c <aktuellesGetraenk+0x1>
    35de:	80 e2       	ldi	r24, 0x20	; 32
    35e0:	fb 01       	movw	r30, r22
    35e2:	86 83       	std	Z+6, r24	; 0x06

        uint8_t alkohol = 0;
        uint8_t kohlensaeure = 0;

        aktuelleZutatInMaschine = tail_zut_in_Maschine;
    35e4:	20 91 a7 0f 	lds	r18, 0x0FA7	; 0x800fa7 <tail_zut_in_Maschine>
    35e8:	30 91 a8 0f 	lds	r19, 0x0FA8	; 0x800fa8 <tail_zut_in_Maschine+0x1>
    35ec:	30 93 47 0a 	sts	0x0A47, r19	; 0x800a47 <aktuelleZutatInMaschine+0x1>
    35f0:	20 93 46 0a 	sts	0x0A46, r18	; 0x800a46 <aktuelleZutatInMaschine>
        do
        {
	        if (*(aktuellesGetraenk->mengen + aktuelleZutatInMaschine->stelle) > 0)
    35f4:	44 81       	ldd	r20, Z+4	; 0x04
    35f6:	55 81       	ldd	r21, Z+5	; 0x05
        nextion_setText("fehlertxt", "Wird gespeichert...");
        strcpy(aktuellesGetraenk->name, (const char *)buff_name);
        aktuellesGetraenk->picture = 32;

        uint8_t alkohol = 0;
        uint8_t kohlensaeure = 0;
    35f8:	c1 2c       	mov	r12, r1
        nextion_change_page(RFIDFEHLER);
        nextion_setText("fehlertxt", "Wird gespeichert...");
        strcpy(aktuellesGetraenk->name, (const char *)buff_name);
        aktuellesGetraenk->picture = 32;

        uint8_t alkohol = 0;
    35fa:	d1 2c       	mov	r13, r1
			        alkohol = 1;
		        }

		        if (aktuelleZutatInMaschine->kohlensaeure == 1)
		        {
			        kohlensaeure = 1;
    35fc:	11 e0       	ldi	r17, 0x01	; 1
        uint8_t kohlensaeure = 0;

        aktuelleZutatInMaschine = tail_zut_in_Maschine;
        do
        {
	        if (*(aktuellesGetraenk->mengen + aktuelleZutatInMaschine->stelle) > 0)
    35fe:	e0 91 46 0a 	lds	r30, 0x0A46	; 0x800a46 <aktuelleZutatInMaschine>
    3602:	f0 91 47 0a 	lds	r31, 0x0A47	; 0x800a47 <aktuelleZutatInMaschine+0x1>
    3606:	85 81       	ldd	r24, Z+5	; 0x05
    3608:	da 01       	movw	r26, r20
    360a:	a8 0f       	add	r26, r24
    360c:	b1 1d       	adc	r27, r1
    360e:	8c 91       	ld	r24, X
    3610:	88 23       	and	r24, r24
    3612:	41 f0       	breq	.+16     	; 0x3624 <check_erstanzeige2+0xde>
	        {
		        if (aktuelleZutatInMaschine->alkohol == 1)
    3614:	83 81       	ldd	r24, Z+3	; 0x03
    3616:	81 30       	cpi	r24, 0x01	; 1
    3618:	09 f4       	brne	.+2      	; 0x361c <check_erstanzeige2+0xd6>
		        {
			        alkohol = 1;
    361a:	d1 2e       	mov	r13, r17
		        }

		        if (aktuelleZutatInMaschine->kohlensaeure == 1)
    361c:	84 81       	ldd	r24, Z+4	; 0x04
    361e:	81 30       	cpi	r24, 0x01	; 1
    3620:	09 f4       	brne	.+2      	; 0x3624 <check_erstanzeige2+0xde>
		        {
			        kohlensaeure = 1;
    3622:	c1 2e       	mov	r12, r17
		        }
	        }
	        aktuelleZutatInMaschine = aktuelleZutatInMaschine->prev;
    3624:	84 85       	ldd	r24, Z+12	; 0x0c
    3626:	95 85       	ldd	r25, Z+13	; 0x0d
    3628:	90 93 47 0a 	sts	0x0A47, r25	; 0x800a47 <aktuelleZutatInMaschine+0x1>
    362c:	80 93 46 0a 	sts	0x0A46, r24	; 0x800a46 <aktuelleZutatInMaschine>
        } while (aktuelleZutatInMaschine!= tail_zut_in_Maschine);
    3630:	28 17       	cp	r18, r24
    3632:	39 07       	cpc	r19, r25
    3634:	21 f7       	brne	.-56     	; 0x35fe <check_erstanzeige2+0xb8>
        aktuellesGetraenk->alkohol = alkohol;
    3636:	fb 01       	movw	r30, r22
    3638:	d2 82       	std	Z+2, r13	; 0x02
    363a:	ee 24       	eor	r14, r14
    363c:	e3 94       	inc	r14
    363e:	f1 2c       	mov	r15, r1

        // Suche von 1 bis 100 durch die Files
        for (int8_t count = 1 ; count <= 100; count++) {

	        // Text erstellen, um File-Nr. zu suchen.
	        char buff[15] = {'\0'};
    3640:	0f 2e       	mov	r0, r31
    3642:	ff e0       	ldi	r31, 0x0F	; 15
    3644:	bf 2e       	mov	r11, r31
    3646:	f0 2d       	mov	r31, r0
    3648:	8e 01       	movw	r16, r28
    364a:	0f 5f       	subi	r16, 0xFF	; 255
    364c:	1f 4f       	sbci	r17, 0xFF	; 255
    364e:	f8 01       	movw	r30, r16
    3650:	8b 2d       	mov	r24, r11
    3652:	11 92       	st	Z+, r1
    3654:	8a 95       	dec	r24
    3656:	e9 f7       	brne	.-6      	; 0x3652 <check_erstanzeige2+0x10c>
    3658:	4a e0       	ldi	r20, 0x0A	; 10
    365a:	b8 01       	movw	r22, r16
    365c:	c7 01       	movw	r24, r14
    365e:	0e 94 be 48 	call	0x917c	; 0x917c <__itoa_ncheck>
	        itoa(count, (char *)buff,10);
	        strcat((char *)buff, (const char *)".txt");
    3662:	d8 01       	movw	r26, r16
    3664:	0d 90       	ld	r0, X+
    3666:	00 20       	and	r0, r0
    3668:	e9 f7       	brne	.-6      	; 0x3664 <check_erstanzeige2+0x11e>
    366a:	11 97       	sbiw	r26, 0x01	; 1
    366c:	85 e0       	ldi	r24, 0x05	; 5
    366e:	e0 ee       	ldi	r30, 0xE0	; 224
    3670:	f4 e0       	ldi	r31, 0x04	; 4
    3672:	01 90       	ld	r0, Z+
    3674:	0d 92       	st	X+, r0
    3676:	8a 95       	dec	r24
    3678:	e1 f7       	brne	.-8      	; 0x3672 <check_erstanzeige2+0x12c>

	        // Erstes nicht existierendes File suchen
	        if(readFile(VERIFY, (unsigned char *)buff)!=1)
    367a:	b8 01       	movw	r22, r16
    367c:	81 e0       	ldi	r24, 0x01	; 1
    367e:	0e 94 52 33 	call	0x66a4	; 0x66a4 <readFile>
    3682:	81 30       	cpi	r24, 0x01	; 1
    3684:	e1 f0       	breq	.+56     	; 0x36be <check_erstanzeige2+0x178>
	        {
		        // File speichern
		        erstelle_File(count, buff_name, alkohol, kohlensaeure);
    3686:	2c 2d       	mov	r18, r12
    3688:	4d 2d       	mov	r20, r13
    368a:	6a ea       	ldi	r22, 0xAA	; 170
    368c:	7f e0       	ldi	r23, 0x0F	; 15
    368e:	8e 2d       	mov	r24, r14
    3690:	0e 94 a9 09 	call	0x1352	; 0x1352 <erstelle_File>
		        tmp2 = create_new_getraenk_file(count);
    3694:	8e 2d       	mov	r24, r14
    3696:	0e 94 5a 25 	call	0x4ab4	; 0x4ab4 <create_new_getraenk_file>
		        head_getraenk_file = insert_file_at_head(&head_getraenk_file, tmp2);
    369a:	bc 01       	movw	r22, r24
    369c:	89 e7       	ldi	r24, 0x79	; 121
    369e:	9a e0       	ldi	r25, 0x0A	; 10
    36a0:	0e 94 66 25 	call	0x4acc	; 0x4acc <insert_file_at_head>
    36a4:	90 93 7a 0a 	sts	0x0A7A, r25	; 0x800a7a <head_getraenk_file+0x1>
    36a8:	80 93 79 0a 	sts	0x0A79, r24	; 0x800a79 <head_getraenk_file>
		        count = 100;
		        aktuellesGetraenk_file = head_getraenk_file;
    36ac:	90 93 78 0a 	sts	0x0A78, r25	; 0x800a78 <aktuellesGetraenk_file+0x1>
    36b0:	80 93 77 0a 	sts	0x0A77, r24	; 0x800a77 <aktuellesGetraenk_file>
		        lese_textfile_in_getraenk(head_getraenk_file->file);
    36b4:	fc 01       	movw	r30, r24
    36b6:	80 81       	ld	r24, Z
    36b8:	0e 94 d7 06 	call	0xdae	; 0xdae <lese_textfile_in_getraenk>
    36bc:	07 c0       	rjmp	.+14     	; 0x36cc <check_erstanzeige2+0x186>
    36be:	ff ef       	ldi	r31, 0xFF	; 255
    36c0:	ef 1a       	sub	r14, r31
    36c2:	ff 0a       	sbc	r15, r31
	        aktuelleZutatInMaschine = aktuelleZutatInMaschine->prev;
        } while (aktuelleZutatInMaschine!= tail_zut_in_Maschine);
        aktuellesGetraenk->alkohol = alkohol;

        // Suche von 1 bis 100 durch die Files
        for (int8_t count = 1 ; count <= 100; count++) {
    36c4:	85 e6       	ldi	r24, 0x65	; 101
    36c6:	e8 16       	cp	r14, r24
    36c8:	f1 04       	cpc	r15, r1
    36ca:	09 f6       	brne	.-126    	; 0x364e <check_erstanzeige2+0x108>
		        count = 100;
		        aktuellesGetraenk_file = head_getraenk_file;
		        lese_textfile_in_getraenk(head_getraenk_file->file);
	        }
        }
        nextion_change_page(STARTANZEIGE);
    36cc:	81 e0       	ldi	r24, 0x01	; 1
    36ce:	0e 94 fd 2b 	call	0x57fa	; 0x57fa <nextion_change_page>
        setze_startanzeige(aktuellesGetraenk);
    36d2:	80 91 0b 13 	lds	r24, 0x130B	; 0x80130b <aktuellesGetraenk>
    36d6:	90 91 0c 13 	lds	r25, 0x130C	; 0x80130c <aktuellesGetraenk+0x1>
    36da:	0e 94 0c 04 	call	0x818	; 0x818 <setze_startanzeige>
        counter = 0;
    36de:	10 92 a2 0f 	sts	0x0FA2, r1	; 0x800fa2 <counter>
        i_Liste = 0;
    36e2:	10 92 d1 12 	sts	0x12D1, r1	; 0x8012d1 <i_Liste>
    36e6:	ea ea       	ldi	r30, 0xAA	; 170
    36e8:	ff e0       	ldi	r31, 0x0F	; 15
    36ea:	8e eb       	ldi	r24, 0xBE	; 190
    36ec:	9f e0       	ldi	r25, 0x0F	; 15
        for (int i = 0 ; i <20 ; i ++)
        {
	        buff_name[i] = '\0';
    36ee:	11 92       	st	Z+, r1
        }
        nextion_change_page(STARTANZEIGE);
        setze_startanzeige(aktuellesGetraenk);
        counter = 0;
        i_Liste = 0;
        for (int i = 0 ; i <20 ; i ++)
    36f0:	8e 17       	cp	r24, r30
    36f2:	9f 07       	cpc	r25, r31
    36f4:	e1 f7       	brne	.-8      	; 0x36ee <check_erstanzeige2+0x1a8>
    36f6:	06 c0       	rjmp	.+12     	; 0x3704 <check_erstanzeige2+0x1be>
	        buff_name[i] = '\0';
        }
        }
        else
        {
	        nextion_setText("t0", "Noch nicht 100% ausgewhlt.");
    36f8:	60 e6       	ldi	r22, 0x60	; 96
    36fa:	75 e0       	ldi	r23, 0x05	; 5
    36fc:	86 e3       	ldi	r24, 0x36	; 54
    36fe:	92 e0       	ldi	r25, 0x02	; 2
    3700:	0e 94 1c 2c 	call	0x5838	; 0x5838 <nextion_setText>
        }
        break;
    }
}
    3704:	2f 96       	adiw	r28, 0x0f	; 15
    3706:	0f b6       	in	r0, 0x3f	; 63
    3708:	f8 94       	cli
    370a:	de bf       	out	0x3e, r29	; 62
    370c:	0f be       	out	0x3f, r0	; 63
    370e:	cd bf       	out	0x3d, r28	; 61
    3710:	df 91       	pop	r29
    3712:	cf 91       	pop	r28
    3714:	1f 91       	pop	r17
    3716:	0f 91       	pop	r16
    3718:	ff 90       	pop	r15
    371a:	ef 90       	pop	r14
    371c:	df 90       	pop	r13
    371e:	cf 90       	pop	r12
    3720:	bf 90       	pop	r11
    3722:	08 95       	ret

00003724 <check_loeschanzeige>:

void check_loeschanzeige(uint8_t button)
{
    3724:	0f 93       	push	r16
    3726:	1f 93       	push	r17
    3728:	cf 93       	push	r28
    372a:	df 93       	push	r29
    372c:	cd b7       	in	r28, 0x3d	; 61
    372e:	de b7       	in	r29, 0x3e	; 62
    3730:	64 97       	sbiw	r28, 0x14	; 20
    3732:	0f b6       	in	r0, 0x3f	; 63
    3734:	f8 94       	cli
    3736:	de bf       	out	0x3e, r29	; 62
    3738:	0f be       	out	0x3f, r0	; 63
    373a:	cd bf       	out	0x3d, r28	; 61
    switch (button)
    373c:	81 30       	cpi	r24, 0x01	; 1
    373e:	21 f0       	breq	.+8      	; 0x3748 <check_loeschanzeige+0x24>
    3740:	82 30       	cpi	r24, 0x02	; 2
    3742:	09 f4       	brne	.+2      	; 0x3746 <check_loeschanzeige+0x22>
    3744:	64 c0       	rjmp	.+200    	; 0x380e <check_loeschanzeige+0xea>
    3746:	6c c0       	rjmp	.+216    	; 0x3820 <check_loeschanzeige+0xfc>
                    - String fr zu lschendes File wird generiert
                    - Das File wird gelscht
                    - Das nchste Getrnk wird in das aktuelleGetraenk geladen
                    - Startanzeige setzen
        */
        if (aktuellesGetraenk_file == tail_getraenk_file)
    3748:	e0 91 77 0a 	lds	r30, 0x0A77	; 0x800a77 <aktuellesGetraenk_file>
    374c:	f0 91 78 0a 	lds	r31, 0x0A78	; 0x800a78 <aktuellesGetraenk_file+0x1>
    3750:	80 91 37 0a 	lds	r24, 0x0A37	; 0x800a37 <tail_getraenk_file>
    3754:	90 91 38 0a 	lds	r25, 0x0A38	; 0x800a38 <tail_getraenk_file+0x1>
    3758:	e8 17       	cp	r30, r24
    375a:	f9 07       	cpc	r31, r25
    375c:	39 f4       	brne	.+14     	; 0x376c <check_loeschanzeige+0x48>
        {
            tail_getraenk_file = aktuellesGetraenk_file->prev;
    375e:	83 81       	ldd	r24, Z+3	; 0x03
    3760:	94 81       	ldd	r25, Z+4	; 0x04
    3762:	90 93 38 0a 	sts	0x0A38, r25	; 0x800a38 <tail_getraenk_file+0x1>
    3766:	80 93 37 0a 	sts	0x0A37, r24	; 0x800a37 <tail_getraenk_file>
    376a:	0d c0       	rjmp	.+26     	; 0x3786 <check_loeschanzeige+0x62>
        }
        else if (aktuellesGetraenk_file == head_getraenk_file)
    376c:	80 91 79 0a 	lds	r24, 0x0A79	; 0x800a79 <head_getraenk_file>
    3770:	90 91 7a 0a 	lds	r25, 0x0A7A	; 0x800a7a <head_getraenk_file+0x1>
    3774:	e8 17       	cp	r30, r24
    3776:	f9 07       	cpc	r31, r25
    3778:	31 f4       	brne	.+12     	; 0x3786 <check_loeschanzeige+0x62>
        {
            head_getraenk_file = aktuellesGetraenk_file->next;
    377a:	81 81       	ldd	r24, Z+1	; 0x01
    377c:	92 81       	ldd	r25, Z+2	; 0x02
    377e:	90 93 7a 0a 	sts	0x0A7A, r25	; 0x800a7a <head_getraenk_file+0x1>
    3782:	80 93 79 0a 	sts	0x0A79, r24	; 0x800a79 <head_getraenk_file>
        }
        (aktuellesGetraenk_file->prev)->next = aktuellesGetraenk_file->next;
    3786:	a3 81       	ldd	r26, Z+3	; 0x03
    3788:	b4 81       	ldd	r27, Z+4	; 0x04
    378a:	81 81       	ldd	r24, Z+1	; 0x01
    378c:	92 81       	ldd	r25, Z+2	; 0x02
    378e:	12 96       	adiw	r26, 0x02	; 2
    3790:	9c 93       	st	X, r25
    3792:	8e 93       	st	-X, r24
    3794:	11 97       	sbiw	r26, 0x01	; 1
        (aktuellesGetraenk_file->next)->prev = aktuellesGetraenk_file->prev;
    3796:	e0 91 77 0a 	lds	r30, 0x0A77	; 0x800a77 <aktuellesGetraenk_file>
    379a:	f0 91 78 0a 	lds	r31, 0x0A78	; 0x800a78 <aktuellesGetraenk_file+0x1>
    379e:	a1 81       	ldd	r26, Z+1	; 0x01
    37a0:	b2 81       	ldd	r27, Z+2	; 0x02
    37a2:	83 81       	ldd	r24, Z+3	; 0x03
    37a4:	94 81       	ldd	r25, Z+4	; 0x04
    37a6:	14 96       	adiw	r26, 0x04	; 4
    37a8:	9c 93       	st	X, r25
    37aa:	8e 93       	st	-X, r24
    37ac:	13 97       	sbiw	r26, 0x03	; 3
    37ae:	80 81       	ld	r24, Z
    37b0:	4a e0       	ldi	r20, 0x0A	; 10
    37b2:	8e 01       	movw	r16, r28
    37b4:	0f 5f       	subi	r16, 0xFF	; 255
    37b6:	1f 4f       	sbci	r17, 0xFF	; 255
    37b8:	b8 01       	movw	r22, r16
    37ba:	90 e0       	ldi	r25, 0x00	; 0
    37bc:	0e 94 be 48 	call	0x917c	; 0x917c <__itoa_ncheck>

        char buff[20];
        itoa(aktuellesGetraenk_file->file, (char *)buff, 10);
        strcat((char *) buff,(const char *)".txt");
    37c0:	d8 01       	movw	r26, r16
    37c2:	0d 90       	ld	r0, X+
    37c4:	00 20       	and	r0, r0
    37c6:	e9 f7       	brne	.-6      	; 0x37c2 <check_loeschanzeige+0x9e>
    37c8:	11 97       	sbiw	r26, 0x01	; 1
    37ca:	85 e0       	ldi	r24, 0x05	; 5
    37cc:	e0 ee       	ldi	r30, 0xE0	; 224
    37ce:	f4 e0       	ldi	r31, 0x04	; 4
    37d0:	01 90       	ld	r0, Z+
    37d2:	0d 92       	st	X+, r0
    37d4:	8a 95       	dec	r24
    37d6:	e1 f7       	brne	.-8      	; 0x37d0 <check_loeschanzeige+0xac>

        deleteFile((unsigned char *)buff);
    37d8:	c8 01       	movw	r24, r16
    37da:	0e 94 21 34 	call	0x6842	; 0x6842 <deleteFile>

        aktuellesGetraenk_file = aktuellesGetraenk_file->next;
    37de:	e0 91 77 0a 	lds	r30, 0x0A77	; 0x800a77 <aktuellesGetraenk_file>
    37e2:	f0 91 78 0a 	lds	r31, 0x0A78	; 0x800a78 <aktuellesGetraenk_file+0x1>
    37e6:	01 80       	ldd	r0, Z+1	; 0x01
    37e8:	f2 81       	ldd	r31, Z+2	; 0x02
    37ea:	e0 2d       	mov	r30, r0
    37ec:	f0 93 78 0a 	sts	0x0A78, r31	; 0x800a78 <aktuellesGetraenk_file+0x1>
    37f0:	e0 93 77 0a 	sts	0x0A77, r30	; 0x800a77 <aktuellesGetraenk_file>
        lese_textfile_in_getraenk(aktuellesGetraenk_file->file);
    37f4:	80 81       	ld	r24, Z
    37f6:	0e 94 d7 06 	call	0xdae	; 0xdae <lese_textfile_in_getraenk>
        nextion_change_page(STARTANZEIGE);
    37fa:	81 e0       	ldi	r24, 0x01	; 1
    37fc:	0e 94 fd 2b 	call	0x57fa	; 0x57fa <nextion_change_page>
        setze_startanzeige(aktuellesGetraenk);
    3800:	80 91 0b 13 	lds	r24, 0x130B	; 0x80130b <aktuellesGetraenk>
    3804:	90 91 0c 13 	lds	r25, 0x130C	; 0x80130c <aktuellesGetraenk+0x1>
    3808:	0e 94 0c 04 	call	0x818	; 0x818 <setze_startanzeige>
        break;
    380c:	09 c0       	rjmp	.+18     	; 0x3820 <check_loeschanzeige+0xfc>

    case NEIN:
        /*      0x02 = 0b02
                    - Startanzeige setzen
        */
        nextion_change_page(STARTANZEIGE);
    380e:	81 e0       	ldi	r24, 0x01	; 1
    3810:	0e 94 fd 2b 	call	0x57fa	; 0x57fa <nextion_change_page>
        setze_startanzeige(aktuellesGetraenk);
    3814:	80 91 0b 13 	lds	r24, 0x130B	; 0x80130b <aktuellesGetraenk>
    3818:	90 91 0c 13 	lds	r25, 0x130C	; 0x80130c <aktuellesGetraenk+0x1>
    381c:	0e 94 0c 04 	call	0x818	; 0x818 <setze_startanzeige>
        break;
    }
}
    3820:	64 96       	adiw	r28, 0x14	; 20
    3822:	0f b6       	in	r0, 0x3f	; 63
    3824:	f8 94       	cli
    3826:	de bf       	out	0x3e, r29	; 62
    3828:	0f be       	out	0x3f, r0	; 63
    382a:	cd bf       	out	0x3d, r28	; 61
    382c:	df 91       	pop	r29
    382e:	cf 91       	pop	r28
    3830:	1f 91       	pop	r17
    3832:	0f 91       	pop	r16
    3834:	08 95       	ret

00003836 <check_posanzeige>:

void check_posanzeige(uint8_t button)
{
    i_Liste = 0;
    3836:	10 92 d1 12 	sts	0x12D1, r1	; 0x8012d1 <i_Liste>
    switch (button)
    383a:	90 e0       	ldi	r25, 0x00	; 0
    383c:	fc 01       	movw	r30, r24
    383e:	31 97       	sbiw	r30, 0x01	; 1
    3840:	ed 30       	cpi	r30, 0x0D	; 13
    3842:	f1 05       	cpc	r31, r1
    3844:	08 f0       	brcs	.+2      	; 0x3848 <check_posanzeige+0x12>
    3846:	da c0       	rjmp	.+436    	; 0x39fc <check_posanzeige+0x1c6>
    3848:	88 27       	eor	r24, r24
    384a:	ef 51       	subi	r30, 0x1F	; 31
    384c:	ff 4f       	sbci	r31, 0xFF	; 255
    384e:	8f 4f       	sbci	r24, 0xFF	; 255
    3850:	0c 94 1d 46 	jmp	0x8c3a	; 0x8c3a <__tablejump2__>
        /*      0x01 = 0b01
                    - Wechsle auf Flssigkeitsanzeige1
                    - Auf ausgewhlte Position zeigen (Pos 0 in Liste), damit die Zutat darin abgelegt werden kann
                    - Liste erstellen fr Zutatenauswahl, welche in die Maschine gestellt wird
        */
        nextion_change_page(FLUESSANZEIGE1);
    3854:	84 e1       	ldi	r24, 0x14	; 20
    3856:	0e 94 fd 2b 	call	0x57fa	; 0x57fa <nextion_change_page>
        setze_aktuelle_Zutat_in_Maschine_prev(0);
    385a:	80 e0       	ldi	r24, 0x00	; 0
    385c:	0e 94 5c 0d 	call	0x1ab8	; 0x1ab8 <setze_aktuelle_Zutat_in_Maschine_prev>
        erstelle_Liste_Zutat_Pos("fluessigkeit");
    3860:	89 eb       	ldi	r24, 0xB9	; 185
    3862:	95 e0       	ldi	r25, 0x05	; 5
    3864:	0c 94 dc 0b 	jmp	0x17b8	; 0x17b8 <erstelle_Liste_Zutat_Pos>
        break;
    3868:	08 95       	ret
        /*      0x02 = 0b02
                    - Wechsle auf Flssigkeitsanzeige1
                    - Auf ausgewhlte Position zeigen (Pos 1 in Liste), damit die Zutat darin abgelegt werden kann
                    - Liste erstellen fr Zutatenauswahl, welche in die Maschine gestellt wird
        */
        nextion_change_page(FLUESSANZEIGE1);
    386a:	84 e1       	ldi	r24, 0x14	; 20
    386c:	0e 94 fd 2b 	call	0x57fa	; 0x57fa <nextion_change_page>
        setze_aktuelle_Zutat_in_Maschine_prev(1);
    3870:	81 e0       	ldi	r24, 0x01	; 1
    3872:	0e 94 5c 0d 	call	0x1ab8	; 0x1ab8 <setze_aktuelle_Zutat_in_Maschine_prev>
        erstelle_Liste_Zutat_Pos("fluessigkeit");
    3876:	89 eb       	ldi	r24, 0xB9	; 185
    3878:	95 e0       	ldi	r25, 0x05	; 5
    387a:	0c 94 dc 0b 	jmp	0x17b8	; 0x17b8 <erstelle_Liste_Zutat_Pos>
        break;
    387e:	08 95       	ret
        /*      0x03 = 0b03
                    - Wechsle auf Flssigkeitsanzeige1
                    - Auf ausgewhlte Position zeigen (Pos 2 in Liste), damit die Zutat darin abgelegt werden kann
                    - Liste erstellen fr Zutatenauswahl, welche in die Maschine gestellt wird
        */
        nextion_change_page(FLUESSANZEIGE1);
    3880:	84 e1       	ldi	r24, 0x14	; 20
    3882:	0e 94 fd 2b 	call	0x57fa	; 0x57fa <nextion_change_page>
        setze_aktuelle_Zutat_in_Maschine_prev(2);
    3886:	82 e0       	ldi	r24, 0x02	; 2
    3888:	0e 94 5c 0d 	call	0x1ab8	; 0x1ab8 <setze_aktuelle_Zutat_in_Maschine_prev>
        erstelle_Liste_Zutat_Pos("fluessigkeit");
    388c:	89 eb       	ldi	r24, 0xB9	; 185
    388e:	95 e0       	ldi	r25, 0x05	; 5
    3890:	0c 94 dc 0b 	jmp	0x17b8	; 0x17b8 <erstelle_Liste_Zutat_Pos>
        break;
    3894:	08 95       	ret
        /*      0x04 = 0b04
                    - Wechsle auf Flssigkeitsanzeige1
                    - Auf ausgewhlte Position zeigen (Pos 3 in Liste), damit die Zutat darin abgelegt werden kann
                    - Liste erstellen fr Zutatenauswahl, welche in die Maschine gestellt wird
        */
        nextion_change_page(FLUESSANZEIGE1);
    3896:	84 e1       	ldi	r24, 0x14	; 20
    3898:	0e 94 fd 2b 	call	0x57fa	; 0x57fa <nextion_change_page>
        setze_aktuelle_Zutat_in_Maschine_prev(3);
    389c:	83 e0       	ldi	r24, 0x03	; 3
    389e:	0e 94 5c 0d 	call	0x1ab8	; 0x1ab8 <setze_aktuelle_Zutat_in_Maschine_prev>
        erstelle_Liste_Zutat_Pos("fluessigkeit");
    38a2:	89 eb       	ldi	r24, 0xB9	; 185
    38a4:	95 e0       	ldi	r25, 0x05	; 5
    38a6:	0c 94 dc 0b 	jmp	0x17b8	; 0x17b8 <erstelle_Liste_Zutat_Pos>
        break;
    38aa:	08 95       	ret
        /*      0x05 = 0b05
                    - Wechsle auf Flssigkeitsanzeige1
                    - Auf ausgewhlte Position zeigen (Pos 4 in Liste), damit die Zutat darin abgelegt werden kann
                    - Liste erstellen fr Zutatenauswahl, welche in die Maschine gestellt wird
        */
        nextion_change_page(FLUESSANZEIGE1);
    38ac:	84 e1       	ldi	r24, 0x14	; 20
    38ae:	0e 94 fd 2b 	call	0x57fa	; 0x57fa <nextion_change_page>
        setze_aktuelle_Zutat_in_Maschine_prev(4);
    38b2:	84 e0       	ldi	r24, 0x04	; 4
    38b4:	0e 94 5c 0d 	call	0x1ab8	; 0x1ab8 <setze_aktuelle_Zutat_in_Maschine_prev>
        erstelle_Liste_Zutat_Pos("fluessigkeit");
    38b8:	89 eb       	ldi	r24, 0xB9	; 185
    38ba:	95 e0       	ldi	r25, 0x05	; 5
    38bc:	0c 94 dc 0b 	jmp	0x17b8	; 0x17b8 <erstelle_Liste_Zutat_Pos>
        break;
    38c0:	08 95       	ret
        /*      0x06 = 0b06
                    - Wechsle auf Flssigkeitsanzeige1
                    - Auf ausgewhlte Position zeigen (Pos 5 in Liste), damit die Zutat darin abgelegt werden kann
                    - Liste erstellen fr Zutatenauswahl, welche in die Maschine gestellt wird
        */
        nextion_change_page(FLUESSANZEIGE1);
    38c2:	84 e1       	ldi	r24, 0x14	; 20
    38c4:	0e 94 fd 2b 	call	0x57fa	; 0x57fa <nextion_change_page>
        setze_aktuelle_Zutat_in_Maschine_prev(5);
    38c8:	85 e0       	ldi	r24, 0x05	; 5
    38ca:	0e 94 5c 0d 	call	0x1ab8	; 0x1ab8 <setze_aktuelle_Zutat_in_Maschine_prev>
        erstelle_Liste_Zutat_Pos("fluessigkeit");
    38ce:	89 eb       	ldi	r24, 0xB9	; 185
    38d0:	95 e0       	ldi	r25, 0x05	; 5
    38d2:	0c 94 dc 0b 	jmp	0x17b8	; 0x17b8 <erstelle_Liste_Zutat_Pos>
        break;
    38d6:	08 95       	ret
        /*      0x07 = 0b07
                    - Wechsle auf Flssigkeitsanzeige1
                    - Auf ausgewhlte Position zeigen (Pos 6 in Liste), damit die Zutat darin abgelegt werden kann
                    - Liste erstellen fr Zutatenauswahl, welche in die Maschine gestellt wird
        */
        nextion_change_page(FLUESSANZEIGE1);
    38d8:	84 e1       	ldi	r24, 0x14	; 20
    38da:	0e 94 fd 2b 	call	0x57fa	; 0x57fa <nextion_change_page>
        setze_aktuelle_Zutat_in_Maschine_prev(6);
    38de:	86 e0       	ldi	r24, 0x06	; 6
    38e0:	0e 94 5c 0d 	call	0x1ab8	; 0x1ab8 <setze_aktuelle_Zutat_in_Maschine_prev>
        erstelle_Liste_Zutat_Pos("fluessigkeit");
    38e4:	89 eb       	ldi	r24, 0xB9	; 185
    38e6:	95 e0       	ldi	r25, 0x05	; 5
    38e8:	0c 94 dc 0b 	jmp	0x17b8	; 0x17b8 <erstelle_Liste_Zutat_Pos>
        break;
    38ec:	08 95       	ret
        /*      0x08 = 0b08
                    - Wechsle auf Flssigkeitsanzeige1
                    - Auf ausgewhlte Position zeigen (Pos 7 in Liste), damit die Zutat darin abgelegt werden kann
                    - Liste erstellen fr Zutatenauswahl, welche in die Maschine gestellt wird
        */
        nextion_change_page(FLUESSANZEIGE1);
    38ee:	84 e1       	ldi	r24, 0x14	; 20
    38f0:	0e 94 fd 2b 	call	0x57fa	; 0x57fa <nextion_change_page>
        setze_aktuelle_Zutat_in_Maschine_prev(7);
    38f4:	87 e0       	ldi	r24, 0x07	; 7
    38f6:	0e 94 5c 0d 	call	0x1ab8	; 0x1ab8 <setze_aktuelle_Zutat_in_Maschine_prev>
        erstelle_Liste_Zutat_Pos("fluessigkeit");
    38fa:	89 eb       	ldi	r24, 0xB9	; 185
    38fc:	95 e0       	ldi	r25, 0x05	; 5
    38fe:	0c 94 dc 0b 	jmp	0x17b8	; 0x17b8 <erstelle_Liste_Zutat_Pos>
        break;
    3902:	08 95       	ret
        /*      0x09 = 0b09
                    - Wechsle auf Flssigkeitsanzeige1
                    - Auf ausgewhlte Position zeigen (Pos 8 in Liste), damit die Zutat darin abgelegt werden kann
                    - Liste erstellen fr Zutatenauswahl, welche in die Maschine gestellt wird
        */
        nextion_change_page(FLUESSANZEIGE1);
    3904:	84 e1       	ldi	r24, 0x14	; 20
    3906:	0e 94 fd 2b 	call	0x57fa	; 0x57fa <nextion_change_page>
        setze_aktuelle_Zutat_in_Maschine_prev(8);
    390a:	88 e0       	ldi	r24, 0x08	; 8
    390c:	0e 94 5c 0d 	call	0x1ab8	; 0x1ab8 <setze_aktuelle_Zutat_in_Maschine_prev>
        erstelle_Liste_Zutat_Pos("fluessigkeit");
    3910:	89 eb       	ldi	r24, 0xB9	; 185
    3912:	95 e0       	ldi	r25, 0x05	; 5
    3914:	0c 94 dc 0b 	jmp	0x17b8	; 0x17b8 <erstelle_Liste_Zutat_Pos>
        break;
    3918:	08 95       	ret
        /*      0x0A = 0b10
                    - Wechsle auf Flssigkeitsanzeige1
                    - Auf ausgewhlte Position zeigen (Pos 9 in Liste), damit die Zutat darin abgelegt werden kann
                    - Liste erstellen fr Zutatenauswahl, welche in die Maschine gestellt wird
        */
        nextion_change_page(FLUESSANZEIGE1);
    391a:	84 e1       	ldi	r24, 0x14	; 20
    391c:	0e 94 fd 2b 	call	0x57fa	; 0x57fa <nextion_change_page>
        setze_aktuelle_Zutat_in_Maschine_prev(9);
    3920:	89 e0       	ldi	r24, 0x09	; 9
    3922:	0e 94 5c 0d 	call	0x1ab8	; 0x1ab8 <setze_aktuelle_Zutat_in_Maschine_prev>
        erstelle_Liste_Zutat_Pos("fluessigkeit");
    3926:	89 eb       	ldi	r24, 0xB9	; 185
    3928:	95 e0       	ldi	r25, 0x05	; 5
    392a:	0c 94 dc 0b 	jmp	0x17b8	; 0x17b8 <erstelle_Liste_Zutat_Pos>
        break;
    392e:	08 95       	ret
        /*      0x0B = 0b11
                    - Wechsle auf Flssigkeitsanzeige1
                    - Auf ausgewhlte Position zeigen (Pos 10 in Liste), damit die Zutat darin abgelegt werden kann
                    - Liste erstellen fr Zutatenauswahl, welche in die Maschine gestellt wird
        */
        nextion_change_page(FLUESSANZEIGE1);
    3930:	84 e1       	ldi	r24, 0x14	; 20
    3932:	0e 94 fd 2b 	call	0x57fa	; 0x57fa <nextion_change_page>
        setze_aktuelle_Zutat_in_Maschine_prev(10);
    3936:	8a e0       	ldi	r24, 0x0A	; 10
    3938:	0e 94 5c 0d 	call	0x1ab8	; 0x1ab8 <setze_aktuelle_Zutat_in_Maschine_prev>
        erstelle_Liste_Zutat_Pos("fluessigkeit");
    393c:	89 eb       	ldi	r24, 0xB9	; 185
    393e:	95 e0       	ldi	r25, 0x05	; 5
    3940:	0c 94 dc 0b 	jmp	0x17b8	; 0x17b8 <erstelle_Liste_Zutat_Pos>
        break;
    3944:	08 95       	ret
        /*      0x0C = 0b12
                    - Wechsle auf Flssigkeitsanzeige1
                    - Auf ausgewhlte Position zeigen (Pos 11 in Liste), damit die Zutat darin abgelegt werden kann
                    - Liste erstellen fr Zutatenauswahl, welche in die Maschine gestellt wird
        */
        nextion_change_page(FLUESSANZEIGE1);
    3946:	84 e1       	ldi	r24, 0x14	; 20
    3948:	0e 94 fd 2b 	call	0x57fa	; 0x57fa <nextion_change_page>
        setze_aktuelle_Zutat_in_Maschine_prev(11);
    394c:	8b e0       	ldi	r24, 0x0B	; 11
    394e:	0e 94 5c 0d 	call	0x1ab8	; 0x1ab8 <setze_aktuelle_Zutat_in_Maschine_prev>
        erstelle_Liste_Zutat_Pos("fluessigkeit");
    3952:	89 eb       	ldi	r24, 0xB9	; 185
    3954:	95 e0       	ldi	r25, 0x05	; 5
    3956:	0c 94 dc 0b 	jmp	0x17b8	; 0x17b8 <erstelle_Liste_Zutat_Pos>
        break;
    395a:	08 95       	ret

    case ZURUECK3:
        /*      0x0D = 0b13
                    - Wechsle auf Menuanzeige
        */
        nextion_change_page(RFIDFEHLER);
    395c:	89 e1       	ldi	r24, 0x19	; 25
    395e:	0e 94 fd 2b 	call	0x57fa	; 0x57fa <nextion_change_page>
        nextion_setText("fehlertxt", "Erstelle neue Cocktailliste.\\r Bitte warten.");
    3962:	66 ec       	ldi	r22, 0xC6	; 198
    3964:	75 e0       	ldi	r23, 0x05	; 5
    3966:	8f ed       	ldi	r24, 0xDF	; 223
    3968:	93 e0       	ldi	r25, 0x03	; 3
    396a:	0e 94 1c 2c 	call	0x5838	; 0x5838 <nextion_setText>
            current = next;
        }

        /* deref head_ref to affect the real head back
            in the caller. */
        head_getraenk_file = NULL;
    396e:	10 92 7a 0a 	sts	0x0A7A, r1	; 0x800a7a <head_getraenk_file+0x1>
    3972:	10 92 79 0a 	sts	0x0A79, r1	; 0x800a79 <head_getraenk_file>
        tail_getraenk_file = NULL;
    3976:	10 92 38 0a 	sts	0x0A38, r1	; 0x800a38 <tail_getraenk_file+0x1>
    397a:	10 92 37 0a 	sts	0x0A37, r1	; 0x800a37 <tail_getraenk_file>

        aktuellesGetraenk_file_2 = tail_getraenk_file_2;
    397e:	80 91 75 0a 	lds	r24, 0x0A75	; 0x800a75 <tail_getraenk_file_2>
    3982:	90 91 76 0a 	lds	r25, 0x0A76	; 0x800a76 <tail_getraenk_file_2+0x1>
    3986:	90 93 84 0a 	sts	0x0A84, r25	; 0x800a84 <aktuellesGetraenk_file_2+0x1>
    398a:	80 93 83 0a 	sts	0x0A83, r24	; 0x800a83 <aktuellesGetraenk_file_2>
        do
        {
            if(check_existence(aktuellesGetraenk_file_2->file))
    398e:	e0 91 83 0a 	lds	r30, 0x0A83	; 0x800a83 <aktuellesGetraenk_file_2>
    3992:	f0 91 84 0a 	lds	r31, 0x0A84	; 0x800a84 <aktuellesGetraenk_file_2+0x1>
    3996:	80 81       	ld	r24, Z
    3998:	bd d7       	rcall	.+3962   	; 0x4914 <check_existence>
    399a:	88 23       	and	r24, r24
    399c:	81 f0       	breq	.+32     	; 0x39be <check_posanzeige+0x188>
            {
                tmp = create_new_getraenk_file(aktuellesGetraenk_file_2->file);
    399e:	e0 91 83 0a 	lds	r30, 0x0A83	; 0x800a83 <aktuellesGetraenk_file_2>
    39a2:	f0 91 84 0a 	lds	r31, 0x0A84	; 0x800a84 <aktuellesGetraenk_file_2+0x1>
    39a6:	80 81       	ld	r24, Z
    39a8:	0e 94 5a 25 	call	0x4ab4	; 0x4ab4 <create_new_getraenk_file>
                head_getraenk_file = insert_file_at_head(&head_getraenk_file, tmp);
    39ac:	bc 01       	movw	r22, r24
    39ae:	89 e7       	ldi	r24, 0x79	; 121
    39b0:	9a e0       	ldi	r25, 0x0A	; 10
    39b2:	0e 94 66 25 	call	0x4acc	; 0x4acc <insert_file_at_head>
    39b6:	90 93 7a 0a 	sts	0x0A7A, r25	; 0x800a7a <head_getraenk_file+0x1>
    39ba:	80 93 79 0a 	sts	0x0A79, r24	; 0x800a79 <head_getraenk_file>
            }
            aktuellesGetraenk_file_2 = aktuellesGetraenk_file_2->prev;
    39be:	e0 91 83 0a 	lds	r30, 0x0A83	; 0x800a83 <aktuellesGetraenk_file_2>
    39c2:	f0 91 84 0a 	lds	r31, 0x0A84	; 0x800a84 <aktuellesGetraenk_file_2+0x1>
    39c6:	83 81       	ldd	r24, Z+3	; 0x03
    39c8:	94 81       	ldd	r25, Z+4	; 0x04
    39ca:	90 93 84 0a 	sts	0x0A84, r25	; 0x800a84 <aktuellesGetraenk_file_2+0x1>
    39ce:	80 93 83 0a 	sts	0x0A83, r24	; 0x800a83 <aktuellesGetraenk_file_2>
        } while (aktuellesGetraenk_file_2 != tail_getraenk_file_2);
    39d2:	20 91 75 0a 	lds	r18, 0x0A75	; 0x800a75 <tail_getraenk_file_2>
    39d6:	30 91 76 0a 	lds	r19, 0x0A76	; 0x800a76 <tail_getraenk_file_2+0x1>
    39da:	82 17       	cp	r24, r18
    39dc:	93 07       	cpc	r25, r19
    39de:	b9 f6       	brne	.-82     	; 0x398e <check_posanzeige+0x158>



        aktuellesGetraenk_file = tail_getraenk_file;
    39e0:	e0 91 37 0a 	lds	r30, 0x0A37	; 0x800a37 <tail_getraenk_file>
    39e4:	f0 91 38 0a 	lds	r31, 0x0A38	; 0x800a38 <tail_getraenk_file+0x1>
    39e8:	f0 93 78 0a 	sts	0x0A78, r31	; 0x800a78 <aktuellesGetraenk_file+0x1>
    39ec:	e0 93 77 0a 	sts	0x0A77, r30	; 0x800a77 <aktuellesGetraenk_file>
        lese_textfile_in_getraenk(aktuellesGetraenk_file->file);
    39f0:	80 81       	ld	r24, Z
    39f2:	0e 94 d7 06 	call	0xdae	; 0xdae <lese_textfile_in_getraenk>
        nextion_change_page(MENUANZEIGE);
    39f6:	87 e0       	ldi	r24, 0x07	; 7
    39f8:	0c 94 fd 2b 	jmp	0x57fa	; 0x57fa <nextion_change_page>
    39fc:	08 95       	ret

000039fe <check_fluessanzeige1>:
    }
}

void check_fluessanzeige1(uint8_t button)
{
    switch (button)
    39fe:	90 e0       	ldi	r25, 0x00	; 0
    3a00:	fc 01       	movw	r30, r24
    3a02:	31 97       	sbiw	r30, 0x01	; 1
    3a04:	eb 30       	cpi	r30, 0x0B	; 11
    3a06:	f1 05       	cpc	r31, r1
    3a08:	08 f0       	brcs	.+2      	; 0x3a0c <check_fluessanzeige1+0xe>
    3a0a:	5a c0       	rjmp	.+180    	; 0x3ac0 <check_fluessanzeige1+0xc2>
    3a0c:	88 27       	eor	r24, r24
    3a0e:	e2 51       	subi	r30, 0x12	; 18
    3a10:	ff 4f       	sbci	r31, 0xFF	; 255
    3a12:	8f 4f       	sbci	r24, 0xFF	; 255
    3a14:	0c 94 1d 46 	jmp	0x8c3a	; 0x8c3a <__tablejump2__>
    {
    case FLUESSIGKEIT1:
        /*      0x01 = 0b01
                    - Lese File an Stelle 0 der Liste und setze Status VOLL
        */
        setze_Fluessgkeit_in_Position(0, VOLL);
    3a18:	61 e0       	ldi	r22, 0x01	; 1
    3a1a:	80 e0       	ldi	r24, 0x00	; 0
    3a1c:	0c 94 77 0d 	jmp	0x1aee	; 0x1aee <setze_Fluessgkeit_in_Position>
        break;
    3a20:	08 95       	ret

    case FLUESSIGKEIT2:
        /*      0x02 = 0b02
                    - Lese File an Stelle 1 der Liste und setze Status VOLL
        */
        setze_Fluessgkeit_in_Position(1, VOLL);
    3a22:	61 e0       	ldi	r22, 0x01	; 1
    3a24:	81 e0       	ldi	r24, 0x01	; 1
    3a26:	0c 94 77 0d 	jmp	0x1aee	; 0x1aee <setze_Fluessgkeit_in_Position>
        break;
    3a2a:	08 95       	ret

    case FLUESSIGKEIT3:
        /*      0x03 = 0b03
                    - Lese File an Stelle 2 der Liste und setze Status VOLL
        */
        setze_Fluessgkeit_in_Position(2, VOLL);
    3a2c:	61 e0       	ldi	r22, 0x01	; 1
    3a2e:	82 e0       	ldi	r24, 0x02	; 2
    3a30:	0c 94 77 0d 	jmp	0x1aee	; 0x1aee <setze_Fluessgkeit_in_Position>
        break;
    3a34:	08 95       	ret

    case FLUESSIGKEIT4:
        /*      0x04 = 0b04
                    - Lese File an Stelle 3 der Liste und setze Status VOLL
        */
        setze_Fluessgkeit_in_Position(3, VOLL);
    3a36:	61 e0       	ldi	r22, 0x01	; 1
    3a38:	83 e0       	ldi	r24, 0x03	; 3
    3a3a:	0c 94 77 0d 	jmp	0x1aee	; 0x1aee <setze_Fluessgkeit_in_Position>
        break;
    3a3e:	08 95       	ret

    case FLUESSIGKEIT5:
        /*      0x05 = 0b05
                    - Lese File an Stelle 4 der Liste und setze Status VOLL
        */
        setze_Fluessgkeit_in_Position(4, VOLL);
    3a40:	61 e0       	ldi	r22, 0x01	; 1
    3a42:	84 e0       	ldi	r24, 0x04	; 4
    3a44:	0c 94 77 0d 	jmp	0x1aee	; 0x1aee <setze_Fluessgkeit_in_Position>
        break;
    3a48:	08 95       	ret

    case FLUESSIGKEIT6:
        /*      0x06 = 0b06
                    - Lese File an Stelle 5 der Liste und setze Status VOLL
        */
        setze_Fluessgkeit_in_Position(5, VOLL);
    3a4a:	61 e0       	ldi	r22, 0x01	; 1
    3a4c:	85 e0       	ldi	r24, 0x05	; 5
    3a4e:	0c 94 77 0d 	jmp	0x1aee	; 0x1aee <setze_Fluessgkeit_in_Position>
        break;
    3a52:	08 95       	ret
    case RAUFLIST5:
        /*      0x07 = 0b07
                    - Untere Blockierung aufheben
                    - Gehe Liste um 6 Getrnke hoch, falls nicht schon am oberen Ende
                    - Schreibe Cocktailnamen in die Liste*/
        block_list_runter = 0;
    3a54:	10 92 80 0a 	sts	0x0A80, r1	; 0x800a80 <block_list_runter>
        if (!block_list_hoch)
    3a58:	80 91 9b 0e 	lds	r24, 0x0E9B	; 0x800e9b <block_list_hoch>
    3a5c:	81 11       	cpse	r24, r1
    3a5e:	30 c0       	rjmp	.+96     	; 0x3ac0 <check_fluessanzeige1+0xc2>
        {
            i_Liste -= 6;
    3a60:	80 91 d1 12 	lds	r24, 0x12D1	; 0x8012d1 <i_Liste>
    3a64:	86 50       	subi	r24, 0x06	; 6
    3a66:	80 93 d1 12 	sts	0x12D1, r24	; 0x8012d1 <i_Liste>
            erstelle_Liste_Zutat_Pos("fluessigkeit");
    3a6a:	89 eb       	ldi	r24, 0xB9	; 185
    3a6c:	95 e0       	ldi	r25, 0x05	; 5
    3a6e:	0c 94 dc 0b 	jmp	0x17b8	; 0x17b8 <erstelle_Liste_Zutat_Pos>
    3a72:	08 95       	ret
        /*      0x08 = 0b08
                    - Obere Blockierung aufheben
                    - Gehe Liste um 6 Getrnke runter, falls nicht schon am unteren Ende
                    - Schreibe Cocktailnamen in die Liste
        */
        block_list_hoch = 0;
    3a74:	10 92 9b 0e 	sts	0x0E9B, r1	; 0x800e9b <block_list_hoch>
        if (!block_list_runter)
    3a78:	80 91 80 0a 	lds	r24, 0x0A80	; 0x800a80 <block_list_runter>
    3a7c:	81 11       	cpse	r24, r1
    3a7e:	20 c0       	rjmp	.+64     	; 0x3ac0 <check_fluessanzeige1+0xc2>
        {
            i_Liste += 6;
    3a80:	80 91 d1 12 	lds	r24, 0x12D1	; 0x8012d1 <i_Liste>
    3a84:	8a 5f       	subi	r24, 0xFA	; 250
    3a86:	80 93 d1 12 	sts	0x12D1, r24	; 0x8012d1 <i_Liste>
            erstelle_Liste_Zutat_Pos("fluessigkeit");
    3a8a:	89 eb       	ldi	r24, 0xB9	; 185
    3a8c:	95 e0       	ldi	r25, 0x05	; 5
    3a8e:	0c 94 dc 0b 	jmp	0x17b8	; 0x17b8 <erstelle_Liste_Zutat_Pos>
    3a92:	08 95       	ret
    case NEUEFLUESSIGKEIT:
        /*      0x09 = 0b09
                    - Fluessanzeige2 setzen
                    - i_Liste fr Listenabschnitt auf 0 setzen
        */
        nextion_change_page(FLUESSANZEIGE2);
    3a94:	85 e1       	ldi	r24, 0x15	; 21
    3a96:	0e 94 fd 2b 	call	0x57fa	; 0x57fa <nextion_change_page>
        i_Liste = 0;
    3a9a:	10 92 d1 12 	sts	0x12D1, r1	; 0x8012d1 <i_Liste>
        break;
    3a9e:	08 95       	ret
    case KEINEFLUESSIGKEIT:
        /*      0x0A = 0b10
                    - Flssigkeit ausserhalb des Listenbereichs bedeutet keine Flssigkeit, deshalb 6
                    - Der Status der Flssigkeit ist KEINGETRAENK
        */
        setze_Fluessgkeit_in_Position(6, KEINGETRAENK);
    3aa0:	60 e0       	ldi	r22, 0x00	; 0
    3aa2:	86 e0       	ldi	r24, 0x06	; 6
    3aa4:	0c 94 77 0d 	jmp	0x1aee	; 0x1aee <setze_Fluessgkeit_in_Position>
        break;
    3aa8:	08 95       	ret
        /*      0x0B = 0b11
                    - Posanzeige setzen
                    - Frbe die Nummern der Positionen gemss Status
                    - i_Liste fr Listenabschnitt auf 0 setzen
        */
        i_Liste = 0;
    3aaa:	10 92 d1 12 	sts	0x12D1, r1	; 0x8012d1 <i_Liste>
        block_list_hoch = 0;
    3aae:	10 92 9b 0e 	sts	0x0E9B, r1	; 0x800e9b <block_list_hoch>
        block_list_runter = 0;
    3ab2:	10 92 80 0a 	sts	0x0A80, r1	; 0x800a80 <block_list_runter>
        nextion_change_page(POSANZEIGE);
    3ab6:	83 e1       	ldi	r24, 0x13	; 19
    3ab8:	0e 94 fd 2b 	call	0x57fa	; 0x57fa <nextion_change_page>
        setze_Posanzeige_Rot_Gruen();
    3abc:	0c 94 d6 0c 	jmp	0x19ac	; 0x19ac <setze_Posanzeige_Rot_Gruen>
    3ac0:	08 95       	ret

00003ac2 <check_fluessanzeige2>:
        Seite Erstanzeige1. Bis auf den Weiter-Button haben alle die selbe
        Funktion. Deswegen werden auch die selben ID's gesendet, wie auf der
        Erstanzeige1-seite und somit auch diese schon geschriebenen
        Funktionen. Der Weiter-Button wird im folgenden aufgefhrt.
    */
    switch (button)
    3ac2:	81 30       	cpi	r24, 0x01	; 1
    3ac4:	69 f5       	brne	.+90     	; 0x3b20 <check_fluessanzeige2+0x5e>
        /*      0x01 = 0b01
                    - FLUESSANZEIGE3 setzen
                    - Name in aktuellesGetraenk schreiben
                    - i_Liste fr Listenabschnitt auf 0 setzen
        */
        if (strlen(buff_name) == 0)
    3ac6:	80 91 aa 0f 	lds	r24, 0x0FAA	; 0x800faa <buff_name>
    3aca:	81 11       	cpse	r24, r1
    3acc:	07 c0       	rjmp	.+14     	; 0x3adc <check_fluessanzeige2+0x1a>
        {
	        nextion_setText("neuefluesstxt", "Bitte mindestens ein Zeichen eigeben.");
    3ace:	63 ef       	ldi	r22, 0xF3	; 243
    3ad0:	75 e0       	ldi	r23, 0x05	; 5
    3ad2:	89 e1       	ldi	r24, 0x19	; 25
    3ad4:	96 e0       	ldi	r25, 0x06	; 6
    3ad6:	0c 94 1c 2c 	jmp	0x5838	; 0x5838 <nextion_setText>
    3ada:	08 95       	ret
        }
        else
        {
	        nextion_change_page(FLUESSANZEIGE4-1);
    3adc:	8b e1       	ldi	r24, 0x1B	; 27
    3ade:	0e 94 fd 2b 	call	0x57fa	; 0x57fa <nextion_change_page>
	        uint8_t len = strlen((const char *)buff_name);
    3ae2:	ea ea       	ldi	r30, 0xAA	; 170
    3ae4:	ff e0       	ldi	r31, 0x0F	; 15
    3ae6:	01 90       	ld	r0, Z+
    3ae8:	00 20       	and	r0, r0
    3aea:	e9 f7       	brne	.-6      	; 0x3ae6 <check_fluessanzeige2+0x24>
    3aec:	31 97       	sbiw	r30, 0x01	; 1
    3aee:	9f 01       	movw	r18, r30
    3af0:	2a 5a       	subi	r18, 0xAA	; 170
    3af2:	3f 40       	sbci	r19, 0x0F	; 15
	        for (int count = 0 ; count < len + 1; count++)
    3af4:	33 27       	eor	r19, r19
    3af6:	2f 5f       	subi	r18, 0xFF	; 255
    3af8:	3f 4f       	sbci	r19, 0xFF	; 255
    3afa:	aa ea       	ldi	r26, 0xAA	; 170
    3afc:	bf e0       	ldi	r27, 0x0F	; 15
    3afe:	80 e0       	ldi	r24, 0x00	; 0
    3b00:	90 e0       	ldi	r25, 0x00	; 0
	        {
	            *(aktuelle_zutat->name + count) = *(buff_name + count);
    3b02:	4d 91       	ld	r20, X+
    3b04:	e0 91 50 0a 	lds	r30, 0x0A50	; 0x800a50 <aktuelle_zutat>
    3b08:	f0 91 51 0a 	lds	r31, 0x0A51	; 0x800a51 <aktuelle_zutat+0x1>
    3b0c:	01 90       	ld	r0, Z+
    3b0e:	f0 81       	ld	r31, Z
    3b10:	e0 2d       	mov	r30, r0
    3b12:	e8 0f       	add	r30, r24
    3b14:	f9 1f       	adc	r31, r25
    3b16:	40 83       	st	Z, r20
        }
        else
        {
	        nextion_change_page(FLUESSANZEIGE4-1);
	        uint8_t len = strlen((const char *)buff_name);
	        for (int count = 0 ; count < len + 1; count++)
    3b18:	01 96       	adiw	r24, 0x01	; 1
    3b1a:	82 17       	cp	r24, r18
    3b1c:	93 07       	cpc	r25, r19
    3b1e:	8c f3       	brlt	.-30     	; 0x3b02 <check_fluessanzeige2+0x40>
    3b20:	08 95       	ret

00003b22 <check_fluessanzeige3>:
        break;
    }
}

void check_fluessanzeige3(uint8_t button)
{
    3b22:	bf 92       	push	r11
    3b24:	cf 92       	push	r12
    3b26:	df 92       	push	r13
    3b28:	ef 92       	push	r14
    3b2a:	ff 92       	push	r15
    3b2c:	0f 93       	push	r16
    3b2e:	1f 93       	push	r17
    3b30:	cf 93       	push	r28
    3b32:	df 93       	push	r29
    3b34:	cd b7       	in	r28, 0x3d	; 61
    3b36:	de b7       	in	r29, 0x3e	; 62
    3b38:	c6 54       	subi	r28, 0x46	; 70
    3b3a:	d1 09       	sbc	r29, r1
    3b3c:	0f b6       	in	r0, 0x3f	; 63
    3b3e:	f8 94       	cli
    3b40:	de bf       	out	0x3e, r29	; 62
    3b42:	0f be       	out	0x3f, r0	; 63
    3b44:	cd bf       	out	0x3d, r28	; 61
    char buff_filename[15] = {'\0'};
    3b46:	fe 01       	movw	r30, r28
    3b48:	31 96       	adiw	r30, 0x01	; 1
    3b4a:	9f e0       	ldi	r25, 0x0F	; 15
    3b4c:	df 01       	movw	r26, r30
    3b4e:	1d 92       	st	X+, r1
    3b50:	9a 95       	dec	r25
    3b52:	e9 f7       	brne	.-6      	; 0x3b4e <check_fluessanzeige3+0x2c>
    char buff_string[50] = {'\0'};
    3b54:	3f 96       	adiw	r30, 0x0f	; 15
    3b56:	92 e3       	ldi	r25, 0x32	; 50
    3b58:	df 01       	movw	r26, r30
    3b5a:	1d 92       	st	X+, r1
    3b5c:	9a 95       	dec	r25
    3b5e:	e9 f7       	brne	.-6      	; 0x3b5a <check_fluessanzeige3+0x38>
    char buff_itoa[5] = {'\0'};
    3b60:	f2 96       	adiw	r30, 0x32	; 50
    3b62:	95 e0       	ldi	r25, 0x05	; 5
    3b64:	df 01       	movw	r26, r30
    3b66:	1d 92       	st	X+, r1
    3b68:	9a 95       	dec	r25
    3b6a:	e9 f7       	brne	.-6      	; 0x3b66 <check_fluessanzeige3+0x44>
    char * ptr = buff_string;
    zutat_file_t * tmp;
    switch (button)
    3b6c:	81 30       	cpi	r24, 0x01	; 1
    3b6e:	08 f4       	brcc	.+2      	; 0x3b72 <check_fluessanzeige3+0x50>
    3b70:	e4 c0       	rjmp	.+456    	; 0x3d3a <check_fluessanzeige3+0x218>
    3b72:	18 2f       	mov	r17, r24
    3b74:	83 30       	cpi	r24, 0x03	; 3
    3b76:	20 f0       	brcs	.+8      	; 0x3b80 <check_fluessanzeige3+0x5e>
    3b78:	83 30       	cpi	r24, 0x03	; 3
    3b7a:	09 f4       	brne	.+2      	; 0x3b7e <check_fluessanzeige3+0x5c>
    3b7c:	db c0       	rjmp	.+438    	; 0x3d34 <check_fluessanzeige3+0x212>
    3b7e:	dd c0       	rjmp	.+442    	; 0x3d3a <check_fluessanzeige3+0x218>
                    - Untere Blockierung aufheben
                    - Obere Blockierung aufheben
                    - Liste mit Zutaten erstellen
                    - Name der aktuellen Zutat auf 0 initialisieren
        */
        nextion_change_page(RFIDFEHLER);
    3b80:	89 e1       	ldi	r24, 0x19	; 25
    3b82:	0e 94 fd 2b 	call	0x57fa	; 0x57fa <nextion_change_page>
        nextion_setText("fehlertxt", "Zutat wird probiert und \\rgespeichert...");
    3b86:	67 e2       	ldi	r22, 0x27	; 39
    3b88:	76 e0       	ldi	r23, 0x06	; 6
    3b8a:	8f ed       	ldi	r24, 0xDF	; 223
    3b8c:	93 e0       	ldi	r25, 0x03	; 3
    3b8e:	0e 94 1c 2c 	call	0x5838	; 0x5838 <nextion_setText>

        strcpy(ptr, (const char *)"Name:");
    3b92:	7e 01       	movw	r14, r28
    3b94:	b0 e1       	ldi	r27, 0x10	; 16
    3b96:	eb 0e       	add	r14, r27
    3b98:	f1 1c       	adc	r15, r1
    3b9a:	86 e0       	ldi	r24, 0x06	; 6
    3b9c:	ed e8       	ldi	r30, 0x8D	; 141
    3b9e:	f4 e0       	ldi	r31, 0x04	; 4
    3ba0:	d7 01       	movw	r26, r14
    3ba2:	01 90       	ld	r0, Z+
    3ba4:	0d 92       	st	X+, r0
    3ba6:	8a 95       	dec	r24
    3ba8:	e1 f7       	brne	.-8      	; 0x3ba2 <check_fluessanzeige3+0x80>
        strcat(ptr, (const char *)aktuelle_zutat->name);
    3baa:	e0 91 50 0a 	lds	r30, 0x0A50	; 0x800a50 <aktuelle_zutat>
    3bae:	f0 91 51 0a 	lds	r31, 0x0A51	; 0x800a51 <aktuelle_zutat+0x1>
    3bb2:	60 81       	ld	r22, Z
    3bb4:	71 81       	ldd	r23, Z+1	; 0x01
    3bb6:	c7 01       	movw	r24, r14
    3bb8:	0e 94 7c 48 	call	0x90f8	; 0x90f8 <strcat>
        strcat(ptr, (const char *)"\rAlkohol:");
    3bbc:	d7 01       	movw	r26, r14
    3bbe:	0d 90       	ld	r0, X+
    3bc0:	00 20       	and	r0, r0
    3bc2:	e9 f7       	brne	.-6      	; 0x3bbe <check_fluessanzeige3+0x9c>
    3bc4:	11 97       	sbiw	r26, 0x01	; 1
    3bc6:	8a e0       	ldi	r24, 0x0A	; 10
    3bc8:	e0 e5       	ldi	r30, 0x50	; 80
    3bca:	f6 e0       	ldi	r31, 0x06	; 6
    3bcc:	01 90       	ld	r0, Z+
    3bce:	0d 92       	st	X+, r0
    3bd0:	8a 95       	dec	r24
    3bd2:	e1 f7       	brne	.-8      	; 0x3bcc <check_fluessanzeige3+0xaa>
        if (button == JA1)
    3bd4:	11 30       	cpi	r17, 0x01	; 1
    3bd6:	49 f4       	brne	.+18     	; 0x3bea <check_fluessanzeige3+0xc8>
    3bd8:	4a e0       	ldi	r20, 0x0A	; 10
    3bda:	be 01       	movw	r22, r28
    3bdc:	6e 5b       	subi	r22, 0xBE	; 190
    3bde:	7f 4f       	sbci	r23, 0xFF	; 255
    3be0:	81 e0       	ldi	r24, 0x01	; 1
    3be2:	90 e0       	ldi	r25, 0x00	; 0
    3be4:	0e 94 be 48 	call	0x917c	; 0x917c <__itoa_ncheck>
    3be8:	0a c0       	rjmp	.+20     	; 0x3bfe <check_fluessanzeige3+0xdc>
        {
            itoa(1, (char *)buff_itoa, 10);
        }
        if (button == NEIN2)
    3bea:	12 30       	cpi	r17, 0x02	; 2
    3bec:	41 f4       	brne	.+16     	; 0x3bfe <check_fluessanzeige3+0xdc>
    3bee:	4a e0       	ldi	r20, 0x0A	; 10
    3bf0:	be 01       	movw	r22, r28
    3bf2:	6e 5b       	subi	r22, 0xBE	; 190
    3bf4:	7f 4f       	sbci	r23, 0xFF	; 255
    3bf6:	80 e0       	ldi	r24, 0x00	; 0
    3bf8:	90 e0       	ldi	r25, 0x00	; 0
    3bfa:	0e 94 be 48 	call	0x917c	; 0x917c <__itoa_ncheck>
        {
            itoa(0, (char *)buff_itoa, 10);
        }
        strcat(ptr, (const char *)buff_itoa);
    3bfe:	8e 01       	movw	r16, r28
    3c00:	00 5f       	subi	r16, 0xF0	; 240
    3c02:	1f 4f       	sbci	r17, 0xFF	; 255
    3c04:	be 01       	movw	r22, r28
    3c06:	6e 5b       	subi	r22, 0xBE	; 190
    3c08:	7f 4f       	sbci	r23, 0xFF	; 255
    3c0a:	c8 01       	movw	r24, r16
    3c0c:	0e 94 7c 48 	call	0x90f8	; 0x90f8 <strcat>
        strcat(ptr, (const char *)"~");
    3c10:	f8 01       	movw	r30, r16
    3c12:	01 90       	ld	r0, Z+
    3c14:	00 20       	and	r0, r0
    3c16:	e9 f7       	brne	.-6      	; 0x3c12 <check_fluessanzeige3+0xf0>
    3c18:	31 97       	sbiw	r30, 0x01	; 1
    3c1a:	8e e7       	ldi	r24, 0x7E	; 126
    3c1c:	90 e0       	ldi	r25, 0x00	; 0
    3c1e:	91 83       	std	Z+1, r25	; 0x01
    3c20:	80 83       	st	Z, r24

        uint8_t stop_suche = 0;
        uint8_t count = 1;
    3c22:	bb 24       	eor	r11, r11
    3c24:	b3 94       	inc	r11
        while (stop_suche == 0)
        {
            // String mit Name des Textfiles erstellen (Z0.txt bis Z199.txt)
            strcpy((char *)buff_filename, (const char *)"Z");
    3c26:	0f 2e       	mov	r0, r31
    3c28:	fa e5       	ldi	r31, 0x5A	; 90
    3c2a:	cf 2e       	mov	r12, r31
    3c2c:	d1 2c       	mov	r13, r1
    3c2e:	f0 2d       	mov	r31, r0
            itoa(count, (char *)buff_itoa, 10);
            strcat((char *)buff_filename, (const char *)buff_itoa);
    3c30:	0f 50       	subi	r16, 0x0F	; 15
    3c32:	11 09       	sbc	r17, r1
        uint8_t stop_suche = 0;
        uint8_t count = 1;
        while (stop_suche == 0)
        {
            // String mit Name des Textfiles erstellen (Z0.txt bis Z199.txt)
            strcpy((char *)buff_filename, (const char *)"Z");
    3c34:	da 82       	std	Y+2, r13	; 0x02
    3c36:	c9 82       	std	Y+1, r12	; 0x01
            itoa(count, (char *)buff_itoa, 10);
    3c38:	eb 2c       	mov	r14, r11
    3c3a:	f1 2c       	mov	r15, r1
    3c3c:	4a e0       	ldi	r20, 0x0A	; 10
    3c3e:	be 01       	movw	r22, r28
    3c40:	6e 5b       	subi	r22, 0xBE	; 190
    3c42:	7f 4f       	sbci	r23, 0xFF	; 255
    3c44:	c7 01       	movw	r24, r14
    3c46:	0e 94 be 48 	call	0x917c	; 0x917c <__itoa_ncheck>
            strcat((char *)buff_filename, (const char *)buff_itoa);
    3c4a:	be 01       	movw	r22, r28
    3c4c:	6e 5b       	subi	r22, 0xBE	; 190
    3c4e:	7f 4f       	sbci	r23, 0xFF	; 255
    3c50:	c8 01       	movw	r24, r16
    3c52:	0e 94 7c 48 	call	0x90f8	; 0x90f8 <strcat>
            strcat((char *)buff_filename, (const char *)".txt");
    3c56:	d8 01       	movw	r26, r16
    3c58:	0d 90       	ld	r0, X+
    3c5a:	00 20       	and	r0, r0
    3c5c:	e9 f7       	brne	.-6      	; 0x3c58 <check_fluessanzeige3+0x136>
    3c5e:	11 97       	sbiw	r26, 0x01	; 1
    3c60:	85 e0       	ldi	r24, 0x05	; 5
    3c62:	e0 ee       	ldi	r30, 0xE0	; 224
    3c64:	f4 e0       	ldi	r31, 0x04	; 4
    3c66:	01 90       	ld	r0, Z+
    3c68:	0d 92       	st	X+, r0
    3c6a:	8a 95       	dec	r24
    3c6c:	e1 f7       	brne	.-8      	; 0x3c66 <check_fluessanzeige3+0x144>

            // Prfen ob File existiert
            if(readFile(VERIFY, (unsigned char *)buff_filename)!=1)
    3c6e:	b8 01       	movw	r22, r16
    3c70:	81 e0       	ldi	r24, 0x01	; 1
    3c72:	0e 94 52 33 	call	0x66a4	; 0x66a4 <readFile>
    3c76:	81 30       	cpi	r24, 0x01	; 1
    3c78:	09 f4       	brne	.+2      	; 0x3c7c <check_fluessanzeige3+0x15a>
    3c7a:	4f c0       	rjmp	.+158    	; 0x3d1a <check_fluessanzeige3+0x1f8>
            {
                // Nummer des Existierenden Files in der Liste ablegen (head_zutat = letzt hinzugefgtes Getrnk)
                tmp = create_new_zutat_file(count);
    3c7c:	8b 2d       	mov	r24, r11
    3c7e:	51 d7       	rcall	.+3746   	; 0x4b22 <create_new_zutat_file>
                head_zutat_file = insert_zutat_file_at_head(&head_zutat_file, tmp);
    3c80:	bc 01       	movw	r22, r24
    3c82:	84 e3       	ldi	r24, 0x34	; 52
    3c84:	99 e0       	ldi	r25, 0x09	; 9
    3c86:	59 d7       	rcall	.+3762   	; 0x4b3a <insert_zutat_file_at_head>
    3c88:	90 93 35 09 	sts	0x0935, r25	; 0x800935 <head_zutat_file+0x1>
    3c8c:	80 93 34 09 	sts	0x0934, r24	; 0x800934 <head_zutat_file>
                stop_suche = 1;
                count--;
            }
            count++;
        }
        strcpy((char *)buff_filename, (const char *)"Z");
    3c90:	8a e5       	ldi	r24, 0x5A	; 90
    3c92:	90 e0       	ldi	r25, 0x00	; 0
    3c94:	9a 83       	std	Y+2, r25	; 0x02
    3c96:	89 83       	std	Y+1, r24	; 0x01
    3c98:	4a e0       	ldi	r20, 0x0A	; 10
    3c9a:	be 01       	movw	r22, r28
    3c9c:	6e 5b       	subi	r22, 0xBE	; 190
    3c9e:	7f 4f       	sbci	r23, 0xFF	; 255
    3ca0:	c7 01       	movw	r24, r14
    3ca2:	0e 94 be 48 	call	0x917c	; 0x917c <__itoa_ncheck>
        itoa(count, (char *)buff_itoa, 10);
        strcat((char *)buff_filename, (const char *)buff_itoa);
    3ca6:	be 01       	movw	r22, r28
    3ca8:	6e 5b       	subi	r22, 0xBE	; 190
    3caa:	7f 4f       	sbci	r23, 0xFF	; 255
    3cac:	8e 01       	movw	r16, r28
    3cae:	0f 5f       	subi	r16, 0xFF	; 255
    3cb0:	1f 4f       	sbci	r17, 0xFF	; 255
    3cb2:	c8 01       	movw	r24, r16
    3cb4:	0e 94 7c 48 	call	0x90f8	; 0x90f8 <strcat>
        strcat((char *)buff_filename, (const char *)".txt");
    3cb8:	d8 01       	movw	r26, r16
    3cba:	0d 90       	ld	r0, X+
    3cbc:	00 20       	and	r0, r0
    3cbe:	e9 f7       	brne	.-6      	; 0x3cba <check_fluessanzeige3+0x198>
    3cc0:	11 97       	sbiw	r26, 0x01	; 1
    3cc2:	85 e0       	ldi	r24, 0x05	; 5
    3cc4:	e0 ee       	ldi	r30, 0xE0	; 224
    3cc6:	f4 e0       	ldi	r31, 0x04	; 4
    3cc8:	01 90       	ld	r0, Z+
    3cca:	0d 92       	st	X+, r0
    3ccc:	8a 95       	dec	r24
    3cce:	e1 f7       	brne	.-8      	; 0x3cc8 <check_fluessanzeige3+0x1a6>
        writeFile((unsigned char *)buff_filename, (unsigned char *)ptr);
    3cd0:	be 01       	movw	r22, r28
    3cd2:	60 5f       	subi	r22, 0xF0	; 240
    3cd4:	7f 4f       	sbci	r23, 0xFF	; 255
    3cd6:	c8 01       	movw	r24, r16
    3cd8:	0e 94 2d 34 	call	0x685a	; 0x685a <writeFile>

        i_Liste = 0;
    3cdc:	10 92 d1 12 	sts	0x12D1, r1	; 0x8012d1 <i_Liste>
        block_list_runter = 0;
    3ce0:	10 92 80 0a 	sts	0x0A80, r1	; 0x800a80 <block_list_runter>
        block_list_hoch = 0;
    3ce4:	10 92 9b 0e 	sts	0x0E9B, r1	; 0x800e9b <block_list_hoch>

        strcpy((char *)aktuelleZutatInMaschine->name, (const char *)buff_name);
    3ce8:	e0 91 46 0a 	lds	r30, 0x0A46	; 0x800a46 <aktuelleZutatInMaschine>
    3cec:	f0 91 47 0a 	lds	r31, 0x0A47	; 0x800a47 <aktuelleZutatInMaschine+0x1>
    3cf0:	6a ea       	ldi	r22, 0xAA	; 170
    3cf2:	7f e0       	ldi	r23, 0x0F	; 15
    3cf4:	80 81       	ld	r24, Z
    3cf6:	91 81       	ldd	r25, Z+1	; 0x01
    3cf8:	0e 94 90 48 	call	0x9120	; 0x9120 <strcpy>
        uint8_t len = strlen((const char *)buff_name);
    3cfc:	ea ea       	ldi	r30, 0xAA	; 170
    3cfe:	ff e0       	ldi	r31, 0x0F	; 15
    3d00:	01 90       	ld	r0, Z+
    3d02:	00 20       	and	r0, r0
    3d04:	e9 f7       	brne	.-6      	; 0x3d00 <check_fluessanzeige3+0x1de>
    3d06:	31 97       	sbiw	r30, 0x01	; 1
    3d08:	cf 01       	movw	r24, r30
    3d0a:	8a 5a       	subi	r24, 0xAA	; 170
    3d0c:	9f 40       	sbci	r25, 0x0F	; 15
    3d0e:	99 27       	eor	r25, r25
    3d10:	ea ea       	ldi	r30, 0xAA	; 170
    3d12:	ff e0       	ldi	r31, 0x0F	; 15
    3d14:	85 55       	subi	r24, 0x55	; 85
    3d16:	90 4f       	sbci	r25, 0xF0	; 240
    3d18:	02 c0       	rjmp	.+4      	; 0x3d1e <check_fluessanzeige3+0x1fc>
                tmp = create_new_zutat_file(count);
                head_zutat_file = insert_zutat_file_at_head(&head_zutat_file, tmp);
                stop_suche = 1;
                count--;
            }
            count++;
    3d1a:	b3 94       	inc	r11
    3d1c:	8b cf       	rjmp	.-234    	; 0x3c34 <check_fluessanzeige3+0x112>

        strcpy((char *)aktuelleZutatInMaschine->name, (const char *)buff_name);
        uint8_t len = strlen((const char *)buff_name);
        for (int count = 0 ; count < len + 1; count++)
        {
            buff_name[count] = '\0';
    3d1e:	11 92       	st	Z+, r1
        block_list_runter = 0;
        block_list_hoch = 0;

        strcpy((char *)aktuelleZutatInMaschine->name, (const char *)buff_name);
        uint8_t len = strlen((const char *)buff_name);
        for (int count = 0 ; count < len + 1; count++)
    3d20:	e8 17       	cp	r30, r24
    3d22:	f9 07       	cpc	r31, r25
    3d24:	e1 f7       	brne	.-8      	; 0x3d1e <check_fluessanzeige3+0x1fc>
        {
            buff_name[count] = '\0';
        }
        counter = 0;
    3d26:	10 92 a2 0f 	sts	0x0FA2, r1	; 0x800fa2 <counter>

        setze_Fluessgkeit_in_Position(7, VOLL);
    3d2a:	61 e0       	ldi	r22, 0x01	; 1
    3d2c:	87 e0       	ldi	r24, 0x07	; 7
    3d2e:	0e 94 77 0d 	call	0x1aee	; 0x1aee <setze_Fluessgkeit_in_Position>
        break;
    3d32:	03 c0       	rjmp	.+6      	; 0x3d3a <check_fluessanzeige3+0x218>

    case ZURUECK7:
        /*      0x0A = 0b10
                    - FLUESSANZEIGE2 setzen
        */
        nextion_change_page(FLUESSANZEIGE4-1);
    3d34:	8b e1       	ldi	r24, 0x1B	; 27
    3d36:	0e 94 fd 2b 	call	0x57fa	; 0x57fa <nextion_change_page>
        break;
    }
}
    3d3a:	ca 5b       	subi	r28, 0xBA	; 186
    3d3c:	df 4f       	sbci	r29, 0xFF	; 255
    3d3e:	0f b6       	in	r0, 0x3f	; 63
    3d40:	f8 94       	cli
    3d42:	de bf       	out	0x3e, r29	; 62
    3d44:	0f be       	out	0x3f, r0	; 63
    3d46:	cd bf       	out	0x3d, r28	; 61
    3d48:	df 91       	pop	r29
    3d4a:	cf 91       	pop	r28
    3d4c:	1f 91       	pop	r17
    3d4e:	0f 91       	pop	r16
    3d50:	ff 90       	pop	r15
    3d52:	ef 90       	pop	r14
    3d54:	df 90       	pop	r13
    3d56:	cf 90       	pop	r12
    3d58:	bf 90       	pop	r11
    3d5a:	08 95       	ret

00003d5c <check_fluessanzeige4>:

void check_fluessanzeige4(uint8_t button)
{
    switch (button)
    3d5c:	82 30       	cpi	r24, 0x02	; 2
    3d5e:	71 f0       	breq	.+28     	; 0x3d7c <check_fluessanzeige4+0x20>
    3d60:	83 30       	cpi	r24, 0x03	; 3
    3d62:	a9 f0       	breq	.+42     	; 0x3d8e <check_fluessanzeige4+0x32>
    3d64:	81 30       	cpi	r24, 0x01	; 1
    3d66:	e1 f4       	brne	.+56     	; 0x3da0 <check_fluessanzeige4+0x44>
    {
    case JA2:
        nextion_change_page(FLUESSANZEIGE3);
    3d68:	86 e1       	ldi	r24, 0x16	; 22
    3d6a:	0e 94 fd 2b 	call	0x57fa	; 0x57fa <nextion_change_page>
        aktuelle_zutat->kohlensaeure = 1;
    3d6e:	e0 91 50 0a 	lds	r30, 0x0A50	; 0x800a50 <aktuelle_zutat>
    3d72:	f0 91 51 0a 	lds	r31, 0x0A51	; 0x800a51 <aktuelle_zutat+0x1>
    3d76:	81 e0       	ldi	r24, 0x01	; 1
    3d78:	83 83       	std	Z+3, r24	; 0x03
        break;
    3d7a:	08 95       	ret

    case NEIN2:
        nextion_change_page(FLUESSANZEIGE3);
    3d7c:	86 e1       	ldi	r24, 0x16	; 22
    3d7e:	0e 94 fd 2b 	call	0x57fa	; 0x57fa <nextion_change_page>
        aktuelle_zutat->kohlensaeure = 0;
    3d82:	e0 91 50 0a 	lds	r30, 0x0A50	; 0x800a50 <aktuelle_zutat>
    3d86:	f0 91 51 0a 	lds	r31, 0x0A51	; 0x800a51 <aktuelle_zutat+0x1>
    3d8a:	13 82       	std	Z+3, r1	; 0x03
        break;
    3d8c:	08 95       	ret

    case ZURUECK11:
        /*      0x0A = 0b10
                    - FLUESSANZEIGE2 setzen
        */
        nextion_change_page(FLUESSANZEIGE2);
    3d8e:	85 e1       	ldi	r24, 0x15	; 21
    3d90:	0e 94 fd 2b 	call	0x57fa	; 0x57fa <nextion_change_page>
        nextion_setText("neuername", (char *)buff_name);
    3d94:	6a ea       	ldi	r22, 0xAA	; 170
    3d96:	7f e0       	ldi	r23, 0x0F	; 15
    3d98:	8f ea       	ldi	r24, 0xAF	; 175
    3d9a:	95 e0       	ldi	r25, 0x05	; 5
    3d9c:	0c 94 1c 2c 	jmp	0x5838	; 0x5838 <nextion_setText>
    3da0:	08 95       	ret

00003da2 <check_RFIDAnzeige1>:
        break;
    }
}

void check_RFIDAnzeige1(uint8_t button)
{
    3da2:	ff 92       	push	r15
    3da4:	0f 93       	push	r16
    3da6:	1f 93       	push	r17
    3da8:	cf 93       	push	r28
    3daa:	df 93       	push	r29
    3dac:	cd b7       	in	r28, 0x3d	; 61
    3dae:	de b7       	in	r29, 0x3e	; 62
    3db0:	ad 97       	sbiw	r28, 0x2d	; 45
    3db2:	0f b6       	in	r0, 0x3f	; 63
    3db4:	f8 94       	cli
    3db6:	de bf       	out	0x3e, r29	; 62
    3db8:	0f be       	out	0x3f, r0	; 63
    3dba:	cd bf       	out	0x3d, r28	; 61
    switch (button)
    3dbc:	90 e0       	ldi	r25, 0x00	; 0
    3dbe:	fc 01       	movw	r30, r24
    3dc0:	31 97       	sbiw	r30, 0x01	; 1
    3dc2:	e9 30       	cpi	r30, 0x09	; 9
    3dc4:	f1 05       	cpc	r31, r1
    3dc6:	08 f0       	brcs	.+2      	; 0x3dca <check_RFIDAnzeige1+0x28>
    3dc8:	e6 c2       	rjmp	.+1484   	; 0x4396 <check_RFIDAnzeige1+0x5f4>
    3dca:	88 27       	eor	r24, r24
    3dcc:	e7 50       	subi	r30, 0x07	; 7
    3dce:	ff 4f       	sbci	r31, 0xFF	; 255
    3dd0:	8f 4f       	sbci	r24, 0xFF	; 255
    3dd2:	0c 94 1d 46 	jmp	0x8c3a	; 0x8c3a <__tablejump2__>
    case RFID1:
        /*      0x01 = 0b01
                    - Wechsle auf Zutatenanzeige
                    -
        */
        aktueller_tag = tail_tag;
    3dd6:	e0 91 92 0c 	lds	r30, 0x0C92	; 0x800c92 <tail_tag>
    3dda:	f0 91 93 0c 	lds	r31, 0x0C93	; 0x800c93 <tail_tag+0x1>
    3dde:	f0 93 8c 0b 	sts	0x0B8C, r31	; 0x800b8c <aktueller_tag+0x1>
    3de2:	e0 93 8b 0b 	sts	0x0B8B, r30	; 0x800b8b <aktueller_tag>
        for (int i = 0 ; i < i_Liste + 0 ; i++)
    3de6:	20 91 d1 12 	lds	r18, 0x12D1	; 0x8012d1 <i_Liste>
    3dea:	30 e0       	ldi	r19, 0x00	; 0
    3dec:	12 16       	cp	r1, r18
    3dee:	13 06       	cpc	r1, r19
    3df0:	6c f4       	brge	.+26     	; 0x3e0c <check_RFIDAnzeige1+0x6a>
    3df2:	80 e0       	ldi	r24, 0x00	; 0
    3df4:	90 e0       	ldi	r25, 0x00	; 0
        {
            aktueller_tag = aktueller_tag->prev;
    3df6:	06 80       	ldd	r0, Z+6	; 0x06
    3df8:	f7 81       	ldd	r31, Z+7	; 0x07
    3dfa:	e0 2d       	mov	r30, r0
        /*      0x01 = 0b01
                    - Wechsle auf Zutatenanzeige
                    -
        */
        aktueller_tag = tail_tag;
        for (int i = 0 ; i < i_Liste + 0 ; i++)
    3dfc:	01 96       	adiw	r24, 0x01	; 1
    3dfe:	82 17       	cp	r24, r18
    3e00:	93 07       	cpc	r25, r19
    3e02:	c9 f7       	brne	.-14     	; 0x3df6 <check_RFIDAnzeige1+0x54>
    3e04:	f0 93 8c 0b 	sts	0x0B8C, r31	; 0x800b8c <aktueller_tag+0x1>
    3e08:	e0 93 8b 0b 	sts	0x0B8B, r30	; 0x800b8b <aktueller_tag>
        {
            aktueller_tag = aktueller_tag->prev;
        }
        nextion_change_page(RFIDANZEIGE2);
    3e0c:	88 e1       	ldi	r24, 0x18	; 24
    3e0e:	0e 94 fd 2b 	call	0x57fa	; 0x57fa <nextion_change_page>
        i_Liste = 0;
    3e12:	10 92 d1 12 	sts	0x12D1, r1	; 0x8012d1 <i_Liste>
        block_list_hoch = 0;
    3e16:	10 92 9b 0e 	sts	0x0E9B, r1	; 0x800e9b <block_list_hoch>
        block_list_runter = 0;
    3e1a:	10 92 80 0a 	sts	0x0A80, r1	; 0x800a80 <block_list_runter>
        erstelle_Liste_name("cocktail");
    3e1e:	89 e3       	ldi	r24, 0x39	; 57
    3e20:	93 e0       	ldi	r25, 0x03	; 3
    3e22:	0e 94 57 08 	call	0x10ae	; 0x10ae <erstelle_Liste_name>
        break;
    3e26:	b7 c2       	rjmp	.+1390   	; 0x4396 <check_RFIDAnzeige1+0x5f4>
    case RFID2:
        /*      0x02 = 0b02
                    - Wechsle auf Zutatenanzeige
                    -
        */
        aktueller_tag = tail_tag;
    3e28:	e0 91 92 0c 	lds	r30, 0x0C92	; 0x800c92 <tail_tag>
    3e2c:	f0 91 93 0c 	lds	r31, 0x0C93	; 0x800c93 <tail_tag+0x1>
    3e30:	f0 93 8c 0b 	sts	0x0B8C, r31	; 0x800b8c <aktueller_tag+0x1>
    3e34:	e0 93 8b 0b 	sts	0x0B8B, r30	; 0x800b8b <aktueller_tag>
        for (int i = 0 ; i < i_Liste + 1 ; i++)
    3e38:	20 91 d1 12 	lds	r18, 0x12D1	; 0x8012d1 <i_Liste>
    3e3c:	30 e0       	ldi	r19, 0x00	; 0
    3e3e:	2f 5f       	subi	r18, 0xFF	; 255
    3e40:	3f 4f       	sbci	r19, 0xFF	; 255
    3e42:	80 e0       	ldi	r24, 0x00	; 0
    3e44:	90 e0       	ldi	r25, 0x00	; 0
        {
            aktueller_tag = aktueller_tag->prev;
    3e46:	06 80       	ldd	r0, Z+6	; 0x06
    3e48:	f7 81       	ldd	r31, Z+7	; 0x07
    3e4a:	e0 2d       	mov	r30, r0
        /*      0x02 = 0b02
                    - Wechsle auf Zutatenanzeige
                    -
        */
        aktueller_tag = tail_tag;
        for (int i = 0 ; i < i_Liste + 1 ; i++)
    3e4c:	01 96       	adiw	r24, 0x01	; 1
    3e4e:	82 17       	cp	r24, r18
    3e50:	93 07       	cpc	r25, r19
    3e52:	cc f3       	brlt	.-14     	; 0x3e46 <check_RFIDAnzeige1+0xa4>
    3e54:	f0 93 8c 0b 	sts	0x0B8C, r31	; 0x800b8c <aktueller_tag+0x1>
    3e58:	e0 93 8b 0b 	sts	0x0B8B, r30	; 0x800b8b <aktueller_tag>
        {
            aktueller_tag = aktueller_tag->prev;
        }
        nextion_change_page(RFIDANZEIGE2);
    3e5c:	88 e1       	ldi	r24, 0x18	; 24
    3e5e:	0e 94 fd 2b 	call	0x57fa	; 0x57fa <nextion_change_page>
        i_Liste = 0;
    3e62:	10 92 d1 12 	sts	0x12D1, r1	; 0x8012d1 <i_Liste>
        block_list_hoch = 0;
    3e66:	10 92 9b 0e 	sts	0x0E9B, r1	; 0x800e9b <block_list_hoch>
        block_list_runter = 0;
    3e6a:	10 92 80 0a 	sts	0x0A80, r1	; 0x800a80 <block_list_runter>
        erstelle_Liste_name("cocktail");
    3e6e:	89 e3       	ldi	r24, 0x39	; 57
    3e70:	93 e0       	ldi	r25, 0x03	; 3
    3e72:	0e 94 57 08 	call	0x10ae	; 0x10ae <erstelle_Liste_name>
        break;
    3e76:	8f c2       	rjmp	.+1310   	; 0x4396 <check_RFIDAnzeige1+0x5f4>
    case RFID3:
        /*      0x03 = 0b03
                    - Wechsle auf Zutatenanzeige
                    -
        */
        aktueller_tag = tail_tag;
    3e78:	e0 91 92 0c 	lds	r30, 0x0C92	; 0x800c92 <tail_tag>
    3e7c:	f0 91 93 0c 	lds	r31, 0x0C93	; 0x800c93 <tail_tag+0x1>
    3e80:	f0 93 8c 0b 	sts	0x0B8C, r31	; 0x800b8c <aktueller_tag+0x1>
    3e84:	e0 93 8b 0b 	sts	0x0B8B, r30	; 0x800b8b <aktueller_tag>
        for (int i = 0 ; i < i_Liste + 2 ; i++)
    3e88:	20 91 d1 12 	lds	r18, 0x12D1	; 0x8012d1 <i_Liste>
    3e8c:	30 e0       	ldi	r19, 0x00	; 0
    3e8e:	2e 5f       	subi	r18, 0xFE	; 254
    3e90:	3f 4f       	sbci	r19, 0xFF	; 255
    3e92:	80 e0       	ldi	r24, 0x00	; 0
    3e94:	90 e0       	ldi	r25, 0x00	; 0
        {
            aktueller_tag = aktueller_tag->prev;
    3e96:	06 80       	ldd	r0, Z+6	; 0x06
    3e98:	f7 81       	ldd	r31, Z+7	; 0x07
    3e9a:	e0 2d       	mov	r30, r0
        /*      0x03 = 0b03
                    - Wechsle auf Zutatenanzeige
                    -
        */
        aktueller_tag = tail_tag;
        for (int i = 0 ; i < i_Liste + 2 ; i++)
    3e9c:	01 96       	adiw	r24, 0x01	; 1
    3e9e:	82 17       	cp	r24, r18
    3ea0:	93 07       	cpc	r25, r19
    3ea2:	cc f3       	brlt	.-14     	; 0x3e96 <check_RFIDAnzeige1+0xf4>
    3ea4:	f0 93 8c 0b 	sts	0x0B8C, r31	; 0x800b8c <aktueller_tag+0x1>
    3ea8:	e0 93 8b 0b 	sts	0x0B8B, r30	; 0x800b8b <aktueller_tag>
        {
            aktueller_tag = aktueller_tag->prev;
        }
        nextion_change_page(RFIDANZEIGE2);
    3eac:	88 e1       	ldi	r24, 0x18	; 24
    3eae:	0e 94 fd 2b 	call	0x57fa	; 0x57fa <nextion_change_page>
        i_Liste = 0;
    3eb2:	10 92 d1 12 	sts	0x12D1, r1	; 0x8012d1 <i_Liste>
        block_list_hoch = 0;
    3eb6:	10 92 9b 0e 	sts	0x0E9B, r1	; 0x800e9b <block_list_hoch>
        block_list_runter = 0;
    3eba:	10 92 80 0a 	sts	0x0A80, r1	; 0x800a80 <block_list_runter>
        erstelle_Liste_name("cocktail");
    3ebe:	89 e3       	ldi	r24, 0x39	; 57
    3ec0:	93 e0       	ldi	r25, 0x03	; 3
    3ec2:	0e 94 57 08 	call	0x10ae	; 0x10ae <erstelle_Liste_name>
        break;
    3ec6:	67 c2       	rjmp	.+1230   	; 0x4396 <check_RFIDAnzeige1+0x5f4>
    case RFID4:
        /*      0x04 = 0b04
                    - Wechsle auf Zutatenanzeige
                    -
        */
        aktueller_tag = tail_tag;
    3ec8:	e0 91 92 0c 	lds	r30, 0x0C92	; 0x800c92 <tail_tag>
    3ecc:	f0 91 93 0c 	lds	r31, 0x0C93	; 0x800c93 <tail_tag+0x1>
    3ed0:	f0 93 8c 0b 	sts	0x0B8C, r31	; 0x800b8c <aktueller_tag+0x1>
    3ed4:	e0 93 8b 0b 	sts	0x0B8B, r30	; 0x800b8b <aktueller_tag>
        for (int i = 0 ; i < i_Liste + 3 ; i++)
    3ed8:	20 91 d1 12 	lds	r18, 0x12D1	; 0x8012d1 <i_Liste>
    3edc:	30 e0       	ldi	r19, 0x00	; 0
    3ede:	2d 5f       	subi	r18, 0xFD	; 253
    3ee0:	3f 4f       	sbci	r19, 0xFF	; 255
    3ee2:	80 e0       	ldi	r24, 0x00	; 0
    3ee4:	90 e0       	ldi	r25, 0x00	; 0
        {
            aktueller_tag = aktueller_tag->prev;
    3ee6:	06 80       	ldd	r0, Z+6	; 0x06
    3ee8:	f7 81       	ldd	r31, Z+7	; 0x07
    3eea:	e0 2d       	mov	r30, r0
        /*      0x04 = 0b04
                    - Wechsle auf Zutatenanzeige
                    -
        */
        aktueller_tag = tail_tag;
        for (int i = 0 ; i < i_Liste + 3 ; i++)
    3eec:	01 96       	adiw	r24, 0x01	; 1
    3eee:	82 17       	cp	r24, r18
    3ef0:	93 07       	cpc	r25, r19
    3ef2:	cc f3       	brlt	.-14     	; 0x3ee6 <check_RFIDAnzeige1+0x144>
    3ef4:	f0 93 8c 0b 	sts	0x0B8C, r31	; 0x800b8c <aktueller_tag+0x1>
    3ef8:	e0 93 8b 0b 	sts	0x0B8B, r30	; 0x800b8b <aktueller_tag>
        {
            aktueller_tag = aktueller_tag->prev;
        }
        nextion_change_page(RFIDANZEIGE2);
    3efc:	88 e1       	ldi	r24, 0x18	; 24
    3efe:	0e 94 fd 2b 	call	0x57fa	; 0x57fa <nextion_change_page>
        i_Liste = 0;
    3f02:	10 92 d1 12 	sts	0x12D1, r1	; 0x8012d1 <i_Liste>
        block_list_hoch = 0;
    3f06:	10 92 9b 0e 	sts	0x0E9B, r1	; 0x800e9b <block_list_hoch>
        block_list_runter = 0;
    3f0a:	10 92 80 0a 	sts	0x0A80, r1	; 0x800a80 <block_list_runter>
        erstelle_Liste_name("cocktail");
    3f0e:	89 e3       	ldi	r24, 0x39	; 57
    3f10:	93 e0       	ldi	r25, 0x03	; 3
    3f12:	0e 94 57 08 	call	0x10ae	; 0x10ae <erstelle_Liste_name>
        break;
    3f16:	3f c2       	rjmp	.+1150   	; 0x4396 <check_RFIDAnzeige1+0x5f4>
    case RFID5:
        /*      0x05 = 0b05
                    - Wechsle auf Zutatenanzeige
                    -
        */
        aktueller_tag = tail_tag;
    3f18:	e0 91 92 0c 	lds	r30, 0x0C92	; 0x800c92 <tail_tag>
    3f1c:	f0 91 93 0c 	lds	r31, 0x0C93	; 0x800c93 <tail_tag+0x1>
    3f20:	f0 93 8c 0b 	sts	0x0B8C, r31	; 0x800b8c <aktueller_tag+0x1>
    3f24:	e0 93 8b 0b 	sts	0x0B8B, r30	; 0x800b8b <aktueller_tag>
        for (int i = 0 ; i < i_Liste + 4 ; i++)
    3f28:	20 91 d1 12 	lds	r18, 0x12D1	; 0x8012d1 <i_Liste>
    3f2c:	30 e0       	ldi	r19, 0x00	; 0
    3f2e:	2c 5f       	subi	r18, 0xFC	; 252
    3f30:	3f 4f       	sbci	r19, 0xFF	; 255
    3f32:	80 e0       	ldi	r24, 0x00	; 0
    3f34:	90 e0       	ldi	r25, 0x00	; 0
        {
            aktueller_tag = aktueller_tag->prev;
    3f36:	06 80       	ldd	r0, Z+6	; 0x06
    3f38:	f7 81       	ldd	r31, Z+7	; 0x07
    3f3a:	e0 2d       	mov	r30, r0
        /*      0x05 = 0b05
                    - Wechsle auf Zutatenanzeige
                    -
        */
        aktueller_tag = tail_tag;
        for (int i = 0 ; i < i_Liste + 4 ; i++)
    3f3c:	01 96       	adiw	r24, 0x01	; 1
    3f3e:	82 17       	cp	r24, r18
    3f40:	93 07       	cpc	r25, r19
    3f42:	cc f3       	brlt	.-14     	; 0x3f36 <check_RFIDAnzeige1+0x194>
    3f44:	f0 93 8c 0b 	sts	0x0B8C, r31	; 0x800b8c <aktueller_tag+0x1>
    3f48:	e0 93 8b 0b 	sts	0x0B8B, r30	; 0x800b8b <aktueller_tag>
        {
            aktueller_tag = aktueller_tag->prev;
        }
        nextion_change_page(RFIDANZEIGE2);
    3f4c:	88 e1       	ldi	r24, 0x18	; 24
    3f4e:	0e 94 fd 2b 	call	0x57fa	; 0x57fa <nextion_change_page>
        i_Liste = 0;
    3f52:	10 92 d1 12 	sts	0x12D1, r1	; 0x8012d1 <i_Liste>
        block_list_hoch = 0;
    3f56:	10 92 9b 0e 	sts	0x0E9B, r1	; 0x800e9b <block_list_hoch>
        block_list_runter = 0;
    3f5a:	10 92 80 0a 	sts	0x0A80, r1	; 0x800a80 <block_list_runter>
        erstelle_Liste_name("cocktail");
    3f5e:	89 e3       	ldi	r24, 0x39	; 57
    3f60:	93 e0       	ldi	r25, 0x03	; 3
    3f62:	0e 94 57 08 	call	0x10ae	; 0x10ae <erstelle_Liste_name>
        break;
    3f66:	17 c2       	rjmp	.+1070   	; 0x4396 <check_RFIDAnzeige1+0x5f4>
    case RFID6:
        /*      0x06 = 0b06
                    - Wechsle auf Zutatenanzeige
                    -
        */
        aktueller_tag = tail_tag;
    3f68:	e0 91 92 0c 	lds	r30, 0x0C92	; 0x800c92 <tail_tag>
    3f6c:	f0 91 93 0c 	lds	r31, 0x0C93	; 0x800c93 <tail_tag+0x1>
    3f70:	f0 93 8c 0b 	sts	0x0B8C, r31	; 0x800b8c <aktueller_tag+0x1>
    3f74:	e0 93 8b 0b 	sts	0x0B8B, r30	; 0x800b8b <aktueller_tag>
        for (int i = 0 ; i < i_Liste + 5 ; i++)
    3f78:	20 91 d1 12 	lds	r18, 0x12D1	; 0x8012d1 <i_Liste>
    3f7c:	30 e0       	ldi	r19, 0x00	; 0
    3f7e:	2b 5f       	subi	r18, 0xFB	; 251
    3f80:	3f 4f       	sbci	r19, 0xFF	; 255
    3f82:	80 e0       	ldi	r24, 0x00	; 0
    3f84:	90 e0       	ldi	r25, 0x00	; 0
        {
            aktueller_tag = aktueller_tag->prev;
    3f86:	06 80       	ldd	r0, Z+6	; 0x06
    3f88:	f7 81       	ldd	r31, Z+7	; 0x07
    3f8a:	e0 2d       	mov	r30, r0
        /*      0x06 = 0b06
                    - Wechsle auf Zutatenanzeige
                    -
        */
        aktueller_tag = tail_tag;
        for (int i = 0 ; i < i_Liste + 5 ; i++)
    3f8c:	01 96       	adiw	r24, 0x01	; 1
    3f8e:	82 17       	cp	r24, r18
    3f90:	93 07       	cpc	r25, r19
    3f92:	cc f3       	brlt	.-14     	; 0x3f86 <check_RFIDAnzeige1+0x1e4>
    3f94:	f0 93 8c 0b 	sts	0x0B8C, r31	; 0x800b8c <aktueller_tag+0x1>
    3f98:	e0 93 8b 0b 	sts	0x0B8B, r30	; 0x800b8b <aktueller_tag>
        {
            aktueller_tag = aktueller_tag->prev;
        }
        nextion_change_page(RFIDANZEIGE2);
    3f9c:	88 e1       	ldi	r24, 0x18	; 24
    3f9e:	0e 94 fd 2b 	call	0x57fa	; 0x57fa <nextion_change_page>
        i_Liste = 0;
    3fa2:	10 92 d1 12 	sts	0x12D1, r1	; 0x8012d1 <i_Liste>
        block_list_hoch = 0;
    3fa6:	10 92 9b 0e 	sts	0x0E9B, r1	; 0x800e9b <block_list_hoch>
        block_list_runter = 0;
    3faa:	10 92 80 0a 	sts	0x0A80, r1	; 0x800a80 <block_list_runter>
        erstelle_Liste_name("cocktail");
    3fae:	89 e3       	ldi	r24, 0x39	; 57
    3fb0:	93 e0       	ldi	r25, 0x03	; 3
    3fb2:	0e 94 57 08 	call	0x10ae	; 0x10ae <erstelle_Liste_name>
        break;
    3fb6:	ef c1       	rjmp	.+990    	; 0x4396 <check_RFIDAnzeige1+0x5f4>
    case RAUFLIST6:
        /*      0x07 = 0b07
                    - Wechsle auf Zutatenanzeige
                    -
        */
        block_list_runter = 0;
    3fb8:	10 92 80 0a 	sts	0x0A80, r1	; 0x800a80 <block_list_runter>
        if (!block_list_hoch)
    3fbc:	80 91 9b 0e 	lds	r24, 0x0E9B	; 0x800e9b <block_list_hoch>
    3fc0:	81 11       	cpse	r24, r1
    3fc2:	e9 c1       	rjmp	.+978    	; 0x4396 <check_RFIDAnzeige1+0x5f4>
        {
            i_Liste -=6;
    3fc4:	20 91 d1 12 	lds	r18, 0x12D1	; 0x8012d1 <i_Liste>
    3fc8:	26 50       	subi	r18, 0x06	; 6
    3fca:	20 93 d1 12 	sts	0x12D1, r18	; 0x8012d1 <i_Liste>

            // Getrnkedurchwahr bei Tail starten.
            aktueller_tag = tail_tag;
    3fce:	e0 91 92 0c 	lds	r30, 0x0C92	; 0x800c92 <tail_tag>
    3fd2:	f0 91 93 0c 	lds	r31, 0x0C93	; 0x800c93 <tail_tag+0x1>
    3fd6:	f0 93 8c 0b 	sts	0x0B8C, r31	; 0x800b8c <aktueller_tag+0x1>
    3fda:	e0 93 8b 0b 	sts	0x0B8B, r30	; 0x800b8b <aktueller_tag>

            // Shifte aktuelles Getrnk auf bestimmte Seite
            // (1. Seite: i_Liste = 0; 2. Seite: i_Liste = 8; ...)
            for (int i = 0 ; i < i_Liste ; i++)
    3fde:	30 e0       	ldi	r19, 0x00	; 0
    3fe0:	12 16       	cp	r1, r18
    3fe2:	13 06       	cpc	r1, r19
    3fe4:	6c f4       	brge	.+26     	; 0x4000 <check_RFIDAnzeige1+0x25e>
    3fe6:	80 e0       	ldi	r24, 0x00	; 0
    3fe8:	90 e0       	ldi	r25, 0x00	; 0
            {
                aktueller_tag = aktueller_tag->prev;
    3fea:	06 80       	ldd	r0, Z+6	; 0x06
    3fec:	f7 81       	ldd	r31, Z+7	; 0x07
    3fee:	e0 2d       	mov	r30, r0
            // Getrnkedurchwahr bei Tail starten.
            aktueller_tag = tail_tag;

            // Shifte aktuelles Getrnk auf bestimmte Seite
            // (1. Seite: i_Liste = 0; 2. Seite: i_Liste = 8; ...)
            for (int i = 0 ; i < i_Liste ; i++)
    3ff0:	01 96       	adiw	r24, 0x01	; 1
    3ff2:	82 17       	cp	r24, r18
    3ff4:	93 07       	cpc	r25, r19
    3ff6:	cc f3       	brlt	.-14     	; 0x3fea <check_RFIDAnzeige1+0x248>
    3ff8:	f0 93 8c 0b 	sts	0x0B8C, r31	; 0x800b8c <aktueller_tag+0x1>
    3ffc:	e0 93 8b 0b 	sts	0x0B8B, r30	; 0x800b8b <aktueller_tag>
                aktueller_tag = aktueller_tag->prev;
            }

            // Fr alle Buttons auf der Seite ...
            // Initialisierungen
            char button[21] = {'\0'};
    4000:	fe 01       	movw	r30, r28
    4002:	31 96       	adiw	r30, 0x01	; 1
    4004:	85 e1       	ldi	r24, 0x15	; 21
    4006:	df 01       	movw	r26, r30
    4008:	1d 92       	st	X+, r1
    400a:	8a 95       	dec	r24
    400c:	e9 f7       	brne	.-6      	; 0x4008 <check_RFIDAnzeige1+0x266>
            char buff[4] = {0};
    400e:	1a a6       	std	Y+42, r1	; 0x2a
    4010:	1b a6       	std	Y+43, r1	; 0x2b
    4012:	1c a6       	std	Y+44, r1	; 0x2c
    4014:	1d a6       	std	Y+45, r1	; 0x2d
            char buff10[20] = {'\0'};
    4016:	8e 01       	movw	r16, r28
    4018:	0a 5e       	subi	r16, 0xEA	; 234
    401a:	1f 4f       	sbci	r17, 0xFF	; 255
    401c:	84 e1       	ldi	r24, 0x14	; 20
    401e:	f8 01       	movw	r30, r16
    4020:	11 92       	st	Z+, r1
    4022:	8a 95       	dec	r24
    4024:	e9 f7       	brne	.-6      	; 0x4020 <check_RFIDAnzeige1+0x27e>
            strcat((char *)buff10, "rfid");
    4026:	d8 01       	movw	r26, r16
    4028:	0d 90       	ld	r0, X+
    402a:	00 20       	and	r0, r0
    402c:	e9 f7       	brne	.-6      	; 0x4028 <check_RFIDAnzeige1+0x286>
    402e:	11 97       	sbiw	r26, 0x01	; 1
    4030:	85 e0       	ldi	r24, 0x05	; 5
    4032:	e7 e4       	ldi	r30, 0x47	; 71
    4034:	f5 e0       	ldi	r31, 0x05	; 5
    4036:	01 90       	ld	r0, Z+
    4038:	0d 92       	st	X+, r0
    403a:	8a 95       	dec	r24
    403c:	e1 f7       	brne	.-8      	; 0x4036 <check_RFIDAnzeige1+0x294>
    403e:	80 91 8d 0b 	lds	r24, 0x0B8D	; 0x800b8d <i>
    4042:	90 91 8e 0b 	lds	r25, 0x0B8E	; 0x800b8e <i+0x1>
    4046:	4a e0       	ldi	r20, 0x0A	; 10
    4048:	be 01       	movw	r22, r28
    404a:	66 5d       	subi	r22, 0xD6	; 214
    404c:	7f 4f       	sbci	r23, 0xFF	; 255
    404e:	01 96       	adiw	r24, 0x01	; 1
    4050:	0e 94 be 48 	call	0x917c	; 0x917c <__itoa_ncheck>
            itoa((i + 1), (char *)buff, 10);
            strcat((char *)buff10, (const char *)buff);
    4054:	be 01       	movw	r22, r28
    4056:	66 5d       	subi	r22, 0xD6	; 214
    4058:	7f 4f       	sbci	r23, 0xFF	; 255
    405a:	c8 01       	movw	r24, r16
    405c:	0e 94 7c 48 	call	0x90f8	; 0x90f8 <strcat>

            nextion_enableButton(buff10);
    4060:	c8 01       	movw	r24, r16
    4062:	0e 94 fe 2c 	call	0x59fc	; 0x59fc <nextion_enableButton>

            for (int i = 0 ; i < 6 ; i++)
    4066:	00 e0       	ldi	r16, 0x00	; 0
    4068:	10 e0       	ldi	r17, 0x00	; 0

                // Falls das untere Ende der Liste erreicht wurde und liste noch nicht blockiert ist,
                // runterscrollen blockieren und letzter Name einschreiben.
                if (aktueller_tag == head_tag && !block_list_runter)
                {
                    block_list_runter = 1;
    406a:	ff 24       	eor	r15, r15
    406c:	f3 94       	inc	r15
            nextion_enableButton(buff10);

            for (int i = 0 ; i < 6 ; i++)
            {
                // Schreibe Zahl und Name des Buttons in String
                itoa((i + 1),buff,10);
    406e:	0f 5f       	subi	r16, 0xFF	; 255
    4070:	1f 4f       	sbci	r17, 0xFF	; 255
    4072:	4a e0       	ldi	r20, 0x0A	; 10
    4074:	be 01       	movw	r22, r28
    4076:	66 5d       	subi	r22, 0xD6	; 214
    4078:	7f 4f       	sbci	r23, 0xFF	; 255
    407a:	c8 01       	movw	r24, r16
    407c:	0e 94 be 48 	call	0x917c	; 0x917c <__itoa_ncheck>
                strcpy((char *)button, "rfid");
    4080:	85 e0       	ldi	r24, 0x05	; 5
    4082:	e7 e4       	ldi	r30, 0x47	; 71
    4084:	f5 e0       	ldi	r31, 0x05	; 5
    4086:	de 01       	movw	r26, r28
    4088:	11 96       	adiw	r26, 0x01	; 1
    408a:	01 90       	ld	r0, Z+
    408c:	0d 92       	st	X+, r0
    408e:	8a 95       	dec	r24
    4090:	e1 f7       	brne	.-8      	; 0x408a <check_RFIDAnzeige1+0x2e8>
                strcat((char *)button, (const char *)buff);
    4092:	be 01       	movw	r22, r28
    4094:	66 5d       	subi	r22, 0xD6	; 214
    4096:	7f 4f       	sbci	r23, 0xFF	; 255
    4098:	ce 01       	movw	r24, r28
    409a:	01 96       	adiw	r24, 0x01	; 1
    409c:	0e 94 7c 48 	call	0x90f8	; 0x90f8 <strcat>

                // Falls das untere Ende der Liste erreicht wurde und liste noch nicht blockiert ist,
                // runterscrollen blockieren und letzter Name einschreiben.
                if (aktueller_tag == head_tag && !block_list_runter)
    40a0:	e0 91 8b 0b 	lds	r30, 0x0B8B	; 0x800b8b <aktueller_tag>
    40a4:	f0 91 8c 0b 	lds	r31, 0x0B8C	; 0x800b8c <aktueller_tag+0x1>
    40a8:	80 91 4a 0a 	lds	r24, 0x0A4A	; 0x800a4a <head_tag>
    40ac:	90 91 4b 0a 	lds	r25, 0x0A4B	; 0x800a4b <head_tag+0x1>
    40b0:	e8 17       	cp	r30, r24
    40b2:	f9 07       	cpc	r31, r25
    40b4:	b1 f4       	brne	.+44     	; 0x40e2 <check_RFIDAnzeige1+0x340>
    40b6:	80 91 80 0a 	lds	r24, 0x0A80	; 0x800a80 <block_list_runter>
    40ba:	81 11       	cpse	r24, r1
    40bc:	16 c0       	rjmp	.+44     	; 0x40ea <check_RFIDAnzeige1+0x348>
                {
                    block_list_runter = 1;
    40be:	f0 92 80 0a 	sts	0x0A80, r15	; 0x800a80 <block_list_runter>
    40c2:	82 81       	ldd	r24, Z+2	; 0x02
    40c4:	4a e0       	ldi	r20, 0x0A	; 10
    40c6:	be 01       	movw	r22, r28
    40c8:	66 5d       	subi	r22, 0xD6	; 214
    40ca:	7f 4f       	sbci	r23, 0xFF	; 255
    40cc:	90 e0       	ldi	r25, 0x00	; 0
    40ce:	0e 94 be 48 	call	0x917c	; 0x917c <__itoa_ncheck>
                    itoa(aktueller_tag->tag_nummer, (char *)buff, 10);
                    nextion_setText(button, buff);
    40d2:	be 01       	movw	r22, r28
    40d4:	66 5d       	subi	r22, 0xD6	; 214
    40d6:	7f 4f       	sbci	r23, 0xFF	; 255
    40d8:	ce 01       	movw	r24, r28
    40da:	01 96       	adiw	r24, 0x01	; 1
    40dc:	0e 94 1c 2c 	call	0x5838	; 0x5838 <nextion_setText>
    40e0:	3b c0       	rjmp	.+118    	; 0x4158 <check_RFIDAnzeige1+0x3b6>
                }

                // Falls die Liste blockiert ist, Leeren String in das Feld schreiben und
                // die Buttons disablen
                else if (block_list_runter)
    40e2:	80 91 80 0a 	lds	r24, 0x0A80	; 0x800a80 <block_list_runter>
    40e6:	88 23       	and	r24, r24
    40e8:	41 f1       	breq	.+80     	; 0x413a <check_RFIDAnzeige1+0x398>
                {
                    // leerer String
                    nextion_setText(button,"");
    40ea:	6c e8       	ldi	r22, 0x8C	; 140
    40ec:	74 e0       	ldi	r23, 0x04	; 4
    40ee:	ce 01       	movw	r24, r28
    40f0:	01 96       	adiw	r24, 0x01	; 1
    40f2:	0e 94 1c 2c 	call	0x5838	; 0x5838 <nextion_setText>
    40f6:	8f e3       	ldi	r24, 0x3F	; 63
    40f8:	9c e9       	ldi	r25, 0x9C	; 156
    40fa:	01 97       	sbiw	r24, 0x01	; 1
    40fc:	f1 f7       	brne	.-4      	; 0x40fa <check_RFIDAnzeige1+0x358>
    40fe:	00 c0       	rjmp	.+0      	; 0x4100 <check_RFIDAnzeige1+0x35e>
    4100:	00 00       	nop

                    // Sicherheitsdelay, Programm strzt sonst ab
                    _delay_ms(10);

                    // Schreibe Text und Buttonnummer fr disable in String
                    strcpy((char *)buff10, "rfid");
    4102:	85 e0       	ldi	r24, 0x05	; 5
    4104:	e7 e4       	ldi	r30, 0x47	; 71
    4106:	f5 e0       	ldi	r31, 0x05	; 5
    4108:	de 01       	movw	r26, r28
    410a:	56 96       	adiw	r26, 0x16	; 22
    410c:	01 90       	ld	r0, Z+
    410e:	0d 92       	st	X+, r0
    4110:	8a 95       	dec	r24
    4112:	e1 f7       	brne	.-8      	; 0x410c <check_RFIDAnzeige1+0x36a>
    4114:	4a e0       	ldi	r20, 0x0A	; 10
    4116:	be 01       	movw	r22, r28
    4118:	66 5d       	subi	r22, 0xD6	; 214
    411a:	7f 4f       	sbci	r23, 0xFF	; 255
    411c:	c8 01       	movw	r24, r16
    411e:	0e 94 be 48 	call	0x917c	; 0x917c <__itoa_ncheck>
                    itoa((i + 1), (char *)buff, 10);
                    strcat((char *)buff10, (const char *)buff);
    4122:	be 01       	movw	r22, r28
    4124:	66 5d       	subi	r22, 0xD6	; 214
    4126:	7f 4f       	sbci	r23, 0xFF	; 255
    4128:	ce 01       	movw	r24, r28
    412a:	46 96       	adiw	r24, 0x16	; 22
    412c:	0e 94 7c 48 	call	0x90f8	; 0x90f8 <strcat>

                    // Disable Button
                    nextion_disableButton(buff10);
    4130:	ce 01       	movw	r24, r28
    4132:	46 96       	adiw	r24, 0x16	; 22
    4134:	0e 94 c5 2c 	call	0x598a	; 0x598a <nextion_disableButton>
    4138:	0f c0       	rjmp	.+30     	; 0x4158 <check_RFIDAnzeige1+0x3b6>
    413a:	82 81       	ldd	r24, Z+2	; 0x02
    413c:	4a e0       	ldi	r20, 0x0A	; 10
    413e:	be 01       	movw	r22, r28
    4140:	66 5d       	subi	r22, 0xD6	; 214
    4142:	7f 4f       	sbci	r23, 0xFF	; 255
    4144:	90 e0       	ldi	r25, 0x00	; 0
    4146:	0e 94 be 48 	call	0x917c	; 0x917c <__itoa_ncheck>

                //Falls Eintrag dazwischen, Name einschreiben (Normalbetrieb)
                else
                {
                    itoa(aktueller_tag->tag_nummer, (char *)buff, 10);
                    nextion_setText(button, buff);
    414a:	be 01       	movw	r22, r28
    414c:	66 5d       	subi	r22, 0xD6	; 214
    414e:	7f 4f       	sbci	r23, 0xFF	; 255
    4150:	ce 01       	movw	r24, r28
    4152:	01 96       	adiw	r24, 0x01	; 1
    4154:	0e 94 1c 2c 	call	0x5838	; 0x5838 <nextion_setText>
                }

                // Falls das obere Ende der Liste erreicht wird, hochscrollen blockieren
                if(aktueller_tag == tail_tag && !block_list_runter)
    4158:	e0 91 8b 0b 	lds	r30, 0x0B8B	; 0x800b8b <aktueller_tag>
    415c:	f0 91 8c 0b 	lds	r31, 0x0B8C	; 0x800b8c <aktueller_tag+0x1>
    4160:	80 91 92 0c 	lds	r24, 0x0C92	; 0x800c92 <tail_tag>
    4164:	90 91 93 0c 	lds	r25, 0x0C93	; 0x800c93 <tail_tag+0x1>
    4168:	e8 17       	cp	r30, r24
    416a:	f9 07       	cpc	r31, r25
    416c:	31 f4       	brne	.+12     	; 0x417a <check_RFIDAnzeige1+0x3d8>
    416e:	80 91 80 0a 	lds	r24, 0x0A80	; 0x800a80 <block_list_runter>
    4172:	81 11       	cpse	r24, r1
    4174:	02 c0       	rjmp	.+4      	; 0x417a <check_RFIDAnzeige1+0x3d8>
                {
                    block_list_hoch = 1;
    4176:	f0 92 9b 0e 	sts	0x0E9B, r15	; 0x800e9b <block_list_hoch>
                }

                // Ein Getraenk weiter Scrollen
                aktueller_tag = aktueller_tag->prev;
    417a:	86 81       	ldd	r24, Z+6	; 0x06
    417c:	97 81       	ldd	r25, Z+7	; 0x07
    417e:	90 93 8c 0b 	sts	0x0B8C, r25	; 0x800b8c <aktueller_tag+0x1>
    4182:	80 93 8b 0b 	sts	0x0B8B, r24	; 0x800b8b <aktueller_tag>
    4186:	af e3       	ldi	r26, 0x3F	; 63
    4188:	bc e9       	ldi	r27, 0x9C	; 156
    418a:	11 97       	sbiw	r26, 0x01	; 1
    418c:	f1 f7       	brne	.-4      	; 0x418a <check_RFIDAnzeige1+0x3e8>
    418e:	00 c0       	rjmp	.+0      	; 0x4190 <check_RFIDAnzeige1+0x3ee>
    4190:	00 00       	nop
            itoa((i + 1), (char *)buff, 10);
            strcat((char *)buff10, (const char *)buff);

            nextion_enableButton(buff10);

            for (int i = 0 ; i < 6 ; i++)
    4192:	06 30       	cpi	r16, 0x06	; 6
    4194:	11 05       	cpc	r17, r1
    4196:	09 f0       	breq	.+2      	; 0x419a <check_RFIDAnzeige1+0x3f8>
    4198:	6a cf       	rjmp	.-300    	; 0x406e <check_RFIDAnzeige1+0x2cc>
    419a:	fd c0       	rjmp	.+506    	; 0x4396 <check_RFIDAnzeige1+0x5f4>
    case RUNTERLIST6:
        /*      0x08 = 0b08
                    - Wechsle auf Zutatenanzeige
                    -
        */
        block_list_hoch = 0;
    419c:	10 92 9b 0e 	sts	0x0E9B, r1	; 0x800e9b <block_list_hoch>
        if (!block_list_runter)
    41a0:	80 91 80 0a 	lds	r24, 0x0A80	; 0x800a80 <block_list_runter>
    41a4:	81 11       	cpse	r24, r1
    41a6:	f7 c0       	rjmp	.+494    	; 0x4396 <check_RFIDAnzeige1+0x5f4>
        {
            i_Liste +=6;
    41a8:	20 91 d1 12 	lds	r18, 0x12D1	; 0x8012d1 <i_Liste>
    41ac:	2a 5f       	subi	r18, 0xFA	; 250
    41ae:	20 93 d1 12 	sts	0x12D1, r18	; 0x8012d1 <i_Liste>
            // Getrnkedurchwahr bei Tail starten.
            aktueller_tag = tail_tag;
    41b2:	e0 91 92 0c 	lds	r30, 0x0C92	; 0x800c92 <tail_tag>
    41b6:	f0 91 93 0c 	lds	r31, 0x0C93	; 0x800c93 <tail_tag+0x1>
    41ba:	f0 93 8c 0b 	sts	0x0B8C, r31	; 0x800b8c <aktueller_tag+0x1>
    41be:	e0 93 8b 0b 	sts	0x0B8B, r30	; 0x800b8b <aktueller_tag>

            // Shifte aktuelles Getrnk auf bestimmte Seite
            // (1. Seite: i_Liste = 0; 2. Seite: i_Liste = 8; ...)
            for (int i = 0 ; i < i_Liste ; i++)
    41c2:	30 e0       	ldi	r19, 0x00	; 0
    41c4:	12 16       	cp	r1, r18
    41c6:	13 06       	cpc	r1, r19
    41c8:	6c f4       	brge	.+26     	; 0x41e4 <check_RFIDAnzeige1+0x442>
    41ca:	80 e0       	ldi	r24, 0x00	; 0
    41cc:	90 e0       	ldi	r25, 0x00	; 0
            {
                aktueller_tag = aktueller_tag->prev;
    41ce:	06 80       	ldd	r0, Z+6	; 0x06
    41d0:	f7 81       	ldd	r31, Z+7	; 0x07
    41d2:	e0 2d       	mov	r30, r0
            // Getrnkedurchwahr bei Tail starten.
            aktueller_tag = tail_tag;

            // Shifte aktuelles Getrnk auf bestimmte Seite
            // (1. Seite: i_Liste = 0; 2. Seite: i_Liste = 8; ...)
            for (int i = 0 ; i < i_Liste ; i++)
    41d4:	01 96       	adiw	r24, 0x01	; 1
    41d6:	82 17       	cp	r24, r18
    41d8:	93 07       	cpc	r25, r19
    41da:	cc f3       	brlt	.-14     	; 0x41ce <check_RFIDAnzeige1+0x42c>
    41dc:	f0 93 8c 0b 	sts	0x0B8C, r31	; 0x800b8c <aktueller_tag+0x1>
    41e0:	e0 93 8b 0b 	sts	0x0B8B, r30	; 0x800b8b <aktueller_tag>
                aktueller_tag = aktueller_tag->prev;
            }

            // Fr alle Buttons auf der Seite ...
            // Initialisierungen
            char button[21] = {'\0'};
    41e4:	fe 01       	movw	r30, r28
    41e6:	31 96       	adiw	r30, 0x01	; 1
    41e8:	85 e1       	ldi	r24, 0x15	; 21
    41ea:	df 01       	movw	r26, r30
    41ec:	1d 92       	st	X+, r1
    41ee:	8a 95       	dec	r24
    41f0:	e9 f7       	brne	.-6      	; 0x41ec <check_RFIDAnzeige1+0x44a>
            char buff[4] = {0};
    41f2:	1a a6       	std	Y+42, r1	; 0x2a
    41f4:	1b a6       	std	Y+43, r1	; 0x2b
    41f6:	1c a6       	std	Y+44, r1	; 0x2c
    41f8:	1d a6       	std	Y+45, r1	; 0x2d
            char buff10[20] = {'\0'};
    41fa:	8e 01       	movw	r16, r28
    41fc:	0a 5e       	subi	r16, 0xEA	; 234
    41fe:	1f 4f       	sbci	r17, 0xFF	; 255
    4200:	84 e1       	ldi	r24, 0x14	; 20
    4202:	f8 01       	movw	r30, r16
    4204:	11 92       	st	Z+, r1
    4206:	8a 95       	dec	r24
    4208:	e9 f7       	brne	.-6      	; 0x4204 <check_RFIDAnzeige1+0x462>
            strcat((char *)buff10, "rfid");
    420a:	d8 01       	movw	r26, r16
    420c:	0d 90       	ld	r0, X+
    420e:	00 20       	and	r0, r0
    4210:	e9 f7       	brne	.-6      	; 0x420c <check_RFIDAnzeige1+0x46a>
    4212:	11 97       	sbiw	r26, 0x01	; 1
    4214:	85 e0       	ldi	r24, 0x05	; 5
    4216:	e7 e4       	ldi	r30, 0x47	; 71
    4218:	f5 e0       	ldi	r31, 0x05	; 5
    421a:	01 90       	ld	r0, Z+
    421c:	0d 92       	st	X+, r0
    421e:	8a 95       	dec	r24
    4220:	e1 f7       	brne	.-8      	; 0x421a <check_RFIDAnzeige1+0x478>
    4222:	80 91 8d 0b 	lds	r24, 0x0B8D	; 0x800b8d <i>
    4226:	90 91 8e 0b 	lds	r25, 0x0B8E	; 0x800b8e <i+0x1>
    422a:	4a e0       	ldi	r20, 0x0A	; 10
    422c:	be 01       	movw	r22, r28
    422e:	66 5d       	subi	r22, 0xD6	; 214
    4230:	7f 4f       	sbci	r23, 0xFF	; 255
    4232:	01 96       	adiw	r24, 0x01	; 1
    4234:	0e 94 be 48 	call	0x917c	; 0x917c <__itoa_ncheck>
            itoa((i + 1), (char *)buff, 10);
            strcat((char *)buff10, (const char *)buff);
    4238:	be 01       	movw	r22, r28
    423a:	66 5d       	subi	r22, 0xD6	; 214
    423c:	7f 4f       	sbci	r23, 0xFF	; 255
    423e:	c8 01       	movw	r24, r16
    4240:	0e 94 7c 48 	call	0x90f8	; 0x90f8 <strcat>

            nextion_enableButton(buff10);
    4244:	c8 01       	movw	r24, r16
    4246:	0e 94 fe 2c 	call	0x59fc	; 0x59fc <nextion_enableButton>

            for (int i = 0 ; i < 6 ; i++)
    424a:	00 e0       	ldi	r16, 0x00	; 0
    424c:	10 e0       	ldi	r17, 0x00	; 0

                // Falls das untere Ende der Liste erreicht wurde und liste noch nicht blockiert ist,
                // runterscrollen blockieren und letzter Name einschreiben.
                if (aktueller_tag == head_tag && !block_list_runter)
                {
                    block_list_runter = 1;
    424e:	ff 24       	eor	r15, r15
    4250:	f3 94       	inc	r15
            nextion_enableButton(buff10);

            for (int i = 0 ; i < 6 ; i++)
            {
                // Schreibe Zahl und Name des Buttons in String
                itoa((i + 1),buff,10);
    4252:	0f 5f       	subi	r16, 0xFF	; 255
    4254:	1f 4f       	sbci	r17, 0xFF	; 255
    4256:	4a e0       	ldi	r20, 0x0A	; 10
    4258:	be 01       	movw	r22, r28
    425a:	66 5d       	subi	r22, 0xD6	; 214
    425c:	7f 4f       	sbci	r23, 0xFF	; 255
    425e:	c8 01       	movw	r24, r16
    4260:	0e 94 be 48 	call	0x917c	; 0x917c <__itoa_ncheck>
                strcpy((char *)button, "rfid");
    4264:	85 e0       	ldi	r24, 0x05	; 5
    4266:	e7 e4       	ldi	r30, 0x47	; 71
    4268:	f5 e0       	ldi	r31, 0x05	; 5
    426a:	de 01       	movw	r26, r28
    426c:	11 96       	adiw	r26, 0x01	; 1
    426e:	01 90       	ld	r0, Z+
    4270:	0d 92       	st	X+, r0
    4272:	8a 95       	dec	r24
    4274:	e1 f7       	brne	.-8      	; 0x426e <check_RFIDAnzeige1+0x4cc>
                strcat((char *)button, (const char *)buff);
    4276:	be 01       	movw	r22, r28
    4278:	66 5d       	subi	r22, 0xD6	; 214
    427a:	7f 4f       	sbci	r23, 0xFF	; 255
    427c:	ce 01       	movw	r24, r28
    427e:	01 96       	adiw	r24, 0x01	; 1
    4280:	0e 94 7c 48 	call	0x90f8	; 0x90f8 <strcat>

                // Falls das untere Ende der Liste erreicht wurde und liste noch nicht blockiert ist,
                // runterscrollen blockieren und letzter Name einschreiben.
                if (aktueller_tag == head_tag && !block_list_runter)
    4284:	e0 91 8b 0b 	lds	r30, 0x0B8B	; 0x800b8b <aktueller_tag>
    4288:	f0 91 8c 0b 	lds	r31, 0x0B8C	; 0x800b8c <aktueller_tag+0x1>
    428c:	80 91 4a 0a 	lds	r24, 0x0A4A	; 0x800a4a <head_tag>
    4290:	90 91 4b 0a 	lds	r25, 0x0A4B	; 0x800a4b <head_tag+0x1>
    4294:	e8 17       	cp	r30, r24
    4296:	f9 07       	cpc	r31, r25
    4298:	b1 f4       	brne	.+44     	; 0x42c6 <check_RFIDAnzeige1+0x524>
    429a:	80 91 80 0a 	lds	r24, 0x0A80	; 0x800a80 <block_list_runter>
    429e:	81 11       	cpse	r24, r1
    42a0:	16 c0       	rjmp	.+44     	; 0x42ce <check_RFIDAnzeige1+0x52c>
                {
                    block_list_runter = 1;
    42a2:	f0 92 80 0a 	sts	0x0A80, r15	; 0x800a80 <block_list_runter>
    42a6:	82 81       	ldd	r24, Z+2	; 0x02
    42a8:	4a e0       	ldi	r20, 0x0A	; 10
    42aa:	be 01       	movw	r22, r28
    42ac:	66 5d       	subi	r22, 0xD6	; 214
    42ae:	7f 4f       	sbci	r23, 0xFF	; 255
    42b0:	90 e0       	ldi	r25, 0x00	; 0
    42b2:	0e 94 be 48 	call	0x917c	; 0x917c <__itoa_ncheck>
                    itoa(aktueller_tag->tag_nummer, (char *)buff, 10);
                    nextion_setText(button, buff);
    42b6:	be 01       	movw	r22, r28
    42b8:	66 5d       	subi	r22, 0xD6	; 214
    42ba:	7f 4f       	sbci	r23, 0xFF	; 255
    42bc:	ce 01       	movw	r24, r28
    42be:	01 96       	adiw	r24, 0x01	; 1
    42c0:	0e 94 1c 2c 	call	0x5838	; 0x5838 <nextion_setText>
    42c4:	3b c0       	rjmp	.+118    	; 0x433c <check_RFIDAnzeige1+0x59a>
                }

                // Falls die Liste blockiert ist, Leeren String in das Feld schreiben und
                // die Buttons disablen
                else if (block_list_runter)
    42c6:	80 91 80 0a 	lds	r24, 0x0A80	; 0x800a80 <block_list_runter>
    42ca:	88 23       	and	r24, r24
    42cc:	41 f1       	breq	.+80     	; 0x431e <check_RFIDAnzeige1+0x57c>
                {
                    // leerer String
                    nextion_setText(button,"");
    42ce:	6c e8       	ldi	r22, 0x8C	; 140
    42d0:	74 e0       	ldi	r23, 0x04	; 4
    42d2:	ce 01       	movw	r24, r28
    42d4:	01 96       	adiw	r24, 0x01	; 1
    42d6:	0e 94 1c 2c 	call	0x5838	; 0x5838 <nextion_setText>
    42da:	8f e3       	ldi	r24, 0x3F	; 63
    42dc:	9c e9       	ldi	r25, 0x9C	; 156
    42de:	01 97       	sbiw	r24, 0x01	; 1
    42e0:	f1 f7       	brne	.-4      	; 0x42de <check_RFIDAnzeige1+0x53c>
    42e2:	00 c0       	rjmp	.+0      	; 0x42e4 <check_RFIDAnzeige1+0x542>
    42e4:	00 00       	nop

                    // Sicherheitsdelay, Programm strzt sonst ab
                    _delay_ms(10);

                    // Schreibe Text und Buttonnummer fr disable in String
                    strcpy((char *)buff10, "rfid");
    42e6:	85 e0       	ldi	r24, 0x05	; 5
    42e8:	e7 e4       	ldi	r30, 0x47	; 71
    42ea:	f5 e0       	ldi	r31, 0x05	; 5
    42ec:	de 01       	movw	r26, r28
    42ee:	56 96       	adiw	r26, 0x16	; 22
    42f0:	01 90       	ld	r0, Z+
    42f2:	0d 92       	st	X+, r0
    42f4:	8a 95       	dec	r24
    42f6:	e1 f7       	brne	.-8      	; 0x42f0 <check_RFIDAnzeige1+0x54e>
    42f8:	4a e0       	ldi	r20, 0x0A	; 10
    42fa:	be 01       	movw	r22, r28
    42fc:	66 5d       	subi	r22, 0xD6	; 214
    42fe:	7f 4f       	sbci	r23, 0xFF	; 255
    4300:	c8 01       	movw	r24, r16
    4302:	0e 94 be 48 	call	0x917c	; 0x917c <__itoa_ncheck>
                    itoa((i + 1), (char *)buff, 10);
                    strcat((char *)buff10, (const char *)buff);
    4306:	be 01       	movw	r22, r28
    4308:	66 5d       	subi	r22, 0xD6	; 214
    430a:	7f 4f       	sbci	r23, 0xFF	; 255
    430c:	ce 01       	movw	r24, r28
    430e:	46 96       	adiw	r24, 0x16	; 22
    4310:	0e 94 7c 48 	call	0x90f8	; 0x90f8 <strcat>

                    // Disable Button
                    nextion_disableButton(buff10);
    4314:	ce 01       	movw	r24, r28
    4316:	46 96       	adiw	r24, 0x16	; 22
    4318:	0e 94 c5 2c 	call	0x598a	; 0x598a <nextion_disableButton>
    431c:	0f c0       	rjmp	.+30     	; 0x433c <check_RFIDAnzeige1+0x59a>
    431e:	82 81       	ldd	r24, Z+2	; 0x02
    4320:	4a e0       	ldi	r20, 0x0A	; 10
    4322:	be 01       	movw	r22, r28
    4324:	66 5d       	subi	r22, 0xD6	; 214
    4326:	7f 4f       	sbci	r23, 0xFF	; 255
    4328:	90 e0       	ldi	r25, 0x00	; 0
    432a:	0e 94 be 48 	call	0x917c	; 0x917c <__itoa_ncheck>

                //Falls Eintrag dazwischen, Name einschreiben (Normalbetrieb)
                else
                {
                    itoa(aktueller_tag->tag_nummer, (char *)buff, 10);
                    nextion_setText(button, buff);
    432e:	be 01       	movw	r22, r28
    4330:	66 5d       	subi	r22, 0xD6	; 214
    4332:	7f 4f       	sbci	r23, 0xFF	; 255
    4334:	ce 01       	movw	r24, r28
    4336:	01 96       	adiw	r24, 0x01	; 1
    4338:	0e 94 1c 2c 	call	0x5838	; 0x5838 <nextion_setText>
                }

                // Falls das obere Ende der Liste erreicht wird, hochscrollen blockieren
                if(aktueller_tag == tail_tag && !block_list_runter)
    433c:	e0 91 8b 0b 	lds	r30, 0x0B8B	; 0x800b8b <aktueller_tag>
    4340:	f0 91 8c 0b 	lds	r31, 0x0B8C	; 0x800b8c <aktueller_tag+0x1>
    4344:	80 91 92 0c 	lds	r24, 0x0C92	; 0x800c92 <tail_tag>
    4348:	90 91 93 0c 	lds	r25, 0x0C93	; 0x800c93 <tail_tag+0x1>
    434c:	e8 17       	cp	r30, r24
    434e:	f9 07       	cpc	r31, r25
    4350:	31 f4       	brne	.+12     	; 0x435e <check_RFIDAnzeige1+0x5bc>
    4352:	80 91 80 0a 	lds	r24, 0x0A80	; 0x800a80 <block_list_runter>
    4356:	81 11       	cpse	r24, r1
    4358:	02 c0       	rjmp	.+4      	; 0x435e <check_RFIDAnzeige1+0x5bc>
                {
                    block_list_hoch = 1;
    435a:	f0 92 9b 0e 	sts	0x0E9B, r15	; 0x800e9b <block_list_hoch>
                }

                // Ein Getraenk weiter Scrollen
                aktueller_tag = aktueller_tag->prev;
    435e:	86 81       	ldd	r24, Z+6	; 0x06
    4360:	97 81       	ldd	r25, Z+7	; 0x07
    4362:	90 93 8c 0b 	sts	0x0B8C, r25	; 0x800b8c <aktueller_tag+0x1>
    4366:	80 93 8b 0b 	sts	0x0B8B, r24	; 0x800b8b <aktueller_tag>
    436a:	af e3       	ldi	r26, 0x3F	; 63
    436c:	bc e9       	ldi	r27, 0x9C	; 156
    436e:	11 97       	sbiw	r26, 0x01	; 1
    4370:	f1 f7       	brne	.-4      	; 0x436e <check_RFIDAnzeige1+0x5cc>
    4372:	00 c0       	rjmp	.+0      	; 0x4374 <check_RFIDAnzeige1+0x5d2>
    4374:	00 00       	nop
            itoa((i + 1), (char *)buff, 10);
            strcat((char *)buff10, (const char *)buff);

            nextion_enableButton(buff10);

            for (int i = 0 ; i < 6 ; i++)
    4376:	06 30       	cpi	r16, 0x06	; 6
    4378:	11 05       	cpc	r17, r1
    437a:	09 f0       	breq	.+2      	; 0x437e <check_RFIDAnzeige1+0x5dc>
    437c:	6a cf       	rjmp	.-300    	; 0x4252 <check_RFIDAnzeige1+0x4b0>
    437e:	0b c0       	rjmp	.+22     	; 0x4396 <check_RFIDAnzeige1+0x5f4>
    case ZURUECK5:
        /*      0x09 = 0b09
                    - Wechsle auf Zutatenanzeige
                    -
        */
        nextion_change_page(STARTANZEIGE);
    4380:	81 e0       	ldi	r24, 0x01	; 1
    4382:	0e 94 fd 2b 	call	0x57fa	; 0x57fa <nextion_change_page>
        setze_startanzeige(aktuellesGetraenk);
    4386:	80 91 0b 13 	lds	r24, 0x130B	; 0x80130b <aktuellesGetraenk>
    438a:	90 91 0c 13 	lds	r25, 0x130C	; 0x80130c <aktuellesGetraenk+0x1>
    438e:	0e 94 0c 04 	call	0x818	; 0x818 <setze_startanzeige>
        i_Liste = 0;
    4392:	10 92 d1 12 	sts	0x12D1, r1	; 0x8012d1 <i_Liste>
        break;
    }
}
    4396:	ad 96       	adiw	r28, 0x2d	; 45
    4398:	0f b6       	in	r0, 0x3f	; 63
    439a:	f8 94       	cli
    439c:	de bf       	out	0x3e, r29	; 62
    439e:	0f be       	out	0x3f, r0	; 63
    43a0:	cd bf       	out	0x3d, r28	; 61
    43a2:	df 91       	pop	r29
    43a4:	cf 91       	pop	r28
    43a6:	1f 91       	pop	r17
    43a8:	0f 91       	pop	r16
    43aa:	ff 90       	pop	r15
    43ac:	08 95       	ret

000043ae <schreibe_Getraenk_in_tag>:

void schreibe_Getraenk_in_tag(uint8_t nr)
{
    43ae:	ef 92       	push	r14
    43b0:	ff 92       	push	r15
    43b2:	0f 93       	push	r16
    43b4:	1f 93       	push	r17
    43b6:	cf 93       	push	r28
    43b8:	df 93       	push	r29
    43ba:	cd b7       	in	r28, 0x3d	; 61
    43bc:	de b7       	in	r29, 0x3e	; 62
    43be:	c5 50       	subi	r28, 0x05	; 5
    43c0:	d2 40       	sbci	r29, 0x02	; 2
    43c2:	0f b6       	in	r0, 0x3f	; 63
    43c4:	f8 94       	cli
    43c6:	de bf       	out	0x3e, r29	; 62
    43c8:	0f be       	out	0x3f, r0	; 63
    43ca:	cd bf       	out	0x3d, r28	; 61
    aktuellesGetraenk_file = tail_getraenk_file;
    43cc:	e0 91 37 0a 	lds	r30, 0x0A37	; 0x800a37 <tail_getraenk_file>
    43d0:	f0 91 38 0a 	lds	r31, 0x0A38	; 0x800a38 <tail_getraenk_file+0x1>
    43d4:	f0 93 78 0a 	sts	0x0A78, r31	; 0x800a78 <aktuellesGetraenk_file+0x1>
    43d8:	e0 93 77 0a 	sts	0x0A77, r30	; 0x800a77 <aktuellesGetraenk_file>
    for(int count = 0 ; count < (i_Liste + nr) ; count++)
    43dc:	20 91 d1 12 	lds	r18, 0x12D1	; 0x8012d1 <i_Liste>
    43e0:	90 e0       	ldi	r25, 0x00	; 0
    43e2:	82 0f       	add	r24, r18
    43e4:	91 1d       	adc	r25, r1
    43e6:	18 16       	cp	r1, r24
    43e8:	19 06       	cpc	r1, r25
    43ea:	74 f4       	brge	.+28     	; 0x4408 <schreibe_Getraenk_in_tag+0x5a>
    43ec:	20 e0       	ldi	r18, 0x00	; 0
    43ee:	30 e0       	ldi	r19, 0x00	; 0
    {
        aktuellesGetraenk_file = aktuellesGetraenk_file->prev;
    43f0:	03 80       	ldd	r0, Z+3	; 0x03
    43f2:	f4 81       	ldd	r31, Z+4	; 0x04
    43f4:	e0 2d       	mov	r30, r0
}

void schreibe_Getraenk_in_tag(uint8_t nr)
{
    aktuellesGetraenk_file = tail_getraenk_file;
    for(int count = 0 ; count < (i_Liste + nr) ; count++)
    43f6:	2f 5f       	subi	r18, 0xFF	; 255
    43f8:	3f 4f       	sbci	r19, 0xFF	; 255
    43fa:	28 17       	cp	r18, r24
    43fc:	39 07       	cpc	r19, r25
    43fe:	c1 f7       	brne	.-16     	; 0x43f0 <schreibe_Getraenk_in_tag+0x42>
    4400:	f0 93 78 0a 	sts	0x0A78, r31	; 0x800a78 <aktuellesGetraenk_file+0x1>
    4404:	e0 93 77 0a 	sts	0x0A77, r30	; 0x800a77 <aktuellesGetraenk_file>
    {
        aktuellesGetraenk_file = aktuellesGetraenk_file->prev;
    }
    lese_textfile_in_getraenk(aktuellesGetraenk_file->file);
    4408:	e0 91 77 0a 	lds	r30, 0x0A77	; 0x800a77 <aktuellesGetraenk_file>
    440c:	f0 91 78 0a 	lds	r31, 0x0A78	; 0x800a78 <aktuellesGetraenk_file+0x1>
    4410:	80 81       	ld	r24, Z
    4412:	0e 94 d7 06 	call	0xdae	; 0xdae <lese_textfile_in_getraenk>
    char buffer[512] = {'\0'};
    4416:	8e 01       	movw	r16, r28
    4418:	0f 5f       	subi	r16, 0xFF	; 255
    441a:	1f 4f       	sbci	r17, 0xFF	; 255
    441c:	80 e0       	ldi	r24, 0x00	; 0
    441e:	92 e0       	ldi	r25, 0x02	; 2
    4420:	f8 01       	movw	r30, r16
    4422:	9c 01       	movw	r18, r24
    4424:	11 92       	st	Z+, r1
    4426:	21 50       	subi	r18, 0x01	; 1
    4428:	30 40       	sbci	r19, 0x00	; 0
    442a:	e1 f7       	brne	.-8      	; 0x4424 <schreibe_Getraenk_in_tag+0x76>
    char * ptr = buffer;

    strcat(ptr, "tagzuweisungup:");
    442c:	d8 01       	movw	r26, r16
    442e:	0d 90       	ld	r0, X+
    4430:	00 20       	and	r0, r0
    4432:	e9 f7       	brne	.-6      	; 0x442e <schreibe_Getraenk_in_tag+0x80>
    4434:	11 97       	sbiw	r26, 0x01	; 1
    4436:	80 e1       	ldi	r24, 0x10	; 16
    4438:	ea e5       	ldi	r30, 0x5A	; 90
    443a:	f6 e0       	ldi	r31, 0x06	; 6
    443c:	01 90       	ld	r0, Z+
    443e:	0d 92       	st	X+, r0
    4440:	8a 95       	dec	r24
    4442:	e1 f7       	brne	.-8      	; 0x443c <schreibe_Getraenk_in_tag+0x8e>
    char itoa_buff[5] = {'\0'};
    4444:	7e 01       	movw	r14, r28
    4446:	3f ef       	ldi	r19, 0xFF	; 255
    4448:	e3 1a       	sub	r14, r19
    444a:	3d ef       	ldi	r19, 0xFD	; 253
    444c:	f3 0a       	sbc	r15, r19
    444e:	85 e0       	ldi	r24, 0x05	; 5
    4450:	f7 01       	movw	r30, r14
    4452:	11 92       	st	Z+, r1
    4454:	8a 95       	dec	r24
    4456:	e9 f7       	brne	.-6      	; 0x4452 <schreibe_Getraenk_in_tag+0xa4>
    itoa(aktueller_tag->tag_nummer+1, itoa_buff, 10);
    4458:	e0 91 8b 0b 	lds	r30, 0x0B8B	; 0x800b8b <aktueller_tag>
    445c:	f0 91 8c 0b 	lds	r31, 0x0B8C	; 0x800b8c <aktueller_tag+0x1>
    4460:	82 81       	ldd	r24, Z+2	; 0x02
    4462:	90 e0       	ldi	r25, 0x00	; 0
    4464:	4a e0       	ldi	r20, 0x0A	; 10
    4466:	b7 01       	movw	r22, r14
    4468:	01 96       	adiw	r24, 0x01	; 1
    446a:	0e 94 be 48 	call	0x917c	; 0x917c <__itoa_ncheck>
    strcat(ptr, itoa_buff);
    446e:	b7 01       	movw	r22, r14
    4470:	c8 01       	movw	r24, r16
    4472:	0e 94 7c 48 	call	0x90f8	; 0x90f8 <strcat>
    strcat(ptr, ":");
    4476:	f8 01       	movw	r30, r16
    4478:	01 90       	ld	r0, Z+
    447a:	00 20       	and	r0, r0
    447c:	e9 f7       	brne	.-6      	; 0x4478 <schreibe_Getraenk_in_tag+0xca>
    447e:	31 97       	sbiw	r30, 0x01	; 1
    4480:	8a e3       	ldi	r24, 0x3A	; 58
    4482:	90 e0       	ldi	r25, 0x00	; 0
    4484:	91 83       	std	Z+1, r25	; 0x01
    4486:	80 83       	st	Z, r24
    strcat(ptr, aktuellesGetraenk->name);
    4488:	e0 91 0b 13 	lds	r30, 0x130B	; 0x80130b <aktuellesGetraenk>
    448c:	f0 91 0c 13 	lds	r31, 0x130C	; 0x80130c <aktuellesGetraenk+0x1>
    4490:	60 81       	ld	r22, Z
    4492:	71 81       	ldd	r23, Z+1	; 0x01
    4494:	c8 01       	movw	r24, r16
    4496:	0e 94 7c 48 	call	0x90f8	; 0x90f8 <strcat>


    Uart_Transmit_IT_ESP(ptr);
    449a:	c8 01       	movw	r24, r16
    449c:	0e 94 7a 41 	call	0x82f4	; 0x82f4 <Uart_Transmit_IT_ESP>
    Uart_Transmit_IT_PC(ptr);
    44a0:	c8 01       	movw	r24, r16
    44a2:	0e 94 51 41 	call	0x82a2	; 0x82a2 <Uart_Transmit_IT_PC>
    strcpy((char *)aktueller_tag->cocktail_name, (const char *)aktuellesGetraenk->name);
    44a6:	e0 91 0b 13 	lds	r30, 0x130B	; 0x80130b <aktuellesGetraenk>
    44aa:	f0 91 0c 13 	lds	r31, 0x130C	; 0x80130c <aktuellesGetraenk+0x1>
    44ae:	60 81       	ld	r22, Z
    44b0:	71 81       	ldd	r23, Z+1	; 0x01
    44b2:	e0 91 8b 0b 	lds	r30, 0x0B8B	; 0x800b8b <aktueller_tag>
    44b6:	f0 91 8c 0b 	lds	r31, 0x0B8C	; 0x800b8c <aktueller_tag+0x1>
    44ba:	80 81       	ld	r24, Z
    44bc:	91 81       	ldd	r25, Z+1	; 0x01
    44be:	0e 94 90 48 	call	0x9120	; 0x9120 <strcpy>
	
	nextion_change_page(RFIDFEHLER);
    44c2:	89 e1       	ldi	r24, 0x19	; 25
    44c4:	0e 94 fd 2b 	call	0x57fa	; 0x57fa <nextion_change_page>
	char * itoa_ptr = itoa_buff;
	
	strcpy(ptr, "Tag-Nr.");
    44c8:	88 e0       	ldi	r24, 0x08	; 8
    44ca:	ea e6       	ldi	r30, 0x6A	; 106
    44cc:	f6 e0       	ldi	r31, 0x06	; 6
    44ce:	d8 01       	movw	r26, r16
    44d0:	01 90       	ld	r0, Z+
    44d2:	0d 92       	st	X+, r0
    44d4:	8a 95       	dec	r24
    44d6:	e1 f7       	brne	.-8      	; 0x44d0 <schreibe_Getraenk_in_tag+0x122>
	itoa(aktueller_tag->tag_nummer, itoa_ptr, 10);
    44d8:	e0 91 8b 0b 	lds	r30, 0x0B8B	; 0x800b8b <aktueller_tag>
    44dc:	f0 91 8c 0b 	lds	r31, 0x0B8C	; 0x800b8c <aktueller_tag+0x1>
    44e0:	82 81       	ldd	r24, Z+2	; 0x02
    44e2:	4a e0       	ldi	r20, 0x0A	; 10
    44e4:	b7 01       	movw	r22, r14
    44e6:	90 e0       	ldi	r25, 0x00	; 0
    44e8:	0e 94 be 48 	call	0x917c	; 0x917c <__itoa_ncheck>
	strcat(ptr, itoa_ptr);
    44ec:	b7 01       	movw	r22, r14
    44ee:	c8 01       	movw	r24, r16
    44f0:	0e 94 7c 48 	call	0x90f8	; 0x90f8 <strcat>
	strcat(ptr, " wurde ");
    44f4:	d8 01       	movw	r26, r16
    44f6:	0d 90       	ld	r0, X+
    44f8:	00 20       	and	r0, r0
    44fa:	e9 f7       	brne	.-6      	; 0x44f6 <schreibe_Getraenk_in_tag+0x148>
    44fc:	11 97       	sbiw	r26, 0x01	; 1
    44fe:	88 e0       	ldi	r24, 0x08	; 8
    4500:	e2 e7       	ldi	r30, 0x72	; 114
    4502:	f6 e0       	ldi	r31, 0x06	; 6
    4504:	01 90       	ld	r0, Z+
    4506:	0d 92       	st	X+, r0
    4508:	8a 95       	dec	r24
    450a:	e1 f7       	brne	.-8      	; 0x4504 <schreibe_Getraenk_in_tag+0x156>
	strcat(ptr, aktueller_tag->cocktail_name);
    450c:	e0 91 8b 0b 	lds	r30, 0x0B8B	; 0x800b8b <aktueller_tag>
    4510:	f0 91 8c 0b 	lds	r31, 0x0B8C	; 0x800b8c <aktueller_tag+0x1>
    4514:	60 81       	ld	r22, Z
    4516:	71 81       	ldd	r23, Z+1	; 0x01
    4518:	c8 01       	movw	r24, r16
    451a:	0e 94 7c 48 	call	0x90f8	; 0x90f8 <strcat>
	strcat(ptr, " zugeordnet. :)");
    451e:	d8 01       	movw	r26, r16
    4520:	0d 90       	ld	r0, X+
    4522:	00 20       	and	r0, r0
    4524:	e9 f7       	brne	.-6      	; 0x4520 <schreibe_Getraenk_in_tag+0x172>
    4526:	11 97       	sbiw	r26, 0x01	; 1
    4528:	80 e1       	ldi	r24, 0x10	; 16
    452a:	ea e7       	ldi	r30, 0x7A	; 122
    452c:	f6 e0       	ldi	r31, 0x06	; 6
    452e:	01 90       	ld	r0, Z+
    4530:	0d 92       	st	X+, r0
    4532:	8a 95       	dec	r24
    4534:	e1 f7       	brne	.-8      	; 0x452e <schreibe_Getraenk_in_tag+0x180>

	
	nextion_setText("fehlertxt",ptr);
    4536:	b8 01       	movw	r22, r16
    4538:	8f ed       	ldi	r24, 0xDF	; 223
    453a:	93 e0       	ldi	r25, 0x03	; 3
    453c:	0e 94 1c 2c 	call	0x5838	; 0x5838 <nextion_setText>
    4540:	ff ef       	ldi	r31, 0xFF	; 255
    4542:	27 ea       	ldi	r18, 0xA7	; 167
    4544:	31 e6       	ldi	r19, 0x61	; 97
    4546:	f1 50       	subi	r31, 0x01	; 1
    4548:	20 40       	sbci	r18, 0x00	; 0
    454a:	30 40       	sbci	r19, 0x00	; 0
    454c:	e1 f7       	brne	.-8      	; 0x4546 <schreibe_Getraenk_in_tag+0x198>
    454e:	00 c0       	rjmp	.+0      	; 0x4550 <schreibe_Getraenk_in_tag+0x1a2>
    4550:	00 00       	nop
	_delay_ms(2000);
	
    nextion_change_page(STARTANZEIGE);
    4552:	81 e0       	ldi	r24, 0x01	; 1
    4554:	0e 94 fd 2b 	call	0x57fa	; 0x57fa <nextion_change_page>
    setze_startanzeige(aktuellesGetraenk);
    4558:	80 91 0b 13 	lds	r24, 0x130B	; 0x80130b <aktuellesGetraenk>
    455c:	90 91 0c 13 	lds	r25, 0x130C	; 0x80130c <aktuellesGetraenk+0x1>
    4560:	0e 94 0c 04 	call	0x818	; 0x818 <setze_startanzeige>
}
    4564:	cb 5f       	subi	r28, 0xFB	; 251
    4566:	dd 4f       	sbci	r29, 0xFD	; 253
    4568:	0f b6       	in	r0, 0x3f	; 63
    456a:	f8 94       	cli
    456c:	de bf       	out	0x3e, r29	; 62
    456e:	0f be       	out	0x3f, r0	; 63
    4570:	cd bf       	out	0x3d, r28	; 61
    4572:	df 91       	pop	r29
    4574:	cf 91       	pop	r28
    4576:	1f 91       	pop	r17
    4578:	0f 91       	pop	r16
    457a:	ff 90       	pop	r15
    457c:	ef 90       	pop	r14
    457e:	08 95       	ret

00004580 <check_RFIDAnzeige2>:

void check_RFIDAnzeige2(uint8_t button)
{
    switch (button)
    4580:	90 e0       	ldi	r25, 0x00	; 0
    4582:	fc 01       	movw	r30, r24
    4584:	31 97       	sbiw	r30, 0x01	; 1
    4586:	e9 30       	cpi	r30, 0x09	; 9
    4588:	f1 05       	cpc	r31, r1
    458a:	08 f0       	brcs	.+2      	; 0x458e <check_RFIDAnzeige2+0xe>
    458c:	41 c0       	rjmp	.+130    	; 0x4610 <check_RFIDAnzeige2+0x90>
    458e:	88 27       	eor	r24, r24
    4590:	ee 5f       	subi	r30, 0xFE	; 254
    4592:	fe 4f       	sbci	r31, 0xFE	; 254
    4594:	8f 4f       	sbci	r24, 0xFF	; 255
    4596:	0c 94 1d 46 	jmp	0x8c3a	; 0x8c3a <__tablejump2__>
    {
    /*      0x01 bis 0x08 = 0b01 bis 0b08
                - Whle x-ten Cocktail des aktuellen Listenabschnitts
    */
    case COCKTAIL1:
        schreibe_Getraenk_in_tag(0);
    459a:	80 e0       	ldi	r24, 0x00	; 0
    459c:	08 cf       	rjmp	.-496    	; 0x43ae <schreibe_Getraenk_in_tag>
        break;
    459e:	08 95       	ret

    case COCKTAIL2:
        schreibe_Getraenk_in_tag(1);
    45a0:	81 e0       	ldi	r24, 0x01	; 1
    45a2:	05 cf       	rjmp	.-502    	; 0x43ae <schreibe_Getraenk_in_tag>
        break;

    case COCKTAIL3:
        schreibe_Getraenk_in_tag(2);
    45a4:	08 95       	ret
    45a6:	82 e0       	ldi	r24, 0x02	; 2
        break;
    45a8:	02 cf       	rjmp	.-508    	; 0x43ae <schreibe_Getraenk_in_tag>

    case COCKTAIL4:
        schreibe_Getraenk_in_tag(3);
    45aa:	08 95       	ret
    45ac:	83 e0       	ldi	r24, 0x03	; 3
        break;
    45ae:	ff ce       	rjmp	.-514    	; 0x43ae <schreibe_Getraenk_in_tag>

    case COCKTAIL5:
        schreibe_Getraenk_in_tag(4);
    45b0:	08 95       	ret
    45b2:	84 e0       	ldi	r24, 0x04	; 4
        break;
    45b4:	fc ce       	rjmp	.-520    	; 0x43ae <schreibe_Getraenk_in_tag>

    case COCKTAIL6:
        schreibe_Getraenk_in_tag(5);
    45b6:	08 95       	ret
    45b8:	85 e0       	ldi	r24, 0x05	; 5
    45ba:	f9 ce       	rjmp	.-526    	; 0x43ae <schreibe_Getraenk_in_tag>
        break;
    45bc:	08 95       	ret
        /*      0x09 = 0b09
                    - Untere Blockierung aufheben
                    - Gehe Liste um 8 Getrnke hoch, falls nicht schon am oberen Ende
                    - Schreibe Cocktailnamen in die Liste
        */
        block_list_runter = 0;
    45be:	10 92 80 0a 	sts	0x0A80, r1	; 0x800a80 <block_list_runter>
        if (!block_list_hoch)
    45c2:	80 91 9b 0e 	lds	r24, 0x0E9B	; 0x800e9b <block_list_hoch>
    45c6:	81 11       	cpse	r24, r1
    45c8:	23 c0       	rjmp	.+70     	; 0x4610 <check_RFIDAnzeige2+0x90>
        {
            i_Liste -= 6;
    45ca:	80 91 d1 12 	lds	r24, 0x12D1	; 0x8012d1 <i_Liste>
    45ce:	86 50       	subi	r24, 0x06	; 6
    45d0:	80 93 d1 12 	sts	0x12D1, r24	; 0x8012d1 <i_Liste>
            erstelle_Liste_name("cocktail");
    45d4:	89 e3       	ldi	r24, 0x39	; 57
    45d6:	93 e0       	ldi	r25, 0x03	; 3
    45d8:	0c 94 57 08 	jmp	0x10ae	; 0x10ae <erstelle_Liste_name>
    45dc:	08 95       	ret
        /*      0x0A = 0b10
                    - Obere Blockierung aufheben
                    - Gehe Liste um 8 Getrnke runter, falls nicht schon am unteren Ende
                    - Schreibe Cocktailnamen in die Liste
        */
        block_list_hoch = 0;
    45de:	10 92 9b 0e 	sts	0x0E9B, r1	; 0x800e9b <block_list_hoch>
        if (!block_list_runter)
    45e2:	80 91 80 0a 	lds	r24, 0x0A80	; 0x800a80 <block_list_runter>
    45e6:	81 11       	cpse	r24, r1
    45e8:	13 c0       	rjmp	.+38     	; 0x4610 <check_RFIDAnzeige2+0x90>
        {
            i_Liste += 6;
    45ea:	80 91 d1 12 	lds	r24, 0x12D1	; 0x8012d1 <i_Liste>
    45ee:	8a 5f       	subi	r24, 0xFA	; 250
    45f0:	80 93 d1 12 	sts	0x12D1, r24	; 0x8012d1 <i_Liste>
            erstelle_Liste_name("cocktail");
    45f4:	89 e3       	ldi	r24, 0x39	; 57
    45f6:	93 e0       	ldi	r25, 0x03	; 3
    45f8:	0c 94 57 08 	jmp	0x10ae	; 0x10ae <erstelle_Liste_name>
    45fc:	08 95       	ret
        /*      0x0B = 0b11
                    - Obere Blockierung aufheben
                    - Gehe Liste um 8 Getrnke runter, falls nicht schon am unteren Ende
                    - Schreibe Cocktailnamen in die Liste
        */
        block_list_hoch = 0;
    45fe:	10 92 9b 0e 	sts	0x0E9B, r1	; 0x800e9b <block_list_hoch>
        block_list_runter = 0;
    4602:	10 92 80 0a 	sts	0x0A80, r1	; 0x800a80 <block_list_runter>
        i_Liste = 0;
    4606:	10 92 d1 12 	sts	0x12D1, r1	; 0x8012d1 <i_Liste>
        nextion_change_page(RFIDANZEIGE1);
    460a:	87 e1       	ldi	r24, 0x17	; 23
    460c:	0c 94 fd 2b 	jmp	0x57fa	; 0x57fa <nextion_change_page>
    4610:	08 95       	ret

00004612 <check_RFIDFehler>:
    }
}

void check_RFIDFehler(uint8_t button)
{
    switch (button)
    4612:	81 30       	cpi	r24, 0x01	; 1
    4614:	31 f4       	brne	.+12     	; 0x4622 <check_RFIDFehler+0x10>
    {
    case 1:
        setze_startanzeige(aktuellesGetraenk);
    4616:	80 91 0b 13 	lds	r24, 0x130B	; 0x80130b <aktuellesGetraenk>
    461a:	90 91 0c 13 	lds	r25, 0x130C	; 0x80130c <aktuellesGetraenk+0x1>
    461e:	0c 94 0c 04 	jmp	0x818	; 0x818 <setze_startanzeige>
    4622:	08 95       	ret

00004624 <check_ESP32>:
}

void check_ESP32(uint8_t button)
{
    // Block RFID during zubereitung
    switch (button)
    4624:	82 30       	cpi	r24, 0x02	; 2
    4626:	61 f0       	breq	.+24     	; 0x4640 <check_ESP32+0x1c>
    4628:	18 f4       	brcc	.+6      	; 0x4630 <check_ESP32+0xc>
    462a:	81 30       	cpi	r24, 0x01	; 1
    462c:	31 f0       	breq	.+12     	; 0x463a <check_ESP32+0x16>
    462e:	08 95       	ret
    4630:	83 30       	cpi	r24, 0x03	; 3
    4632:	49 f0       	breq	.+18     	; 0x4646 <check_ESP32+0x22>
    4634:	84 30       	cpi	r24, 0x04	; 4
    4636:	51 f0       	breq	.+20     	; 0x464c <check_ESP32+0x28>
    4638:	08 95       	ret
    {
    // Sende Anzahl Tags
    case TAGNR:
        Getraenk_erstellt();
    463a:	0c 94 7e 11 	jmp	0x22fc	; 0x22fc <Getraenk_erstellt>
        break;
    463e:	08 95       	ret

    case GETRAENKE:
        send_List_Getraenke();
    4640:	0c 94 80 0f 	jmp	0x1f00	; 0x1f00 <send_List_Getraenke>
        break;
    4644:	08 95       	ret

    case ZUTATEN2:
        send_List_Zutaten();
    4646:	0c 94 52 10 	jmp	0x20a4	; 0x20a4 <send_List_Zutaten>
        break;
    464a:	08 95       	ret

    case XXX:
        ESP_Getraenk();
    464c:	0c 94 07 11 	jmp	0x220e	; 0x220e <ESP_Getraenk>
    4650:	08 95       	ret

00004652 <check_LED>:
        break;
    }
}

void check_LED(uint8_t button)
{
    4652:	0f 93       	push	r16
    4654:	1f 93       	push	r17
    4656:	cf 93       	push	r28
    4658:	df 93       	push	r29
    465a:	cd b7       	in	r28, 0x3d	; 61
    465c:	de b7       	in	r29, 0x3e	; 62
    465e:	64 97       	sbiw	r28, 0x14	; 20
    4660:	0f b6       	in	r0, 0x3f	; 63
    4662:	f8 94       	cli
    4664:	de bf       	out	0x3e, r29	; 62
    4666:	0f be       	out	0x3f, r0	; 63
    4668:	cd bf       	out	0x3d, r28	; 61
    asm("nop");
    466a:	00 00       	nop
    switch (button)
    466c:	90 e0       	ldi	r25, 0x00	; 0
    466e:	fc 01       	movw	r30, r24
    4670:	31 97       	sbiw	r30, 0x01	; 1
    4672:	e8 30       	cpi	r30, 0x08	; 8
    4674:	f1 05       	cpc	r31, r1
    4676:	08 f0       	brcs	.+2      	; 0x467a <check_LED+0x28>
    4678:	c7 c0       	rjmp	.+398    	; 0x4808 <check_LED+0x1b6>
    467a:	88 27       	eor	r24, r24
    467c:	e5 5f       	subi	r30, 0xF5	; 245
    467e:	fe 4f       	sbci	r31, 0xFE	; 254
    4680:	8f 4f       	sbci	r24, 0xFF	; 255
    4682:	0c 94 1d 46 	jmp	0x8c3a	; 0x8c3a <__tablejump2__>
    {
    case WEISS:
        light = WEISS_LED;
    4686:	10 92 85 0a 	sts	0x0A85, r1	; 0x800a85 <light>
        break;
    468a:	be c0       	rjmp	.+380    	; 0x4808 <check_LED+0x1b6>

    case RAINBOW:
        light = RAINBOW_LED;
    468c:	81 e0       	ldi	r24, 0x01	; 1
    468e:	80 93 85 0a 	sts	0x0A85, r24	; 0x800a85 <light>
        break;
    4692:	ba c0       	rjmp	.+372    	; 0x4808 <check_LED+0x1b6>

    case CUSTOM:
        light = USER_LED;
    4694:	82 e0       	ldi	r24, 0x02	; 2
    4696:	80 93 85 0a 	sts	0x0A85, r24	; 0x800a85 <light>
        char val[20] = {'\0'};
    469a:	8e 01       	movw	r16, r28
    469c:	0f 5f       	subi	r16, 0xFF	; 255
    469e:	1f 4f       	sbci	r17, 0xFF	; 255
    46a0:	84 e1       	ldi	r24, 0x14	; 20
    46a2:	f8 01       	movw	r30, r16
    46a4:	11 92       	st	Z+, r1
    46a6:	8a 95       	dec	r24
    46a8:	e9 f7       	brne	.-6      	; 0x46a4 <check_LED+0x52>
        itoa(OCR3B / 7, (char *) val, 10);
    46aa:	40 91 9a 00 	lds	r20, 0x009A	; 0x80009a <__TEXT_REGION_LENGTH__+0x70009a>
    46ae:	50 91 9b 00 	lds	r21, 0x009B	; 0x80009b <__TEXT_REGION_LENGTH__+0x70009b>
    46b2:	9a 01       	movw	r18, r20
    46b4:	a3 e9       	ldi	r26, 0x93	; 147
    46b6:	b4 e2       	ldi	r27, 0x24	; 36
    46b8:	0e 94 25 46 	call	0x8c4a	; 0x8c4a <__umulhisi3>
    46bc:	48 1b       	sub	r20, r24
    46be:	59 0b       	sbc	r21, r25
    46c0:	56 95       	lsr	r21
    46c2:	47 95       	ror	r20
    46c4:	84 0f       	add	r24, r20
    46c6:	95 1f       	adc	r25, r21
    46c8:	4a e0       	ldi	r20, 0x0A	; 10
    46ca:	b8 01       	movw	r22, r16
    46cc:	96 95       	lsr	r25
    46ce:	87 95       	ror	r24
    46d0:	96 95       	lsr	r25
    46d2:	87 95       	ror	r24
    46d4:	0e 94 be 48 	call	0x917c	; 0x917c <__itoa_ncheck>
        nextion_setValue("slider1", (char *)val);
    46d8:	b8 01       	movw	r22, r16
    46da:	8a e8       	ldi	r24, 0x8A	; 138
    46dc:	96 e0       	ldi	r25, 0x06	; 6
    46de:	0e 94 34 2c 	call	0x5868	; 0x5868 <nextion_setValue>
        itoa(OCR4B / 7, (char *) val, 10);
    46e2:	40 91 aa 00 	lds	r20, 0x00AA	; 0x8000aa <__TEXT_REGION_LENGTH__+0x7000aa>
    46e6:	50 91 ab 00 	lds	r21, 0x00AB	; 0x8000ab <__TEXT_REGION_LENGTH__+0x7000ab>
    46ea:	9a 01       	movw	r18, r20
    46ec:	a3 e9       	ldi	r26, 0x93	; 147
    46ee:	b4 e2       	ldi	r27, 0x24	; 36
    46f0:	0e 94 25 46 	call	0x8c4a	; 0x8c4a <__umulhisi3>
    46f4:	48 1b       	sub	r20, r24
    46f6:	59 0b       	sbc	r21, r25
    46f8:	56 95       	lsr	r21
    46fa:	47 95       	ror	r20
    46fc:	84 0f       	add	r24, r20
    46fe:	95 1f       	adc	r25, r21
    4700:	4a e0       	ldi	r20, 0x0A	; 10
    4702:	b8 01       	movw	r22, r16
    4704:	96 95       	lsr	r25
    4706:	87 95       	ror	r24
    4708:	96 95       	lsr	r25
    470a:	87 95       	ror	r24
    470c:	0e 94 be 48 	call	0x917c	; 0x917c <__itoa_ncheck>
        nextion_setValue("slider2", (char *)val);
    4710:	b8 01       	movw	r22, r16
    4712:	82 e9       	ldi	r24, 0x92	; 146
    4714:	96 e0       	ldi	r25, 0x06	; 6
    4716:	0e 94 34 2c 	call	0x5868	; 0x5868 <nextion_setValue>
        itoa(OCR5B / 7, (char *) val, 10);
    471a:	40 91 2a 01 	lds	r20, 0x012A	; 0x80012a <__TEXT_REGION_LENGTH__+0x70012a>
    471e:	50 91 2b 01 	lds	r21, 0x012B	; 0x80012b <__TEXT_REGION_LENGTH__+0x70012b>
    4722:	9a 01       	movw	r18, r20
    4724:	a3 e9       	ldi	r26, 0x93	; 147
    4726:	b4 e2       	ldi	r27, 0x24	; 36
    4728:	0e 94 25 46 	call	0x8c4a	; 0x8c4a <__umulhisi3>
    472c:	48 1b       	sub	r20, r24
    472e:	59 0b       	sbc	r21, r25
    4730:	56 95       	lsr	r21
    4732:	47 95       	ror	r20
    4734:	84 0f       	add	r24, r20
    4736:	95 1f       	adc	r25, r21
    4738:	4a e0       	ldi	r20, 0x0A	; 10
    473a:	b8 01       	movw	r22, r16
    473c:	96 95       	lsr	r25
    473e:	87 95       	ror	r24
    4740:	96 95       	lsr	r25
    4742:	87 95       	ror	r24
    4744:	0e 94 be 48 	call	0x917c	; 0x917c <__itoa_ncheck>
        nextion_setValue("slider3", (char *)val);
    4748:	b8 01       	movw	r22, r16
    474a:	8a e9       	ldi	r24, 0x9A	; 154
    474c:	96 e0       	ldi	r25, 0x06	; 6
    474e:	0e 94 34 2c 	call	0x5868	; 0x5868 <nextion_setValue>
        itoa(OCR1B / 7, (char *) val, 10);
    4752:	40 91 8a 00 	lds	r20, 0x008A	; 0x80008a <__TEXT_REGION_LENGTH__+0x70008a>
    4756:	50 91 8b 00 	lds	r21, 0x008B	; 0x80008b <__TEXT_REGION_LENGTH__+0x70008b>
    475a:	9a 01       	movw	r18, r20
    475c:	a3 e9       	ldi	r26, 0x93	; 147
    475e:	b4 e2       	ldi	r27, 0x24	; 36
    4760:	0e 94 25 46 	call	0x8c4a	; 0x8c4a <__umulhisi3>
    4764:	48 1b       	sub	r20, r24
    4766:	59 0b       	sbc	r21, r25
    4768:	56 95       	lsr	r21
    476a:	47 95       	ror	r20
    476c:	84 0f       	add	r24, r20
    476e:	95 1f       	adc	r25, r21
    4770:	4a e0       	ldi	r20, 0x0A	; 10
    4772:	b8 01       	movw	r22, r16
    4774:	96 95       	lsr	r25
    4776:	87 95       	ror	r24
    4778:	96 95       	lsr	r25
    477a:	87 95       	ror	r24
    477c:	0e 94 be 48 	call	0x917c	; 0x917c <__itoa_ncheck>
        nextion_setValue("slider4", (char *)val);
    4780:	b8 01       	movw	r22, r16
    4782:	82 ea       	ldi	r24, 0xA2	; 162
    4784:	96 e0       	ldi	r25, 0x06	; 6
    4786:	0e 94 34 2c 	call	0x5868	; 0x5868 <nextion_setValue>
        break;
    478a:	3e c0       	rjmp	.+124    	; 0x4808 <check_LED+0x1b6>

    case SLIDER11:
        OCR3B = 7 * nextion_getSliderValue("slider1", (unsigned char *)INPUT_UART_1);
    478c:	60 e1       	ldi	r22, 0x10	; 16
    478e:	75 e1       	ldi	r23, 0x15	; 21
    4790:	8a e8       	ldi	r24, 0x8A	; 138
    4792:	96 e0       	ldi	r25, 0x06	; 6
    4794:	0e 94 6a 2c 	call	0x58d4	; 0x58d4 <nextion_getSliderValue>
    4798:	f7 e0       	ldi	r31, 0x07	; 7
    479a:	8f 9f       	mul	r24, r31
    479c:	c0 01       	movw	r24, r0
    479e:	11 24       	eor	r1, r1
    47a0:	90 93 9b 00 	sts	0x009B, r25	; 0x80009b <__TEXT_REGION_LENGTH__+0x70009b>
    47a4:	80 93 9a 00 	sts	0x009A, r24	; 0x80009a <__TEXT_REGION_LENGTH__+0x70009a>
        break;
    47a8:	2f c0       	rjmp	.+94     	; 0x4808 <check_LED+0x1b6>

    case SLIDER12:
        OCR4B = 7 * nextion_getSliderValue("slider2", (unsigned char *)INPUT_UART_1);
    47aa:	60 e1       	ldi	r22, 0x10	; 16
    47ac:	75 e1       	ldi	r23, 0x15	; 21
    47ae:	82 e9       	ldi	r24, 0x92	; 146
    47b0:	96 e0       	ldi	r25, 0x06	; 6
    47b2:	0e 94 6a 2c 	call	0x58d4	; 0x58d4 <nextion_getSliderValue>
    47b6:	27 e0       	ldi	r18, 0x07	; 7
    47b8:	82 9f       	mul	r24, r18
    47ba:	c0 01       	movw	r24, r0
    47bc:	11 24       	eor	r1, r1
    47be:	90 93 ab 00 	sts	0x00AB, r25	; 0x8000ab <__TEXT_REGION_LENGTH__+0x7000ab>
    47c2:	80 93 aa 00 	sts	0x00AA, r24	; 0x8000aa <__TEXT_REGION_LENGTH__+0x7000aa>
        break;
    47c6:	20 c0       	rjmp	.+64     	; 0x4808 <check_LED+0x1b6>

    case SLIDER13:
        OCR5B = 7 * nextion_getSliderValue("slider3", (unsigned char *)INPUT_UART_1);
    47c8:	60 e1       	ldi	r22, 0x10	; 16
    47ca:	75 e1       	ldi	r23, 0x15	; 21
    47cc:	8a e9       	ldi	r24, 0x9A	; 154
    47ce:	96 e0       	ldi	r25, 0x06	; 6
    47d0:	0e 94 6a 2c 	call	0x58d4	; 0x58d4 <nextion_getSliderValue>
    47d4:	e7 e0       	ldi	r30, 0x07	; 7
    47d6:	8e 9f       	mul	r24, r30
    47d8:	c0 01       	movw	r24, r0
    47da:	11 24       	eor	r1, r1
    47dc:	90 93 2b 01 	sts	0x012B, r25	; 0x80012b <__TEXT_REGION_LENGTH__+0x70012b>
    47e0:	80 93 2a 01 	sts	0x012A, r24	; 0x80012a <__TEXT_REGION_LENGTH__+0x70012a>
        break;
    47e4:	11 c0       	rjmp	.+34     	; 0x4808 <check_LED+0x1b6>

    case SLIDER14:
        OCR1B = 7 * nextion_getSliderValue("slider4", (unsigned char *)INPUT_UART_1);
    47e6:	60 e1       	ldi	r22, 0x10	; 16
    47e8:	75 e1       	ldi	r23, 0x15	; 21
    47ea:	82 ea       	ldi	r24, 0xA2	; 162
    47ec:	96 e0       	ldi	r25, 0x06	; 6
    47ee:	0e 94 6a 2c 	call	0x58d4	; 0x58d4 <nextion_getSliderValue>
    47f2:	f7 e0       	ldi	r31, 0x07	; 7
    47f4:	8f 9f       	mul	r24, r31
    47f6:	c0 01       	movw	r24, r0
    47f8:	11 24       	eor	r1, r1
    47fa:	90 93 8b 00 	sts	0x008B, r25	; 0x80008b <__TEXT_REGION_LENGTH__+0x70008b>
    47fe:	80 93 8a 00 	sts	0x008A, r24	; 0x80008a <__TEXT_REGION_LENGTH__+0x70008a>
        break;
    4802:	02 c0       	rjmp	.+4      	; 0x4808 <check_LED+0x1b6>

    case ZURUECK8:
        nextion_change_page(MENUANZEIGE);
    4804:	87 e0       	ldi	r24, 0x07	; 7
    4806:	f9 d7       	rcall	.+4082   	; 0x57fa <nextion_change_page>
        break;
    }
    4808:	64 96       	adiw	r28, 0x14	; 20
    480a:	0f b6       	in	r0, 0x3f	; 63
    480c:	f8 94       	cli
    480e:	de bf       	out	0x3e, r29	; 62
    4810:	0f be       	out	0x3f, r0	; 63
    4812:	cd bf       	out	0x3d, r28	; 61
    4814:	df 91       	pop	r29
    4816:	cf 91       	pop	r28
    4818:	1f 91       	pop	r17
    481a:	0f 91       	pop	r16
    481c:	08 95       	ret

0000481e <cocktail_check_command>:
    setze_startanzeige(aktuellesGetraenk);
}


void cocktail_check_command(int8_t page, int8_t button)
{
    481e:	cf 93       	push	r28
    /*
        Diese Funktion checkt, von welcher Seiter der Befehl kommt
    */
    switch (page)
    4820:	08 2e       	mov	r0, r24
    4822:	00 0c       	add	r0, r0
    4824:	99 0b       	sbc	r25, r25
    4826:	aa 0b       	sbc	r26, r26
    4828:	bb 0b       	sbc	r27, r27
    482a:	fc 01       	movw	r30, r24
    482c:	31 97       	sbiw	r30, 0x01	; 1
    482e:	ec 31       	cpi	r30, 0x1C	; 28
    4830:	f1 05       	cpc	r31, r1
    4832:	08 f0       	brcs	.+2      	; 0x4836 <cocktail_check_command+0x18>
    4834:	6d c0       	rjmp	.+218    	; 0x4910 <cocktail_check_command+0xf2>
    4836:	c6 2f       	mov	r28, r22
    4838:	88 27       	eor	r24, r24
    483a:	ed 5e       	subi	r30, 0xED	; 237
    483c:	fe 4f       	sbci	r31, 0xFE	; 254
    483e:	8f 4f       	sbci	r24, 0xFF	; 255
    4840:	0c 94 1d 46 	jmp	0x8c3a	; 0x8c3a <__tablejump2__>
    {
    /*0x01 = 0d01*/
    case STARTANZEIGE:
        check_startseite(button);
    4844:	86 2f       	mov	r24, r22
    4846:	0e 94 4a 13 	call	0x2694	; 0x2694 <check_startseite>
        break;
    484a:	62 c0       	rjmp	.+196    	; 0x4910 <cocktail_check_command+0xf2>

    /*0x02 = 0d02*/
    case ZUTATENANZEIGE:
        check_zutatenanzeige(button);
    484c:	86 2f       	mov	r24, r22
    484e:	0e 94 42 14 	call	0x2884	; 0x2884 <check_zutatenanzeige>
        break;
    4852:	5e c0       	rjmp	.+188    	; 0x4910 <cocktail_check_command+0xf2>

    /*0x03 = 0d03*/
    case LISTENANZEIGE:
        check_listenanzeige(button);
    4854:	86 2f       	mov	r24, r22
    4856:	0e 94 58 14 	call	0x28b0	; 0x28b0 <check_listenanzeige>
        break;
    485a:	5a c0       	rjmp	.+180    	; 0x4910 <cocktail_check_command+0xf2>

    /*0x04 = 0d04*/
    case ZUBABFRAGE:
        check_zubabfrage(button);
    485c:	86 2f       	mov	r24, r22
    485e:	0e 94 f4 14 	call	0x29e8	; 0x29e8 <check_zubabfrage>
        break;
    4862:	56 c0       	rjmp	.+172    	; 0x4910 <cocktail_check_command+0xf2>

    /*0x05 = 0d05*/
    case ZUBBILDSCHIRM:
        check_zubbildschirm(button);
    4864:	86 2f       	mov	r24, r22
    4866:	0e 94 0f 15 	call	0x2a1e	; 0x2a1e <check_zubbildschirm>
        break;
    486a:	52 c0       	rjmp	.+164    	; 0x4910 <cocktail_check_command+0xf2>

    /*0x07 = 0d07*/
    case MENUANZEIGE:
        check_menuanzeige(button);
    486c:	86 2f       	mov	r24, r22
    486e:	0e 94 14 15 	call	0x2a28	; 0x2a28 <check_menuanzeige>
        break;
    4872:	4e c0       	rjmp	.+156    	; 0x4910 <cocktail_check_command+0xf2>

    /*0x08 = 0d08*/
    case BEARBEITUNGSANZEIGE:
        check_bearbeitungsanzeige(button);
    4874:	86 2f       	mov	r24, r22
    4876:	0e 94 f1 15 	call	0x2be2	; 0x2be2 <check_bearbeitungsanzeige>
        break;
    487a:	4a c0       	rjmp	.+148    	; 0x4910 <cocktail_check_command+0xf2>

    /*0x09 0d09*/
    case CEINSTANZEIGE:
        check_ceinstanzeige(button);
    487c:	86 2f       	mov	r24, r22
    487e:	0e 94 46 16 	call	0x2c8c	; 0x2c8c <check_ceinstanzeige>
        break;
    4882:	46 c0       	rjmp	.+140    	; 0x4910 <cocktail_check_command+0xf2>

    /*0x0A = 0d10*/
    case REINANZEIGE1:
        check_reinanzeige1(button);
    4884:	86 2f       	mov	r24, r22
    4886:	0e 94 ee 16 	call	0x2ddc	; 0x2ddc <check_reinanzeige1>
        break;
    488a:	42 c0       	rjmp	.+132    	; 0x4910 <cocktail_check_command+0xf2>

    /*0x0B = 0d11*/
    case REINANZEIGE2:
        check_reinanzeige2(button);
    488c:	86 2f       	mov	r24, r22
    488e:	0e 94 fb 16 	call	0x2df6	; 0x2df6 <check_reinanzeige2>
        break;
    4892:	3e c0       	rjmp	.+124    	; 0x4910 <cocktail_check_command+0xf2>

    /*0x0C = 0d12*/
    case REINANZEIGE3:
        check_reinanzeige3(button);
    4894:	86 2f       	mov	r24, r22
    4896:	0e 94 41 17 	call	0x2e82	; 0x2e82 <check_reinanzeige3>
        break;
    489a:	3a c0       	rjmp	.+116    	; 0x4910 <cocktail_check_command+0xf2>
    /*0x0D = 0d13*/
    case INFOANZEIGE:
        check_infoanzeige(button);
    489c:	86 2f       	mov	r24, r22
    489e:	0e 94 4a 17 	call	0x2e94	; 0x2e94 <check_infoanzeige>
        break;
    48a2:	36 c0       	rjmp	.+108    	; 0x4910 <cocktail_check_command+0xf2>
        check_fehleranzeige(button);
        break;

    /*0x10 = 0d16*/
    case ERSTANZEIGE1:
        check_erstanzeige1(button);
    48a4:	86 2f       	mov	r24, r22
    48a6:	0e 94 50 17 	call	0x2ea0	; 0x2ea0 <check_erstanzeige1>
        break;
    48aa:	32 c0       	rjmp	.+100    	; 0x4910 <cocktail_check_command+0xf2>

    /*0x11 = 0d17*/
    case ERSTANZEIGE2:
        check_erstanzeige2(button);
    48ac:	86 2f       	mov	r24, r22
    48ae:	0e 94 a3 1a 	call	0x3546	; 0x3546 <check_erstanzeige2>
        break;
    48b2:	2e c0       	rjmp	.+92     	; 0x4910 <cocktail_check_command+0xf2>

    /*0x12 = 0d18*/
    case LOESCHABFRAGE:
        check_loeschanzeige(button);
    48b4:	86 2f       	mov	r24, r22
    48b6:	0e 94 92 1b 	call	0x3724	; 0x3724 <check_loeschanzeige>
        break;
    48ba:	2a c0       	rjmp	.+84     	; 0x4910 <cocktail_check_command+0xf2>

    /*0x13 = 0d19*/
    case POSANZEIGE:
        check_posanzeige(button);
    48bc:	86 2f       	mov	r24, r22
    48be:	0e 94 1b 1c 	call	0x3836	; 0x3836 <check_posanzeige>
        break;
    48c2:	26 c0       	rjmp	.+76     	; 0x4910 <cocktail_check_command+0xf2>

    /*0x14 = 0d20*/
    case FLUESSANZEIGE1:
        check_fluessanzeige1(button);
    48c4:	86 2f       	mov	r24, r22
    48c6:	9b d8       	rcall	.-3786   	; 0x39fe <check_fluessanzeige1>
        break;
    48c8:	23 c0       	rjmp	.+70     	; 0x4910 <cocktail_check_command+0xf2>

    /*0x15 = 0d21*/
    case FLUESSANZEIGE2:
        check_fluessanzeige2(button);
    48ca:	86 2f       	mov	r24, r22
    48cc:	fa d8       	rcall	.-3596   	; 0x3ac2 <check_fluessanzeige2>
        break;

    /*0x16 = 0d22*/
    case FLUESSANZEIGE3:
        check_fluessanzeige3(button);
    48ce:	20 c0       	rjmp	.+64     	; 0x4910 <cocktail_check_command+0xf2>
    48d0:	86 2f       	mov	r24, r22
    48d2:	27 d9       	rcall	.-3506   	; 0x3b22 <check_fluessanzeige3>
        break;
    48d4:	1d c0       	rjmp	.+58     	; 0x4910 <cocktail_check_command+0xf2>

    /*0x17 = 0d23*/
    case RFIDANZEIGE1:
        check_RFIDAnzeige1(button);
    48d6:	86 2f       	mov	r24, r22
    48d8:	64 da       	rcall	.-2872   	; 0x3da2 <check_RFIDAnzeige1>
        break;
    48da:	1a c0       	rjmp	.+52     	; 0x4910 <cocktail_check_command+0xf2>

    /*0x18 = 0d24*/
    case RFIDANZEIGE2:
        check_RFIDAnzeige2(button);
    48dc:	86 2f       	mov	r24, r22
    48de:	50 de       	rcall	.-864    	; 0x4580 <check_RFIDAnzeige2>
        break;

    /*0x19 = 0d25*/
    case RFIDFEHLER:
        check_RFIDFehler(button);
    48e0:	17 c0       	rjmp	.+46     	; 0x4910 <cocktail_check_command+0xf2>
    48e2:	86 2f       	mov	r24, r22
    48e4:	96 de       	rcall	.-724    	; 0x4612 <check_RFIDFehler>
        break;
    48e6:	14 c0       	rjmp	.+40     	; 0x4910 <cocktail_check_command+0xf2>

    /*0x1A = 0d26*/
    case ESP32_PAGE:
        Uart_Transmit_IT_PC("Page\r");
    48e8:	8a ea       	ldi	r24, 0xAA	; 170
    48ea:	96 e0       	ldi	r25, 0x06	; 6
    48ec:	0e 94 51 41 	call	0x82a2	; 0x82a2 <Uart_Transmit_IT_PC>
        check_ESP32(button);
    48f0:	8c 2f       	mov	r24, r28
    48f2:	98 de       	rcall	.-720    	; 0x4624 <check_ESP32>
        break;
    48f4:	0d c0       	rjmp	.+26     	; 0x4910 <cocktail_check_command+0xf2>

    /*0x1B = 0d27*/
    case LED_PAGE:
        Uart_Transmit_IT_PC("Page\r");
    48f6:	8a ea       	ldi	r24, 0xAA	; 170
    48f8:	96 e0       	ldi	r25, 0x06	; 6
    48fa:	0e 94 51 41 	call	0x82a2	; 0x82a2 <Uart_Transmit_IT_PC>
        check_LED(button);
    48fe:	8c 2f       	mov	r24, r28
    4900:	a8 de       	rcall	.-688    	; 0x4652 <check_LED>
        break;
    4902:	06 c0       	rjmp	.+12     	; 0x4910 <cocktail_check_command+0xf2>

    /*0x1C = 0d28*/
    case FLUESSANZEIGE4:
        Uart_Transmit_IT_PC("Page\r");
    4904:	8a ea       	ldi	r24, 0xAA	; 170
    4906:	96 e0       	ldi	r25, 0x06	; 6
    4908:	0e 94 51 41 	call	0x82a2	; 0x82a2 <Uart_Transmit_IT_PC>
        check_fluessanzeige4(button);
    490c:	8c 2f       	mov	r24, r28
    490e:	26 da       	rcall	.-2996   	; 0x3d5c <check_fluessanzeige4>
        break;
    }
}
    4910:	cf 91       	pop	r28
    4912:	08 95       	ret

00004914 <check_existence>:
getraenk_file_2_t *create_new_getraenk_file_2(uint8_t file_to_create)
{
    getraenk_file_2_t *newFile = calloc(1,sizeof(getraenk_file_2_t));
    newFile->file = file_to_create;
    return newFile;
}
    4914:	af 92       	push	r10
    4916:	bf 92       	push	r11
    4918:	cf 92       	push	r12
    491a:	df 92       	push	r13
    491c:	ef 92       	push	r14
    491e:	ff 92       	push	r15
    4920:	0f 93       	push	r16
    4922:	1f 93       	push	r17
    4924:	cf 93       	push	r28
    4926:	df 93       	push	r29
    4928:	cd b7       	in	r28, 0x3d	; 61
    492a:	de b7       	in	r29, 0x3e	; 62
    492c:	6b 97       	sbiw	r28, 0x1b	; 27
    492e:	0f b6       	in	r0, 0x3f	; 63
    4930:	f8 94       	cli
    4932:	de bf       	out	0x3e, r29	; 62
    4934:	0f be       	out	0x3f, r0	; 63
    4936:	cd bf       	out	0x3d, r28	; 61
    4938:	4a e0       	ldi	r20, 0x0A	; 10
    493a:	8e 01       	movw	r16, r28
    493c:	0f 5f       	subi	r16, 0xFF	; 255
    493e:	1f 4f       	sbci	r17, 0xFF	; 255
    4940:	b8 01       	movw	r22, r16
    4942:	90 e0       	ldi	r25, 0x00	; 0
    4944:	0e 94 be 48 	call	0x917c	; 0x917c <__itoa_ncheck>
    4948:	d8 01       	movw	r26, r16
    494a:	0d 90       	ld	r0, X+
    494c:	00 20       	and	r0, r0
    494e:	e9 f7       	brne	.-6      	; 0x494a <check_existence+0x36>
    4950:	11 97       	sbiw	r26, 0x01	; 1
    4952:	85 e0       	ldi	r24, 0x05	; 5
    4954:	e0 ee       	ldi	r30, 0xE0	; 224
    4956:	f4 e0       	ldi	r31, 0x04	; 4
    4958:	01 90       	ld	r0, Z+
    495a:	0d 92       	st	X+, r0
    495c:	8a 95       	dec	r24
    495e:	e1 f7       	brne	.-8      	; 0x4958 <check_existence+0x44>
    4960:	b8 01       	movw	r22, r16
    4962:	80 e0       	ldi	r24, 0x00	; 0
    4964:	0e 94 52 33 	call	0x66a4	; 0x66a4 <readFile>
    4968:	87 e0       	ldi	r24, 0x07	; 7
    496a:	e1 eb       	ldi	r30, 0xB1	; 177
    496c:	f4 e0       	ldi	r31, 0x04	; 4
    496e:	de 01       	movw	r26, r28
    4970:	55 96       	adiw	r26, 0x15	; 21
    4972:	01 90       	ld	r0, Z+
    4974:	0d 92       	st	X+, r0
    4976:	8a 95       	dec	r24
    4978:	e1 f7       	brne	.-8      	; 0x4972 <check_existence+0x5e>
    497a:	be 01       	movw	r22, r28
    497c:	6b 5e       	subi	r22, 0xEB	; 235
    497e:	7f 4f       	sbci	r23, 0xFF	; 255
    4980:	84 e9       	ldi	r24, 0x94	; 148
    4982:	9c e0       	ldi	r25, 0x0C	; 12
    4984:	0e 94 72 48 	call	0x90e4	; 0x90e4 <strtok>
    4988:	00 97       	sbiw	r24, 0x00	; 0
    498a:	09 f4       	brne	.+2      	; 0x498e <check_existence+0x7a>
    498c:	67 c0       	rjmp	.+206    	; 0x4a5c <check_existence+0x148>
    498e:	aa 24       	eor	r10, r10
    4990:	a3 94       	inc	r10
    4992:	bb 24       	eor	r11, r11
    4994:	b3 94       	inc	r11
    4996:	d1 2c       	mov	r13, r1
    4998:	6d e0       	ldi	r22, 0x0D	; 13
    499a:	73 e0       	ldi	r23, 0x03	; 3
    499c:	0e 94 87 48 	call	0x910e	; 0x910e <strcmp>
    49a0:	89 2b       	or	r24, r25
    49a2:	09 f0       	breq	.+2      	; 0x49a6 <check_existence+0x92>
    49a4:	50 c0       	rjmp	.+160    	; 0x4a46 <check_existence+0x132>
    49a6:	be 01       	movw	r22, r28
    49a8:	6b 5e       	subi	r22, 0xEB	; 235
    49aa:	7f 4f       	sbci	r23, 0xFF	; 255
    49ac:	80 e0       	ldi	r24, 0x00	; 0
    49ae:	90 e0       	ldi	r25, 0x00	; 0
    49b0:	0e 94 72 48 	call	0x90e4	; 0x90e4 <strtok>
    49b4:	7c 01       	movw	r14, r24
    49b6:	fc 01       	movw	r30, r24
    49b8:	80 81       	ld	r24, Z
    49ba:	8b 33       	cpi	r24, 0x3B	; 59
    49bc:	09 f4       	brne	.+2      	; 0x49c0 <check_existence+0xac>
    49be:	43 c0       	rjmp	.+134    	; 0x4a46 <check_existence+0x132>
    49c0:	0f 2e       	mov	r0, r31
    49c2:	fd e0       	ldi	r31, 0x0D	; 13
    49c4:	cf 2e       	mov	r12, r31
    49c6:	f0 2d       	mov	r31, r0
    49c8:	80 91 a7 0f 	lds	r24, 0x0FA7	; 0x800fa7 <tail_zut_in_Maschine>
    49cc:	90 91 a8 0f 	lds	r25, 0x0FA8	; 0x800fa8 <tail_zut_in_Maschine+0x1>
    49d0:	90 93 47 0a 	sts	0x0A47, r25	; 0x800a47 <aktuelleZutatInMaschine+0x1>
    49d4:	80 93 46 0a 	sts	0x0A46, r24	; 0x800a46 <aktuelleZutatInMaschine>
    49d8:	1d e0       	ldi	r17, 0x0D	; 13
    49da:	0b 2d       	mov	r16, r11
    49dc:	01 c0       	rjmp	.+2      	; 0x49e0 <check_existence+0xcc>
    49de:	08 2f       	mov	r16, r24
    49e0:	e0 91 46 0a 	lds	r30, 0x0A46	; 0x800a46 <aktuelleZutatInMaschine>
    49e4:	f0 91 47 0a 	lds	r31, 0x0A47	; 0x800a47 <aktuelleZutatInMaschine+0x1>
    49e8:	60 81       	ld	r22, Z
    49ea:	71 81       	ldd	r23, Z+1	; 0x01
    49ec:	c7 01       	movw	r24, r14
    49ee:	0e 94 87 48 	call	0x910e	; 0x910e <strcmp>
    49f2:	89 2b       	or	r24, r25
    49f4:	51 f4       	brne	.+20     	; 0x4a0a <check_existence+0xf6>
    49f6:	be 01       	movw	r22, r28
    49f8:	6b 5e       	subi	r22, 0xEB	; 235
    49fa:	7f 4f       	sbci	r23, 0xFF	; 255
    49fc:	80 e0       	ldi	r24, 0x00	; 0
    49fe:	90 e0       	ldi	r25, 0x00	; 0
    4a00:	0e 94 72 48 	call	0x90e4	; 0x90e4 <strtok>
    4a04:	11 30       	cpi	r17, 0x01	; 1
    4a06:	69 f1       	breq	.+90     	; 0x4a62 <check_existence+0x14e>
    4a08:	38 c0       	rjmp	.+112    	; 0x4a7a <check_existence+0x166>
    4a0a:	80 2f       	mov	r24, r16
    4a0c:	11 50       	subi	r17, 0x01	; 1
    4a0e:	49 f1       	breq	.+82     	; 0x4a62 <check_existence+0x14e>
    4a10:	e0 91 46 0a 	lds	r30, 0x0A46	; 0x800a46 <aktuelleZutatInMaschine>
    4a14:	f0 91 47 0a 	lds	r31, 0x0A47	; 0x800a47 <aktuelleZutatInMaschine+0x1>
    4a18:	24 85       	ldd	r18, Z+12	; 0x0c
    4a1a:	35 85       	ldd	r19, Z+13	; 0x0d
    4a1c:	30 93 47 0a 	sts	0x0A47, r19	; 0x800a47 <aktuelleZutatInMaschine+0x1>
    4a20:	20 93 46 0a 	sts	0x0A46, r18	; 0x800a46 <aktuelleZutatInMaschine>
    4a24:	01 11       	cpse	r16, r1
    4a26:	db cf       	rjmp	.-74     	; 0x49de <check_existence+0xca>
    4a28:	be 01       	movw	r22, r28
    4a2a:	6b 5e       	subi	r22, 0xEB	; 235
    4a2c:	7f 4f       	sbci	r23, 0xFF	; 255
    4a2e:	80 e0       	ldi	r24, 0x00	; 0
    4a30:	90 e0       	ldi	r25, 0x00	; 0
    4a32:	0e 94 72 48 	call	0x90e4	; 0x90e4 <strtok>
    4a36:	7c 01       	movw	r14, r24
    4a38:	fc 01       	movw	r30, r24
    4a3a:	80 81       	ld	r24, Z
    4a3c:	8b 33       	cpi	r24, 0x3B	; 59
    4a3e:	19 f0       	breq	.+6      	; 0x4a46 <check_existence+0x132>
    4a40:	ca 94       	dec	r12
    4a42:	c1 10       	cpse	r12, r1
    4a44:	c1 cf       	rjmp	.-126    	; 0x49c8 <check_existence+0xb4>
    4a46:	be 01       	movw	r22, r28
    4a48:	6b 5e       	subi	r22, 0xEB	; 235
    4a4a:	7f 4f       	sbci	r23, 0xFF	; 255
    4a4c:	80 e0       	ldi	r24, 0x00	; 0
    4a4e:	90 e0       	ldi	r25, 0x00	; 0
    4a50:	0e 94 72 48 	call	0x90e4	; 0x90e4 <strtok>
    4a54:	00 97       	sbiw	r24, 0x00	; 0
    4a56:	09 f0       	breq	.+2      	; 0x4a5a <check_existence+0x146>
    4a58:	9f cf       	rjmp	.-194    	; 0x4998 <check_existence+0x84>
    4a5a:	1a c0       	rjmp	.+52     	; 0x4a90 <check_existence+0x17c>
    4a5c:	aa 24       	eor	r10, r10
    4a5e:	a3 94       	inc	r10
    4a60:	17 c0       	rjmp	.+46     	; 0x4a90 <check_existence+0x17c>
    4a62:	e0 91 46 0a 	lds	r30, 0x0A46	; 0x800a46 <aktuelleZutatInMaschine>
    4a66:	f0 91 47 0a 	lds	r31, 0x0A47	; 0x800a47 <aktuelleZutatInMaschine+0x1>
    4a6a:	84 85       	ldd	r24, Z+12	; 0x0c
    4a6c:	95 85       	ldd	r25, Z+13	; 0x0d
    4a6e:	90 93 47 0a 	sts	0x0A47, r25	; 0x800a47 <aktuelleZutatInMaschine+0x1>
    4a72:	80 93 46 0a 	sts	0x0A46, r24	; 0x800a46 <aktuelleZutatInMaschine>
    4a76:	ad 2c       	mov	r10, r13
    4a78:	d7 cf       	rjmp	.-82     	; 0x4a28 <check_existence+0x114>
    4a7a:	e0 91 46 0a 	lds	r30, 0x0A46	; 0x800a46 <aktuelleZutatInMaschine>
    4a7e:	f0 91 47 0a 	lds	r31, 0x0A47	; 0x800a47 <aktuelleZutatInMaschine+0x1>
    4a82:	84 85       	ldd	r24, Z+12	; 0x0c
    4a84:	95 85       	ldd	r25, Z+13	; 0x0d
    4a86:	90 93 47 0a 	sts	0x0A47, r25	; 0x800a47 <aktuelleZutatInMaschine+0x1>
    4a8a:	80 93 46 0a 	sts	0x0A46, r24	; 0x800a46 <aktuelleZutatInMaschine>
    4a8e:	cc cf       	rjmp	.-104    	; 0x4a28 <check_existence+0x114>
    4a90:	8a 2d       	mov	r24, r10
    4a92:	6b 96       	adiw	r28, 0x1b	; 27
    4a94:	0f b6       	in	r0, 0x3f	; 63
    4a96:	f8 94       	cli
    4a98:	de bf       	out	0x3e, r29	; 62
    4a9a:	0f be       	out	0x3f, r0	; 63
    4a9c:	cd bf       	out	0x3d, r28	; 61
    4a9e:	df 91       	pop	r29
    4aa0:	cf 91       	pop	r28
    4aa2:	1f 91       	pop	r17
    4aa4:	0f 91       	pop	r16
    4aa6:	ff 90       	pop	r15
    4aa8:	ef 90       	pop	r14
    4aaa:	df 90       	pop	r13
    4aac:	cf 90       	pop	r12
    4aae:	bf 90       	pop	r11
    4ab0:	af 90       	pop	r10
    4ab2:	08 95       	ret

00004ab4 <create_new_getraenk_file>:
    4ab4:	cf 93       	push	r28
    4ab6:	c8 2f       	mov	r28, r24
    4ab8:	65 e0       	ldi	r22, 0x05	; 5
    4aba:	70 e0       	ldi	r23, 0x00	; 0
    4abc:	81 e0       	ldi	r24, 0x01	; 1
    4abe:	90 e0       	ldi	r25, 0x00	; 0
    4ac0:	0e 94 1a 47 	call	0x8e34	; 0x8e34 <calloc>
    4ac4:	fc 01       	movw	r30, r24
    4ac6:	c0 83       	st	Z, r28
    4ac8:	cf 91       	pop	r28
    4aca:	08 95       	ret

00004acc <insert_file_at_head>:

getraenk_file_t *insert_file_at_head(getraenk_file_t **head, getraenk_file_t *file_to_insert)
{
    4acc:	cf 93       	push	r28
    4ace:	df 93       	push	r29
    4ad0:	dc 01       	movw	r26, r24
    4ad2:	fb 01       	movw	r30, r22
    file_to_insert->next = *head;
    4ad4:	8d 91       	ld	r24, X+
    4ad6:	9c 91       	ld	r25, X
    4ad8:	11 97       	sbiw	r26, 0x01	; 1
    4ada:	92 83       	std	Z+2, r25	; 0x02
    4adc:	81 83       	std	Z+1, r24	; 0x01
    file_to_insert->prev = NULL;
    4ade:	14 82       	std	Z+4, r1	; 0x04
    4ae0:	13 82       	std	Z+3, r1	; 0x03

    if((*head) == NULL)
    4ae2:	cd 91       	ld	r28, X+
    4ae4:	dc 91       	ld	r29, X
    4ae6:	11 97       	sbiw	r26, 0x01	; 1
    4ae8:	20 97       	sbiw	r28, 0x00	; 0
    4aea:	29 f4       	brne	.+10     	; 0x4af6 <insert_file_at_head+0x2a>
    {
        tail_getraenk_file = file_to_insert;
    4aec:	70 93 38 0a 	sts	0x0A38, r23	; 0x800a38 <tail_getraenk_file+0x1>
    4af0:	60 93 37 0a 	sts	0x0A37, r22	; 0x800a37 <tail_getraenk_file>
    4af4:	08 c0       	rjmp	.+16     	; 0x4b06 <insert_file_at_head+0x3a>
    } else
    {
        (*head)->prev = file_to_insert;
    4af6:	7c 83       	std	Y+4, r23	; 0x04
    4af8:	6b 83       	std	Y+3, r22	; 0x03
        file_to_insert->prev = tail_getraenk_file;
    4afa:	80 91 37 0a 	lds	r24, 0x0A37	; 0x800a37 <tail_getraenk_file>
    4afe:	90 91 38 0a 	lds	r25, 0x0A38	; 0x800a38 <tail_getraenk_file+0x1>
    4b02:	94 83       	std	Z+4, r25	; 0x04
    4b04:	83 83       	std	Z+3, r24	; 0x03
    }
    *head = file_to_insert;
    4b06:	ed 93       	st	X+, r30
    4b08:	fc 93       	st	X, r31
    tail_getraenk_file->next = *head;
    4b0a:	a0 91 37 0a 	lds	r26, 0x0A37	; 0x800a37 <tail_getraenk_file>
    4b0e:	b0 91 38 0a 	lds	r27, 0x0A38	; 0x800a38 <tail_getraenk_file+0x1>
    4b12:	12 96       	adiw	r26, 0x02	; 2
    4b14:	fc 93       	st	X, r31
    4b16:	ee 93       	st	-X, r30
    4b18:	11 97       	sbiw	r26, 0x01	; 1
    return file_to_insert;
}
    4b1a:	cf 01       	movw	r24, r30
    4b1c:	df 91       	pop	r29
    4b1e:	cf 91       	pop	r28
    4b20:	08 95       	ret

00004b22 <create_new_zutat_file>:
}



zutat_file_t *create_new_zutat_file(uint8_t file_to_create)
{
    4b22:	cf 93       	push	r28
    4b24:	c8 2f       	mov	r28, r24
    // Alloziiere Speicher fr die Struct-Variabeln gemss Struct zutat_file_t
    zutat_file_t *newFile = calloc(1,sizeof(zutat_file_t));
    4b26:	65 e0       	ldi	r22, 0x05	; 5
    4b28:	70 e0       	ldi	r23, 0x00	; 0
    4b2a:	81 e0       	ldi	r24, 0x01	; 1
    4b2c:	90 e0       	ldi	r25, 0x00	; 0
    4b2e:	0e 94 1a 47 	call	0x8e34	; 0x8e34 <calloc>

    // Schreibe die Nummer des Files in entsprechende Variabeln des Structs
    newFile->file = file_to_create;
    4b32:	fc 01       	movw	r30, r24
    4b34:	c0 83       	st	Z, r28

    return newFile;
}
    4b36:	cf 91       	pop	r28
    4b38:	08 95       	ret

00004b3a <insert_zutat_file_at_head>:



zutat_file_t *insert_zutat_file_at_head(zutat_file_t **head, zutat_file_t *file_to_insert)
{
    4b3a:	cf 93       	push	r28
    4b3c:	df 93       	push	r29
    4b3e:	dc 01       	movw	r26, r24
    4b40:	fb 01       	movw	r30, r22
    **             **   *   *   *   *   *| |*   *   *   *   *   **              **
    **<==**prev******<==*<==*<==*<==*<==*| |*<==*<==*<==*<==*<==*******prev**<==**
    ******************************************************************************/

    // Setze das vorhergehende und nachkommende File des einzufgenden Files
    file_to_insert->next = *head;
    4b42:	8d 91       	ld	r24, X+
    4b44:	9c 91       	ld	r25, X
    4b46:	11 97       	sbiw	r26, 0x01	; 1
    4b48:	92 83       	std	Z+2, r25	; 0x02
    4b4a:	81 83       	std	Z+1, r24	; 0x01
    file_to_insert->prev = NULL;
    4b4c:	14 82       	std	Z+4, r1	; 0x04
    4b4e:	13 82       	std	Z+3, r1	; 0x03

    // Falls keine head-Zutat besteht, ist die einzufgende Zutat die tail-Zutat
    if((*head) == NULL)
    4b50:	cd 91       	ld	r28, X+
    4b52:	dc 91       	ld	r29, X
    4b54:	11 97       	sbiw	r26, 0x01	; 1
    4b56:	20 97       	sbiw	r28, 0x00	; 0
    4b58:	29 f4       	brne	.+10     	; 0x4b64 <insert_zutat_file_at_head+0x2a>
    {
        tail_zutat_file = file_to_insert;
    4b5a:	70 93 55 0a 	sts	0x0A55, r23	; 0x800a55 <tail_zutat_file+0x1>
    4b5e:	60 93 54 0a 	sts	0x0A54, r22	; 0x800a54 <tail_zutat_file>
    4b62:	08 c0       	rjmp	.+16     	; 0x4b74 <insert_zutat_file_at_head+0x3a>

    // Besteht ein head-File, ist dessen zuvorkommends File das einzufgende File
    // und das zuvorkommende File des einzufgenden Files ist das tail-File
    else
    {
        (*head)->prev = file_to_insert;
    4b64:	7c 83       	std	Y+4, r23	; 0x04
    4b66:	6b 83       	std	Y+3, r22	; 0x03
        file_to_insert->prev = tail_zutat_file;
    4b68:	80 91 54 0a 	lds	r24, 0x0A54	; 0x800a54 <tail_zutat_file>
    4b6c:	90 91 55 0a 	lds	r25, 0x0A55	; 0x800a55 <tail_zutat_file+0x1>
    4b70:	94 83       	std	Z+4, r25	; 0x04
    4b72:	83 83       	std	Z+3, r24	; 0x03
    }

    // head-File ist jetzt das einzufgende File
    // Das nachkommende File des tail-Files ist jetzt das neue head-File
    *head = file_to_insert;
    4b74:	ed 93       	st	X+, r30
    4b76:	fc 93       	st	X, r31
    tail_zutat_file->next = *head;
    4b78:	a0 91 54 0a 	lds	r26, 0x0A54	; 0x800a54 <tail_zutat_file>
    4b7c:	b0 91 55 0a 	lds	r27, 0x0A55	; 0x800a55 <tail_zutat_file+0x1>
    4b80:	12 96       	adiw	r26, 0x02	; 2
    4b82:	fc 93       	st	X, r31
    4b84:	ee 93       	st	-X, r30
    4b86:	11 97       	sbiw	r26, 0x01	; 1

    return file_to_insert;
    4b88:	cf 01       	movw	r24, r30
    4b8a:	df 91       	pop	r29
    4b8c:	cf 91       	pop	r28
    4b8e:	08 95       	ret

00004b90 <milliS_timer>:
    OCR5B = 0;
}

void milliS_timer(uint8_t milliS)
{
    TCCR0A |= (1<<WGM01);
    4b90:	94 b5       	in	r25, 0x24	; 36
    4b92:	92 60       	ori	r25, 0x02	; 2
    4b94:	94 bd       	out	0x24, r25	; 36
    TCCR0B |= (1<<CS02)|(1<<CS00);
    4b96:	95 b5       	in	r25, 0x25	; 37
    4b98:	95 60       	ori	r25, 0x05	; 5
    4b9a:	95 bd       	out	0x25, r25	; 37
    OCR0A = milliS * 7.8125 - 1;
    4b9c:	68 2f       	mov	r22, r24
    4b9e:	70 e0       	ldi	r23, 0x00	; 0
    4ba0:	80 e0       	ldi	r24, 0x00	; 0
    4ba2:	90 e0       	ldi	r25, 0x00	; 0
    4ba4:	0e 94 7e 44 	call	0x88fc	; 0x88fc <__floatsisf>
    4ba8:	20 e0       	ldi	r18, 0x00	; 0
    4baa:	30 e0       	ldi	r19, 0x00	; 0
    4bac:	4a ef       	ldi	r20, 0xFA	; 250
    4bae:	50 e4       	ldi	r21, 0x40	; 64
    4bb0:	0e 94 32 45 	call	0x8a64	; 0x8a64 <__mulsf3>
    4bb4:	20 e0       	ldi	r18, 0x00	; 0
    4bb6:	30 e0       	ldi	r19, 0x00	; 0
    4bb8:	40 e8       	ldi	r20, 0x80	; 128
    4bba:	5f e3       	ldi	r21, 0x3F	; 63
    4bbc:	0e 94 7f 43 	call	0x86fe	; 0x86fe <__subsf3>
    4bc0:	0e 94 50 44 	call	0x88a0	; 0x88a0 <__fixunssfsi>
    4bc4:	67 bd       	out	0x27, r22	; 39
    TIMSK0 |= (1<<OCIE0A);
    4bc6:	ee e6       	ldi	r30, 0x6E	; 110
    4bc8:	f0 e0       	ldi	r31, 0x00	; 0
    4bca:	80 81       	ld	r24, Z
    4bcc:	82 60       	ori	r24, 0x02	; 2
    4bce:	80 83       	st	Z, r24
    4bd0:	08 95       	ret

00004bd2 <PWM_init>:
	PWM_init();
}

void PWM_init(void)
{
    milliS_timer(20);
    4bd2:	84 e1       	ldi	r24, 0x14	; 20
    4bd4:	dd df       	rcall	.-70     	; 0x4b90 <milliS_timer>

    TCCR1B |= (1 << WGM12)|(1 << CS10);
    4bd6:	e1 e8       	ldi	r30, 0x81	; 129
    4bd8:	f0 e0       	ldi	r31, 0x00	; 0
    4bda:	80 81       	ld	r24, Z
    4bdc:	89 60       	ori	r24, 0x09	; 9
    4bde:	80 83       	st	Z, r24
    TIMSK1 |= (1 << OCIE1A)|(1<<OCIE1B);
    4be0:	ef e6       	ldi	r30, 0x6F	; 111
    4be2:	f0 e0       	ldi	r31, 0x00	; 0
    4be4:	80 81       	ld	r24, Z
    4be6:	86 60       	ori	r24, 0x06	; 6
    4be8:	80 83       	st	Z, r24
    OCR1A = 800;
    4bea:	80 e2       	ldi	r24, 0x20	; 32
    4bec:	93 e0       	ldi	r25, 0x03	; 3
    4bee:	90 93 89 00 	sts	0x0089, r25	; 0x800089 <__TEXT_REGION_LENGTH__+0x700089>
    4bf2:	80 93 88 00 	sts	0x0088, r24	; 0x800088 <__TEXT_REGION_LENGTH__+0x700088>
    OCR1B = 0;
    4bf6:	10 92 8b 00 	sts	0x008B, r1	; 0x80008b <__TEXT_REGION_LENGTH__+0x70008b>
    4bfa:	10 92 8a 00 	sts	0x008A, r1	; 0x80008a <__TEXT_REGION_LENGTH__+0x70008a>

    TCCR3B |= (1 << WGM32)|(1 << CS30);
    4bfe:	e1 e9       	ldi	r30, 0x91	; 145
    4c00:	f0 e0       	ldi	r31, 0x00	; 0
    4c02:	20 81       	ld	r18, Z
    4c04:	29 60       	ori	r18, 0x09	; 9
    4c06:	20 83       	st	Z, r18
    TIMSK3 |= (1 << OCIE3A)|(1<<OCIE3B);
    4c08:	e1 e7       	ldi	r30, 0x71	; 113
    4c0a:	f0 e0       	ldi	r31, 0x00	; 0
    4c0c:	20 81       	ld	r18, Z
    4c0e:	26 60       	ori	r18, 0x06	; 6
    4c10:	20 83       	st	Z, r18
    OCR3A = 800;
    4c12:	90 93 99 00 	sts	0x0099, r25	; 0x800099 <__TEXT_REGION_LENGTH__+0x700099>
    4c16:	80 93 98 00 	sts	0x0098, r24	; 0x800098 <__TEXT_REGION_LENGTH__+0x700098>
    OCR3B = 0;
    4c1a:	10 92 9b 00 	sts	0x009B, r1	; 0x80009b <__TEXT_REGION_LENGTH__+0x70009b>
    4c1e:	10 92 9a 00 	sts	0x009A, r1	; 0x80009a <__TEXT_REGION_LENGTH__+0x70009a>

    TCCR4B |= (1 << WGM42)|(1 << CS40);
    4c22:	e1 ea       	ldi	r30, 0xA1	; 161
    4c24:	f0 e0       	ldi	r31, 0x00	; 0
    4c26:	20 81       	ld	r18, Z
    4c28:	29 60       	ori	r18, 0x09	; 9
    4c2a:	20 83       	st	Z, r18
    TIMSK4 |= (1 << OCIE4A)|(1<<OCIE4B);
    4c2c:	e2 e7       	ldi	r30, 0x72	; 114
    4c2e:	f0 e0       	ldi	r31, 0x00	; 0
    4c30:	20 81       	ld	r18, Z
    4c32:	26 60       	ori	r18, 0x06	; 6
    4c34:	20 83       	st	Z, r18
    OCR4A = 800;
    4c36:	90 93 a9 00 	sts	0x00A9, r25	; 0x8000a9 <__TEXT_REGION_LENGTH__+0x7000a9>
    4c3a:	80 93 a8 00 	sts	0x00A8, r24	; 0x8000a8 <__TEXT_REGION_LENGTH__+0x7000a8>
    OCR4B = 700;
    4c3e:	2c eb       	ldi	r18, 0xBC	; 188
    4c40:	32 e0       	ldi	r19, 0x02	; 2
    4c42:	30 93 ab 00 	sts	0x00AB, r19	; 0x8000ab <__TEXT_REGION_LENGTH__+0x7000ab>
    4c46:	20 93 aa 00 	sts	0x00AA, r18	; 0x8000aa <__TEXT_REGION_LENGTH__+0x7000aa>

    TCCR5B |= (1 << WGM52)|(1 << CS50);
    4c4a:	e1 e2       	ldi	r30, 0x21	; 33
    4c4c:	f1 e0       	ldi	r31, 0x01	; 1
    4c4e:	20 81       	ld	r18, Z
    4c50:	29 60       	ori	r18, 0x09	; 9
    4c52:	20 83       	st	Z, r18
    TIMSK5 |= (1 << OCIE5A)|(1<<OCIE5B);
    4c54:	e3 e7       	ldi	r30, 0x73	; 115
    4c56:	f0 e0       	ldi	r31, 0x00	; 0
    4c58:	20 81       	ld	r18, Z
    4c5a:	26 60       	ori	r18, 0x06	; 6
    4c5c:	20 83       	st	Z, r18
    OCR5A = 800;
    4c5e:	90 93 29 01 	sts	0x0129, r25	; 0x800129 <__TEXT_REGION_LENGTH__+0x700129>
    4c62:	80 93 28 01 	sts	0x0128, r24	; 0x800128 <__TEXT_REGION_LENGTH__+0x700128>
    OCR5B = 0;
    4c66:	10 92 2b 01 	sts	0x012B, r1	; 0x80012b <__TEXT_REGION_LENGTH__+0x70012b>
    4c6a:	10 92 2a 01 	sts	0x012A, r1	; 0x80012a <__TEXT_REGION_LENGTH__+0x70012a>
    4c6e:	08 95       	ret

00004c70 <init_LED>:
#include <util/delay.h>
#include "../UART/UART.h"

void init_LED(void)
{
    state = 0;
    4c70:	10 92 82 0a 	sts	0x0A82, r1	; 0x800a82 <state+0x1>
    4c74:	10 92 81 0a 	sts	0x0A81, r1	; 0x800a81 <state>
    rainbow_i = 0;
    4c78:	10 92 44 0a 	sts	0x0A44, r1	; 0x800a44 <rainbow_i+0x1>
    4c7c:	10 92 43 0a 	sts	0x0A43, r1	; 0x800a43 <rainbow_i>
    light = RAINBOW_LED;
    4c80:	81 e0       	ldi	r24, 0x01	; 1
    4c82:	80 93 85 0a 	sts	0x0A85, r24	; 0x800a85 <light>
	PWM_init();
    4c86:	a5 cf       	rjmp	.-182    	; 0x4bd2 <PWM_init>
    4c88:	08 95       	ret

00004c8a <__vector_17>:
    OCR0A = milliS * 7.8125 - 1;
    TIMSK0 |= (1<<OCIE0A);
}

ISR(TIMER1_COMPA_vect)
{
    4c8a:	1f 92       	push	r1
    4c8c:	0f 92       	push	r0
    4c8e:	0f b6       	in	r0, 0x3f	; 63
    4c90:	0f 92       	push	r0
    4c92:	11 24       	eor	r1, r1
    LEDW_PORT |= (LEDW_BIT);
    4c94:	8b 9a       	sbi	0x11, 3	; 17
}
    4c96:	0f 90       	pop	r0
    4c98:	0f be       	out	0x3f, r0	; 63
    4c9a:	0f 90       	pop	r0
    4c9c:	1f 90       	pop	r1
    4c9e:	18 95       	reti

00004ca0 <__vector_18>:

ISR(TIMER1_COMPB_vect)
{
    4ca0:	1f 92       	push	r1
    4ca2:	0f 92       	push	r0
    4ca4:	0f b6       	in	r0, 0x3f	; 63
    4ca6:	0f 92       	push	r0
    4ca8:	11 24       	eor	r1, r1
    LEDW_PORT &= ~LEDW_BIT;
    4caa:	8b 98       	cbi	0x11, 3	; 17
}
    4cac:	0f 90       	pop	r0
    4cae:	0f be       	out	0x3f, r0	; 63
    4cb0:	0f 90       	pop	r0
    4cb2:	1f 90       	pop	r1
    4cb4:	18 95       	reti

00004cb6 <__vector_32>:

ISR(TIMER3_COMPA_vect)
{
    4cb6:	1f 92       	push	r1
    4cb8:	0f 92       	push	r0
    4cba:	0f b6       	in	r0, 0x3f	; 63
    4cbc:	0f 92       	push	r0
    4cbe:	11 24       	eor	r1, r1
    LEDR_PORT |= (LEDR_BIT);
    4cc0:	8e 9a       	sbi	0x11, 6	; 17
}
    4cc2:	0f 90       	pop	r0
    4cc4:	0f be       	out	0x3f, r0	; 63
    4cc6:	0f 90       	pop	r0
    4cc8:	1f 90       	pop	r1
    4cca:	18 95       	reti

00004ccc <__vector_33>:

ISR(TIMER3_COMPB_vect)
{
    4ccc:	1f 92       	push	r1
    4cce:	0f 92       	push	r0
    4cd0:	0f b6       	in	r0, 0x3f	; 63
    4cd2:	0f 92       	push	r0
    4cd4:	11 24       	eor	r1, r1
    LEDR_PORT &= ~LEDR_BIT;
    4cd6:	8e 98       	cbi	0x11, 6	; 17
}
    4cd8:	0f 90       	pop	r0
    4cda:	0f be       	out	0x3f, r0	; 63
    4cdc:	0f 90       	pop	r0
    4cde:	1f 90       	pop	r1
    4ce0:	18 95       	reti

00004ce2 <__vector_42>:

ISR(TIMER4_COMPA_vect)
{
    4ce2:	1f 92       	push	r1
    4ce4:	0f 92       	push	r0
    4ce6:	0f b6       	in	r0, 0x3f	; 63
    4ce8:	0f 92       	push	r0
    4cea:	11 24       	eor	r1, r1
    LEDG_PORT |= (LEDG_BIT);
    4cec:	8d 9a       	sbi	0x11, 5	; 17
}
    4cee:	0f 90       	pop	r0
    4cf0:	0f be       	out	0x3f, r0	; 63
    4cf2:	0f 90       	pop	r0
    4cf4:	1f 90       	pop	r1
    4cf6:	18 95       	reti

00004cf8 <__vector_43>:

ISR(TIMER4_COMPB_vect)
{
    4cf8:	1f 92       	push	r1
    4cfa:	0f 92       	push	r0
    4cfc:	0f b6       	in	r0, 0x3f	; 63
    4cfe:	0f 92       	push	r0
    4d00:	11 24       	eor	r1, r1
    LEDG_PORT &= ~LEDG_BIT;
    4d02:	8d 98       	cbi	0x11, 5	; 17
}
    4d04:	0f 90       	pop	r0
    4d06:	0f be       	out	0x3f, r0	; 63
    4d08:	0f 90       	pop	r0
    4d0a:	1f 90       	pop	r1
    4d0c:	18 95       	reti

00004d0e <__vector_47>:

ISR(TIMER5_COMPA_vect)
{
    4d0e:	1f 92       	push	r1
    4d10:	0f 92       	push	r0
    4d12:	0f b6       	in	r0, 0x3f	; 63
    4d14:	0f 92       	push	r0
    4d16:	11 24       	eor	r1, r1
    LEDB_PORT |= (LEDB_BIT);
    4d18:	8c 9a       	sbi	0x11, 4	; 17
}
    4d1a:	0f 90       	pop	r0
    4d1c:	0f be       	out	0x3f, r0	; 63
    4d1e:	0f 90       	pop	r0
    4d20:	1f 90       	pop	r1
    4d22:	18 95       	reti

00004d24 <__vector_48>:

ISR(TIMER5_COMPB_vect)
{
    4d24:	1f 92       	push	r1
    4d26:	0f 92       	push	r0
    4d28:	0f b6       	in	r0, 0x3f	; 63
    4d2a:	0f 92       	push	r0
    4d2c:	11 24       	eor	r1, r1
    LEDB_PORT &= ~LEDB_BIT;
    4d2e:	8c 98       	cbi	0x11, 4	; 17
}
    4d30:	0f 90       	pop	r0
    4d32:	0f be       	out	0x3f, r0	; 63
    4d34:	0f 90       	pop	r0
    4d36:	1f 90       	pop	r1
    4d38:	18 95       	reti

00004d3a <rainbow>:
void rainbow (void)
{

    switch (state)
    4d3a:	80 91 81 0a 	lds	r24, 0x0A81	; 0x800a81 <state>
    4d3e:	90 91 82 0a 	lds	r25, 0x0A82	; 0x800a82 <state+0x1>
    4d42:	82 30       	cpi	r24, 0x02	; 2
    4d44:	91 05       	cpc	r25, r1
    4d46:	09 f4       	brne	.+2      	; 0x4d4a <rainbow+0x10>
    4d48:	54 c0       	rjmp	.+168    	; 0x4df2 <rainbow+0xb8>
    4d4a:	28 f4       	brcc	.+10     	; 0x4d56 <rainbow+0x1c>
    4d4c:	00 97       	sbiw	r24, 0x00	; 0
    4d4e:	69 f0       	breq	.+26     	; 0x4d6a <rainbow+0x30>
    4d50:	01 97       	sbiw	r24, 0x01	; 1
    4d52:	81 f1       	breq	.+96     	; 0x4db4 <rainbow+0x7a>
    4d54:	08 95       	ret
    4d56:	84 30       	cpi	r24, 0x04	; 4
    4d58:	91 05       	cpc	r25, r1
    4d5a:	09 f4       	brne	.+2      	; 0x4d5e <rainbow+0x24>
    4d5c:	8e c0       	rjmp	.+284    	; 0x4e7a <rainbow+0x140>
    4d5e:	08 f4       	brcc	.+2      	; 0x4d62 <rainbow+0x28>
    4d60:	6d c0       	rjmp	.+218    	; 0x4e3c <rainbow+0x102>
    4d62:	05 97       	sbiw	r24, 0x05	; 5
    4d64:	09 f4       	brne	.+2      	; 0x4d68 <rainbow+0x2e>
    4d66:	ad c0       	rjmp	.+346    	; 0x4ec2 <rainbow+0x188>
    4d68:	08 95       	ret
    {

    case 0:
        TCCR3B |= (1 << CS30);
    4d6a:	e1 e9       	ldi	r30, 0x91	; 145
    4d6c:	f0 e0       	ldi	r31, 0x00	; 0
    4d6e:	80 81       	ld	r24, Z
    4d70:	81 60       	ori	r24, 0x01	; 1
    4d72:	80 83       	st	Z, r24
        rainbow_i += STEP;
    4d74:	80 91 43 0a 	lds	r24, 0x0A43	; 0x800a43 <rainbow_i>
    4d78:	90 91 44 0a 	lds	r25, 0x0A44	; 0x800a44 <rainbow_i+0x1>
    4d7c:	01 96       	adiw	r24, 0x01	; 1
    4d7e:	90 93 44 0a 	sts	0x0A44, r25	; 0x800a44 <rainbow_i+0x1>
    4d82:	80 93 43 0a 	sts	0x0A43, r24	; 0x800a43 <rainbow_i>
        PWM_DUTY_RED = rainbow_i;
    4d86:	80 91 43 0a 	lds	r24, 0x0A43	; 0x800a43 <rainbow_i>
    4d8a:	90 91 44 0a 	lds	r25, 0x0A44	; 0x800a44 <rainbow_i+0x1>
    4d8e:	90 93 9b 00 	sts	0x009B, r25	; 0x80009b <__TEXT_REGION_LENGTH__+0x70009b>
    4d92:	80 93 9a 00 	sts	0x009A, r24	; 0x80009a <__TEXT_REGION_LENGTH__+0x70009a>
        if (rainbow_i >= 700)
    4d96:	80 91 43 0a 	lds	r24, 0x0A43	; 0x800a43 <rainbow_i>
    4d9a:	90 91 44 0a 	lds	r25, 0x0A44	; 0x800a44 <rainbow_i+0x1>
    4d9e:	8c 3b       	cpi	r24, 0xBC	; 188
    4da0:	92 40       	sbci	r25, 0x02	; 2
    4da2:	08 f4       	brcc	.+2      	; 0x4da6 <rainbow+0x6c>
    4da4:	a9 c0       	rjmp	.+338    	; 0x4ef8 <rainbow+0x1be>
        {
            state = 1;
    4da6:	81 e0       	ldi	r24, 0x01	; 1
    4da8:	90 e0       	ldi	r25, 0x00	; 0
    4daa:	90 93 82 0a 	sts	0x0A82, r25	; 0x800a82 <state+0x1>
    4dae:	80 93 81 0a 	sts	0x0A81, r24	; 0x800a81 <state>
    4db2:	08 95       	ret
        }
        break;

    case 1:
        rainbow_i -= STEP;
    4db4:	80 91 43 0a 	lds	r24, 0x0A43	; 0x800a43 <rainbow_i>
    4db8:	90 91 44 0a 	lds	r25, 0x0A44	; 0x800a44 <rainbow_i+0x1>
    4dbc:	01 97       	sbiw	r24, 0x01	; 1
    4dbe:	90 93 44 0a 	sts	0x0A44, r25	; 0x800a44 <rainbow_i+0x1>
    4dc2:	80 93 43 0a 	sts	0x0A43, r24	; 0x800a43 <rainbow_i>
        PWM_DUTY_GREEN = rainbow_i;
    4dc6:	80 91 43 0a 	lds	r24, 0x0A43	; 0x800a43 <rainbow_i>
    4dca:	90 91 44 0a 	lds	r25, 0x0A44	; 0x800a44 <rainbow_i+0x1>
    4dce:	90 93 ab 00 	sts	0x00AB, r25	; 0x8000ab <__TEXT_REGION_LENGTH__+0x7000ab>
    4dd2:	80 93 aa 00 	sts	0x00AA, r24	; 0x8000aa <__TEXT_REGION_LENGTH__+0x7000aa>
        if (rainbow_i <= 0)
    4dd6:	80 91 43 0a 	lds	r24, 0x0A43	; 0x800a43 <rainbow_i>
    4dda:	90 91 44 0a 	lds	r25, 0x0A44	; 0x800a44 <rainbow_i+0x1>
    4dde:	89 2b       	or	r24, r25
    4de0:	09 f0       	breq	.+2      	; 0x4de4 <rainbow+0xaa>
    4de2:	8a c0       	rjmp	.+276    	; 0x4ef8 <rainbow+0x1be>
        {
            state = 2;
    4de4:	82 e0       	ldi	r24, 0x02	; 2
    4de6:	90 e0       	ldi	r25, 0x00	; 0
    4de8:	90 93 82 0a 	sts	0x0A82, r25	; 0x800a82 <state+0x1>
    4dec:	80 93 81 0a 	sts	0x0A81, r24	; 0x800a81 <state>
    4df0:	08 95       	ret
        }
        break;

    case 2:
        TCCR5B |= (1 << CS50);
    4df2:	e1 e2       	ldi	r30, 0x21	; 33
    4df4:	f1 e0       	ldi	r31, 0x01	; 1
    4df6:	80 81       	ld	r24, Z
    4df8:	81 60       	ori	r24, 0x01	; 1
    4dfa:	80 83       	st	Z, r24
        rainbow_i += STEP;
    4dfc:	80 91 43 0a 	lds	r24, 0x0A43	; 0x800a43 <rainbow_i>
    4e00:	90 91 44 0a 	lds	r25, 0x0A44	; 0x800a44 <rainbow_i+0x1>
    4e04:	01 96       	adiw	r24, 0x01	; 1
    4e06:	90 93 44 0a 	sts	0x0A44, r25	; 0x800a44 <rainbow_i+0x1>
    4e0a:	80 93 43 0a 	sts	0x0A43, r24	; 0x800a43 <rainbow_i>
        PWM_DUTY_BLUE = rainbow_i;
    4e0e:	80 91 43 0a 	lds	r24, 0x0A43	; 0x800a43 <rainbow_i>
    4e12:	90 91 44 0a 	lds	r25, 0x0A44	; 0x800a44 <rainbow_i+0x1>
    4e16:	90 93 2b 01 	sts	0x012B, r25	; 0x80012b <__TEXT_REGION_LENGTH__+0x70012b>
    4e1a:	80 93 2a 01 	sts	0x012A, r24	; 0x80012a <__TEXT_REGION_LENGTH__+0x70012a>
        if (rainbow_i >= 700)
    4e1e:	80 91 43 0a 	lds	r24, 0x0A43	; 0x800a43 <rainbow_i>
    4e22:	90 91 44 0a 	lds	r25, 0x0A44	; 0x800a44 <rainbow_i+0x1>
    4e26:	8c 3b       	cpi	r24, 0xBC	; 188
    4e28:	92 40       	sbci	r25, 0x02	; 2
    4e2a:	08 f4       	brcc	.+2      	; 0x4e2e <rainbow+0xf4>
    4e2c:	65 c0       	rjmp	.+202    	; 0x4ef8 <rainbow+0x1be>
        {
            state = 3;
    4e2e:	83 e0       	ldi	r24, 0x03	; 3
    4e30:	90 e0       	ldi	r25, 0x00	; 0
    4e32:	90 93 82 0a 	sts	0x0A82, r25	; 0x800a82 <state+0x1>
    4e36:	80 93 81 0a 	sts	0x0A81, r24	; 0x800a81 <state>
    4e3a:	08 95       	ret
        }
        break;

    case 3:
        rainbow_i -= STEP;
    4e3c:	80 91 43 0a 	lds	r24, 0x0A43	; 0x800a43 <rainbow_i>
    4e40:	90 91 44 0a 	lds	r25, 0x0A44	; 0x800a44 <rainbow_i+0x1>
    4e44:	01 97       	sbiw	r24, 0x01	; 1
    4e46:	90 93 44 0a 	sts	0x0A44, r25	; 0x800a44 <rainbow_i+0x1>
    4e4a:	80 93 43 0a 	sts	0x0A43, r24	; 0x800a43 <rainbow_i>
        PWM_DUTY_RED = rainbow_i;
    4e4e:	80 91 43 0a 	lds	r24, 0x0A43	; 0x800a43 <rainbow_i>
    4e52:	90 91 44 0a 	lds	r25, 0x0A44	; 0x800a44 <rainbow_i+0x1>
    4e56:	90 93 9b 00 	sts	0x009B, r25	; 0x80009b <__TEXT_REGION_LENGTH__+0x70009b>
    4e5a:	80 93 9a 00 	sts	0x009A, r24	; 0x80009a <__TEXT_REGION_LENGTH__+0x70009a>
        if (rainbow_i <= 0)
    4e5e:	80 91 43 0a 	lds	r24, 0x0A43	; 0x800a43 <rainbow_i>
    4e62:	90 91 44 0a 	lds	r25, 0x0A44	; 0x800a44 <rainbow_i+0x1>
    4e66:	89 2b       	or	r24, r25
    4e68:	09 f0       	breq	.+2      	; 0x4e6c <rainbow+0x132>
    4e6a:	46 c0       	rjmp	.+140    	; 0x4ef8 <rainbow+0x1be>
        {
            state = 4;
    4e6c:	84 e0       	ldi	r24, 0x04	; 4
    4e6e:	90 e0       	ldi	r25, 0x00	; 0
    4e70:	90 93 82 0a 	sts	0x0A82, r25	; 0x800a82 <state+0x1>
    4e74:	80 93 81 0a 	sts	0x0A81, r24	; 0x800a81 <state>
    4e78:	08 95       	ret
        }
        break;

    case 4:
        TCCR4B |= (1 << CS40);
    4e7a:	e1 ea       	ldi	r30, 0xA1	; 161
    4e7c:	f0 e0       	ldi	r31, 0x00	; 0
    4e7e:	80 81       	ld	r24, Z
    4e80:	81 60       	ori	r24, 0x01	; 1
    4e82:	80 83       	st	Z, r24
        rainbow_i += STEP;
    4e84:	80 91 43 0a 	lds	r24, 0x0A43	; 0x800a43 <rainbow_i>
    4e88:	90 91 44 0a 	lds	r25, 0x0A44	; 0x800a44 <rainbow_i+0x1>
    4e8c:	01 96       	adiw	r24, 0x01	; 1
    4e8e:	90 93 44 0a 	sts	0x0A44, r25	; 0x800a44 <rainbow_i+0x1>
    4e92:	80 93 43 0a 	sts	0x0A43, r24	; 0x800a43 <rainbow_i>
        PWM_DUTY_GREEN = rainbow_i;
    4e96:	80 91 43 0a 	lds	r24, 0x0A43	; 0x800a43 <rainbow_i>
    4e9a:	90 91 44 0a 	lds	r25, 0x0A44	; 0x800a44 <rainbow_i+0x1>
    4e9e:	90 93 ab 00 	sts	0x00AB, r25	; 0x8000ab <__TEXT_REGION_LENGTH__+0x7000ab>
    4ea2:	80 93 aa 00 	sts	0x00AA, r24	; 0x8000aa <__TEXT_REGION_LENGTH__+0x7000aa>
        if (rainbow_i >= 700)
    4ea6:	80 91 43 0a 	lds	r24, 0x0A43	; 0x800a43 <rainbow_i>
    4eaa:	90 91 44 0a 	lds	r25, 0x0A44	; 0x800a44 <rainbow_i+0x1>
    4eae:	8c 3b       	cpi	r24, 0xBC	; 188
    4eb0:	92 40       	sbci	r25, 0x02	; 2
    4eb2:	10 f1       	brcs	.+68     	; 0x4ef8 <rainbow+0x1be>
        {
            state = 5;
    4eb4:	85 e0       	ldi	r24, 0x05	; 5
    4eb6:	90 e0       	ldi	r25, 0x00	; 0
    4eb8:	90 93 82 0a 	sts	0x0A82, r25	; 0x800a82 <state+0x1>
    4ebc:	80 93 81 0a 	sts	0x0A81, r24	; 0x800a81 <state>
    4ec0:	08 95       	ret
        }
        break;

    case 5:
        rainbow_i -= STEP;
    4ec2:	80 91 43 0a 	lds	r24, 0x0A43	; 0x800a43 <rainbow_i>
    4ec6:	90 91 44 0a 	lds	r25, 0x0A44	; 0x800a44 <rainbow_i+0x1>
    4eca:	01 97       	sbiw	r24, 0x01	; 1
    4ecc:	90 93 44 0a 	sts	0x0A44, r25	; 0x800a44 <rainbow_i+0x1>
    4ed0:	80 93 43 0a 	sts	0x0A43, r24	; 0x800a43 <rainbow_i>
        PWM_DUTY_BLUE = rainbow_i;
    4ed4:	80 91 43 0a 	lds	r24, 0x0A43	; 0x800a43 <rainbow_i>
    4ed8:	90 91 44 0a 	lds	r25, 0x0A44	; 0x800a44 <rainbow_i+0x1>
    4edc:	90 93 2b 01 	sts	0x012B, r25	; 0x80012b <__TEXT_REGION_LENGTH__+0x70012b>
    4ee0:	80 93 2a 01 	sts	0x012A, r24	; 0x80012a <__TEXT_REGION_LENGTH__+0x70012a>
        if (rainbow_i <= 0)
    4ee4:	80 91 43 0a 	lds	r24, 0x0A43	; 0x800a43 <rainbow_i>
    4ee8:	90 91 44 0a 	lds	r25, 0x0A44	; 0x800a44 <rainbow_i+0x1>
    4eec:	89 2b       	or	r24, r25
    4eee:	21 f4       	brne	.+8      	; 0x4ef8 <rainbow+0x1be>
        {
            state = 0;
    4ef0:	10 92 82 0a 	sts	0x0A82, r1	; 0x800a82 <state+0x1>
    4ef4:	10 92 81 0a 	sts	0x0A81, r1	; 0x800a81 <state>
    4ef8:	08 95       	ret

00004efa <__vector_21>:
        break;
    }
}

ISR(TIMER0_COMPA_vect)
{
    4efa:	1f 92       	push	r1
    4efc:	0f 92       	push	r0
    4efe:	0f b6       	in	r0, 0x3f	; 63
    4f00:	0f 92       	push	r0
    4f02:	11 24       	eor	r1, r1
    4f04:	0b b6       	in	r0, 0x3b	; 59
    4f06:	0f 92       	push	r0
    4f08:	2f 93       	push	r18
    4f0a:	3f 93       	push	r19
    4f0c:	4f 93       	push	r20
    4f0e:	5f 93       	push	r21
    4f10:	6f 93       	push	r22
    4f12:	7f 93       	push	r23
    4f14:	8f 93       	push	r24
    4f16:	9f 93       	push	r25
    4f18:	af 93       	push	r26
    4f1a:	bf 93       	push	r27
    4f1c:	ef 93       	push	r30
    4f1e:	ff 93       	push	r31
    switch (light)
    4f20:	80 91 85 0a 	lds	r24, 0x0A85	; 0x800a85 <light>
    4f24:	81 30       	cpi	r24, 0x01	; 1
    4f26:	79 f1       	breq	.+94     	; 0x4f86 <__vector_21+0x8c>
    4f28:	20 f0       	brcs	.+8      	; 0x4f32 <__vector_21+0x38>
    4f2a:	82 30       	cpi	r24, 0x02	; 2
    4f2c:	09 f4       	brne	.+2      	; 0x4f30 <__vector_21+0x36>
    4f2e:	46 c0       	rjmp	.+140    	; 0x4fbc <__vector_21+0xc2>
    4f30:	8e c0       	rjmp	.+284    	; 0x504e <__vector_21+0x154>
    {
    case WEISS_LED:
        TCCR1B |= (1 << CS10);
    4f32:	e1 e8       	ldi	r30, 0x81	; 129
    4f34:	f0 e0       	ldi	r31, 0x00	; 0
    4f36:	80 81       	ld	r24, Z
    4f38:	81 60       	ori	r24, 0x01	; 1
    4f3a:	80 83       	st	Z, r24
        TCCR3B &= ~(1 << CS30);
    4f3c:	e1 e9       	ldi	r30, 0x91	; 145
    4f3e:	f0 e0       	ldi	r31, 0x00	; 0
    4f40:	80 81       	ld	r24, Z
    4f42:	8e 7f       	andi	r24, 0xFE	; 254
    4f44:	80 83       	st	Z, r24
        TCCR4B &= ~(1 << CS40);
    4f46:	e1 ea       	ldi	r30, 0xA1	; 161
    4f48:	f0 e0       	ldi	r31, 0x00	; 0
    4f4a:	80 81       	ld	r24, Z
    4f4c:	8e 7f       	andi	r24, 0xFE	; 254
    4f4e:	80 83       	st	Z, r24
        TCCR5B &= ~(1 << CS50);
    4f50:	e1 e2       	ldi	r30, 0x21	; 33
    4f52:	f1 e0       	ldi	r31, 0x01	; 1
    4f54:	80 81       	ld	r24, Z
    4f56:	8e 7f       	andi	r24, 0xFE	; 254
    4f58:	80 83       	st	Z, r24
        LEDB_PORT &= ~LEDB_BIT;
    4f5a:	8c 98       	cbi	0x11, 4	; 17
        LEDG_PORT &= ~LEDG_BIT;
    4f5c:	8d 98       	cbi	0x11, 5	; 17
        LEDR_PORT &= ~LEDR_BIT;
    4f5e:	8e 98       	cbi	0x11, 6	; 17
        OCR1B = 700;
    4f60:	8c eb       	ldi	r24, 0xBC	; 188
    4f62:	92 e0       	ldi	r25, 0x02	; 2
    4f64:	90 93 8b 00 	sts	0x008B, r25	; 0x80008b <__TEXT_REGION_LENGTH__+0x70008b>
    4f68:	80 93 8a 00 	sts	0x008A, r24	; 0x80008a <__TEXT_REGION_LENGTH__+0x70008a>
        OCR3B = 0;
    4f6c:	10 92 9b 00 	sts	0x009B, r1	; 0x80009b <__TEXT_REGION_LENGTH__+0x70009b>
    4f70:	10 92 9a 00 	sts	0x009A, r1	; 0x80009a <__TEXT_REGION_LENGTH__+0x70009a>
        OCR4B = 0;
    4f74:	10 92 ab 00 	sts	0x00AB, r1	; 0x8000ab <__TEXT_REGION_LENGTH__+0x7000ab>
    4f78:	10 92 aa 00 	sts	0x00AA, r1	; 0x8000aa <__TEXT_REGION_LENGTH__+0x7000aa>
        OCR5B = 0;
    4f7c:	10 92 2b 01 	sts	0x012B, r1	; 0x80012b <__TEXT_REGION_LENGTH__+0x70012b>
    4f80:	10 92 2a 01 	sts	0x012A, r1	; 0x80012a <__TEXT_REGION_LENGTH__+0x70012a>
        break;
    4f84:	64 c0       	rjmp	.+200    	; 0x504e <__vector_21+0x154>
    case RAINBOW_LED:
        TCCR1B &= ~(1 << CS10);
    4f86:	e1 e8       	ldi	r30, 0x81	; 129
    4f88:	f0 e0       	ldi	r31, 0x00	; 0
    4f8a:	80 81       	ld	r24, Z
    4f8c:	8e 7f       	andi	r24, 0xFE	; 254
    4f8e:	80 83       	st	Z, r24
        TCCR3B |= (1 << CS30);
    4f90:	e1 e9       	ldi	r30, 0x91	; 145
    4f92:	f0 e0       	ldi	r31, 0x00	; 0
    4f94:	80 81       	ld	r24, Z
    4f96:	81 60       	ori	r24, 0x01	; 1
    4f98:	80 83       	st	Z, r24
        TCCR4B |= (1 << CS40);
    4f9a:	e1 ea       	ldi	r30, 0xA1	; 161
    4f9c:	f0 e0       	ldi	r31, 0x00	; 0
    4f9e:	80 81       	ld	r24, Z
    4fa0:	81 60       	ori	r24, 0x01	; 1
    4fa2:	80 83       	st	Z, r24
        TCCR5B |= (1 << CS50);
    4fa4:	e1 e2       	ldi	r30, 0x21	; 33
    4fa6:	f1 e0       	ldi	r31, 0x01	; 1
    4fa8:	80 81       	ld	r24, Z
    4faa:	81 60       	ori	r24, 0x01	; 1
    4fac:	80 83       	st	Z, r24
        LEDW_PORT &= ~LEDW_BIT;
    4fae:	8b 98       	cbi	0x11, 3	; 17
        OCR1B = 0;
    4fb0:	10 92 8b 00 	sts	0x008B, r1	; 0x80008b <__TEXT_REGION_LENGTH__+0x70008b>
    4fb4:	10 92 8a 00 	sts	0x008A, r1	; 0x80008a <__TEXT_REGION_LENGTH__+0x70008a>
        rainbow();
    4fb8:	c0 de       	rcall	.-640    	; 0x4d3a <rainbow>
        break;
    4fba:	49 c0       	rjmp	.+146    	; 0x504e <__vector_21+0x154>
    case USER_LED:
        if (PWM_DUTY_WHITE > 0)
    4fbc:	80 91 8a 00 	lds	r24, 0x008A	; 0x80008a <__TEXT_REGION_LENGTH__+0x70008a>
    4fc0:	90 91 8b 00 	lds	r25, 0x008B	; 0x80008b <__TEXT_REGION_LENGTH__+0x70008b>
    4fc4:	89 2b       	or	r24, r25
    4fc6:	31 f0       	breq	.+12     	; 0x4fd4 <__vector_21+0xda>
        {
            TCCR1B |= (1 << CS10);
    4fc8:	e1 e8       	ldi	r30, 0x81	; 129
    4fca:	f0 e0       	ldi	r31, 0x00	; 0
    4fcc:	80 81       	ld	r24, Z
    4fce:	81 60       	ori	r24, 0x01	; 1
    4fd0:	80 83       	st	Z, r24
    4fd2:	06 c0       	rjmp	.+12     	; 0x4fe0 <__vector_21+0xe6>
        }
        else
        {
            TCCR1B &= ~(1 << CS10);
    4fd4:	e1 e8       	ldi	r30, 0x81	; 129
    4fd6:	f0 e0       	ldi	r31, 0x00	; 0
    4fd8:	80 81       	ld	r24, Z
    4fda:	8e 7f       	andi	r24, 0xFE	; 254
    4fdc:	80 83       	st	Z, r24
            LEDW_PORT &= ~LEDW_BIT;
    4fde:	8b 98       	cbi	0x11, 3	; 17
        }

        if (PWM_DUTY_RED > 0)
    4fe0:	80 91 9a 00 	lds	r24, 0x009A	; 0x80009a <__TEXT_REGION_LENGTH__+0x70009a>
    4fe4:	90 91 9b 00 	lds	r25, 0x009B	; 0x80009b <__TEXT_REGION_LENGTH__+0x70009b>
    4fe8:	89 2b       	or	r24, r25
    4fea:	31 f0       	breq	.+12     	; 0x4ff8 <__vector_21+0xfe>
        {
            TCCR3B |= (1 << CS30);
    4fec:	e1 e9       	ldi	r30, 0x91	; 145
    4fee:	f0 e0       	ldi	r31, 0x00	; 0
    4ff0:	80 81       	ld	r24, Z
    4ff2:	81 60       	ori	r24, 0x01	; 1
    4ff4:	80 83       	st	Z, r24
    4ff6:	06 c0       	rjmp	.+12     	; 0x5004 <__vector_21+0x10a>
        }
        else
        {
            TCCR3B &= ~(1 << CS30);
    4ff8:	e1 e9       	ldi	r30, 0x91	; 145
    4ffa:	f0 e0       	ldi	r31, 0x00	; 0
    4ffc:	80 81       	ld	r24, Z
    4ffe:	8e 7f       	andi	r24, 0xFE	; 254
    5000:	80 83       	st	Z, r24
            LEDR_PORT &= ~LEDR_BIT;
    5002:	8e 98       	cbi	0x11, 6	; 17
        }

        if (PWM_DUTY_GREEN > 0)
    5004:	80 91 aa 00 	lds	r24, 0x00AA	; 0x8000aa <__TEXT_REGION_LENGTH__+0x7000aa>
    5008:	90 91 ab 00 	lds	r25, 0x00AB	; 0x8000ab <__TEXT_REGION_LENGTH__+0x7000ab>
    500c:	89 2b       	or	r24, r25
    500e:	31 f0       	breq	.+12     	; 0x501c <__vector_21+0x122>
        {
            TCCR4B |= (1 << CS40);
    5010:	e1 ea       	ldi	r30, 0xA1	; 161
    5012:	f0 e0       	ldi	r31, 0x00	; 0
    5014:	80 81       	ld	r24, Z
    5016:	81 60       	ori	r24, 0x01	; 1
    5018:	80 83       	st	Z, r24
    501a:	06 c0       	rjmp	.+12     	; 0x5028 <__vector_21+0x12e>
        }
        else
        {
            TCCR4B &= ~(1 << CS40);
    501c:	e1 ea       	ldi	r30, 0xA1	; 161
    501e:	f0 e0       	ldi	r31, 0x00	; 0
    5020:	80 81       	ld	r24, Z
    5022:	8e 7f       	andi	r24, 0xFE	; 254
    5024:	80 83       	st	Z, r24
            LEDG_PORT &= ~LEDG_BIT;
    5026:	8d 98       	cbi	0x11, 5	; 17
        }

        if (PWM_DUTY_BLUE > 0)
    5028:	80 91 2a 01 	lds	r24, 0x012A	; 0x80012a <__TEXT_REGION_LENGTH__+0x70012a>
    502c:	90 91 2b 01 	lds	r25, 0x012B	; 0x80012b <__TEXT_REGION_LENGTH__+0x70012b>
    5030:	89 2b       	or	r24, r25
    5032:	31 f0       	breq	.+12     	; 0x5040 <__vector_21+0x146>
        {
            TCCR5B |= (1 << CS50);
    5034:	e1 e2       	ldi	r30, 0x21	; 33
    5036:	f1 e0       	ldi	r31, 0x01	; 1
    5038:	80 81       	ld	r24, Z
    503a:	81 60       	ori	r24, 0x01	; 1
    503c:	80 83       	st	Z, r24
    503e:	06 c0       	rjmp	.+12     	; 0x504c <__vector_21+0x152>
        }
        else
        {
            TCCR5B &= ~(1 << CS50);
    5040:	e1 e2       	ldi	r30, 0x21	; 33
    5042:	f1 e0       	ldi	r31, 0x01	; 1
    5044:	80 81       	ld	r24, Z
    5046:	8e 7f       	andi	r24, 0xFE	; 254
    5048:	80 83       	st	Z, r24
            LEDB_PORT &= ~LEDB_BIT;
    504a:	8c 98       	cbi	0x11, 4	; 17
        }
        asm("nop");
    504c:	00 00       	nop
        break;
    }
}
    504e:	ff 91       	pop	r31
    5050:	ef 91       	pop	r30
    5052:	bf 91       	pop	r27
    5054:	af 91       	pop	r26
    5056:	9f 91       	pop	r25
    5058:	8f 91       	pop	r24
    505a:	7f 91       	pop	r23
    505c:	6f 91       	pop	r22
    505e:	5f 91       	pop	r21
    5060:	4f 91       	pop	r20
    5062:	3f 91       	pop	r19
    5064:	2f 91       	pop	r18
    5066:	0f 90       	pop	r0
    5068:	0b be       	out	0x3b, r0	; 59
    506a:	0f 90       	pop	r0
    506c:	0f be       	out	0x3f, r0	; 63
    506e:	0f 90       	pop	r0
    5070:	1f 90       	pop	r1
    5072:	18 95       	reti

00005074 <IO_init>:
    5074:	88 e7       	ldi	r24, 0x78	; 120
    5076:	80 bb       	out	0x10, r24	; 16
    5078:	87 e8       	ldi	r24, 0x87	; 135
    507a:	84 b9       	out	0x04, r24	; 4
    507c:	88 e4       	ldi	r24, 0x48	; 72
    507e:	80 93 01 01 	sts	0x0101, r24	; 0x800101 <__TEXT_REGION_LENGTH__+0x700101>
    5082:	8c ef       	ldi	r24, 0xFC	; 252
    5084:	81 b9       	out	0x01, r24	; 1
    5086:	84 e2       	ldi	r24, 0x24	; 36
    5088:	83 bb       	out	0x13, r24	; 19
    508a:	8c e7       	ldi	r24, 0x7C	; 124
    508c:	80 93 04 01 	sts	0x0104, r24	; 0x800104 <__TEXT_REGION_LENGTH__+0x700104>
    5090:	81 e0       	ldi	r24, 0x01	; 1
    5092:	87 b9       	out	0x07, r24	; 7
    5094:	10 92 07 01 	sts	0x0107, r1	; 0x800107 <__TEXT_REGION_LENGTH__+0x700107>
    5098:	8b e0       	ldi	r24, 0x0B	; 11
    509a:	80 93 0a 01 	sts	0x010A, r24	; 0x80010a <__TEXT_REGION_LENGTH__+0x70010a>
    509e:	eb e0       	ldi	r30, 0x0B	; 11
    50a0:	f1 e0       	ldi	r31, 0x01	; 1
    50a2:	80 81       	ld	r24, Z
    50a4:	88 60       	ori	r24, 0x08	; 8
    50a6:	80 83       	st	Z, r24
    50a8:	10 92 3d 0a 	sts	0x0A3D, r1	; 0x800a3d <Position>
    50ac:	10 92 3e 0a 	sts	0x0A3E, r1	; 0x800a3e <Position+0x1>
    50b0:	10 92 3f 0a 	sts	0x0A3F, r1	; 0x800a3f <Position+0x2>
    50b4:	10 92 40 0a 	sts	0x0A40, r1	; 0x800a40 <Position+0x3>
    50b8:	08 95       	ret

000050ba <interfaces_init>:
    50ba:	dc df       	rcall	.-72     	; 0x5074 <IO_init>
    50bc:	0e 94 0b 3d 	call	0x7a16	; 0x7a16 <SPI_init>
    50c0:	0c 94 d0 40 	jmp	0x81a0	; 0x81a0 <UART_init>
    50c4:	08 95       	ret

000050c6 <devices_init>:
    50c6:	89 e1       	ldi	r24, 0x19	; 25
    50c8:	98 d3       	rcall	.+1840   	; 0x57fa <nextion_change_page>
    50ca:	65 ec       	ldi	r22, 0xC5	; 197
    50cc:	76 e0       	ldi	r23, 0x06	; 6
    50ce:	8f ed       	ldi	r24, 0xDF	; 223
    50d0:	93 e0       	ldi	r25, 0x03	; 3
    50d2:	b2 d3       	rcall	.+1892   	; 0x5838 <nextion_setText>
    50d4:	2f ef       	ldi	r18, 0xFF	; 255
    50d6:	81 ee       	ldi	r24, 0xE1	; 225
    50d8:	94 e0       	ldi	r25, 0x04	; 4
    50da:	21 50       	subi	r18, 0x01	; 1
    50dc:	80 40       	sbci	r24, 0x00	; 0
    50de:	90 40       	sbci	r25, 0x00	; 0
    50e0:	e1 f7       	brne	.-8      	; 0x50da <devices_init+0x14>
    50e2:	00 c0       	rjmp	.+0      	; 0x50e4 <devices_init+0x1e>
    50e4:	00 00       	nop
    50e6:	0e 94 7e 40 	call	0x80fc	; 0x80fc <initTMC6200>
    50ea:	0c 94 dd 3e 	jmp	0x7dba	; 0x7dba <initTMC4671_Encoder>
    50ee:	08 95       	ret

000050f0 <speicher_init>:
    50f0:	87 ed       	ldi	r24, 0xD7	; 215
    50f2:	96 e0       	ldi	r25, 0x06	; 6
    50f4:	0e 94 51 41 	call	0x82a2	; 0x82a2 <Uart_Transmit_IT_PC>
    50f8:	89 e1       	ldi	r24, 0x19	; 25
    50fa:	7f d3       	rcall	.+1790   	; 0x57fa <nextion_change_page>
    50fc:	67 ed       	ldi	r22, 0xD7	; 215
    50fe:	76 e0       	ldi	r23, 0x06	; 6
    5100:	8f ed       	ldi	r24, 0xDF	; 223
    5102:	93 e0       	ldi	r25, 0x03	; 3
    5104:	99 d3       	rcall	.+1842   	; 0x5838 <nextion_setText>
    5106:	8c ee       	ldi	r24, 0xEC	; 236
    5108:	96 e0       	ldi	r25, 0x06	; 6
    510a:	0e 94 51 41 	call	0x82a2	; 0x82a2 <Uart_Transmit_IT_PC>
    510e:	6c ee       	ldi	r22, 0xEC	; 236
    5110:	76 e0       	ldi	r23, 0x06	; 6
    5112:	8f ed       	ldi	r24, 0xDF	; 223
    5114:	93 e0       	ldi	r25, 0x03	; 3
    5116:	90 d3       	rcall	.+1824   	; 0x5838 <nextion_setText>
    5118:	82 e0       	ldi	r24, 0x02	; 2
    511a:	97 e0       	ldi	r25, 0x07	; 7
    511c:	0e 94 51 41 	call	0x82a2	; 0x82a2 <Uart_Transmit_IT_PC>
    5120:	62 e0       	ldi	r22, 0x02	; 2
    5122:	77 e0       	ldi	r23, 0x07	; 7
    5124:	8f ed       	ldi	r24, 0xDF	; 223
    5126:	93 e0       	ldi	r25, 0x03	; 3
    5128:	87 c3       	rjmp	.+1806   	; 0x5838 <nextion_setText>
    512a:	08 95       	ret

0000512c <my_itoa>:
{
    LED_PORT = LED_PORT ^ (LEDW_BIT);
}

void my_itoa( int64_t z, char* buffer )
{
    512c:	2f 92       	push	r2
    512e:	3f 92       	push	r3
    5130:	4f 92       	push	r4
    5132:	5f 92       	push	r5
    5134:	6f 92       	push	r6
    5136:	7f 92       	push	r7
    5138:	8f 92       	push	r8
    513a:	9f 92       	push	r9
    513c:	af 92       	push	r10
    513e:	bf 92       	push	r11
    5140:	cf 92       	push	r12
    5142:	df 92       	push	r13
    5144:	ef 92       	push	r14
    5146:	ff 92       	push	r15
    5148:	0f 93       	push	r16
    514a:	1f 93       	push	r17
    514c:	cf 93       	push	r28
    514e:	df 93       	push	r29
    5150:	cd b7       	in	r28, 0x3d	; 61
    5152:	de b7       	in	r29, 0x3e	; 62
    5154:	2b 97       	sbiw	r28, 0x0b	; 11
    5156:	0f b6       	in	r0, 0x3f	; 63
    5158:	f8 94       	cli
    515a:	de bf       	out	0x3e, r29	; 62
    515c:	0f be       	out	0x3f, r0	; 63
    515e:	cd bf       	out	0x3d, r28	; 61
    5160:	29 83       	std	Y+1, r18	; 0x01
    5162:	3a 83       	std	Y+2, r19	; 0x02
    5164:	4b 83       	std	Y+3, r20	; 0x03
    5166:	95 2e       	mov	r9, r21
    5168:	56 2e       	mov	r5, r22
    516a:	47 2e       	mov	r4, r23
    516c:	38 2e       	mov	r3, r24
    516e:	29 2e       	mov	r2, r25
    5170:	1f 83       	std	Y+7, r17	; 0x07
    5172:	0e 83       	std	Y+6, r16	; 0x06

	u= z;
	// ist die Zahl negativ?
	// gleich mal ein - hinterlassen und die Zahl positiv machen
	// die einzelnen Stellen der Zahl berechnen
	if (u< 0)
    5174:	a0 e0       	ldi	r26, 0x00	; 0
    5176:	0e 94 0e 47 	call	0x8e1c	; 0x8e1c <__cmpdi2_s8>
    517a:	6c f4       	brge	.+26     	; 0x5196 <my_itoa+0x6a>
	{
		u= u*(-1);
    517c:	0e 94 c7 46 	call	0x8d8e	; 0x8d8e <__negdi2>
    5180:	29 83       	std	Y+1, r18	; 0x01
    5182:	3a 83       	std	Y+2, r19	; 0x02
    5184:	4b 83       	std	Y+3, r20	; 0x03
    5186:	95 2e       	mov	r9, r21
    5188:	56 2e       	mov	r5, r22
    518a:	47 2e       	mov	r4, r23
    518c:	38 2e       	mov	r3, r24
    518e:	29 2e       	mov	r2, r25
		sflag= 1;
    5190:	81 e0       	ldi	r24, 0x01	; 1
    5192:	8a 87       	std	Y+10, r24	; 0x0a
    5194:	01 c0       	rjmp	.+2      	; 0x5198 <my_itoa+0x6c>

	int      i = 0;
	int      j;
	char     tmp;
	int64_t  u;    // In u bearbeiten wir den Absolutbetrag von z.
	char     sflag= 0;
    5196:	1a 86       	std	Y+10, r1	; 0x0a
    5198:	ae 81       	ldd	r26, Y+6	; 0x06
    519a:	bf 81       	ldd	r27, Y+7	; 0x07
    519c:	b9 87       	std	Y+9, r27	; 0x09
    519e:	a8 87       	std	Y+8, r26	; 0x08
	// gleich mal ein - hinterlassen und die Zahl positiv machen
	// die einzelnen Stellen der Zahl berechnen
	if (u< 0)
	{
		u= u*(-1);
		sflag= 1;
    51a0:	bd 83       	std	Y+5, r27	; 0x05
    51a2:	ac 83       	std	Y+4, r26	; 0x04
    51a4:	61 2c       	mov	r6, r1
    51a6:	71 2c       	mov	r7, r1
    51a8:	4b 86       	std	Y+11, r4	; 0x0b
    51aa:	42 2c       	mov	r4, r2
    51ac:	25 2c       	mov	r2, r5
    51ae:	53 2c       	mov	r5, r3
    51b0:	39 2c       	mov	r3, r9
    51b2:	01 c0       	rjmp	.+2      	; 0x51b6 <my_itoa+0x8a>
	}
	do
	{
		buffer[i++] = '0' + (u % 10);
    51b4:	34 01       	movw	r6, r8
    51b6:	43 01       	movw	r8, r6
    51b8:	bf ef       	ldi	r27, 0xFF	; 255
    51ba:	8b 1a       	sub	r8, r27
    51bc:	9b 0a       	sbc	r9, r27
    51be:	0f 2e       	mov	r0, r31
    51c0:	fa e0       	ldi	r31, 0x0A	; 10
    51c2:	af 2e       	mov	r10, r31
    51c4:	f0 2d       	mov	r31, r0
    51c6:	b1 2c       	mov	r11, r1
    51c8:	c1 2c       	mov	r12, r1
    51ca:	d1 2c       	mov	r13, r1
    51cc:	e1 2c       	mov	r14, r1
    51ce:	f1 2c       	mov	r15, r1
    51d0:	00 e0       	ldi	r16, 0x00	; 0
    51d2:	10 e0       	ldi	r17, 0x00	; 0
    51d4:	29 81       	ldd	r18, Y+1	; 0x01
    51d6:	3a 81       	ldd	r19, Y+2	; 0x02
    51d8:	4b 81       	ldd	r20, Y+3	; 0x03
    51da:	53 2d       	mov	r21, r3
    51dc:	62 2d       	mov	r22, r2
    51de:	7b 85       	ldd	r23, Y+11	; 0x0b
    51e0:	85 2d       	mov	r24, r5
    51e2:	94 2d       	mov	r25, r4
    51e4:	0e 94 3e 46 	call	0x8c7c	; 0x8c7c <__moddi3>
    51e8:	20 5d       	subi	r18, 0xD0	; 208
    51ea:	ec 81       	ldd	r30, Y+4	; 0x04
    51ec:	fd 81       	ldd	r31, Y+5	; 0x05
    51ee:	21 93       	st	Z+, r18
    51f0:	fd 83       	std	Y+5, r31	; 0x05
    51f2:	ec 83       	std	Y+4, r30	; 0x04
		u /= 10;
    51f4:	29 81       	ldd	r18, Y+1	; 0x01
    51f6:	3a 81       	ldd	r19, Y+2	; 0x02
    51f8:	4b 81       	ldd	r20, Y+3	; 0x03
    51fa:	53 2d       	mov	r21, r3
    51fc:	62 2d       	mov	r22, r2
    51fe:	7b 85       	ldd	r23, Y+11	; 0x0b
    5200:	85 2d       	mov	r24, r5
    5202:	94 2d       	mov	r25, r4
    5204:	0e 94 40 46 	call	0x8c80	; 0x8c80 <__divdi3>
    5208:	29 83       	std	Y+1, r18	; 0x01
    520a:	3a 83       	std	Y+2, r19	; 0x02
    520c:	4b 83       	std	Y+3, r20	; 0x03
    520e:	35 2e       	mov	r3, r21
    5210:	26 2e       	mov	r2, r22
    5212:	7b 87       	std	Y+11, r23	; 0x0b
    5214:	58 2e       	mov	r5, r24
    5216:	49 2e       	mov	r4, r25
	}
	while( u > 0 );
    5218:	a0 e0       	ldi	r26, 0x00	; 0
    521a:	0e 94 0e 47 	call	0x8e1c	; 0x8e1c <__cmpdi2_s8>
    521e:	09 f0       	breq	.+2      	; 0x5222 <my_itoa+0xf6>
    5220:	4c f6       	brge	.-110    	; 0x51b4 <my_itoa+0x88>
	if (sflag)  { buffer[i++]= '-'; }
    5222:	9a 85       	ldd	r25, Y+10	; 0x0a
    5224:	99 23       	and	r25, r25
    5226:	49 f0       	breq	.+18     	; 0x523a <my_itoa+0x10e>
    5228:	ee 81       	ldd	r30, Y+6	; 0x06
    522a:	ff 81       	ldd	r31, Y+7	; 0x07
    522c:	e8 0d       	add	r30, r8
    522e:	f9 1d       	adc	r31, r9
    5230:	8d e2       	ldi	r24, 0x2D	; 45
    5232:	80 83       	st	Z, r24
    5234:	d3 01       	movw	r26, r6
    5236:	12 96       	adiw	r26, 0x02	; 2
    5238:	4d 01       	movw	r8, r26

	// den String in sich spiegeln
	for( j = 0; j < i / 2; ++j )
    523a:	94 01       	movw	r18, r8
    523c:	99 20       	and	r9, r9
    523e:	14 f4       	brge	.+4      	; 0x5244 <my_itoa+0x118>
    5240:	2f 5f       	subi	r18, 0xFF	; 255
    5242:	3f 4f       	sbci	r19, 0xFF	; 255
    5244:	35 95       	asr	r19
    5246:	27 95       	ror	r18
    5248:	12 16       	cp	r1, r18
    524a:	13 06       	cpc	r1, r19
    524c:	9c f4       	brge	.+38     	; 0x5274 <my_itoa+0x148>
    524e:	ee 81       	ldd	r30, Y+6	; 0x06
    5250:	ff 81       	ldd	r31, Y+7	; 0x07
    5252:	e8 0d       	add	r30, r8
    5254:	f9 1d       	adc	r31, r9
    5256:	8e 81       	ldd	r24, Y+6	; 0x06
    5258:	9f 81       	ldd	r25, Y+7	; 0x07
    525a:	28 0f       	add	r18, r24
    525c:	39 1f       	adc	r19, r25
	{
		tmp = buffer[j];
    525e:	a8 85       	ldd	r26, Y+8	; 0x08
    5260:	b9 85       	ldd	r27, Y+9	; 0x09
    5262:	8c 91       	ld	r24, X
		buffer[j] = buffer[i-j-1];
    5264:	92 91       	ld	r25, -Z
    5266:	9d 93       	st	X+, r25
    5268:	b9 87       	std	Y+9, r27	; 0x09
    526a:	a8 87       	std	Y+8, r26	; 0x08
		buffer[i-j-1] = tmp;
    526c:	80 83       	st	Z, r24
	}
	while( u > 0 );
	if (sflag)  { buffer[i++]= '-'; }

	// den String in sich spiegeln
	for( j = 0; j < i / 2; ++j )
    526e:	a2 17       	cp	r26, r18
    5270:	b3 07       	cpc	r27, r19
    5272:	a9 f7       	brne	.-22     	; 0x525e <my_itoa+0x132>
		tmp = buffer[j];
		buffer[j] = buffer[i-j-1];
		buffer[i-j-1] = tmp;
	}

	buffer[i] = '\0';
    5274:	ee 81       	ldd	r30, Y+6	; 0x06
    5276:	ff 81       	ldd	r31, Y+7	; 0x07
    5278:	e8 0d       	add	r30, r8
    527a:	f9 1d       	adc	r31, r9
    527c:	10 82       	st	Z, r1
}
    527e:	2b 96       	adiw	r28, 0x0b	; 11
    5280:	0f b6       	in	r0, 0x3f	; 63
    5282:	f8 94       	cli
    5284:	de bf       	out	0x3e, r29	; 62
    5286:	0f be       	out	0x3f, r0	; 63
    5288:	cd bf       	out	0x3d, r28	; 61
    528a:	df 91       	pop	r29
    528c:	cf 91       	pop	r28
    528e:	1f 91       	pop	r17
    5290:	0f 91       	pop	r16
    5292:	ff 90       	pop	r15
    5294:	ef 90       	pop	r14
    5296:	df 90       	pop	r13
    5298:	cf 90       	pop	r12
    529a:	bf 90       	pop	r11
    529c:	af 90       	pop	r10
    529e:	9f 90       	pop	r9
    52a0:	8f 90       	pop	r8
    52a2:	7f 90       	pop	r7
    52a4:	6f 90       	pop	r6
    52a6:	5f 90       	pop	r5
    52a8:	4f 90       	pop	r4
    52aa:	3f 90       	pop	r3
    52ac:	2f 90       	pop	r2
    52ae:	08 95       	ret

000052b0 <read_Position_TMC4671>:

void read_Position_TMC4671(void)
{
    52b0:	8f 92       	push	r8
    52b2:	9f 92       	push	r9
    52b4:	af 92       	push	r10
    52b6:	bf 92       	push	r11
    52b8:	ef 92       	push	r14
    52ba:	ff 92       	push	r15
    52bc:	0f 93       	push	r16
    52be:	1f 93       	push	r17
    52c0:	cf 93       	push	r28
    52c2:	df 93       	push	r29
    52c4:	cd b7       	in	r28, 0x3d	; 61
    52c6:	de b7       	in	r29, 0x3e	; 62
    52c8:	c4 56       	subi	r28, 0x64	; 100
    52ca:	d1 09       	sbc	r29, r1
    52cc:	0f b6       	in	r0, 0x3f	; 63
    52ce:	f8 94       	cli
    52d0:	de bf       	out	0x3e, r29	; 62
    52d2:	0f be       	out	0x3f, r0	; 63
    52d4:	cd bf       	out	0x3d, r28	; 61
	// +/- alle 100ms Position abfragen und ber Seiriellen Port ausgeben
	static uint8_t cntrr = 0;
	if (cntrr == 100)
    52d6:	80 91 2d 09 	lds	r24, 0x092D	; 0x80092d <cntrr.2810>
    52da:	84 36       	cpi	r24, 0x64	; 100
    52dc:	29 f5       	brne	.+74     	; 0x5328 <read_Position_TMC4671+0x78>
	{
		cntrr = 0;
    52de:	10 92 2d 09 	sts	0x092D, r1	; 0x80092d <cntrr.2810>
		int64_t val = tmc4671_getActualPosition(0);
    52e2:	80 e0       	ldi	r24, 0x00	; 0
    52e4:	0e 94 f9 3f 	call	0x7ff2	; 0x7ff2 <tmc4671_getActualPosition>
		char testarray[100] = {'\0'};
    52e8:	9e 01       	movw	r18, r28
    52ea:	2f 5f       	subi	r18, 0xFF	; 255
    52ec:	3f 4f       	sbci	r19, 0xFF	; 255
    52ee:	79 01       	movw	r14, r18
    52f0:	24 e6       	ldi	r18, 0x64	; 100
    52f2:	f7 01       	movw	r30, r14
    52f4:	11 92       	st	Z+, r1
    52f6:	2a 95       	dec	r18
    52f8:	e9 f7       	brne	.-6      	; 0x52f4 <read_Position_TMC4671+0x44>
		my_itoa(val, (char *)testarray);
    52fa:	4b 01       	movw	r8, r22
    52fc:	5c 01       	movw	r10, r24
    52fe:	bb 0c       	add	r11, r11
    5300:	88 08       	sbc	r8, r8
    5302:	98 2c       	mov	r9, r8
    5304:	54 01       	movw	r10, r8
    5306:	87 01       	movw	r16, r14
    5308:	26 2f       	mov	r18, r22
    530a:	37 2f       	mov	r19, r23
    530c:	48 2f       	mov	r20, r24
    530e:	59 2f       	mov	r21, r25
    5310:	68 2d       	mov	r22, r8
    5312:	78 2d       	mov	r23, r8
    5314:	88 2d       	mov	r24, r8
    5316:	98 2d       	mov	r25, r8
    5318:	09 df       	rcall	.-494    	; 0x512c <my_itoa>
		Uart_Transmit_IT_PC((char *)testarray);
    531a:	c7 01       	movw	r24, r14
    531c:	0e 94 51 41 	call	0x82a2	; 0x82a2 <Uart_Transmit_IT_PC>
		Uart_Transmit_IT_PC("\r");
    5320:	88 e2       	ldi	r24, 0x28	; 40
    5322:	97 e0       	ldi	r25, 0x07	; 7
    5324:	0e 94 51 41 	call	0x82a2	; 0x82a2 <Uart_Transmit_IT_PC>
	}
	cntrr++;
    5328:	80 91 2d 09 	lds	r24, 0x092D	; 0x80092d <cntrr.2810>
    532c:	8f 5f       	subi	r24, 0xFF	; 255
    532e:	80 93 2d 09 	sts	0x092D, r24	; 0x80092d <cntrr.2810>
    5332:	8f e9       	ldi	r24, 0x9F	; 159
    5334:	9f e0       	ldi	r25, 0x0F	; 15
    5336:	01 97       	sbiw	r24, 0x01	; 1
    5338:	f1 f7       	brne	.-4      	; 0x5336 <read_Position_TMC4671+0x86>
    533a:	00 c0       	rjmp	.+0      	; 0x533c <read_Position_TMC4671+0x8c>
    533c:	00 00       	nop
	_delay_ms(1);
}
    533e:	cc 59       	subi	r28, 0x9C	; 156
    5340:	df 4f       	sbci	r29, 0xFF	; 255
    5342:	0f b6       	in	r0, 0x3f	; 63
    5344:	f8 94       	cli
    5346:	de bf       	out	0x3e, r29	; 62
    5348:	0f be       	out	0x3f, r0	; 63
    534a:	cd bf       	out	0x3d, r28	; 61
    534c:	df 91       	pop	r29
    534e:	cf 91       	pop	r28
    5350:	1f 91       	pop	r17
    5352:	0f 91       	pop	r16
    5354:	ff 90       	pop	r15
    5356:	ef 90       	pop	r14
    5358:	bf 90       	pop	r11
    535a:	af 90       	pop	r10
    535c:	9f 90       	pop	r9
    535e:	8f 90       	pop	r8
    5360:	08 95       	ret

00005362 <check_Communication_Input_UART_0>:

char check_Communication_Input_UART_0(void)
{
    5362:	1f 93       	push	r17
    5364:	cf 93       	push	r28
    5366:	df 93       	push	r29
    char ret = 0;
    5368:	d0 e0       	ldi	r29, 0x00	; 0
        }
        else
        {
            INPUT_UART_0[cntr_UART_0]=ch;
            cntr_UART_0++;
            ret = 0;
    536a:	c0 e0       	ldi	r28, 0x00	; 0
        if (ch == 13)
        {
            INPUT_UART_0[cntr_UART_0] = 0;
            cntr_UART_0 = 0;
            cntr_End_UART_0 = 0;
            ret = 1;
    536c:	11 e0       	ldi	r17, 0x01	; 1

char check_Communication_Input_UART_0(void)
{
    char ret = 0;
    // Check Buffer auf Einkommende Daten
    while(RB_length(&rb_rx_PC)>0)
    536e:	1c c0       	rjmp	.+56     	; 0x53a8 <check_Communication_Input_UART_0+0x46>
    {
        unsigned char ch = RB_readByte(&rb_rx_PC);
    5370:	85 ec       	ldi	r24, 0xC5	; 197
    5372:	9f e0       	ldi	r25, 0x0F	; 15
    5374:	09 d4       	rcall	.+2066   	; 0x5b88 <RB_readByte>
        if (ch == 13)
    5376:	8d 30       	cpi	r24, 0x0D	; 13
    5378:	61 f4       	brne	.+24     	; 0x5392 <check_Communication_Input_UART_0+0x30>
        {
            INPUT_UART_0[cntr_UART_0] = 0;
    537a:	e0 91 33 09 	lds	r30, 0x0933	; 0x800933 <cntr_UART_0>
    537e:	f0 e0       	ldi	r31, 0x00	; 0
    5380:	e0 5f       	subi	r30, 0xF0	; 240
    5382:	fc 4e       	sbci	r31, 0xEC	; 236
    5384:	10 82       	st	Z, r1
            cntr_UART_0 = 0;
    5386:	c0 93 33 09 	sts	0x0933, r28	; 0x800933 <cntr_UART_0>
            cntr_End_UART_0 = 0;
    538a:	c0 93 32 09 	sts	0x0932, r28	; 0x800932 <cntr_End_UART_0>
            ret = 1;
    538e:	d1 2f       	mov	r29, r17
    5390:	0b c0       	rjmp	.+22     	; 0x53a8 <check_Communication_Input_UART_0+0x46>
        }
        else
        {
            INPUT_UART_0[cntr_UART_0]=ch;
    5392:	90 91 33 09 	lds	r25, 0x0933	; 0x800933 <cntr_UART_0>
    5396:	e9 2f       	mov	r30, r25
    5398:	f0 e0       	ldi	r31, 0x00	; 0
    539a:	e0 5f       	subi	r30, 0xF0	; 240
    539c:	fc 4e       	sbci	r31, 0xEC	; 236
    539e:	80 83       	st	Z, r24
            cntr_UART_0++;
    53a0:	9f 5f       	subi	r25, 0xFF	; 255
    53a2:	90 93 33 09 	sts	0x0933, r25	; 0x800933 <cntr_UART_0>
            ret = 0;
    53a6:	dc 2f       	mov	r29, r28

char check_Communication_Input_UART_0(void)
{
    char ret = 0;
    // Check Buffer auf Einkommende Daten
    while(RB_length(&rb_rx_PC)>0)
    53a8:	85 ec       	ldi	r24, 0xC5	; 197
    53aa:	9f e0       	ldi	r25, 0x0F	; 15
    53ac:	e1 d3       	rcall	.+1986   	; 0x5b70 <RB_length>
    53ae:	81 11       	cpse	r24, r1
    53b0:	df cf       	rjmp	.-66     	; 0x5370 <check_Communication_Input_UART_0+0xe>
            cntr_UART_0++;
            ret = 0;
        }
    }
    return ret;
}
    53b2:	8d 2f       	mov	r24, r29
    53b4:	df 91       	pop	r29
    53b6:	cf 91       	pop	r28
    53b8:	1f 91       	pop	r17
    53ba:	08 95       	ret

000053bc <proceed_Communication_Input_UART_0>:



void proceed_Communication_Input_UART_0(void)
{
    53bc:	2f 92       	push	r2
    53be:	3f 92       	push	r3
    53c0:	4f 92       	push	r4
    53c2:	5f 92       	push	r5
    53c4:	6f 92       	push	r6
    53c6:	7f 92       	push	r7
    53c8:	8f 92       	push	r8
    53ca:	9f 92       	push	r9
    53cc:	af 92       	push	r10
    53ce:	bf 92       	push	r11
    53d0:	cf 92       	push	r12
    53d2:	df 92       	push	r13
    53d4:	ef 92       	push	r14
    53d6:	ff 92       	push	r15
    53d8:	0f 93       	push	r16
    53da:	1f 93       	push	r17
    53dc:	cf 93       	push	r28
    53de:	df 93       	push	r29
    53e0:	00 d0       	rcall	.+0      	; 0x53e2 <proceed_Communication_Input_UART_0+0x26>
    53e2:	1f 92       	push	r1
    53e4:	1f 92       	push	r1
    53e6:	cd b7       	in	r28, 0x3d	; 61
    53e8:	de b7       	in	r29, 0x3e	; 62
	char * ch = "Proceed UART 0: \n\r";
	Uart_Transmit_IT_PC(ch);
    53ea:	87 e1       	ldi	r24, 0x17	; 23
    53ec:	97 e0       	ldi	r25, 0x07	; 7
    53ee:	0e 94 51 41 	call	0x82a2	; 0x82a2 <Uart_Transmit_IT_PC>
	
	
	if (INPUT_UART_0[0]=='0')
    53f2:	80 91 10 13 	lds	r24, 0x1310	; 0x801310 <INPUT_UART_0>
    53f6:	80 33       	cpi	r24, 0x30	; 48
    53f8:	79 f4       	brne	.+30     	; 0x5418 <proceed_Communication_Input_UART_0+0x5c>
	{
		tmc4671_setAbsolutTargetPosition(0,0);
    53fa:	40 e0       	ldi	r20, 0x00	; 0
    53fc:	50 e0       	ldi	r21, 0x00	; 0
    53fe:	ba 01       	movw	r22, r20
    5400:	80 e0       	ldi	r24, 0x00	; 0
    5402:	0e 94 c7 3e 	call	0x7d8e	; 0x7d8e <tmc4671_setAbsolutTargetPosition>
		Position = 0;
    5406:	10 92 3d 0a 	sts	0x0A3D, r1	; 0x800a3d <Position>
    540a:	10 92 3e 0a 	sts	0x0A3E, r1	; 0x800a3e <Position+0x1>
    540e:	10 92 3f 0a 	sts	0x0A3F, r1	; 0x800a3f <Position+0x2>
    5412:	10 92 40 0a 	sts	0x0A40, r1	; 0x800a40 <Position+0x3>
    5416:	9d c0       	rjmp	.+314    	; 0x5552 <proceed_Communication_Input_UART_0+0x196>
	}
	else if (INPUT_UART_0[0]=='1')
    5418:	81 33       	cpi	r24, 0x31	; 49
    541a:	09 f0       	breq	.+2      	; 0x541e <proceed_Communication_Input_UART_0+0x62>
    541c:	73 c0       	rjmp	.+230    	; 0x5504 <proceed_Communication_Input_UART_0+0x148>
    541e:	0f 2e       	mov	r0, r31
    5420:	f0 e4       	ldi	r31, 0x40	; 64
    5422:	4f 2e       	mov	r4, r31
    5424:	f2 e4       	ldi	r31, 0x42	; 66
    5426:	5f 2e       	mov	r5, r31
    5428:	ff e0       	ldi	r31, 0x0F	; 15
    542a:	6f 2e       	mov	r6, r31
    542c:	71 2c       	mov	r7, r1
    542e:	f0 2d       	mov	r31, r0
    5430:	01 e0       	ldi	r16, 0x01	; 1
    5432:	10 e0       	ldi	r17, 0x00	; 0
			{
				read_Position_TMC4671();
			}
			
			Uart_Transmit_IT_PC("Position ");
			char buff[5] = {'\0'};
    5434:	ce 01       	movw	r24, r28
    5436:	01 96       	adiw	r24, 0x01	; 1
    5438:	1c 01       	movw	r2, r24

	{
		uint32_t Position = 1000000;
		for (int i = 1 ; i <= 12 ; i++)
		{
			tmc4671_setAbsolutTargetPosition(0, i * Position);
    543a:	b3 01       	movw	r22, r6
    543c:	a2 01       	movw	r20, r4
    543e:	80 e0       	ldi	r24, 0x00	; 0
    5440:	0e 94 c7 3e 	call	0x7d8e	; 0x7d8e <tmc4671_setAbsolutTargetPosition>
			while(((tmc4671_getActualPosition(0) <= (i* Position-200))||(tmc4671_getActualPosition(0)>= (i*Position+200))))
    5444:	73 01       	movw	r14, r6
    5446:	62 01       	movw	r12, r4
    5448:	98 ec       	ldi	r25, 0xC8	; 200
    544a:	c9 1a       	sub	r12, r25
    544c:	d1 08       	sbc	r13, r1
    544e:	e1 08       	sbc	r14, r1
    5450:	f1 08       	sbc	r15, r1
    5452:	53 01       	movw	r10, r6
    5454:	42 01       	movw	r8, r4
    5456:	e8 ec       	ldi	r30, 0xC8	; 200
    5458:	8e 0e       	add	r8, r30
    545a:	91 1c       	adc	r9, r1
    545c:	a1 1c       	adc	r10, r1
    545e:	b1 1c       	adc	r11, r1
    5460:	01 c0       	rjmp	.+2      	; 0x5464 <proceed_Communication_Input_UART_0+0xa8>
			{
				read_Position_TMC4671();
    5462:	26 df       	rcall	.-436    	; 0x52b0 <read_Position_TMC4671>
	{
		uint32_t Position = 1000000;
		for (int i = 1 ; i <= 12 ; i++)
		{
			tmc4671_setAbsolutTargetPosition(0, i * Position);
			while(((tmc4671_getActualPosition(0) <= (i* Position-200))||(tmc4671_getActualPosition(0)>= (i*Position+200))))
    5464:	80 e0       	ldi	r24, 0x00	; 0
    5466:	0e 94 f9 3f 	call	0x7ff2	; 0x7ff2 <tmc4671_getActualPosition>
    546a:	c6 16       	cp	r12, r22
    546c:	d7 06       	cpc	r13, r23
    546e:	e8 06       	cpc	r14, r24
    5470:	f9 06       	cpc	r15, r25
    5472:	b8 f7       	brcc	.-18     	; 0x5462 <proceed_Communication_Input_UART_0+0xa6>
    5474:	80 e0       	ldi	r24, 0x00	; 0
    5476:	0e 94 f9 3f 	call	0x7ff2	; 0x7ff2 <tmc4671_getActualPosition>
    547a:	68 15       	cp	r22, r8
    547c:	79 05       	cpc	r23, r9
    547e:	8a 05       	cpc	r24, r10
    5480:	9b 05       	cpc	r25, r11
    5482:	78 f7       	brcc	.-34     	; 0x5462 <proceed_Communication_Input_UART_0+0xa6>
			{
				read_Position_TMC4671();
			}
			
			Uart_Transmit_IT_PC("Position ");
    5484:	8a e2       	ldi	r24, 0x2A	; 42
    5486:	97 e0       	ldi	r25, 0x07	; 7
    5488:	0e 94 51 41 	call	0x82a2	; 0x82a2 <Uart_Transmit_IT_PC>
			char buff[5] = {'\0'};
    548c:	f1 01       	movw	r30, r2
    548e:	25 e0       	ldi	r18, 0x05	; 5
    5490:	11 92       	st	Z+, r1
    5492:	2a 95       	dec	r18
    5494:	e9 f7       	brne	.-6      	; 0x5490 <proceed_Communication_Input_UART_0+0xd4>
    5496:	4a e0       	ldi	r20, 0x0A	; 10
    5498:	b1 01       	movw	r22, r2
    549a:	c8 01       	movw	r24, r16
    549c:	0e 94 be 48 	call	0x917c	; 0x917c <__itoa_ncheck>
			itoa(i, (char *)buff, 10);
			Uart_Transmit_IT_PC((char *)buff);
    54a0:	c1 01       	movw	r24, r2
    54a2:	0e 94 51 41 	call	0x82a2	; 0x82a2 <Uart_Transmit_IT_PC>
			Uart_Transmit_IT_PC(" erreicht\r");
    54a6:	84 e3       	ldi	r24, 0x34	; 52
    54a8:	97 e0       	ldi	r25, 0x07	; 7
    54aa:	0e 94 51 41 	call	0x82a2	; 0x82a2 <Uart_Transmit_IT_PC>
    54ae:	8f ef       	ldi	r24, 0xFF	; 255
    54b0:	93 ed       	ldi	r25, 0xD3	; 211
    54b2:	e0 e3       	ldi	r30, 0x30	; 48
    54b4:	81 50       	subi	r24, 0x01	; 1
    54b6:	90 40       	sbci	r25, 0x00	; 0
    54b8:	e0 40       	sbci	r30, 0x00	; 0
    54ba:	e1 f7       	brne	.-8      	; 0x54b4 <proceed_Communication_Input_UART_0+0xf8>
    54bc:	00 c0       	rjmp	.+0      	; 0x54be <proceed_Communication_Input_UART_0+0x102>
    54be:	00 00       	nop
	}
	else if (INPUT_UART_0[0]=='1')

	{
		uint32_t Position = 1000000;
		for (int i = 1 ; i <= 12 ; i++)
    54c0:	0f 5f       	subi	r16, 0xFF	; 255
    54c2:	1f 4f       	sbci	r17, 0xFF	; 255
    54c4:	f0 e4       	ldi	r31, 0x40	; 64
    54c6:	4f 0e       	add	r4, r31
    54c8:	f2 e4       	ldi	r31, 0x42	; 66
    54ca:	5f 1e       	adc	r5, r31
    54cc:	ff e0       	ldi	r31, 0x0F	; 15
    54ce:	6f 1e       	adc	r6, r31
    54d0:	71 1c       	adc	r7, r1
    54d2:	0d 30       	cpi	r16, 0x0D	; 13
    54d4:	11 05       	cpc	r17, r1
    54d6:	09 f0       	breq	.+2      	; 0x54da <proceed_Communication_Input_UART_0+0x11e>
    54d8:	b0 cf       	rjmp	.-160    	; 0x543a <proceed_Communication_Input_UART_0+0x7e>
			itoa(i, (char *)buff, 10);
			Uart_Transmit_IT_PC((char *)buff);
			Uart_Transmit_IT_PC(" erreicht\r");
			_delay_ms(1000);
		}
		tmc4671_setAbsolutTargetPosition(0,0);
    54da:	40 e0       	ldi	r20, 0x00	; 0
    54dc:	50 e0       	ldi	r21, 0x00	; 0
    54de:	ba 01       	movw	r22, r20
    54e0:	80 e0       	ldi	r24, 0x00	; 0
    54e2:	0e 94 c7 3e 	call	0x7d8e	; 0x7d8e <tmc4671_setAbsolutTargetPosition>
		while((tmc4671_getActualPosition(0) >= (200)))
		{
			read_Position_TMC4671();
    54e6:	01 c0       	rjmp	.+2      	; 0x54ea <proceed_Communication_Input_UART_0+0x12e>
    54e8:	e3 de       	rcall	.-570    	; 0x52b0 <read_Position_TMC4671>
			Uart_Transmit_IT_PC((char *)buff);
			Uart_Transmit_IT_PC(" erreicht\r");
			_delay_ms(1000);
		}
		tmc4671_setAbsolutTargetPosition(0,0);
		while((tmc4671_getActualPosition(0) >= (200)))
    54ea:	80 e0       	ldi	r24, 0x00	; 0
    54ec:	0e 94 f9 3f 	call	0x7ff2	; 0x7ff2 <tmc4671_getActualPosition>
    54f0:	68 3c       	cpi	r22, 0xC8	; 200
    54f2:	71 05       	cpc	r23, r1
    54f4:	81 05       	cpc	r24, r1
    54f6:	91 05       	cpc	r25, r1
    54f8:	bc f7       	brge	.-18     	; 0x54e8 <proceed_Communication_Input_UART_0+0x12c>
		{
			read_Position_TMC4671();
		}
		Uart_Transmit_IT_PC("Ausgangspunkt erreicht.");
    54fa:	8f e3       	ldi	r24, 0x3F	; 63
    54fc:	97 e0       	ldi	r25, 0x07	; 7
    54fe:	0e 94 51 41 	call	0x82a2	; 0x82a2 <Uart_Transmit_IT_PC>
    5502:	27 c0       	rjmp	.+78     	; 0x5552 <proceed_Communication_Input_UART_0+0x196>
	}
	else if (INPUT_UART_0[0] == '2')
    5504:	82 33       	cpi	r24, 0x32	; 50
    5506:	69 f4       	brne	.+26     	; 0x5522 <proceed_Communication_Input_UART_0+0x166>
	{
		Position = 1;
    5508:	81 e0       	ldi	r24, 0x01	; 1
    550a:	90 e0       	ldi	r25, 0x00	; 0
    550c:	a0 e0       	ldi	r26, 0x00	; 0
    550e:	b0 e0       	ldi	r27, 0x00	; 0
    5510:	80 93 3d 0a 	sts	0x0A3D, r24	; 0x800a3d <Position>
    5514:	90 93 3e 0a 	sts	0x0A3E, r25	; 0x800a3e <Position+0x1>
    5518:	a0 93 3f 0a 	sts	0x0A3F, r26	; 0x800a3f <Position+0x2>
    551c:	b0 93 40 0a 	sts	0x0A40, r27	; 0x800a40 <Position+0x3>
    5520:	18 c0       	rjmp	.+48     	; 0x5552 <proceed_Communication_Input_UART_0+0x196>
	}
	else if (INPUT_UART_0[0] == 0)
    5522:	81 11       	cpse	r24, r1
    5524:	16 c0       	rjmp	.+44     	; 0x5552 <proceed_Communication_Input_UART_0+0x196>
	{
		Position += 10000000;
    5526:	40 91 3d 0a 	lds	r20, 0x0A3D	; 0x800a3d <Position>
    552a:	50 91 3e 0a 	lds	r21, 0x0A3E	; 0x800a3e <Position+0x1>
    552e:	60 91 3f 0a 	lds	r22, 0x0A3F	; 0x800a3f <Position+0x2>
    5532:	70 91 40 0a 	lds	r23, 0x0A40	; 0x800a40 <Position+0x3>
    5536:	40 58       	subi	r20, 0x80	; 128
    5538:	59 46       	sbci	r21, 0x69	; 105
    553a:	67 46       	sbci	r22, 0x67	; 103
    553c:	7f 4f       	sbci	r23, 0xFF	; 255
    553e:	40 93 3d 0a 	sts	0x0A3D, r20	; 0x800a3d <Position>
    5542:	50 93 3e 0a 	sts	0x0A3E, r21	; 0x800a3e <Position+0x1>
    5546:	60 93 3f 0a 	sts	0x0A3F, r22	; 0x800a3f <Position+0x2>
    554a:	70 93 40 0a 	sts	0x0A40, r23	; 0x800a40 <Position+0x3>
		tmc4671_setAbsolutTargetPosition(0,Position);
    554e:	0e 94 c7 3e 	call	0x7d8e	; 0x7d8e <tmc4671_setAbsolutTargetPosition>
	}
}
    5552:	0f 90       	pop	r0
    5554:	0f 90       	pop	r0
    5556:	0f 90       	pop	r0
    5558:	0f 90       	pop	r0
    555a:	0f 90       	pop	r0
    555c:	df 91       	pop	r29
    555e:	cf 91       	pop	r28
    5560:	1f 91       	pop	r17
    5562:	0f 91       	pop	r16
    5564:	ff 90       	pop	r15
    5566:	ef 90       	pop	r14
    5568:	df 90       	pop	r13
    556a:	cf 90       	pop	r12
    556c:	bf 90       	pop	r11
    556e:	af 90       	pop	r10
    5570:	9f 90       	pop	r9
    5572:	8f 90       	pop	r8
    5574:	7f 90       	pop	r7
    5576:	6f 90       	pop	r6
    5578:	5f 90       	pop	r5
    557a:	4f 90       	pop	r4
    557c:	3f 90       	pop	r3
    557e:	2f 90       	pop	r2
    5580:	08 95       	ret

00005582 <check_Communication_Input_UART_1>:

char check_Communication_Input_UART_1(void)
{
    5582:	df 92       	push	r13
    5584:	ef 92       	push	r14
    5586:	ff 92       	push	r15
    5588:	0f 93       	push	r16
    558a:	1f 93       	push	r17
    558c:	cf 93       	push	r28
    558e:	df 93       	push	r29
    char ret = 0;
    5590:	d1 2c       	mov	r13, r1
        }
        else
        {
            INPUT_UART_1[cntr_UART_1]=ch;
            cntr_UART_1++;
            ret = 0;
    5592:	10 e0       	ldi	r17, 0x00	; 0
            INPUT_UART_1[cntr_UART_1] = 0;
            INPUT_UART_1[cntr_UART_1-1]=0;
            INPUT_UART_1[cntr_UART_1-2]=0;
            cntr_UART_1 = 0;
            cntr_End_UART_1 = 0;
            ret = 1;
    5594:	01 e0       	ldi	r16, 0x01	; 1
            else if (cntr_End_UART_1==2 && ((INPUT_UART_1[cntr_UART_1-1] != 0xFF) || (INPUT_UART_1[cntr_UART_1-2] != 0xFF)))
            {
                cntr_End_UART_1 = 0;
            }
        }
        if (INPUT_UART_1[0] == 'q' && strlen((const char *)INPUT_UART_1) >=4)
    5596:	c0 e1       	ldi	r28, 0x10	; 16
    5598:	d5 e1       	ldi	r29, 0x15	; 21
        {
            INPUT_UART_1[0] = 255;
    559a:	ff 24       	eor	r15, r15
    559c:	fa 94       	dec	r15
            {
                cntr_End_UART_1++;
            }
            else if (cntr_End_UART_1==1 && (INPUT_UART_1[cntr_UART_1-1] == 0xFF))
            {
                cntr_End_UART_1++;
    559e:	68 94       	set
    55a0:	ee 24       	eor	r14, r14
    55a2:	e1 f8       	bld	r14, 1
}

char check_Communication_Input_UART_1(void)
{
    char ret = 0;
    while(RB_length(&rb_rx_Display)>0)                  // UART_1
    55a4:	61 c0       	rjmp	.+194    	; 0x5668 <check_Communication_Input_UART_1+0xe6>
    {

        unsigned char ch = RB_readByte(&rb_rx_Display);
    55a6:	81 e9       	ldi	r24, 0x91	; 145
    55a8:	9b e0       	ldi	r25, 0x0B	; 11
    55aa:	ee d2       	rcall	.+1500   	; 0x5b88 <RB_readByte>

        if (ch == 0xFF && INPUT_UART_1[0] != 'q')
    55ac:	8f 3f       	cpi	r24, 0xFF	; 255
    55ae:	79 f5       	brne	.+94     	; 0x560e <check_Communication_Input_UART_1+0x8c>
    55b0:	98 81       	ld	r25, Y
    55b2:	91 37       	cpi	r25, 0x71	; 113
    55b4:	79 f1       	breq	.+94     	; 0x5614 <check_Communication_Input_UART_1+0x92>
        {
            if (cntr_End_UART_1==0)
    55b6:	90 91 30 09 	lds	r25, 0x0930	; 0x800930 <cntr_End_UART_1>
    55ba:	91 11       	cpse	r25, r1
    55bc:	03 c0       	rjmp	.+6      	; 0x55c4 <check_Communication_Input_UART_1+0x42>
            {
                cntr_End_UART_1++;
    55be:	00 93 30 09 	sts	0x0930, r16	; 0x800930 <cntr_End_UART_1>
    55c2:	47 c0       	rjmp	.+142    	; 0x5652 <check_Communication_Input_UART_1+0xd0>
            }
            else if (cntr_End_UART_1==1 && (INPUT_UART_1[cntr_UART_1-1] == 0xFF))
    55c4:	91 30       	cpi	r25, 0x01	; 1
    55c6:	71 f4       	brne	.+28     	; 0x55e4 <check_Communication_Input_UART_1+0x62>
    55c8:	e0 91 31 09 	lds	r30, 0x0931	; 0x800931 <cntr_UART_1>
    55cc:	f0 e0       	ldi	r31, 0x00	; 0
    55ce:	e1 5f       	subi	r30, 0xF1	; 241
    55d0:	fa 4e       	sbci	r31, 0xEA	; 234
    55d2:	90 81       	ld	r25, Z
    55d4:	9f 3f       	cpi	r25, 0xFF	; 255
    55d6:	19 f4       	brne	.+6      	; 0x55de <check_Communication_Input_UART_1+0x5c>
            {
                cntr_End_UART_1++;
    55d8:	e0 92 30 09 	sts	0x0930, r14	; 0x800930 <cntr_End_UART_1>
    55dc:	3a c0       	rjmp	.+116    	; 0x5652 <check_Communication_Input_UART_1+0xd0>
            }
            else if (cntr_End_UART_1==1 && (INPUT_UART_1[cntr_UART_1-1] != 0xFF))
            {
                cntr_End_UART_1=0;
    55de:	10 93 30 09 	sts	0x0930, r17	; 0x800930 <cntr_End_UART_1>
    55e2:	37 c0       	rjmp	.+110    	; 0x5652 <check_Communication_Input_UART_1+0xd0>
            }
            else if (cntr_End_UART_1==2 && (INPUT_UART_1[cntr_UART_1-1] == 0xFF) && (INPUT_UART_1[cntr_UART_1-2] == 0xFF))
    55e4:	92 30       	cpi	r25, 0x02	; 2
    55e6:	01 f5       	brne	.+64     	; 0x5628 <check_Communication_Input_UART_1+0xa6>
    55e8:	20 91 31 09 	lds	r18, 0x0931	; 0x800931 <cntr_UART_1>
    55ec:	30 e0       	ldi	r19, 0x00	; 0
    55ee:	f9 01       	movw	r30, r18
    55f0:	e1 5f       	subi	r30, 0xF1	; 241
    55f2:	fa 4e       	sbci	r31, 0xEA	; 234
    55f4:	90 81       	ld	r25, Z
    55f6:	9f 3f       	cpi	r25, 0xFF	; 255
    55f8:	39 f4       	brne	.+14     	; 0x5608 <check_Communication_Input_UART_1+0x86>
    55fa:	f9 01       	movw	r30, r18
    55fc:	e2 5f       	subi	r30, 0xF2	; 242
    55fe:	fa 4e       	sbci	r31, 0xEA	; 234
    5600:	90 81       	ld	r25, Z
    5602:	9f 3f       	cpi	r25, 0xFF	; 255
    5604:	b9 f5       	brne	.+110    	; 0x5674 <check_Communication_Input_UART_1+0xf2>
    5606:	14 c0       	rjmp	.+40     	; 0x5630 <check_Communication_Input_UART_1+0xae>
            {
                cntr_End_UART_1++;
            }
            else if (cntr_End_UART_1==2 && ((INPUT_UART_1[cntr_UART_1-1] != 0xFF) || (INPUT_UART_1[cntr_UART_1-2] != 0xFF)))
            {
                cntr_End_UART_1 = 0;
    5608:	10 93 30 09 	sts	0x0930, r17	; 0x800930 <cntr_End_UART_1>
    560c:	22 c0       	rjmp	.+68     	; 0x5652 <check_Communication_Input_UART_1+0xd0>
            }
        }
        if (INPUT_UART_1[0] == 'q' && strlen((const char *)INPUT_UART_1) >=4)
    560e:	98 81       	ld	r25, Y
    5610:	91 37       	cpi	r25, 0x71	; 113
    5612:	51 f4       	brne	.+20     	; 0x5628 <check_Communication_Input_UART_1+0xa6>
    5614:	fe 01       	movw	r30, r28
    5616:	01 90       	ld	r0, Z+
    5618:	00 20       	and	r0, r0
    561a:	e9 f7       	brne	.-6      	; 0x5616 <check_Communication_Input_UART_1+0x94>
    561c:	31 97       	sbiw	r30, 0x01	; 1
    561e:	e0 51       	subi	r30, 0x10	; 16
    5620:	f5 41       	sbci	r31, 0x15	; 21
    5622:	34 97       	sbiw	r30, 0x04	; 4
    5624:	08 f0       	brcs	.+2      	; 0x5628 <check_Communication_Input_UART_1+0xa6>
        {
            INPUT_UART_1[0] = 255;
    5626:	f8 82       	st	Y, r15
        }
        if (cntr_End_UART_1 == 3)
    5628:	90 91 30 09 	lds	r25, 0x0930	; 0x800930 <cntr_End_UART_1>
    562c:	93 30       	cpi	r25, 0x03	; 3
    562e:	89 f4       	brne	.+34     	; 0x5652 <check_Communication_Input_UART_1+0xd0>
        {
            INPUT_UART_1[cntr_UART_1] = 0;
    5630:	e0 91 31 09 	lds	r30, 0x0931	; 0x800931 <cntr_UART_1>
    5634:	f0 e0       	ldi	r31, 0x00	; 0
    5636:	e0 5f       	subi	r30, 0xF0	; 240
    5638:	fa 4e       	sbci	r31, 0xEA	; 234
    563a:	10 82       	st	Z, r1
            INPUT_UART_1[cntr_UART_1-1]=0;
    563c:	df 01       	movw	r26, r30
    563e:	11 97       	sbiw	r26, 0x01	; 1
    5640:	1c 92       	st	X, r1
            INPUT_UART_1[cntr_UART_1-2]=0;
    5642:	32 97       	sbiw	r30, 0x02	; 2
    5644:	10 82       	st	Z, r1
            cntr_UART_1 = 0;
    5646:	10 93 31 09 	sts	0x0931, r17	; 0x800931 <cntr_UART_1>
            cntr_End_UART_1 = 0;
    564a:	10 93 30 09 	sts	0x0930, r17	; 0x800930 <cntr_End_UART_1>
            ret = 1;
    564e:	d0 2e       	mov	r13, r16
    5650:	0b c0       	rjmp	.+22     	; 0x5668 <check_Communication_Input_UART_1+0xe6>
        }
        else
        {
            INPUT_UART_1[cntr_UART_1]=ch;
    5652:	90 91 31 09 	lds	r25, 0x0931	; 0x800931 <cntr_UART_1>
    5656:	e9 2f       	mov	r30, r25
    5658:	f0 e0       	ldi	r31, 0x00	; 0
    565a:	e0 5f       	subi	r30, 0xF0	; 240
    565c:	fa 4e       	sbci	r31, 0xEA	; 234
    565e:	80 83       	st	Z, r24
            cntr_UART_1++;
    5660:	9f 5f       	subi	r25, 0xFF	; 255
    5662:	90 93 31 09 	sts	0x0931, r25	; 0x800931 <cntr_UART_1>
            ret = 0;
    5666:	d1 2e       	mov	r13, r17
}

char check_Communication_Input_UART_1(void)
{
    char ret = 0;
    while(RB_length(&rb_rx_Display)>0)                  // UART_1
    5668:	81 e9       	ldi	r24, 0x91	; 145
    566a:	9b e0       	ldi	r25, 0x0B	; 11
    566c:	81 d2       	rcall	.+1282   	; 0x5b70 <RB_length>
    566e:	81 11       	cpse	r24, r1
    5670:	9a cf       	rjmp	.-204    	; 0x55a6 <check_Communication_Input_UART_1+0x24>
    5672:	07 c0       	rjmp	.+14     	; 0x5682 <check_Communication_Input_UART_1+0x100>
            }
            else if (cntr_End_UART_1==2 && (INPUT_UART_1[cntr_UART_1-1] == 0xFF) && (INPUT_UART_1[cntr_UART_1-2] == 0xFF))
            {
                cntr_End_UART_1++;
            }
            else if (cntr_End_UART_1==2 && ((INPUT_UART_1[cntr_UART_1-1] != 0xFF) || (INPUT_UART_1[cntr_UART_1-2] != 0xFF)))
    5674:	f9 01       	movw	r30, r18
    5676:	e2 5f       	subi	r30, 0xF2	; 242
    5678:	fa 4e       	sbci	r31, 0xEA	; 234
    567a:	90 81       	ld	r25, Z
    567c:	9f 3f       	cpi	r25, 0xFF	; 255
    567e:	21 f6       	brne	.-120    	; 0x5608 <check_Communication_Input_UART_1+0x86>
    5680:	e8 cf       	rjmp	.-48     	; 0x5652 <check_Communication_Input_UART_1+0xd0>
            cntr_UART_1++;
            ret = 0;
        }
    }
    return ret;
}
    5682:	8d 2d       	mov	r24, r13
    5684:	df 91       	pop	r29
    5686:	cf 91       	pop	r28
    5688:	1f 91       	pop	r17
    568a:	0f 91       	pop	r16
    568c:	ff 90       	pop	r15
    568e:	ef 90       	pop	r14
    5690:	df 90       	pop	r13
    5692:	08 95       	ret

00005694 <proceed_Communication_INPUT_UART_1>:

void proceed_Communication_INPUT_UART_1(void)
{
    Uart_Transmit_IT_PC("Proceed UART 1: ");
    5694:	87 e5       	ldi	r24, 0x57	; 87
    5696:	97 e0       	ldi	r25, 0x07	; 7
    5698:	0e 94 51 41 	call	0x82a2	; 0x82a2 <Uart_Transmit_IT_PC>
    Uart_Transmit_IT_PC((char *)INPUT_UART_1);
    569c:	80 e1       	ldi	r24, 0x10	; 16
    569e:	95 e1       	ldi	r25, 0x15	; 21
    56a0:	0e 94 51 41 	call	0x82a2	; 0x82a2 <Uart_Transmit_IT_PC>
    Uart_Transmit_IT_PC("\r");
    56a4:	88 e2       	ldi	r24, 0x28	; 40
    56a6:	97 e0       	ldi	r25, 0x07	; 7
    56a8:	0e 94 51 41 	call	0x82a2	; 0x82a2 <Uart_Transmit_IT_PC>

    cocktail_check_command(INPUT_UART_1[0], INPUT_UART_1[1]);
    56ac:	e0 e1       	ldi	r30, 0x10	; 16
    56ae:	f5 e1       	ldi	r31, 0x15	; 21
    56b0:	61 81       	ldd	r22, Z+1	; 0x01
    56b2:	80 81       	ld	r24, Z
    56b4:	b4 c8       	rjmp	.-3736   	; 0x481e <cocktail_check_command>
    56b6:	08 95       	ret

000056b8 <check_Communication_Input_UART_2>:
}

char check_Communication_Input_UART_2(void)
{
    56b8:	0f 93       	push	r16
    56ba:	1f 93       	push	r17
    56bc:	cf 93       	push	r28
    56be:	df 93       	push	r29
    char ret = 0;
    56c0:	00 e0       	ldi	r16, 0x00	; 0
        }
        else
        {
            INPUT_UART_2[cntr_UART_2]=ch;
            cntr_UART_2++;
            ret = 0;
    56c2:	c0 e0       	ldi	r28, 0x00	; 0
            INPUT_UART_2[cntr_UART_2] = 0;
            INPUT_UART_2[cntr_UART_2-1]=0;
            INPUT_UART_2[cntr_UART_2-2]=0;
            cntr_UART_2 = 0;
            cntr_End_UART_2 = 0;
            ret = 1;
    56c4:	d1 e0       	ldi	r29, 0x01	; 1
            {
                cntr_End_UART_2++;
            }
            if (cntr_End_UART_2==1 && (INPUT_UART_2[cntr_UART_2-1] == 0xFF))
            {
                cntr_End_UART_2++;
    56c6:	12 e0       	ldi	r17, 0x02	; 2
}

char check_Communication_Input_UART_2(void)
{
    char ret = 0;
    while(RB_length(&rb_rx_ESP)>0)                  // UART_2
    56c8:	49 c0       	rjmp	.+146    	; 0x575c <check_Communication_Input_UART_2+0xa4>
    {
        unsigned char ch = RB_readByte(&rb_rx_ESP);
    56ca:	86 e8       	ldi	r24, 0x86	; 134
    56cc:	9a e0       	ldi	r25, 0x0A	; 10
    56ce:	5c d2       	rcall	.+1208   	; 0x5b88 <RB_readByte>
        // Verbesserung oder Verschlimmbesserung: Falls cntr_UART_1 >=2 dann schauen ob die letzten drei bertragungen [cntr_UART_1], [cntr_UART_1-1], [cntr_UART_1-2] 0xFF sind
        if (ch == 0xFF)
    56d0:	8f 3f       	cpi	r24, 0xFF	; 255
    56d2:	21 f5       	brne	.+72     	; 0x571c <check_Communication_Input_UART_2+0x64>
        {
            if (cntr_End_UART_2==0)
    56d4:	90 91 2e 09 	lds	r25, 0x092E	; 0x80092e <cntr_End_UART_2>
    56d8:	99 23       	and	r25, r25
    56da:	19 f0       	breq	.+6      	; 0x56e2 <check_Communication_Input_UART_2+0x2a>
            {
                cntr_End_UART_2++;
            }
            if (cntr_End_UART_2==1 && (INPUT_UART_2[cntr_UART_2-1] == 0xFF))
    56dc:	91 30       	cpi	r25, 0x01	; 1
    56de:	09 f0       	breq	.+2      	; 0x56e2 <check_Communication_Input_UART_2+0x2a>
    56e0:	46 c0       	rjmp	.+140    	; 0x576e <check_Communication_Input_UART_2+0xb6>
    56e2:	e0 91 2f 09 	lds	r30, 0x092F	; 0x80092f <cntr_UART_2>
    56e6:	f0 e0       	ldi	r31, 0x00	; 0
    56e8:	ef 5e       	subi	r30, 0xEF	; 239
    56ea:	f9 4e       	sbci	r31, 0xE9	; 233
    56ec:	90 81       	ld	r25, Z
    56ee:	9f 3f       	cpi	r25, 0xFF	; 255
    56f0:	d9 f5       	brne	.+118    	; 0x5768 <check_Communication_Input_UART_2+0xb0>
            {
                cntr_End_UART_2++;
    56f2:	10 93 2e 09 	sts	0x092E, r17	; 0x80092e <cntr_End_UART_2>
            }
            if (cntr_End_UART_2==1 && (INPUT_UART_2[cntr_UART_2-1] != 0xFF))
            {
                cntr_End_UART_2=0;
            }
            if (cntr_End_UART_2==2 && (INPUT_UART_2[cntr_UART_2-1] == 0xFF) && (INPUT_UART_2[cntr_UART_2-2] == 0xFF))
    56f6:	20 91 2f 09 	lds	r18, 0x092F	; 0x80092f <cntr_UART_2>
    56fa:	30 e0       	ldi	r19, 0x00	; 0
    56fc:	f9 01       	movw	r30, r18
    56fe:	ef 5e       	subi	r30, 0xEF	; 239
    5700:	f9 4e       	sbci	r31, 0xE9	; 233
    5702:	90 81       	ld	r25, Z
    5704:	9f 3f       	cpi	r25, 0xFF	; 255
    5706:	39 f4       	brne	.+14     	; 0x5716 <check_Communication_Input_UART_2+0x5e>
    5708:	f9 01       	movw	r30, r18
    570a:	e0 5f       	subi	r30, 0xF0	; 240
    570c:	f9 4e       	sbci	r31, 0xE9	; 233
    570e:	90 81       	ld	r25, Z
    5710:	9f 3f       	cpi	r25, 0xFF	; 255
    5712:	91 f5       	brne	.+100    	; 0x5778 <check_Communication_Input_UART_2+0xc0>
    5714:	07 c0       	rjmp	.+14     	; 0x5724 <check_Communication_Input_UART_2+0x6c>
            {
                cntr_End_UART_2++;
            }
            if (cntr_End_UART_2==2 && ((INPUT_UART_2[cntr_UART_2-1] != 0xFF) || (INPUT_UART_2[cntr_UART_2-2] != 0xFF)))
            {
                cntr_End_UART_2 = 0;
    5716:	c0 93 2e 09 	sts	0x092E, r28	; 0x80092e <cntr_End_UART_2>
    571a:	15 c0       	rjmp	.+42     	; 0x5746 <check_Communication_Input_UART_2+0x8e>
            }
        }
        if (cntr_End_UART_2 == 3)
    571c:	90 91 2e 09 	lds	r25, 0x092E	; 0x80092e <cntr_End_UART_2>
    5720:	93 30       	cpi	r25, 0x03	; 3
    5722:	89 f4       	brne	.+34     	; 0x5746 <check_Communication_Input_UART_2+0x8e>
        {
            INPUT_UART_2[cntr_UART_2] = 0;
    5724:	e0 91 2f 09 	lds	r30, 0x092F	; 0x80092f <cntr_UART_2>
    5728:	f0 e0       	ldi	r31, 0x00	; 0
    572a:	ee 5e       	subi	r30, 0xEE	; 238
    572c:	f9 4e       	sbci	r31, 0xE9	; 233
    572e:	10 82       	st	Z, r1
            INPUT_UART_2[cntr_UART_2-1]=0;
    5730:	df 01       	movw	r26, r30
    5732:	11 97       	sbiw	r26, 0x01	; 1
    5734:	1c 92       	st	X, r1
            INPUT_UART_2[cntr_UART_2-2]=0;
    5736:	32 97       	sbiw	r30, 0x02	; 2
    5738:	10 82       	st	Z, r1
            cntr_UART_2 = 0;
    573a:	c0 93 2f 09 	sts	0x092F, r28	; 0x80092f <cntr_UART_2>
            cntr_End_UART_2 = 0;
    573e:	c0 93 2e 09 	sts	0x092E, r28	; 0x80092e <cntr_End_UART_2>
            ret = 1;
    5742:	0d 2f       	mov	r16, r29
    5744:	0b c0       	rjmp	.+22     	; 0x575c <check_Communication_Input_UART_2+0xa4>
        }
        else
        {
            INPUT_UART_2[cntr_UART_2]=ch;
    5746:	90 91 2f 09 	lds	r25, 0x092F	; 0x80092f <cntr_UART_2>
    574a:	e9 2f       	mov	r30, r25
    574c:	f0 e0       	ldi	r31, 0x00	; 0
    574e:	ee 5e       	subi	r30, 0xEE	; 238
    5750:	f9 4e       	sbci	r31, 0xE9	; 233
    5752:	80 83       	st	Z, r24
            cntr_UART_2++;
    5754:	9f 5f       	subi	r25, 0xFF	; 255
    5756:	90 93 2f 09 	sts	0x092F, r25	; 0x80092f <cntr_UART_2>
            ret = 0;
    575a:	0c 2f       	mov	r16, r28
}

char check_Communication_Input_UART_2(void)
{
    char ret = 0;
    while(RB_length(&rb_rx_ESP)>0)                  // UART_2
    575c:	86 e8       	ldi	r24, 0x86	; 134
    575e:	9a e0       	ldi	r25, 0x0A	; 10
    5760:	07 d2       	rcall	.+1038   	; 0x5b70 <RB_length>
    5762:	81 11       	cpse	r24, r1
    5764:	b2 cf       	rjmp	.-156    	; 0x56ca <check_Communication_Input_UART_2+0x12>
    5766:	11 c0       	rjmp	.+34     	; 0x578a <check_Communication_Input_UART_2+0xd2>
            {
                cntr_End_UART_2++;
            }
            if (cntr_End_UART_2==1 && (INPUT_UART_2[cntr_UART_2-1] != 0xFF))
            {
                cntr_End_UART_2=0;
    5768:	c0 93 2e 09 	sts	0x092E, r28	; 0x80092e <cntr_End_UART_2>
    576c:	d7 cf       	rjmp	.-82     	; 0x571c <check_Communication_Input_UART_2+0x64>
            }
            if (cntr_End_UART_2==2 && (INPUT_UART_2[cntr_UART_2-1] == 0xFF) && (INPUT_UART_2[cntr_UART_2-2] == 0xFF))
    576e:	90 91 2e 09 	lds	r25, 0x092E	; 0x80092e <cntr_End_UART_2>
    5772:	92 30       	cpi	r25, 0x02	; 2
    5774:	99 f6       	brne	.-90     	; 0x571c <check_Communication_Input_UART_2+0x64>
    5776:	bf cf       	rjmp	.-130    	; 0x56f6 <check_Communication_Input_UART_2+0x3e>
            {
                cntr_End_UART_2++;
            }
            if (cntr_End_UART_2==2 && ((INPUT_UART_2[cntr_UART_2-1] != 0xFF) || (INPUT_UART_2[cntr_UART_2-2] != 0xFF)))
    5778:	e0 91 2f 09 	lds	r30, 0x092F	; 0x80092f <cntr_UART_2>
    577c:	f0 e0       	ldi	r31, 0x00	; 0
    577e:	e0 5f       	subi	r30, 0xF0	; 240
    5780:	f9 4e       	sbci	r31, 0xE9	; 233
    5782:	90 81       	ld	r25, Z
    5784:	9f 3f       	cpi	r25, 0xFF	; 255
    5786:	39 f6       	brne	.-114    	; 0x5716 <check_Communication_Input_UART_2+0x5e>
    5788:	de cf       	rjmp	.-68     	; 0x5746 <check_Communication_Input_UART_2+0x8e>
            ret = 0;

        }
    }
    return ret;
}
    578a:	80 2f       	mov	r24, r16
    578c:	df 91       	pop	r29
    578e:	cf 91       	pop	r28
    5790:	1f 91       	pop	r17
    5792:	0f 91       	pop	r16
    5794:	08 95       	ret

00005796 <proceed_Communication_Input_UART_2>:

void proceed_Communication_Input_UART_2(void)
{
    Uart_Transmit_IT_PC("Proceed UART 2: ");
    5796:	88 e6       	ldi	r24, 0x68	; 104
    5798:	97 e0       	ldi	r25, 0x07	; 7
    579a:	0e 94 51 41 	call	0x82a2	; 0x82a2 <Uart_Transmit_IT_PC>
    Uart_Transmit_IT_PC((char *)INPUT_UART_2);
    579e:	82 e1       	ldi	r24, 0x12	; 18
    57a0:	96 e1       	ldi	r25, 0x16	; 22
    57a2:	0e 94 51 41 	call	0x82a2	; 0x82a2 <Uart_Transmit_IT_PC>
    Uart_Transmit_IT_PC("\r\n");
    57a6:	8a e8       	ldi	r24, 0x8A	; 138
    57a8:	94 e0       	ldi	r25, 0x04	; 4
    57aa:	0e 94 51 41 	call	0x82a2	; 0x82a2 <Uart_Transmit_IT_PC>

    cocktail_check_command((int8_t) INPUT_UART_2[0], (int8_t) INPUT_UART_2[1]);
    57ae:	e2 e1       	ldi	r30, 0x12	; 18
    57b0:	f6 e1       	ldi	r31, 0x16	; 22
    57b2:	61 81       	ldd	r22, Z+1	; 0x01
    57b4:	80 81       	ld	r24, Z
    57b6:	33 c8       	rjmp	.-3994   	; 0x481e <cocktail_check_command>
    57b8:	08 95       	ret

000057ba <check_Communication_Input_UART>:
//  cocktail_check_command(INPUT_UART_3[0],INPUT_UART_3[1]);
// }

void check_Communication_Input_UART(void)
{
    if (check_Communication_Input_UART_0())             // Check UART_0 (USB), ob vollstndige bertragung stattgefunden hat (Ende = "\r")
    57ba:	d3 dd       	rcall	.-1114   	; 0x5362 <check_Communication_Input_UART_0>
    57bc:	81 11       	cpse	r24, r1
    {
        proceed_Communication_Input_UART_0();               // Vollstndige bertragung des USB verarbeiten
    57be:	fe dd       	rcall	.-1028   	; 0x53bc <proceed_Communication_Input_UART_0>
    }
    if (check_Communication_Input_UART_1())             // Check UART_1 (Nextion-Display), ob vollstndige bertragung stattgefunden hat (Ende = "0xFF 0xFF 0xFF")
    57c0:	e0 de       	rcall	.-576    	; 0x5582 <check_Communication_Input_UART_1>
    {
        proceed_Communication_INPUT_UART_1();               // Vollstndige bertragung des Displays verarbeiten
    57c2:	81 11       	cpse	r24, r1
    }
    if (check_Communication_Input_UART_2())             // Check UART_2 (ESP), ob vollstndige bertragung stattgefunden hat (Ende = "0xFF 0xFF 0xFF")
    57c4:	67 df       	rcall	.-306    	; 0x5694 <proceed_Communication_INPUT_UART_1>
    57c6:	78 df       	rcall	.-272    	; 0x56b8 <check_Communication_Input_UART_2>
    57c8:	81 11       	cpse	r24, r1
    {
        proceed_Communication_Input_UART_2();               // Vollstndige bertragung des ESP's verarbeiten
    57ca:	e5 cf       	rjmp	.-54     	; 0x5796 <proceed_Communication_Input_UART_2>
    57cc:	08 95       	ret

000057ce <endConversation>:
    57ce:	cf 93       	push	r28
    endConversation();
}


void endConversation(void)
{
    57d0:	df 93       	push	r29
    57d2:	00 d0       	rcall	.+0      	; 0x57d4 <endConversation+0x6>
    57d4:	1f 92       	push	r1
    57d6:	cd b7       	in	r28, 0x3d	; 61
    57d8:	de b7       	in	r29, 0x3e	; 62
    unsigned char end [4]= {255,255,255,'\0'};
    57da:	8f ef       	ldi	r24, 0xFF	; 255
    57dc:	89 83       	std	Y+1, r24	; 0x01
    57de:	8a 83       	std	Y+2, r24	; 0x02
    57e0:	8b 83       	std	Y+3, r24	; 0x03
    57e2:	1c 82       	std	Y+4, r1	; 0x04
    Uart_Transmit_IT_Display(( char *)end);
    57e4:	ce 01       	movw	r24, r28
    57e6:	01 96       	adiw	r24, 0x01	; 1
    57e8:	0e 94 64 41 	call	0x82c8	; 0x82c8 <Uart_Transmit_IT_Display>
    {
        Uart_Transmit_IT_PC((char *)end);
        Uart_Transmit_IT_PC("\r\n");
        _delay_ms(20);
    }
    57ec:	0f 90       	pop	r0
    57ee:	0f 90       	pop	r0
    57f0:	0f 90       	pop	r0
    57f2:	0f 90       	pop	r0
    57f4:	df 91       	pop	r29
    57f6:	cf 91       	pop	r28
    57f8:	08 95       	ret

000057fa <nextion_change_page>:
 */

#include "Nextion_Display.h"

void nextion_change_page(char page)
{
    57fa:	cf 93       	push	r28
    57fc:	df 93       	push	r29
    57fe:	00 d0       	rcall	.+0      	; 0x5800 <nextion_change_page+0x6>
    5800:	cd b7       	in	r28, 0x3d	; 61
    5802:	de b7       	in	r29, 0x3e	; 62
    char * pge = "page ";
    char buff[3] = {0};
    5804:	19 82       	std	Y+1, r1	; 0x01
    5806:	1a 82       	std	Y+2, r1	; 0x02
    5808:	1b 82       	std	Y+3, r1	; 0x03
    580a:	90 e0       	ldi	r25, 0x00	; 0
    580c:	4a e0       	ldi	r20, 0x0A	; 10
    580e:	be 01       	movw	r22, r28
    5810:	6f 5f       	subi	r22, 0xFF	; 255
    5812:	7f 4f       	sbci	r23, 0xFF	; 255
    5814:	01 97       	sbiw	r24, 0x01	; 1
    5816:	0e 94 be 48 	call	0x917c	; 0x917c <__itoa_ncheck>
    itoa((page-1),(char *)buff,10);
    Uart_Transmit_IT_Display(pge);
    581a:	89 e7       	ldi	r24, 0x79	; 121
    581c:	97 e0       	ldi	r25, 0x07	; 7
    581e:	0e 94 64 41 	call	0x82c8	; 0x82c8 <Uart_Transmit_IT_Display>
    Uart_Transmit_IT_Display((char *)buff);
    5822:	ce 01       	movw	r24, r28
    5824:	01 96       	adiw	r24, 0x01	; 1
    5826:	0e 94 64 41 	call	0x82c8	; 0x82c8 <Uart_Transmit_IT_Display>
    if (DEBUG_DISPLAY)
    {
        Uart_Transmit_IT_PC(pge);
        Uart_Transmit_IT_PC((char *)buff);
    }
    endConversation();
    582a:	d1 df       	rcall	.-94     	; 0x57ce <endConversation>
}
    582c:	0f 90       	pop	r0
    582e:	0f 90       	pop	r0
    5830:	0f 90       	pop	r0
    5832:	df 91       	pop	r29
    5834:	cf 91       	pop	r28
    5836:	08 95       	ret

00005838 <nextion_setText>:

void nextion_setText(char * object, char * text)
{
    5838:	cf 93       	push	r28
    583a:	df 93       	push	r29
    583c:	eb 01       	movw	r28, r22
    char * txt = ".txt=";
    char * slash = "\"";
    Uart_Transmit_IT_Display(object);
    583e:	0e 94 64 41 	call	0x82c8	; 0x82c8 <Uart_Transmit_IT_Display>
    Uart_Transmit_IT_Display(txt);
    5842:	8f e7       	ldi	r24, 0x7F	; 127
    5844:	97 e0       	ldi	r25, 0x07	; 7
    5846:	0e 94 64 41 	call	0x82c8	; 0x82c8 <Uart_Transmit_IT_Display>
    Uart_Transmit_IT_Display(slash);
    584a:	85 e8       	ldi	r24, 0x85	; 133
    584c:	97 e0       	ldi	r25, 0x07	; 7
    584e:	0e 94 64 41 	call	0x82c8	; 0x82c8 <Uart_Transmit_IT_Display>
    Uart_Transmit_IT_Display(text);
    5852:	ce 01       	movw	r24, r28
    5854:	0e 94 64 41 	call	0x82c8	; 0x82c8 <Uart_Transmit_IT_Display>
    Uart_Transmit_IT_Display(slash);
    5858:	85 e8       	ldi	r24, 0x85	; 133
    585a:	97 e0       	ldi	r25, 0x07	; 7
    585c:	0e 94 64 41 	call	0x82c8	; 0x82c8 <Uart_Transmit_IT_Display>
        Uart_Transmit_IT_PC(slash);
        Uart_Transmit_IT_PC(text);
        Uart_Transmit_IT_PC(slash);
    }

    endConversation();
    5860:	b6 df       	rcall	.-148    	; 0x57ce <endConversation>
}
    5862:	df 91       	pop	r29
    5864:	cf 91       	pop	r28
    5866:	08 95       	ret

00005868 <nextion_setValue>:

void nextion_setValue( char * object,  char * value)
{
    5868:	cf 93       	push	r28
    586a:	df 93       	push	r29
    586c:	eb 01       	movw	r28, r22
    char * val = ".val=";
    Uart_Transmit_IT_Display(object);
    586e:	0e 94 64 41 	call	0x82c8	; 0x82c8 <Uart_Transmit_IT_Display>
    Uart_Transmit_IT_Display(val);
    5872:	87 e8       	ldi	r24, 0x87	; 135
    5874:	97 e0       	ldi	r25, 0x07	; 7
    5876:	0e 94 64 41 	call	0x82c8	; 0x82c8 <Uart_Transmit_IT_Display>
    Uart_Transmit_IT_Display(value);
    587a:	ce 01       	movw	r24, r28
    587c:	0e 94 64 41 	call	0x82c8	; 0x82c8 <Uart_Transmit_IT_Display>
    {
        Uart_Transmit_IT_PC(object);
        Uart_Transmit_IT_PC(val);
        Uart_Transmit_IT_PC(value);
    }
    endConversation();
    5880:	a6 df       	rcall	.-180    	; 0x57ce <endConversation>
}
    5882:	df 91       	pop	r29
    5884:	cf 91       	pop	r28
    5886:	08 95       	ret

00005888 <nextion_setPicture>:

void nextion_setPicture( char * x,  char * y,  char * picture)
{
    5888:	ef 92       	push	r14
    588a:	ff 92       	push	r15
    588c:	0f 93       	push	r16
    588e:	1f 93       	push	r17
    5890:	cf 93       	push	r28
    5892:	df 93       	push	r29
    5894:	7c 01       	movw	r14, r24
    5896:	8b 01       	movw	r16, r22
    5898:	ea 01       	movw	r28, r20
    char * pic = "pic ";
    char * komma = ",";
    Uart_Transmit_IT_Display(pic);
    589a:	8d e8       	ldi	r24, 0x8D	; 141
    589c:	97 e0       	ldi	r25, 0x07	; 7
    589e:	0e 94 64 41 	call	0x82c8	; 0x82c8 <Uart_Transmit_IT_Display>
    Uart_Transmit_IT_Display(x);
    58a2:	c7 01       	movw	r24, r14
    58a4:	0e 94 64 41 	call	0x82c8	; 0x82c8 <Uart_Transmit_IT_Display>
    Uart_Transmit_IT_Display(komma);
    58a8:	82 e9       	ldi	r24, 0x92	; 146
    58aa:	97 e0       	ldi	r25, 0x07	; 7
    58ac:	0e 94 64 41 	call	0x82c8	; 0x82c8 <Uart_Transmit_IT_Display>
    Uart_Transmit_IT_Display(y);
    58b0:	c8 01       	movw	r24, r16
    58b2:	0e 94 64 41 	call	0x82c8	; 0x82c8 <Uart_Transmit_IT_Display>
    Uart_Transmit_IT_Display(komma);
    58b6:	82 e9       	ldi	r24, 0x92	; 146
    58b8:	97 e0       	ldi	r25, 0x07	; 7
    58ba:	0e 94 64 41 	call	0x82c8	; 0x82c8 <Uart_Transmit_IT_Display>
    Uart_Transmit_IT_Display(picture);
    58be:	ce 01       	movw	r24, r28
    58c0:	0e 94 64 41 	call	0x82c8	; 0x82c8 <Uart_Transmit_IT_Display>
        Uart_Transmit_IT_PC((char *)komma);
        Uart_Transmit_IT_PC((char *)y);
        Uart_Transmit_IT_PC((char *)komma);
        Uart_Transmit_IT_PC((char *)picture);
    }
    endConversation();
    58c4:	84 df       	rcall	.-248    	; 0x57ce <endConversation>
}
    58c6:	df 91       	pop	r29
    58c8:	cf 91       	pop	r28
    58ca:	1f 91       	pop	r17
    58cc:	0f 91       	pop	r16
    58ce:	ff 90       	pop	r15
    58d0:	ef 90       	pop	r14
    58d2:	08 95       	ret

000058d4 <nextion_getSliderValue>:

uint8_t nextion_getSliderValue(char * object, unsigned char * INPUT)
{
    58d4:	0f 93       	push	r16
    58d6:	1f 93       	push	r17
    58d8:	cf 93       	push	r28
    58da:	df 93       	push	r29
    58dc:	cd b7       	in	r28, 0x3d	; 61
    58de:	de b7       	in	r29, 0x3e	; 62
    58e0:	6e 97       	sbiw	r28, 0x1e	; 30
    58e2:	0f b6       	in	r0, 0x3f	; 63
    58e4:	f8 94       	cli
    58e6:	de bf       	out	0x3e, r29	; 62
    58e8:	0f be       	out	0x3f, r0	; 63
    58ea:	cd bf       	out	0x3d, r28	; 61
    58ec:	bc 01       	movw	r22, r24
    uint8_t ret = 0;

    char buff[30] = {0};
    58ee:	8e 01       	movw	r16, r28
    58f0:	0f 5f       	subi	r16, 0xFF	; 255
    58f2:	1f 4f       	sbci	r17, 0xFF	; 255
    58f4:	8e e1       	ldi	r24, 0x1E	; 30
    58f6:	f8 01       	movw	r30, r16
    58f8:	11 92       	st	Z+, r1
    58fa:	8a 95       	dec	r24
    58fc:	e9 f7       	brne	.-6      	; 0x58f8 <nextion_getSliderValue+0x24>
    char * get_slider = "get ";
    char * val = ".val";

    strcat((char *)buff, (const char *)get_slider);
    58fe:	d8 01       	movw	r26, r16
    5900:	0d 90       	ld	r0, X+
    5902:	00 20       	and	r0, r0
    5904:	e9 f7       	brne	.-6      	; 0x5900 <nextion_getSliderValue+0x2c>
    5906:	11 97       	sbiw	r26, 0x01	; 1
    5908:	95 e0       	ldi	r25, 0x05	; 5
    590a:	e4 e9       	ldi	r30, 0x94	; 148
    590c:	f7 e0       	ldi	r31, 0x07	; 7
    590e:	01 90       	ld	r0, Z+
    5910:	0d 92       	st	X+, r0
    5912:	9a 95       	dec	r25
    5914:	e1 f7       	brne	.-8      	; 0x590e <nextion_getSliderValue+0x3a>
    strcat((char *)buff, (const char *)object);
    5916:	c8 01       	movw	r24, r16
    5918:	0e 94 7c 48 	call	0x90f8	; 0x90f8 <strcat>
    strcat((char *)buff, (const char *)val);
    591c:	d8 01       	movw	r26, r16
    591e:	0d 90       	ld	r0, X+
    5920:	00 20       	and	r0, r0
    5922:	e9 f7       	brne	.-6      	; 0x591e <nextion_getSliderValue+0x4a>
    5924:	11 97       	sbiw	r26, 0x01	; 1
    5926:	85 e0       	ldi	r24, 0x05	; 5
    5928:	e9 e9       	ldi	r30, 0x99	; 153
    592a:	f7 e0       	ldi	r31, 0x07	; 7
    592c:	01 90       	ld	r0, Z+
    592e:	0d 92       	st	X+, r0
    5930:	8a 95       	dec	r24
    5932:	e1 f7       	brne	.-8      	; 0x592c <nextion_getSliderValue+0x58>
    Uart_Transmit_IT_Display((char *) buff);
    5934:	c8 01       	movw	r24, r16
    5936:	0e 94 64 41 	call	0x82c8	; 0x82c8 <Uart_Transmit_IT_Display>
    Uart_Transmit_IT_PC((char *) buff);
    593a:	c8 01       	movw	r24, r16
    593c:	0e 94 51 41 	call	0x82a2	; 0x82a2 <Uart_Transmit_IT_PC>
    endConversation();
    5940:	46 df       	rcall	.-372    	; 0x57ce <endConversation>

    while (check_Communication_Input_UART_1()==0)
    5942:	1f de       	rcall	.-962    	; 0x5582 <check_Communication_Input_UART_1>
    5944:	88 23       	and	r24, r24
    5946:	e9 f3       	breq	.-6      	; 0x5942 <nextion_getSliderValue+0x6e>
    5948:	10 91 11 15 	lds	r17, 0x1511	; 0x801511 <INPUT_UART_1+0x1>
        ;

    if (INPUT_UART_1[1]==255)
    594c:	1f 3f       	cpi	r17, 0xFF	; 255
    594e:	09 f4       	brne	.+2      	; 0x5952 <nextion_getSliderValue+0x7e>
    5950:	10 e0       	ldi	r17, 0x00	; 0
    {
        ret = 0;
    5952:	4a e0       	ldi	r20, 0x0A	; 10
    5954:	be 01       	movw	r22, r28
    5956:	6f 5f       	subi	r22, 0xFF	; 255
    5958:	7f 4f       	sbci	r23, 0xFF	; 255
    595a:	81 2f       	mov	r24, r17
    595c:	90 e0       	ldi	r25, 0x00	; 0
    595e:	0e 94 be 48 	call	0x917c	; 0x917c <__itoa_ncheck>
    5962:	ce 01       	movw	r24, r28
    else
    {
        ret = INPUT_UART_1[1];
    }
    itoa(ret, (char *)buff, 10);
    Uart_Transmit_IT_PC((char *)buff);
    5964:	01 96       	adiw	r24, 0x01	; 1
    5966:	0e 94 51 41 	call	0x82a2	; 0x82a2 <Uart_Transmit_IT_PC>
    596a:	88 e2       	ldi	r24, 0x28	; 40
    Uart_Transmit_IT_PC("\r");
    596c:	97 e0       	ldi	r25, 0x07	; 7
    596e:	0e 94 51 41 	call	0x82a2	; 0x82a2 <Uart_Transmit_IT_PC>
    5972:	81 2f       	mov	r24, r17
    return ret;
}
    5974:	6e 96       	adiw	r28, 0x1e	; 30
    5976:	0f b6       	in	r0, 0x3f	; 63
    5978:	f8 94       	cli
    597a:	de bf       	out	0x3e, r29	; 62
    597c:	0f be       	out	0x3f, r0	; 63
    597e:	cd bf       	out	0x3d, r28	; 61
    5980:	df 91       	pop	r29
    5982:	cf 91       	pop	r28
    5984:	1f 91       	pop	r17
    5986:	0f 91       	pop	r16
    5988:	08 95       	ret

0000598a <nextion_disableButton>:
    598a:	0f 93       	push	r16

void nextion_disableButton(char * object)
{
    598c:	1f 93       	push	r17
    598e:	cf 93       	push	r28
    5990:	df 93       	push	r29
    5992:	cd b7       	in	r28, 0x3d	; 61
    5994:	de b7       	in	r29, 0x3e	; 62
    5996:	64 97       	sbiw	r28, 0x14	; 20
    5998:	0f b6       	in	r0, 0x3f	; 63
    599a:	f8 94       	cli
    599c:	de bf       	out	0x3e, r29	; 62
    599e:	0f be       	out	0x3f, r0	; 63
    59a0:	cd bf       	out	0x3d, r28	; 61
    59a2:	bc 01       	movw	r22, r24
    char buff10[20] = {'\0'};
    59a4:	8e 01       	movw	r16, r28
    59a6:	0f 5f       	subi	r16, 0xFF	; 255
    59a8:	1f 4f       	sbci	r17, 0xFF	; 255
    59aa:	84 e1       	ldi	r24, 0x14	; 20
    59ac:	f8 01       	movw	r30, r16
    59ae:	11 92       	st	Z+, r1
    59b0:	8a 95       	dec	r24
    59b2:	e9 f7       	brne	.-6      	; 0x59ae <nextion_disableButton+0x24>
    strcpy((char *)buff10, (const char *)"tsw ");
    59b4:	95 e0       	ldi	r25, 0x05	; 5
    59b6:	ee e9       	ldi	r30, 0x9E	; 158
    59b8:	f7 e0       	ldi	r31, 0x07	; 7
    59ba:	d8 01       	movw	r26, r16
    59bc:	01 90       	ld	r0, Z+
    59be:	0d 92       	st	X+, r0
    59c0:	9a 95       	dec	r25
    59c2:	e1 f7       	brne	.-8      	; 0x59bc <nextion_disableButton+0x32>
    strcat((char *)buff10, (const char *)object);
    59c4:	c8 01       	movw	r24, r16
    59c6:	0e 94 7c 48 	call	0x90f8	; 0x90f8 <strcat>
    strcat((char *)buff10, (const char *)",0");
    59ca:	f8 01       	movw	r30, r16
    59cc:	01 90       	ld	r0, Z+
    59ce:	00 20       	and	r0, r0
    59d0:	e9 f7       	brne	.-6      	; 0x59cc <nextion_disableButton+0x42>
    59d2:	31 97       	sbiw	r30, 0x01	; 1
    59d4:	8c e2       	ldi	r24, 0x2C	; 44
    59d6:	90 e3       	ldi	r25, 0x30	; 48
    59d8:	91 83       	std	Z+1, r25	; 0x01
    59da:	80 83       	st	Z, r24
    59dc:	12 82       	std	Z+2, r1	; 0x02

    Uart_Transmit_IT_Display((char *)buff10);
    59de:	c8 01       	movw	r24, r16
    59e0:	0e 94 64 41 	call	0x82c8	; 0x82c8 <Uart_Transmit_IT_Display>

    endConversation();
    59e4:	f4 de       	rcall	.-536    	; 0x57ce <endConversation>
}
    59e6:	64 96       	adiw	r28, 0x14	; 20
    59e8:	0f b6       	in	r0, 0x3f	; 63
    59ea:	f8 94       	cli
    59ec:	de bf       	out	0x3e, r29	; 62
    59ee:	0f be       	out	0x3f, r0	; 63
    59f0:	cd bf       	out	0x3d, r28	; 61
    59f2:	df 91       	pop	r29
    59f4:	cf 91       	pop	r28
    59f6:	1f 91       	pop	r17
    59f8:	0f 91       	pop	r16
    59fa:	08 95       	ret

000059fc <nextion_enableButton>:

void nextion_enableButton(char * object)
{
    59fc:	0f 93       	push	r16
    59fe:	1f 93       	push	r17
    5a00:	cf 93       	push	r28
    5a02:	df 93       	push	r29
    5a04:	cd b7       	in	r28, 0x3d	; 61
    5a06:	de b7       	in	r29, 0x3e	; 62
    5a08:	64 97       	sbiw	r28, 0x14	; 20
    5a0a:	0f b6       	in	r0, 0x3f	; 63
    5a0c:	f8 94       	cli
    5a0e:	de bf       	out	0x3e, r29	; 62
    5a10:	0f be       	out	0x3f, r0	; 63
    5a12:	cd bf       	out	0x3d, r28	; 61
    5a14:	bc 01       	movw	r22, r24
    char buff10[20] = {'\0'};
    5a16:	8e 01       	movw	r16, r28
    5a18:	0f 5f       	subi	r16, 0xFF	; 255
    5a1a:	1f 4f       	sbci	r17, 0xFF	; 255
    5a1c:	84 e1       	ldi	r24, 0x14	; 20
    5a1e:	f8 01       	movw	r30, r16
    5a20:	11 92       	st	Z+, r1
    5a22:	8a 95       	dec	r24
    5a24:	e9 f7       	brne	.-6      	; 0x5a20 <nextion_enableButton+0x24>
    strcpy((char *)buff10, (const char *)"tsw ");
    5a26:	95 e0       	ldi	r25, 0x05	; 5
    5a28:	ee e9       	ldi	r30, 0x9E	; 158
    5a2a:	f7 e0       	ldi	r31, 0x07	; 7
    5a2c:	d8 01       	movw	r26, r16
    5a2e:	01 90       	ld	r0, Z+
    5a30:	0d 92       	st	X+, r0
    5a32:	9a 95       	dec	r25
    5a34:	e1 f7       	brne	.-8      	; 0x5a2e <nextion_enableButton+0x32>
    strcat((char *)buff10, (const char *)object);
    5a36:	c8 01       	movw	r24, r16
    5a38:	0e 94 7c 48 	call	0x90f8	; 0x90f8 <strcat>
    strcat((char *)buff10, (const char *)",1");
    5a3c:	f8 01       	movw	r30, r16
    5a3e:	01 90       	ld	r0, Z+
    5a40:	00 20       	and	r0, r0
    5a42:	e9 f7       	brne	.-6      	; 0x5a3e <nextion_enableButton+0x42>
    5a44:	31 97       	sbiw	r30, 0x01	; 1
    5a46:	8c e2       	ldi	r24, 0x2C	; 44
    5a48:	91 e3       	ldi	r25, 0x31	; 49
    5a4a:	91 83       	std	Z+1, r25	; 0x01
    5a4c:	80 83       	st	Z, r24
    5a4e:	12 82       	std	Z+2, r1	; 0x02

    Uart_Transmit_IT_Display((char *)buff10);
    5a50:	c8 01       	movw	r24, r16
    5a52:	0e 94 64 41 	call	0x82c8	; 0x82c8 <Uart_Transmit_IT_Display>

    endConversation();
    5a56:	bb de       	rcall	.-650    	; 0x57ce <endConversation>
}
    5a58:	64 96       	adiw	r28, 0x14	; 20
    5a5a:	0f b6       	in	r0, 0x3f	; 63
    5a5c:	f8 94       	cli
    5a5e:	de bf       	out	0x3e, r29	; 62
    5a60:	0f be       	out	0x3f, r0	; 63
    5a62:	cd bf       	out	0x3d, r28	; 61
    5a64:	df 91       	pop	r29
    5a66:	cf 91       	pop	r28
    5a68:	1f 91       	pop	r17
    5a6a:	0f 91       	pop	r16
    5a6c:	08 95       	ret

00005a6e <nextion_visible_off>:

void nextion_visible_off(char * object)
{
    5a6e:	0f 93       	push	r16
    5a70:	1f 93       	push	r17
    5a72:	cf 93       	push	r28
    5a74:	df 93       	push	r29
    5a76:	cd b7       	in	r28, 0x3d	; 61
    5a78:	de b7       	in	r29, 0x3e	; 62
    5a7a:	64 97       	sbiw	r28, 0x14	; 20
    5a7c:	0f b6       	in	r0, 0x3f	; 63
    5a7e:	f8 94       	cli
    5a80:	de bf       	out	0x3e, r29	; 62
    5a82:	0f be       	out	0x3f, r0	; 63
    5a84:	cd bf       	out	0x3d, r28	; 61
    5a86:	bc 01       	movw	r22, r24
    char buff10[20] = {'\0'};
    5a88:	8e 01       	movw	r16, r28
    5a8a:	0f 5f       	subi	r16, 0xFF	; 255
    5a8c:	1f 4f       	sbci	r17, 0xFF	; 255
    5a8e:	84 e1       	ldi	r24, 0x14	; 20
    5a90:	f8 01       	movw	r30, r16
    5a92:	11 92       	st	Z+, r1
    5a94:	8a 95       	dec	r24
    5a96:	e9 f7       	brne	.-6      	; 0x5a92 <nextion_visible_off+0x24>
    strcpy((char *)buff10, (const char *)"vis ");
    5a98:	95 e0       	ldi	r25, 0x05	; 5
    5a9a:	e3 ea       	ldi	r30, 0xA3	; 163
    5a9c:	f7 e0       	ldi	r31, 0x07	; 7
    5a9e:	d8 01       	movw	r26, r16
    5aa0:	01 90       	ld	r0, Z+
    5aa2:	0d 92       	st	X+, r0
    5aa4:	9a 95       	dec	r25
    5aa6:	e1 f7       	brne	.-8      	; 0x5aa0 <nextion_visible_off+0x32>
    strcat((char *)buff10, (const char *)object);
    5aa8:	c8 01       	movw	r24, r16
    5aaa:	0e 94 7c 48 	call	0x90f8	; 0x90f8 <strcat>
    strcat((char *)buff10, (const char *)",0");
    5aae:	f8 01       	movw	r30, r16
    5ab0:	01 90       	ld	r0, Z+
    5ab2:	00 20       	and	r0, r0
    5ab4:	e9 f7       	brne	.-6      	; 0x5ab0 <nextion_visible_off+0x42>
    5ab6:	31 97       	sbiw	r30, 0x01	; 1
    5ab8:	8c e2       	ldi	r24, 0x2C	; 44
    5aba:	90 e3       	ldi	r25, 0x30	; 48
    5abc:	91 83       	std	Z+1, r25	; 0x01
    5abe:	80 83       	st	Z, r24
    5ac0:	12 82       	std	Z+2, r1	; 0x02

    Uart_Transmit_IT_Display((char *)buff10);
    5ac2:	c8 01       	movw	r24, r16
    5ac4:	0e 94 64 41 	call	0x82c8	; 0x82c8 <Uart_Transmit_IT_Display>

    endConversation();
    5ac8:	82 de       	rcall	.-764    	; 0x57ce <endConversation>
}
    5aca:	64 96       	adiw	r28, 0x14	; 20
    5acc:	0f b6       	in	r0, 0x3f	; 63
    5ace:	f8 94       	cli
    5ad0:	de bf       	out	0x3e, r29	; 62
    5ad2:	0f be       	out	0x3f, r0	; 63
    5ad4:	cd bf       	out	0x3d, r28	; 61
    5ad6:	df 91       	pop	r29
    5ad8:	cf 91       	pop	r28
    5ada:	1f 91       	pop	r17
    5adc:	0f 91       	pop	r16
    5ade:	08 95       	ret

00005ae0 <nextion_visible_on>:

void nextion_visible_on(char * object)
{
    5ae0:	0f 93       	push	r16
    5ae2:	1f 93       	push	r17
    5ae4:	cf 93       	push	r28
    5ae6:	df 93       	push	r29
    5ae8:	cd b7       	in	r28, 0x3d	; 61
    5aea:	de b7       	in	r29, 0x3e	; 62
    5aec:	64 97       	sbiw	r28, 0x14	; 20
    5aee:	0f b6       	in	r0, 0x3f	; 63
    5af0:	f8 94       	cli
    5af2:	de bf       	out	0x3e, r29	; 62
    5af4:	0f be       	out	0x3f, r0	; 63
    5af6:	cd bf       	out	0x3d, r28	; 61
    5af8:	bc 01       	movw	r22, r24
    char buff10[20] = {'\0'};
    5afa:	8e 01       	movw	r16, r28
    5afc:	0f 5f       	subi	r16, 0xFF	; 255
    5afe:	1f 4f       	sbci	r17, 0xFF	; 255
    5b00:	84 e1       	ldi	r24, 0x14	; 20
    5b02:	f8 01       	movw	r30, r16
    5b04:	11 92       	st	Z+, r1
    5b06:	8a 95       	dec	r24
    5b08:	e9 f7       	brne	.-6      	; 0x5b04 <nextion_visible_on+0x24>
    strcpy((char *)buff10, (const char *)"vis ");
    5b0a:	95 e0       	ldi	r25, 0x05	; 5
    5b0c:	e3 ea       	ldi	r30, 0xA3	; 163
    5b0e:	f7 e0       	ldi	r31, 0x07	; 7
    5b10:	d8 01       	movw	r26, r16
    5b12:	01 90       	ld	r0, Z+
    5b14:	0d 92       	st	X+, r0
    5b16:	9a 95       	dec	r25
    5b18:	e1 f7       	brne	.-8      	; 0x5b12 <nextion_visible_on+0x32>
    strcat((char *)buff10, (const char *)object);
    5b1a:	c8 01       	movw	r24, r16
    5b1c:	0e 94 7c 48 	call	0x90f8	; 0x90f8 <strcat>
    strcat((char *)buff10, (const char *)",1");
    5b20:	f8 01       	movw	r30, r16
    5b22:	01 90       	ld	r0, Z+
    5b24:	00 20       	and	r0, r0
    5b26:	e9 f7       	brne	.-6      	; 0x5b22 <nextion_visible_on+0x42>
    5b28:	31 97       	sbiw	r30, 0x01	; 1
    5b2a:	8c e2       	ldi	r24, 0x2C	; 44
    5b2c:	91 e3       	ldi	r25, 0x31	; 49
    5b2e:	91 83       	std	Z+1, r25	; 0x01
    5b30:	80 83       	st	Z, r24
    5b32:	12 82       	std	Z+2, r1	; 0x02

    Uart_Transmit_IT_Display((char *)buff10);
    5b34:	c8 01       	movw	r24, r16
    5b36:	0e 94 64 41 	call	0x82c8	; 0x82c8 <Uart_Transmit_IT_Display>

    endConversation();
    5b3a:	49 de       	rcall	.-878    	; 0x57ce <endConversation>
}
    5b3c:	64 96       	adiw	r28, 0x14	; 20
    5b3e:	0f b6       	in	r0, 0x3f	; 63
    5b40:	f8 94       	cli
    5b42:	de bf       	out	0x3e, r29	; 62
    5b44:	0f be       	out	0x3f, r0	; 63
    5b46:	cd bf       	out	0x3d, r28	; 61
    5b48:	df 91       	pop	r29
    5b4a:	cf 91       	pop	r28
    5b4c:	1f 91       	pop	r17
    5b4e:	0f 91       	pop	r16
    5b50:	08 95       	ret

00005b52 <RB_init>:
        }
    }
    rb->tail = tail;

    return 1;
}
    5b52:	fc 01       	movw	r30, r24
    5b54:	11 82       	std	Z+1, r1	; 0x01
    5b56:	10 82       	st	Z, r1
    5b58:	08 95       	ret

00005b5a <RB_free>:
    5b5a:	fc 01       	movw	r30, r24
    5b5c:	90 81       	ld	r25, Z
    5b5e:	81 81       	ldd	r24, Z+1	; 0x01
    5b60:	98 17       	cp	r25, r24
    5b62:	20 f0       	brcs	.+8      	; 0x5b6c <RB_free+0x12>
    5b64:	98 1b       	sub	r25, r24
    5b66:	89 2f       	mov	r24, r25
    5b68:	80 95       	com	r24
    5b6a:	08 95       	ret
    5b6c:	89 1b       	sub	r24, r25
    5b6e:	08 95       	ret

00005b70 <RB_length>:
    5b70:	fc 01       	movw	r30, r24
    5b72:	20 81       	ld	r18, Z
    5b74:	91 81       	ldd	r25, Z+1	; 0x01
    5b76:	29 17       	cp	r18, r25
    5b78:	18 f0       	brcs	.+6      	; 0x5b80 <RB_length+0x10>
    5b7a:	82 2f       	mov	r24, r18
    5b7c:	89 1b       	sub	r24, r25
    5b7e:	08 95       	ret
    5b80:	89 2f       	mov	r24, r25
    5b82:	82 1b       	sub	r24, r18
    5b84:	80 95       	com	r24
    5b86:	08 95       	ret

00005b88 <RB_readByte>:
    5b88:	cf 93       	push	r28
    5b8a:	df 93       	push	r29
    5b8c:	ec 01       	movw	r28, r24
    5b8e:	f0 df       	rcall	.-32     	; 0x5b70 <RB_length>
    5b90:	88 23       	and	r24, r24
    5b92:	59 f0       	breq	.+22     	; 0x5baa <RB_readByte+0x22>
    5b94:	89 81       	ldd	r24, Y+1	; 0x01
    5b96:	91 e0       	ldi	r25, 0x01	; 1
    5b98:	98 0f       	add	r25, r24
    5b9a:	fe 01       	movw	r30, r28
    5b9c:	e8 0f       	add	r30, r24
    5b9e:	f1 1d       	adc	r31, r1
    5ba0:	82 81       	ldd	r24, Z+2	; 0x02
    5ba2:	9f 3f       	cpi	r25, 0xFF	; 255
    5ba4:	09 f4       	brne	.+2      	; 0x5ba8 <RB_readByte+0x20>
    5ba6:	90 e0       	ldi	r25, 0x00	; 0
    5ba8:	99 83       	std	Y+1, r25	; 0x01
    5baa:	df 91       	pop	r29
    5bac:	cf 91       	pop	r28
    5bae:	08 95       	ret

00005bb0 <RB_writeByte>:
    5bb0:	0f 93       	push	r16
    5bb2:	1f 93       	push	r17
    5bb4:	cf 93       	push	r28
    5bb6:	df 93       	push	r29
    5bb8:	ec 01       	movw	r28, r24
    5bba:	16 2f       	mov	r17, r22
    5bbc:	08 81       	ld	r16, Y
    5bbe:	cd df       	rcall	.-102    	; 0x5b5a <RB_free>
    5bc0:	88 23       	and	r24, r24
    5bc2:	f1 f3       	breq	.-4      	; 0x5bc0 <RB_writeByte+0x10>
    5bc4:	11 11       	cpse	r17, r1
    5bc6:	01 c0       	rjmp	.+2      	; 0x5bca <RB_writeByte+0x1a>
    5bc8:	1f ef       	ldi	r17, 0xFF	; 255
    5bca:	81 e0       	ldi	r24, 0x01	; 1
    5bcc:	80 0f       	add	r24, r16
    5bce:	fe 01       	movw	r30, r28
    5bd0:	e0 0f       	add	r30, r16
    5bd2:	f1 1d       	adc	r31, r1
    5bd4:	12 83       	std	Z+2, r17	; 0x02
    5bd6:	8f 3f       	cpi	r24, 0xFF	; 255
    5bd8:	09 f4       	brne	.+2      	; 0x5bdc <RB_writeByte+0x2c>
    5bda:	80 e0       	ldi	r24, 0x00	; 0
    5bdc:	88 83       	st	Y, r24
    5bde:	81 e0       	ldi	r24, 0x01	; 1
    5be0:	df 91       	pop	r29
    5be2:	cf 91       	pop	r28
    5be4:	1f 91       	pop	r17
    5be6:	0f 91       	pop	r16
    5be8:	08 95       	ret

00005bea <RB_write>:

unsigned char RB_write( ring_buffer_t *rb, char *data, unsigned char datal )
{
    5bea:	ff 92       	push	r15
    5bec:	0f 93       	push	r16
    5bee:	1f 93       	push	r17
    5bf0:	cf 93       	push	r28
    5bf2:	df 93       	push	r29
    unsigned char head;

    head = rb->head;

    if (datal == 0)
    5bf4:	44 23       	and	r20, r20
    5bf6:	d9 f0       	breq	.+54     	; 0x5c2e <RB_write+0x44>
    5bf8:	c4 2f       	mov	r28, r20
    5bfa:	d7 2f       	mov	r29, r23
    5bfc:	f6 2e       	mov	r15, r22
    5bfe:	8c 01       	movw	r16, r24
    {
        return  0;
    }

    while(RB_free(rb) < datal);
    5c00:	ac df       	rcall	.-168    	; 0x5b5a <RB_free>
    5c02:	8c 17       	cp	r24, r28
    5c04:	f0 f3       	brcs	.-4      	; 0x5c02 <RB_write+0x18>
    5c06:	15 c0       	rjmp	.+42     	; 0x5c32 <RB_write+0x48>

    while(datal--)
    {
        rb->data[head++] = *data++;
    5c08:	21 e0       	ldi	r18, 0x01	; 1
    5c0a:	29 0f       	add	r18, r25
    5c0c:	31 91       	ld	r19, Z+
    5c0e:	d8 01       	movw	r26, r16
    5c10:	a9 0f       	add	r26, r25
    5c12:	b1 1d       	adc	r27, r1
    5c14:	12 96       	adiw	r26, 0x02	; 2
    5c16:	3c 93       	st	X, r19
        if (head >= RING_BUFFER_SIZE)
    5c18:	2f 3f       	cpi	r18, 0xFF	; 255
    5c1a:	11 f4       	brne	.+4      	; 0x5c20 <RB_write+0x36>
        {
            head = 0;
    5c1c:	98 2f       	mov	r25, r24
    5c1e:	01 c0       	rjmp	.+2      	; 0x5c22 <RB_write+0x38>

    while(RB_free(rb) < datal);

    while(datal--)
    {
        rb->data[head++] = *data++;
    5c20:	92 2f       	mov	r25, r18
        return  0;
    }

    while(RB_free(rb) < datal);

    while(datal--)
    5c22:	41 50       	subi	r20, 0x01	; 1
    5c24:	88 f7       	brcc	.-30     	; 0x5c08 <RB_write+0x1e>
        {
            head = 0;
        }
    }

    rb->head = head;
    5c26:	f8 01       	movw	r30, r16
    5c28:	90 83       	st	Z, r25

    return 1;
    5c2a:	81 e0       	ldi	r24, 0x01	; 1
    5c2c:	0a c0       	rjmp	.+20     	; 0x5c42 <RB_write+0x58>

    head = rb->head;

    if (datal == 0)
    {
        return  0;
    5c2e:	80 e0       	ldi	r24, 0x00	; 0
    5c30:	08 c0       	rjmp	.+16     	; 0x5c42 <RB_write+0x58>

unsigned char RB_write( ring_buffer_t *rb, char *data, unsigned char datal )
{
    unsigned char head;

    head = rb->head;
    5c32:	f8 01       	movw	r30, r16
    5c34:	90 81       	ld	r25, Z
        return  0;
    }

    while(RB_free(rb) < datal);

    while(datal--)
    5c36:	4f ef       	ldi	r20, 0xFF	; 255
    5c38:	4c 0f       	add	r20, r28
    5c3a:	ef 2d       	mov	r30, r15
    5c3c:	fd 2f       	mov	r31, r29
    {
        rb->data[head++] = *data++;
        if (head >= RING_BUFFER_SIZE)
        {
            head = 0;
    5c3e:	80 e0       	ldi	r24, 0x00	; 0
    5c40:	e3 cf       	rjmp	.-58     	; 0x5c08 <RB_write+0x1e>
    }

    rb->head = head;

    return 1;
}
    5c42:	df 91       	pop	r29
    5c44:	cf 91       	pop	r28
    5c46:	1f 91       	pop	r17
    5c48:	0f 91       	pop	r16
    5c4a:	ff 90       	pop	r15
    5c4c:	08 95       	ret

00005c4e <getFirstSector>:
    freeMemory *= bytesPerSector ;
    asm("nop");
    Uart_Transmit_IT_PC((char*)("\r Free Memory: \r"));
    displayMemory (HIGH, freeMemory);
    asm("nop");
}
    5c4e:	cf 92       	push	r12
    5c50:	df 92       	push	r13
    5c52:	ef 92       	push	r14
    5c54:	ff 92       	push	r15
    5c56:	a0 91 96 0e 	lds	r26, 0x0E96	; 0x800e96 <sectorPerCluster>
    5c5a:	b0 91 97 0e 	lds	r27, 0x0E97	; 0x800e97 <sectorPerCluster+0x1>
    5c5e:	c0 90 63 0a 	lds	r12, 0x0A63	; 0x800a63 <firstDataSector>
    5c62:	d0 90 64 0a 	lds	r13, 0x0A64	; 0x800a64 <firstDataSector+0x1>
    5c66:	e0 90 65 0a 	lds	r14, 0x0A65	; 0x800a65 <firstDataSector+0x2>
    5c6a:	f0 90 66 0a 	lds	r15, 0x0A66	; 0x800a66 <firstDataSector+0x3>
    5c6e:	9b 01       	movw	r18, r22
    5c70:	ac 01       	movw	r20, r24
    5c72:	22 50       	subi	r18, 0x02	; 2
    5c74:	31 09       	sbc	r19, r1
    5c76:	41 09       	sbc	r20, r1
    5c78:	51 09       	sbc	r21, r1
    5c7a:	0e 94 34 46 	call	0x8c68	; 0x8c68 <__muluhisi3>
    5c7e:	6c 0d       	add	r22, r12
    5c80:	7d 1d       	adc	r23, r13
    5c82:	8e 1d       	adc	r24, r14
    5c84:	9f 1d       	adc	r25, r15
    5c86:	ff 90       	pop	r15
    5c88:	ef 90       	pop	r14
    5c8a:	df 90       	pop	r13
    5c8c:	cf 90       	pop	r12
    5c8e:	08 95       	ret

00005c90 <getSetNextCluster>:
    5c90:	4f 92       	push	r4
    5c92:	5f 92       	push	r5
    5c94:	6f 92       	push	r6
    5c96:	7f 92       	push	r7
    5c98:	8f 92       	push	r8
    5c9a:	9f 92       	push	r9
    5c9c:	af 92       	push	r10
    5c9e:	bf 92       	push	r11
    5ca0:	cf 92       	push	r12
    5ca2:	df 92       	push	r13
    5ca4:	ef 92       	push	r14
    5ca6:	ff 92       	push	r15
    5ca8:	0f 93       	push	r16
    5caa:	1f 93       	push	r17
    5cac:	cf 93       	push	r28
    5cae:	df 93       	push	r29
    5cb0:	d4 2f       	mov	r29, r20
    5cb2:	28 01       	movw	r4, r16
    5cb4:	39 01       	movw	r6, r18
    5cb6:	40 91 bf 0f 	lds	r20, 0x0FBF	; 0x800fbf <reservedSectorCount>
    5cba:	50 91 c0 0f 	lds	r21, 0x0FC0	; 0x800fc0 <reservedSectorCount+0x1>
    5cbe:	4b 01       	movw	r8, r22
    5cc0:	5c 01       	movw	r10, r24
    5cc2:	88 0c       	add	r8, r8
    5cc4:	99 1c       	adc	r9, r9
    5cc6:	aa 1c       	adc	r10, r10
    5cc8:	bb 1c       	adc	r11, r11
    5cca:	88 0c       	add	r8, r8
    5ccc:	99 1c       	adc	r9, r9
    5cce:	aa 1c       	adc	r10, r10
    5cd0:	bb 1c       	adc	r11, r11
    5cd2:	20 91 6d 0a 	lds	r18, 0x0A6D	; 0x800a6d <bytesPerSector>
    5cd6:	30 91 6e 0a 	lds	r19, 0x0A6E	; 0x800a6e <bytesPerSector+0x1>
    5cda:	c0 90 9c 0e 	lds	r12, 0x0E9C	; 0x800e9c <unusedSectors>
    5cde:	d0 90 9d 0e 	lds	r13, 0x0E9D	; 0x800e9d <unusedSectors+0x1>
    5ce2:	e0 90 9e 0e 	lds	r14, 0x0E9E	; 0x800e9e <unusedSectors+0x2>
    5ce6:	f0 90 9f 0e 	lds	r15, 0x0E9F	; 0x800e9f <unusedSectors+0x3>
    5cea:	c4 0e       	add	r12, r20
    5cec:	d5 1e       	adc	r13, r21
    5cee:	e1 1c       	adc	r14, r1
    5cf0:	f1 1c       	adc	r15, r1
    5cf2:	40 e0       	ldi	r20, 0x00	; 0
    5cf4:	50 e0       	ldi	r21, 0x00	; 0
    5cf6:	c5 01       	movw	r24, r10
    5cf8:	b4 01       	movw	r22, r8
    5cfa:	0e 94 fb 45 	call	0x8bf6	; 0x8bf6 <__udivmodsi4>
    5cfe:	c2 0e       	add	r12, r18
    5d00:	d3 1e       	adc	r13, r19
    5d02:	e4 1e       	adc	r14, r20
    5d04:	f5 1e       	adc	r15, r21
    5d06:	20 91 6d 0a 	lds	r18, 0x0A6D	; 0x800a6d <bytesPerSector>
    5d0a:	30 91 6e 0a 	lds	r19, 0x0A6E	; 0x800a6e <bytesPerSector+0x1>
    5d0e:	40 e0       	ldi	r20, 0x00	; 0
    5d10:	50 e0       	ldi	r21, 0x00	; 0
    5d12:	c5 01       	movw	r24, r10
    5d14:	b4 01       	movw	r22, r8
    5d16:	0e 94 fb 45 	call	0x8bf6	; 0x8bf6 <__udivmodsi4>
    5d1a:	4b 01       	movw	r8, r22
    5d1c:	5c 01       	movw	r10, r24
    5d1e:	ca e0       	ldi	r28, 0x0A	; 10
    5d20:	c7 01       	movw	r24, r14
    5d22:	b6 01       	movw	r22, r12
    5d24:	0e 94 9b 38 	call	0x7136	; 0x7136 <SD_readSingleBlock>
    5d28:	88 23       	and	r24, r24
    5d2a:	11 f0       	breq	.+4      	; 0x5d30 <getSetNextCluster+0xa0>
    5d2c:	c1 50       	subi	r28, 0x01	; 1
    5d2e:	c1 f7       	brne	.-16     	; 0x5d20 <getSetNextCluster+0x90>
    5d30:	f4 01       	movw	r30, r8
    5d32:	ec 56       	subi	r30, 0x6C	; 108
    5d34:	f3 4f       	sbci	r31, 0xF3	; 243
    5d36:	d1 11       	cpse	r29, r1
    5d38:	08 c0       	rjmp	.+16     	; 0x5d4a <getSetNextCluster+0xba>
    5d3a:	80 81       	ld	r24, Z
    5d3c:	91 81       	ldd	r25, Z+1	; 0x01
    5d3e:	a2 81       	ldd	r26, Z+2	; 0x02
    5d40:	b3 81       	ldd	r27, Z+3	; 0x03
    5d42:	bc 01       	movw	r22, r24
    5d44:	cd 01       	movw	r24, r26
    5d46:	9f 70       	andi	r25, 0x0F	; 15
    5d48:	0b c0       	rjmp	.+22     	; 0x5d60 <getSetNextCluster+0xd0>
    5d4a:	40 82       	st	Z, r4
    5d4c:	51 82       	std	Z+1, r5	; 0x01
    5d4e:	62 82       	std	Z+2, r6	; 0x02
    5d50:	73 82       	std	Z+3, r7	; 0x03
    5d52:	c7 01       	movw	r24, r14
    5d54:	b6 01       	movw	r22, r12
    5d56:	0e 94 c3 38 	call	0x7186	; 0x7186 <SD_writeSingleBlock>
    5d5a:	60 e0       	ldi	r22, 0x00	; 0
    5d5c:	70 e0       	ldi	r23, 0x00	; 0
    5d5e:	cb 01       	movw	r24, r22
    5d60:	df 91       	pop	r29
    5d62:	cf 91       	pop	r28
    5d64:	1f 91       	pop	r17
    5d66:	0f 91       	pop	r16
    5d68:	ff 90       	pop	r15
    5d6a:	ef 90       	pop	r14
    5d6c:	df 90       	pop	r13
    5d6e:	cf 90       	pop	r12
    5d70:	bf 90       	pop	r11
    5d72:	af 90       	pop	r10
    5d74:	9f 90       	pop	r9
    5d76:	8f 90       	pop	r8
    5d78:	7f 90       	pop	r7
    5d7a:	6f 90       	pop	r6
    5d7c:	5f 90       	pop	r5
    5d7e:	4f 90       	pop	r4
    5d80:	08 95       	ret

00005d82 <getSetFreeCluster>:
    5d82:	cf 92       	push	r12
    5d84:	df 92       	push	r13
    5d86:	ef 92       	push	r14
    5d88:	ff 92       	push	r15
    5d8a:	cf 93       	push	r28
    5d8c:	df 93       	push	r29
    5d8e:	d8 2f       	mov	r29, r24
    5d90:	c6 2f       	mov	r28, r22
    5d92:	69 01       	movw	r12, r18
    5d94:	7a 01       	movw	r14, r20
    5d96:	80 91 9c 0e 	lds	r24, 0x0E9C	; 0x800e9c <unusedSectors>
    5d9a:	90 91 9d 0e 	lds	r25, 0x0E9D	; 0x800e9d <unusedSectors+0x1>
    5d9e:	a0 91 9e 0e 	lds	r26, 0x0E9E	; 0x800e9e <unusedSectors+0x2>
    5da2:	b0 91 9f 0e 	lds	r27, 0x0E9F	; 0x800e9f <unusedSectors+0x3>
    5da6:	bc 01       	movw	r22, r24
    5da8:	cd 01       	movw	r24, r26
    5daa:	6f 5f       	subi	r22, 0xFF	; 255
    5dac:	7f 4f       	sbci	r23, 0xFF	; 255
    5dae:	8f 4f       	sbci	r24, 0xFF	; 255
    5db0:	9f 4f       	sbci	r25, 0xFF	; 255
    5db2:	0e 94 9b 38 	call	0x7136	; 0x7136 <SD_readSingleBlock>
    5db6:	80 91 94 0c 	lds	r24, 0x0C94	; 0x800c94 <buffer>
    5dba:	90 91 95 0c 	lds	r25, 0x0C95	; 0x800c95 <buffer+0x1>
    5dbe:	a0 91 96 0c 	lds	r26, 0x0C96	; 0x800c96 <buffer+0x2>
    5dc2:	b0 91 97 0c 	lds	r27, 0x0C97	; 0x800c97 <buffer+0x3>
    5dc6:	82 35       	cpi	r24, 0x52	; 82
    5dc8:	92 45       	sbci	r25, 0x52	; 82
    5dca:	a1 46       	sbci	r26, 0x61	; 97
    5dcc:	b1 44       	sbci	r27, 0x41	; 65
    5dce:	09 f0       	breq	.+2      	; 0x5dd2 <getSetFreeCluster+0x50>
    5dd0:	58 c0       	rjmp	.+176    	; 0x5e82 <getSetFreeCluster+0x100>
    5dd2:	80 91 78 0e 	lds	r24, 0x0E78	; 0x800e78 <buffer+0x1e4>
    5dd6:	90 91 79 0e 	lds	r25, 0x0E79	; 0x800e79 <buffer+0x1e5>
    5dda:	a0 91 7a 0e 	lds	r26, 0x0E7A	; 0x800e7a <buffer+0x1e6>
    5dde:	b0 91 7b 0e 	lds	r27, 0x0E7B	; 0x800e7b <buffer+0x1e7>
    5de2:	82 37       	cpi	r24, 0x72	; 114
    5de4:	92 47       	sbci	r25, 0x72	; 114
    5de6:	a1 44       	sbci	r26, 0x41	; 65
    5de8:	b1 46       	sbci	r27, 0x61	; 97
    5dea:	09 f0       	breq	.+2      	; 0x5dee <getSetFreeCluster+0x6c>
    5dec:	4e c0       	rjmp	.+156    	; 0x5e8a <getSetFreeCluster+0x108>
    5dee:	80 91 90 0e 	lds	r24, 0x0E90	; 0x800e90 <buffer+0x1fc>
    5df2:	90 91 91 0e 	lds	r25, 0x0E91	; 0x800e91 <buffer+0x1fd>
    5df6:	a0 91 92 0e 	lds	r26, 0x0E92	; 0x800e92 <buffer+0x1fe>
    5dfa:	b0 91 93 0e 	lds	r27, 0x0E93	; 0x800e93 <buffer+0x1ff>
    5dfe:	00 97       	sbiw	r24, 0x00	; 0
    5e00:	a5 45       	sbci	r26, 0x55	; 85
    5e02:	ba 4a       	sbci	r27, 0xAA	; 170
    5e04:	09 f0       	breq	.+2      	; 0x5e08 <getSetFreeCluster+0x86>
    5e06:	45 c0       	rjmp	.+138    	; 0x5e92 <getSetFreeCluster+0x110>
    5e08:	c1 11       	cpse	r28, r1
    5e0a:	14 c0       	rjmp	.+40     	; 0x5e34 <getSetFreeCluster+0xb2>
    5e0c:	d1 30       	cpi	r29, 0x01	; 1
    5e0e:	49 f4       	brne	.+18     	; 0x5e22 <getSetFreeCluster+0xa0>
    5e10:	60 91 7c 0e 	lds	r22, 0x0E7C	; 0x800e7c <buffer+0x1e8>
    5e14:	70 91 7d 0e 	lds	r23, 0x0E7D	; 0x800e7d <buffer+0x1e9>
    5e18:	80 91 7e 0e 	lds	r24, 0x0E7E	; 0x800e7e <buffer+0x1ea>
    5e1c:	90 91 7f 0e 	lds	r25, 0x0E7F	; 0x800e7f <buffer+0x1eb>
    5e20:	3b c0       	rjmp	.+118    	; 0x5e98 <getSetFreeCluster+0x116>
    5e22:	60 91 80 0e 	lds	r22, 0x0E80	; 0x800e80 <buffer+0x1ec>
    5e26:	70 91 81 0e 	lds	r23, 0x0E81	; 0x800e81 <buffer+0x1ed>
    5e2a:	80 91 82 0e 	lds	r24, 0x0E82	; 0x800e82 <buffer+0x1ee>
    5e2e:	90 91 83 0e 	lds	r25, 0x0E83	; 0x800e83 <buffer+0x1ef>
    5e32:	32 c0       	rjmp	.+100    	; 0x5e98 <getSetFreeCluster+0x116>
    5e34:	d1 30       	cpi	r29, 0x01	; 1
    5e36:	49 f4       	brne	.+18     	; 0x5e4a <getSetFreeCluster+0xc8>
    5e38:	c0 92 7c 0e 	sts	0x0E7C, r12	; 0x800e7c <buffer+0x1e8>
    5e3c:	d0 92 7d 0e 	sts	0x0E7D, r13	; 0x800e7d <buffer+0x1e9>
    5e40:	e0 92 7e 0e 	sts	0x0E7E, r14	; 0x800e7e <buffer+0x1ea>
    5e44:	f0 92 7f 0e 	sts	0x0E7F, r15	; 0x800e7f <buffer+0x1eb>
    5e48:	08 c0       	rjmp	.+16     	; 0x5e5a <getSetFreeCluster+0xd8>
    5e4a:	c0 92 80 0e 	sts	0x0E80, r12	; 0x800e80 <buffer+0x1ec>
    5e4e:	d0 92 81 0e 	sts	0x0E81, r13	; 0x800e81 <buffer+0x1ed>
    5e52:	e0 92 82 0e 	sts	0x0E82, r14	; 0x800e82 <buffer+0x1ee>
    5e56:	f0 92 83 0e 	sts	0x0E83, r15	; 0x800e83 <buffer+0x1ef>
    5e5a:	80 91 9c 0e 	lds	r24, 0x0E9C	; 0x800e9c <unusedSectors>
    5e5e:	90 91 9d 0e 	lds	r25, 0x0E9D	; 0x800e9d <unusedSectors+0x1>
    5e62:	a0 91 9e 0e 	lds	r26, 0x0E9E	; 0x800e9e <unusedSectors+0x2>
    5e66:	b0 91 9f 0e 	lds	r27, 0x0E9F	; 0x800e9f <unusedSectors+0x3>
    5e6a:	bc 01       	movw	r22, r24
    5e6c:	cd 01       	movw	r24, r26
    5e6e:	6f 5f       	subi	r22, 0xFF	; 255
    5e70:	7f 4f       	sbci	r23, 0xFF	; 255
    5e72:	8f 4f       	sbci	r24, 0xFF	; 255
    5e74:	9f 4f       	sbci	r25, 0xFF	; 255
    5e76:	0e 94 c3 38 	call	0x7186	; 0x7186 <SD_writeSingleBlock>
    5e7a:	6f ef       	ldi	r22, 0xFF	; 255
    5e7c:	7f ef       	ldi	r23, 0xFF	; 255
    5e7e:	cb 01       	movw	r24, r22
    5e80:	0b c0       	rjmp	.+22     	; 0x5e98 <getSetFreeCluster+0x116>
    5e82:	6f ef       	ldi	r22, 0xFF	; 255
    5e84:	7f ef       	ldi	r23, 0xFF	; 255
    5e86:	cb 01       	movw	r24, r22
    5e88:	07 c0       	rjmp	.+14     	; 0x5e98 <getSetFreeCluster+0x116>
    5e8a:	6f ef       	ldi	r22, 0xFF	; 255
    5e8c:	7f ef       	ldi	r23, 0xFF	; 255
    5e8e:	cb 01       	movw	r24, r22
    5e90:	03 c0       	rjmp	.+6      	; 0x5e98 <getSetFreeCluster+0x116>
    5e92:	6f ef       	ldi	r22, 0xFF	; 255
    5e94:	7f ef       	ldi	r23, 0xFF	; 255
    5e96:	cb 01       	movw	r24, r22
    5e98:	df 91       	pop	r29
    5e9a:	cf 91       	pop	r28
    5e9c:	ff 90       	pop	r15
    5e9e:	ef 90       	pop	r14
    5ea0:	df 90       	pop	r13
    5ea2:	cf 90       	pop	r12
    5ea4:	08 95       	ret

00005ea6 <convertFileName>:
    5ea6:	cf 93       	push	r28
    5ea8:	df 93       	push	r29
    5eaa:	cd b7       	in	r28, 0x3d	; 61
    5eac:	de b7       	in	r29, 0x3e	; 62
    5eae:	2b 97       	sbiw	r28, 0x0b	; 11
    5eb0:	0f b6       	in	r0, 0x3f	; 63
    5eb2:	f8 94       	cli
    5eb4:	de bf       	out	0x3e, r29	; 62
    5eb6:	0f be       	out	0x3f, r0	; 63
    5eb8:	cd bf       	out	0x3d, r28	; 61
    5eba:	bc 01       	movw	r22, r24
    5ebc:	dc 01       	movw	r26, r24
    5ebe:	8c 91       	ld	r24, X
    5ec0:	8e 32       	cpi	r24, 0x2E	; 46
    5ec2:	61 f1       	breq	.+88     	; 0x5f1c <convertFileName+0x76>
    5ec4:	fb 01       	movw	r30, r22
    5ec6:	31 96       	adiw	r30, 0x01	; 1
    5ec8:	91 e0       	ldi	r25, 0x01	; 1
    5eca:	81 91       	ld	r24, Z+
    5ecc:	8e 32       	cpi	r24, 0x2E	; 46
    5ece:	21 f0       	breq	.+8      	; 0x5ed8 <convertFileName+0x32>
    5ed0:	9f 5f       	subi	r25, 0xFF	; 255
    5ed2:	9c 30       	cpi	r25, 0x0C	; 12
    5ed4:	d1 f7       	brne	.-12     	; 0x5eca <convertFileName+0x24>
    5ed6:	06 c0       	rjmp	.+12     	; 0x5ee4 <convertFileName+0x3e>
    5ed8:	99 30       	cpi	r25, 0x09	; 9
    5eda:	20 f4       	brcc	.+8      	; 0x5ee4 <convertFileName+0x3e>
    5edc:	91 11       	cpse	r25, r1
    5ede:	08 c0       	rjmp	.+16     	; 0x5ef0 <convertFileName+0x4a>
    5ee0:	29 2f       	mov	r18, r25
    5ee2:	1e c0       	rjmp	.+60     	; 0x5f20 <convertFileName+0x7a>
    5ee4:	88 ea       	ldi	r24, 0xA8	; 168
    5ee6:	97 e0       	ldi	r25, 0x07	; 7
    5ee8:	0e 94 51 41 	call	0x82a2	; 0x82a2 <Uart_Transmit_IT_PC>
    5eec:	81 e0       	ldi	r24, 0x01	; 1
    5eee:	62 c0       	rjmp	.+196    	; 0x5fb4 <convertFileName+0x10e>
    5ef0:	fb 01       	movw	r30, r22
    5ef2:	9e 01       	movw	r18, r28
    5ef4:	2f 5f       	subi	r18, 0xFF	; 255
    5ef6:	3f 4f       	sbci	r19, 0xFF	; 255
    5ef8:	4f ef       	ldi	r20, 0xFF	; 255
    5efa:	49 0f       	add	r20, r25
    5efc:	50 e0       	ldi	r21, 0x00	; 0
    5efe:	4f 5f       	subi	r20, 0xFF	; 255
    5f00:	5f 4f       	sbci	r21, 0xFF	; 255
    5f02:	46 0f       	add	r20, r22
    5f04:	57 1f       	adc	r21, r23
    5f06:	81 91       	ld	r24, Z+
    5f08:	d9 01       	movw	r26, r18
    5f0a:	8d 93       	st	X+, r24
    5f0c:	9d 01       	movw	r18, r26
    5f0e:	4e 17       	cp	r20, r30
    5f10:	5f 07       	cpc	r21, r31
    5f12:	c9 f7       	brne	.-14     	; 0x5f06 <convertFileName+0x60>
    5f14:	98 30       	cpi	r25, 0x08	; 8
    5f16:	78 f4       	brcc	.+30     	; 0x5f36 <convertFileName+0x90>
    5f18:	29 2f       	mov	r18, r25
    5f1a:	02 c0       	rjmp	.+4      	; 0x5f20 <convertFileName+0x7a>
    5f1c:	90 e0       	ldi	r25, 0x00	; 0
    5f1e:	20 e0       	ldi	r18, 0x00	; 0
    5f20:	80 e2       	ldi	r24, 0x20	; 32
    5f22:	e1 e0       	ldi	r30, 0x01	; 1
    5f24:	f0 e0       	ldi	r31, 0x00	; 0
    5f26:	ec 0f       	add	r30, r28
    5f28:	fd 1f       	adc	r31, r29
    5f2a:	e2 0f       	add	r30, r18
    5f2c:	f1 1d       	adc	r31, r1
    5f2e:	80 83       	st	Z, r24
    5f30:	2f 5f       	subi	r18, 0xFF	; 255
    5f32:	28 30       	cpi	r18, 0x08	; 8
    5f34:	b0 f3       	brcs	.-20     	; 0x5f22 <convertFileName+0x7c>
    5f36:	21 e0       	ldi	r18, 0x01	; 1
    5f38:	29 0f       	add	r18, r25
    5f3a:	98 e0       	ldi	r25, 0x08	; 8
    5f3c:	fb 01       	movw	r30, r22
    5f3e:	e2 0f       	add	r30, r18
    5f40:	f1 1d       	adc	r31, r1
    5f42:	80 81       	ld	r24, Z
    5f44:	81 11       	cpse	r24, r1
    5f46:	03 c0       	rjmp	.+6      	; 0x5f4e <convertFileName+0xa8>
    5f48:	9b 30       	cpi	r25, 0x0B	; 11
    5f4a:	50 f0       	brcs	.+20     	; 0x5f60 <convertFileName+0xba>
    5f4c:	15 c0       	rjmp	.+42     	; 0x5f78 <convertFileName+0xd2>
    5f4e:	2f 5f       	subi	r18, 0xFF	; 255
    5f50:	e1 e0       	ldi	r30, 0x01	; 1
    5f52:	f0 e0       	ldi	r31, 0x00	; 0
    5f54:	ec 0f       	add	r30, r28
    5f56:	fd 1f       	adc	r31, r29
    5f58:	e9 0f       	add	r30, r25
    5f5a:	f1 1d       	adc	r31, r1
    5f5c:	80 83       	st	Z, r24
    5f5e:	0c c0       	rjmp	.+24     	; 0x5f78 <convertFileName+0xd2>
    5f60:	20 e2       	ldi	r18, 0x20	; 32
    5f62:	e1 e0       	ldi	r30, 0x01	; 1
    5f64:	f0 e0       	ldi	r31, 0x00	; 0
    5f66:	ec 0f       	add	r30, r28
    5f68:	fd 1f       	adc	r31, r29
    5f6a:	e9 0f       	add	r30, r25
    5f6c:	f1 1d       	adc	r31, r1
    5f6e:	20 83       	st	Z, r18
    5f70:	9f 5f       	subi	r25, 0xFF	; 255
    5f72:	9b 30       	cpi	r25, 0x0B	; 11
    5f74:	b1 f7       	brne	.-20     	; 0x5f62 <convertFileName+0xbc>
    5f76:	03 c0       	rjmp	.+6      	; 0x5f7e <convertFileName+0xd8>
    5f78:	9f 5f       	subi	r25, 0xFF	; 255
    5f7a:	9b 30       	cpi	r25, 0x0B	; 11
    5f7c:	f8 f2       	brcs	.-66     	; 0x5f3c <convertFileName+0x96>
    5f7e:	9e 01       	movw	r18, r28
    5f80:	2f 5f       	subi	r18, 0xFF	; 255
    5f82:	3f 4f       	sbci	r19, 0xFF	; 255
    5f84:	ae 01       	movw	r20, r28
    5f86:	44 5f       	subi	r20, 0xF4	; 244
    5f88:	5f 4f       	sbci	r21, 0xFF	; 255
    5f8a:	f9 01       	movw	r30, r18
    5f8c:	80 81       	ld	r24, Z
    5f8e:	9f e9       	ldi	r25, 0x9F	; 159
    5f90:	98 0f       	add	r25, r24
    5f92:	9a 31       	cpi	r25, 0x1A	; 26
    5f94:	10 f4       	brcc	.+4      	; 0x5f9a <convertFileName+0xf4>
    5f96:	80 52       	subi	r24, 0x20	; 32
    5f98:	80 83       	st	Z, r24
    5f9a:	31 96       	adiw	r30, 0x01	; 1
    5f9c:	4e 17       	cp	r20, r30
    5f9e:	5f 07       	cpc	r21, r31
    5fa0:	a9 f7       	brne	.-22     	; 0x5f8c <convertFileName+0xe6>
    5fa2:	fb 01       	movw	r30, r22
    5fa4:	d9 01       	movw	r26, r18
    5fa6:	8d 91       	ld	r24, X+
    5fa8:	9d 01       	movw	r18, r26
    5faa:	81 93       	st	Z+, r24
    5fac:	a4 17       	cp	r26, r20
    5fae:	b5 07       	cpc	r27, r21
    5fb0:	c9 f7       	brne	.-14     	; 0x5fa4 <convertFileName+0xfe>
    5fb2:	80 e0       	ldi	r24, 0x00	; 0
    5fb4:	2b 96       	adiw	r28, 0x0b	; 11
    5fb6:	0f b6       	in	r0, 0x3f	; 63
    5fb8:	f8 94       	cli
    5fba:	de bf       	out	0x3e, r29	; 62
    5fbc:	0f be       	out	0x3f, r0	; 63
    5fbe:	cd bf       	out	0x3d, r28	; 61
    5fc0:	df 91       	pop	r29
    5fc2:	cf 91       	pop	r28
    5fc4:	08 95       	ret

00005fc6 <searchNextFreeCluster>:
    5fc6:	4f 92       	push	r4
    5fc8:	5f 92       	push	r5
    5fca:	6f 92       	push	r6
    5fcc:	7f 92       	push	r7
    5fce:	8f 92       	push	r8
    5fd0:	9f 92       	push	r9
    5fd2:	af 92       	push	r10
    5fd4:	bf 92       	push	r11
    5fd6:	cf 92       	push	r12
    5fd8:	df 92       	push	r13
    5fda:	ef 92       	push	r14
    5fdc:	ff 92       	push	r15
    5fde:	cf 93       	push	r28
    5fe0:	df 93       	push	r29
    5fe2:	6b 01       	movw	r12, r22
    5fe4:	7c 01       	movw	r14, r24
    5fe6:	20 e8       	ldi	r18, 0x80	; 128
    5fe8:	c2 22       	and	r12, r18
    5fea:	80 91 70 0a 	lds	r24, 0x0A70	; 0x800a70 <totalClusters>
    5fee:	90 91 71 0a 	lds	r25, 0x0A71	; 0x800a71 <totalClusters+0x1>
    5ff2:	a0 91 72 0a 	lds	r26, 0x0A72	; 0x800a72 <totalClusters+0x2>
    5ff6:	b0 91 73 0a 	lds	r27, 0x0A73	; 0x800a73 <totalClusters+0x3>
    5ffa:	c8 16       	cp	r12, r24
    5ffc:	d9 06       	cpc	r13, r25
    5ffe:	ea 06       	cpc	r14, r26
    6000:	fb 06       	cpc	r15, r27
    6002:	08 f0       	brcs	.+2      	; 0x6006 <searchNextFreeCluster+0x40>
    6004:	70 c0       	rjmp	.+224    	; 0x60e6 <searchNextFreeCluster+0x120>
    6006:	46 01       	movw	r8, r12
    6008:	57 01       	movw	r10, r14
    600a:	88 0c       	add	r8, r8
    600c:	99 1c       	adc	r9, r9
    600e:	aa 1c       	adc	r10, r10
    6010:	bb 1c       	adc	r11, r11
    6012:	88 0c       	add	r8, r8
    6014:	99 1c       	adc	r9, r9
    6016:	aa 1c       	adc	r10, r10
    6018:	bb 1c       	adc	r11, r11
    601a:	c4 e9       	ldi	r28, 0x94	; 148
    601c:	dc e0       	ldi	r29, 0x0C	; 12
    601e:	40 91 bf 0f 	lds	r20, 0x0FBF	; 0x800fbf <reservedSectorCount>
    6022:	50 91 c0 0f 	lds	r21, 0x0FC0	; 0x800fc0 <reservedSectorCount+0x1>
    6026:	80 91 6d 0a 	lds	r24, 0x0A6D	; 0x800a6d <bytesPerSector>
    602a:	90 91 6e 0a 	lds	r25, 0x0A6E	; 0x800a6e <bytesPerSector+0x1>
    602e:	40 90 9c 0e 	lds	r4, 0x0E9C	; 0x800e9c <unusedSectors>
    6032:	50 90 9d 0e 	lds	r5, 0x0E9D	; 0x800e9d <unusedSectors+0x1>
    6036:	60 90 9e 0e 	lds	r6, 0x0E9E	; 0x800e9e <unusedSectors+0x2>
    603a:	70 90 9f 0e 	lds	r7, 0x0E9F	; 0x800e9f <unusedSectors+0x3>
    603e:	44 0e       	add	r4, r20
    6040:	55 1e       	adc	r5, r21
    6042:	61 1c       	adc	r6, r1
    6044:	71 1c       	adc	r7, r1
    6046:	9c 01       	movw	r18, r24
    6048:	40 e0       	ldi	r20, 0x00	; 0
    604a:	50 e0       	ldi	r21, 0x00	; 0
    604c:	c5 01       	movw	r24, r10
    604e:	b4 01       	movw	r22, r8
    6050:	0e 94 fb 45 	call	0x8bf6	; 0x8bf6 <__udivmodsi4>
    6054:	c3 01       	movw	r24, r6
    6056:	b2 01       	movw	r22, r4
    6058:	62 0f       	add	r22, r18
    605a:	73 1f       	adc	r23, r19
    605c:	84 1f       	adc	r24, r20
    605e:	95 1f       	adc	r25, r21
    6060:	0e 94 9b 38 	call	0x7136	; 0x7136 <SD_readSingleBlock>
    6064:	88 81       	ld	r24, Y
    6066:	99 81       	ldd	r25, Y+1	; 0x01
    6068:	aa 81       	ldd	r26, Y+2	; 0x02
    606a:	bb 81       	ldd	r27, Y+3	; 0x03
    606c:	bf 70       	andi	r27, 0x0F	; 15
    606e:	89 2b       	or	r24, r25
    6070:	8a 2b       	or	r24, r26
    6072:	8b 2b       	or	r24, r27
    6074:	99 f0       	breq	.+38     	; 0x609c <searchNextFreeCluster+0xd6>
    6076:	21 e0       	ldi	r18, 0x01	; 1
    6078:	e2 2f       	mov	r30, r18
    607a:	f0 e0       	ldi	r31, 0x00	; 0
    607c:	ee 0f       	add	r30, r30
    607e:	ff 1f       	adc	r31, r31
    6080:	ee 0f       	add	r30, r30
    6082:	ff 1f       	adc	r31, r31
    6084:	ec 56       	subi	r30, 0x6C	; 108
    6086:	f3 4f       	sbci	r31, 0xF3	; 243
    6088:	80 81       	ld	r24, Z
    608a:	91 81       	ldd	r25, Z+1	; 0x01
    608c:	a2 81       	ldd	r26, Z+2	; 0x02
    608e:	b3 81       	ldd	r27, Z+3	; 0x03
    6090:	bf 70       	andi	r27, 0x0F	; 15
    6092:	89 2b       	or	r24, r25
    6094:	8a 2b       	or	r24, r26
    6096:	8b 2b       	or	r24, r27
    6098:	49 f4       	brne	.+18     	; 0x60ac <searchNextFreeCluster+0xe6>
    609a:	01 c0       	rjmp	.+2      	; 0x609e <searchNextFreeCluster+0xd8>
    609c:	20 e0       	ldi	r18, 0x00	; 0
    609e:	c7 01       	movw	r24, r14
    60a0:	b6 01       	movw	r22, r12
    60a2:	62 0f       	add	r22, r18
    60a4:	71 1d       	adc	r23, r1
    60a6:	81 1d       	adc	r24, r1
    60a8:	91 1d       	adc	r25, r1
    60aa:	20 c0       	rjmp	.+64     	; 0x60ec <searchNextFreeCluster+0x126>
    60ac:	2f 5f       	subi	r18, 0xFF	; 255
    60ae:	22 f7       	brpl	.-56     	; 0x6078 <searchNextFreeCluster+0xb2>
    60b0:	80 e8       	ldi	r24, 0x80	; 128
    60b2:	c8 0e       	add	r12, r24
    60b4:	d1 1c       	adc	r13, r1
    60b6:	e1 1c       	adc	r14, r1
    60b8:	f1 1c       	adc	r15, r1
    60ba:	80 91 70 0a 	lds	r24, 0x0A70	; 0x800a70 <totalClusters>
    60be:	90 91 71 0a 	lds	r25, 0x0A71	; 0x800a71 <totalClusters+0x1>
    60c2:	a0 91 72 0a 	lds	r26, 0x0A72	; 0x800a72 <totalClusters+0x2>
    60c6:	b0 91 73 0a 	lds	r27, 0x0A73	; 0x800a73 <totalClusters+0x3>
    60ca:	22 e0       	ldi	r18, 0x02	; 2
    60cc:	92 0e       	add	r9, r18
    60ce:	a1 1c       	adc	r10, r1
    60d0:	b1 1c       	adc	r11, r1
    60d2:	c8 16       	cp	r12, r24
    60d4:	d9 06       	cpc	r13, r25
    60d6:	ea 06       	cpc	r14, r26
    60d8:	fb 06       	cpc	r15, r27
    60da:	08 f4       	brcc	.+2      	; 0x60de <searchNextFreeCluster+0x118>
    60dc:	a0 cf       	rjmp	.-192    	; 0x601e <searchNextFreeCluster+0x58>
    60de:	60 e0       	ldi	r22, 0x00	; 0
    60e0:	70 e0       	ldi	r23, 0x00	; 0
    60e2:	cb 01       	movw	r24, r22
    60e4:	03 c0       	rjmp	.+6      	; 0x60ec <searchNextFreeCluster+0x126>
    60e6:	60 e0       	ldi	r22, 0x00	; 0
    60e8:	70 e0       	ldi	r23, 0x00	; 0
    60ea:	cb 01       	movw	r24, r22
    60ec:	df 91       	pop	r29
    60ee:	cf 91       	pop	r28
    60f0:	ff 90       	pop	r15
    60f2:	ef 90       	pop	r14
    60f4:	df 90       	pop	r13
    60f6:	cf 90       	pop	r12
    60f8:	bf 90       	pop	r11
    60fa:	af 90       	pop	r10
    60fc:	9f 90       	pop	r9
    60fe:	8f 90       	pop	r8
    6100:	7f 90       	pop	r7
    6102:	6f 90       	pop	r6
    6104:	5f 90       	pop	r5
    6106:	4f 90       	pop	r4
    6108:	08 95       	ret

0000610a <displayMemory>:
    610a:	8f 92       	push	r8
    610c:	9f 92       	push	r9
    610e:	af 92       	push	r10
    6110:	bf 92       	push	r11
    6112:	df 92       	push	r13
    6114:	ef 92       	push	r14
    6116:	ff 92       	push	r15
    6118:	0f 93       	push	r16
    611a:	1f 93       	push	r17
    611c:	cf 93       	push	r28
    611e:	df 93       	push	r29
    6120:	cd b7       	in	r28, 0x3d	; 61
    6122:	de b7       	in	r29, 0x3e	; 62
    6124:	64 97       	sbiw	r28, 0x14	; 20
    6126:	0f b6       	in	r0, 0x3f	; 63
    6128:	f8 94       	cli
    612a:	de bf       	out	0x3e, r29	; 62
    612c:	0f be       	out	0x3f, r0	; 63
    612e:	cd bf       	out	0x3d, r28	; 61
    6130:	d8 2e       	mov	r13, r24
    6132:	cb 01       	movw	r24, r22
    6134:	ba 01       	movw	r22, r20
    6136:	24 e1       	ldi	r18, 0x14	; 20
    6138:	eb eb       	ldi	r30, 0xBB	; 187
    613a:	f7 e0       	ldi	r31, 0x07	; 7
    613c:	de 01       	movw	r26, r28
    613e:	11 96       	adiw	r26, 0x01	; 1
    6140:	01 90       	ld	r0, Z+
    6142:	0d 92       	st	X+, r0
    6144:	2a 95       	dec	r18
    6146:	e1 f7       	brne	.-8      	; 0x6140 <displayMemory+0x36>
    6148:	1c e0       	ldi	r17, 0x0C	; 12
    614a:	0c e2       	ldi	r16, 0x2C	; 44
    614c:	0f 2e       	mov	r0, r31
    614e:	fa e0       	ldi	r31, 0x0A	; 10
    6150:	8f 2e       	mov	r8, r31
    6152:	91 2c       	mov	r9, r1
    6154:	a1 2c       	mov	r10, r1
    6156:	b1 2c       	mov	r11, r1
    6158:	f0 2d       	mov	r31, r0
    615a:	15 30       	cpi	r17, 0x05	; 5
    615c:	11 f0       	breq	.+4      	; 0x6162 <displayMemory+0x58>
    615e:	19 30       	cpi	r17, 0x09	; 9
    6160:	29 f4       	brne	.+10     	; 0x616c <displayMemory+0x62>
    6162:	fe 01       	movw	r30, r28
    6164:	e1 0f       	add	r30, r17
    6166:	f1 1d       	adc	r31, r1
    6168:	00 83       	st	Z, r16
    616a:	11 50       	subi	r17, 0x01	; 1
    616c:	7e 01       	movw	r14, r28
    616e:	e1 0e       	add	r14, r17
    6170:	f1 1c       	adc	r15, r1
    6172:	a5 01       	movw	r20, r10
    6174:	94 01       	movw	r18, r8
    6176:	0e 94 fb 45 	call	0x8bf6	; 0x8bf6 <__udivmodsi4>
    617a:	60 63       	ori	r22, 0x30	; 48
    617c:	f7 01       	movw	r30, r14
    617e:	60 83       	st	Z, r22
    6180:	62 2f       	mov	r22, r18
    6182:	73 2f       	mov	r23, r19
    6184:	84 2f       	mov	r24, r20
    6186:	95 2f       	mov	r25, r21
    6188:	61 15       	cp	r22, r1
    618a:	71 05       	cpc	r23, r1
    618c:	81 05       	cpc	r24, r1
    618e:	91 05       	cpc	r25, r1
    6190:	11 f0       	breq	.+4      	; 0x6196 <displayMemory+0x8c>
    6192:	11 50       	subi	r17, 0x01	; 1
    6194:	11 f7       	brne	.-60     	; 0x615a <displayMemory+0x50>
    6196:	f1 e0       	ldi	r31, 0x01	; 1
    6198:	df 12       	cpse	r13, r31
    619a:	02 c0       	rjmp	.+4      	; 0x61a0 <displayMemory+0x96>
    619c:	8b e4       	ldi	r24, 0x4B	; 75
    619e:	8e 87       	std	Y+14, r24	; 0x0e
    61a0:	ce 01       	movw	r24, r28
    61a2:	01 96       	adiw	r24, 0x01	; 1
    61a4:	0e 94 02 43 	call	0x8604	; 0x8604 <transmitString>
    61a8:	64 96       	adiw	r28, 0x14	; 20
    61aa:	0f b6       	in	r0, 0x3f	; 63
    61ac:	f8 94       	cli
    61ae:	de bf       	out	0x3e, r29	; 62
    61b0:	0f be       	out	0x3f, r0	; 63
    61b2:	cd bf       	out	0x3d, r28	; 61
    61b4:	df 91       	pop	r29
    61b6:	cf 91       	pop	r28
    61b8:	1f 91       	pop	r17
    61ba:	0f 91       	pop	r16
    61bc:	ff 90       	pop	r15
    61be:	ef 90       	pop	r14
    61c0:	df 90       	pop	r13
    61c2:	bf 90       	pop	r11
    61c4:	af 90       	pop	r10
    61c6:	9f 90       	pop	r9
    61c8:	8f 90       	pop	r8
    61ca:	08 95       	ret

000061cc <freeMemoryUpdate>:
//          to ADD or REMOVE clusters occupied by the file
//Arguments: #1.flag ADD or REMOVE #2.file size in Bytes
//return: none
//********************************************************************
void freeMemoryUpdate (unsigned char flag, unsigned long size)
{
    61cc:	cf 92       	push	r12
    61ce:	df 92       	push	r13
    61d0:	ef 92       	push	r14
    61d2:	ff 92       	push	r15
    61d4:	cf 93       	push	r28
    unsigned long freeClusters;
    //convert file size into number of clusters occupied
    if((size % 512) == 0) size = size / 512;
    61d6:	6a 01       	movw	r12, r20
    61d8:	7b 01       	movw	r14, r22
    61da:	91 e0       	ldi	r25, 0x01	; 1
    61dc:	d9 22       	and	r13, r25
    61de:	ee 24       	eor	r14, r14
    61e0:	ff 24       	eor	r15, r15
    61e2:	cd 28       	or	r12, r13
    61e4:	ce 28       	or	r12, r14
    61e6:	cf 28       	or	r12, r15
    61e8:	51 f4       	brne	.+20     	; 0x61fe <freeMemoryUpdate+0x32>
    61ea:	03 2e       	mov	r0, r19
    61ec:	39 e0       	ldi	r19, 0x09	; 9
    61ee:	76 95       	lsr	r23
    61f0:	67 95       	ror	r22
    61f2:	57 95       	ror	r21
    61f4:	47 95       	ror	r20
    61f6:	3a 95       	dec	r19
    61f8:	d1 f7       	brne	.-12     	; 0x61ee <freeMemoryUpdate+0x22>
    61fa:	30 2d       	mov	r19, r0
    61fc:	0d c0       	rjmp	.+26     	; 0x6218 <freeMemoryUpdate+0x4c>
    else size = (size / 512) +1;
    61fe:	03 2e       	mov	r0, r19
    6200:	39 e0       	ldi	r19, 0x09	; 9
    6202:	76 95       	lsr	r23
    6204:	67 95       	ror	r22
    6206:	57 95       	ror	r21
    6208:	47 95       	ror	r20
    620a:	3a 95       	dec	r19
    620c:	d1 f7       	brne	.-12     	; 0x6202 <freeMemoryUpdate+0x36>
    620e:	30 2d       	mov	r19, r0
    6210:	4f 5f       	subi	r20, 0xFF	; 255
    6212:	5f 4f       	sbci	r21, 0xFF	; 255
    6214:	6f 4f       	sbci	r22, 0xFF	; 255
    6216:	7f 4f       	sbci	r23, 0xFF	; 255
    if((size % 8) == 0) size = size / 8;
    6218:	6a 01       	movw	r12, r20
    621a:	7b 01       	movw	r14, r22
    621c:	97 e0       	ldi	r25, 0x07	; 7
    621e:	c9 22       	and	r12, r25
    6220:	dd 24       	eor	r13, r13
    6222:	ee 24       	eor	r14, r14
    6224:	ff 24       	eor	r15, r15
    6226:	cd 28       	or	r12, r13
    6228:	ce 28       	or	r12, r14
    622a:	cf 28       	or	r12, r15
    622c:	59 f4       	brne	.+22     	; 0x6244 <freeMemoryUpdate+0x78>
    622e:	6a 01       	movw	r12, r20
    6230:	7b 01       	movw	r14, r22
    6232:	68 94       	set
    6234:	12 f8       	bld	r1, 2
    6236:	f6 94       	lsr	r15
    6238:	e7 94       	ror	r14
    623a:	d7 94       	ror	r13
    623c:	c7 94       	ror	r12
    623e:	16 94       	lsr	r1
    6240:	d1 f7       	brne	.-12     	; 0x6236 <freeMemoryUpdate+0x6a>
    6242:	0f c0       	rjmp	.+30     	; 0x6262 <freeMemoryUpdate+0x96>
    else size = (size / 8) +1;
    6244:	68 94       	set
    6246:	12 f8       	bld	r1, 2
    6248:	76 95       	lsr	r23
    624a:	67 95       	ror	r22
    624c:	57 95       	ror	r21
    624e:	47 95       	ror	r20
    6250:	16 94       	lsr	r1
    6252:	d1 f7       	brne	.-12     	; 0x6248 <freeMemoryUpdate+0x7c>
    6254:	6a 01       	movw	r12, r20
    6256:	7b 01       	movw	r14, r22
    6258:	9f ef       	ldi	r25, 0xFF	; 255
    625a:	c9 1a       	sub	r12, r25
    625c:	d9 0a       	sbc	r13, r25
    625e:	e9 0a       	sbc	r14, r25
    6260:	f9 0a       	sbc	r15, r25

    if(freeClusterCountUpdated)
    6262:	90 91 04 13 	lds	r25, 0x1304	; 0x801304 <freeClusterCountUpdated>
    6266:	99 23       	and	r25, r25
    6268:	c9 f0       	breq	.+50     	; 0x629c <freeMemoryUpdate+0xd0>
    626a:	c8 2f       	mov	r28, r24
    {
        freeClusters = getSetFreeCluster (TOTAL_FREE, GET, 0);
    626c:	20 e0       	ldi	r18, 0x00	; 0
    626e:	30 e0       	ldi	r19, 0x00	; 0
    6270:	a9 01       	movw	r20, r18
    6272:	60 e0       	ldi	r22, 0x00	; 0
    6274:	81 e0       	ldi	r24, 0x01	; 1
    6276:	85 dd       	rcall	.-1270   	; 0x5d82 <getSetFreeCluster>
        if(flag == ADD)
    6278:	c1 11       	cpse	r28, r1
    627a:	07 c0       	rjmp	.+14     	; 0x628a <freeMemoryUpdate+0xbe>
            freeClusters = freeClusters + size;
    627c:	a7 01       	movw	r20, r14
    627e:	96 01       	movw	r18, r12
    6280:	26 0f       	add	r18, r22
    6282:	37 1f       	adc	r19, r23
    6284:	48 1f       	adc	r20, r24
    6286:	59 1f       	adc	r21, r25
    6288:	06 c0       	rjmp	.+12     	; 0x6296 <freeMemoryUpdate+0xca>
        else  //when flag = REMOVE
            freeClusters = freeClusters - size;
    628a:	9b 01       	movw	r18, r22
    628c:	ac 01       	movw	r20, r24
    628e:	2c 19       	sub	r18, r12
    6290:	3d 09       	sbc	r19, r13
    6292:	4e 09       	sbc	r20, r14
    6294:	5f 09       	sbc	r21, r15
        getSetFreeCluster (TOTAL_FREE, SET, freeClusters);
    6296:	61 e0       	ldi	r22, 0x01	; 1
    6298:	81 e0       	ldi	r24, 0x01	; 1
    629a:	73 dd       	rcall	.-1306   	; 0x5d82 <getSetFreeCluster>
    }
}
    629c:	cf 91       	pop	r28
    629e:	ff 90       	pop	r15
    62a0:	ef 90       	pop	r14
    62a2:	df 90       	pop	r13
    62a4:	cf 90       	pop	r12
    62a6:	08 95       	ret

000062a8 <findFiles>:
//return: first cluster of the file, if flag = GET_FILE
//        print file/dir list of the root directory, if flag = GET_LIST
//        Delete the file mentioned in arg#2, if flag = DELETE
//****************************************************************************
struct dir_Structure* findFiles (unsigned char flag, unsigned char *fileName)
{
    62a8:	2f 92       	push	r2
    62aa:	3f 92       	push	r3
    62ac:	4f 92       	push	r4
    62ae:	5f 92       	push	r5
    62b0:	6f 92       	push	r6
    62b2:	7f 92       	push	r7
    62b4:	8f 92       	push	r8
    62b6:	9f 92       	push	r9
    62b8:	af 92       	push	r10
    62ba:	bf 92       	push	r11
    62bc:	cf 92       	push	r12
    62be:	df 92       	push	r13
    62c0:	ef 92       	push	r14
    62c2:	ff 92       	push	r15
    62c4:	0f 93       	push	r16
    62c6:	1f 93       	push	r17
    62c8:	cf 93       	push	r28
    62ca:	df 93       	push	r29
    62cc:	cd b7       	in	r28, 0x3d	; 61
    62ce:	de b7       	in	r29, 0x3e	; 62
    62d0:	2e 97       	sbiw	r28, 0x0e	; 14
    62d2:	0f b6       	in	r0, 0x3f	; 63
    62d4:	f8 94       	cli
    62d6:	de bf       	out	0x3e, r29	; 62
    62d8:	0f be       	out	0x3f, r0	; 63
    62da:	cd bf       	out	0x3d, r28	; 61
    62dc:	28 2e       	mov	r2, r24
    62de:	5b 01       	movw	r10, r22
    unsigned long cluster, sector, firstSector, firstCluster, nextCluster;
    struct dir_Structure *dir;
    unsigned int i;
    unsigned char j;

    cluster = rootCluster; //root cluster
    62e0:	80 91 7c 0a 	lds	r24, 0x0A7C	; 0x800a7c <rootCluster>
    62e4:	90 91 7d 0a 	lds	r25, 0x0A7D	; 0x800a7d <rootCluster+0x1>
    62e8:	a0 91 7e 0a 	lds	r26, 0x0A7E	; 0x800a7e <rootCluster+0x2>
    62ec:	b0 91 7f 0a 	lds	r27, 0x0A7F	; 0x800a7f <rootCluster+0x3>
    62f0:	89 87       	std	Y+9, r24	; 0x09
    62f2:	9a 87       	std	Y+10, r25	; 0x0a
    62f4:	ab 87       	std	Y+11, r26	; 0x0b
    62f6:	bc 87       	std	Y+12, r27	; 0x0c
//            Uart_Transmit_IT_PC((char*)("N/F\r"));
                        return 0;
                }
                if((dir->name[0] != DELETED) && (dir->attrib != ATTR_LONG_NAME))
                {
                    if((flag == GET_FILE) || (flag == DELETE))
    62f8:	44 24       	eor	r4, r4
    62fa:	4a 94       	dec	r4
    62fc:	42 0c       	add	r4, r2
                            Uart_Transmit_IT_PC ((char*)("FILE" ));
                            Uart_Transmit_IT_PC ((char*)("   "));
                            displayMemory (LOW, dir->fileSize);
                        }
                        else
                            Uart_Transmit_IT_PC ((char*)((dir->attrib == 0x10)? ("DIR") : ("ROOT")));
    62fe:	0f 2e       	mov	r0, r31
    6300:	f1 ef       	ldi	r31, 0xF1	; 241
    6302:	8f 2e       	mov	r8, r31
    6304:	f7 e0       	ldi	r31, 0x07	; 7
    6306:	9f 2e       	mov	r9, r31
    6308:	f0 2d       	mov	r31, r0
    630a:	d2 2c       	mov	r13, r2
    630c:	c4 2c       	mov	r12, r4

    cluster = rootCluster; //root cluster

    while(1)
    {
        firstSector = getFirstSector (cluster);
    630e:	69 85       	ldd	r22, Y+9	; 0x09
    6310:	7a 85       	ldd	r23, Y+10	; 0x0a
    6312:	8b 85       	ldd	r24, Y+11	; 0x0b
    6314:	9c 85       	ldd	r25, Y+12	; 0x0c
    6316:	9b dc       	rcall	.-1738   	; 0x5c4e <getFirstSector>
    6318:	6d 83       	std	Y+5, r22	; 0x05
    631a:	7e 83       	std	Y+6, r23	; 0x06
    631c:	8f 83       	std	Y+7, r24	; 0x07
    631e:	98 87       	std	Y+8, r25	; 0x08

        for(sector = 0; sector < sectorPerCluster; sector++)
    6320:	80 91 96 0e 	lds	r24, 0x0E96	; 0x800e96 <sectorPerCluster>
    6324:	90 91 97 0e 	lds	r25, 0x0E97	; 0x800e97 <sectorPerCluster+0x1>
    6328:	89 2b       	or	r24, r25
    632a:	09 f4       	brne	.+2      	; 0x632e <findFiles+0x86>
    632c:	74 c1       	rjmp	.+744    	; 0x6616 <findFiles+0x36e>
    632e:	21 2c       	mov	r2, r1
    6330:	31 2c       	mov	r3, r1
    6332:	21 01       	movw	r4, r2
        {
            SD_readSingleBlock (firstSector + sector);
    6334:	8d 81       	ldd	r24, Y+5	; 0x05
    6336:	9e 81       	ldd	r25, Y+6	; 0x06
    6338:	af 81       	ldd	r26, Y+7	; 0x07
    633a:	b8 85       	ldd	r27, Y+8	; 0x08
    633c:	82 0d       	add	r24, r2
    633e:	93 1d       	adc	r25, r3
    6340:	a4 1d       	adc	r26, r4
    6342:	b5 1d       	adc	r27, r5
    6344:	89 83       	std	Y+1, r24	; 0x01
    6346:	9a 83       	std	Y+2, r25	; 0x02
    6348:	ab 83       	std	Y+3, r26	; 0x03
    634a:	bc 83       	std	Y+4, r27	; 0x04
    634c:	bc 01       	movw	r22, r24
    634e:	cd 01       	movw	r24, r26
    6350:	f2 d6       	rcall	.+3556   	; 0x7136 <SD_readSingleBlock>


            for(i=0; i<bytesPerSector; i+=32)
    6352:	80 91 6d 0a 	lds	r24, 0x0A6D	; 0x800a6d <bytesPerSector>
    6356:	90 91 6e 0a 	lds	r25, 0x0A6E	; 0x800a6e <bytesPerSector+0x1>
    635a:	89 2b       	or	r24, r25
    635c:	09 f4       	brne	.+2      	; 0x6360 <findFiles+0xb8>
    635e:	4a c1       	rjmp	.+660    	; 0x65f4 <findFiles+0x34c>
    6360:	0f 2e       	mov	r0, r31
    6362:	f4 e9       	ldi	r31, 0x94	; 148
    6364:	ef 2e       	mov	r14, r31
    6366:	fc e0       	ldi	r31, 0x0C	; 12
    6368:	ff 2e       	mov	r15, r31
    636a:	f0 2d       	mov	r31, r0
    636c:	61 2c       	mov	r6, r1
    636e:	71 2c       	mov	r7, r1
            {
                dir = (struct dir_Structure *) &buffer[i];
    6370:	fe 86       	std	Y+14, r15	; 0x0e
    6372:	ed 86       	std	Y+13, r14	; 0x0d

                if(dir->name[0] == EMPTY) //indicates end of the file list of the directory
    6374:	d7 01       	movw	r26, r14
    6376:	8c 91       	ld	r24, X
    6378:	81 11       	cpse	r24, r1
    637a:	05 c0       	rjmp	.+10     	; 0x6386 <findFiles+0xde>
                {
                    if((flag == GET_FILE) || (flag == DELETE))
    637c:	b1 e0       	ldi	r27, 0x01	; 1
    637e:	bc 15       	cp	r27, r12
    6380:	08 f4       	brcc	.+2      	; 0x6384 <findFiles+0xdc>
    6382:	6f c1       	rjmp	.+734    	; 0x6662 <findFiles+0x3ba>
    6384:	68 c1       	rjmp	.+720    	; 0x6656 <findFiles+0x3ae>
//            Uart_Transmit_IT_PC((char*)("File does not exist!"));
//            Uart_Transmit_IT_PC((char*)("N/F\r"));
                        return 0;
                }
                if((dir->name[0] != DELETED) && (dir->attrib != ATTR_LONG_NAME))
    6386:	85 3e       	cpi	r24, 0xE5	; 229
    6388:	09 f4       	brne	.+2      	; 0x638c <findFiles+0xe4>
    638a:	26 c1       	rjmp	.+588    	; 0x65d8 <findFiles+0x330>
    638c:	ed 85       	ldd	r30, Y+13	; 0x0d
    638e:	fe 85       	ldd	r31, Y+14	; 0x0e
    6390:	93 85       	ldd	r25, Z+11	; 0x0b
    6392:	9f 30       	cpi	r25, 0x0F	; 15
    6394:	09 f4       	brne	.+2      	; 0x6398 <findFiles+0xf0>
    6396:	20 c1       	rjmp	.+576    	; 0x65d8 <findFiles+0x330>
                {
                    if((flag == GET_FILE) || (flag == DELETE))
    6398:	f1 e0       	ldi	r31, 0x01	; 1
    639a:	fc 15       	cp	r31, r12
    639c:	08 f4       	brcc	.+2      	; 0x63a0 <findFiles+0xf8>
    639e:	d5 c0       	rjmp	.+426    	; 0x654a <findFiles+0x2a2>
                    {
                        for(j=0; j<11; j++)
                            if(dir->name[j] != fileName[j]) break;
    63a0:	d5 01       	movw	r26, r10
    63a2:	9c 91       	ld	r25, X
    63a4:	89 13       	cpse	r24, r25
    63a6:	18 c1       	rjmp	.+560    	; 0x65d8 <findFiles+0x330>
    63a8:	d7 01       	movw	r26, r14
    63aa:	11 96       	adiw	r26, 0x01	; 1
    63ac:	f5 01       	movw	r30, r10
    63ae:	31 96       	adiw	r30, 0x01	; 1
                }
                if((dir->name[0] != DELETED) && (dir->attrib != ATTR_LONG_NAME))
                {
                    if((flag == GET_FILE) || (flag == DELETE))
                    {
                        for(j=0; j<11; j++)
    63b0:	81 e0       	ldi	r24, 0x01	; 1
                            if(dir->name[j] != fileName[j]) break;
    63b2:	2d 91       	ld	r18, X+
    63b4:	91 91       	ld	r25, Z+
    63b6:	29 13       	cpse	r18, r25
    63b8:	09 c0       	rjmp	.+18     	; 0x63cc <findFiles+0x124>
                }
                if((dir->name[0] != DELETED) && (dir->attrib != ATTR_LONG_NAME))
                {
                    if((flag == GET_FILE) || (flag == DELETE))
                    {
                        for(j=0; j<11; j++)
    63ba:	8f 5f       	subi	r24, 0xFF	; 255
    63bc:	8b 30       	cpi	r24, 0x0B	; 11
    63be:	c9 f7       	brne	.-14     	; 0x63b2 <findFiles+0x10a>
    63c0:	8d 85       	ldd	r24, Y+13	; 0x0d
    63c2:	9e 85       	ldd	r25, Y+14	; 0x0e
    63c4:	9e 83       	std	Y+6, r25	; 0x06
    63c6:	8d 83       	std	Y+5, r24	; 0x05
    63c8:	2d 2c       	mov	r2, r13
    63ca:	08 c0       	rjmp	.+16     	; 0x63dc <findFiles+0x134>
    63cc:	ad 85       	ldd	r26, Y+13	; 0x0d
    63ce:	be 85       	ldd	r27, Y+14	; 0x0e
                            if(dir->name[j] != fileName[j]) break;
                        if(j == 11)
    63d0:	8b 30       	cpi	r24, 0x0B	; 11
    63d2:	09 f0       	breq	.+2      	; 0x63d6 <findFiles+0x12e>
    63d4:	01 c1       	rjmp	.+514    	; 0x65d8 <findFiles+0x330>
    63d6:	be 83       	std	Y+6, r27	; 0x06
    63d8:	ad 83       	std	Y+5, r26	; 0x05
    63da:	2d 2c       	mov	r2, r13
                        {
                            if(flag == GET_FILE)
    63dc:	b1 e0       	ldi	r27, 0x01	; 1
    63de:	2b 12       	cpse	r2, r27
    63e0:	43 c0       	rjmp	.+134    	; 0x6468 <findFiles+0x1c0>
                            {
                                appendFileSector = firstSector + sector;
    63e2:	89 81       	ldd	r24, Y+1	; 0x01
    63e4:	9a 81       	ldd	r25, Y+2	; 0x02
    63e6:	ab 81       	ldd	r26, Y+3	; 0x03
    63e8:	bc 81       	ldd	r27, Y+4	; 0x04
    63ea:	80 93 07 13 	sts	0x1307, r24	; 0x801307 <appendFileSector>
    63ee:	90 93 08 13 	sts	0x1308, r25	; 0x801308 <appendFileSector+0x1>
    63f2:	a0 93 09 13 	sts	0x1309, r26	; 0x801309 <appendFileSector+0x2>
    63f6:	b0 93 0a 13 	sts	0x130A, r27	; 0x80130a <appendFileSector+0x3>
                                appendFileLocation = i;
    63fa:	c3 01       	movw	r24, r6
    63fc:	a0 e0       	ldi	r26, 0x00	; 0
    63fe:	b0 e0       	ldi	r27, 0x00	; 0
    6400:	80 93 4c 0a 	sts	0x0A4C, r24	; 0x800a4c <appendFileLocation>
    6404:	90 93 4d 0a 	sts	0x0A4D, r25	; 0x800a4d <appendFileLocation+0x1>
    6408:	a0 93 4e 0a 	sts	0x0A4E, r26	; 0x800a4e <appendFileLocation+0x2>
    640c:	b0 93 4f 0a 	sts	0x0A4F, r27	; 0x800a4f <appendFileLocation+0x3>
                                appendStartCluster = (((unsigned long) dir->firstClusterHI) << 16) | dir->firstClusterLO;
    6410:	ad 81       	ldd	r26, Y+5	; 0x05
    6412:	be 81       	ldd	r27, Y+6	; 0x06
    6414:	54 96       	adiw	r26, 0x14	; 20
    6416:	8d 91       	ld	r24, X+
    6418:	9c 91       	ld	r25, X
    641a:	55 97       	sbiw	r26, 0x15	; 21
    641c:	a0 e0       	ldi	r26, 0x00	; 0
    641e:	b0 e0       	ldi	r27, 0x00	; 0
    6420:	dc 01       	movw	r26, r24
    6422:	99 27       	eor	r25, r25
    6424:	88 27       	eor	r24, r24
    6426:	ed 81       	ldd	r30, Y+5	; 0x05
    6428:	fe 81       	ldd	r31, Y+6	; 0x06
    642a:	42 8d       	ldd	r20, Z+26	; 0x1a
    642c:	53 8d       	ldd	r21, Z+27	; 0x1b
    642e:	60 e0       	ldi	r22, 0x00	; 0
    6430:	70 e0       	ldi	r23, 0x00	; 0
    6432:	84 2b       	or	r24, r20
    6434:	95 2b       	or	r25, r21
    6436:	a6 2b       	or	r26, r22
    6438:	b7 2b       	or	r27, r23
    643a:	80 93 c9 11 	sts	0x11C9, r24	; 0x8011c9 <appendStartCluster>
    643e:	90 93 ca 11 	sts	0x11CA, r25	; 0x8011ca <appendStartCluster+0x1>
    6442:	a0 93 cb 11 	sts	0x11CB, r26	; 0x8011cb <appendStartCluster+0x2>
    6446:	b0 93 cc 11 	sts	0x11CC, r27	; 0x8011cc <appendStartCluster+0x3>
                                fileSize = dir->fileSize;
    644a:	84 8d       	ldd	r24, Z+28	; 0x1c
    644c:	95 8d       	ldd	r25, Z+29	; 0x1d
    644e:	a6 8d       	ldd	r26, Z+30	; 0x1e
    6450:	b7 8d       	ldd	r27, Z+31	; 0x1f
    6452:	80 93 69 0a 	sts	0x0A69, r24	; 0x800a69 <fileSize>
    6456:	90 93 6a 0a 	sts	0x0A6A, r25	; 0x800a6a <fileSize+0x1>
    645a:	a0 93 6b 0a 	sts	0x0A6B, r26	; 0x800a6b <fileSize+0x2>
    645e:	b0 93 6c 0a 	sts	0x0A6C, r27	; 0x800a6c <fileSize+0x3>
            SD_readSingleBlock (firstSector + sector);


            for(i=0; i<bytesPerSector; i+=32)
            {
                dir = (struct dir_Structure *) &buffer[i];
    6462:	8d 81       	ldd	r24, Y+5	; 0x05
    6464:	9e 81       	ldd	r25, Y+6	; 0x06
                            {
                                appendFileSector = firstSector + sector;
                                appendFileLocation = i;
                                appendStartCluster = (((unsigned long) dir->firstClusterHI) << 16) | dir->firstClusterLO;
                                fileSize = dir->fileSize;
                                return (dir);
    6466:	05 c1       	rjmp	.+522    	; 0x6672 <findFiles+0x3ca>
                            }
                            else    //when flag = DELETE
                            {
                                TX_NEWLINE;
    6468:	8d e0       	ldi	r24, 0x0D	; 13
    646a:	0e 94 fa 42 	call	0x85f4	; 0x85f4 <transmitByte>
    646e:	8a e0       	ldi	r24, 0x0A	; 10
    6470:	0e 94 fa 42 	call	0x85f4	; 0x85f4 <transmitByte>
                                Uart_Transmit_IT_PC((char*)("Deleting.."));
    6474:	8a ef       	ldi	r24, 0xFA	; 250
    6476:	97 e0       	ldi	r25, 0x07	; 7
    6478:	0e 94 51 41 	call	0x82a2	; 0x82a2 <Uart_Transmit_IT_PC>
                                TX_NEWLINE;
    647c:	8d e0       	ldi	r24, 0x0D	; 13
    647e:	0e 94 fa 42 	call	0x85f4	; 0x85f4 <transmitByte>
    6482:	8a e0       	ldi	r24, 0x0A	; 10
    6484:	0e 94 fa 42 	call	0x85f4	; 0x85f4 <transmitByte>
                                TX_NEWLINE;
    6488:	8d e0       	ldi	r24, 0x0D	; 13
    648a:	0e 94 fa 42 	call	0x85f4	; 0x85f4 <transmitByte>
    648e:	8a e0       	ldi	r24, 0x0A	; 10
    6490:	0e 94 fa 42 	call	0x85f4	; 0x85f4 <transmitByte>
                                firstCluster = (((unsigned long) dir->firstClusterHI) << 16) | dir->firstClusterLO;
    6494:	ad 81       	ldd	r26, Y+5	; 0x05
    6496:	be 81       	ldd	r27, Y+6	; 0x06
    6498:	54 96       	adiw	r26, 0x14	; 20
    649a:	cd 90       	ld	r12, X+
    649c:	dc 90       	ld	r13, X
    649e:	55 97       	sbiw	r26, 0x15	; 21
    64a0:	e1 2c       	mov	r14, r1
    64a2:	f1 2c       	mov	r15, r1
    64a4:	d6 01       	movw	r26, r12
    64a6:	99 27       	eor	r25, r25
    64a8:	88 27       	eor	r24, r24
    64aa:	ed 81       	ldd	r30, Y+5	; 0x05
    64ac:	fe 81       	ldd	r31, Y+6	; 0x06
    64ae:	c2 8c       	ldd	r12, Z+26	; 0x1a
    64b0:	d3 8c       	ldd	r13, Z+27	; 0x1b
    64b2:	e1 2c       	mov	r14, r1
    64b4:	f1 2c       	mov	r15, r1
    64b6:	c8 2a       	or	r12, r24
    64b8:	d9 2a       	or	r13, r25
    64ba:	ea 2a       	or	r14, r26
    64bc:	fb 2a       	or	r15, r27

                                //mark file as 'deleted' in FAT table
                                dir->name[0] = DELETED;
    64be:	85 ee       	ldi	r24, 0xE5	; 229
    64c0:	80 83       	st	Z, r24
                                SD_writeSingleBlock (firstSector+sector);
    64c2:	69 81       	ldd	r22, Y+1	; 0x01
    64c4:	7a 81       	ldd	r23, Y+2	; 0x02
    64c6:	8b 81       	ldd	r24, Y+3	; 0x03
    64c8:	9c 81       	ldd	r25, Y+4	; 0x04
    64ca:	5d d6       	rcall	.+3258   	; 0x7186 <SD_writeSingleBlock>

                                freeMemoryUpdate (ADD, dir->fileSize);
    64cc:	ad 81       	ldd	r26, Y+5	; 0x05
    64ce:	be 81       	ldd	r27, Y+6	; 0x06
    64d0:	5c 96       	adiw	r26, 0x1c	; 28
    64d2:	4d 91       	ld	r20, X+
    64d4:	5d 91       	ld	r21, X+
    64d6:	6d 91       	ld	r22, X+
    64d8:	7c 91       	ld	r23, X
    64da:	5f 97       	sbiw	r26, 0x1f	; 31
    64dc:	80 e0       	ldi	r24, 0x00	; 0
    64de:	76 de       	rcall	.-788    	; 0x61cc <freeMemoryUpdate>

                                //update next free cluster entry in FSinfo sector
                                cluster = getSetFreeCluster (NEXT_FREE, GET, 0);
    64e0:	20 e0       	ldi	r18, 0x00	; 0
    64e2:	30 e0       	ldi	r19, 0x00	; 0
    64e4:	a9 01       	movw	r20, r18
    64e6:	60 e0       	ldi	r22, 0x00	; 0
    64e8:	82 e0       	ldi	r24, 0x02	; 2
    64ea:	4b dc       	rcall	.-1898   	; 0x5d82 <getSetFreeCluster>
                                if(firstCluster < cluster)
    64ec:	c6 16       	cp	r12, r22
    64ee:	d7 06       	cpc	r13, r23
    64f0:	e8 06       	cpc	r14, r24
    64f2:	f9 06       	cpc	r15, r25
                                    getSetFreeCluster (NEXT_FREE, SET, firstCluster);
    64f4:	28 f4       	brcc	.+10     	; 0x6500 <findFiles+0x258>
    64f6:	a7 01       	movw	r20, r14
    64f8:	96 01       	movw	r18, r12
    64fa:	61 e0       	ldi	r22, 0x01	; 1
    64fc:	82 e0       	ldi	r24, 0x02	; 2
    64fe:	41 dc       	rcall	.-1918   	; 0x5d82 <getSetFreeCluster>

                                //mark all the clusters allocated to the file as 'free'
                                while(1)
                                {
                                    nextCluster = getSetNextCluster (firstCluster, GET, 0);
    6500:	00 e0       	ldi	r16, 0x00	; 0
    6502:	10 e0       	ldi	r17, 0x00	; 0
    6504:	98 01       	movw	r18, r16
    6506:	40 e0       	ldi	r20, 0x00	; 0
    6508:	c7 01       	movw	r24, r14
    650a:	b6 01       	movw	r22, r12
    650c:	c1 db       	rcall	.-2174   	; 0x5c90 <getSetNextCluster>
    650e:	a6 2e       	mov	r10, r22
    6510:	b7 2e       	mov	r11, r23
    6512:	8d 83       	std	Y+5, r24	; 0x05
    6514:	99 83       	std	Y+1, r25	; 0x01
                                    getSetNextCluster (firstCluster, SET, 0);
    6516:	00 e0       	ldi	r16, 0x00	; 0
    6518:	10 e0       	ldi	r17, 0x00	; 0
    651a:	98 01       	movw	r18, r16
    651c:	41 e0       	ldi	r20, 0x01	; 1
    651e:	c7 01       	movw	r24, r14
    6520:	b6 01       	movw	r22, r12
    6522:	b6 db       	rcall	.-2196   	; 0x5c90 <getSetNextCluster>
    6524:	ca 2c       	mov	r12, r10
                                    if(nextCluster > 0x0ffffff6)
                                    {
                                        Uart_Transmit_IT_PC((char*)("File deleted!"));
                                        return 0;
                                    }
                                    firstCluster = nextCluster;
    6526:	db 2c       	mov	r13, r11
    6528:	ed 80       	ldd	r14, Y+5	; 0x05
    652a:	f9 80       	ldd	r15, Y+1	; 0x01
    652c:	b7 ef       	ldi	r27, 0xF7	; 247
                                //mark all the clusters allocated to the file as 'free'
                                while(1)
                                {
                                    nextCluster = getSetNextCluster (firstCluster, GET, 0);
                                    getSetNextCluster (firstCluster, SET, 0);
                                    if(nextCluster > 0x0ffffff6)
    652e:	cb 16       	cp	r12, r27
    6530:	bf ef       	ldi	r27, 0xFF	; 255
    6532:	db 06       	cpc	r13, r27
    6534:	eb 06       	cpc	r14, r27
    6536:	bf e0       	ldi	r27, 0x0F	; 15
    6538:	fb 06       	cpc	r15, r27
    653a:	10 f3       	brcs	.-60     	; 0x6500 <findFiles+0x258>
    653c:	85 e0       	ldi	r24, 0x05	; 5
                                    {
                                        Uart_Transmit_IT_PC((char*)("File deleted!"));
    653e:	98 e0       	ldi	r25, 0x08	; 8
    6540:	0e 94 51 41 	call	0x82a2	; 0x82a2 <Uart_Transmit_IT_PC>
    6544:	80 e0       	ldi	r24, 0x00	; 0
                                        return 0;
    6546:	90 e0       	ldi	r25, 0x00	; 0
    6548:	94 c0       	rjmp	.+296    	; 0x6672 <findFiles+0x3ca>
    654a:	8d e0       	ldi	r24, 0x0D	; 13
                            }
                        }
                    }
                    else  //when flag = GET_LIST
                    {
                        TX_NEWLINE;
    654c:	0e 94 fa 42 	call	0x85f4	; 0x85f4 <transmitByte>
    6550:	8a e0       	ldi	r24, 0x0A	; 10
    6552:	0e 94 fa 42 	call	0x85f4	; 0x85f4 <transmitByte>
    6556:	01 e0       	ldi	r16, 0x01	; 1
    6558:	10 e0       	ldi	r17, 0x00	; 0
    655a:	02 c0       	rjmp	.+4      	; 0x6560 <findFiles+0x2b8>
    655c:	1f 5f       	subi	r17, 0xFF	; 255
    655e:	0f 5f       	subi	r16, 0xFF	; 255
    6560:	18 30       	cpi	r17, 0x08	; 8
                        for(j=0; j<11; j++)
                        {
                            if(j == 8) transmitByte(' ');
    6562:	59 f4       	brne	.+22     	; 0x657a <findFiles+0x2d2>
    6564:	80 e2       	ldi	r24, 0x20	; 32
    6566:	0e 94 fa 42 	call	0x85f4	; 0x85f4 <transmitByte>
    656a:	ed 85       	ldd	r30, Y+13	; 0x0d
                            transmitByte (dir->name[j]);
    656c:	fe 85       	ldd	r31, Y+14	; 0x0e
    656e:	e1 0f       	add	r30, r17
    6570:	f1 1d       	adc	r31, r1
    6572:	80 81       	ld	r24, Z
    6574:	0e 94 fa 42 	call	0x85f4	; 0x85f4 <transmitByte>
    6578:	f1 cf       	rjmp	.-30     	; 0x655c <findFiles+0x2b4>
    657a:	ed 85       	ldd	r30, Y+13	; 0x0d
    657c:	fe 85       	ldd	r31, Y+14	; 0x0e
    657e:	e1 0f       	add	r30, r17
    6580:	f1 1d       	adc	r31, r1
    6582:	80 81       	ld	r24, Z
    6584:	0e 94 fa 42 	call	0x85f4	; 0x85f4 <transmitByte>
    6588:	0b 30       	cpi	r16, 0x0B	; 11
                        }
                    }
                    else  //when flag = GET_LIST
                    {
                        TX_NEWLINE;
                        for(j=0; j<11; j++)
    658a:	40 f3       	brcs	.-48     	; 0x655c <findFiles+0x2b4>
    658c:	83 e1       	ldi	r24, 0x13	; 19
                        {
                            if(j == 8) transmitByte(' ');
                            transmitByte (dir->name[j]);
                        }
                        Uart_Transmit_IT_PC ((char*)("   "));
    658e:	98 e0       	ldi	r25, 0x08	; 8
    6590:	0e 94 51 41 	call	0x82a2	; 0x82a2 <Uart_Transmit_IT_PC>
    6594:	ad 85       	ldd	r26, Y+13	; 0x0d
                        if((dir->attrib != 0x10) && (dir->attrib != 0x08))
    6596:	be 85       	ldd	r27, Y+14	; 0x0e
    6598:	1b 96       	adiw	r26, 0x0b	; 11
    659a:	8c 91       	ld	r24, X
    659c:	80 31       	cpi	r24, 0x10	; 16
    659e:	99 f0       	breq	.+38     	; 0x65c6 <findFiles+0x31e>
    65a0:	88 30       	cpi	r24, 0x08	; 8
    65a2:	b1 f0       	breq	.+44     	; 0x65d0 <findFiles+0x328>
    65a4:	87 e1       	ldi	r24, 0x17	; 23
                        {
                            Uart_Transmit_IT_PC ((char*)("FILE" ));
    65a6:	98 e0       	ldi	r25, 0x08	; 8
    65a8:	0e 94 51 41 	call	0x82a2	; 0x82a2 <Uart_Transmit_IT_PC>
    65ac:	83 e1       	ldi	r24, 0x13	; 19
                            Uart_Transmit_IT_PC ((char*)("   "));
    65ae:	98 e0       	ldi	r25, 0x08	; 8
    65b0:	0e 94 51 41 	call	0x82a2	; 0x82a2 <Uart_Transmit_IT_PC>
                            displayMemory (LOW, dir->fileSize);
    65b4:	ed 85       	ldd	r30, Y+13	; 0x0d
    65b6:	fe 85       	ldd	r31, Y+14	; 0x0e
    65b8:	44 8d       	ldd	r20, Z+28	; 0x1c
    65ba:	55 8d       	ldd	r21, Z+29	; 0x1d
    65bc:	66 8d       	ldd	r22, Z+30	; 0x1e
    65be:	77 8d       	ldd	r23, Z+31	; 0x1f
    65c0:	80 e0       	ldi	r24, 0x00	; 0
    65c2:	a3 dd       	rcall	.-1210   	; 0x610a <displayMemory>
    65c4:	09 c0       	rjmp	.+18     	; 0x65d8 <findFiles+0x330>
    65c6:	26 ef       	ldi	r18, 0xF6	; 246
                        }
                        else
                            Uart_Transmit_IT_PC ((char*)((dir->attrib == 0x10)? ("DIR") : ("ROOT")));
    65c8:	37 e0       	ldi	r19, 0x07	; 7
    65ca:	82 2f       	mov	r24, r18
    65cc:	93 2f       	mov	r25, r19
    65ce:	02 c0       	rjmp	.+4      	; 0x65d4 <findFiles+0x32c>
    65d0:	88 2d       	mov	r24, r8
    65d2:	99 2d       	mov	r25, r9
    65d4:	0e 94 51 41 	call	0x82a2	; 0x82a2 <Uart_Transmit_IT_PC>
    65d8:	30 e2       	ldi	r19, 0x20	; 32
        for(sector = 0; sector < sectorPerCluster; sector++)
        {
            SD_readSingleBlock (firstSector + sector);


            for(i=0; i<bytesPerSector; i+=32)
    65da:	63 0e       	add	r6, r19
    65dc:	71 1c       	adc	r7, r1
    65de:	80 91 6d 0a 	lds	r24, 0x0A6D	; 0x800a6d <bytesPerSector>
    65e2:	90 91 6e 0a 	lds	r25, 0x0A6E	; 0x800a6e <bytesPerSector+0x1>
    65e6:	a0 e2       	ldi	r26, 0x20	; 32
    65e8:	ea 0e       	add	r14, r26
    65ea:	f1 1c       	adc	r15, r1
    65ec:	68 16       	cp	r6, r24
    65ee:	79 06       	cpc	r7, r25
    65f0:	08 f4       	brcc	.+2      	; 0x65f4 <findFiles+0x34c>
    65f2:	be ce       	rjmp	.-644    	; 0x6370 <findFiles+0xc8>
    65f4:	bf ef       	ldi	r27, 0xFF	; 255

    while(1)
    {
        firstSector = getFirstSector (cluster);

        for(sector = 0; sector < sectorPerCluster; sector++)
    65f6:	2b 1a       	sub	r2, r27
    65f8:	3b 0a       	sbc	r3, r27
    65fa:	4b 0a       	sbc	r4, r27
    65fc:	5b 0a       	sbc	r5, r27
    65fe:	80 91 96 0e 	lds	r24, 0x0E96	; 0x800e96 <sectorPerCluster>
    6602:	90 91 97 0e 	lds	r25, 0x0E97	; 0x800e97 <sectorPerCluster+0x1>
    6606:	a0 e0       	ldi	r26, 0x00	; 0
    6608:	b0 e0       	ldi	r27, 0x00	; 0
    660a:	28 16       	cp	r2, r24
    660c:	39 06       	cpc	r3, r25
    660e:	4a 06       	cpc	r4, r26
    6610:	5b 06       	cpc	r5, r27
    6612:	08 f4       	brcc	.+2      	; 0x6616 <findFiles+0x36e>
    6614:	8f ce       	rjmp	.-738    	; 0x6334 <findFiles+0x8c>
                    }
                }
            }
        }

        cluster = (getSetNextCluster (cluster, GET, 0));
    6616:	00 e0       	ldi	r16, 0x00	; 0
    6618:	10 e0       	ldi	r17, 0x00	; 0
    661a:	98 01       	movw	r18, r16
    661c:	40 e0       	ldi	r20, 0x00	; 0
    661e:	69 85       	ldd	r22, Y+9	; 0x09
    6620:	7a 85       	ldd	r23, Y+10	; 0x0a
    6622:	8b 85       	ldd	r24, Y+11	; 0x0b
    6624:	9c 85       	ldd	r25, Y+12	; 0x0c
    6626:	34 db       	rcall	.-2456   	; 0x5c90 <getSetNextCluster>
    6628:	69 87       	std	Y+9, r22	; 0x09
    662a:	7a 87       	std	Y+10, r23	; 0x0a
    662c:	8b 87       	std	Y+11, r24	; 0x0b
    662e:	9c 87       	std	Y+12, r25	; 0x0c
    6630:	67 3f       	cpi	r22, 0xF7	; 247

        if(cluster > 0x0ffffff6)
    6632:	ef ef       	ldi	r30, 0xFF	; 255
    6634:	7e 07       	cpc	r23, r30
    6636:	8e 07       	cpc	r24, r30
    6638:	ef e0       	ldi	r30, 0x0F	; 15
    663a:	9e 07       	cpc	r25, r30
    663c:	78 f4       	brcc	.+30     	; 0x665c <findFiles+0x3b4>
    663e:	67 2b       	or	r22, r23
            return 0;
        if(cluster == 0)
    6640:	68 2b       	or	r22, r24
    6642:	69 2b       	or	r22, r25
    6644:	09 f0       	breq	.+2      	; 0x6648 <findFiles+0x3a0>
    6646:	63 ce       	rjmp	.-826    	; 0x630e <findFiles+0x66>
    6648:	8c e1       	ldi	r24, 0x1C	; 28
        {
            Uart_Transmit_IT_PC((char*)("Error in getting cluster"));
    664a:	98 e0       	ldi	r25, 0x08	; 8
    664c:	0e 94 51 41 	call	0x82a2	; 0x82a2 <Uart_Transmit_IT_PC>
    6650:	80 e0       	ldi	r24, 0x00	; 0
            return 0;
    6652:	90 e0       	ldi	r25, 0x00	; 0
    6654:	0e c0       	rjmp	.+28     	; 0x6672 <findFiles+0x3ca>
    6656:	80 e0       	ldi	r24, 0x00	; 0
                if(dir->name[0] == EMPTY) //indicates end of the file list of the directory
                {
                    if((flag == GET_FILE) || (flag == DELETE))
//            Uart_Transmit_IT_PC((char*)("File does not exist!"));
//            Uart_Transmit_IT_PC((char*)("N/F\r"));
                        return 0;
    6658:	90 e0       	ldi	r25, 0x00	; 0
    665a:	0b c0       	rjmp	.+22     	; 0x6672 <findFiles+0x3ca>
    665c:	80 e0       	ldi	r24, 0x00	; 0
        }

        cluster = (getSetNextCluster (cluster, GET, 0));

        if(cluster > 0x0ffffff6)
            return 0;
    665e:	90 e0       	ldi	r25, 0x00	; 0
    6660:	08 c0       	rjmp	.+16     	; 0x6672 <findFiles+0x3ca>
    6662:	ad 85       	ldd	r26, Y+13	; 0x0d
                    if((flag == GET_FILE) || (flag == DELETE))
//            Uart_Transmit_IT_PC((char*)("File does not exist!"));
//            Uart_Transmit_IT_PC((char*)("N/F\r"));
                        return 0;
                }
                if((dir->name[0] != DELETED) && (dir->attrib != ATTR_LONG_NAME))
    6664:	be 85       	ldd	r27, Y+14	; 0x0e
    6666:	1b 96       	adiw	r26, 0x0b	; 11
    6668:	8c 91       	ld	r24, X
    666a:	8f 30       	cpi	r24, 0x0F	; 15
    666c:	09 f0       	breq	.+2      	; 0x6670 <findFiles+0x3c8>
    666e:	6d cf       	rjmp	.-294    	; 0x654a <findFiles+0x2a2>
    6670:	b3 cf       	rjmp	.-154    	; 0x65d8 <findFiles+0x330>
    6672:	2e 96       	adiw	r28, 0x0e	; 14
            Uart_Transmit_IT_PC((char*)("Error in getting cluster"));
            return 0;
        }
    }
    return 0;
}
    6674:	0f b6       	in	r0, 0x3f	; 63
    6676:	f8 94       	cli
    6678:	de bf       	out	0x3e, r29	; 62
    667a:	0f be       	out	0x3f, r0	; 63
    667c:	cd bf       	out	0x3d, r28	; 61
    667e:	df 91       	pop	r29
    6680:	cf 91       	pop	r28
    6682:	1f 91       	pop	r17
    6684:	0f 91       	pop	r16
    6686:	ff 90       	pop	r15
    6688:	ef 90       	pop	r14
    668a:	df 90       	pop	r13
    668c:	cf 90       	pop	r12
    668e:	bf 90       	pop	r11
    6690:	af 90       	pop	r10
    6692:	9f 90       	pop	r9
    6694:	8f 90       	pop	r8
    6696:	7f 90       	pop	r7
    6698:	6f 90       	pop	r6
    669a:	5f 90       	pop	r5
    669c:	4f 90       	pop	r4
    669e:	3f 90       	pop	r3
    66a0:	2f 90       	pop	r2
    66a2:	08 95       	ret

000066a4 <readFile>:
    66a4:	4f 92       	push	r4
//return: 0, if normal operation or flag is READ
//        1, if file is already existing and flag = VERIFY
//        2, if file name is incompatible
//***************************************************************************
unsigned char readFile (unsigned char flag, unsigned char *fileName)
{
    66a6:	5f 92       	push	r5
    66a8:	6f 92       	push	r6
    66aa:	7f 92       	push	r7
    66ac:	8f 92       	push	r8
    66ae:	9f 92       	push	r9
    66b0:	af 92       	push	r10
    66b2:	bf 92       	push	r11
    66b4:	cf 92       	push	r12
    66b6:	df 92       	push	r13
    66b8:	ef 92       	push	r14
    66ba:	ff 92       	push	r15
    66bc:	0f 93       	push	r16
    66be:	1f 93       	push	r17
    66c0:	cf 93       	push	r28
    66c2:	df 93       	push	r29
    66c4:	cd b7       	in	r28, 0x3d	; 61
    66c6:	de b7       	in	r29, 0x3e	; 62
    66c8:	29 97       	sbiw	r28, 0x09	; 9
    66ca:	0f b6       	in	r0, 0x3f	; 63
    66cc:	f8 94       	cli
    66ce:	de bf       	out	0x3e, r29	; 62
    66d0:	0f be       	out	0x3f, r0	; 63
    66d2:	cd bf       	out	0x3d, r28	; 61
    66d4:	89 83       	std	Y+1, r24	; 0x01
    66d6:	7b 01       	movw	r14, r22
    struct dir_Structure *dir;
    unsigned long cluster, byteCounter = 0, fileSize, firstSector;
    unsigned int k;
    unsigned char j, error;

    error = convertFileName (fileName); //convert fileName into FAT format
    66d8:	cb 01       	movw	r24, r22
    66da:	e5 db       	rcall	.-2102   	; 0x5ea6 <convertFileName>
    if(error) return 2;
    66dc:	81 11       	cpse	r24, r1
    66de:	91 c0       	rjmp	.+290    	; 0x6802 <readFile+0x15e>

    dir = findFiles (GET_FILE, fileName); //get the file location
    66e0:	b7 01       	movw	r22, r14
    66e2:	81 e0       	ldi	r24, 0x01	; 1
    66e4:	e1 dd       	rcall	.-1086   	; 0x62a8 <findFiles>
    66e6:	fc 01       	movw	r30, r24
    if(dir == 0)
    66e8:	89 2b       	or	r24, r25
    66ea:	09 f4       	brne	.+2      	; 0x66ee <readFile+0x4a>
    66ec:	8c c0       	rjmp	.+280    	; 0x6806 <readFile+0x162>
        return (0);

    if(flag == VERIFY) return (1);  //specified file name is already existing
    66ee:	09 81       	ldd	r16, Y+1	; 0x01
    66f0:	01 30       	cpi	r16, 0x01	; 1
    66f2:	09 f4       	brne	.+2      	; 0x66f6 <readFile+0x52>
    66f4:	8a c0       	rjmp	.+276    	; 0x680a <readFile+0x166>

    cluster = (((unsigned long) dir->firstClusterHI) << 16) | dir->firstClusterLO;
    66f6:	44 89       	ldd	r20, Z+20	; 0x14
    66f8:	55 89       	ldd	r21, Z+21	; 0x15
    66fa:	60 e0       	ldi	r22, 0x00	; 0
    66fc:	70 e0       	ldi	r23, 0x00	; 0
    66fe:	ba 01       	movw	r22, r20
    6700:	55 27       	eor	r21, r21
    6702:	44 27       	eor	r20, r20
    6704:	82 8d       	ldd	r24, Z+26	; 0x1a
    6706:	93 8d       	ldd	r25, Z+27	; 0x1b
    6708:	a0 e0       	ldi	r26, 0x00	; 0
    670a:	b0 e0       	ldi	r27, 0x00	; 0
    670c:	8a 01       	movw	r16, r20
    670e:	9b 01       	movw	r18, r22
    6710:	08 2b       	or	r16, r24
    6712:	19 2b       	or	r17, r25
    6714:	2a 2b       	or	r18, r26
    6716:	3b 2b       	or	r19, r27
    6718:	0d 83       	std	Y+5, r16	; 0x05
    671a:	1e 83       	std	Y+6, r17	; 0x06
    671c:	2f 83       	std	Y+7, r18	; 0x07
    671e:	38 87       	std	Y+8, r19	; 0x08

    fileSize = dir->fileSize;
    6720:	44 8c       	ldd	r4, Z+28	; 0x1c
    6722:	55 8c       	ldd	r5, Z+29	; 0x1d
    6724:	66 8c       	ldd	r6, Z+30	; 0x1e
    6726:	77 8c       	ldd	r7, Z+31	; 0x1f
    asm("nop");
    6728:	00 00       	nop
    asm("nop");
    672a:	00 00       	nop
//        2, if file name is incompatible
//***************************************************************************
unsigned char readFile (unsigned char flag, unsigned char *fileName)
{
    struct dir_Structure *dir;
    unsigned long cluster, byteCounter = 0, fileSize, firstSector;
    672c:	c1 2c       	mov	r12, r1
    672e:	d1 2c       	mov	r13, r1
    6730:	76 01       	movw	r14, r12
    6732:	53 01       	movw	r10, r6
    6734:	42 01       	movw	r8, r4
    6736:	1f ef       	ldi	r17, 0xFF	; 255
    6738:	81 1a       	sub	r8, r17
    673a:	91 0a       	sbc	r9, r17
    673c:	a1 0a       	sbc	r10, r17
    673e:	b1 0a       	sbc	r11, r17
    asm("nop");
    asm("nop");

    while(1)
    {
        firstSector = getFirstSector (cluster);
    6740:	6d 81       	ldd	r22, Y+5	; 0x05
    6742:	7e 81       	ldd	r23, Y+6	; 0x06
    6744:	8f 81       	ldd	r24, Y+7	; 0x07
    6746:	98 85       	ldd	r25, Y+8	; 0x08
    6748:	82 da       	rcall	.-2812   	; 0x5c4e <getFirstSector>
    674a:	69 83       	std	Y+1, r22	; 0x01
    674c:	7a 83       	std	Y+2, r23	; 0x02
    674e:	8b 83       	std	Y+3, r24	; 0x03
    6750:	9c 83       	std	Y+4, r25	; 0x04

        for(j=0; j<sectorPerCluster; j++)
    6752:	80 91 96 0e 	lds	r24, 0x0E96	; 0x800e96 <sectorPerCluster>
    6756:	90 91 97 0e 	lds	r25, 0x0E97	; 0x800e97 <sectorPerCluster+0x1>
    675a:	89 2b       	or	r24, r25
    675c:	d1 f1       	breq	.+116    	; 0x67d2 <readFile+0x12e>
    675e:	19 86       	std	Y+9, r1	; 0x09
        {
            //liest Block von 512 Bytes aus mit SPI und schreibt Werte in buffer[]
            SD_readSingleBlock(firstSector + j);
    6760:	69 81       	ldd	r22, Y+1	; 0x01
    6762:	7a 81       	ldd	r23, Y+2	; 0x02
    6764:	8b 81       	ldd	r24, Y+3	; 0x03
    6766:	9c 81       	ldd	r25, Y+4	; 0x04
    6768:	09 85       	ldd	r16, Y+9	; 0x09
    676a:	60 0f       	add	r22, r16
    676c:	71 1d       	adc	r23, r1
    676e:	81 1d       	adc	r24, r1
    6770:	91 1d       	adc	r25, r1
    6772:	e1 d4       	rcall	.+2498   	; 0x7136 <SD_readSingleBlock>

            for(k=0; k<512; k++)
            {
//       transmitByte(buffer[k]);
                if ((byteCounter++) >= fileSize ) return 0;
    6774:	c4 14       	cp	r12, r4
    6776:	d5 04       	cpc	r13, r5
    6778:	e6 04       	cpc	r14, r6
    677a:	f7 04       	cpc	r15, r7
    677c:	08 f0       	brcs	.+2      	; 0x6780 <readFile+0xdc>
    677e:	47 c0       	rjmp	.+142    	; 0x680e <readFile+0x16a>
    6780:	b7 01       	movw	r22, r14
    6782:	a6 01       	movw	r20, r12
    6784:	4f 5f       	subi	r20, 0xFF	; 255
    6786:	5d 4f       	sbci	r21, 0xFD	; 253
    6788:	6f 4f       	sbci	r22, 0xFF	; 255
    678a:	7f 4f       	sbci	r23, 0xFF	; 255
    678c:	12 e0       	ldi	r17, 0x02	; 2
    678e:	c1 0e       	add	r12, r17
    6790:	d1 1c       	adc	r13, r1
    6792:	e1 1c       	adc	r14, r1
    6794:	f1 1c       	adc	r15, r1
    6796:	02 c0       	rjmp	.+4      	; 0x679c <readFile+0xf8>
    6798:	6c 01       	movw	r12, r24
    679a:	7d 01       	movw	r14, r26
    679c:	8c 14       	cp	r8, r12
    679e:	9d 04       	cpc	r9, r13
    67a0:	ae 04       	cpc	r10, r14
    67a2:	bf 04       	cpc	r11, r15
    67a4:	b1 f1       	breq	.+108    	; 0x6812 <readFile+0x16e>
    67a6:	d7 01       	movw	r26, r14
    67a8:	c6 01       	movw	r24, r12
    67aa:	01 96       	adiw	r24, 0x01	; 1
    67ac:	a1 1d       	adc	r26, r1
    67ae:	b1 1d       	adc	r27, r1
        for(j=0; j<sectorPerCluster; j++)
        {
            //liest Block von 512 Bytes aus mit SPI und schreibt Werte in buffer[]
            SD_readSingleBlock(firstSector + j);

            for(k=0; k<512; k++)
    67b0:	48 17       	cp	r20, r24
    67b2:	59 07       	cpc	r21, r25
    67b4:	6a 07       	cpc	r22, r26
    67b6:	7b 07       	cpc	r23, r27
    67b8:	79 f7       	brne	.-34     	; 0x6798 <readFile+0xf4>

    while(1)
    {
        firstSector = getFirstSector (cluster);

        for(j=0; j<sectorPerCluster; j++)
    67ba:	09 85       	ldd	r16, Y+9	; 0x09
    67bc:	0f 5f       	subi	r16, 0xFF	; 255
    67be:	09 87       	std	Y+9, r16	; 0x09
    67c0:	80 91 96 0e 	lds	r24, 0x0E96	; 0x800e96 <sectorPerCluster>
    67c4:	90 91 97 0e 	lds	r25, 0x0E97	; 0x800e97 <sectorPerCluster+0x1>
    67c8:	20 2f       	mov	r18, r16
    67ca:	30 e0       	ldi	r19, 0x00	; 0
    67cc:	28 17       	cp	r18, r24
    67ce:	39 07       	cpc	r19, r25
    67d0:	38 f2       	brcs	.-114    	; 0x6760 <readFile+0xbc>
            {
//       transmitByte(buffer[k]);
                if ((byteCounter++) >= fileSize ) return 0;
            }
        }
        cluster = getSetNextCluster (cluster, GET, 0);
    67d2:	00 e0       	ldi	r16, 0x00	; 0
    67d4:	10 e0       	ldi	r17, 0x00	; 0
    67d6:	98 01       	movw	r18, r16
    67d8:	40 e0       	ldi	r20, 0x00	; 0
    67da:	6d 81       	ldd	r22, Y+5	; 0x05
    67dc:	7e 81       	ldd	r23, Y+6	; 0x06
    67de:	8f 81       	ldd	r24, Y+7	; 0x07
    67e0:	98 85       	ldd	r25, Y+8	; 0x08
    67e2:	56 da       	rcall	.-2900   	; 0x5c90 <getSetNextCluster>
    67e4:	6d 83       	std	Y+5, r22	; 0x05
    67e6:	7e 83       	std	Y+6, r23	; 0x06
    67e8:	8f 83       	std	Y+7, r24	; 0x07
    67ea:	98 87       	std	Y+8, r25	; 0x08
        if(cluster == 0) {
    67ec:	67 2b       	or	r22, r23
    67ee:	68 2b       	or	r22, r24
    67f0:	69 2b       	or	r22, r25
    67f2:	09 f0       	breq	.+2      	; 0x67f6 <readFile+0x152>
    67f4:	a5 cf       	rjmp	.-182    	; 0x6740 <readFile+0x9c>
            Uart_Transmit_IT_PC((char*)("Error in getting cluster"));
    67f6:	8c e1       	ldi	r24, 0x1C	; 28
    67f8:	98 e0       	ldi	r25, 0x08	; 8
    67fa:	0e 94 51 41 	call	0x82a2	; 0x82a2 <Uart_Transmit_IT_PC>
            return 0;
    67fe:	80 e0       	ldi	r24, 0x00	; 0
    6800:	09 c0       	rjmp	.+18     	; 0x6814 <readFile+0x170>
    unsigned long cluster, byteCounter = 0, fileSize, firstSector;
    unsigned int k;
    unsigned char j, error;

    error = convertFileName (fileName); //convert fileName into FAT format
    if(error) return 2;
    6802:	82 e0       	ldi	r24, 0x02	; 2
    6804:	07 c0       	rjmp	.+14     	; 0x6814 <readFile+0x170>

    dir = findFiles (GET_FILE, fileName); //get the file location
    if(dir == 0)
        return (0);
    6806:	80 e0       	ldi	r24, 0x00	; 0
    6808:	05 c0       	rjmp	.+10     	; 0x6814 <readFile+0x170>

    if(flag == VERIFY) return (1);  //specified file name is already existing
    680a:	81 e0       	ldi	r24, 0x01	; 1
    680c:	03 c0       	rjmp	.+6      	; 0x6814 <readFile+0x170>
            SD_readSingleBlock(firstSector + j);

            for(k=0; k<512; k++)
            {
//       transmitByte(buffer[k]);
                if ((byteCounter++) >= fileSize ) return 0;
    680e:	80 e0       	ldi	r24, 0x00	; 0
    6810:	01 c0       	rjmp	.+2      	; 0x6814 <readFile+0x170>
    6812:	80 e0       	ldi	r24, 0x00	; 0
            Uart_Transmit_IT_PC((char*)("Error in getting cluster"));
            return 0;
        }
    }
    return 0;
}
    6814:	29 96       	adiw	r28, 0x09	; 9
    6816:	0f b6       	in	r0, 0x3f	; 63
    6818:	f8 94       	cli
    681a:	de bf       	out	0x3e, r29	; 62
    681c:	0f be       	out	0x3f, r0	; 63
    681e:	cd bf       	out	0x3d, r28	; 61
    6820:	df 91       	pop	r29
    6822:	cf 91       	pop	r28
    6824:	1f 91       	pop	r17
    6826:	0f 91       	pop	r16
    6828:	ff 90       	pop	r15
    682a:	ef 90       	pop	r14
    682c:	df 90       	pop	r13
    682e:	cf 90       	pop	r12
    6830:	bf 90       	pop	r11
    6832:	af 90       	pop	r10
    6834:	9f 90       	pop	r9
    6836:	8f 90       	pop	r8
    6838:	7f 90       	pop	r7
    683a:	6f 90       	pop	r6
    683c:	5f 90       	pop	r5
    683e:	4f 90       	pop	r4
    6840:	08 95       	ret

00006842 <deleteFile>:
//Function: to delete a specified file from the root directory
//Arguments: pointer to the file name
//return: none
//********************************************************************
void deleteFile (unsigned char *fileName)
{
    6842:	cf 93       	push	r28
    6844:	df 93       	push	r29
    6846:	ec 01       	movw	r28, r24
    unsigned char error;

    error = convertFileName (fileName);
    6848:	2e db       	rcall	.-2468   	; 0x5ea6 <convertFileName>
    if(error) return;
    684a:	81 11       	cpse	r24, r1
    684c:	03 c0       	rjmp	.+6      	; 0x6854 <deleteFile+0x12>

    findFiles (DELETE, fileName);
    684e:	be 01       	movw	r22, r28
    6850:	82 e0       	ldi	r24, 0x02	; 2
    6852:	2a dd       	rcall	.-1452   	; 0x62a8 <findFiles>
}
    6854:	df 91       	pop	r29
    6856:	cf 91       	pop	r28
    6858:	08 95       	ret

0000685a <writeFile>:
//          file name does not exist; if the file already exists then append the data
//Arguments: pointer to the file name
//return: none
//************************************************************************************
void writeFile (unsigned char *fileName, unsigned char * INPUT)
{
    685a:	2f 92       	push	r2
    685c:	3f 92       	push	r3
    685e:	4f 92       	push	r4
    6860:	5f 92       	push	r5
    6862:	6f 92       	push	r6
    6864:	7f 92       	push	r7
    6866:	8f 92       	push	r8
    6868:	9f 92       	push	r9
    686a:	af 92       	push	r10
    686c:	bf 92       	push	r11
    686e:	cf 92       	push	r12
    6870:	df 92       	push	r13
    6872:	ef 92       	push	r14
    6874:	ff 92       	push	r15
    6876:	0f 93       	push	r16
    6878:	1f 93       	push	r17
    687a:	cf 93       	push	r28
    687c:	df 93       	push	r29
    687e:	cd b7       	in	r28, 0x3d	; 61
    6880:	de b7       	in	r29, 0x3e	; 62
    6882:	67 97       	sbiw	r28, 0x17	; 23
    6884:	0f b6       	in	r0, 0x3f	; 63
    6886:	f8 94       	cli
    6888:	de bf       	out	0x3e, r29	; 62
    688a:	0f be       	out	0x3f, r0	; 63
    688c:	cd bf       	out	0x3d, r28	; 61
    688e:	98 87       	std	Y+8, r25	; 0x08
    6890:	8f 83       	std	Y+7, r24	; 0x07
    6892:	5b 01       	movw	r10, r22
    unsigned char j, data, error, fileCreatedFlag = 0, start = 0, appendFile = 0, sectorEndFlag = 0, sector;
    unsigned int i, firstClusterHigh, firstClusterLow;
    struct dir_Structure *dir;
    unsigned long cluster, nextCluster, prevCluster, firstSector, clusterCount, extraMemory;

    j = readFile (VERIFY, fileName);
    6894:	bc 01       	movw	r22, r24
    6896:	81 e0       	ldi	r24, 0x01	; 1
    6898:	05 df       	rcall	.-502    	; 0x66a4 <readFile>

    if(j == 1)
    689a:	81 30       	cpi	r24, 0x01	; 1
    689c:	09 f0       	breq	.+2      	; 0x68a0 <writeFile+0x46>
    689e:	52 c0       	rjmp	.+164    	; 0x6944 <writeFile+0xea>
    {
        Uart_Transmit_IT_PC((char*)("  File already existing, appending data.."));
    68a0:	85 e3       	ldi	r24, 0x35	; 53
    68a2:	98 e0       	ldi	r25, 0x08	; 8
    68a4:	0e 94 51 41 	call	0x82a2	; 0x82a2 <Uart_Transmit_IT_PC>
        appendFile = 1;
        cluster = appendStartCluster;
    68a8:	40 90 c9 11 	lds	r4, 0x11C9	; 0x8011c9 <appendStartCluster>
    68ac:	50 90 ca 11 	lds	r5, 0x11CA	; 0x8011ca <appendStartCluster+0x1>
    68b0:	60 90 cb 11 	lds	r6, 0x11CB	; 0x8011cb <appendStartCluster+0x2>
    68b4:	70 90 cc 11 	lds	r7, 0x11CC	; 0x8011cc <appendStartCluster+0x3>
        clusterCount=0;
    68b8:	c1 2c       	mov	r12, r1
    68ba:	d1 2c       	mov	r13, r1
    68bc:	76 01       	movw	r14, r12
        while(1)
        {
            nextCluster = getSetNextCluster (cluster, GET, 0);
    68be:	00 e0       	ldi	r16, 0x00	; 0
    68c0:	10 e0       	ldi	r17, 0x00	; 0
    68c2:	98 01       	movw	r18, r16
    68c4:	40 e0       	ldi	r20, 0x00	; 0
    68c6:	c3 01       	movw	r24, r6
    68c8:	b2 01       	movw	r22, r4
    68ca:	e2 d9       	rcall	.-3132   	; 0x5c90 <getSetNextCluster>
            if(nextCluster == EOF) break;
    68cc:	6f 3f       	cpi	r22, 0xFF	; 255
    68ce:	2f ef       	ldi	r18, 0xFF	; 255
    68d0:	72 07       	cpc	r23, r18
    68d2:	82 07       	cpc	r24, r18
    68d4:	2f e0       	ldi	r18, 0x0F	; 15
    68d6:	92 07       	cpc	r25, r18
    68d8:	41 f0       	breq	.+16     	; 0x68ea <writeFile+0x90>
            cluster = nextCluster;
            clusterCount++;
    68da:	3f ef       	ldi	r19, 0xFF	; 255
    68dc:	c3 1a       	sub	r12, r19
    68de:	d3 0a       	sbc	r13, r19
    68e0:	e3 0a       	sbc	r14, r19
    68e2:	f3 0a       	sbc	r15, r19
        clusterCount=0;
        while(1)
        {
            nextCluster = getSetNextCluster (cluster, GET, 0);
            if(nextCluster == EOF) break;
            cluster = nextCluster;
    68e4:	2b 01       	movw	r4, r22
    68e6:	3c 01       	movw	r6, r24
            clusterCount++;
        }
    68e8:	ea cf       	rjmp	.-44     	; 0x68be <writeFile+0x64>

        sector = (fileSize - (clusterCount * sectorPerCluster * bytesPerSector)) / bytesPerSector; //last sector number of the last cluster of the file
    68ea:	20 91 96 0e 	lds	r18, 0x0E96	; 0x800e96 <sectorPerCluster>
    68ee:	30 91 97 0e 	lds	r19, 0x0E97	; 0x800e97 <sectorPerCluster+0x1>
    68f2:	a0 91 6d 0a 	lds	r26, 0x0A6D	; 0x800a6d <bytesPerSector>
    68f6:	b0 91 6e 0a 	lds	r27, 0x0A6E	; 0x800a6e <bytesPerSector+0x1>
    68fa:	e0 91 6d 0a 	lds	r30, 0x0A6D	; 0x800a6d <bytesPerSector>
    68fe:	f0 91 6e 0a 	lds	r31, 0x0A6E	; 0x800a6e <bytesPerSector+0x1>
    6902:	0e 94 25 46 	call	0x8c4a	; 0x8c4a <__umulhisi3>
    6906:	9b 01       	movw	r18, r22
    6908:	ac 01       	movw	r20, r24
    690a:	c7 01       	movw	r24, r14
    690c:	b6 01       	movw	r22, r12
    690e:	0e 94 ec 45 	call	0x8bd8	; 0x8bd8 <__mulsi3>
    6912:	00 91 69 0a 	lds	r16, 0x0A69	; 0x800a69 <fileSize>
    6916:	10 91 6a 0a 	lds	r17, 0x0A6A	; 0x800a6a <fileSize+0x1>
    691a:	20 91 6b 0a 	lds	r18, 0x0A6B	; 0x800a6b <fileSize+0x2>
    691e:	30 91 6c 0a 	lds	r19, 0x0A6C	; 0x800a6c <fileSize+0x3>
    6922:	68 01       	movw	r12, r16
    6924:	79 01       	movw	r14, r18
    6926:	c6 1a       	sub	r12, r22
    6928:	d7 0a       	sbc	r13, r23
    692a:	e8 0a       	sbc	r14, r24
    692c:	f9 0a       	sbc	r15, r25
    692e:	c7 01       	movw	r24, r14
    6930:	b6 01       	movw	r22, r12
    6932:	9f 01       	movw	r18, r30
    6934:	40 e0       	ldi	r20, 0x00	; 0
    6936:	50 e0       	ldi	r21, 0x00	; 0
    6938:	0e 94 fb 45 	call	0x8bf6	; 0x8bf6 <__udivmodsi4>
    693c:	29 87       	std	Y+9, r18	; 0x09
        start = 1;
    693e:	21 e0       	ldi	r18, 0x01	; 1
    6940:	29 8b       	std	Y+17, r18	; 0x11
    6942:	4e c0       	rjmp	.+156    	; 0x69e0 <writeFile+0x186>
//  appendFile();
//  return;
    }
    else if(j == 2)
    6944:	82 30       	cpi	r24, 0x02	; 2
    6946:	09 f4       	brne	.+2      	; 0x694a <writeFile+0xf0>
    6948:	83 c3       	rjmp	.+1798   	; 0x7050 <writeFile+0x7f6>
        return; //invalid file name
    else
    {
        TX_NEWLINE;
    694a:	8d e0       	ldi	r24, 0x0D	; 13
    694c:	0e 94 fa 42 	call	0x85f4	; 0x85f4 <transmitByte>
    6950:	8a e0       	ldi	r24, 0x0A	; 10
    6952:	0e 94 fa 42 	call	0x85f4	; 0x85f4 <transmitByte>
        Uart_Transmit_IT_PC((char*)(" Creating File.."));
    6956:	8f e5       	ldi	r24, 0x5F	; 95
    6958:	98 e0       	ldi	r25, 0x08	; 8
    695a:	0e 94 51 41 	call	0x82a2	; 0x82a2 <Uart_Transmit_IT_PC>

        cluster = getSetFreeCluster (NEXT_FREE, GET, 0);
    695e:	20 e0       	ldi	r18, 0x00	; 0
    6960:	30 e0       	ldi	r19, 0x00	; 0
    6962:	a9 01       	movw	r20, r18
    6964:	60 e0       	ldi	r22, 0x00	; 0
    6966:	82 e0       	ldi	r24, 0x02	; 2
    6968:	0c da       	rcall	.-3048   	; 0x5d82 <getSetFreeCluster>
        if(cluster > totalClusters)
    696a:	00 91 70 0a 	lds	r16, 0x0A70	; 0x800a70 <totalClusters>
    696e:	10 91 71 0a 	lds	r17, 0x0A71	; 0x800a71 <totalClusters+0x1>
    6972:	20 91 72 0a 	lds	r18, 0x0A72	; 0x800a72 <totalClusters+0x2>
    6976:	30 91 73 0a 	lds	r19, 0x0A73	; 0x800a73 <totalClusters+0x3>
    697a:	06 17       	cp	r16, r22
    697c:	17 07       	cpc	r17, r23
    697e:	28 07       	cpc	r18, r24
    6980:	39 07       	cpc	r19, r25
    6982:	40 f4       	brcc	.+16     	; 0x6994 <writeFile+0x13a>
            cluster = rootCluster;
    6984:	60 91 7c 0a 	lds	r22, 0x0A7C	; 0x800a7c <rootCluster>
    6988:	70 91 7d 0a 	lds	r23, 0x0A7D	; 0x800a7d <rootCluster+0x1>
    698c:	80 91 7e 0a 	lds	r24, 0x0A7E	; 0x800a7e <rootCluster+0x2>
    6990:	90 91 7f 0a 	lds	r25, 0x0A7F	; 0x800a7f <rootCluster+0x3>

        cluster = searchNextFreeCluster(cluster);
    6994:	18 db       	rcall	.-2512   	; 0x5fc6 <searchNextFreeCluster>
    6996:	2b 01       	movw	r4, r22
    6998:	3c 01       	movw	r6, r24
        if(cluster == 0)
    699a:	61 15       	cp	r22, r1
    699c:	71 05       	cpc	r23, r1
    699e:	81 05       	cpc	r24, r1
    69a0:	91 05       	cpc	r25, r1
    69a2:	59 f4       	brne	.+22     	; 0x69ba <writeFile+0x160>
        {
            TX_NEWLINE;
    69a4:	8d e0       	ldi	r24, 0x0D	; 13
    69a6:	0e 94 fa 42 	call	0x85f4	; 0x85f4 <transmitByte>
    69aa:	8a e0       	ldi	r24, 0x0A	; 10
    69ac:	0e 94 fa 42 	call	0x85f4	; 0x85f4 <transmitByte>
            Uart_Transmit_IT_PC((char*)(" No free cluster!"));
    69b0:	80 e7       	ldi	r24, 0x70	; 112
    69b2:	98 e0       	ldi	r25, 0x08	; 8
    69b4:	0e 94 51 41 	call	0x82a2	; 0x82a2 <Uart_Transmit_IT_PC>
            return;
    69b8:	4b c3       	rjmp	.+1686   	; 0x7050 <writeFile+0x7f6>
        }
        getSetNextCluster(cluster, SET, EOF);   //last cluster of the file, marked EOF
    69ba:	0f ef       	ldi	r16, 0xFF	; 255
    69bc:	1f ef       	ldi	r17, 0xFF	; 255
    69be:	2f ef       	ldi	r18, 0xFF	; 255
    69c0:	3f e0       	ldi	r19, 0x0F	; 15
    69c2:	41 e0       	ldi	r20, 0x01	; 1
    69c4:	65 d9       	rcall	.-3382   	; 0x5c90 <getSetNextCluster>

        firstClusterHigh = (unsigned int) ((cluster & 0xffff0000) >> 16 );
    69c6:	7b 8a       	std	Y+19, r7	; 0x13
    69c8:	6a 8a       	std	Y+18, r6	; 0x12
        firstClusterLow = (unsigned int) ( cluster & 0x0000ffff);
    69ca:	5d 8a       	std	Y+21, r5	; 0x15
    69cc:	4c 8a       	std	Y+20, r4	; 0x14
        fileSize = 0;
    69ce:	10 92 69 0a 	sts	0x0A69, r1	; 0x800a69 <fileSize>
    69d2:	10 92 6a 0a 	sts	0x0A6A, r1	; 0x800a6a <fileSize+0x1>
    69d6:	10 92 6b 0a 	sts	0x0A6B, r1	; 0x800a6b <fileSize+0x2>
    69da:	10 92 6c 0a 	sts	0x0A6C, r1	; 0x800a6c <fileSize+0x3>
//Arguments: pointer to the file name
//return: none
//************************************************************************************
void writeFile (unsigned char *fileName, unsigned char * INPUT)
{
    unsigned char j, data, error, fileCreatedFlag = 0, start = 0, appendFile = 0, sectorEndFlag = 0, sector;
    69de:	19 8a       	std	Y+17, r1	; 0x11
    69e0:	89 89       	ldd	r24, Y+17	; 0x11
    69e2:	21 2c       	mov	r2, r1
    while(1)
    {
        if(start)
        {
            start = 0;
            startBlock = getFirstSector (cluster) + sector;
    69e4:	d9 84       	ldd	r13, Y+9	; 0x09
    69e6:	cd 2c       	mov	r12, r13
    69e8:	d1 2c       	mov	r13, r1
    69ea:	e1 2c       	mov	r14, r1
    69ec:	f1 2c       	mov	r15, r1
    69ee:	cd 86       	std	Y+13, r12	; 0x0d
    69f0:	de 86       	std	Y+14, r13	; 0x0e
    69f2:	ef 86       	std	Y+15, r14	; 0x0f
    69f4:	f8 8a       	std	Y+16, r15	; 0x10
        }
        else
        {
            startBlock = getFirstSector (cluster);
            i=0;
            j=0;
    69f6:	31 2c       	mov	r3, r1
            buffer[i++] = data;
            fileSize++;
            if(data == '\r')  //'Carriege Return (CR)' character
            {
                if(i == 512)
                    sectorEndFlag = 1;  //flag to indicate that the appended '\n' char should be put in the next sector
    69f8:	21 e0       	ldi	r18, 0x01	; 1
    69fa:	2b 83       	std	Y+3, r18	; 0x03
    69fc:	ba 82       	std	Y+2, r11	; 0x02



    while(1)
    {
        if(start)
    69fe:	a9 82       	std	Y+1, r10	; 0x01
    6a00:	88 23       	and	r24, r24
        {
            start = 0;
            startBlock = getFirstSector (cluster) + sector;
    6a02:	81 f1       	breq	.+96     	; 0x6a64 <writeFile+0x20a>
    6a04:	c3 01       	movw	r24, r6
    6a06:	b2 01       	movw	r22, r4
    6a08:	22 d9       	rcall	.-3516   	; 0x5c4e <getFirstSector>
    6a0a:	cd 84       	ldd	r12, Y+13	; 0x0d
    6a0c:	de 84       	ldd	r13, Y+14	; 0x0e
    6a0e:	ef 84       	ldd	r14, Y+15	; 0x0f
    6a10:	f8 88       	ldd	r15, Y+16	; 0x10
    6a12:	c6 0e       	add	r12, r22
    6a14:	d7 1e       	adc	r13, r23
    6a16:	e8 1e       	adc	r14, r24
    6a18:	f9 1e       	adc	r15, r25
    6a1a:	c0 92 87 0b 	sts	0x0B87, r12	; 0x800b87 <startBlock>
    6a1e:	d0 92 88 0b 	sts	0x0B88, r13	; 0x800b88 <startBlock+0x1>
    6a22:	e0 92 89 0b 	sts	0x0B89, r14	; 0x800b89 <startBlock+0x2>
    6a26:	f0 92 8a 0b 	sts	0x0B8A, r15	; 0x800b8a <startBlock+0x3>
            SD_readSingleBlock (startBlock);
    6a2a:	60 91 87 0b 	lds	r22, 0x0B87	; 0x800b87 <startBlock>
    6a2e:	70 91 88 0b 	lds	r23, 0x0B88	; 0x800b88 <startBlock+0x1>
    6a32:	80 91 89 0b 	lds	r24, 0x0B89	; 0x800b89 <startBlock+0x2>
    6a36:	90 91 8a 0b 	lds	r25, 0x0B8A	; 0x800b8a <startBlock+0x3>
    6a3a:	7d d3       	rcall	.+1786   	; 0x7136 <SD_readSingleBlock>
            i = fileSize % bytesPerSector;
    6a3c:	20 91 6d 0a 	lds	r18, 0x0A6D	; 0x800a6d <bytesPerSector>
    6a40:	30 91 6e 0a 	lds	r19, 0x0A6E	; 0x800a6e <bytesPerSector+0x1>
    6a44:	40 e0       	ldi	r20, 0x00	; 0
    6a46:	50 e0       	ldi	r21, 0x00	; 0
    6a48:	60 91 69 0a 	lds	r22, 0x0A69	; 0x800a69 <fileSize>
    6a4c:	70 91 6a 0a 	lds	r23, 0x0A6A	; 0x800a6a <fileSize+0x1>
    6a50:	80 91 6b 0a 	lds	r24, 0x0A6B	; 0x800a6b <fileSize+0x2>
    6a54:	90 91 6c 0a 	lds	r25, 0x0A6C	; 0x800a6c <fileSize+0x3>
    6a58:	0e 94 fb 45 	call	0x8bf6	; 0x8bf6 <__udivmodsi4>
    6a5c:	7f 8b       	std	Y+23, r23	; 0x17
            j = sector;
    6a5e:	6e 8b       	std	Y+22, r22	; 0x16
    6a60:	09 85       	ldd	r16, Y+9	; 0x09
        }
        else
        {
            startBlock = getFirstSector (cluster);
    6a62:	0e c0       	rjmp	.+28     	; 0x6a80 <writeFile+0x226>
    6a64:	c3 01       	movw	r24, r6
    6a66:	b2 01       	movw	r22, r4
    6a68:	f2 d8       	rcall	.-3612   	; 0x5c4e <getFirstSector>
    6a6a:	60 93 87 0b 	sts	0x0B87, r22	; 0x800b87 <startBlock>
    6a6e:	70 93 88 0b 	sts	0x0B88, r23	; 0x800b88 <startBlock+0x1>
    6a72:	80 93 89 0b 	sts	0x0B89, r24	; 0x800b89 <startBlock+0x2>
    6a76:	90 93 8a 0b 	sts	0x0B8A, r25	; 0x800b8a <startBlock+0x3>
            i=0;
    6a7a:	1f 8a       	std	Y+23, r1	; 0x17
    6a7c:	1e 8a       	std	Y+22, r1	; 0x16
            j=0;
    6a7e:	00 e0       	ldi	r16, 0x00	; 0
        }


        TX_NEWLINE;
    6a80:	8d e0       	ldi	r24, 0x0D	; 13
    6a82:	0e 94 fa 42 	call	0x85f4	; 0x85f4 <transmitByte>
    6a86:	8a e0       	ldi	r24, 0x0A	; 10
    6a88:	0e 94 fa 42 	call	0x85f4	; 0x85f4 <transmitByte>
        Uart_Transmit_IT_PC((char*)(" Enter text (end with ~):"));
    6a8c:	82 e8       	ldi	r24, 0x82	; 130
    6a8e:	98 e0       	ldi	r25, 0x08	; 8
    6a90:	0e 94 51 41 	call	0x82a2	; 0x82a2 <Uart_Transmit_IT_PC>
        uint32_t counter = 0;
    6a94:	81 2c       	mov	r8, r1
    6a96:	91 2c       	mov	r9, r1
    6a98:	54 01       	movw	r10, r8
        do
        {
            if(sectorEndFlag == 1) //special case when the last character in previous sector was '\r'
    6a9a:	ff 24       	eor	r15, r15
    6a9c:	f3 94       	inc	r15
    6a9e:	2f 10       	cpse	r2, r15
    6aa0:	22 c0       	rjmp	.+68     	; 0x6ae6 <writeFile+0x28c>
            {
                transmitByte ('\n');
    6aa2:	8a e0       	ldi	r24, 0x0A	; 10
    6aa4:	0e 94 fa 42 	call	0x85f4	; 0x85f4 <transmitByte>
                buffer[i++] = '\n'; //appending 'Line Feed (LF)' character
    6aa8:	ee 89       	ldd	r30, Y+22	; 0x16
    6aaa:	ff 89       	ldd	r31, Y+23	; 0x17
    6aac:	ec 56       	subi	r30, 0x6C	; 108
    6aae:	f3 4f       	sbci	r31, 0xF3	; 243
    6ab0:	8a e0       	ldi	r24, 0x0A	; 10
    6ab2:	80 83       	st	Z, r24
                fileSize++;
    6ab4:	80 91 69 0a 	lds	r24, 0x0A69	; 0x800a69 <fileSize>
    6ab8:	90 91 6a 0a 	lds	r25, 0x0A6A	; 0x800a6a <fileSize+0x1>
    6abc:	a0 91 6b 0a 	lds	r26, 0x0A6B	; 0x800a6b <fileSize+0x2>
    6ac0:	b0 91 6c 0a 	lds	r27, 0x0A6C	; 0x800a6c <fileSize+0x3>
    6ac4:	01 96       	adiw	r24, 0x01	; 1
    6ac6:	a1 1d       	adc	r26, r1
    6ac8:	b1 1d       	adc	r27, r1
    6aca:	80 93 69 0a 	sts	0x0A69, r24	; 0x800a69 <fileSize>
    6ace:	90 93 6a 0a 	sts	0x0A6A, r25	; 0x800a6a <fileSize+0x1>
    6ad2:	a0 93 6b 0a 	sts	0x0A6B, r26	; 0x800a6b <fileSize+0x2>
    6ad6:	b0 93 6c 0a 	sts	0x0A6C, r27	; 0x800a6c <fileSize+0x3>
        do
        {
            if(sectorEndFlag == 1) //special case when the last character in previous sector was '\r'
            {
                transmitByte ('\n');
                buffer[i++] = '\n'; //appending 'Line Feed (LF)' character
    6ada:	2e 89       	ldd	r18, Y+22	; 0x16
    6adc:	3f 89       	ldd	r19, Y+23	; 0x17
    6ade:	2f 5f       	subi	r18, 0xFF	; 255
    6ae0:	3f 4f       	sbci	r19, 0xFF	; 255
    6ae2:	3f 8b       	std	Y+23, r19	; 0x17
    6ae4:	2e 8b       	std	Y+22, r18	; 0x16
                fileSize++;
            }

            sectorEndFlag = 0;

            data = *(INPUT + counter);
    6ae6:	e9 81       	ldd	r30, Y+1	; 0x01
    6ae8:	fa 81       	ldd	r31, Y+2	; 0x02
    6aea:	e8 0d       	add	r30, r8
    6aec:	f9 1d       	adc	r31, r9
    6aee:	10 81       	ld	r17, Z
            if(data == 0x08)   //'Back Space' key pressed
    6af0:	18 30       	cpi	r17, 0x08	; 8
    6af2:	41 f5       	brne	.+80     	; 0x6b44 <writeFile+0x2ea>
            {
                if(i != 0)
    6af4:	ce 88       	ldd	r12, Y+22	; 0x16
    6af6:	df 88       	ldd	r13, Y+23	; 0x17
    6af8:	c1 14       	cp	r12, r1
    6afa:	d1 04       	cpc	r13, r1
    6afc:	09 f4       	brne	.+2      	; 0x6b00 <writeFile+0x2a6>
    6afe:	87 c2       	rjmp	.+1294   	; 0x700e <writeFile+0x7b4>
                {
                    transmitByte(data);
    6b00:	88 e0       	ldi	r24, 0x08	; 8
    6b02:	0e 94 fa 42 	call	0x85f4	; 0x85f4 <transmitByte>
                    transmitByte(' ');
    6b06:	80 e2       	ldi	r24, 0x20	; 32
    6b08:	0e 94 fa 42 	call	0x85f4	; 0x85f4 <transmitByte>
                    transmitByte(data);
    6b0c:	88 e0       	ldi	r24, 0x08	; 8
    6b0e:	0e 94 fa 42 	call	0x85f4	; 0x85f4 <transmitByte>
                    i--;
    6b12:	96 01       	movw	r18, r12
    6b14:	21 50       	subi	r18, 0x01	; 1
    6b16:	31 09       	sbc	r19, r1
    6b18:	3f 8b       	std	Y+23, r19	; 0x17
    6b1a:	2e 8b       	std	Y+22, r18	; 0x16
                    fileSize--;
    6b1c:	80 91 69 0a 	lds	r24, 0x0A69	; 0x800a69 <fileSize>
    6b20:	90 91 6a 0a 	lds	r25, 0x0A6A	; 0x800a6a <fileSize+0x1>
    6b24:	a0 91 6b 0a 	lds	r26, 0x0A6B	; 0x800a6b <fileSize+0x2>
    6b28:	b0 91 6c 0a 	lds	r27, 0x0A6C	; 0x800a6c <fileSize+0x3>
    6b2c:	01 97       	sbiw	r24, 0x01	; 1
    6b2e:	a1 09       	sbc	r26, r1
    6b30:	b1 09       	sbc	r27, r1
    6b32:	80 93 69 0a 	sts	0x0A69, r24	; 0x800a69 <fileSize>
    6b36:	90 93 6a 0a 	sts	0x0A6A, r25	; 0x800a6a <fileSize+0x1>
    6b3a:	a0 93 6b 0a 	sts	0x0A6B, r26	; 0x800a6b <fileSize+0x2>
    6b3e:	b0 93 6c 0a 	sts	0x0A6C, r27	; 0x800a6c <fileSize+0x3>
    6b42:	65 c2       	rjmp	.+1226   	; 0x700e <writeFile+0x7b4>
                }
                continue;
            }
            transmitByte(data);
    6b44:	81 2f       	mov	r24, r17
    6b46:	0e 94 fa 42 	call	0x85f4	; 0x85f4 <transmitByte>
            buffer[i++] = data;
    6b4a:	ee 88       	ldd	r14, Y+22	; 0x16
    6b4c:	ff 88       	ldd	r15, Y+23	; 0x17
    6b4e:	3f ef       	ldi	r19, 0xFF	; 255
    6b50:	e3 1a       	sub	r14, r19
    6b52:	f3 0a       	sbc	r15, r19
    6b54:	ee 89       	ldd	r30, Y+22	; 0x16
    6b56:	ff 89       	ldd	r31, Y+23	; 0x17
    6b58:	ec 56       	subi	r30, 0x6C	; 108
    6b5a:	f3 4f       	sbci	r31, 0xF3	; 243
    6b5c:	10 83       	st	Z, r17
            fileSize++;
    6b5e:	80 91 69 0a 	lds	r24, 0x0A69	; 0x800a69 <fileSize>
    6b62:	90 91 6a 0a 	lds	r25, 0x0A6A	; 0x800a6a <fileSize+0x1>
    6b66:	a0 91 6b 0a 	lds	r26, 0x0A6B	; 0x800a6b <fileSize+0x2>
    6b6a:	b0 91 6c 0a 	lds	r27, 0x0A6C	; 0x800a6c <fileSize+0x3>
    6b6e:	01 96       	adiw	r24, 0x01	; 1
    6b70:	a1 1d       	adc	r26, r1
    6b72:	b1 1d       	adc	r27, r1
    6b74:	80 93 69 0a 	sts	0x0A69, r24	; 0x800a69 <fileSize>
    6b78:	90 93 6a 0a 	sts	0x0A6A, r25	; 0x800a6a <fileSize+0x1>
    6b7c:	a0 93 6b 0a 	sts	0x0A6B, r26	; 0x800a6b <fileSize+0x2>
    6b80:	b0 93 6c 0a 	sts	0x0A6C, r27	; 0x800a6c <fileSize+0x3>
            if(data == '\r')  //'Carriege Return (CR)' character
    6b84:	1d 30       	cpi	r17, 0x0D	; 13
    6b86:	61 f5       	brne	.+88     	; 0x6be0 <writeFile+0x386>
            {
                if(i == 512)
    6b88:	e1 14       	cp	r14, r1
    6b8a:	42 e0       	ldi	r20, 0x02	; 2
    6b8c:	f4 06       	cpc	r15, r20
    6b8e:	71 f1       	breq	.+92     	; 0x6bec <writeFile+0x392>
                    sectorEndFlag = 1;  //flag to indicate that the appended '\n' char should be put in the next sector
                else
                {
                    transmitByte ('\n');
    6b90:	8a e0       	ldi	r24, 0x0A	; 10
    6b92:	0e 94 fa 42 	call	0x85f4	; 0x85f4 <transmitByte>
                    buffer[i++] = '\n'; //appending 'Line Feed (LF)' character
    6b96:	8e 89       	ldd	r24, Y+22	; 0x16
    6b98:	9f 89       	ldd	r25, Y+23	; 0x17
    6b9a:	02 96       	adiw	r24, 0x02	; 2
    6b9c:	9f 8b       	std	Y+23, r25	; 0x17
    6b9e:	8e 8b       	std	Y+22, r24	; 0x16
    6ba0:	f7 01       	movw	r30, r14
    6ba2:	ec 56       	subi	r30, 0x6C	; 108
    6ba4:	f3 4f       	sbci	r31, 0xF3	; 243
    6ba6:	8a e0       	ldi	r24, 0x0A	; 10
    6ba8:	80 83       	st	Z, r24
                    fileSize++;
    6baa:	80 91 69 0a 	lds	r24, 0x0A69	; 0x800a69 <fileSize>
    6bae:	90 91 6a 0a 	lds	r25, 0x0A6A	; 0x800a6a <fileSize+0x1>
    6bb2:	a0 91 6b 0a 	lds	r26, 0x0A6B	; 0x800a6b <fileSize+0x2>
    6bb6:	b0 91 6c 0a 	lds	r27, 0x0A6C	; 0x800a6c <fileSize+0x3>
    6bba:	01 96       	adiw	r24, 0x01	; 1
    6bbc:	a1 1d       	adc	r26, r1
    6bbe:	b1 1d       	adc	r27, r1
    6bc0:	80 93 69 0a 	sts	0x0A69, r24	; 0x800a69 <fileSize>
    6bc4:	90 93 6a 0a 	sts	0x0A6A, r25	; 0x800a6a <fileSize+0x1>
    6bc8:	a0 93 6b 0a 	sts	0x0A6B, r26	; 0x800a6b <fileSize+0x2>
    6bcc:	b0 93 6c 0a 	sts	0x0A6C, r27	; 0x800a6c <fileSize+0x3>
                }
            }

            if(i >= 512)   //though 'i' will never become greater than 512, it's kept here to avoid
    6bd0:	ce 88       	ldd	r12, Y+22	; 0x16
    6bd2:	df 88       	ldd	r13, Y+23	; 0x17
    6bd4:	c1 14       	cp	r12, r1
    6bd6:	22 e0       	ldi	r18, 0x02	; 2
    6bd8:	d2 06       	cpc	r13, r18
    6bda:	08 f4       	brcc	.+2      	; 0x6bde <writeFile+0x384>
    6bdc:	1e c2       	rjmp	.+1084   	; 0x701a <writeFile+0x7c0>
    6bde:	08 c0       	rjmp	.+16     	; 0x6bf0 <writeFile+0x396>
    6be0:	e1 14       	cp	r14, r1
    6be2:	32 e0       	ldi	r19, 0x02	; 2
    6be4:	f3 06       	cpc	r15, r19
    6be6:	70 f1       	brcs	.+92     	; 0x6c44 <writeFile+0x3ea>
    6be8:	23 2c       	mov	r2, r3
    6bea:	03 c0       	rjmp	.+6      	; 0x6bf2 <writeFile+0x398>
            buffer[i++] = data;
            fileSize++;
            if(data == '\r')  //'Carriege Return (CR)' character
            {
                if(i == 512)
                    sectorEndFlag = 1;  //flag to indicate that the appended '\n' char should be put in the next sector
    6bec:	2b 80       	ldd	r2, Y+3	; 0x03
    6bee:	01 c0       	rjmp	.+2      	; 0x6bf2 <writeFile+0x398>
                    buffer[i++] = '\n'; //appending 'Line Feed (LF)' character
                    fileSize++;
                }
            }

            if(i >= 512)   //though 'i' will never become greater than 512, it's kept here to avoid
    6bf0:	23 2c       	mov	r2, r3
            {   //infinite loop in case it happens to be greater than 512 due to some data corruption
                i=0;
                error = SD_writeSingleBlock (startBlock);
    6bf2:	60 91 87 0b 	lds	r22, 0x0B87	; 0x800b87 <startBlock>
    6bf6:	70 91 88 0b 	lds	r23, 0x0B88	; 0x800b88 <startBlock+0x1>
    6bfa:	80 91 89 0b 	lds	r24, 0x0B89	; 0x800b89 <startBlock+0x2>
    6bfe:	90 91 8a 0b 	lds	r25, 0x0B8A	; 0x800b8a <startBlock+0x3>
    6c02:	c1 d2       	rcall	.+1410   	; 0x7186 <SD_writeSingleBlock>
                j++;
    6c04:	0f 5f       	subi	r16, 0xFF	; 255
                if(j == sectorPerCluster) {
    6c06:	80 91 96 0e 	lds	r24, 0x0E96	; 0x800e96 <sectorPerCluster>
    6c0a:	90 91 97 0e 	lds	r25, 0x0E97	; 0x800e97 <sectorPerCluster+0x1>
    6c0e:	20 2f       	mov	r18, r16
    6c10:	30 e0       	ldi	r19, 0x00	; 0
    6c12:	28 17       	cp	r18, r24
    6c14:	39 07       	cpc	r19, r25
    6c16:	11 f1       	breq	.+68     	; 0x6c5c <writeFile+0x402>
                    j = 0;
                    break;
                }
                startBlock++;
    6c18:	80 91 87 0b 	lds	r24, 0x0B87	; 0x800b87 <startBlock>
    6c1c:	90 91 88 0b 	lds	r25, 0x0B88	; 0x800b88 <startBlock+0x1>
    6c20:	a0 91 89 0b 	lds	r26, 0x0B89	; 0x800b89 <startBlock+0x2>
    6c24:	b0 91 8a 0b 	lds	r27, 0x0B8A	; 0x800b8a <startBlock+0x3>
    6c28:	01 96       	adiw	r24, 0x01	; 1
    6c2a:	a1 1d       	adc	r26, r1
    6c2c:	b1 1d       	adc	r27, r1
    6c2e:	80 93 87 0b 	sts	0x0B87, r24	; 0x800b87 <startBlock>
    6c32:	90 93 88 0b 	sts	0x0B88, r25	; 0x800b88 <startBlock+0x1>
    6c36:	a0 93 89 0b 	sts	0x0B89, r26	; 0x800b89 <startBlock+0x2>
    6c3a:	b0 93 8a 0b 	sts	0x0B8A, r27	; 0x800b8a <startBlock+0x3>
                }
            }

            if(i >= 512)   //though 'i' will never become greater than 512, it's kept here to avoid
            {   //infinite loop in case it happens to be greater than 512 due to some data corruption
                i=0;
    6c3e:	1f 8a       	std	Y+23, r1	; 0x17
    6c40:	1e 8a       	std	Y+22, r1	; 0x16
    6c42:	03 c0       	rjmp	.+6      	; 0x6c4a <writeFile+0x3f0>
                    fileSize--;
                }
                continue;
            }
            transmitByte(data);
            buffer[i++] = data;
    6c44:	ff 8a       	std	Y+23, r15	; 0x17
    6c46:	ee 8a       	std	Y+22, r14	; 0x16
    6c48:	23 2c       	mov	r2, r3
                    j = 0;
                    break;
                }
                startBlock++;
            }
            counter ++;
    6c4a:	4f ef       	ldi	r20, 0xFF	; 255
    6c4c:	84 1a       	sub	r8, r20
    6c4e:	94 0a       	sbc	r9, r20
    6c50:	a4 0a       	sbc	r10, r20
    6c52:	b4 0a       	sbc	r11, r20
        } while (data != '~');
    6c54:	1e 37       	cpi	r17, 0x7E	; 126
    6c56:	09 f0       	breq	.+2      	; 0x6c5a <writeFile+0x400>
    6c58:	20 cf       	rjmp	.-448    	; 0x6a9a <writeFile+0x240>
    6c5a:	04 c0       	rjmp	.+8      	; 0x6c64 <writeFile+0x40a>

        if(data == '~')
    6c5c:	1e 37       	cpi	r17, 0x7E	; 126
    6c5e:	09 f0       	breq	.+2      	; 0x6c62 <writeFile+0x408>
    6c60:	3e c0       	rjmp	.+124    	; 0x6cde <writeFile+0x484>
    6c62:	e2 c1       	rjmp	.+964    	; 0x7028 <writeFile+0x7ce>
    6c64:	ce 88       	ldd	r12, Y+22	; 0x16
    6c66:	df 88       	ldd	r13, Y+23	; 0x17
        {
            fileSize--;   //to remove the last entered '~' character
    6c68:	80 91 69 0a 	lds	r24, 0x0A69	; 0x800a69 <fileSize>
    6c6c:	90 91 6a 0a 	lds	r25, 0x0A6A	; 0x800a6a <fileSize+0x1>
    6c70:	a0 91 6b 0a 	lds	r26, 0x0A6B	; 0x800a6b <fileSize+0x2>
    6c74:	b0 91 6c 0a 	lds	r27, 0x0A6C	; 0x800a6c <fileSize+0x3>
    6c78:	01 97       	sbiw	r24, 0x01	; 1
    6c7a:	a1 09       	sbc	r26, r1
    6c7c:	b1 09       	sbc	r27, r1
    6c7e:	80 93 69 0a 	sts	0x0A69, r24	; 0x800a69 <fileSize>
    6c82:	90 93 6a 0a 	sts	0x0A6A, r25	; 0x800a6a <fileSize+0x1>
    6c86:	a0 93 6b 0a 	sts	0x0A6B, r26	; 0x800a6b <fileSize+0x2>
    6c8a:	b0 93 6c 0a 	sts	0x0A6C, r27	; 0x800a6c <fileSize+0x3>
            i--;
    6c8e:	96 01       	movw	r18, r12
    6c90:	21 50       	subi	r18, 0x01	; 1
    6c92:	31 09       	sbc	r19, r1
    6c94:	3a 83       	std	Y+2, r19	; 0x02
    6c96:	29 83       	std	Y+1, r18	; 0x01
            for(; i<512; i++) //fill the rest of the buffer with 0x00
    6c98:	21 15       	cp	r18, r1
    6c9a:	32 40       	sbci	r19, 0x02	; 2
    6c9c:	68 f4       	brcc	.+26     	; 0x6cb8 <writeFile+0x45e>
                buffer[i]= 0x00;
    6c9e:	e9 81       	ldd	r30, Y+1	; 0x01
    6ca0:	fa 81       	ldd	r31, Y+2	; 0x02
    6ca2:	ec 56       	subi	r30, 0x6C	; 108
    6ca4:	f3 4f       	sbci	r31, 0xF3	; 243
    6ca6:	10 82       	st	Z, r1

        if(data == '~')
        {
            fileSize--;   //to remove the last entered '~' character
            i--;
            for(; i<512; i++) //fill the rest of the buffer with 0x00
    6ca8:	89 81       	ldd	r24, Y+1	; 0x01
    6caa:	9a 81       	ldd	r25, Y+2	; 0x02
    6cac:	01 96       	adiw	r24, 0x01	; 1
    6cae:	9a 83       	std	Y+2, r25	; 0x02
    6cb0:	89 83       	std	Y+1, r24	; 0x01
    6cb2:	81 15       	cp	r24, r1
    6cb4:	92 40       	sbci	r25, 0x02	; 2
    6cb6:	99 f7       	brne	.-26     	; 0x6c9e <writeFile+0x444>
                buffer[i]= 0x00;
            error = SD_writeSingleBlock (startBlock);
    6cb8:	60 91 87 0b 	lds	r22, 0x0B87	; 0x800b87 <startBlock>
    6cbc:	70 91 88 0b 	lds	r23, 0x0B88	; 0x800b88 <startBlock+0x1>
    6cc0:	80 91 89 0b 	lds	r24, 0x0B89	; 0x800b89 <startBlock+0x2>
    6cc4:	90 91 8a 0b 	lds	r25, 0x0B8A	; 0x800b8a <startBlock+0x3>

        getSetNextCluster(prevCluster, SET, cluster);
        getSetNextCluster(cluster, SET, EOF);   //last cluster of the file, marked EOF
    }

    getSetFreeCluster (NEXT_FREE, SET, cluster); //update FSinfo next free cluster entry
    6cc8:	5e d2       	rcall	.+1212   	; 0x7186 <SD_writeSingleBlock>
    6cca:	a3 01       	movw	r20, r6
    6ccc:	92 01       	movw	r18, r4
    6cce:	61 e0       	ldi	r22, 0x01	; 1
    6cd0:	82 e0       	ldi	r24, 0x02	; 2

    if(appendFile)  //executes this loop if file is to be appended
    6cd2:	57 d8       	rcall	.-3922   	; 0x5d82 <getSetFreeCluster>
    6cd4:	c9 88       	ldd	r12, Y+17	; 0x11
    6cd6:	cc 20       	and	r12, r12
    6cd8:	09 f4       	brne	.+2      	; 0x6cdc <writeFile+0x482>
    6cda:	6d c0       	rjmp	.+218    	; 0x6db6 <writeFile+0x55c>
            break;
        }

        prevCluster = cluster;

        cluster = searchNextFreeCluster(prevCluster); //look for a free cluster starting from the current cluster
    6cdc:	29 c0       	rjmp	.+82     	; 0x6d30 <writeFile+0x4d6>
    6cde:	c3 01       	movw	r24, r6
    6ce0:	b2 01       	movw	r22, r4
    6ce2:	71 d9       	rcall	.-3358   	; 0x5fc6 <searchNextFreeCluster>
    6ce4:	6b 01       	movw	r12, r22
    6ce6:	7c 01       	movw	r14, r24

        if(cluster == 0)
    6ce8:	61 15       	cp	r22, r1
    6cea:	71 05       	cpc	r23, r1
    6cec:	81 05       	cpc	r24, r1
    6cee:	91 05       	cpc	r25, r1
    6cf0:	59 f4       	brne	.+22     	; 0x6d08 <writeFile+0x4ae>
        {
            TX_NEWLINE;
    6cf2:	8d e0       	ldi	r24, 0x0D	; 13
    6cf4:	0e 94 fa 42 	call	0x85f4	; 0x85f4 <transmitByte>
    6cf8:	8a e0       	ldi	r24, 0x0A	; 10
    6cfa:	0e 94 fa 42 	call	0x85f4	; 0x85f4 <transmitByte>
            Uart_Transmit_IT_PC((char*)(" No free cluster!"));
    6cfe:	80 e7       	ldi	r24, 0x70	; 112
    6d00:	98 e0       	ldi	r25, 0x08	; 8
    6d02:	0e 94 51 41 	call	0x82a2	; 0x82a2 <Uart_Transmit_IT_PC>
            return;
    6d06:	a4 c1       	rjmp	.+840    	; 0x7050 <writeFile+0x7f6>
        }

        getSetNextCluster(prevCluster, SET, cluster);
    6d08:	8b 01       	movw	r16, r22
    6d0a:	9c 01       	movw	r18, r24
    6d0c:	41 e0       	ldi	r20, 0x01	; 1
    6d0e:	c3 01       	movw	r24, r6
    6d10:	b2 01       	movw	r22, r4
    6d12:	0e 94 48 2e 	call	0x5c90	; 0x5c90 <getSetNextCluster>
        getSetNextCluster(cluster, SET, EOF);   //last cluster of the file, marked EOF
    6d16:	0f ef       	ldi	r16, 0xFF	; 255
    6d18:	1f ef       	ldi	r17, 0xFF	; 255
    6d1a:	2f ef       	ldi	r18, 0xFF	; 255
    6d1c:	3f e0       	ldi	r19, 0x0F	; 15
    6d1e:	41 e0       	ldi	r20, 0x01	; 1
    6d20:	c7 01       	movw	r24, r14
    6d22:	b6 01       	movw	r22, r12
    6d24:	0e 94 48 2e 	call	0x5c90	; 0x5c90 <getSetNextCluster>
    6d28:	80 e0       	ldi	r24, 0x00	; 0
            break;
        }

        prevCluster = cluster;

        cluster = searchNextFreeCluster(prevCluster); //look for a free cluster starting from the current cluster
    6d2a:	26 01       	movw	r4, r12
    6d2c:	37 01       	movw	r6, r14
            return;
        }

        getSetNextCluster(prevCluster, SET, cluster);
        getSetNextCluster(cluster, SET, EOF);   //last cluster of the file, marked EOF
    }
    6d2e:	68 ce       	rjmp	.-816    	; 0x6a00 <writeFile+0x1a6>

    getSetFreeCluster (NEXT_FREE, SET, cluster); //update FSinfo next free cluster entry

    if(appendFile)  //executes this loop if file is to be appended
    {
        SD_readSingleBlock (appendFileSector);
    6d30:	60 91 07 13 	lds	r22, 0x1307	; 0x801307 <appendFileSector>
    6d34:	70 91 08 13 	lds	r23, 0x1308	; 0x801308 <appendFileSector+0x1>
    6d38:	80 91 09 13 	lds	r24, 0x1309	; 0x801309 <appendFileSector+0x2>
    6d3c:	90 91 0a 13 	lds	r25, 0x130A	; 0x80130a <appendFileSector+0x3>
    6d40:	fa d1       	rcall	.+1012   	; 0x7136 <SD_readSingleBlock>
        dir = (struct dir_Structure *) &buffer[appendFileLocation];
    6d42:	e0 91 4c 0a 	lds	r30, 0x0A4C	; 0x800a4c <appendFileLocation>
    6d46:	f0 91 4d 0a 	lds	r31, 0x0A4D	; 0x800a4d <appendFileLocation+0x1>
    6d4a:	ec 56       	subi	r30, 0x6C	; 108
    6d4c:	f3 4f       	sbci	r31, 0xF3	; 243
        extraMemory = fileSize - dir->fileSize;
    6d4e:	80 91 69 0a 	lds	r24, 0x0A69	; 0x800a69 <fileSize>
    6d52:	90 91 6a 0a 	lds	r25, 0x0A6A	; 0x800a6a <fileSize+0x1>
    6d56:	a0 91 6b 0a 	lds	r26, 0x0A6B	; 0x800a6b <fileSize+0x2>
    6d5a:	b0 91 6c 0a 	lds	r27, 0x0A6C	; 0x800a6c <fileSize+0x3>
    6d5e:	44 8d       	ldd	r20, Z+28	; 0x1c
    6d60:	55 8d       	ldd	r21, Z+29	; 0x1d
    6d62:	66 8d       	ldd	r22, Z+30	; 0x1e
    6d64:	77 8d       	ldd	r23, Z+31	; 0x1f
    6d66:	6c 01       	movw	r12, r24
    6d68:	7d 01       	movw	r14, r26
    6d6a:	c4 1a       	sub	r12, r20
    6d6c:	d5 0a       	sbc	r13, r21
    6d6e:	e6 0a       	sbc	r14, r22
    6d70:	f7 0a       	sbc	r15, r23
        dir->fileSize = fileSize;
    6d72:	84 8f       	std	Z+28, r24	; 0x1c
    6d74:	95 8f       	std	Z+29, r25	; 0x1d
    6d76:	a6 8f       	std	Z+30, r26	; 0x1e
    6d78:	b7 8f       	std	Z+31, r27	; 0x1f
        SD_writeSingleBlock (appendFileSector);
    6d7a:	60 91 07 13 	lds	r22, 0x1307	; 0x801307 <appendFileSector>
    6d7e:	70 91 08 13 	lds	r23, 0x1308	; 0x801308 <appendFileSector+0x1>
    6d82:	80 91 09 13 	lds	r24, 0x1309	; 0x801309 <appendFileSector+0x2>
    6d86:	90 91 0a 13 	lds	r25, 0x130A	; 0x80130a <appendFileSector+0x3>
        freeMemoryUpdate (REMOVE, extraMemory); //updating free memory count in FSinfo sector;
    6d8a:	fd d1       	rcall	.+1018   	; 0x7186 <SD_writeSingleBlock>
    6d8c:	b7 01       	movw	r22, r14
    6d8e:	a6 01       	movw	r20, r12
    6d90:	81 e0       	ldi	r24, 0x01	; 1
    6d92:	1c da       	rcall	.-3016   	; 0x61cc <freeMemoryUpdate>


        TX_NEWLINE;
    6d94:	8d e0       	ldi	r24, 0x0D	; 13
    6d96:	0e 94 fa 42 	call	0x85f4	; 0x85f4 <transmitByte>
    6d9a:	8a e0       	ldi	r24, 0x0A	; 10
    6d9c:	0e 94 fa 42 	call	0x85f4	; 0x85f4 <transmitByte>
        Uart_Transmit_IT_PC((char*)(" File appended!"));
    6da0:	8c e9       	ldi	r24, 0x9C	; 156
    6da2:	98 e0       	ldi	r25, 0x08	; 8
    6da4:	0e 94 51 41 	call	0x82a2	; 0x82a2 <Uart_Transmit_IT_PC>
        TX_NEWLINE;
    6da8:	8d e0       	ldi	r24, 0x0D	; 13
    6daa:	0e 94 fa 42 	call	0x85f4	; 0x85f4 <transmitByte>
    6dae:	8a e0       	ldi	r24, 0x0A	; 10
    6db0:	0e 94 fa 42 	call	0x85f4	; 0x85f4 <transmitByte>
        return;
    6db4:	4d c1       	rjmp	.+666    	; 0x7050 <writeFile+0x7f6>
    }

//executes following portion when new file is created

    prevCluster = rootCluster; //root cluster
    6db6:	c0 90 7c 0a 	lds	r12, 0x0A7C	; 0x800a7c <rootCluster>
    6dba:	d0 90 7d 0a 	lds	r13, 0x0A7D	; 0x800a7d <rootCluster+0x1>
    6dbe:	e0 90 7e 0a 	lds	r14, 0x0A7E	; 0x800a7e <rootCluster+0x2>
    6dc2:	f0 90 7f 0a 	lds	r15, 0x0A7F	; 0x800a7f <rootCluster+0x3>
    6dc6:	cb 82       	std	Y+3, r12	; 0x03
    6dc8:	dc 82       	std	Y+4, r13	; 0x04
    6dca:	ed 82       	std	Y+5, r14	; 0x05
    6dcc:	fe 82       	std	Y+6, r15	; 0x06
//Arguments: pointer to the file name
//return: none
//************************************************************************************
void writeFile (unsigned char *fileName, unsigned char * INPUT)
{
    unsigned char j, data, error, fileCreatedFlag = 0, start = 0, appendFile = 0, sectorEndFlag = 0, sector;
    6dce:	19 82       	std	Y+1, r1	; 0x01
    6dd0:	2f 81       	ldd	r18, Y+7	; 0x07
    6dd2:	38 85       	ldd	r19, Y+8	; 0x08
    6dd4:	25 5f       	subi	r18, 0xF5	; 245
    6dd6:	3f 4f       	sbci	r19, 0xFF	; 255

                if((dir->name[0] == EMPTY) || (dir->name[0] == DELETED))  //looking for an empty slot to enter file info
                {
                    for(j=0; j<11; j++)
                        dir->name[j] = fileName[j];
                    dir->attrib = ATTR_ARCHIVE;   //settting file attribute as 'archive'
    6dd8:	68 94       	set
    6dda:	66 24       	eor	r6, r6
    6ddc:	65 f8       	bld	r6, 5
                    dir->NTreserved = 0;          //always set to 0
                    dir->timeTenth = 0;           //always set to 0
                    dir->createTime = 0x9684;     //fixed time of creation
    6dde:	0f 2e       	mov	r0, r31
    6de0:	f4 e8       	ldi	r31, 0x84	; 132
    6de2:	2f 2e       	mov	r2, r31
    6de4:	f6 e9       	ldi	r31, 0x96	; 150
    6de6:	3f 2e       	mov	r3, r31
    6de8:	f0 2d       	mov	r31, r0
                    dir->createDate = 0x3a37;     //fixed date of creation
    6dea:	0f 2e       	mov	r0, r31
    6dec:	f7 e3       	ldi	r31, 0x37	; 55
    6dee:	4f 2e       	mov	r4, r31
    6df0:	fa e3       	ldi	r31, 0x3A	; 58
    6df2:	5f 2e       	mov	r5, r31
    6df4:	f0 2d       	mov	r31, r0
    6df6:	ea 88       	ldd	r14, Y+18	; 0x12
    6df8:	fb 88       	ldd	r15, Y+19	; 0x13
    6dfa:	cc 88       	ldd	r12, Y+20	; 0x14
    6dfc:	dd 88       	ldd	r13, Y+21	; 0x15
    6dfe:	3e 87       	std	Y+14, r19	; 0x0e
    6e00:	2d 87       	std	Y+13, r18	; 0x0d

    prevCluster = rootCluster; //root cluster

    while(1)
    {
        firstSector = getFirstSector (prevCluster);
    6e02:	6b 81       	ldd	r22, Y+3	; 0x03
    6e04:	7c 81       	ldd	r23, Y+4	; 0x04
    6e06:	8d 81       	ldd	r24, Y+5	; 0x05
    6e08:	9e 81       	ldd	r25, Y+6	; 0x06
    6e0a:	0e 94 27 2e 	call	0x5c4e	; 0x5c4e <getFirstSector>
    6e0e:	69 87       	std	Y+9, r22	; 0x09
    6e10:	7a 87       	std	Y+10, r23	; 0x0a
    6e12:	8b 87       	std	Y+11, r24	; 0x0b
    6e14:	9c 87       	std	Y+12, r25	; 0x0c

        for(sector = 0; sector < sectorPerCluster; sector++)
    6e16:	80 91 96 0e 	lds	r24, 0x0E96	; 0x800e96 <sectorPerCluster>
    6e1a:	90 91 97 0e 	lds	r25, 0x0E97	; 0x800e97 <sectorPerCluster+0x1>
    6e1e:	89 2b       	or	r24, r25
    6e20:	09 f4       	brne	.+2      	; 0x6e24 <writeFile+0x5ca>
    6e22:	a4 c0       	rjmp	.+328    	; 0x6f6c <writeFile+0x712>
    6e24:	71 2c       	mov	r7, r1
        {
            SD_readSingleBlock (firstSector + sector);
    6e26:	89 84       	ldd	r8, Y+9	; 0x09
    6e28:	9a 84       	ldd	r9, Y+10	; 0x0a
    6e2a:	ab 84       	ldd	r10, Y+11	; 0x0b
    6e2c:	bc 84       	ldd	r11, Y+12	; 0x0c
    6e2e:	87 0c       	add	r8, r7
    6e30:	91 1c       	adc	r9, r1
    6e32:	a1 1c       	adc	r10, r1
    6e34:	b1 1c       	adc	r11, r1
    6e36:	c5 01       	movw	r24, r10
    6e38:	b4 01       	movw	r22, r8
    6e3a:	7d d1       	rcall	.+762    	; 0x7136 <SD_readSingleBlock>


            for(i=0; i<bytesPerSector; i+=32)
    6e3c:	80 91 6d 0a 	lds	r24, 0x0A6D	; 0x800a6d <bytesPerSector>
    6e40:	90 91 6e 0a 	lds	r25, 0x0A6E	; 0x800a6e <bytesPerSector+0x1>
    6e44:	89 2b       	or	r24, r25
    6e46:	09 f4       	brne	.+2      	; 0x6e4a <writeFile+0x5f0>
    6e48:	86 c0       	rjmp	.+268    	; 0x6f56 <writeFile+0x6fc>
            {
                dir = (struct dir_Structure *) &buffer[i];

                if(fileCreatedFlag)   //to mark last directory entry with 0x00 (empty) mark
    6e4a:	59 81       	ldd	r21, Y+1	; 0x01
    6e4c:	51 11       	cpse	r21, r1
    6e4e:	07 c0       	rjmp	.+14     	; 0x6e5e <writeFile+0x604>
    6e50:	84 e9       	ldi	r24, 0x94	; 148
    6e52:	9c e0       	ldi	r25, 0x0C	; 12
    6e54:	00 e0       	ldi	r16, 0x00	; 0
    6e56:	10 e0       	ldi	r17, 0x00	; 0
    6e58:	06 c0       	rjmp	.+12     	; 0x6e66 <writeFile+0x60c>
    6e5a:	80 96       	adiw	r24, 0x20	; 32
    6e5c:	04 c0       	rjmp	.+8      	; 0x6e66 <writeFile+0x60c>
            SD_readSingleBlock (firstSector + sector);


            for(i=0; i<bytesPerSector; i+=32)
            {
                dir = (struct dir_Structure *) &buffer[i];
    6e5e:	e4 e9       	ldi	r30, 0x94	; 148
    6e60:	fc e0       	ldi	r31, 0x0C	; 12

                if(fileCreatedFlag)   //to mark last directory entry with 0x00 (empty) mark
                {   //indicating end of the directory file list
                    dir->name[0] = 0x00;
    6e62:	10 82       	st	Z, r1
                    return;
    6e64:	f5 c0       	rjmp	.+490    	; 0x7050 <writeFile+0x7f6>
                }

                if((dir->name[0] == EMPTY) || (dir->name[0] == DELETED))  //looking for an empty slot to enter file info
    6e66:	fc 01       	movw	r30, r24
    6e68:	20 81       	ld	r18, Z
    6e6a:	22 23       	and	r18, r18
    6e6c:	19 f0       	breq	.+6      	; 0x6e74 <writeFile+0x61a>
    6e6e:	25 3e       	cpi	r18, 0xE5	; 229
    6e70:	09 f0       	breq	.+2      	; 0x6e74 <writeFile+0x61a>
    6e72:	67 c0       	rjmp	.+206    	; 0x6f42 <writeFile+0x6e8>
    6e74:	ef 81       	ldd	r30, Y+7	; 0x07
    6e76:	f8 85       	ldd	r31, Y+8	; 0x08
    6e78:	dc 01       	movw	r26, r24
                {
                    for(j=0; j<11; j++)
                        dir->name[j] = fileName[j];
    6e7a:	21 91       	ld	r18, Z+
    6e7c:	2d 93       	st	X+, r18
                    return;
                }

                if((dir->name[0] == EMPTY) || (dir->name[0] == DELETED))  //looking for an empty slot to enter file info
                {
                    for(j=0; j<11; j++)
    6e7e:	4d 85       	ldd	r20, Y+13	; 0x0d
    6e80:	5e 85       	ldd	r21, Y+14	; 0x0e
    6e82:	4e 17       	cp	r20, r30
    6e84:	5f 07       	cpc	r21, r31
    6e86:	c9 f7       	brne	.-14     	; 0x6e7a <writeFile+0x620>
                        dir->name[j] = fileName[j];
                    dir->attrib = ATTR_ARCHIVE;   //settting file attribute as 'archive'
    6e88:	dc 01       	movw	r26, r24
    6e8a:	1b 96       	adiw	r26, 0x0b	; 11
    6e8c:	6c 92       	st	X, r6
    6e8e:	1b 97       	sbiw	r26, 0x0b	; 11
                    dir->NTreserved = 0;          //always set to 0
    6e90:	1c 96       	adiw	r26, 0x0c	; 12
    6e92:	1c 92       	st	X, r1
    6e94:	1c 97       	sbiw	r26, 0x0c	; 12
                    dir->timeTenth = 0;           //always set to 0
    6e96:	1d 96       	adiw	r26, 0x0d	; 13
    6e98:	1c 92       	st	X, r1
    6e9a:	1d 97       	sbiw	r26, 0x0d	; 13
                    dir->createTime = 0x9684;     //fixed time of creation
    6e9c:	1f 96       	adiw	r26, 0x0f	; 15
    6e9e:	3c 92       	st	X, r3
    6ea0:	2e 92       	st	-X, r2
    6ea2:	1e 97       	sbiw	r26, 0x0e	; 14
                    dir->createDate = 0x3a37;     //fixed date of creation
    6ea4:	51 96       	adiw	r26, 0x11	; 17
    6ea6:	5c 92       	st	X, r5
    6ea8:	4e 92       	st	-X, r4
    6eaa:	50 97       	sbiw	r26, 0x10	; 16
                    dir->lastAccessDate = 0x3a37; //fixed date of last access
    6eac:	53 96       	adiw	r26, 0x13	; 19
    6eae:	5c 92       	st	X, r5
    6eb0:	4e 92       	st	-X, r4
    6eb2:	52 97       	sbiw	r26, 0x12	; 18
                    dir->writeTime = 0x9684;      //fixed time of last write
    6eb4:	57 96       	adiw	r26, 0x17	; 23
    6eb6:	3c 92       	st	X, r3
    6eb8:	2e 92       	st	-X, r2
    6eba:	56 97       	sbiw	r26, 0x16	; 22
                    dir->writeDate = 0x3a37;      //fixed date of last write
    6ebc:	59 96       	adiw	r26, 0x19	; 25
    6ebe:	5c 92       	st	X, r5
    6ec0:	4e 92       	st	-X, r4
    6ec2:	58 97       	sbiw	r26, 0x18	; 24
                    dir->firstClusterHI = firstClusterHigh;
    6ec4:	55 96       	adiw	r26, 0x15	; 21
    6ec6:	fc 92       	st	X, r15
    6ec8:	ee 92       	st	-X, r14
    6eca:	54 97       	sbiw	r26, 0x14	; 20
                    dir->firstClusterLO = firstClusterLow;
    6ecc:	5b 96       	adiw	r26, 0x1b	; 27
    6ece:	dc 92       	st	X, r13
    6ed0:	ce 92       	st	-X, r12
    6ed2:	5a 97       	sbiw	r26, 0x1a	; 26
                    dir->fileSize = fileSize;
    6ed4:	40 91 69 0a 	lds	r20, 0x0A69	; 0x800a69 <fileSize>
    6ed8:	50 91 6a 0a 	lds	r21, 0x0A6A	; 0x800a6a <fileSize+0x1>
    6edc:	60 91 6b 0a 	lds	r22, 0x0A6B	; 0x800a6b <fileSize+0x2>
    6ee0:	70 91 6c 0a 	lds	r23, 0x0A6C	; 0x800a6c <fileSize+0x3>
    6ee4:	fc 01       	movw	r30, r24
    6ee6:	44 8f       	std	Z+28, r20	; 0x1c
    6ee8:	55 8f       	std	Z+29, r21	; 0x1d
    6eea:	66 8f       	std	Z+30, r22	; 0x1e

                    SD_writeSingleBlock (firstSector + sector);
    6eec:	77 8f       	std	Z+31, r23	; 0x1f
    6eee:	c5 01       	movw	r24, r10
    6ef0:	b4 01       	movw	r22, r8
    6ef2:	49 d1       	rcall	.+658    	; 0x7186 <SD_writeSingleBlock>
                    fileCreatedFlag = 1;

                    TX_NEWLINE;
    6ef4:	8d e0       	ldi	r24, 0x0D	; 13
    6ef6:	0e 94 fa 42 	call	0x85f4	; 0x85f4 <transmitByte>
    6efa:	8a e0       	ldi	r24, 0x0A	; 10
    6efc:	0e 94 fa 42 	call	0x85f4	; 0x85f4 <transmitByte>
                    TX_NEWLINE;
    6f00:	8d e0       	ldi	r24, 0x0D	; 13
    6f02:	0e 94 fa 42 	call	0x85f4	; 0x85f4 <transmitByte>
    6f06:	8a e0       	ldi	r24, 0x0A	; 10
    6f08:	0e 94 fa 42 	call	0x85f4	; 0x85f4 <transmitByte>
                    Uart_Transmit_IT_PC((char*)(" File Created!"));
    6f0c:	8c ea       	ldi	r24, 0xAC	; 172
    6f0e:	98 e0       	ldi	r25, 0x08	; 8
    6f10:	0e 94 51 41 	call	0x82a2	; 0x82a2 <Uart_Transmit_IT_PC>

                    freeMemoryUpdate (REMOVE, fileSize); //updating free memory count in FSinfo sector
    6f14:	40 91 69 0a 	lds	r20, 0x0A69	; 0x800a69 <fileSize>
    6f18:	50 91 6a 0a 	lds	r21, 0x0A6A	; 0x800a6a <fileSize+0x1>
    6f1c:	60 91 6b 0a 	lds	r22, 0x0A6B	; 0x800a6b <fileSize+0x2>
    6f20:	70 91 6c 0a 	lds	r23, 0x0A6C	; 0x800a6c <fileSize+0x3>
    6f24:	81 e0       	ldi	r24, 0x01	; 1
    6f26:	52 d9       	rcall	.-3420   	; 0x61cc <freeMemoryUpdate>
        for(sector = 0; sector < sectorPerCluster; sector++)
        {
            SD_readSingleBlock (firstSector + sector);


            for(i=0; i<bytesPerSector; i+=32)
    6f28:	00 5e       	subi	r16, 0xE0	; 224
    6f2a:	1f 4f       	sbci	r17, 0xFF	; 255
    6f2c:	80 91 6d 0a 	lds	r24, 0x0A6D	; 0x800a6d <bytesPerSector>
    6f30:	90 91 6e 0a 	lds	r25, 0x0A6E	; 0x800a6e <bytesPerSector+0x1>
    6f34:	08 17       	cp	r16, r24
    6f36:	19 07       	cpc	r17, r25
    6f38:	08 f4       	brcc	.+2      	; 0x6f3c <writeFile+0x6e2>
    6f3a:	6b c0       	rjmp	.+214    	; 0x7012 <writeFile+0x7b8>
                    dir->firstClusterHI = firstClusterHigh;
                    dir->firstClusterLO = firstClusterLow;
                    dir->fileSize = fileSize;

                    SD_writeSingleBlock (firstSector + sector);
                    fileCreatedFlag = 1;
    6f3c:	f1 e0       	ldi	r31, 0x01	; 1
    6f3e:	f9 83       	std	Y+1, r31	; 0x01
    6f40:	0a c0       	rjmp	.+20     	; 0x6f56 <writeFile+0x6fc>
        for(sector = 0; sector < sectorPerCluster; sector++)
        {
            SD_readSingleBlock (firstSector + sector);


            for(i=0; i<bytesPerSector; i+=32)
    6f42:	00 5e       	subi	r16, 0xE0	; 224
    6f44:	1f 4f       	sbci	r17, 0xFF	; 255
    6f46:	20 91 6d 0a 	lds	r18, 0x0A6D	; 0x800a6d <bytesPerSector>
    6f4a:	30 91 6e 0a 	lds	r19, 0x0A6E	; 0x800a6e <bytesPerSector+0x1>
    6f4e:	02 17       	cp	r16, r18
    6f50:	13 07       	cpc	r17, r19
    6f52:	08 f4       	brcc	.+2      	; 0x6f56 <writeFile+0x6fc>
    6f54:	82 cf       	rjmp	.-252    	; 0x6e5a <writeFile+0x600>

    while(1)
    {
        firstSector = getFirstSector (prevCluster);

        for(sector = 0; sector < sectorPerCluster; sector++)
    6f56:	73 94       	inc	r7
    6f58:	80 91 96 0e 	lds	r24, 0x0E96	; 0x800e96 <sectorPerCluster>
    6f5c:	90 91 97 0e 	lds	r25, 0x0E97	; 0x800e97 <sectorPerCluster+0x1>
    6f60:	27 2d       	mov	r18, r7
    6f62:	30 e0       	ldi	r19, 0x00	; 0
    6f64:	28 17       	cp	r18, r24
    6f66:	39 07       	cpc	r19, r25
    6f68:	08 f4       	brcc	.+2      	; 0x6f6c <writeFile+0x712>
    6f6a:	5d cf       	rjmp	.-326    	; 0x6e26 <writeFile+0x5cc>

                }
            }
        }

        cluster = getSetNextCluster (prevCluster, GET, 0);
    6f6c:	00 e0       	ldi	r16, 0x00	; 0
    6f6e:	10 e0       	ldi	r17, 0x00	; 0
    6f70:	98 01       	movw	r18, r16
    6f72:	40 e0       	ldi	r20, 0x00	; 0
    6f74:	6b 81       	ldd	r22, Y+3	; 0x03
    6f76:	7c 81       	ldd	r23, Y+4	; 0x04
    6f78:	8d 81       	ldd	r24, Y+5	; 0x05
    6f7a:	9e 81       	ldd	r25, Y+6	; 0x06
    6f7c:	0e 94 48 2e 	call	0x5c90	; 0x5c90 <getSetNextCluster>

        if(cluster > 0x0ffffff6)
    6f80:	67 3f       	cpi	r22, 0xF7	; 247
    6f82:	5f ef       	ldi	r21, 0xFF	; 255
    6f84:	75 07       	cpc	r23, r21
    6f86:	85 07       	cpc	r24, r21
    6f88:	5f e0       	ldi	r21, 0x0F	; 15
    6f8a:	95 07       	cpc	r25, r21
        {
            if(cluster == EOF)   //this situation will come when total files in root is multiple of (32*sectorPerCluster)
    6f8c:	70 f1       	brcs	.+92     	; 0x6fea <writeFile+0x790>
    6f8e:	6f 3f       	cpi	r22, 0xFF	; 255
    6f90:	7f 4f       	sbci	r23, 0xFF	; 255
    6f92:	8f 4f       	sbci	r24, 0xFF	; 255
    6f94:	9f 40       	sbci	r25, 0x0F	; 15
            {
                cluster = searchNextFreeCluster(prevCluster); //find next cluster for root directory entries
    6f96:	21 f5       	brne	.+72     	; 0x6fe0 <writeFile+0x786>
    6f98:	6b 81       	ldd	r22, Y+3	; 0x03
    6f9a:	7c 81       	ldd	r23, Y+4	; 0x04
    6f9c:	8d 81       	ldd	r24, Y+5	; 0x05
    6f9e:	9e 81       	ldd	r25, Y+6	; 0x06
    6fa0:	12 d8       	rcall	.-4060   	; 0x5fc6 <searchNextFreeCluster>
    6fa2:	86 2e       	mov	r8, r22
    6fa4:	97 2e       	mov	r9, r23
    6fa6:	a8 2e       	mov	r10, r24
    6fa8:	b9 2e       	mov	r11, r25
                getSetNextCluster(prevCluster, SET, cluster); //link the new cluster of root to the previous cluster
    6faa:	06 2f       	mov	r16, r22
    6fac:	17 2f       	mov	r17, r23
    6fae:	28 2f       	mov	r18, r24
    6fb0:	39 2f       	mov	r19, r25
    6fb2:	41 e0       	ldi	r20, 0x01	; 1
    6fb4:	6b 81       	ldd	r22, Y+3	; 0x03
    6fb6:	7c 81       	ldd	r23, Y+4	; 0x04
    6fb8:	8d 81       	ldd	r24, Y+5	; 0x05
    6fba:	9e 81       	ldd	r25, Y+6	; 0x06
    6fbc:	0e 94 48 2e 	call	0x5c90	; 0x5c90 <getSetNextCluster>
                getSetNextCluster(cluster, SET, EOF);  //set the new cluster as end of the root directory
    6fc0:	0f ef       	ldi	r16, 0xFF	; 255
    6fc2:	1f ef       	ldi	r17, 0xFF	; 255
    6fc4:	2f ef       	ldi	r18, 0xFF	; 255
    6fc6:	3f e0       	ldi	r19, 0x0F	; 15
    6fc8:	41 e0       	ldi	r20, 0x01	; 1
    6fca:	68 2d       	mov	r22, r8
    6fcc:	79 2d       	mov	r23, r9
    6fce:	8a 2d       	mov	r24, r10
    6fd0:	9b 2d       	mov	r25, r11
    6fd2:	0e 94 48 2e 	call	0x5c90	; 0x5c90 <getSetNextCluster>

        if(cluster > 0x0ffffff6)
        {
            if(cluster == EOF)   //this situation will come when total files in root is multiple of (32*sectorPerCluster)
            {
                cluster = searchNextFreeCluster(prevCluster); //find next cluster for root directory entries
    6fd6:	8b 82       	std	Y+3, r8	; 0x03
    6fd8:	9c 82       	std	Y+4, r9	; 0x04
    6fda:	ad 82       	std	Y+5, r10	; 0x05
    6fdc:	be 82       	std	Y+6, r11	; 0x06
    6fde:	09 c0       	rjmp	.+18     	; 0x6ff2 <writeFile+0x798>
                getSetNextCluster(cluster, SET, EOF);  //set the new cluster as end of the root directory
            }

            else
            {
                Uart_Transmit_IT_PC((char*)("End of Cluster Chain"));
    6fe0:	8b eb       	ldi	r24, 0xBB	; 187
    6fe2:	98 e0       	ldi	r25, 0x08	; 8
    6fe4:	0e 94 51 41 	call	0x82a2	; 0x82a2 <Uart_Transmit_IT_PC>
                return;
    6fe8:	33 c0       	rjmp	.+102    	; 0x7050 <writeFile+0x7f6>

                }
            }
        }

        cluster = getSetNextCluster (prevCluster, GET, 0);
    6fea:	6b 83       	std	Y+3, r22	; 0x03
    6fec:	7c 83       	std	Y+4, r23	; 0x04
    6fee:	8d 83       	std	Y+5, r24	; 0x05
    6ff0:	9e 83       	std	Y+6, r25	; 0x06
            {
                Uart_Transmit_IT_PC((char*)("End of Cluster Chain"));
                return;
            }
        }
        if(cluster == 0) {
    6ff2:	2b 81       	ldd	r18, Y+3	; 0x03
    6ff4:	3c 81       	ldd	r19, Y+4	; 0x04
    6ff6:	4d 81       	ldd	r20, Y+5	; 0x05
    6ff8:	5e 81       	ldd	r21, Y+6	; 0x06
    6ffa:	23 2b       	or	r18, r19
    6ffc:	24 2b       	or	r18, r20
    6ffe:	25 2b       	or	r18, r21
    7000:	09 f0       	breq	.+2      	; 0x7004 <writeFile+0x7aa>
    7002:	ff ce       	rjmp	.-514    	; 0x6e02 <writeFile+0x5a8>
            Uart_Transmit_IT_PC((char*)("Error in getting cluster"));
    7004:	8c e1       	ldi	r24, 0x1C	; 28
    7006:	98 e0       	ldi	r25, 0x08	; 8
    7008:	0e 94 51 41 	call	0x82a2	; 0x82a2 <Uart_Transmit_IT_PC>
            return;
    700c:	21 c0       	rjmp	.+66     	; 0x7050 <writeFile+0x7f6>
        }
        else
        {
            startBlock = getFirstSector (cluster);
            i=0;
            j=0;
    700e:	23 2c       	mov	r2, r3
    7010:	44 cd       	rjmp	.-1400   	; 0x6a9a <writeFile+0x240>
            SD_readSingleBlock (firstSector + sector);


            for(i=0; i<bytesPerSector; i+=32)
            {
                dir = (struct dir_Structure *) &buffer[i];
    7012:	f8 01       	movw	r30, r16
    7014:	ec 56       	subi	r30, 0x6C	; 108
    7016:	f3 4f       	sbci	r31, 0xF3	; 243
    7018:	24 cf       	rjmp	.-440    	; 0x6e62 <writeFile+0x608>
                    j = 0;
                    break;
                }
                startBlock++;
            }
            counter ++;
    701a:	3f ef       	ldi	r19, 0xFF	; 255
    701c:	83 1a       	sub	r8, r19
    701e:	93 0a       	sbc	r9, r19
    7020:	a3 0a       	sbc	r10, r19
    7022:	b3 0a       	sbc	r11, r19
    7024:	23 2c       	mov	r2, r3
    7026:	39 cd       	rjmp	.-1422   	; 0x6a9a <writeFile+0x240>
        } while (data != '~');

        if(data == '~')
        {
            fileSize--;   //to remove the last entered '~' character
    7028:	80 91 69 0a 	lds	r24, 0x0A69	; 0x800a69 <fileSize>
    702c:	90 91 6a 0a 	lds	r25, 0x0A6A	; 0x800a6a <fileSize+0x1>
    7030:	a0 91 6b 0a 	lds	r26, 0x0A6B	; 0x800a6b <fileSize+0x2>
    7034:	b0 91 6c 0a 	lds	r27, 0x0A6C	; 0x800a6c <fileSize+0x3>
    7038:	01 97       	sbiw	r24, 0x01	; 1
    703a:	a1 09       	sbc	r26, r1
    703c:	b1 09       	sbc	r27, r1
    703e:	80 93 69 0a 	sts	0x0A69, r24	; 0x800a69 <fileSize>
    7042:	90 93 6a 0a 	sts	0x0A6A, r25	; 0x800a6a <fileSize+0x1>
    7046:	a0 93 6b 0a 	sts	0x0A6B, r26	; 0x800a6b <fileSize+0x2>
    704a:	b0 93 6c 0a 	sts	0x0A6C, r27	; 0x800a6c <fileSize+0x3>
    704e:	34 ce       	rjmp	.-920    	; 0x6cb8 <writeFile+0x45e>

        prevCluster = cluster;
    }

    return;
}
    7050:	67 96       	adiw	r28, 0x17	; 23
    7052:	0f b6       	in	r0, 0x3f	; 63
    7054:	f8 94       	cli
    7056:	de bf       	out	0x3e, r29	; 62
    7058:	0f be       	out	0x3f, r0	; 63
    705a:	cd bf       	out	0x3d, r28	; 61
    705c:	df 91       	pop	r29
    705e:	cf 91       	pop	r28
    7060:	1f 91       	pop	r17
    7062:	0f 91       	pop	r16
    7064:	ff 90       	pop	r15
    7066:	ef 90       	pop	r14
    7068:	df 90       	pop	r13
    706a:	cf 90       	pop	r12
    706c:	bf 90       	pop	r11
    706e:	af 90       	pop	r10
    7070:	9f 90       	pop	r9
    7072:	8f 90       	pop	r8
    7074:	7f 90       	pop	r7
    7076:	6f 90       	pop	r6
    7078:	5f 90       	pop	r5
    707a:	4f 90       	pop	r4
    707c:	3f 90       	pop	r3
    707e:	2f 90       	pop	r2
    7080:	08 95       	ret

00007082 <SD_sendCommand>:
    response = SD_sendCommand(ERASE_SELECTED_BLOCKS, 0); //erase all selected blocks
    if(response != 0x00)
        return response;

    return 0; //normal return
}
    7082:	cf 92       	push	r12
    7084:	df 92       	push	r13
    7086:	ef 92       	push	r14
    7088:	ff 92       	push	r15
    708a:	1f 93       	push	r17
    708c:	cf 93       	push	r28
    708e:	df 93       	push	r29
    7090:	18 2f       	mov	r17, r24
    7092:	6a 01       	movw	r12, r20
    7094:	7b 01       	movw	r14, r22
    7096:	80 91 a1 0f 	lds	r24, 0x0FA1	; 0x800fa1 <SDHC_flag>
    709a:	81 11       	cpse	r24, r1
    709c:	15 c0       	rjmp	.+42     	; 0x70c8 <SD_sendCommand+0x46>
    709e:	8f ee       	ldi	r24, 0xEF	; 239
    70a0:	81 0f       	add	r24, r17
    70a2:	82 30       	cpi	r24, 0x02	; 2
    70a4:	40 f0       	brcs	.+16     	; 0x70b6 <SD_sendCommand+0x34>
    70a6:	88 ee       	ldi	r24, 0xE8	; 232
    70a8:	81 0f       	add	r24, r17
    70aa:	82 30       	cpi	r24, 0x02	; 2
    70ac:	20 f0       	brcs	.+8      	; 0x70b6 <SD_sendCommand+0x34>
    70ae:	80 ee       	ldi	r24, 0xE0	; 224
    70b0:	81 0f       	add	r24, r17
    70b2:	82 30       	cpi	r24, 0x02	; 2
    70b4:	48 f4       	brcc	.+18     	; 0x70c8 <SD_sendCommand+0x46>
    70b6:	0b 2e       	mov	r0, r27
    70b8:	b9 e0       	ldi	r27, 0x09	; 9
    70ba:	cc 0c       	add	r12, r12
    70bc:	dd 1c       	adc	r13, r13
    70be:	ee 1c       	adc	r14, r14
    70c0:	ff 1c       	adc	r15, r15
    70c2:	ba 95       	dec	r27
    70c4:	d1 f7       	brne	.-12     	; 0x70ba <SD_sendCommand+0x38>
    70c6:	b0 2d       	mov	r27, r0
    70c8:	a5 98       	cbi	0x14, 5	; 20
    70ca:	81 2f       	mov	r24, r17
    70cc:	80 64       	ori	r24, 0x40	; 64
    70ce:	6f d4       	rcall	.+2270   	; 0x79ae <spi_transmit>
    70d0:	8f 2d       	mov	r24, r15
    70d2:	6d d4       	rcall	.+2266   	; 0x79ae <spi_transmit>
    70d4:	8e 2d       	mov	r24, r14
    70d6:	6b d4       	rcall	.+2262   	; 0x79ae <spi_transmit>
    70d8:	8d 2d       	mov	r24, r13
    70da:	69 d4       	rcall	.+2258   	; 0x79ae <spi_transmit>
    70dc:	8c 2d       	mov	r24, r12
    70de:	67 d4       	rcall	.+2254   	; 0x79ae <spi_transmit>
    70e0:	18 30       	cpi	r17, 0x08	; 8
    70e2:	19 f4       	brne	.+6      	; 0x70ea <SD_sendCommand+0x68>
    70e4:	87 e8       	ldi	r24, 0x87	; 135
    70e6:	63 d4       	rcall	.+2246   	; 0x79ae <spi_transmit>
    70e8:	06 c0       	rjmp	.+12     	; 0x70f6 <SD_sendCommand+0x74>
    70ea:	85 e9       	ldi	r24, 0x95	; 149
    70ec:	60 d4       	rcall	.+2240   	; 0x79ae <spi_transmit>
    70ee:	03 c0       	rjmp	.+6      	; 0x70f6 <SD_sendCommand+0x74>
    70f0:	c1 50       	subi	r28, 0x01	; 1
    70f2:	11 f4       	brne	.+4      	; 0x70f8 <SD_sendCommand+0x76>
    70f4:	15 c0       	rjmp	.+42     	; 0x7120 <SD_sendCommand+0x9e>
    70f6:	c0 e0       	ldi	r28, 0x00	; 0
    70f8:	5f d4       	rcall	.+2238   	; 0x79b8 <spi_receive>
    70fa:	d8 2f       	mov	r29, r24
    70fc:	8f 3f       	cpi	r24, 0xFF	; 255
    70fe:	c1 f3       	breq	.-16     	; 0x70f0 <SD_sendCommand+0x6e>
    7100:	81 11       	cpse	r24, r1
    7102:	0e c0       	rjmp	.+28     	; 0x7120 <SD_sendCommand+0x9e>
    7104:	1a 33       	cpi	r17, 0x3A	; 58
    7106:	61 f4       	brne	.+24     	; 0x7120 <SD_sendCommand+0x9e>
    7108:	57 d4       	rcall	.+2222   	; 0x79b8 <spi_receive>
    710a:	86 ff       	sbrs	r24, 6
    710c:	04 c0       	rjmp	.+8      	; 0x7116 <SD_sendCommand+0x94>
    710e:	81 e0       	ldi	r24, 0x01	; 1
    7110:	80 93 a1 0f 	sts	0x0FA1, r24	; 0x800fa1 <SDHC_flag>
    7114:	02 c0       	rjmp	.+4      	; 0x711a <SD_sendCommand+0x98>
    7116:	10 92 a1 0f 	sts	0x0FA1, r1	; 0x800fa1 <SDHC_flag>
    711a:	4e d4       	rcall	.+2204   	; 0x79b8 <spi_receive>
    711c:	4d d4       	rcall	.+2202   	; 0x79b8 <spi_receive>
    711e:	4c d4       	rcall	.+2200   	; 0x79b8 <spi_receive>
    7120:	4b d4       	rcall	.+2198   	; 0x79b8 <spi_receive>
    7122:	a5 9a       	sbi	0x14, 5	; 20
    7124:	8d 2f       	mov	r24, r29
    7126:	df 91       	pop	r29
    7128:	cf 91       	pop	r28
    712a:	1f 91       	pop	r17
    712c:	ff 90       	pop	r15
    712e:	ef 90       	pop	r14
    7130:	df 90       	pop	r13
    7132:	cf 90       	pop	r12
    7134:	08 95       	ret

00007136 <SD_readSingleBlock>:
//Arguments : none
//return    : unsigned char; will be 0 if no error,
//            otherwise the response byte will be sent
//******************************************************************
unsigned char SD_readSingleBlock(unsigned long startBlock)
{
    7136:	cf 93       	push	r28
    7138:	df 93       	push	r29
    713a:	ab 01       	movw	r20, r22
    713c:	bc 01       	movw	r22, r24
    unsigned char response;
    unsigned int i, retry=0;

    response = SD_sendCommand(READ_SINGLE_BLOCK, startBlock); //read a Block command
    713e:	81 e1       	ldi	r24, 0x11	; 17
    7140:	a0 df       	rcall	.-192    	; 0x7082 <SD_sendCommand>

    if(response != 0x00) return response; //check for SD status: 0x00 - OK (No flags set)
    7142:	81 11       	cpse	r24, r1
    7144:	1d c0       	rjmp	.+58     	; 0x7180 <SD_readSingleBlock+0x4a>

    SD_CS_ASSERT;
    7146:	a5 98       	cbi	0x14, 5	; 20

    retry = 0;
    while(spi_receive() != 0xfe) //wait for start block token 0xfe (0x11111110)
    7148:	c0 e0       	ldi	r28, 0x00	; 0
    714a:	d0 e0       	ldi	r29, 0x00	; 0
    714c:	05 c0       	rjmp	.+10     	; 0x7158 <SD_readSingleBlock+0x22>
    714e:	21 97       	sbiw	r28, 0x01	; 1
        if(retry++ > 0xfffe) {
    7150:	19 f4       	brne	.+6      	; 0x7158 <SD_readSingleBlock+0x22>
            SD_CS_DEASSERT;    //return if time-out
    7152:	a5 9a       	sbi	0x14, 5	; 20
            return 1;
    7154:	81 e0       	ldi	r24, 0x01	; 1
    if(response != 0x00) return response; //check for SD status: 0x00 - OK (No flags set)

    SD_CS_ASSERT;

    retry = 0;
    while(spi_receive() != 0xfe) //wait for start block token 0xfe (0x11111110)
    7156:	14 c0       	rjmp	.+40     	; 0x7180 <SD_readSingleBlock+0x4a>
    7158:	2f d4       	rcall	.+2142   	; 0x79b8 <spi_receive>
    715a:	8e 3f       	cpi	r24, 0xFE	; 254
    715c:	c1 f7       	brne	.-16     	; 0x714e <SD_readSingleBlock+0x18>
    715e:	c0 e0       	ldi	r28, 0x00	; 0
            SD_CS_DEASSERT;    //return if time-out
            return 1;
        }

    for(i=0; i<512; i++) //read 512 bytes
        buffer[i] = spi_receive();
    7160:	d0 e0       	ldi	r29, 0x00	; 0
    7162:	2a d4       	rcall	.+2132   	; 0x79b8 <spi_receive>
    7164:	fe 01       	movw	r30, r28
    7166:	ec 56       	subi	r30, 0x6C	; 108
    7168:	f3 4f       	sbci	r31, 0xF3	; 243
    716a:	80 83       	st	Z, r24
        if(retry++ > 0xfffe) {
            SD_CS_DEASSERT;    //return if time-out
            return 1;
        }

    for(i=0; i<512; i++) //read 512 bytes
    716c:	21 96       	adiw	r28, 0x01	; 1
    716e:	c1 15       	cp	r28, r1
    7170:	82 e0       	ldi	r24, 0x02	; 2
        buffer[i] = spi_receive();

    spi_receive(); //receive incoming CRC (16-bit), CRC is ignored here
    7172:	d8 07       	cpc	r29, r24
    7174:	b1 f7       	brne	.-20     	; 0x7162 <SD_readSingleBlock+0x2c>
    spi_receive();
    7176:	20 d4       	rcall	.+2112   	; 0x79b8 <spi_receive>
    7178:	1f d4       	rcall	.+2110   	; 0x79b8 <spi_receive>

    spi_receive(); //extra 8 clock pulses
    717a:	1e d4       	rcall	.+2108   	; 0x79b8 <spi_receive>
    717c:	a5 9a       	sbi	0x14, 5	; 20
    SD_CS_DEASSERT;
    717e:	80 e0       	ldi	r24, 0x00	; 0

    return 0;
    7180:	df 91       	pop	r29
}
    7182:	cf 91       	pop	r28
    7184:	08 95       	ret

00007186 <SD_writeSingleBlock>:
    7186:	cf 93       	push	r28
//Arguments : none
//return    : unsigned char; will be 0 if no error,
//            otherwise the response byte will be sent
//******************************************************************
unsigned char SD_writeSingleBlock(unsigned long startBlock)
{
    7188:	df 93       	push	r29
    718a:	ab 01       	movw	r20, r22
    718c:	bc 01       	movw	r22, r24
    unsigned char response;
    unsigned int i, retry=0;

    response = SD_sendCommand(WRITE_SINGLE_BLOCK, startBlock); //write a Block command
    718e:	88 e1       	ldi	r24, 0x18	; 24
    7190:	78 df       	rcall	.-272    	; 0x7082 <SD_sendCommand>

    if(response != 0x00) return response; //check for SD status: 0x00 - OK (No flags set)
    7192:	81 11       	cpse	r24, r1
    7194:	36 c0       	rjmp	.+108    	; 0x7202 <SD_writeSingleBlock+0x7c>

    SD_CS_ASSERT;
    7196:	a5 98       	cbi	0x14, 5	; 20

    spi_transmit(0xfe);     //Send start block token 0xfe (0x11111110)
    7198:	8e ef       	ldi	r24, 0xFE	; 254
    719a:	09 d4       	rcall	.+2066   	; 0x79ae <spi_transmit>

    for(i=0; i<512; i++)    //send 512 bytes data
    719c:	c0 e0       	ldi	r28, 0x00	; 0
    719e:	d0 e0       	ldi	r29, 0x00	; 0
        spi_transmit(buffer[i]);
    71a0:	fe 01       	movw	r30, r28
    71a2:	ec 56       	subi	r30, 0x6C	; 108
    71a4:	f3 4f       	sbci	r31, 0xF3	; 243
    71a6:	80 81       	ld	r24, Z
    71a8:	02 d4       	rcall	.+2052   	; 0x79ae <spi_transmit>

    SD_CS_ASSERT;

    spi_transmit(0xfe);     //Send start block token 0xfe (0x11111110)

    for(i=0; i<512; i++)    //send 512 bytes data
    71aa:	21 96       	adiw	r28, 0x01	; 1
    71ac:	c1 15       	cp	r28, r1
    71ae:	22 e0       	ldi	r18, 0x02	; 2
    71b0:	d2 07       	cpc	r29, r18
        spi_transmit(buffer[i]);

    spi_transmit(0xff);     //transmit dummy CRC (16-bit), CRC is ignored here
    71b2:	b1 f7       	brne	.-20     	; 0x71a0 <SD_writeSingleBlock+0x1a>
    spi_transmit(0xff);
    71b4:	8f ef       	ldi	r24, 0xFF	; 255
    71b6:	fb d3       	rcall	.+2038   	; 0x79ae <spi_transmit>
    71b8:	8f ef       	ldi	r24, 0xFF	; 255

    response = spi_receive();
    71ba:	f9 d3       	rcall	.+2034   	; 0x79ae <spi_transmit>
    71bc:	fd d3       	rcall	.+2042   	; 0x79b8 <spi_receive>

    if( (response & 0x1f) != 0x05) //response= 0xXXX0AAA1 ; AAA='010' - data accepted
    71be:	98 2f       	mov	r25, r24
    71c0:	9f 71       	andi	r25, 0x1F	; 31
    71c2:	95 30       	cpi	r25, 0x05	; 5
    71c4:	39 f0       	breq	.+14     	; 0x71d4 <SD_writeSingleBlock+0x4e>
    {   //AAA='101'-data rejected due to CRC error
        SD_CS_DEASSERT;              //AAA='110'-data rejected due to write error
    71c6:	a5 9a       	sbi	0x14, 5	; 20
        return response;
    71c8:	1c c0       	rjmp	.+56     	; 0x7202 <SD_writeSingleBlock+0x7c>
    }

    while(!spi_receive()) //wait for SD card to complete writing and get idle
        if(retry++ > 0xfffe) {
    71ca:	21 96       	adiw	r28, 0x01	; 1
            SD_CS_DEASSERT;
    71cc:	29 f4       	brne	.+10     	; 0x71d8 <SD_writeSingleBlock+0x52>
            return 1;
    71ce:	a5 9a       	sbi	0x14, 5	; 20
    71d0:	81 e0       	ldi	r24, 0x01	; 1
    71d2:	17 c0       	rjmp	.+46     	; 0x7202 <SD_writeSingleBlock+0x7c>
    {   //AAA='101'-data rejected due to CRC error
        SD_CS_DEASSERT;              //AAA='110'-data rejected due to write error
        return response;
    }

    while(!spi_receive()) //wait for SD card to complete writing and get idle
    71d4:	c0 e0       	ldi	r28, 0x00	; 0
    71d6:	d0 e0       	ldi	r29, 0x00	; 0
    71d8:	ef d3       	rcall	.+2014   	; 0x79b8 <spi_receive>
    71da:	88 23       	and	r24, r24
        if(retry++ > 0xfffe) {
            SD_CS_DEASSERT;
            return 1;
        }

    SD_CS_DEASSERT;
    71dc:	b1 f3       	breq	.-20     	; 0x71ca <SD_writeSingleBlock+0x44>
    spi_transmit(0xff);   //just spend 8 clock cycle delay before reasserting the CS line
    71de:	a5 9a       	sbi	0x14, 5	; 20
    71e0:	8f ef       	ldi	r24, 0xFF	; 255
    71e2:	e5 d3       	rcall	.+1994   	; 0x79ae <spi_transmit>
    SD_CS_ASSERT;         //re-asserting the CS line to verify if card is still busy
    71e4:	a5 98       	cbi	0x14, 5	; 20

    while(!spi_receive()) //wait for SD card to complete writing and get idle
    71e6:	08 c0       	rjmp	.+16     	; 0x71f8 <SD_writeSingleBlock+0x72>
        if(retry++ > 0xfffe) {
    71e8:	ce 01       	movw	r24, r28
    71ea:	01 96       	adiw	r24, 0x01	; 1
    71ec:	21 96       	adiw	r28, 0x01	; 1
            SD_CS_DEASSERT;
    71ee:	19 f4       	brne	.+6      	; 0x71f6 <SD_writeSingleBlock+0x70>
            return 1;
    71f0:	a5 9a       	sbi	0x14, 5	; 20
    71f2:	81 e0       	ldi	r24, 0x01	; 1
    SD_CS_DEASSERT;
    spi_transmit(0xff);   //just spend 8 clock cycle delay before reasserting the CS line
    SD_CS_ASSERT;         //re-asserting the CS line to verify if card is still busy

    while(!spi_receive()) //wait for SD card to complete writing and get idle
        if(retry++ > 0xfffe) {
    71f4:	06 c0       	rjmp	.+12     	; 0x7202 <SD_writeSingleBlock+0x7c>

    SD_CS_DEASSERT;
    spi_transmit(0xff);   //just spend 8 clock cycle delay before reasserting the CS line
    SD_CS_ASSERT;         //re-asserting the CS line to verify if card is still busy

    while(!spi_receive()) //wait for SD card to complete writing and get idle
    71f6:	ec 01       	movw	r28, r24
    71f8:	df d3       	rcall	.+1982   	; 0x79b8 <spi_receive>
    71fa:	88 23       	and	r24, r24
    71fc:	a9 f3       	breq	.-22     	; 0x71e8 <SD_writeSingleBlock+0x62>
        if(retry++ > 0xfffe) {
            SD_CS_DEASSERT;
            return 1;
        }
    SD_CS_DEASSERT;
    71fe:	a5 9a       	sbi	0x14, 5	; 20

    return 0;
    7200:	80 e0       	ldi	r24, 0x00	; 0
}
    7202:	df 91       	pop	r29
    7204:	cf 91       	pop	r28
    7206:	08 95       	ret

00007208 <linear_ramp_init>:
*  Author: kimsc
*/
#include "Ramp1.h"

void linear_ramp_init(linear_ramp_t * ramp)
{
    7208:	fc 01       	movw	r30, r24
    ramp->ramp_enable = 0;
    720a:	10 82       	st	Z, r1

    ramp->ramp_timer = 0.0;
    720c:	11 82       	std	Z+1, r1	; 0x01
    720e:	12 82       	std	Z+2, r1	; 0x02
    7210:	13 82       	std	Z+3, r1	; 0x03
    7212:	14 82       	std	Z+4, r1	; 0x04
    ramp->ramp_timer_iteration = 0.0;
    7214:	15 82       	std	Z+5, r1	; 0x05
    7216:	16 82       	std	Z+6, r1	; 0x06
    7218:	17 82       	std	Z+7, r1	; 0x07
    721a:	10 86       	std	Z+8, r1	; 0x08

    ramp->ramp_acceleration_time = 0.0;
    721c:	11 86       	std	Z+9, r1	; 0x09
    721e:	12 86       	std	Z+10, r1	; 0x0a
    7220:	13 86       	std	Z+11, r1	; 0x0b
    7222:	14 86       	std	Z+12, r1	; 0x0c
    ramp->ramp_fullspeed_time = 0.0;
    7224:	15 86       	std	Z+13, r1	; 0x0d
    7226:	16 86       	std	Z+14, r1	; 0x0e
    7228:	17 86       	std	Z+15, r1	; 0x0f
    722a:	10 8a       	std	Z+16, r1	; 0x10
    ramp->ramp_x_0 = 0.0;
    722c:	15 8a       	std	Z+21, r1	; 0x15
    722e:	16 8a       	std	Z+22, r1	; 0x16
    7230:	17 8a       	std	Z+23, r1	; 0x17
    7232:	10 8e       	std	Z+24, r1	; 0x18
    ramp->ramp_v_0 = 0.0;
    7234:	11 8e       	std	Z+25, r1	; 0x19
    7236:	12 8e       	std	Z+26, r1	; 0x1a
    7238:	13 8e       	std	Z+27, r1	; 0x1b
    723a:	14 8e       	std	Z+28, r1	; 0x1c

    ramp->ramp_acceleration = 0.0;
    723c:	15 8e       	std	Z+29, r1	; 0x1d
    723e:	16 8e       	std	Z+30, r1	; 0x1e
    7240:	17 8e       	std	Z+31, r1	; 0x1f
    7242:	10 a2       	std	Z+32, r1	; 0x20
    ramp->ramp_velocity = 0.0;
    7244:	11 a2       	std	Z+33, r1	; 0x21
    7246:	12 a2       	std	Z+34, r1	; 0x22
    7248:	13 a2       	std	Z+35, r1	; 0x23
    724a:	14 a2       	std	Z+36, r1	; 0x24
    ramp->ramp_position = 0.0;
    724c:	15 a2       	std	Z+37, r1	; 0x25
    724e:	16 a2       	std	Z+38, r1	; 0x26
    7250:	17 a2       	std	Z+39, r1	; 0x27
    7252:	10 a6       	std	Z+40, r1	; 0x28

    ramp->target_acceleration = 0.0;
    7254:	11 a6       	std	Z+41, r1	; 0x29
    7256:	12 a6       	std	Z+42, r1	; 0x2a
    7258:	13 a6       	std	Z+43, r1	; 0x2b
    725a:	14 a6       	std	Z+44, r1	; 0x2c
    ramp->target_velocity = 0.0;
    725c:	15 a6       	std	Z+45, r1	; 0x2d
    725e:	16 a6       	std	Z+46, r1	; 0x2e
    7260:	17 a6       	std	Z+47, r1	; 0x2f
    7262:	10 aa       	std	Z+48, r1	; 0x30
    ramp->target_position_absolute = 0.0;
    7264:	11 aa       	std	Z+49, r1	; 0x31
    7266:	12 aa       	std	Z+50, r1	; 0x32
    7268:	13 aa       	std	Z+51, r1	; 0x33
    726a:	14 aa       	std	Z+52, r1	; 0x34

    ramp->max_acceleration = 0.0;
    726c:	11 ae       	std	Z+57, r1	; 0x39
    726e:	12 ae       	std	Z+58, r1	; 0x3a
    7270:	13 ae       	std	Z+59, r1	; 0x3b
    7272:	14 ae       	std	Z+60, r1	; 0x3c
    ramp->max_velocity = 0.0;
    7274:	15 aa       	std	Z+53, r1	; 0x35
    7276:	16 aa       	std	Z+54, r1	; 0x36
    7278:	17 aa       	std	Z+55, r1	; 0x37
    727a:	10 ae       	std	Z+56, r1	; 0x38
    727c:	08 95       	ret

0000727e <linear_ramp_set_defaults>:
}
void linear_ramp_set_defaults(linear_ramp_t * ramp)
{
    727e:	fc 01       	movw	r30, r24
    ramp->ramp_enable = 0;              // Status
    7280:	10 82       	st	Z, r1

    // Following variables shouldn't be edited, they are used for the calculation of the ramp

    ramp->ramp_timer = 0.0;             // Iteration trough calculations
    7282:	11 82       	std	Z+1, r1	; 0x01
    7284:	12 82       	std	Z+2, r1	; 0x02
    7286:	13 82       	std	Z+3, r1	; 0x03
    7288:	14 82       	std	Z+4, r1	; 0x04
    ramp->ramp_timer_iteration = 0.001; // Timer interrupt each
    728a:	8f e6       	ldi	r24, 0x6F	; 111
    728c:	92 e1       	ldi	r25, 0x12	; 18
    728e:	a3 e8       	ldi	r26, 0x83	; 131
    7290:	ba e3       	ldi	r27, 0x3A	; 58
    7292:	85 83       	std	Z+5, r24	; 0x05
    7294:	96 83       	std	Z+6, r25	; 0x06
    7296:	a7 83       	std	Z+7, r26	; 0x07
    7298:	b0 87       	std	Z+8, r27	; 0x08

    ramp->ramp_acceleration_time = 0.0; // Acceleration time
    729a:	11 86       	std	Z+9, r1	; 0x09
    729c:	12 86       	std	Z+10, r1	; 0x0a
    729e:	13 86       	std	Z+11, r1	; 0x0b
    72a0:	14 86       	std	Z+12, r1	; 0x0c
    ramp->ramp_fullspeed_time = 0.0;    // Fullspeed time
    72a2:	15 86       	std	Z+13, r1	; 0x0d
    72a4:	16 86       	std	Z+14, r1	; 0x0e
    72a6:	17 86       	std	Z+15, r1	; 0x0f
    72a8:	10 8a       	std	Z+16, r1	; 0x10

    ramp->ramp_x_0 = 0.0;
    72aa:	15 8a       	std	Z+21, r1	; 0x15
    72ac:	16 8a       	std	Z+22, r1	; 0x16
    72ae:	17 8a       	std	Z+23, r1	; 0x17
    72b0:	10 8e       	std	Z+24, r1	; 0x18
    ramp->ramp_v_0 = 0.0;
    72b2:	11 8e       	std	Z+25, r1	; 0x19
    72b4:	12 8e       	std	Z+26, r1	; 0x1a
    72b6:	13 8e       	std	Z+27, r1	; 0x1b
    72b8:	14 8e       	std	Z+28, r1	; 0x1c

    ramp->target_acceleration = 0.0;
    72ba:	11 a6       	std	Z+41, r1	; 0x29
    72bc:	12 a6       	std	Z+42, r1	; 0x2a
    72be:	13 a6       	std	Z+43, r1	; 0x2b
    72c0:	14 a6       	std	Z+44, r1	; 0x2c
    ramp->target_velocity = 0.0;
    72c2:	15 a6       	std	Z+45, r1	; 0x2d
    72c4:	16 a6       	std	Z+46, r1	; 0x2e
    72c6:	17 a6       	std	Z+47, r1	; 0x2f
    72c8:	10 aa       	std	Z+48, r1	; 0x30
    ramp->target_position_absolute = 0.0;       // Absolute target position
    72ca:	11 aa       	std	Z+49, r1	; 0x31
    72cc:	12 aa       	std	Z+50, r1	; 0x32
    72ce:	13 aa       	std	Z+51, r1	; 0x33
    72d0:	14 aa       	std	Z+52, r1	; 0x34

    // Following 2 variables determine maximum ratings

    ramp->max_acceleration = 500.0;
    72d2:	80 e0       	ldi	r24, 0x00	; 0
    72d4:	90 e0       	ldi	r25, 0x00	; 0
    72d6:	aa ef       	ldi	r26, 0xFA	; 250
    72d8:	b3 e4       	ldi	r27, 0x43	; 67
    72da:	81 af       	std	Z+57, r24	; 0x39
    72dc:	92 af       	std	Z+58, r25	; 0x3a
    72de:	a3 af       	std	Z+59, r26	; 0x3b
    72e0:	b4 af       	std	Z+60, r27	; 0x3c
    ramp->max_velocity = 500.0;
    72e2:	85 ab       	std	Z+53, r24	; 0x35
    72e4:	96 ab       	std	Z+54, r25	; 0x36
    72e6:	a7 ab       	std	Z+55, r26	; 0x37
    72e8:	b0 af       	std	Z+56, r27	; 0x38

    // Following 3 variables should be used as outputs to control the motor according to the ramp

    ramp->ramp_acceleration = 0.0;      // Ramp acceleration actual
    72ea:	15 8e       	std	Z+29, r1	; 0x1d
    72ec:	16 8e       	std	Z+30, r1	; 0x1e
    72ee:	17 8e       	std	Z+31, r1	; 0x1f
    72f0:	10 a2       	std	Z+32, r1	; 0x20
    ramp->ramp_velocity = 0.0;          // Ramp velocity actual
    72f2:	11 a2       	std	Z+33, r1	; 0x21
    72f4:	12 a2       	std	Z+34, r1	; 0x22
    72f6:	13 a2       	std	Z+35, r1	; 0x23
    72f8:	14 a2       	std	Z+36, r1	; 0x24
    ramp->ramp_position = 0.0;          // Ramp position actual
    72fa:	15 a2       	std	Z+37, r1	; 0x25
    72fc:	16 a2       	std	Z+38, r1	; 0x26
    72fe:	17 a2       	std	Z+39, r1	; 0x27
    7300:	10 a6       	std	Z+40, r1	; 0x28
    7302:	08 95       	ret

00007304 <calculateRamp>:
}
void calculateRamp(float acceleration, float velocity, float position, linear_ramp_t * ramp)
{
    7304:	cf 92       	push	r12
    7306:	df 92       	push	r13
    7308:	ef 92       	push	r14
    730a:	ff 92       	push	r15
    730c:	0f 93       	push	r16
    730e:	1f 93       	push	r17
    7310:	f6 01       	movw	r30, r12
    // Beginn mit Setzen der Parameter, welche in die Funktion gegeben werden.
    ramp->target_acceleration = acceleration;
    7312:	61 a7       	std	Z+41, r22	; 0x29
    7314:	72 a7       	std	Z+42, r23	; 0x2a
    7316:	83 a7       	std	Z+43, r24	; 0x2b
    7318:	94 a7       	std	Z+44, r25	; 0x2c
    ramp->target_velocity = velocity;
    731a:	25 a7       	std	Z+45, r18	; 0x2d
    731c:	36 a7       	std	Z+46, r19	; 0x2e
    731e:	47 a7       	std	Z+47, r20	; 0x2f
    7320:	50 ab       	std	Z+48, r21	; 0x30
    ramp->target_position_absolute = position;
    7322:	e1 aa       	std	Z+49, r14	; 0x31
    7324:	f2 aa       	std	Z+50, r15	; 0x32
    7326:	03 ab       	std	Z+51, r16	; 0x33
    7328:	14 ab       	std	Z+52, r17	; 0x34
    ramp->ramp_enable = 1;
    732a:	81 e0       	ldi	r24, 0x01	; 1
    732c:	80 83       	st	Z, r24
}
    732e:	1f 91       	pop	r17
    7330:	0f 91       	pop	r16
    7332:	ff 90       	pop	r15
    7334:	ef 90       	pop	r14
    7336:	df 90       	pop	r13
    7338:	cf 90       	pop	r12
    733a:	08 95       	ret

0000733c <iterate_timer>:
            break;
        }
    }
}
float iterate_timer(linear_ramp_t * ramp)
{
    733c:	cf 93       	push	r28
    733e:	df 93       	push	r29
    7340:	ec 01       	movw	r28, r24
    ramp->ramp_timer += ramp->ramp_timer_iteration;
    7342:	2d 81       	ldd	r18, Y+5	; 0x05
    7344:	3e 81       	ldd	r19, Y+6	; 0x06
    7346:	4f 81       	ldd	r20, Y+7	; 0x07
    7348:	58 85       	ldd	r21, Y+8	; 0x08
    734a:	69 81       	ldd	r22, Y+1	; 0x01
    734c:	7a 81       	ldd	r23, Y+2	; 0x02
    734e:	8b 81       	ldd	r24, Y+3	; 0x03
    7350:	9c 81       	ldd	r25, Y+4	; 0x04
    7352:	0e 94 80 43 	call	0x8700	; 0x8700 <__addsf3>
    7356:	69 83       	std	Y+1, r22	; 0x01
    7358:	7a 83       	std	Y+2, r23	; 0x02
    735a:	8b 83       	std	Y+3, r24	; 0x03
    735c:	9c 83       	std	Y+4, r25	; 0x04
    return ramp->ramp_timer;
}
    735e:	df 91       	pop	r29
    7360:	cf 91       	pop	r28
    7362:	08 95       	ret

00007364 <computeRamp>:
    Uart_Transmit_IT_PC(ptr);
    Uart_Transmit_IT_PC("\r");
    _delay_ms(10);
}
void computeRamp(linear_ramp_t * ramp)
{
    7364:	4f 92       	push	r4
    7366:	5f 92       	push	r5
    7368:	6f 92       	push	r6
    736a:	7f 92       	push	r7
    736c:	8f 92       	push	r8
    736e:	9f 92       	push	r9
    7370:	af 92       	push	r10
    7372:	bf 92       	push	r11
    7374:	cf 92       	push	r12
    7376:	df 92       	push	r13
    7378:	ef 92       	push	r14
    737a:	ff 92       	push	r15
    737c:	cf 93       	push	r28
    737e:	df 93       	push	r29
    7380:	cd b7       	in	r28, 0x3d	; 61
    7382:	de b7       	in	r29, 0x3e	; 62
    7384:	2a 97       	sbiw	r28, 0x0a	; 10
    7386:	0f b6       	in	r0, 0x3f	; 63
    7388:	f8 94       	cli
    738a:	de bf       	out	0x3e, r29	; 62
    738c:	0f be       	out	0x3f, r0	; 63
    738e:	cd bf       	out	0x3d, r28	; 61
    if (ramp->ramp_enable == 1)
    7390:	dc 01       	movw	r26, r24
    7392:	2c 91       	ld	r18, X
    7394:	21 30       	cpi	r18, 0x01	; 1
    7396:	09 f0       	breq	.+2      	; 0x739a <computeRamp+0x36>
    7398:	4c c2       	rjmp	.+1176   	; 0x7832 <computeRamp+0x4ce>
    739a:	9a 87       	std	Y+10, r25	; 0x0a
    739c:	89 87       	std	Y+9, r24	; 0x09
    {
        switch (states)
    739e:	80 91 9a 0e 	lds	r24, 0x0E9A	; 0x800e9a <states>
    73a2:	81 30       	cpi	r24, 0x01	; 1
    73a4:	09 f4       	brne	.+2      	; 0x73a8 <computeRamp+0x44>
    73a6:	b2 c0       	rjmp	.+356    	; 0x750c <computeRamp+0x1a8>
    73a8:	38 f0       	brcs	.+14     	; 0x73b8 <computeRamp+0x54>
    73aa:	82 30       	cpi	r24, 0x02	; 2
    73ac:	09 f4       	brne	.+2      	; 0x73b0 <computeRamp+0x4c>
    73ae:	39 c1       	rjmp	.+626    	; 0x7622 <computeRamp+0x2be>
    73b0:	83 30       	cpi	r24, 0x03	; 3
    73b2:	09 f4       	brne	.+2      	; 0x73b6 <computeRamp+0x52>
    73b4:	b3 c1       	rjmp	.+870    	; 0x771c <computeRamp+0x3b8>
    73b6:	3d c2       	rjmp	.+1146   	; 0x7832 <computeRamp+0x4ce>
        {
        case IDLE:
            // der Maximalwert eingesetzt.
            if (ramp->target_velocity > ramp->max_velocity)
    73b8:	e9 85       	ldd	r30, Y+9	; 0x09
    73ba:	fa 85       	ldd	r31, Y+10	; 0x0a
    73bc:	c5 a8       	ldd	r12, Z+53	; 0x35
    73be:	d6 a8       	ldd	r13, Z+54	; 0x36
    73c0:	e7 a8       	ldd	r14, Z+55	; 0x37
    73c2:	f0 ac       	ldd	r15, Z+56	; 0x38
    73c4:	a7 01       	movw	r20, r14
    73c6:	96 01       	movw	r18, r12
    73c8:	65 a5       	ldd	r22, Z+45	; 0x2d
    73ca:	76 a5       	ldd	r23, Z+46	; 0x2e
    73cc:	87 a5       	ldd	r24, Z+47	; 0x2f
    73ce:	90 a9       	ldd	r25, Z+48	; 0x30
    73d0:	0e 94 2e 45 	call	0x8a5c	; 0x8a5c <__gesf2>
    73d4:	18 16       	cp	r1, r24
    73d6:	44 f4       	brge	.+16     	; 0x73e8 <computeRamp+0x84>
            {
                //              Uart_Transmit_IT_PC("Geschwindigkeit ber Maximum\r");
                ramp->target_velocity = ramp->max_velocity;
    73d8:	a9 85       	ldd	r26, Y+9	; 0x09
    73da:	ba 85       	ldd	r27, Y+10	; 0x0a
    73dc:	9d 96       	adiw	r26, 0x2d	; 45
    73de:	cd 92       	st	X+, r12
    73e0:	dd 92       	st	X+, r13
    73e2:	ed 92       	st	X+, r14
    73e4:	fc 92       	st	X, r15
    73e6:	d0 97       	sbiw	r26, 0x30	; 48
            }
            if (ramp->target_acceleration > ramp->max_acceleration)
    73e8:	e9 85       	ldd	r30, Y+9	; 0x09
    73ea:	fa 85       	ldd	r31, Y+10	; 0x0a
    73ec:	c1 ac       	ldd	r12, Z+57	; 0x39
    73ee:	d2 ac       	ldd	r13, Z+58	; 0x3a
    73f0:	e3 ac       	ldd	r14, Z+59	; 0x3b
    73f2:	f4 ac       	ldd	r15, Z+60	; 0x3c
    73f4:	a7 01       	movw	r20, r14
    73f6:	96 01       	movw	r18, r12
    73f8:	61 a5       	ldd	r22, Z+41	; 0x29
    73fa:	72 a5       	ldd	r23, Z+42	; 0x2a
    73fc:	83 a5       	ldd	r24, Z+43	; 0x2b
    73fe:	94 a5       	ldd	r25, Z+44	; 0x2c
    7400:	0e 94 2e 45 	call	0x8a5c	; 0x8a5c <__gesf2>
    7404:	18 16       	cp	r1, r24
    7406:	44 f4       	brge	.+16     	; 0x7418 <computeRamp+0xb4>
            {
                //              Uart_Transmit_IT_PC("Beschleunigung ber Maximum\r");
                ramp->target_acceleration = ramp->max_acceleration;
    7408:	a9 85       	ldd	r26, Y+9	; 0x09
    740a:	ba 85       	ldd	r27, Y+10	; 0x0a
    740c:	99 96       	adiw	r26, 0x29	; 41
    740e:	cd 92       	st	X+, r12
    7410:	dd 92       	st	X+, r13
    7412:	ed 92       	st	X+, r14
    7414:	fc 92       	st	X, r15
    7416:	9c 97       	sbiw	r26, 0x2c	; 44
            }

            // Berechnen der Beschleunigungszeit
            ramp->ramp_acceleration_time = get_beschleunigungszeit(ramp->target_velocity, ramp->target_acceleration); // Sek
    7418:	e9 85       	ldd	r30, Y+9	; 0x09
    741a:	fa 85       	ldd	r31, Y+10	; 0x0a
    741c:	41 a4       	ldd	r4, Z+41	; 0x29
    741e:	52 a4       	ldd	r5, Z+42	; 0x2a
    7420:	63 a4       	ldd	r6, Z+43	; 0x2b
    7422:	74 a4       	ldd	r7, Z+44	; 0x2c
    7424:	85 a4       	ldd	r8, Z+45	; 0x2d
    7426:	96 a4       	ldd	r9, Z+46	; 0x2e
    7428:	a7 a4       	ldd	r10, Z+47	; 0x2f
    742a:	b0 a8       	ldd	r11, Z+48	; 0x30
{
    return v0 + a * t;
}
float get_beschleunigungszeit(float velocity, float acceleration)
{
    return velocity / acceleration;
    742c:	a3 01       	movw	r20, r6
    742e:	92 01       	movw	r18, r4
    7430:	c5 01       	movw	r24, r10
    7432:	b4 01       	movw	r22, r8
    7434:	0e 94 e8 43 	call	0x87d0	; 0x87d0 <__divsf3>
    7438:	6b 01       	movw	r12, r22
    743a:	7c 01       	movw	r14, r24
                //              Uart_Transmit_IT_PC("Beschleunigung ber Maximum\r");
                ramp->target_acceleration = ramp->max_acceleration;
            }

            // Berechnen der Beschleunigungszeit
            ramp->ramp_acceleration_time = get_beschleunigungszeit(ramp->target_velocity, ramp->target_acceleration); // Sek
    743c:	a9 85       	ldd	r26, Y+9	; 0x09
    743e:	ba 85       	ldd	r27, Y+10	; 0x0a
    7440:	19 96       	adiw	r26, 0x09	; 9
    7442:	6d 93       	st	X+, r22
    7444:	7d 93       	st	X+, r23
    7446:	8d 93       	st	X+, r24
    7448:	9c 93       	st	X, r25
    744a:	1c 97       	sbiw	r26, 0x0c	; 12

            // Falls die Strecke nicht ausreicht, voll zu beschleunigen, ergibt es eine
            // triangulare Geschwindigkeitskurve, woraus die Beschleunigungszeit ermittelt wird.
            if (ramp->target_position_absolute < (ramp->ramp_acceleration_time * ramp->target_velocity))
    744c:	d1 96       	adiw	r26, 0x31	; 49
    744e:	8d 91       	ld	r24, X+
    7450:	9d 91       	ld	r25, X+
    7452:	0d 90       	ld	r0, X+
    7454:	bc 91       	ld	r27, X
    7456:	a0 2d       	mov	r26, r0
    7458:	89 83       	std	Y+1, r24	; 0x01
    745a:	9a 83       	std	Y+2, r25	; 0x02
    745c:	ab 83       	std	Y+3, r26	; 0x03
    745e:	bc 83       	std	Y+4, r27	; 0x04
    7460:	a7 01       	movw	r20, r14
    7462:	96 01       	movw	r18, r12
    7464:	c5 01       	movw	r24, r10
    7466:	b4 01       	movw	r22, r8
    7468:	0e 94 32 45 	call	0x8a64	; 0x8a64 <__mulsf3>
    746c:	9b 01       	movw	r18, r22
    746e:	ac 01       	movw	r20, r24
    7470:	69 81       	ldd	r22, Y+1	; 0x01
    7472:	7a 81       	ldd	r23, Y+2	; 0x02
    7474:	8b 81       	ldd	r24, Y+3	; 0x03
    7476:	9c 81       	ldd	r25, Y+4	; 0x04
    7478:	0e 94 e4 43 	call	0x87c8	; 0x87c8 <__cmpsf2>
    747c:	88 23       	and	r24, r24
    747e:	cc f4       	brge	.+50     	; 0x74b2 <computeRamp+0x14e>
            {
                //              Uart_Transmit_IT_PC("Kein Fullspeed\r");
                ramp->ramp_fullspeed_time = 0.0;                                 // keine Zeit zur max_velocity
    7480:	e9 85       	ldd	r30, Y+9	; 0x09
    7482:	fa 85       	ldd	r31, Y+10	; 0x0a
    7484:	15 86       	std	Z+13, r1	; 0x0d
    7486:	16 86       	std	Z+14, r1	; 0x0e
    7488:	17 86       	std	Z+15, r1	; 0x0f
    748a:	10 8a       	std	Z+16, r1	; 0x10
                ramp->ramp_acceleration_time = (float) sqrt(ramp->target_position_absolute/ramp->target_acceleration);   // Beschleunigungszeiten
    748c:	a3 01       	movw	r20, r6
    748e:	92 01       	movw	r18, r4
    7490:	69 81       	ldd	r22, Y+1	; 0x01
    7492:	7a 81       	ldd	r23, Y+2	; 0x02
    7494:	8b 81       	ldd	r24, Y+3	; 0x03
    7496:	9c 81       	ldd	r25, Y+4	; 0x04
    7498:	0e 94 e8 43 	call	0x87d0	; 0x87d0 <__divsf3>
    749c:	0e 94 99 45 	call	0x8b32	; 0x8b32 <sqrt>
    74a0:	a9 85       	ldd	r26, Y+9	; 0x09
    74a2:	ba 85       	ldd	r27, Y+10	; 0x0a
    74a4:	19 96       	adiw	r26, 0x09	; 9
    74a6:	6d 93       	st	X+, r22
    74a8:	7d 93       	st	X+, r23
    74aa:	8d 93       	st	X+, r24
    74ac:	9c 93       	st	X, r25
    74ae:	1c 97       	sbiw	r26, 0x0c	; 12
    74b0:	1c c0       	rjmp	.+56     	; 0x74ea <computeRamp+0x186>
            }
            else
            {
                // Falls die Strecke ausreicht, wird die gesamte Zeit auf Fullspeed berechnet.
                ramp->ramp_fullspeed_time = get_volle_geschwindigkeitszeit(ramp->target_position_absolute, ramp->target_acceleration, ramp->ramp_acceleration_time, ramp->target_velocity); // Sek
    74b2:	a7 01       	movw	r20, r14
    74b4:	96 01       	movw	r18, r12
    74b6:	c3 01       	movw	r24, r6
    74b8:	b2 01       	movw	r22, r4
    74ba:	0e 94 32 45 	call	0x8a64	; 0x8a64 <__mulsf3>
    74be:	a7 01       	movw	r20, r14
    74c0:	96 01       	movw	r18, r12
    74c2:	0e 94 32 45 	call	0x8a64	; 0x8a64 <__mulsf3>
    74c6:	9b 01       	movw	r18, r22
    74c8:	ac 01       	movw	r20, r24
    74ca:	69 81       	ldd	r22, Y+1	; 0x01
    74cc:	7a 81       	ldd	r23, Y+2	; 0x02
    74ce:	8b 81       	ldd	r24, Y+3	; 0x03
    74d0:	9c 81       	ldd	r25, Y+4	; 0x04
    74d2:	0e 94 7f 43 	call	0x86fe	; 0x86fe <__subsf3>
    74d6:	a5 01       	movw	r20, r10
    74d8:	94 01       	movw	r18, r8
    74da:	0e 94 e8 43 	call	0x87d0	; 0x87d0 <__divsf3>
    74de:	e9 85       	ldd	r30, Y+9	; 0x09
    74e0:	fa 85       	ldd	r31, Y+10	; 0x0a
    74e2:	65 87       	std	Z+13, r22	; 0x0d
    74e4:	76 87       	std	Z+14, r23	; 0x0e
    74e6:	87 87       	std	Z+15, r24	; 0x0f
    74e8:	90 8b       	std	Z+16, r25	; 0x10
            }

            ramp->ramp_x_0 = 0.0;
    74ea:	a9 85       	ldd	r26, Y+9	; 0x09
    74ec:	ba 85       	ldd	r27, Y+10	; 0x0a
    74ee:	55 96       	adiw	r26, 0x15	; 21
    74f0:	1d 92       	st	X+, r1
    74f2:	1d 92       	st	X+, r1
    74f4:	1d 92       	st	X+, r1
    74f6:	1c 92       	st	X, r1
    74f8:	58 97       	sbiw	r26, 0x18	; 24
            ramp->ramp_v_0 = 0.0;
    74fa:	fd 01       	movw	r30, r26
    74fc:	11 8e       	std	Z+25, r1	; 0x19
    74fe:	12 8e       	std	Z+26, r1	; 0x1a
    7500:	13 8e       	std	Z+27, r1	; 0x1b
    7502:	14 8e       	std	Z+28, r1	; 0x1c

            // Nach den Berechnungen wechselt der Status auf Beschleunigen
            states = ACCELERATING;
    7504:	81 e0       	ldi	r24, 0x01	; 1
    7506:	80 93 9a 0e 	sts	0x0E9A, r24	; 0x800e9a <states>
            break;
    750a:	93 c1       	rjmp	.+806    	; 0x7832 <computeRamp+0x4ce>
        case ACCELERATING:

            // ber die berechneten Bewegungszeiten kann nun interiert werden. Die Beschleunigung bleibt konstant,
            // die Geschwindigkeit und Position werden mit den Formeln berechnet.

            ramp->ramp_position = position_func(ramp->ramp_x_0, ramp->ramp_v_0, ramp->target_acceleration, ramp->ramp_timer);
    750c:	a9 85       	ldd	r26, Y+9	; 0x09
    750e:	ba 85       	ldd	r27, Y+10	; 0x0a
    7510:	11 96       	adiw	r26, 0x01	; 1
    7512:	cd 90       	ld	r12, X+
    7514:	dd 90       	ld	r13, X+
    7516:	ed 90       	ld	r14, X+
    7518:	fc 90       	ld	r15, X
    751a:	14 97       	sbiw	r26, 0x04	; 4
    751c:	99 96       	adiw	r26, 0x29	; 41
    751e:	4d 90       	ld	r4, X+
    7520:	5d 90       	ld	r5, X+
    7522:	6d 90       	ld	r6, X+
    7524:	7c 90       	ld	r7, X
    7526:	9c 97       	sbiw	r26, 0x2c	; 44
    7528:	59 96       	adiw	r26, 0x19	; 25
    752a:	8d 90       	ld	r8, X+
    752c:	9d 90       	ld	r9, X+
    752e:	ad 90       	ld	r10, X+
    7530:	bc 90       	ld	r11, X
    7532:	5c 97       	sbiw	r26, 0x1c	; 28
    ramp->ramp_timer += ramp->ramp_timer_iteration;
    return ramp->ramp_timer;
}
float position_func(float x0, float v0, float a, float t)
{
    return x0 + v0 * t + a * t * t / 2;
    7534:	a3 01       	movw	r20, r6
    7536:	92 01       	movw	r18, r4
    7538:	c7 01       	movw	r24, r14
    753a:	b6 01       	movw	r22, r12
    753c:	0e 94 32 45 	call	0x8a64	; 0x8a64 <__mulsf3>
    7540:	69 83       	std	Y+1, r22	; 0x01
    7542:	7a 83       	std	Y+2, r23	; 0x02
    7544:	8b 83       	std	Y+3, r24	; 0x03
    7546:	9c 83       	std	Y+4, r25	; 0x04
        case ACCELERATING:

            // ber die berechneten Bewegungszeiten kann nun interiert werden. Die Beschleunigung bleibt konstant,
            // die Geschwindigkeit und Position werden mit den Formeln berechnet.

            ramp->ramp_position = position_func(ramp->ramp_x_0, ramp->ramp_v_0, ramp->target_acceleration, ramp->ramp_timer);
    7548:	a5 01       	movw	r20, r10
    754a:	94 01       	movw	r18, r8
    754c:	c7 01       	movw	r24, r14
    754e:	b6 01       	movw	r22, r12
    7550:	0e 94 32 45 	call	0x8a64	; 0x8a64 <__mulsf3>
    7554:	e9 85       	ldd	r30, Y+9	; 0x09
    7556:	fa 85       	ldd	r31, Y+10	; 0x0a
    7558:	25 89       	ldd	r18, Z+21	; 0x15
    755a:	36 89       	ldd	r19, Z+22	; 0x16
    755c:	47 89       	ldd	r20, Z+23	; 0x17
    755e:	50 8d       	ldd	r21, Z+24	; 0x18
    7560:	0e 94 80 43 	call	0x8700	; 0x8700 <__addsf3>
    7564:	6d 83       	std	Y+5, r22	; 0x05
    7566:	7e 83       	std	Y+6, r23	; 0x06
    7568:	8f 83       	std	Y+7, r24	; 0x07
    756a:	98 87       	std	Y+8, r25	; 0x08
    756c:	29 81       	ldd	r18, Y+1	; 0x01
    756e:	3a 81       	ldd	r19, Y+2	; 0x02
    7570:	4b 81       	ldd	r20, Y+3	; 0x03
    7572:	5c 81       	ldd	r21, Y+4	; 0x04
    7574:	c7 01       	movw	r24, r14
    7576:	b6 01       	movw	r22, r12
    7578:	0e 94 32 45 	call	0x8a64	; 0x8a64 <__mulsf3>
    757c:	20 e0       	ldi	r18, 0x00	; 0
    757e:	30 e0       	ldi	r19, 0x00	; 0
    7580:	40 e0       	ldi	r20, 0x00	; 0
    7582:	5f e3       	ldi	r21, 0x3F	; 63
    7584:	0e 94 32 45 	call	0x8a64	; 0x8a64 <__mulsf3>
    7588:	9b 01       	movw	r18, r22
    758a:	ac 01       	movw	r20, r24
    758c:	6d 81       	ldd	r22, Y+5	; 0x05
    758e:	7e 81       	ldd	r23, Y+6	; 0x06
    7590:	8f 81       	ldd	r24, Y+7	; 0x07
    7592:	98 85       	ldd	r25, Y+8	; 0x08
    7594:	0e 94 80 43 	call	0x8700	; 0x8700 <__addsf3>
    7598:	a9 85       	ldd	r26, Y+9	; 0x09
    759a:	ba 85       	ldd	r27, Y+10	; 0x0a
    759c:	95 96       	adiw	r26, 0x25	; 37
    759e:	6d 93       	st	X+, r22
    75a0:	7d 93       	st	X+, r23
    75a2:	8d 93       	st	X+, r24
    75a4:	9c 93       	st	X, r25
    75a6:	98 97       	sbiw	r26, 0x28	; 40
            ramp->ramp_velocity = velocity_func(ramp->ramp_v_0, ramp->target_acceleration, ramp->ramp_timer);
    75a8:	29 81       	ldd	r18, Y+1	; 0x01
    75aa:	3a 81       	ldd	r19, Y+2	; 0x02
    75ac:	4b 81       	ldd	r20, Y+3	; 0x03
    75ae:	5c 81       	ldd	r21, Y+4	; 0x04
    75b0:	c5 01       	movw	r24, r10
    75b2:	b4 01       	movw	r22, r8
    75b4:	0e 94 80 43 	call	0x8700	; 0x8700 <__addsf3>
    75b8:	e9 85       	ldd	r30, Y+9	; 0x09
    75ba:	fa 85       	ldd	r31, Y+10	; 0x0a
    75bc:	61 a3       	std	Z+33, r22	; 0x21
    75be:	72 a3       	std	Z+34, r23	; 0x22
    75c0:	83 a3       	std	Z+35, r24	; 0x23
    75c2:	94 a3       	std	Z+36, r25	; 0x24
            ramp->ramp_acceleration = ramp->target_acceleration;
    75c4:	45 8e       	std	Z+29, r4	; 0x1d
    75c6:	56 8e       	std	Z+30, r5	; 0x1e
    75c8:	67 8e       	std	Z+31, r6	; 0x1f
    75ca:	70 a2       	std	Z+32, r7	; 0x20
            iterate_timer(ramp);
    75cc:	cf 01       	movw	r24, r30
    75ce:	b6 de       	rcall	.-660    	; 0x733c <iterate_timer>

            if (ramp->ramp_timer >= (ramp->ramp_acceleration_time))
    75d0:	e9 85       	ldd	r30, Y+9	; 0x09
    75d2:	fa 85       	ldd	r31, Y+10	; 0x0a
    75d4:	21 85       	ldd	r18, Z+9	; 0x09
    75d6:	32 85       	ldd	r19, Z+10	; 0x0a
    75d8:	43 85       	ldd	r20, Z+11	; 0x0b
    75da:	54 85       	ldd	r21, Z+12	; 0x0c
    75dc:	61 81       	ldd	r22, Z+1	; 0x01
    75de:	72 81       	ldd	r23, Z+2	; 0x02
    75e0:	83 81       	ldd	r24, Z+3	; 0x03
    75e2:	94 81       	ldd	r25, Z+4	; 0x04
    75e4:	0e 94 2e 45 	call	0x8a5c	; 0x8a5c <__gesf2>
    75e8:	88 23       	and	r24, r24
    75ea:	0c f4       	brge	.+2      	; 0x75ee <computeRamp+0x28a>
    75ec:	22 c1       	rjmp	.+580    	; 0x7832 <computeRamp+0x4ce>
            {
                //              status_message(ramp);
                states = FULLSPEED;
    75ee:	82 e0       	ldi	r24, 0x02	; 2
    75f0:	80 93 9a 0e 	sts	0x0E9A, r24	; 0x800e9a <states>
                ramp->ramp_x_0 = ramp->ramp_position;
    75f4:	e9 85       	ldd	r30, Y+9	; 0x09
    75f6:	fa 85       	ldd	r31, Y+10	; 0x0a
    75f8:	85 a1       	ldd	r24, Z+37	; 0x25
    75fa:	96 a1       	ldd	r25, Z+38	; 0x26
    75fc:	a7 a1       	ldd	r26, Z+39	; 0x27
    75fe:	b0 a5       	ldd	r27, Z+40	; 0x28
    7600:	85 8b       	std	Z+21, r24	; 0x15
    7602:	96 8b       	std	Z+22, r25	; 0x16
    7604:	a7 8b       	std	Z+23, r26	; 0x17
    7606:	b0 8f       	std	Z+24, r27	; 0x18
                ramp->ramp_v_0 = ramp->ramp_velocity;
    7608:	81 a1       	ldd	r24, Z+33	; 0x21
    760a:	92 a1       	ldd	r25, Z+34	; 0x22
    760c:	a3 a1       	ldd	r26, Z+35	; 0x23
    760e:	b4 a1       	ldd	r27, Z+36	; 0x24
    7610:	81 8f       	std	Z+25, r24	; 0x19
    7612:	92 8f       	std	Z+26, r25	; 0x1a
    7614:	a3 8f       	std	Z+27, r26	; 0x1b
    7616:	b4 8f       	std	Z+28, r27	; 0x1c
                ramp->ramp_timer = 0.0;
    7618:	11 82       	std	Z+1, r1	; 0x01
    761a:	12 82       	std	Z+2, r1	; 0x02
    761c:	13 82       	std	Z+3, r1	; 0x03
    761e:	14 82       	std	Z+4, r1	; 0x04
    7620:	08 c1       	rjmp	.+528    	; 0x7832 <computeRamp+0x4ce>
            }
            break;

        case FULLSPEED:

            ramp->ramp_position = position_func(ramp->ramp_x_0, ramp->ramp_v_0, 0, ramp->ramp_timer);
    7622:	e9 85       	ldd	r30, Y+9	; 0x09
    7624:	fa 85       	ldd	r31, Y+10	; 0x0a
    7626:	c1 80       	ldd	r12, Z+1	; 0x01
    7628:	d2 80       	ldd	r13, Z+2	; 0x02
    762a:	e3 80       	ldd	r14, Z+3	; 0x03
    762c:	f4 80       	ldd	r15, Z+4	; 0x04
    762e:	41 8c       	ldd	r4, Z+25	; 0x19
    7630:	52 8c       	ldd	r5, Z+26	; 0x1a
    7632:	63 8c       	ldd	r6, Z+27	; 0x1b
    7634:	74 8c       	ldd	r7, Z+28	; 0x1c
    ramp->ramp_timer += ramp->ramp_timer_iteration;
    return ramp->ramp_timer;
}
float position_func(float x0, float v0, float a, float t)
{
    return x0 + v0 * t + a * t * t / 2;
    7636:	20 e0       	ldi	r18, 0x00	; 0
    7638:	30 e0       	ldi	r19, 0x00	; 0
    763a:	a9 01       	movw	r20, r18
    763c:	c7 01       	movw	r24, r14
    763e:	b6 01       	movw	r22, r12
    7640:	0e 94 32 45 	call	0x8a64	; 0x8a64 <__mulsf3>
    7644:	4b 01       	movw	r8, r22
    7646:	5c 01       	movw	r10, r24
            }
            break;

        case FULLSPEED:

            ramp->ramp_position = position_func(ramp->ramp_x_0, ramp->ramp_v_0, 0, ramp->ramp_timer);
    7648:	a3 01       	movw	r20, r6
    764a:	92 01       	movw	r18, r4
    764c:	c7 01       	movw	r24, r14
    764e:	b6 01       	movw	r22, r12
    7650:	0e 94 32 45 	call	0x8a64	; 0x8a64 <__mulsf3>
    7654:	a9 85       	ldd	r26, Y+9	; 0x09
    7656:	ba 85       	ldd	r27, Y+10	; 0x0a
    7658:	55 96       	adiw	r26, 0x15	; 21
    765a:	2d 91       	ld	r18, X+
    765c:	3d 91       	ld	r19, X+
    765e:	4d 91       	ld	r20, X+
    7660:	5c 91       	ld	r21, X
    7662:	58 97       	sbiw	r26, 0x18	; 24
    7664:	0e 94 80 43 	call	0x8700	; 0x8700 <__addsf3>
    7668:	69 83       	std	Y+1, r22	; 0x01
    766a:	7a 83       	std	Y+2, r23	; 0x02
    766c:	8b 83       	std	Y+3, r24	; 0x03
    766e:	9c 83       	std	Y+4, r25	; 0x04
    7670:	a5 01       	movw	r20, r10
    7672:	94 01       	movw	r18, r8
    7674:	c7 01       	movw	r24, r14
    7676:	b6 01       	movw	r22, r12
    7678:	0e 94 32 45 	call	0x8a64	; 0x8a64 <__mulsf3>
    767c:	20 e0       	ldi	r18, 0x00	; 0
    767e:	30 e0       	ldi	r19, 0x00	; 0
    7680:	40 e0       	ldi	r20, 0x00	; 0
    7682:	5f e3       	ldi	r21, 0x3F	; 63
    7684:	0e 94 32 45 	call	0x8a64	; 0x8a64 <__mulsf3>
    7688:	9b 01       	movw	r18, r22
    768a:	ac 01       	movw	r20, r24
    768c:	69 81       	ldd	r22, Y+1	; 0x01
    768e:	7a 81       	ldd	r23, Y+2	; 0x02
    7690:	8b 81       	ldd	r24, Y+3	; 0x03
    7692:	9c 81       	ldd	r25, Y+4	; 0x04
    7694:	0e 94 80 43 	call	0x8700	; 0x8700 <__addsf3>
    7698:	e9 85       	ldd	r30, Y+9	; 0x09
    769a:	fa 85       	ldd	r31, Y+10	; 0x0a
    769c:	65 a3       	std	Z+37, r22	; 0x25
    769e:	76 a3       	std	Z+38, r23	; 0x26
    76a0:	87 a3       	std	Z+39, r24	; 0x27
    76a2:	90 a7       	std	Z+40, r25	; 0x28
            ramp->ramp_velocity = velocity_func(ramp->ramp_v_0, 0, ramp->ramp_timer);
    76a4:	a5 01       	movw	r20, r10
    76a6:	94 01       	movw	r18, r8
    76a8:	c3 01       	movw	r24, r6
    76aa:	b2 01       	movw	r22, r4
    76ac:	0e 94 80 43 	call	0x8700	; 0x8700 <__addsf3>
    76b0:	a9 85       	ldd	r26, Y+9	; 0x09
    76b2:	ba 85       	ldd	r27, Y+10	; 0x0a
    76b4:	91 96       	adiw	r26, 0x21	; 33
    76b6:	6d 93       	st	X+, r22
    76b8:	7d 93       	st	X+, r23
    76ba:	8d 93       	st	X+, r24
    76bc:	9c 93       	st	X, r25
    76be:	94 97       	sbiw	r26, 0x24	; 36
            ramp->ramp_acceleration = ramp->ramp_acceleration;
            iterate_timer(ramp);
    76c0:	cd 01       	movw	r24, r26
    76c2:	3c de       	rcall	.-904    	; 0x733c <iterate_timer>
            if (ramp->ramp_timer >= (ramp->ramp_fullspeed_time))
    76c4:	e9 85       	ldd	r30, Y+9	; 0x09
    76c6:	fa 85       	ldd	r31, Y+10	; 0x0a
    76c8:	25 85       	ldd	r18, Z+13	; 0x0d
    76ca:	36 85       	ldd	r19, Z+14	; 0x0e
    76cc:	47 85       	ldd	r20, Z+15	; 0x0f
    76ce:	50 89       	ldd	r21, Z+16	; 0x10
    76d0:	61 81       	ldd	r22, Z+1	; 0x01
    76d2:	72 81       	ldd	r23, Z+2	; 0x02
    76d4:	83 81       	ldd	r24, Z+3	; 0x03
    76d6:	94 81       	ldd	r25, Z+4	; 0x04
    76d8:	0e 94 2e 45 	call	0x8a5c	; 0x8a5c <__gesf2>
    76dc:	88 23       	and	r24, r24
    76de:	0c f4       	brge	.+2      	; 0x76e2 <computeRamp+0x37e>
    76e0:	a8 c0       	rjmp	.+336    	; 0x7832 <computeRamp+0x4ce>
            {
                //                 status_message(ramp);
                states = BREAKING;
    76e2:	83 e0       	ldi	r24, 0x03	; 3
    76e4:	80 93 9a 0e 	sts	0x0E9A, r24	; 0x800e9a <states>
                ramp->ramp_timer = 0.0;
    76e8:	a9 85       	ldd	r26, Y+9	; 0x09
    76ea:	ba 85       	ldd	r27, Y+10	; 0x0a
    76ec:	11 96       	adiw	r26, 0x01	; 1
    76ee:	1d 92       	st	X+, r1
    76f0:	1d 92       	st	X+, r1
    76f2:	1d 92       	st	X+, r1
    76f4:	1c 92       	st	X, r1
    76f6:	14 97       	sbiw	r26, 0x04	; 4
                ramp->ramp_x_0 = ramp->ramp_position;
    76f8:	fd 01       	movw	r30, r26
    76fa:	85 a1       	ldd	r24, Z+37	; 0x25
    76fc:	96 a1       	ldd	r25, Z+38	; 0x26
    76fe:	a7 a1       	ldd	r26, Z+39	; 0x27
    7700:	b0 a5       	ldd	r27, Z+40	; 0x28
    7702:	85 8b       	std	Z+21, r24	; 0x15
    7704:	96 8b       	std	Z+22, r25	; 0x16
    7706:	a7 8b       	std	Z+23, r26	; 0x17
    7708:	b0 8f       	std	Z+24, r27	; 0x18
                ramp->ramp_v_0 = ramp->ramp_velocity;
    770a:	81 a1       	ldd	r24, Z+33	; 0x21
    770c:	92 a1       	ldd	r25, Z+34	; 0x22
    770e:	a3 a1       	ldd	r26, Z+35	; 0x23
    7710:	b4 a1       	ldd	r27, Z+36	; 0x24
    7712:	81 8f       	std	Z+25, r24	; 0x19
    7714:	92 8f       	std	Z+26, r25	; 0x1a
    7716:	a3 8f       	std	Z+27, r26	; 0x1b
    7718:	b4 8f       	std	Z+28, r27	; 0x1c
    771a:	8b c0       	rjmp	.+278    	; 0x7832 <computeRamp+0x4ce>
            }

            break;

        case BREAKING:
            ramp->ramp_position = position_func(ramp->ramp_x_0, ramp->ramp_v_0, -ramp->target_acceleration, ramp->ramp_timer);
    771c:	a9 85       	ldd	r26, Y+9	; 0x09
    771e:	ba 85       	ldd	r27, Y+10	; 0x0a
    7720:	11 96       	adiw	r26, 0x01	; 1
    7722:	cd 90       	ld	r12, X+
    7724:	dd 90       	ld	r13, X+
    7726:	ed 90       	ld	r14, X+
    7728:	fc 90       	ld	r15, X
    772a:	14 97       	sbiw	r26, 0x04	; 4
    772c:	99 96       	adiw	r26, 0x29	; 41
    772e:	8d 91       	ld	r24, X+
    7730:	9d 91       	ld	r25, X+
    7732:	0d 90       	ld	r0, X+
    7734:	bc 91       	ld	r27, X
    7736:	a0 2d       	mov	r26, r0
    7738:	2c 01       	movw	r4, r24
    773a:	3d 01       	movw	r6, r26
    773c:	77 fa       	bst	r7, 7
    773e:	70 94       	com	r7
    7740:	77 f8       	bld	r7, 7
    7742:	70 94       	com	r7
    7744:	e9 85       	ldd	r30, Y+9	; 0x09
    7746:	fa 85       	ldd	r31, Y+10	; 0x0a
    7748:	81 8c       	ldd	r8, Z+25	; 0x19
    774a:	92 8c       	ldd	r9, Z+26	; 0x1a
    774c:	a3 8c       	ldd	r10, Z+27	; 0x1b
    774e:	b4 8c       	ldd	r11, Z+28	; 0x1c
    ramp->ramp_timer += ramp->ramp_timer_iteration;
    return ramp->ramp_timer;
}
float position_func(float x0, float v0, float a, float t)
{
    return x0 + v0 * t + a * t * t / 2;
    7750:	a3 01       	movw	r20, r6
    7752:	92 01       	movw	r18, r4
    7754:	c7 01       	movw	r24, r14
    7756:	b6 01       	movw	r22, r12
    7758:	0e 94 32 45 	call	0x8a64	; 0x8a64 <__mulsf3>
    775c:	69 83       	std	Y+1, r22	; 0x01
    775e:	7a 83       	std	Y+2, r23	; 0x02
    7760:	8b 83       	std	Y+3, r24	; 0x03
    7762:	9c 83       	std	Y+4, r25	; 0x04
            }

            break;

        case BREAKING:
            ramp->ramp_position = position_func(ramp->ramp_x_0, ramp->ramp_v_0, -ramp->target_acceleration, ramp->ramp_timer);
    7764:	a5 01       	movw	r20, r10
    7766:	94 01       	movw	r18, r8
    7768:	c7 01       	movw	r24, r14
    776a:	b6 01       	movw	r22, r12
    776c:	0e 94 32 45 	call	0x8a64	; 0x8a64 <__mulsf3>
    7770:	a9 85       	ldd	r26, Y+9	; 0x09
    7772:	ba 85       	ldd	r27, Y+10	; 0x0a
    7774:	55 96       	adiw	r26, 0x15	; 21
    7776:	2d 91       	ld	r18, X+
    7778:	3d 91       	ld	r19, X+
    777a:	4d 91       	ld	r20, X+
    777c:	5c 91       	ld	r21, X
    777e:	58 97       	sbiw	r26, 0x18	; 24
    7780:	bf d7       	rcall	.+3966   	; 0x8700 <__addsf3>
    7782:	6d 83       	std	Y+5, r22	; 0x05
    7784:	7e 83       	std	Y+6, r23	; 0x06
    7786:	8f 83       	std	Y+7, r24	; 0x07
    7788:	98 87       	std	Y+8, r25	; 0x08
    778a:	29 81       	ldd	r18, Y+1	; 0x01
    778c:	3a 81       	ldd	r19, Y+2	; 0x02
    778e:	4b 81       	ldd	r20, Y+3	; 0x03
    7790:	5c 81       	ldd	r21, Y+4	; 0x04
    7792:	c7 01       	movw	r24, r14
    7794:	b6 01       	movw	r22, r12
    7796:	0e 94 32 45 	call	0x8a64	; 0x8a64 <__mulsf3>
    779a:	20 e0       	ldi	r18, 0x00	; 0
    779c:	30 e0       	ldi	r19, 0x00	; 0
    779e:	40 e0       	ldi	r20, 0x00	; 0
    77a0:	5f e3       	ldi	r21, 0x3F	; 63
    77a2:	0e 94 32 45 	call	0x8a64	; 0x8a64 <__mulsf3>
    77a6:	9b 01       	movw	r18, r22
    77a8:	ac 01       	movw	r20, r24
    77aa:	6d 81       	ldd	r22, Y+5	; 0x05
    77ac:	7e 81       	ldd	r23, Y+6	; 0x06
    77ae:	8f 81       	ldd	r24, Y+7	; 0x07
    77b0:	98 85       	ldd	r25, Y+8	; 0x08
    77b2:	a6 d7       	rcall	.+3916   	; 0x8700 <__addsf3>
    77b4:	e9 85       	ldd	r30, Y+9	; 0x09
    77b6:	fa 85       	ldd	r31, Y+10	; 0x0a
    77b8:	65 a3       	std	Z+37, r22	; 0x25
    77ba:	76 a3       	std	Z+38, r23	; 0x26
    77bc:	87 a3       	std	Z+39, r24	; 0x27
    77be:	90 a7       	std	Z+40, r25	; 0x28
            ramp->ramp_velocity = velocity_func(ramp->ramp_v_0, -ramp->target_acceleration, ramp->ramp_timer);
    77c0:	29 81       	ldd	r18, Y+1	; 0x01
    77c2:	3a 81       	ldd	r19, Y+2	; 0x02
    77c4:	4b 81       	ldd	r20, Y+3	; 0x03
    77c6:	5c 81       	ldd	r21, Y+4	; 0x04
    77c8:	c5 01       	movw	r24, r10
    77ca:	b4 01       	movw	r22, r8
    77cc:	99 d7       	rcall	.+3890   	; 0x8700 <__addsf3>
    77ce:	a9 85       	ldd	r26, Y+9	; 0x09
    77d0:	ba 85       	ldd	r27, Y+10	; 0x0a
    77d2:	91 96       	adiw	r26, 0x21	; 33
    77d4:	6d 93       	st	X+, r22
    77d6:	7d 93       	st	X+, r23
    77d8:	8d 93       	st	X+, r24
    77da:	9c 93       	st	X, r25
    77dc:	94 97       	sbiw	r26, 0x24	; 36
            ramp->ramp_acceleration = -ramp->target_acceleration;
    77de:	fd 01       	movw	r30, r26
    77e0:	45 8e       	std	Z+29, r4	; 0x1d
    77e2:	56 8e       	std	Z+30, r5	; 0x1e
    77e4:	67 8e       	std	Z+31, r6	; 0x1f

            iterate_timer(ramp);
    77e6:	70 a2       	std	Z+32, r7	; 0x20
    77e8:	cd 01       	movw	r24, r26
    77ea:	a8 dd       	rcall	.-1200   	; 0x733c <iterate_timer>
            if (ramp->ramp_timer >= (ramp->ramp_acceleration_time))
    77ec:	a9 85       	ldd	r26, Y+9	; 0x09
    77ee:	ba 85       	ldd	r27, Y+10	; 0x0a
    77f0:	19 96       	adiw	r26, 0x09	; 9
    77f2:	2d 91       	ld	r18, X+
    77f4:	3d 91       	ld	r19, X+
    77f6:	4d 91       	ld	r20, X+
    77f8:	5c 91       	ld	r21, X
    77fa:	1c 97       	sbiw	r26, 0x0c	; 12
    77fc:	11 96       	adiw	r26, 0x01	; 1
    77fe:	6d 91       	ld	r22, X+
    7800:	7d 91       	ld	r23, X+
    7802:	8d 91       	ld	r24, X+
    7804:	9c 91       	ld	r25, X
    7806:	14 97       	sbiw	r26, 0x04	; 4
    7808:	0e 94 2e 45 	call	0x8a5c	; 0x8a5c <__gesf2>
    780c:	88 23       	and	r24, r24
    780e:	8c f0       	brlt	.+34     	; 0x7832 <computeRamp+0x4ce>
            {
                //                 status_message(ramp);
                states = IDLE;
    7810:	10 92 9a 0e 	sts	0x0E9A, r1	; 0x800e9a <states>
                ramp->ramp_timer =0.0;
    7814:	e9 85       	ldd	r30, Y+9	; 0x09
    7816:	fa 85       	ldd	r31, Y+10	; 0x0a
    7818:	11 82       	std	Z+1, r1	; 0x01
    781a:	12 82       	std	Z+2, r1	; 0x02
    781c:	13 82       	std	Z+3, r1	; 0x03
    781e:	14 82       	std	Z+4, r1	; 0x04
                ramp->ramp_enable = 0.0;
    7820:	10 82       	st	Z, r1
                ramp->target_acceleration = 0.0;
    7822:	11 a6       	std	Z+41, r1	; 0x29
    7824:	12 a6       	std	Z+42, r1	; 0x2a
    7826:	13 a6       	std	Z+43, r1	; 0x2b
    7828:	14 a6       	std	Z+44, r1	; 0x2c
                ramp->target_velocity = 0.0;
    782a:	15 a6       	std	Z+45, r1	; 0x2d
    782c:	16 a6       	std	Z+46, r1	; 0x2e
    782e:	17 a6       	std	Z+47, r1	; 0x2f
    7830:	10 aa       	std	Z+48, r1	; 0x30
                ramp->target_acceleration = 0.0;
            }
            break;
        }
    }
}
    7832:	2a 96       	adiw	r28, 0x0a	; 10
    7834:	0f b6       	in	r0, 0x3f	; 63
    7836:	f8 94       	cli
    7838:	de bf       	out	0x3e, r29	; 62
    783a:	0f be       	out	0x3f, r0	; 63
    783c:	cd bf       	out	0x3d, r28	; 61
    783e:	df 91       	pop	r29
    7840:	cf 91       	pop	r28
    7842:	ff 90       	pop	r15
    7844:	ef 90       	pop	r14
    7846:	df 90       	pop	r13
    7848:	cf 90       	pop	r12
    784a:	bf 90       	pop	r11
    784c:	af 90       	pop	r10
    784e:	9f 90       	pop	r9
    7850:	8f 90       	pop	r8
    7852:	7f 90       	pop	r7
    7854:	6f 90       	pop	r6
    7856:	5f 90       	pop	r5
    7858:	4f 90       	pop	r4
    785a:	08 95       	ret

0000785c <softspi_clk_low>:
}
void softspi_write_uint16(uint16_t x)
{
    softspi_write_uint8((uint8_t)(x >> 8));
    softspi_write_uint8((uint8_t)(x & 0xff));
}
    785c:	eb e0       	ldi	r30, 0x0B	; 11
    785e:	f1 e0       	ldi	r31, 0x01	; 1
    7860:	80 81       	ld	r24, Z
    7862:	87 7f       	andi	r24, 0xF7	; 247
    7864:	80 83       	st	Z, r24
    7866:	08 95       	ret

00007868 <softspi_clk_high>:
    7868:	eb e0       	ldi	r30, 0x0B	; 11
    786a:	f1 e0       	ldi	r31, 0x01	; 1
    786c:	80 81       	ld	r24, Z
    786e:	88 60       	ori	r24, 0x08	; 8
    7870:	80 83       	st	Z, r24
    7872:	08 95       	ret

00007874 <softspi_mosi_low>:
    7874:	eb e0       	ldi	r30, 0x0B	; 11
    7876:	f1 e0       	ldi	r31, 0x01	; 1
    7878:	80 81       	ld	r24, Z
    787a:	8d 7f       	andi	r24, 0xFD	; 253
    787c:	80 83       	st	Z, r24
    787e:	08 95       	ret

00007880 <softspi_mosi_high>:
    7880:	eb e0       	ldi	r30, 0x0B	; 11
    7882:	f1 e0       	ldi	r31, 0x01	; 1
    7884:	80 81       	ld	r24, Z
    7886:	82 60       	ori	r24, 0x02	; 2
    7888:	80 83       	st	Z, r24
    788a:	08 95       	ret

0000788c <softspi_write_bit>:
    788c:	cf 93       	push	r28
    788e:	df 93       	push	r29
    7890:	d8 2f       	mov	r29, r24
    7892:	c6 2f       	mov	r28, r22
    7894:	e3 df       	rcall	.-58     	; 0x785c <softspi_clk_low>
    7896:	cd 23       	and	r28, r29
    7898:	11 f0       	breq	.+4      	; 0x789e <softspi_write_bit+0x12>
    789a:	f2 df       	rcall	.-28     	; 0x7880 <softspi_mosi_high>
    789c:	01 c0       	rjmp	.+2      	; 0x78a0 <softspi_write_bit+0x14>
    789e:	ea df       	rcall	.-44     	; 0x7874 <softspi_mosi_low>
    78a0:	8a e1       	ldi	r24, 0x1A	; 26
    78a2:	8a 95       	dec	r24
    78a4:	f1 f7       	brne	.-4      	; 0x78a2 <softspi_write_bit+0x16>
    78a6:	00 c0       	rjmp	.+0      	; 0x78a8 <softspi_write_bit+0x1c>
    78a8:	df df       	rcall	.-66     	; 0x7868 <softspi_clk_high>
    78aa:	8a e1       	ldi	r24, 0x1A	; 26
    78ac:	8a 95       	dec	r24
    78ae:	f1 f7       	brne	.-4      	; 0x78ac <softspi_write_bit+0x20>
    78b0:	00 c0       	rjmp	.+0      	; 0x78b2 <softspi_write_bit+0x26>
    78b2:	df 91       	pop	r29
    78b4:	cf 91       	pop	r28
    78b6:	08 95       	ret

000078b8 <softspi_write_uint8>:
    78b8:	cf 93       	push	r28
    78ba:	c8 2f       	mov	r28, r24
    78bc:	60 e8       	ldi	r22, 0x80	; 128
    78be:	e6 df       	rcall	.-52     	; 0x788c <softspi_write_bit>
    78c0:	60 e4       	ldi	r22, 0x40	; 64
    78c2:	8c 2f       	mov	r24, r28
    78c4:	e3 df       	rcall	.-58     	; 0x788c <softspi_write_bit>
    78c6:	60 e2       	ldi	r22, 0x20	; 32
    78c8:	8c 2f       	mov	r24, r28
    78ca:	e0 df       	rcall	.-64     	; 0x788c <softspi_write_bit>
    78cc:	60 e1       	ldi	r22, 0x10	; 16
    78ce:	8c 2f       	mov	r24, r28
    78d0:	dd df       	rcall	.-70     	; 0x788c <softspi_write_bit>
    78d2:	68 e0       	ldi	r22, 0x08	; 8
    78d4:	8c 2f       	mov	r24, r28
    78d6:	da df       	rcall	.-76     	; 0x788c <softspi_write_bit>
    78d8:	64 e0       	ldi	r22, 0x04	; 4
    78da:	8c 2f       	mov	r24, r28
    78dc:	d7 df       	rcall	.-82     	; 0x788c <softspi_write_bit>
    78de:	62 e0       	ldi	r22, 0x02	; 2
    78e0:	8c 2f       	mov	r24, r28
    78e2:	d4 df       	rcall	.-88     	; 0x788c <softspi_write_bit>
    78e4:	61 e0       	ldi	r22, 0x01	; 1
    78e6:	8c 2f       	mov	r24, r28
    78e8:	d1 df       	rcall	.-94     	; 0x788c <softspi_write_bit>
    78ea:	cf 91       	pop	r28
    78ec:	08 95       	ret

000078ee <softspi_read_bit>:

#if (SOFTSPI_DONT_USE_MISO == 0)

void softspi_read_bit(uint8_t* x, uint8_t i)
{
    78ee:	1f 93       	push	r17
    78f0:	cf 93       	push	r28
    78f2:	df 93       	push	r29
    78f4:	ec 01       	movw	r28, r24
    78f6:	16 2f       	mov	r17, r22

    /* read at rising edge */
    softspi_clk_low();
    78f8:	b1 df       	rcall	.-158    	; 0x785c <softspi_clk_low>
	#else
		//round up by default
		__ticks_dc = (uint32_t)(ceil(fabs(__tmp)));
	#endif

	__builtin_avr_delay_cycles(__ticks_dc);
    78fa:	8a e1       	ldi	r24, 0x1A	; 26
    78fc:	8a 95       	dec	r24
    78fe:	f1 f7       	brne	.-4      	; 0x78fc <softspi_read_bit+0xe>
    _delay_us(5);
    softspi_clk_high();
    7900:	00 c0       	rjmp	.+0      	; 0x7902 <softspi_read_bit+0x14>
    7902:	b2 df       	rcall	.-156    	; 0x7868 <softspi_clk_high>
    if (SOFTSPI_MISO_PIN & SOFTSPI_MISO_BIT) *x |= 1 << i;
    7904:	80 91 09 01 	lds	r24, 0x0109	; 0x800109 <__TEXT_REGION_LENGTH__+0x700109>
    7908:	82 ff       	sbrs	r24, 2
    790a:	0a c0       	rjmp	.+20     	; 0x7920 <softspi_read_bit+0x32>
    790c:	81 e0       	ldi	r24, 0x01	; 1
    790e:	90 e0       	ldi	r25, 0x00	; 0
    7910:	02 c0       	rjmp	.+4      	; 0x7916 <softspi_read_bit+0x28>
    7912:	88 0f       	add	r24, r24
    7914:	99 1f       	adc	r25, r25
    7916:	1a 95       	dec	r17
    7918:	e2 f7       	brpl	.-8      	; 0x7912 <softspi_read_bit+0x24>
    791a:	98 81       	ld	r25, Y
    791c:	89 2b       	or	r24, r25
    791e:	88 83       	st	Y, r24
    7920:	8a e1       	ldi	r24, 0x1A	; 26
    7922:	8a 95       	dec	r24
    7924:	f1 f7       	brne	.-4      	; 0x7922 <softspi_read_bit+0x34>
    7926:	00 c0       	rjmp	.+0      	; 0x7928 <softspi_read_bit+0x3a>
    _delay_us(5);

}
    7928:	df 91       	pop	r29
    792a:	cf 91       	pop	r28
    792c:	1f 91       	pop	r17
    792e:	08 95       	ret

00007930 <softspi_read_uint8>:

uint8_t softspi_read_uint8(void)
{
    7930:	cf 93       	push	r28
    7932:	df 93       	push	r29
    7934:	1f 92       	push	r1
    7936:	cd b7       	in	r28, 0x3d	; 61
    7938:	de b7       	in	r29, 0x3e	; 62
    /* receive msb first, sample at clock rising edge */

    /* must be initialized to 0 */
    uint8_t x = 0;
    793a:	19 82       	std	Y+1, r1	; 0x01

    SOFTSPI_MISO_PORT &= ~SOFTSPI_MOSI_BIT;
    793c:	eb e0       	ldi	r30, 0x0B	; 11
    793e:	f1 e0       	ldi	r31, 0x01	; 1
    7940:	80 81       	ld	r24, Z
    7942:	8d 7f       	andi	r24, 0xFD	; 253
    7944:	80 83       	st	Z, r24
    softspi_read_bit(&x, 7);
    7946:	67 e0       	ldi	r22, 0x07	; 7
    7948:	ce 01       	movw	r24, r28
    794a:	01 96       	adiw	r24, 0x01	; 1
    794c:	d0 df       	rcall	.-96     	; 0x78ee <softspi_read_bit>
    softspi_read_bit(&x, 6);
    794e:	66 e0       	ldi	r22, 0x06	; 6
    7950:	ce 01       	movw	r24, r28
    7952:	01 96       	adiw	r24, 0x01	; 1
    7954:	cc df       	rcall	.-104    	; 0x78ee <softspi_read_bit>
    softspi_read_bit(&x, 5);
    7956:	65 e0       	ldi	r22, 0x05	; 5
    7958:	ce 01       	movw	r24, r28
    795a:	01 96       	adiw	r24, 0x01	; 1
    795c:	c8 df       	rcall	.-112    	; 0x78ee <softspi_read_bit>
    softspi_read_bit(&x, 4);
    795e:	64 e0       	ldi	r22, 0x04	; 4
    7960:	ce 01       	movw	r24, r28
    7962:	01 96       	adiw	r24, 0x01	; 1
    7964:	c4 df       	rcall	.-120    	; 0x78ee <softspi_read_bit>
    softspi_read_bit(&x, 3);
    7966:	63 e0       	ldi	r22, 0x03	; 3
    7968:	ce 01       	movw	r24, r28
    796a:	01 96       	adiw	r24, 0x01	; 1
    796c:	c0 df       	rcall	.-128    	; 0x78ee <softspi_read_bit>
    softspi_read_bit(&x, 2);
    796e:	62 e0       	ldi	r22, 0x02	; 2
    7970:	ce 01       	movw	r24, r28
    7972:	01 96       	adiw	r24, 0x01	; 1
    7974:	bc df       	rcall	.-136    	; 0x78ee <softspi_read_bit>
    softspi_read_bit(&x, 1);
    7976:	61 e0       	ldi	r22, 0x01	; 1
    7978:	ce 01       	movw	r24, r28
    797a:	01 96       	adiw	r24, 0x01	; 1
    797c:	b8 df       	rcall	.-144    	; 0x78ee <softspi_read_bit>
    softspi_read_bit(&x, 0);
    797e:	60 e0       	ldi	r22, 0x00	; 0
    7980:	ce 01       	movw	r24, r28
    7982:	01 96       	adiw	r24, 0x01	; 1
    7984:	b4 df       	rcall	.-152    	; 0x78ee <softspi_read_bit>
    7986:	89 81       	ldd	r24, Y+1	; 0x01

    return x;
}
    7988:	0f 90       	pop	r0
    798a:	df 91       	pop	r29
    798c:	cf 91       	pop	r28
    798e:	08 95       	ret

00007990 <spi_transmit_IT>:

}

void spi_transmit_IT( unsigned char *data, unsigned char nbytes, uint8_t Slave)
{
    for (int i = 0 ; i < nbytes ; i++)
    7990:	66 23       	and	r22, r22
    7992:	61 f0       	breq	.+24     	; 0x79ac <spi_transmit_IT+0x1c>
    7994:	fc 01       	movw	r30, r24
    7996:	9c 01       	movw	r18, r24
    7998:	26 0f       	add	r18, r22
    799a:	31 1d       	adc	r19, r1
    {
        SPDR = *(uint8_t *)(data + i);
    799c:	91 91       	ld	r25, Z+
    799e:	9e bd       	out	0x2e, r25	; 46
        while(!(SPSR & (1<<SPIF)));
    79a0:	0d b4       	in	r0, 0x2d	; 45
    79a2:	07 fe       	sbrs	r0, 7
    79a4:	fd cf       	rjmp	.-6      	; 0x79a0 <spi_transmit_IT+0x10>

}

void spi_transmit_IT( unsigned char *data, unsigned char nbytes, uint8_t Slave)
{
    for (int i = 0 ; i < nbytes ; i++)
    79a6:	e2 17       	cp	r30, r18
    79a8:	f3 07       	cpc	r31, r19
    79aa:	c1 f7       	brne	.-16     	; 0x799c <spi_transmit_IT+0xc>
    79ac:	08 95       	ret

000079ae <spi_transmit>:
}

uint8_t spi_transmit(uint8_t data)
{
//  softspi_write_uint8(data);
    SPDR = data;
    79ae:	8e bd       	out	0x2e, r24	; 46
    while(!(SPSR & (1<<SPIF)));
    79b0:	0d b4       	in	r0, 0x2d	; 45
    79b2:	07 fe       	sbrs	r0, 7
    79b4:	fd cf       	rjmp	.-6      	; 0x79b0 <spi_transmit+0x2>
    return data;
}
    79b6:	08 95       	ret

000079b8 <spi_receive>:
{
    unsigned char data;
    // Wait for reception complete
// data = softspi_read_uint8();

    SPDR = 0xff;
    79b8:	8f ef       	ldi	r24, 0xFF	; 255
    79ba:	8e bd       	out	0x2e, r24	; 46
    while(!(SPSR & (1<<SPIF)));
    79bc:	0d b4       	in	r0, 0x2d	; 45
    79be:	07 fe       	sbrs	r0, 7
    79c0:	fd cf       	rjmp	.-6      	; 0x79bc <spi_receive+0x4>
    data = SPDR;
    79c2:	8e b5       	in	r24, 0x2e	; 46

    // Return data register
    return data;
}
    79c4:	08 95       	ret

000079c6 <enable_Slave>:

void enable_Slave(uint8_t Slave)
{
    switch (Slave)
    79c6:	81 30       	cpi	r24, 0x01	; 1
    79c8:	41 f0       	breq	.+16     	; 0x79da <enable_Slave+0x14>
    79ca:	28 f0       	brcs	.+10     	; 0x79d6 <enable_Slave+0x10>
    79cc:	82 30       	cpi	r24, 0x02	; 2
    79ce:	59 f0       	breq	.+22     	; 0x79e6 <enable_Slave+0x20>
    79d0:	83 30       	cpi	r24, 0x03	; 3
    79d2:	59 f0       	breq	.+22     	; 0x79ea <enable_Slave+0x24>
    79d4:	08 95       	ret
    {
    case TMC4671:
        SPI_CS_TMC4671_PORT &= ~SPI_CS_TMC4671_BIT;
    79d6:	28 98       	cbi	0x05, 0	; 5
        break;
    79d8:	08 95       	ret

    case TMC6200:
        SPI_CS_TMC6200_PORT &= ~SPI_CS_TMC6200_BIT;
    79da:	e2 e0       	ldi	r30, 0x02	; 2
    79dc:	f1 e0       	ldi	r31, 0x01	; 1
    79de:	80 81       	ld	r24, Z
    79e0:	8f 7b       	andi	r24, 0xBF	; 191
    79e2:	80 83       	st	Z, r24
        break;
    79e4:	08 95       	ret

    case MFRC522:
        SPI_CS_RC522_PORT &= ~SPI_CS_RC522_BIT;
    79e6:	40 98       	cbi	0x08, 0	; 8
        break;
    79e8:	08 95       	ret

    case SDCARD:
        SPI_CS_SD_CARD_PORT &= ~SPI_CS_SD_CARD_BIT;
    79ea:	a5 98       	cbi	0x14, 5	; 20
    79ec:	08 95       	ret

000079ee <disable_Slave>:
    }
}

void disable_Slave(uint8_t Slave)
{
    switch (Slave)
    79ee:	81 30       	cpi	r24, 0x01	; 1
    79f0:	41 f0       	breq	.+16     	; 0x7a02 <disable_Slave+0x14>
    79f2:	28 f0       	brcs	.+10     	; 0x79fe <disable_Slave+0x10>
    79f4:	82 30       	cpi	r24, 0x02	; 2
    79f6:	59 f0       	breq	.+22     	; 0x7a0e <disable_Slave+0x20>
    79f8:	83 30       	cpi	r24, 0x03	; 3
    79fa:	59 f0       	breq	.+22     	; 0x7a12 <disable_Slave+0x24>
    79fc:	08 95       	ret
    {
    case TMC4671:
        SPI_CS_TMC4671_PORT |= SPI_CS_TMC4671_BIT;
    79fe:	28 9a       	sbi	0x05, 0	; 5
        break;
    7a00:	08 95       	ret

    case TMC6200:
        SPI_CS_TMC6200_PORT |= SPI_CS_TMC6200_BIT;
    7a02:	e2 e0       	ldi	r30, 0x02	; 2
    7a04:	f1 e0       	ldi	r31, 0x01	; 1
    7a06:	80 81       	ld	r24, Z
    7a08:	80 64       	ori	r24, 0x40	; 64
    7a0a:	80 83       	st	Z, r24
        break;
    7a0c:	08 95       	ret

    case MFRC522:
        SPI_CS_RC522_PORT |= SPI_CS_RC522_BIT;
    7a0e:	40 9a       	sbi	0x08, 0	; 8
        break;
    7a10:	08 95       	ret

    case SDCARD:
        SPI_CS_SD_CARD_PORT |= SPI_CS_SD_CARD_BIT;
    7a12:	a5 9a       	sbi	0x14, 5	; 20
    7a14:	08 95       	ret

00007a16 <SPI_init>:

void SPI_init(void)
{
    // Einstellungen fr TMC4671: CLK = 1MHz, SPI-Mode = 3, MSB first)

    SPCR = ((1<<SPE)|       // SPI Enable                   (1 = Enable, 0 = Disable)                   Datasheet S. 197 (Kapitel 21.2.1)
    7a16:	83 e5       	ldi	r24, 0x53	; 83
    7a18:	8c bd       	out	0x2c, r24	; 44
            (1<<MSTR)|              // Master/Slave select          (0 = Slave, 1 = Master)                     Datasheet S. 197 (Kapitel 21.2.1)
            (1<<SPR1)|(1<<SPR0)|    // SPI Clock Rate               (Divider Systemclock 16MHz)                 Datasheet S. 198 (Kapitel 21.2.1)
            (0<<CPOL)|              // Clock Polarity when idle     (0 = low, 1 = SCK high)                     Datasheet S. 197 (Kapitel 21.2.1)
            (0<<CPHA));             // Clock Phase edge sampling    (0 = leading, 1 = trailing edge sampling)   Datasheet S. 197 (Kapitel 21.2.1)

    SPSR = (0<<SPI2X);      // Double Clock Rate            (0 = Disable, 1 = Enable)                   Datasheet S. 198 (Kapitel 21.2.1)
    7a1a:	1d bc       	out	0x2d, r1	; 45

    disable_Slave(SDCARD);
    7a1c:	83 e0       	ldi	r24, 0x03	; 3
    7a1e:	e7 df       	rcall	.-50     	; 0x79ee <disable_Slave>
    disable_Slave(TMC4671);
    7a20:	80 e0       	ldi	r24, 0x00	; 0
    7a22:	e5 df       	rcall	.-54     	; 0x79ee <disable_Slave>
    disable_Slave(TMC6200);
    7a24:	81 e0       	ldi	r24, 0x01	; 1
    7a26:	e3 df       	rcall	.-58     	; 0x79ee <disable_Slave>
    disable_Slave(MFRC522);
    7a28:	82 e0       	ldi	r24, 0x02	; 2
    7a2a:	e1 cf       	rjmp	.-62     	; 0x79ee <disable_Slave>
    7a2c:	08 95       	ret

00007a2e <tmc40bit_writeInt>:
    7a2e:	cf 92       	push	r12
    tmc40bit_writeInt(motor, address, value);
}

void tmc4671_writeInt(unsigned int motor, unsigned char address, unsigned long value)
{
    tmc40bit_writeInt(motor, address, value);
    7a30:	df 92       	push	r13
    7a32:	ef 92       	push	r14
    7a34:	ff 92       	push	r15
    7a36:	0f 93       	push	r16
    7a38:	1f 93       	push	r17
    7a3a:	cf 93       	push	r28
    7a3c:	df 93       	push	r29
    7a3e:	cd b7       	in	r28, 0x3d	; 61
    7a40:	de b7       	in	r29, 0x3e	; 62
    7a42:	2b 97       	sbiw	r28, 0x0b	; 11
    7a44:	0f b6       	in	r0, 0x3f	; 63
    7a46:	f8 94       	cli
    7a48:	de bf       	out	0x3e, r29	; 62
    7a4a:	0f be       	out	0x3f, r0	; 63
    7a4c:	cd bf       	out	0x3d, r28	; 61
    7a4e:	fe 01       	movw	r30, r28
    7a50:	31 96       	adiw	r30, 0x01	; 1
    7a52:	76 e0       	ldi	r23, 0x06	; 6
    7a54:	df 01       	movw	r26, r30
    7a56:	1d 92       	st	X+, r1
    7a58:	7a 95       	dec	r23
    7a5a:	e9 f7       	brne	.-6      	; 0x7a56 <tmc40bit_writeInt+0x28>
    7a5c:	60 68       	ori	r22, 0x80	; 128
    7a5e:	69 83       	std	Y+1, r22	; 0x01
    7a60:	5a 83       	std	Y+2, r21	; 0x02
    7a62:	4b 83       	std	Y+3, r20	; 0x03
    7a64:	3c 83       	std	Y+4, r19	; 0x04
    7a66:	2d 83       	std	Y+5, r18	; 0x05
    7a68:	01 97       	sbiw	r24, 0x01	; 1
    7a6a:	09 f0       	breq	.+2      	; 0x7a6e <tmc40bit_writeInt+0x40>
    7a6c:	48 c0       	rjmp	.+144    	; 0x7afe <tmc40bit_writeInt+0xd0>
    7a6e:	36 96       	adiw	r30, 0x06	; 6
    7a70:	85 e0       	ldi	r24, 0x05	; 5
    7a72:	df 01       	movw	r26, r30
    7a74:	1d 92       	st	X+, r1
    7a76:	8a 95       	dec	r24
    7a78:	e9 f7       	brne	.-6      	; 0x7a74 <tmc40bit_writeInt+0x46>
    7a7a:	80 ed       	ldi	r24, 0xD0	; 208
    7a7c:	98 e0       	ldi	r25, 0x08	; 8
    7a7e:	11 d4       	rcall	.+2082   	; 0x82a2 <Uart_Transmit_IT_PC>
    7a80:	fe 01       	movw	r30, r28
    7a82:	31 96       	adiw	r30, 0x01	; 1
    7a84:	6f 01       	movw	r12, r30
    7a86:	00 e0       	ldi	r16, 0x00	; 0
    7a88:	10 e0       	ldi	r17, 0x00	; 0
    7a8a:	d6 01       	movw	r26, r12
    7a8c:	fd 90       	ld	r15, X+
    7a8e:	6d 01       	movw	r12, r26
    7a90:	f1 10       	cpse	r15, r1
    7a92:	04 c0       	rjmp	.+8      	; 0x7a9c <tmc40bit_writeInt+0x6e>
    7a94:	85 ee       	ldi	r24, 0xE5	; 229
    7a96:	98 e0       	ldi	r25, 0x08	; 8
    7a98:	04 d4       	rcall	.+2056   	; 0x82a2 <Uart_Transmit_IT_PC>
    7a9a:	1d c0       	rjmp	.+58     	; 0x7ad6 <tmc40bit_writeInt+0xa8>
    7a9c:	bf e0       	ldi	r27, 0x0F	; 15
    7a9e:	bf 15       	cp	r27, r15
    7aa0:	78 f0       	brcs	.+30     	; 0x7ac0 <tmc40bit_writeInt+0x92>
    7aa2:	85 e5       	ldi	r24, 0x55	; 85
    7aa4:	93 e0       	ldi	r25, 0x03	; 3
    7aa6:	fd d3       	rcall	.+2042   	; 0x82a2 <Uart_Transmit_IT_PC>
    7aa8:	40 e1       	ldi	r20, 0x10	; 16
    7aaa:	be 01       	movw	r22, r28
    7aac:	69 5f       	subi	r22, 0xF9	; 249
    7aae:	7f 4f       	sbci	r23, 0xFF	; 255
    7ab0:	8f 2d       	mov	r24, r15
    7ab2:	90 e0       	ldi	r25, 0x00	; 0
    7ab4:	0e 94 be 48 	call	0x917c	; 0x917c <__itoa_ncheck>
    7ab8:	ce 01       	movw	r24, r28
    7aba:	07 96       	adiw	r24, 0x07	; 7
    7abc:	f2 d3       	rcall	.+2020   	; 0x82a2 <Uart_Transmit_IT_PC>
    7abe:	0b c0       	rjmp	.+22     	; 0x7ad6 <tmc40bit_writeInt+0xa8>
    7ac0:	40 e1       	ldi	r20, 0x10	; 16
    7ac2:	be 01       	movw	r22, r28
    7ac4:	69 5f       	subi	r22, 0xF9	; 249
    7ac6:	7f 4f       	sbci	r23, 0xFF	; 255
    7ac8:	8f 2d       	mov	r24, r15
    7aca:	90 e0       	ldi	r25, 0x00	; 0
    7acc:	0e 94 be 48 	call	0x917c	; 0x917c <__itoa_ncheck>
    7ad0:	ce 01       	movw	r24, r28
    7ad2:	07 96       	adiw	r24, 0x07	; 7
    7ad4:	e6 d3       	rcall	.+1996   	; 0x82a2 <Uart_Transmit_IT_PC>
    7ad6:	04 30       	cpi	r16, 0x04	; 4
    7ad8:	11 05       	cpc	r17, r1
    7ada:	1c f4       	brge	.+6      	; 0x7ae2 <tmc40bit_writeInt+0xb4>
    7adc:	82 e9       	ldi	r24, 0x92	; 146
    7ade:	97 e0       	ldi	r25, 0x07	; 7
    7ae0:	e0 d3       	rcall	.+1984   	; 0x82a2 <Uart_Transmit_IT_PC>
    7ae2:	0f 5f       	subi	r16, 0xFF	; 255
    7ae4:	1f 4f       	sbci	r17, 0xFF	; 255
    7ae6:	05 30       	cpi	r16, 0x05	; 5
    7ae8:	11 05       	cpc	r17, r1
    7aea:	79 f6       	brne	.-98     	; 0x7a8a <tmc40bit_writeInt+0x5c>
    7aec:	ef e3       	ldi	r30, 0x3F	; 63
    7aee:	fc e9       	ldi	r31, 0x9C	; 156
    7af0:	31 97       	sbiw	r30, 0x01	; 1
    7af2:	f1 f7       	brne	.-4      	; 0x7af0 <tmc40bit_writeInt+0xc2>
    7af4:	00 c0       	rjmp	.+0      	; 0x7af6 <tmc40bit_writeInt+0xc8>
    7af6:	00 00       	nop
    7af8:	88 e2       	ldi	r24, 0x28	; 40
    7afa:	97 e0       	ldi	r25, 0x07	; 7
    7afc:	d2 d3       	rcall	.+1956   	; 0x82a2 <Uart_Transmit_IT_PC>
    7afe:	80 e0       	ldi	r24, 0x00	; 0
    7b00:	62 df       	rcall	.-316    	; 0x79c6 <enable_Slave>
    7b02:	8e 01       	movw	r16, r28
    7b04:	0f 5f       	subi	r16, 0xFF	; 255
    7b06:	1f 4f       	sbci	r17, 0xFF	; 255
    7b08:	7e 01       	movw	r14, r28
    7b0a:	f6 e0       	ldi	r31, 0x06	; 6
    7b0c:	ef 0e       	add	r14, r31
    7b0e:	f1 1c       	adc	r15, r1
    7b10:	d8 01       	movw	r26, r16
    7b12:	8d 91       	ld	r24, X+
    7b14:	8d 01       	movw	r16, r26
    7b16:	d0 de       	rcall	.-608    	; 0x78b8 <softspi_write_uint8>
    7b18:	0e 15       	cp	r16, r14
    7b1a:	1f 05       	cpc	r17, r15
    7b1c:	c9 f7       	brne	.-14     	; 0x7b10 <tmc40bit_writeInt+0xe2>
    7b1e:	80 e0       	ldi	r24, 0x00	; 0
    7b20:	66 df       	rcall	.-308    	; 0x79ee <disable_Slave>
    7b22:	2b 96       	adiw	r28, 0x0b	; 11
    7b24:	0f b6       	in	r0, 0x3f	; 63
    7b26:	f8 94       	cli
    7b28:	de bf       	out	0x3e, r29	; 62
    7b2a:	0f be       	out	0x3f, r0	; 63
    7b2c:	cd bf       	out	0x3d, r28	; 61
    7b2e:	df 91       	pop	r29
    7b30:	cf 91       	pop	r28
    7b32:	1f 91       	pop	r17
    7b34:	0f 91       	pop	r16
    7b36:	ff 90       	pop	r15
    7b38:	ef 90       	pop	r14
    7b3a:	df 90       	pop	r13
    7b3c:	cf 90       	pop	r12
    7b3e:	08 95       	ret

00007b40 <tmc4671_writeInt>:
    7b40:	76 cf       	rjmp	.-276    	; 0x7a2e <tmc40bit_writeInt>
    7b42:	08 95       	ret

00007b44 <tmc40bit_readInt>:
    7b44:	5f 92       	push	r5
    7b46:	6f 92       	push	r6
    7b48:	7f 92       	push	r7
    7b4a:	8f 92       	push	r8
    7b4c:	9f 92       	push	r9
    7b4e:	af 92       	push	r10
    7b50:	bf 92       	push	r11
    7b52:	cf 92       	push	r12
    7b54:	df 92       	push	r13
    7b56:	ef 92       	push	r14
    7b58:	ff 92       	push	r15
    7b5a:	0f 93       	push	r16
    7b5c:	1f 93       	push	r17
    7b5e:	cf 93       	push	r28
    7b60:	df 93       	push	r29
    7b62:	cd b7       	in	r28, 0x3d	; 61
    7b64:	de b7       	in	r29, 0x3e	; 62
    7b66:	2b 97       	sbiw	r28, 0x0b	; 11
    7b68:	0f b6       	in	r0, 0x3f	; 63
    7b6a:	f8 94       	cli
    7b6c:	de bf       	out	0x3e, r29	; 62
    7b6e:	0f be       	out	0x3f, r0	; 63
    7b70:	cd bf       	out	0x3d, r28	; 61
    7b72:	8c 01       	movw	r16, r24
    7b74:	fe 01       	movw	r30, r28
    7b76:	31 96       	adiw	r30, 0x01	; 1
    7b78:	86 e0       	ldi	r24, 0x06	; 6
    7b7a:	df 01       	movw	r26, r30
    7b7c:	1d 92       	st	X+, r1
    7b7e:	8a 95       	dec	r24
    7b80:	e9 f7       	brne	.-6      	; 0x7b7c <tmc40bit_readInt+0x38>
    7b82:	6f 77       	andi	r22, 0x7F	; 127
    7b84:	f6 2e       	mov	r15, r22
    7b86:	69 83       	std	Y+1, r22	; 0x01
    7b88:	80 e0       	ldi	r24, 0x00	; 0
    7b8a:	1d df       	rcall	.-454    	; 0x79c6 <enable_Slave>
    7b8c:	8f 2d       	mov	r24, r15
    7b8e:	94 de       	rcall	.-728    	; 0x78b8 <softspi_write_uint8>
    7b90:	7e 01       	movw	r14, r28
    7b92:	b2 e0       	ldi	r27, 0x02	; 2
    7b94:	eb 0e       	add	r14, r27
    7b96:	f1 1c       	adc	r15, r1
    7b98:	6e 01       	movw	r12, r28
    7b9a:	e6 e0       	ldi	r30, 0x06	; 6
    7b9c:	ce 0e       	add	r12, r30
    7b9e:	d1 1c       	adc	r13, r1
    7ba0:	c7 de       	rcall	.-626    	; 0x7930 <softspi_read_uint8>
    7ba2:	d7 01       	movw	r26, r14
    7ba4:	8d 93       	st	X+, r24
    7ba6:	7d 01       	movw	r14, r26
    7ba8:	ac 15       	cp	r26, r12
    7baa:	bd 05       	cpc	r27, r13
    7bac:	c9 f7       	brne	.-14     	; 0x7ba0 <tmc40bit_readInt+0x5c>
    7bae:	80 e0       	ldi	r24, 0x00	; 0
    7bb0:	1e df       	rcall	.-452    	; 0x79ee <disable_Slave>
    7bb2:	8a 80       	ldd	r8, Y+2	; 0x02
    7bb4:	91 2c       	mov	r9, r1
    7bb6:	a1 2c       	mov	r10, r1
    7bb8:	b1 2c       	mov	r11, r1
    7bba:	ba 2c       	mov	r11, r10
    7bbc:	a9 2c       	mov	r10, r9
    7bbe:	98 2c       	mov	r9, r8
    7bc0:	88 24       	eor	r8, r8
    7bc2:	8b 81       	ldd	r24, Y+3	; 0x03
    7bc4:	88 2a       	or	r8, r24
    7bc6:	ba 2c       	mov	r11, r10
    7bc8:	a9 2c       	mov	r10, r9
    7bca:	98 2c       	mov	r9, r8
    7bcc:	88 24       	eor	r8, r8
    7bce:	8c 81       	ldd	r24, Y+4	; 0x04
    7bd0:	88 2a       	or	r8, r24
    7bd2:	ba 2c       	mov	r11, r10
    7bd4:	a9 2c       	mov	r10, r9
    7bd6:	98 2c       	mov	r9, r8
    7bd8:	88 24       	eor	r8, r8
    7bda:	8d 81       	ldd	r24, Y+5	; 0x05
    7bdc:	88 2a       	or	r8, r24
    7bde:	01 30       	cpi	r16, 0x01	; 1
    7be0:	11 05       	cpc	r17, r1
    7be2:	09 f0       	breq	.+2      	; 0x7be6 <tmc40bit_readInt+0xa2>
    7be4:	4e c0       	rjmp	.+156    	; 0x7c82 <tmc40bit_readInt+0x13e>
    7be6:	88 ee       	ldi	r24, 0xE8	; 232
    7be8:	98 e0       	ldi	r25, 0x08	; 8
    7bea:	5b d3       	rcall	.+1718   	; 0x82a2 <Uart_Transmit_IT_PC>
    7bec:	fe 01       	movw	r30, r28
    7bee:	31 96       	adiw	r30, 0x01	; 1
    7bf0:	6f 01       	movw	r12, r30
    7bf2:	00 e0       	ldi	r16, 0x00	; 0
    7bf4:	10 e0       	ldi	r17, 0x00	; 0
    7bf6:	0f 2e       	mov	r0, r31
    7bf8:	f5 e0       	ldi	r31, 0x05	; 5
    7bfa:	5f 2e       	mov	r5, r31
    7bfc:	f0 2d       	mov	r31, r0
    7bfe:	7e 01       	movw	r14, r28
    7c00:	f7 e0       	ldi	r31, 0x07	; 7
    7c02:	ef 0e       	add	r14, r31
    7c04:	f1 1c       	adc	r15, r1
    7c06:	0f 2e       	mov	r0, r31
    7c08:	f0 e3       	ldi	r31, 0x30	; 48
    7c0a:	6f 2e       	mov	r6, r31
    7c0c:	f0 2d       	mov	r31, r0
    7c0e:	d7 01       	movw	r26, r14
    7c10:	e5 2d       	mov	r30, r5
    7c12:	1d 92       	st	X+, r1
    7c14:	ea 95       	dec	r30
    7c16:	e9 f7       	brne	.-6      	; 0x7c12 <tmc40bit_readInt+0xce>
    7c18:	6f 82       	std	Y+7, r6	; 0x07
    7c1a:	d6 01       	movw	r26, r12
    7c1c:	7d 90       	ld	r7, X+
    7c1e:	6d 01       	movw	r12, r26
    7c20:	71 10       	cpse	r7, r1
    7c22:	04 c0       	rjmp	.+8      	; 0x7c2c <tmc40bit_readInt+0xe8>
    7c24:	85 ee       	ldi	r24, 0xE5	; 229
    7c26:	98 e0       	ldi	r25, 0x08	; 8
    7c28:	3c d3       	rcall	.+1656   	; 0x82a2 <Uart_Transmit_IT_PC>
    7c2a:	17 c0       	rjmp	.+46     	; 0x7c5a <tmc40bit_readInt+0x116>
    7c2c:	bf e0       	ldi	r27, 0x0F	; 15
    7c2e:	b7 15       	cp	r27, r7
    7c30:	60 f0       	brcs	.+24     	; 0x7c4a <tmc40bit_readInt+0x106>
    7c32:	85 e5       	ldi	r24, 0x55	; 85
    7c34:	93 e0       	ldi	r25, 0x03	; 3
    7c36:	35 d3       	rcall	.+1642   	; 0x82a2 <Uart_Transmit_IT_PC>
    7c38:	40 e1       	ldi	r20, 0x10	; 16
    7c3a:	b7 01       	movw	r22, r14
    7c3c:	87 2d       	mov	r24, r7
    7c3e:	90 e0       	ldi	r25, 0x00	; 0
    7c40:	0e 94 be 48 	call	0x917c	; 0x917c <__itoa_ncheck>
    7c44:	c7 01       	movw	r24, r14
    7c46:	2d d3       	rcall	.+1626   	; 0x82a2 <Uart_Transmit_IT_PC>
    7c48:	08 c0       	rjmp	.+16     	; 0x7c5a <tmc40bit_readInt+0x116>
    7c4a:	40 e1       	ldi	r20, 0x10	; 16
    7c4c:	b7 01       	movw	r22, r14
    7c4e:	87 2d       	mov	r24, r7
    7c50:	90 e0       	ldi	r25, 0x00	; 0
    7c52:	0e 94 be 48 	call	0x917c	; 0x917c <__itoa_ncheck>
    7c56:	c7 01       	movw	r24, r14
    7c58:	24 d3       	rcall	.+1608   	; 0x82a2 <Uart_Transmit_IT_PC>
    7c5a:	04 30       	cpi	r16, 0x04	; 4
    7c5c:	11 05       	cpc	r17, r1
    7c5e:	1c f4       	brge	.+6      	; 0x7c66 <tmc40bit_readInt+0x122>
    7c60:	82 e9       	ldi	r24, 0x92	; 146
    7c62:	97 e0       	ldi	r25, 0x07	; 7
    7c64:	1e d3       	rcall	.+1596   	; 0x82a2 <Uart_Transmit_IT_PC>
    7c66:	0f 5f       	subi	r16, 0xFF	; 255
    7c68:	1f 4f       	sbci	r17, 0xFF	; 255
    7c6a:	05 30       	cpi	r16, 0x05	; 5
    7c6c:	11 05       	cpc	r17, r1
    7c6e:	79 f6       	brne	.-98     	; 0x7c0e <tmc40bit_readInt+0xca>
    7c70:	ef e3       	ldi	r30, 0x3F	; 63
    7c72:	fc e9       	ldi	r31, 0x9C	; 156
    7c74:	31 97       	sbiw	r30, 0x01	; 1
    7c76:	f1 f7       	brne	.-4      	; 0x7c74 <tmc40bit_readInt+0x130>
    7c78:	00 c0       	rjmp	.+0      	; 0x7c7a <tmc40bit_readInt+0x136>
    7c7a:	00 00       	nop
    7c7c:	88 e2       	ldi	r24, 0x28	; 40
    7c7e:	97 e0       	ldi	r25, 0x07	; 7
    7c80:	10 d3       	rcall	.+1568   	; 0x82a2 <Uart_Transmit_IT_PC>
    7c82:	c5 01       	movw	r24, r10
    7c84:	b4 01       	movw	r22, r8
    7c86:	2b 96       	adiw	r28, 0x0b	; 11
    7c88:	0f b6       	in	r0, 0x3f	; 63
    7c8a:	f8 94       	cli
    7c8c:	de bf       	out	0x3e, r29	; 62
    7c8e:	0f be       	out	0x3f, r0	; 63
    7c90:	cd bf       	out	0x3d, r28	; 61
    7c92:	df 91       	pop	r29
    7c94:	cf 91       	pop	r28
    7c96:	1f 91       	pop	r17
    7c98:	0f 91       	pop	r16
    7c9a:	ff 90       	pop	r15
    7c9c:	ef 90       	pop	r14
    7c9e:	df 90       	pop	r13
    7ca0:	cf 90       	pop	r12
    7ca2:	bf 90       	pop	r11
    7ca4:	af 90       	pop	r10
    7ca6:	9f 90       	pop	r9
    7ca8:	8f 90       	pop	r8
    7caa:	7f 90       	pop	r7
    7cac:	6f 90       	pop	r6
    7cae:	5f 90       	pop	r5
    7cb0:	08 95       	ret

00007cb2 <tmc4671_readInt>:
    7cb2:	48 cf       	rjmp	.-368    	; 0x7b44 <tmc40bit_readInt>
    7cb4:	08 95       	ret

00007cb6 <encoder_testdrive>:
    7cb6:	28 e0       	ldi	r18, 0x08	; 8
    7cb8:	30 e0       	ldi	r19, 0x00	; 0
    7cba:	40 e0       	ldi	r20, 0x00	; 0
    7cbc:	50 e0       	ldi	r21, 0x00	; 0
    7cbe:	63 e6       	ldi	r22, 0x63	; 99
    7cc0:	80 e0       	ldi	r24, 0x00	; 0
    7cc2:	90 e0       	ldi	r25, 0x00	; 0
    7cc4:	b4 de       	rcall	.-664    	; 0x7a2e <tmc40bit_writeInt>
    7cc6:	20 e0       	ldi	r18, 0x00	; 0
    7cc8:	30 e0       	ldi	r19, 0x00	; 0
    7cca:	a9 01       	movw	r20, r18
    7ccc:	69 e2       	ldi	r22, 0x29	; 41
    7cce:	80 e0       	ldi	r24, 0x00	; 0
    7cd0:	90 e0       	ldi	r25, 0x00	; 0
    7cd2:	ad de       	rcall	.-678    	; 0x7a2e <tmc40bit_writeInt>
    7cd4:	21 e0       	ldi	r18, 0x01	; 1
    7cd6:	30 e0       	ldi	r19, 0x00	; 0
    7cd8:	40 e0       	ldi	r20, 0x00	; 0
    7cda:	50 e0       	ldi	r21, 0x00	; 0
    7cdc:	62 e5       	ldi	r22, 0x52	; 82
    7cde:	80 e0       	ldi	r24, 0x00	; 0
    7ce0:	90 e0       	ldi	r25, 0x00	; 0
    7ce2:	a5 de       	rcall	.-694    	; 0x7a2e <tmc40bit_writeInt>
    7ce4:	20 e0       	ldi	r18, 0x00	; 0
    7ce6:	30 e0       	ldi	r19, 0x00	; 0
    7ce8:	a9 01       	movw	r20, r18
    7cea:	6c e1       	ldi	r22, 0x1C	; 28
    7cec:	80 e0       	ldi	r24, 0x00	; 0
    7cee:	90 e0       	ldi	r25, 0x00	; 0
    7cf0:	9e de       	rcall	.-708    	; 0x7a2e <tmc40bit_writeInt>
    7cf2:	20 ed       	ldi	r18, 0xD0	; 208
    7cf4:	37 e0       	ldi	r19, 0x07	; 7
    7cf6:	40 e0       	ldi	r20, 0x00	; 0
    7cf8:	50 e0       	ldi	r21, 0x00	; 0
    7cfa:	64 e2       	ldi	r22, 0x24	; 36
    7cfc:	80 e0       	ldi	r24, 0x00	; 0
    7cfe:	90 e0       	ldi	r25, 0x00	; 0
    7d00:	96 de       	rcall	.-724    	; 0x7a2e <tmc40bit_writeInt>
    7d02:	2f ef       	ldi	r18, 0xFF	; 255
    7d04:	83 ed       	ldi	r24, 0xD3	; 211
    7d06:	90 e3       	ldi	r25, 0x30	; 48
    7d08:	21 50       	subi	r18, 0x01	; 1
    7d0a:	80 40       	sbci	r24, 0x00	; 0
    7d0c:	90 40       	sbci	r25, 0x00	; 0
    7d0e:	e1 f7       	brne	.-8      	; 0x7d08 <encoder_testdrive+0x52>
    7d10:	00 c0       	rjmp	.+0      	; 0x7d12 <encoder_testdrive+0x5c>
    7d12:	00 00       	nop
    7d14:	20 e0       	ldi	r18, 0x00	; 0
    7d16:	30 e0       	ldi	r19, 0x00	; 0
    7d18:	a9 01       	movw	r20, r18
    7d1a:	67 e2       	ldi	r22, 0x27	; 39
    7d1c:	80 e0       	ldi	r24, 0x00	; 0
    7d1e:	90 e0       	ldi	r25, 0x00	; 0
    7d20:	86 de       	rcall	.-756    	; 0x7a2e <tmc40bit_writeInt>
    7d22:	23 e0       	ldi	r18, 0x03	; 3
    7d24:	30 e0       	ldi	r19, 0x00	; 0
    7d26:	40 e0       	ldi	r20, 0x00	; 0
    7d28:	50 e0       	ldi	r21, 0x00	; 0
    7d2a:	62 e5       	ldi	r22, 0x52	; 82
    7d2c:	80 e0       	ldi	r24, 0x00	; 0
    7d2e:	90 e0       	ldi	r25, 0x00	; 0
    7d30:	7e de       	rcall	.-772    	; 0x7a2e <tmc40bit_writeInt>
    7d32:	29 e0       	ldi	r18, 0x09	; 9
    7d34:	30 e0       	ldi	r19, 0x00	; 0
    7d36:	40 e0       	ldi	r20, 0x00	; 0
    7d38:	50 e0       	ldi	r21, 0x00	; 0
    7d3a:	60 e5       	ldi	r22, 0x50	; 80
    7d3c:	80 e0       	ldi	r24, 0x00	; 0
    7d3e:	90 e0       	ldi	r25, 0x00	; 0
    7d40:	76 de       	rcall	.-788    	; 0x7a2e <tmc40bit_writeInt>
    7d42:	21 e0       	ldi	r18, 0x01	; 1
    7d44:	30 e0       	ldi	r19, 0x00	; 0
    7d46:	40 e0       	ldi	r20, 0x00	; 0
    7d48:	50 e0       	ldi	r21, 0x00	; 0
    7d4a:	63 e6       	ldi	r22, 0x63	; 99
    7d4c:	80 e0       	ldi	r24, 0x00	; 0
    7d4e:	90 e0       	ldi	r25, 0x00	; 0
    7d50:	6e de       	rcall	.-804    	; 0x7a2e <tmc40bit_writeInt>
    7d52:	20 e0       	ldi	r18, 0x00	; 0
    7d54:	30 e0       	ldi	r19, 0x00	; 0
    7d56:	a9 01       	movw	r20, r18
    7d58:	64 e6       	ldi	r22, 0x64	; 100
    7d5a:	80 e0       	ldi	r24, 0x00	; 0
    7d5c:	90 e0       	ldi	r25, 0x00	; 0
    7d5e:	67 ce       	rjmp	.-818    	; 0x7a2e <tmc40bit_writeInt>
    7d60:	08 95       	ret

00007d62 <tmc4671_switchToMotionMode>:
    7d62:	1f 93       	push	r17
    7d64:	cf 93       	push	r28
    7d66:	df 93       	push	r29
    7d68:	16 2f       	mov	r17, r22
    7d6a:	c8 2f       	mov	r28, r24
    7d6c:	d0 e0       	ldi	r29, 0x00	; 0
    7d6e:	63 e6       	ldi	r22, 0x63	; 99
    7d70:	ce 01       	movw	r24, r28
    7d72:	9f df       	rcall	.-194    	; 0x7cb2 <tmc4671_readInt>
    7d74:	dc 01       	movw	r26, r24
    7d76:	cb 01       	movw	r24, r22
    7d78:	88 27       	eor	r24, r24
    7d7a:	9c 01       	movw	r18, r24
    7d7c:	ad 01       	movw	r20, r26
    7d7e:	21 2b       	or	r18, r17
    7d80:	63 e6       	ldi	r22, 0x63	; 99
    7d82:	ce 01       	movw	r24, r28
    7d84:	54 de       	rcall	.-856    	; 0x7a2e <tmc40bit_writeInt>
    7d86:	df 91       	pop	r29
    7d88:	cf 91       	pop	r28
    7d8a:	1f 91       	pop	r17
    7d8c:	08 95       	ret

00007d8e <tmc4671_setAbsolutTargetPosition>:
    7d8e:	cf 92       	push	r12
    7d90:	df 92       	push	r13
    7d92:	ef 92       	push	r14
    7d94:	ff 92       	push	r15
    7d96:	cf 93       	push	r28
    7d98:	c8 2f       	mov	r28, r24
    7d9a:	6a 01       	movw	r12, r20
    7d9c:	7b 01       	movw	r14, r22
    7d9e:	63 e0       	ldi	r22, 0x03	; 3
    7da0:	e0 df       	rcall	.-64     	; 0x7d62 <tmc4671_switchToMotionMode>
    7da2:	a7 01       	movw	r20, r14
    7da4:	96 01       	movw	r18, r12
    7da6:	68 e6       	ldi	r22, 0x68	; 104
    7da8:	8c 2f       	mov	r24, r28
    7daa:	90 e0       	ldi	r25, 0x00	; 0
    7dac:	40 de       	rcall	.-896    	; 0x7a2e <tmc40bit_writeInt>
    7dae:	cf 91       	pop	r28
    7db0:	ff 90       	pop	r15
    7db2:	ef 90       	pop	r14
    7db4:	df 90       	pop	r13
    7db6:	cf 90       	pop	r12
    7db8:	08 95       	ret

00007dba <initTMC4671_Encoder>:
    7dba:	20 e0       	ldi	r18, 0x00	; 0
    7dbc:	30 e0       	ldi	r19, 0x00	; 0
    7dbe:	a9 01       	movw	r20, r18
    7dc0:	67 e1       	ldi	r22, 0x17	; 23
    7dc2:	80 e0       	ldi	r24, 0x00	; 0
    7dc4:	90 e0       	ldi	r25, 0x00	; 0
    7dc6:	33 de       	rcall	.-922    	; 0x7a2e <tmc40bit_writeInt>
    7dc8:	23 e0       	ldi	r18, 0x03	; 3
    7dca:	30 e0       	ldi	r19, 0x00	; 0
    7dcc:	a9 01       	movw	r20, r18
    7dce:	6b e1       	ldi	r22, 0x1B	; 27
    7dd0:	80 e0       	ldi	r24, 0x00	; 0
    7dd2:	90 e0       	ldi	r25, 0x00	; 0
    7dd4:	2c de       	rcall	.-936    	; 0x7a2e <tmc40bit_writeInt>
    7dd6:	2f e9       	ldi	r18, 0x9F	; 159
    7dd8:	3f e0       	ldi	r19, 0x0F	; 15
    7dda:	40 e0       	ldi	r20, 0x00	; 0
    7ddc:	50 e0       	ldi	r21, 0x00	; 0
    7dde:	68 e1       	ldi	r22, 0x18	; 24
    7de0:	80 e0       	ldi	r24, 0x00	; 0
    7de2:	90 e0       	ldi	r25, 0x00	; 0
    7de4:	24 de       	rcall	.-952    	; 0x7a2e <tmc40bit_writeInt>
    7de6:	29 e1       	ldi	r18, 0x19	; 25
    7de8:	39 e1       	ldi	r19, 0x19	; 25
    7dea:	40 e0       	ldi	r20, 0x00	; 0
    7dec:	50 e0       	ldi	r21, 0x00	; 0
    7dee:	69 e1       	ldi	r22, 0x19	; 25
    7df0:	80 e0       	ldi	r24, 0x00	; 0
    7df2:	90 e0       	ldi	r25, 0x00	; 0
    7df4:	1c de       	rcall	.-968    	; 0x7a2e <tmc40bit_writeInt>
    7df6:	27 e0       	ldi	r18, 0x07	; 7
    7df8:	30 e0       	ldi	r19, 0x00	; 0
    7dfa:	40 e0       	ldi	r20, 0x00	; 0
    7dfc:	50 e0       	ldi	r21, 0x00	; 0
    7dfe:	6a e1       	ldi	r22, 0x1A	; 26
    7e00:	80 e0       	ldi	r24, 0x00	; 0
    7e02:	90 e0       	ldi	r25, 0x00	; 0
    7e04:	14 de       	rcall	.-984    	; 0x7a2e <tmc40bit_writeInt>
    7e06:	2f ef       	ldi	r18, 0xFF	; 255
    7e08:	81 ee       	ldi	r24, 0xE1	; 225
    7e0a:	94 e0       	ldi	r25, 0x04	; 4
    7e0c:	21 50       	subi	r18, 0x01	; 1
    7e0e:	80 40       	sbci	r24, 0x00	; 0
    7e10:	90 40       	sbci	r25, 0x00	; 0
    7e12:	e1 f7       	brne	.-8      	; 0x7e0c <initTMC4671_Encoder+0x52>
    7e14:	00 c0       	rjmp	.+0      	; 0x7e16 <initTMC4671_Encoder+0x5c>
    7e16:	00 00       	nop
    7e18:	20 e0       	ldi	r18, 0x00	; 0
    7e1a:	31 e0       	ldi	r19, 0x01	; 1
    7e1c:	40 e0       	ldi	r20, 0x00	; 0
    7e1e:	54 e2       	ldi	r21, 0x24	; 36
    7e20:	6a e0       	ldi	r22, 0x0A	; 10
    7e22:	80 e0       	ldi	r24, 0x00	; 0
    7e24:	90 e0       	ldi	r25, 0x00	; 0
    7e26:	03 de       	rcall	.-1018   	; 0x7a2e <tmc40bit_writeInt>
    7e28:	20 e1       	ldi	r18, 0x10	; 16
    7e2a:	30 e0       	ldi	r19, 0x00	; 0
    7e2c:	a9 01       	movw	r20, r18
    7e2e:	64 e0       	ldi	r22, 0x04	; 4
    7e30:	80 e0       	ldi	r24, 0x00	; 0
    7e32:	90 e0       	ldi	r25, 0x00	; 0
    7e34:	fc dd       	rcall	.-1032   	; 0x7a2e <tmc40bit_writeInt>
    7e36:	20 e0       	ldi	r18, 0x00	; 0
    7e38:	30 e0       	ldi	r19, 0x00	; 0
    7e3a:	40 e0       	ldi	r20, 0x00	; 0
    7e3c:	50 e2       	ldi	r21, 0x20	; 32
    7e3e:	65 e0       	ldi	r22, 0x05	; 5
    7e40:	80 e0       	ldi	r24, 0x00	; 0
    7e42:	90 e0       	ldi	r25, 0x00	; 0
    7e44:	f4 dd       	rcall	.-1048   	; 0x7a2e <tmc40bit_writeInt>
    7e46:	20 e0       	ldi	r18, 0x00	; 0
    7e48:	30 e0       	ldi	r19, 0x00	; 0
    7e4a:	a9 01       	movw	r20, r18
    7e4c:	66 e0       	ldi	r22, 0x06	; 6
    7e4e:	80 e0       	ldi	r24, 0x00	; 0
    7e50:	90 e0       	ldi	r25, 0x00	; 0
    7e52:	ed dd       	rcall	.-1062   	; 0x7a2e <tmc40bit_writeInt>
    7e54:	2e e4       	ldi	r18, 0x4E	; 78
    7e56:	31 e0       	ldi	r19, 0x01	; 1
    7e58:	a9 01       	movw	r20, r18
    7e5a:	67 e0       	ldi	r22, 0x07	; 7
    7e5c:	80 e0       	ldi	r24, 0x00	; 0
    7e5e:	90 e0       	ldi	r25, 0x00	; 0
    7e60:	e6 dd       	rcall	.-1076   	; 0x7a2e <tmc40bit_writeInt>
    7e62:	23 e7       	ldi	r18, 0x73	; 115
    7e64:	30 e8       	ldi	r19, 0x80	; 128
    7e66:	40 e0       	ldi	r20, 0x00	; 0
    7e68:	5f ef       	ldi	r21, 0xFF	; 255
    7e6a:	69 e0       	ldi	r22, 0x09	; 9
    7e6c:	80 e0       	ldi	r24, 0x00	; 0
    7e6e:	90 e0       	ldi	r25, 0x00	; 0
    7e70:	de dd       	rcall	.-1092   	; 0x7a2e <tmc40bit_writeInt>
    7e72:	2b e1       	ldi	r18, 0x1B	; 27
    7e74:	3e e8       	ldi	r19, 0x8E	; 142
    7e76:	40 e0       	ldi	r20, 0x00	; 0
    7e78:	5f ef       	ldi	r21, 0xFF	; 255
    7e7a:	68 e0       	ldi	r22, 0x08	; 8
    7e7c:	80 e0       	ldi	r24, 0x00	; 0
    7e7e:	90 e0       	ldi	r25, 0x00	; 0
    7e80:	d6 dd       	rcall	.-1108   	; 0x7a2e <tmc40bit_writeInt>
    7e82:	2f ef       	ldi	r18, 0xFF	; 255
    7e84:	81 ee       	ldi	r24, 0xE1	; 225
    7e86:	94 e0       	ldi	r25, 0x04	; 4
    7e88:	21 50       	subi	r18, 0x01	; 1
    7e8a:	80 40       	sbci	r24, 0x00	; 0
    7e8c:	90 40       	sbci	r25, 0x00	; 0
    7e8e:	e1 f7       	brne	.-8      	; 0x7e88 <initTMC4671_Encoder+0xce>
    7e90:	00 c0       	rjmp	.+0      	; 0x7e92 <initTMC4671_Encoder+0xd8>
    7e92:	00 00       	nop
    7e94:	2a e0       	ldi	r18, 0x0A	; 10
    7e96:	30 e1       	ldi	r19, 0x10	; 16
    7e98:	40 e0       	ldi	r20, 0x00	; 0
    7e9a:	50 e0       	ldi	r21, 0x00	; 0
    7e9c:	65 e2       	ldi	r22, 0x25	; 37
    7e9e:	80 e0       	ldi	r24, 0x00	; 0
    7ea0:	90 e0       	ldi	r25, 0x00	; 0
    7ea2:	c5 dd       	rcall	.-1142   	; 0x7a2e <tmc40bit_writeInt>
    7ea4:	20 e0       	ldi	r18, 0x00	; 0
    7ea6:	30 e2       	ldi	r19, 0x20	; 32
    7ea8:	40 e0       	ldi	r20, 0x00	; 0
    7eaa:	50 e0       	ldi	r21, 0x00	; 0
    7eac:	66 e2       	ldi	r22, 0x26	; 38
    7eae:	80 e0       	ldi	r24, 0x00	; 0
    7eb0:	90 e0       	ldi	r25, 0x00	; 0
    7eb2:	bd dd       	rcall	.-1158   	; 0x7a2e <tmc40bit_writeInt>
    7eb4:	20 e0       	ldi	r18, 0x00	; 0
    7eb6:	30 e0       	ldi	r19, 0x00	; 0
    7eb8:	a9 01       	movw	r20, r18
    7eba:	67 e2       	ldi	r22, 0x27	; 39
    7ebc:	80 e0       	ldi	r24, 0x00	; 0
    7ebe:	90 e0       	ldi	r25, 0x00	; 0
    7ec0:	b6 dd       	rcall	.-1172   	; 0x7a2e <tmc40bit_writeInt>
    7ec2:	20 e0       	ldi	r18, 0x00	; 0
    7ec4:	30 e0       	ldi	r19, 0x00	; 0
    7ec6:	a9 01       	movw	r20, r18
    7ec8:	69 e2       	ldi	r22, 0x29	; 41
    7eca:	80 e0       	ldi	r24, 0x00	; 0
    7ecc:	90 e0       	ldi	r25, 0x00	; 0
    7ece:	af dd       	rcall	.-1186   	; 0x7a2e <tmc40bit_writeInt>
    7ed0:	2f ef       	ldi	r18, 0xFF	; 255
    7ed2:	81 ee       	ldi	r24, 0xE1	; 225
    7ed4:	94 e0       	ldi	r25, 0x04	; 4
    7ed6:	21 50       	subi	r18, 0x01	; 1
    7ed8:	80 40       	sbci	r24, 0x00	; 0
    7eda:	90 40       	sbci	r25, 0x00	; 0
    7edc:	e1 f7       	brne	.-8      	; 0x7ed6 <initTMC4671_Encoder+0x11c>
    7ede:	00 c0       	rjmp	.+0      	; 0x7ee0 <initTMC4671_Encoder+0x126>
    7ee0:	00 00       	nop
    7ee2:	2f ef       	ldi	r18, 0xFF	; 255
    7ee4:	3f e7       	ldi	r19, 0x7F	; 127
    7ee6:	40 e0       	ldi	r20, 0x00	; 0
    7ee8:	50 e0       	ldi	r21, 0x00	; 0
    7eea:	6c e5       	ldi	r22, 0x5C	; 92
    7eec:	80 e0       	ldi	r24, 0x00	; 0
    7eee:	90 e0       	ldi	r25, 0x00	; 0
    7ef0:	9e dd       	rcall	.-1220   	; 0x7a2e <tmc40bit_writeInt>
    7ef2:	21 e8       	ldi	r18, 0x81	; 129
    7ef4:	3a e5       	ldi	r19, 0x5A	; 90
    7ef6:	40 e0       	ldi	r20, 0x00	; 0
    7ef8:	50 e0       	ldi	r21, 0x00	; 0
    7efa:	6d e5       	ldi	r22, 0x5D	; 93
    7efc:	80 e0       	ldi	r24, 0x00	; 0
    7efe:	90 e0       	ldi	r25, 0x00	; 0
    7f00:	96 dd       	rcall	.-1236   	; 0x7a2e <tmc40bit_writeInt>
    7f02:	24 ec       	ldi	r18, 0xC4	; 196
    7f04:	39 e0       	ldi	r19, 0x09	; 9
    7f06:	40 e0       	ldi	r20, 0x00	; 0
    7f08:	50 e0       	ldi	r21, 0x00	; 0
    7f0a:	6e e5       	ldi	r22, 0x5E	; 94
    7f0c:	80 e0       	ldi	r24, 0x00	; 0
    7f0e:	90 e0       	ldi	r25, 0x00	; 0
    7f10:	8e dd       	rcall	.-1252   	; 0x7a2e <tmc40bit_writeInt>
    7f12:	28 ec       	ldi	r18, 0xC8	; 200
    7f14:	30 e0       	ldi	r19, 0x00	; 0
    7f16:	40 e0       	ldi	r20, 0x00	; 0
    7f18:	50 e0       	ldi	r21, 0x00	; 0
    7f1a:	6f e5       	ldi	r22, 0x5F	; 95
    7f1c:	80 e0       	ldi	r24, 0x00	; 0
    7f1e:	90 e0       	ldi	r25, 0x00	; 0
    7f20:	86 dd       	rcall	.-1268   	; 0x7a2e <tmc40bit_writeInt>
    7f22:	2c ed       	ldi	r18, 0xDC	; 220
    7f24:	35 e0       	ldi	r19, 0x05	; 5
    7f26:	40 e0       	ldi	r20, 0x00	; 0
    7f28:	50 e0       	ldi	r21, 0x00	; 0
    7f2a:	60 e6       	ldi	r22, 0x60	; 96
    7f2c:	80 e0       	ldi	r24, 0x00	; 0
    7f2e:	90 e0       	ldi	r25, 0x00	; 0
    7f30:	7e dd       	rcall	.-1284   	; 0x7a2e <tmc40bit_writeInt>
    7f32:	21 e0       	ldi	r18, 0x01	; 1
    7f34:	30 e0       	ldi	r19, 0x00	; 0
    7f36:	40 e0       	ldi	r20, 0x00	; 0
    7f38:	50 e8       	ldi	r21, 0x80	; 128
    7f3a:	61 e6       	ldi	r22, 0x61	; 97
    7f3c:	80 e0       	ldi	r24, 0x00	; 0
    7f3e:	90 e0       	ldi	r25, 0x00	; 0
    7f40:	76 dd       	rcall	.-1300   	; 0x7a2e <tmc40bit_writeInt>
    7f42:	2f ef       	ldi	r18, 0xFF	; 255
    7f44:	3f ef       	ldi	r19, 0xFF	; 255
    7f46:	4f ef       	ldi	r20, 0xFF	; 255
    7f48:	5f e7       	ldi	r21, 0x7F	; 127
    7f4a:	62 e6       	ldi	r22, 0x62	; 98
    7f4c:	80 e0       	ldi	r24, 0x00	; 0
    7f4e:	90 e0       	ldi	r25, 0x00	; 0
    7f50:	6e dd       	rcall	.-1316   	; 0x7a2e <tmc40bit_writeInt>
    7f52:	2f ef       	ldi	r18, 0xFF	; 255
    7f54:	81 ee       	ldi	r24, 0xE1	; 225
    7f56:	94 e0       	ldi	r25, 0x04	; 4
    7f58:	21 50       	subi	r18, 0x01	; 1
    7f5a:	80 40       	sbci	r24, 0x00	; 0
    7f5c:	90 40       	sbci	r25, 0x00	; 0
    7f5e:	e1 f7       	brne	.-8      	; 0x7f58 <initTMC4671_Encoder+0x19e>
    7f60:	00 c0       	rjmp	.+0      	; 0x7f62 <initTMC4671_Encoder+0x1a8>
    7f62:	00 00       	nop
    7f64:	20 ee       	ldi	r18, 0xE0	; 224
    7f66:	3e e2       	ldi	r19, 0x2E	; 46
    7f68:	44 e6       	ldi	r20, 0x64	; 100
    7f6a:	50 e0       	ldi	r21, 0x00	; 0
    7f6c:	66 e5       	ldi	r22, 0x56	; 86
    7f6e:	80 e0       	ldi	r24, 0x00	; 0
    7f70:	90 e0       	ldi	r25, 0x00	; 0
    7f72:	5d dd       	rcall	.-1350   	; 0x7a2e <tmc40bit_writeInt>
    7f74:	20 ee       	ldi	r18, 0xE0	; 224
    7f76:	3e e2       	ldi	r19, 0x2E	; 46
    7f78:	44 e6       	ldi	r20, 0x64	; 100
    7f7a:	50 e0       	ldi	r21, 0x00	; 0
    7f7c:	64 e5       	ldi	r22, 0x54	; 84
    7f7e:	80 e0       	ldi	r24, 0x00	; 0
    7f80:	90 e0       	ldi	r25, 0x00	; 0
    7f82:	55 dd       	rcall	.-1366   	; 0x7a2e <tmc40bit_writeInt>
    7f84:	24 ef       	ldi	r18, 0xF4	; 244
    7f86:	31 e0       	ldi	r19, 0x01	; 1
    7f88:	40 ed       	ldi	r20, 0xD0	; 208
    7f8a:	57 e0       	ldi	r21, 0x07	; 7
    7f8c:	68 e5       	ldi	r22, 0x58	; 88
    7f8e:	80 e0       	ldi	r24, 0x00	; 0
    7f90:	90 e0       	ldi	r25, 0x00	; 0
    7f92:	4d dd       	rcall	.-1382   	; 0x7a2e <tmc40bit_writeInt>
    7f94:	20 e0       	ldi	r18, 0x00	; 0
    7f96:	30 e0       	ldi	r19, 0x00	; 0
    7f98:	48 ec       	ldi	r20, 0xC8	; 200
    7f9a:	50 e0       	ldi	r21, 0x00	; 0
    7f9c:	6a e5       	ldi	r22, 0x5A	; 90
    7f9e:	80 e0       	ldi	r24, 0x00	; 0
    7fa0:	90 e0       	ldi	r25, 0x00	; 0
    7fa2:	45 dd       	rcall	.-1398   	; 0x7a2e <tmc40bit_writeInt>
    7fa4:	2f ef       	ldi	r18, 0xFF	; 255
    7fa6:	81 ee       	ldi	r24, 0xE1	; 225
    7fa8:	94 e0       	ldi	r25, 0x04	; 4
    7faa:	21 50       	subi	r18, 0x01	; 1
    7fac:	80 40       	sbci	r24, 0x00	; 0
    7fae:	90 40       	sbci	r25, 0x00	; 0
    7fb0:	e1 f7       	brne	.-8      	; 0x7faa <initTMC4671_Encoder+0x1f0>
    7fb2:	00 c0       	rjmp	.+0      	; 0x7fb4 <initTMC4671_Encoder+0x1fa>
    7fb4:	00 00       	nop
    7fb6:	7f de       	rcall	.-770    	; 0x7cb6 <encoder_testdrive>
    7fb8:	23 e0       	ldi	r18, 0x03	; 3
    7fba:	30 e0       	ldi	r19, 0x00	; 0
    7fbc:	40 e0       	ldi	r20, 0x00	; 0
    7fbe:	50 e0       	ldi	r21, 0x00	; 0
    7fc0:	62 e5       	ldi	r22, 0x52	; 82
    7fc2:	80 e0       	ldi	r24, 0x00	; 0
    7fc4:	90 e0       	ldi	r25, 0x00	; 0
    7fc6:	33 dd       	rcall	.-1434   	; 0x7a2e <tmc40bit_writeInt>
    7fc8:	23 e0       	ldi	r18, 0x03	; 3
    7fca:	30 e0       	ldi	r19, 0x00	; 0
    7fcc:	40 e0       	ldi	r20, 0x00	; 0
    7fce:	50 e0       	ldi	r21, 0x00	; 0
    7fd0:	63 e6       	ldi	r22, 0x63	; 99
    7fd2:	80 e0       	ldi	r24, 0x00	; 0
    7fd4:	90 e0       	ldi	r25, 0x00	; 0
    7fd6:	2b dd       	rcall	.-1450   	; 0x7a2e <tmc40bit_writeInt>
    7fd8:	20 e0       	ldi	r18, 0x00	; 0
    7fda:	30 e0       	ldi	r19, 0x00	; 0
    7fdc:	a9 01       	movw	r20, r18
    7fde:	6b e6       	ldi	r22, 0x6B	; 107
    7fe0:	80 e0       	ldi	r24, 0x00	; 0
    7fe2:	90 e0       	ldi	r25, 0x00	; 0
    7fe4:	24 dd       	rcall	.-1464   	; 0x7a2e <tmc40bit_writeInt>
    7fe6:	40 e0       	ldi	r20, 0x00	; 0
    7fe8:	50 e0       	ldi	r21, 0x00	; 0
    7fea:	ba 01       	movw	r22, r20
    7fec:	80 e0       	ldi	r24, 0x00	; 0
    7fee:	cf ce       	rjmp	.-610    	; 0x7d8e <tmc4671_setAbsolutTargetPosition>
    7ff0:	08 95       	ret

00007ff2 <tmc4671_getActualPosition>:
    tmc4671_writeInt(motor, TMC4671_PID_POSITION_ACTUAL, actualPosition);
}

int32_t tmc4671_getActualPosition(uint8_t motor)
{
    return tmc4671_readInt(motor, TMC4671_PID_POSITION_ACTUAL);
    7ff2:	6b e6       	ldi	r22, 0x6B	; 107
    7ff4:	90 e0       	ldi	r25, 0x00	; 0
    7ff6:	5d ce       	rjmp	.-838    	; 0x7cb2 <tmc4671_readInt>
}
    7ff8:	08 95       	ret

00007ffa <tmc6200_writeInt>:
	// Return int32_t value
	return value;
}

void tmc6200_writeInt(uint8_t debug_message, uint8_t address, uint32_t value)
{
    7ffa:	cf 92       	push	r12
    7ffc:	df 92       	push	r13
    7ffe:	ef 92       	push	r14
    8000:	ff 92       	push	r15
    8002:	0f 93       	push	r16
    8004:	1f 93       	push	r17
    8006:	cf 93       	push	r28
    8008:	df 93       	push	r29
    800a:	cd b7       	in	r28, 0x3d	; 61
    800c:	de b7       	in	r29, 0x3e	; 62
    800e:	2b 97       	sbiw	r28, 0x0b	; 11
    8010:	0f b6       	in	r0, 0x3f	; 63
    8012:	f8 94       	cli
    8014:	de bf       	out	0x3e, r29	; 62
    8016:	0f be       	out	0x3f, r0	; 63
    8018:	cd bf       	out	0x3d, r28	; 61
	// Buffer transmit Data
	char tbuf[6] = {'\0'};
    801a:	fe 01       	movw	r30, r28
    801c:	31 96       	adiw	r30, 0x01	; 1
    801e:	96 e0       	ldi	r25, 0x06	; 6
    8020:	df 01       	movw	r26, r30
    8022:	1d 92       	st	X+, r1
    8024:	9a 95       	dec	r25
    8026:	e9 f7       	brne	.-6      	; 0x8022 <tmc6200_writeInt+0x28>
		
	// Write-mode (first Bit = 1)
	address |= 0x80;
	
	// Write address at first place
	tbuf[0] = address;
    8028:	60 68       	ori	r22, 0x80	; 128
    802a:	69 83       	std	Y+1, r22	; 0x01
	
	// Generate Array out of data
	tbuf[1] = 0xFF & (value>>24);
    802c:	5a 83       	std	Y+2, r21	; 0x02
	tbuf[2] = 0xFF & (value>>16);
    802e:	4b 83       	std	Y+3, r20	; 0x03
	tbuf[3] = 0xFF & (value>>8);
    8030:	3c 83       	std	Y+4, r19	; 0x04
	tbuf[4] = 0xFF & value;
    8032:	2d 83       	std	Y+5, r18	; 0x05
		
	// Show transmitted data via serial port

	if (debug_message==1)
    8034:	81 30       	cpi	r24, 0x01	; 1
    8036:	09 f0       	breq	.+2      	; 0x803a <tmc6200_writeInt+0x40>
    8038:	49 c0       	rjmp	.+146    	; 0x80cc <tmc6200_writeInt+0xd2>
	{
		// itoa-Buffer (Debug)
		char buff[5] = {'\0'};
    803a:	36 96       	adiw	r30, 0x06	; 6
    803c:	85 e0       	ldi	r24, 0x05	; 5
    803e:	df 01       	movw	r26, r30
    8040:	1d 92       	st	X+, r1
    8042:	8a 95       	dec	r24
    8044:	e9 f7       	brne	.-6      	; 0x8040 <tmc6200_writeInt+0x46>
		
		Uart_Transmit_IT_PC("Write TMC6200 data: ");
    8046:	80 e1       	ldi	r24, 0x10	; 16
    8048:	99 e0       	ldi	r25, 0x09	; 9
    804a:	2b d1       	rcall	.+598    	; 0x82a2 <Uart_Transmit_IT_PC>
    804c:	fe 01       	movw	r30, r28
    804e:	31 96       	adiw	r30, 0x01	; 1
    8050:	7f 01       	movw	r14, r30
		for (int count = 0 ; count < 5 ; count++)
    8052:	00 e0       	ldi	r16, 0x00	; 0
    8054:	10 e0       	ldi	r17, 0x00	; 0
		{
			if (tbuf[count] == 0)
    8056:	d7 01       	movw	r26, r14
    8058:	8c 91       	ld	r24, X
    805a:	81 11       	cpse	r24, r1
    805c:	04 c0       	rjmp	.+8      	; 0x8066 <tmc6200_writeInt+0x6c>
			{
				Uart_Transmit_IT_PC("00");
    805e:	85 ee       	ldi	r24, 0xE5	; 229
    8060:	98 e0       	ldi	r25, 0x08	; 8
    8062:	1f d1       	rcall	.+574    	; 0x82a2 <Uart_Transmit_IT_PC>
    8064:	1c c0       	rjmp	.+56     	; 0x809e <tmc6200_writeInt+0xa4>
			}
			else if (tbuf[count] < 0x10)
    8066:	80 31       	cpi	r24, 0x10	; 16
    8068:	80 f4       	brcc	.+32     	; 0x808a <tmc6200_writeInt+0x90>
			{
				Uart_Transmit_IT_PC("0");
    806a:	85 e5       	ldi	r24, 0x55	; 85
    806c:	93 e0       	ldi	r25, 0x03	; 3
    806e:	19 d1       	rcall	.+562    	; 0x82a2 <Uart_Transmit_IT_PC>
    8070:	f7 01       	movw	r30, r14
    8072:	80 81       	ld	r24, Z
    8074:	40 e1       	ldi	r20, 0x10	; 16
    8076:	be 01       	movw	r22, r28
    8078:	69 5f       	subi	r22, 0xF9	; 249
    807a:	7f 4f       	sbci	r23, 0xFF	; 255
    807c:	90 e0       	ldi	r25, 0x00	; 0
    807e:	0e 94 be 48 	call	0x917c	; 0x917c <__itoa_ncheck>
				itoa(tbuf[count],(char *)buff, 16);
				Uart_Transmit_IT_PC((char *)buff);
    8082:	ce 01       	movw	r24, r28
    8084:	07 96       	adiw	r24, 0x07	; 7
    8086:	0d d1       	rcall	.+538    	; 0x82a2 <Uart_Transmit_IT_PC>
    8088:	0a c0       	rjmp	.+20     	; 0x809e <tmc6200_writeInt+0xa4>
    808a:	40 e1       	ldi	r20, 0x10	; 16
    808c:	be 01       	movw	r22, r28
    808e:	69 5f       	subi	r22, 0xF9	; 249
    8090:	7f 4f       	sbci	r23, 0xFF	; 255
    8092:	90 e0       	ldi	r25, 0x00	; 0
    8094:	0e 94 be 48 	call	0x917c	; 0x917c <__itoa_ncheck>
			}
			else
			{
				itoa(tbuf[count],(char *)buff, 16);
				Uart_Transmit_IT_PC((char *)buff);
    8098:	ce 01       	movw	r24, r28
    809a:	07 96       	adiw	r24, 0x07	; 7
    809c:	02 d1       	rcall	.+516    	; 0x82a2 <Uart_Transmit_IT_PC>
			}
			if (count <4)
    809e:	04 30       	cpi	r16, 0x04	; 4
    80a0:	11 05       	cpc	r17, r1
			{
				Uart_Transmit_IT_PC(",");
    80a2:	1c f4       	brge	.+6      	; 0x80aa <tmc6200_writeInt+0xb0>
    80a4:	82 e9       	ldi	r24, 0x92	; 146
    80a6:	97 e0       	ldi	r25, 0x07	; 7
    80a8:	fc d0       	rcall	.+504    	; 0x82a2 <Uart_Transmit_IT_PC>
	{
		// itoa-Buffer (Debug)
		char buff[5] = {'\0'};
		
		Uart_Transmit_IT_PC("Write TMC6200 data: ");
		for (int count = 0 ; count < 5 ; count++)
    80aa:	0f 5f       	subi	r16, 0xFF	; 255
    80ac:	1f 4f       	sbci	r17, 0xFF	; 255
    80ae:	ff ef       	ldi	r31, 0xFF	; 255
    80b0:	ef 1a       	sub	r14, r31
    80b2:	ff 0a       	sbc	r15, r31
    80b4:	05 30       	cpi	r16, 0x05	; 5
    80b6:	11 05       	cpc	r17, r1
    80b8:	71 f6       	brne	.-100    	; 0x8056 <tmc6200_writeInt+0x5c>
	#else
		//round up by default
		__ticks_dc = (uint32_t)(ceil(fabs(__tmp)));
	#endif

	__builtin_avr_delay_cycles(__ticks_dc);
    80ba:	8f e3       	ldi	r24, 0x3F	; 63
    80bc:	9c e9       	ldi	r25, 0x9C	; 156
    80be:	01 97       	sbiw	r24, 0x01	; 1
    80c0:	f1 f7       	brne	.-4      	; 0x80be <tmc6200_writeInt+0xc4>
			{
				Uart_Transmit_IT_PC(",");
			}
		}
		_delay_ms(10);
		Uart_Transmit_IT_PC("\r");
    80c2:	00 c0       	rjmp	.+0      	; 0x80c4 <tmc6200_writeInt+0xca>
    80c4:	00 00       	nop
    80c6:	88 e2       	ldi	r24, 0x28	; 40
	}

	// CS TMC6200 LOW
	enable_Slave(TMC6200);
    80c8:	97 e0       	ldi	r25, 0x07	; 7
    80ca:	eb d0       	rcall	.+470    	; 0x82a2 <Uart_Transmit_IT_PC>
	
	// Transmit address and data
	spi_transmit_IT((unsigned char *)tbuf, 5, TMC6200);
    80cc:	81 e0       	ldi	r24, 0x01	; 1
    80ce:	7b dc       	rcall	.-1802   	; 0x79c6 <enable_Slave>
    80d0:	41 e0       	ldi	r20, 0x01	; 1
    80d2:	65 e0       	ldi	r22, 0x05	; 5
    80d4:	ce 01       	movw	r24, r28
    80d6:	01 96       	adiw	r24, 0x01	; 1
	
	// CS TMC6200 HIGH
	disable_Slave(TMC6200);
    80d8:	5b dc       	rcall	.-1866   	; 0x7990 <spi_transmit_IT>
    80da:	81 e0       	ldi	r24, 0x01	; 1
    80dc:	88 dc       	rcall	.-1776   	; 0x79ee <disable_Slave>
}
    80de:	2b 96       	adiw	r28, 0x0b	; 11
    80e0:	0f b6       	in	r0, 0x3f	; 63
    80e2:	f8 94       	cli
    80e4:	de bf       	out	0x3e, r29	; 62
    80e6:	0f be       	out	0x3f, r0	; 63
    80e8:	cd bf       	out	0x3d, r28	; 61
    80ea:	df 91       	pop	r29
    80ec:	cf 91       	pop	r28
    80ee:	1f 91       	pop	r17
    80f0:	0f 91       	pop	r16
    80f2:	ff 90       	pop	r15
    80f4:	ef 90       	pop	r14
    80f6:	df 90       	pop	r13
    80f8:	cf 90       	pop	r12
    80fa:	08 95       	ret

000080fc <initTMC6200>:

void initTMC6200(void)
{
	EN_TMC6200_PORT |= EN_TMC6200_BIT;						// Enable TMC6200 (Active High)
    80fc:	e2 e0       	ldi	r30, 0x02	; 2
    80fe:	f1 e0       	ldi	r31, 0x01	; 1
    8100:	80 81       	ld	r24, Z
    8102:	88 60       	ori	r24, 0x08	; 8
    8104:	80 83       	st	Z, r24
    8106:	2f ef       	ldi	r18, 0xFF	; 255
    8108:	81 ee       	ldi	r24, 0xE1	; 225
    810a:	94 e0       	ldi	r25, 0x04	; 4
    810c:	21 50       	subi	r18, 0x01	; 1
    810e:	80 40       	sbci	r24, 0x00	; 0
    8110:	90 40       	sbci	r25, 0x00	; 0
    8112:	e1 f7       	brne	.-8      	; 0x810c <initTMC6200+0x10>
    8114:	00 c0       	rjmp	.+0      	; 0x8116 <initTMC6200+0x1a>
    8116:	00 00       	nop
	_delay_ms(100);
	EN_TMC6200_PORT &= ~EN_TMC6200_BIT;						// Enable TMC6200 (Active High)
    8118:	80 81       	ld	r24, Z
    811a:	87 7f       	andi	r24, 0xF7	; 247
    811c:	80 83       	st	Z, r24
    811e:	2f ef       	ldi	r18, 0xFF	; 255
    8120:	81 ee       	ldi	r24, 0xE1	; 225
    8122:	94 e0       	ldi	r25, 0x04	; 4
    8124:	21 50       	subi	r18, 0x01	; 1
    8126:	80 40       	sbci	r24, 0x00	; 0
    8128:	90 40       	sbci	r25, 0x00	; 0
    812a:	e1 f7       	brne	.-8      	; 0x8124 <initTMC6200+0x28>
    812c:	00 c0       	rjmp	.+0      	; 0x812e <initTMC6200+0x32>
    812e:	00 00       	nop
	_delay_ms(100);
	EN_TMC6200_PORT |= EN_TMC6200_BIT;						// Enable TMC6200 (Active High)
    8130:	80 81       	ld	r24, Z
    8132:	88 60       	ori	r24, 0x08	; 8
    8134:	80 83       	st	Z, r24
    8136:	2f ef       	ldi	r18, 0xFF	; 255
    8138:	83 ed       	ldi	r24, 0xD3	; 211
    813a:	90 e3       	ldi	r25, 0x30	; 48
    813c:	21 50       	subi	r18, 0x01	; 1
    813e:	80 40       	sbci	r24, 0x00	; 0
    8140:	90 40       	sbci	r25, 0x00	; 0
    8142:	e1 f7       	brne	.-8      	; 0x813c <initTMC6200+0x40>
    8144:	00 c0       	rjmp	.+0      	; 0x8146 <initTMC6200+0x4a>
    8146:	00 00       	nop
	_delay_ms(1000);
	
	tmc6200_writeInt(0, TMC6200_GCONF, 0x00000010);		// current amplification: 10
    8148:	20 e1       	ldi	r18, 0x10	; 16
    814a:	30 e0       	ldi	r19, 0x00	; 0
    814c:	40 e0       	ldi	r20, 0x00	; 0
    814e:	50 e0       	ldi	r21, 0x00	; 0
    8150:	60 e0       	ldi	r22, 0x00	; 0
    8152:	80 e0       	ldi	r24, 0x00	; 0
    8154:	52 df       	rcall	.-348    	; 0x7ffa <tmc6200_writeInt>
	tmc6200_writeInt(0, TMC6200_GSTAT, 0x00000000);
    8156:	20 e0       	ldi	r18, 0x00	; 0
    8158:	30 e0       	ldi	r19, 0x00	; 0
    815a:	a9 01       	movw	r20, r18
    815c:	61 e0       	ldi	r22, 0x01	; 1
    815e:	80 e0       	ldi	r24, 0x00	; 0
    8160:	4c df       	rcall	.-360    	; 0x7ffa <tmc6200_writeInt>
	tmc6200_writeInt(0, TMC6200_OTP_PROG, 0x00000000);     //
    8162:	20 e0       	ldi	r18, 0x00	; 0
    8164:	30 e0       	ldi	r19, 0x00	; 0
    8166:	a9 01       	movw	r20, r18
    8168:	66 e0       	ldi	r22, 0x06	; 6
    816a:	80 e0       	ldi	r24, 0x00	; 0
    816c:	46 df       	rcall	.-372    	; 0x7ffa <tmc6200_writeInt>
	tmc6200_writeInt(0, TMC6200_FACTORY_CONF, 0x0000000F); // clock frequency: 12MHz
    816e:	2f e0       	ldi	r18, 0x0F	; 15
    8170:	30 e0       	ldi	r19, 0x00	; 0
    8172:	40 e0       	ldi	r20, 0x00	; 0
    8174:	50 e0       	ldi	r21, 0x00	; 0
    8176:	68 e0       	ldi	r22, 0x08	; 8
    8178:	80 e0       	ldi	r24, 0x00	; 0
    817a:	3f df       	rcall	.-386    	; 0x7ffa <tmc6200_writeInt>
	tmc6200_writeInt(0, TMC6200_SHORT_CONF, 0x13010606);	// default
    817c:	26 e0       	ldi	r18, 0x06	; 6
    817e:	36 e0       	ldi	r19, 0x06	; 6
    8180:	41 e0       	ldi	r20, 0x01	; 1
    8182:	53 e1       	ldi	r21, 0x13	; 19
    8184:	69 e0       	ldi	r22, 0x09	; 9
    8186:	80 e0       	ldi	r24, 0x00	; 0
    8188:	38 df       	rcall	.-400    	; 0x7ffa <tmc6200_writeInt>
	tmc6200_writeInt(0, TMC6200_DRV_CONF, 0x00080004);		// DRVSTRENGTH = 2 (medium), BBMCLKS: 4
    818a:	24 e0       	ldi	r18, 0x04	; 4
    818c:	30 e0       	ldi	r19, 0x00	; 0
    818e:	48 e0       	ldi	r20, 0x08	; 8
    8190:	50 e0       	ldi	r21, 0x00	; 0
    8192:	6a e0       	ldi	r22, 0x0A	; 10
    8194:	80 e0       	ldi	r24, 0x00	; 0
    8196:	31 cf       	rjmp	.-414    	; 0x7ffa <tmc6200_writeInt>
    8198:	08 95       	ret

0000819a <tx_completed>:
    while(RB_length(&rb_rx_PC)==0);     // Wait for incomming data

    data = RB_readByte(&rb_rx_PC);

    return(data);
}
    819a:	00 00       	nop
    819c:	00 00       	nop
    819e:	08 95       	ret

000081a0 <UART_init>:
    81a0:	cf 92       	push	r12
    81a2:	df 92       	push	r13
    81a4:	ef 92       	push	r14
    81a6:	ff 92       	push	r15
    81a8:	0f 93       	push	r16
    81aa:	1f 93       	push	r17
    81ac:	cf 93       	push	r28
    81ae:	df 93       	push	r29
    81b0:	10 92 c5 00 	sts	0x00C5, r1	; 0x8000c5 <__TEXT_REGION_LENGTH__+0x7000c5>
    81b4:	80 e1       	ldi	r24, 0x10	; 16
    81b6:	80 93 c4 00 	sts	0x00C4, r24	; 0x8000c4 <__TEXT_REGION_LENGTH__+0x7000c4>
    81ba:	0f 2e       	mov	r0, r31
    81bc:	f1 ec       	ldi	r31, 0xC1	; 193
    81be:	cf 2e       	mov	r12, r31
    81c0:	d1 2c       	mov	r13, r1
    81c2:	f0 2d       	mov	r31, r0
    81c4:	98 e1       	ldi	r25, 0x18	; 24
    81c6:	f6 01       	movw	r30, r12
    81c8:	90 83       	st	Z, r25
    81ca:	86 e0       	ldi	r24, 0x06	; 6
    81cc:	80 93 c2 00 	sts	0x00C2, r24	; 0x8000c2 <__TEXT_REGION_LENGTH__+0x7000c2>
    81d0:	10 92 cd 00 	sts	0x00CD, r1	; 0x8000cd <__TEXT_REGION_LENGTH__+0x7000cd>
    81d4:	27 e6       	ldi	r18, 0x67	; 103
    81d6:	20 93 cc 00 	sts	0x00CC, r18	; 0x8000cc <__TEXT_REGION_LENGTH__+0x7000cc>
    81da:	0f 2e       	mov	r0, r31
    81dc:	f9 ec       	ldi	r31, 0xC9	; 201
    81de:	ef 2e       	mov	r14, r31
    81e0:	f1 2c       	mov	r15, r1
    81e2:	f0 2d       	mov	r31, r0
    81e4:	f7 01       	movw	r30, r14
    81e6:	90 83       	st	Z, r25
    81e8:	80 93 ca 00 	sts	0x00CA, r24	; 0x8000ca <__TEXT_REGION_LENGTH__+0x7000ca>
    81ec:	10 92 d5 00 	sts	0x00D5, r1	; 0x8000d5 <__TEXT_REGION_LENGTH__+0x7000d5>
    81f0:	3c e0       	ldi	r19, 0x0C	; 12
    81f2:	30 93 d4 00 	sts	0x00D4, r19	; 0x8000d4 <__TEXT_REGION_LENGTH__+0x7000d4>
    81f6:	01 ed       	ldi	r16, 0xD1	; 209
    81f8:	10 e0       	ldi	r17, 0x00	; 0
    81fa:	f8 01       	movw	r30, r16
    81fc:	90 83       	st	Z, r25
    81fe:	80 93 d2 00 	sts	0x00D2, r24	; 0x8000d2 <__TEXT_REGION_LENGTH__+0x7000d2>
    8202:	10 92 35 01 	sts	0x0135, r1	; 0x800135 <__TEXT_REGION_LENGTH__+0x700135>
    8206:	20 93 34 01 	sts	0x0134, r18	; 0x800134 <__TEXT_REGION_LENGTH__+0x700134>
    820a:	c1 e3       	ldi	r28, 0x31	; 49
    820c:	d1 e0       	ldi	r29, 0x01	; 1
    820e:	98 83       	st	Y, r25
    8210:	80 93 32 01 	sts	0x0132, r24	; 0x800132 <__TEXT_REGION_LENGTH__+0x700132>
    8214:	86 e3       	ldi	r24, 0x36	; 54
    8216:	99 e0       	ldi	r25, 0x09	; 9
    8218:	0e 94 a9 2d 	call	0x5b52	; 0x5b52 <RB_init>
    821c:	85 ec       	ldi	r24, 0xC5	; 197
    821e:	9f e0       	ldi	r25, 0x0F	; 15
    8220:	0e 94 a9 2d 	call	0x5b52	; 0x5b52 <RB_init>
    8224:	81 e9       	ldi	r24, 0x91	; 145
    8226:	9b e0       	ldi	r25, 0x0B	; 11
    8228:	0e 94 a9 2d 	call	0x5b52	; 0x5b52 <RB_init>
    822c:	86 ec       	ldi	r24, 0xC6	; 198
    822e:	90 e1       	ldi	r25, 0x10	; 16
    8230:	0e 94 a9 2d 	call	0x5b52	; 0x5b52 <RB_init>
    8234:	86 e8       	ldi	r24, 0x86	; 134
    8236:	9a e0       	ldi	r25, 0x0A	; 10
    8238:	0e 94 a9 2d 	call	0x5b52	; 0x5b52 <RB_init>
    823c:	80 ea       	ldi	r24, 0xA0	; 160
    823e:	9e e0       	ldi	r25, 0x0E	; 14
    8240:	0e 94 a9 2d 	call	0x5b52	; 0x5b52 <RB_init>
    8244:	8f ec       	ldi	r24, 0xCF	; 207
    8246:	91 e1       	ldi	r25, 0x11	; 17
    8248:	0e 94 a9 2d 	call	0x5b52	; 0x5b52 <RB_init>
    824c:	f6 01       	movw	r30, r12
    824e:	80 81       	ld	r24, Z
    8250:	80 68       	ori	r24, 0x80	; 128
    8252:	80 83       	st	Z, r24
    8254:	f7 01       	movw	r30, r14
    8256:	80 81       	ld	r24, Z
    8258:	80 68       	ori	r24, 0x80	; 128
    825a:	80 83       	st	Z, r24
    825c:	f8 01       	movw	r30, r16
    825e:	80 81       	ld	r24, Z
    8260:	80 68       	ori	r24, 0x80	; 128
    8262:	80 83       	st	Z, r24
    8264:	88 81       	ld	r24, Y
    8266:	80 68       	ori	r24, 0x80	; 128
    8268:	88 83       	st	Y, r24
    826a:	78 94       	sei
    826c:	8d ec       	ldi	r24, 0xCD	; 205
    826e:	90 e4       	ldi	r25, 0x40	; 64
    8270:	90 93 0e 13 	sts	0x130E, r25	; 0x80130e <ptr_tx_completed_0+0x1>
    8274:	80 93 0d 13 	sts	0x130D, r24	; 0x80130d <ptr_tx_completed_0>
    8278:	90 93 68 0a 	sts	0x0A68, r25	; 0x800a68 <ptr_tx_completed_1+0x1>
    827c:	80 93 67 0a 	sts	0x0A67, r24	; 0x800a67 <ptr_tx_completed_1>
    8280:	90 93 99 0e 	sts	0x0E99, r25	; 0x800e99 <ptr_tx_completed_2+0x1>
    8284:	80 93 98 0e 	sts	0x0E98, r24	; 0x800e98 <ptr_tx_completed_2>
    8288:	90 93 c2 0f 	sts	0x0FC2, r25	; 0x800fc2 <ptr_tx_completed_3+0x1>
    828c:	80 93 c1 0f 	sts	0x0FC1, r24	; 0x800fc1 <ptr_tx_completed_3>
    8290:	df 91       	pop	r29
    8292:	cf 91       	pop	r28
    8294:	1f 91       	pop	r17
    8296:	0f 91       	pop	r16
    8298:	ff 90       	pop	r15
    829a:	ef 90       	pop	r14
    829c:	df 90       	pop	r13
    829e:	cf 90       	pop	r12
    82a0:	08 95       	ret

000082a2 <Uart_Transmit_IT_PC>:
    82a2:	fc 01       	movw	r30, r24
    82a4:	01 90       	ld	r0, Z+
    82a6:	00 20       	and	r0, r0
    82a8:	e9 f7       	brne	.-6      	; 0x82a4 <Uart_Transmit_IT_PC+0x2>
    82aa:	31 97       	sbiw	r30, 0x01	; 1
    82ac:	af 01       	movw	r20, r30
    82ae:	48 1b       	sub	r20, r24
    82b0:	59 0b       	sbc	r21, r25
    82b2:	bc 01       	movw	r22, r24
    82b4:	86 e3       	ldi	r24, 0x36	; 54
    82b6:	99 e0       	ldi	r25, 0x09	; 9
    82b8:	0e 94 f5 2d 	call	0x5bea	; 0x5bea <RB_write>
    82bc:	e1 ec       	ldi	r30, 0xC1	; 193
    82be:	f0 e0       	ldi	r31, 0x00	; 0
    82c0:	80 81       	ld	r24, Z
    82c2:	80 62       	ori	r24, 0x20	; 32
    82c4:	80 83       	st	Z, r24
    82c6:	08 95       	ret

000082c8 <Uart_Transmit_IT_Display>:
    82c8:	cf 93       	push	r28
    82ca:	df 93       	push	r29
    82cc:	fc 01       	movw	r30, r24
    82ce:	20 81       	ld	r18, Z
    82d0:	22 23       	and	r18, r18
    82d2:	69 f0       	breq	.+26     	; 0x82ee <Uart_Transmit_IT_Display+0x26>
    82d4:	dc 01       	movw	r26, r24
    82d6:	11 96       	adiw	r26, 0x01	; 1
    82d8:	e8 ec       	ldi	r30, 0xC8	; 200
    82da:	f0 e0       	ldi	r31, 0x00	; 0
    82dc:	ce ec       	ldi	r28, 0xCE	; 206
    82de:	d0 e0       	ldi	r29, 0x00	; 0
    82e0:	90 81       	ld	r25, Z
    82e2:	95 ff       	sbrs	r25, 5
    82e4:	fd cf       	rjmp	.-6      	; 0x82e0 <Uart_Transmit_IT_Display+0x18>
    82e6:	28 83       	st	Y, r18
    82e8:	2d 91       	ld	r18, X+
    82ea:	21 11       	cpse	r18, r1
    82ec:	f9 cf       	rjmp	.-14     	; 0x82e0 <Uart_Transmit_IT_Display+0x18>
    82ee:	df 91       	pop	r29
    82f0:	cf 91       	pop	r28
    82f2:	08 95       	ret

000082f4 <Uart_Transmit_IT_ESP>:
    82f4:	fc 01       	movw	r30, r24
    82f6:	01 90       	ld	r0, Z+
    82f8:	00 20       	and	r0, r0
    82fa:	e9 f7       	brne	.-6      	; 0x82f6 <Uart_Transmit_IT_ESP+0x2>
    82fc:	31 97       	sbiw	r30, 0x01	; 1
    82fe:	af 01       	movw	r20, r30
    8300:	48 1b       	sub	r20, r24
    8302:	59 0b       	sbc	r21, r25
    8304:	bc 01       	movw	r22, r24
    8306:	86 ec       	ldi	r24, 0xC6	; 198
    8308:	90 e1       	ldi	r25, 0x10	; 16
    830a:	0e 94 f5 2d 	call	0x5bea	; 0x5bea <RB_write>
    830e:	e1 ed       	ldi	r30, 0xD1	; 209
    8310:	f0 e0       	ldi	r31, 0x00	; 0
    8312:	80 81       	ld	r24, Z
    8314:	80 62       	ori	r24, 0x20	; 32
    8316:	80 83       	st	Z, r24
    8318:	08 95       	ret

0000831a <__vector_26>:
    831a:	1f 92       	push	r1
    831c:	0f 92       	push	r0
    831e:	0f b6       	in	r0, 0x3f	; 63
    8320:	0f 92       	push	r0
    8322:	11 24       	eor	r1, r1
    8324:	0b b6       	in	r0, 0x3b	; 59
    8326:	0f 92       	push	r0
    8328:	2f 93       	push	r18
    832a:	3f 93       	push	r19
    832c:	4f 93       	push	r20
    832e:	5f 93       	push	r21
    8330:	6f 93       	push	r22
    8332:	7f 93       	push	r23
    8334:	8f 93       	push	r24
    8336:	9f 93       	push	r25
    8338:	af 93       	push	r26
    833a:	bf 93       	push	r27
    833c:	ef 93       	push	r30
    833e:	ff 93       	push	r31
    8340:	86 e3       	ldi	r24, 0x36	; 54
    8342:	99 e0       	ldi	r25, 0x09	; 9
    8344:	0e 94 b8 2d 	call	0x5b70	; 0x5b70 <RB_length>
    8348:	88 23       	and	r24, r24
    834a:	39 f0       	breq	.+14     	; 0x835a <__vector_26+0x40>
    834c:	86 e3       	ldi	r24, 0x36	; 54
    834e:	99 e0       	ldi	r25, 0x09	; 9
    8350:	0e 94 c4 2d 	call	0x5b88	; 0x5b88 <RB_readByte>
    8354:	80 93 c6 00 	sts	0x00C6, r24	; 0x8000c6 <__TEXT_REGION_LENGTH__+0x7000c6>
    8358:	0c c0       	rjmp	.+24     	; 0x8372 <__vector_26+0x58>
    835a:	e1 ec       	ldi	r30, 0xC1	; 193
    835c:	f0 e0       	ldi	r31, 0x00	; 0
    835e:	80 81       	ld	r24, Z
    8360:	8f 7d       	andi	r24, 0xDF	; 223
    8362:	80 83       	st	Z, r24
    8364:	e0 91 0d 13 	lds	r30, 0x130D	; 0x80130d <ptr_tx_completed_0>
    8368:	f0 91 0e 13 	lds	r31, 0x130E	; 0x80130e <ptr_tx_completed_0+0x1>
    836c:	30 97       	sbiw	r30, 0x00	; 0
    836e:	09 f0       	breq	.+2      	; 0x8372 <__vector_26+0x58>
    8370:	19 95       	eicall
    8372:	ff 91       	pop	r31
    8374:	ef 91       	pop	r30
    8376:	bf 91       	pop	r27
    8378:	af 91       	pop	r26
    837a:	9f 91       	pop	r25
    837c:	8f 91       	pop	r24
    837e:	7f 91       	pop	r23
    8380:	6f 91       	pop	r22
    8382:	5f 91       	pop	r21
    8384:	4f 91       	pop	r20
    8386:	3f 91       	pop	r19
    8388:	2f 91       	pop	r18
    838a:	0f 90       	pop	r0
    838c:	0b be       	out	0x3b, r0	; 59
    838e:	0f 90       	pop	r0
    8390:	0f be       	out	0x3f, r0	; 63
    8392:	0f 90       	pop	r0
    8394:	1f 90       	pop	r1
    8396:	18 95       	reti

00008398 <__vector_25>:
    8398:	1f 92       	push	r1
    839a:	0f 92       	push	r0
    839c:	0f b6       	in	r0, 0x3f	; 63
    839e:	0f 92       	push	r0
    83a0:	11 24       	eor	r1, r1
    83a2:	0b b6       	in	r0, 0x3b	; 59
    83a4:	0f 92       	push	r0
    83a6:	2f 93       	push	r18
    83a8:	3f 93       	push	r19
    83aa:	4f 93       	push	r20
    83ac:	5f 93       	push	r21
    83ae:	6f 93       	push	r22
    83b0:	7f 93       	push	r23
    83b2:	8f 93       	push	r24
    83b4:	9f 93       	push	r25
    83b6:	af 93       	push	r26
    83b8:	bf 93       	push	r27
    83ba:	ef 93       	push	r30
    83bc:	ff 93       	push	r31
    83be:	60 91 c6 00 	lds	r22, 0x00C6	; 0x8000c6 <__TEXT_REGION_LENGTH__+0x7000c6>
    83c2:	85 ec       	ldi	r24, 0xC5	; 197
    83c4:	9f e0       	ldi	r25, 0x0F	; 15
    83c6:	0e 94 d8 2d 	call	0x5bb0	; 0x5bb0 <RB_writeByte>
    83ca:	ff 91       	pop	r31
    83cc:	ef 91       	pop	r30
    83ce:	bf 91       	pop	r27
    83d0:	af 91       	pop	r26
    83d2:	9f 91       	pop	r25
    83d4:	8f 91       	pop	r24
    83d6:	7f 91       	pop	r23
    83d8:	6f 91       	pop	r22
    83da:	5f 91       	pop	r21
    83dc:	4f 91       	pop	r20
    83de:	3f 91       	pop	r19
    83e0:	2f 91       	pop	r18
    83e2:	0f 90       	pop	r0
    83e4:	0b be       	out	0x3b, r0	; 59
    83e6:	0f 90       	pop	r0
    83e8:	0f be       	out	0x3f, r0	; 63
    83ea:	0f 90       	pop	r0
    83ec:	1f 90       	pop	r1
    83ee:	18 95       	reti

000083f0 <__vector_36>:
    83f0:	1f 92       	push	r1
    83f2:	0f 92       	push	r0
    83f4:	0f b6       	in	r0, 0x3f	; 63
    83f6:	0f 92       	push	r0
    83f8:	11 24       	eor	r1, r1
    83fa:	0b b6       	in	r0, 0x3b	; 59
    83fc:	0f 92       	push	r0
    83fe:	2f 93       	push	r18
    8400:	3f 93       	push	r19
    8402:	4f 93       	push	r20
    8404:	5f 93       	push	r21
    8406:	6f 93       	push	r22
    8408:	7f 93       	push	r23
    840a:	8f 93       	push	r24
    840c:	9f 93       	push	r25
    840e:	af 93       	push	r26
    8410:	bf 93       	push	r27
    8412:	ef 93       	push	r30
    8414:	ff 93       	push	r31
    8416:	60 91 ce 00 	lds	r22, 0x00CE	; 0x8000ce <__TEXT_REGION_LENGTH__+0x7000ce>
    841a:	81 e9       	ldi	r24, 0x91	; 145
    841c:	9b e0       	ldi	r25, 0x0B	; 11
    841e:	0e 94 d8 2d 	call	0x5bb0	; 0x5bb0 <RB_writeByte>
    8422:	ff 91       	pop	r31
    8424:	ef 91       	pop	r30
    8426:	bf 91       	pop	r27
    8428:	af 91       	pop	r26
    842a:	9f 91       	pop	r25
    842c:	8f 91       	pop	r24
    842e:	7f 91       	pop	r23
    8430:	6f 91       	pop	r22
    8432:	5f 91       	pop	r21
    8434:	4f 91       	pop	r20
    8436:	3f 91       	pop	r19
    8438:	2f 91       	pop	r18
    843a:	0f 90       	pop	r0
    843c:	0b be       	out	0x3b, r0	; 59
    843e:	0f 90       	pop	r0
    8440:	0f be       	out	0x3f, r0	; 63
    8442:	0f 90       	pop	r0
    8444:	1f 90       	pop	r1
    8446:	18 95       	reti

00008448 <__vector_52>:
    8448:	1f 92       	push	r1
    844a:	0f 92       	push	r0
    844c:	0f b6       	in	r0, 0x3f	; 63
    844e:	0f 92       	push	r0
    8450:	11 24       	eor	r1, r1
    8452:	0b b6       	in	r0, 0x3b	; 59
    8454:	0f 92       	push	r0
    8456:	2f 93       	push	r18
    8458:	3f 93       	push	r19
    845a:	4f 93       	push	r20
    845c:	5f 93       	push	r21
    845e:	6f 93       	push	r22
    8460:	7f 93       	push	r23
    8462:	8f 93       	push	r24
    8464:	9f 93       	push	r25
    8466:	af 93       	push	r26
    8468:	bf 93       	push	r27
    846a:	ef 93       	push	r30
    846c:	ff 93       	push	r31
    846e:	86 ec       	ldi	r24, 0xC6	; 198
    8470:	90 e1       	ldi	r25, 0x10	; 16
    8472:	0e 94 b8 2d 	call	0x5b70	; 0x5b70 <RB_length>
    8476:	88 23       	and	r24, r24
    8478:	39 f0       	breq	.+14     	; 0x8488 <__vector_52+0x40>
    847a:	86 ec       	ldi	r24, 0xC6	; 198
    847c:	90 e1       	ldi	r25, 0x10	; 16
    847e:	0e 94 c4 2d 	call	0x5b88	; 0x5b88 <RB_readByte>
    8482:	80 93 d6 00 	sts	0x00D6, r24	; 0x8000d6 <__TEXT_REGION_LENGTH__+0x7000d6>
    8486:	0c c0       	rjmp	.+24     	; 0x84a0 <__vector_52+0x58>
    8488:	e1 ed       	ldi	r30, 0xD1	; 209
    848a:	f0 e0       	ldi	r31, 0x00	; 0
    848c:	80 81       	ld	r24, Z
    848e:	8f 7d       	andi	r24, 0xDF	; 223
    8490:	80 83       	st	Z, r24
    8492:	e0 91 98 0e 	lds	r30, 0x0E98	; 0x800e98 <ptr_tx_completed_2>
    8496:	f0 91 99 0e 	lds	r31, 0x0E99	; 0x800e99 <ptr_tx_completed_2+0x1>
    849a:	30 97       	sbiw	r30, 0x00	; 0
    849c:	09 f0       	breq	.+2      	; 0x84a0 <__vector_52+0x58>
    849e:	19 95       	eicall
    84a0:	ff 91       	pop	r31
    84a2:	ef 91       	pop	r30
    84a4:	bf 91       	pop	r27
    84a6:	af 91       	pop	r26
    84a8:	9f 91       	pop	r25
    84aa:	8f 91       	pop	r24
    84ac:	7f 91       	pop	r23
    84ae:	6f 91       	pop	r22
    84b0:	5f 91       	pop	r21
    84b2:	4f 91       	pop	r20
    84b4:	3f 91       	pop	r19
    84b6:	2f 91       	pop	r18
    84b8:	0f 90       	pop	r0
    84ba:	0b be       	out	0x3b, r0	; 59
    84bc:	0f 90       	pop	r0
    84be:	0f be       	out	0x3f, r0	; 63
    84c0:	0f 90       	pop	r0
    84c2:	1f 90       	pop	r1
    84c4:	18 95       	reti

000084c6 <__vector_51>:
    84c6:	1f 92       	push	r1
    84c8:	0f 92       	push	r0
    84ca:	0f b6       	in	r0, 0x3f	; 63
    84cc:	0f 92       	push	r0
    84ce:	11 24       	eor	r1, r1
    84d0:	0b b6       	in	r0, 0x3b	; 59
    84d2:	0f 92       	push	r0
    84d4:	2f 93       	push	r18
    84d6:	3f 93       	push	r19
    84d8:	4f 93       	push	r20
    84da:	5f 93       	push	r21
    84dc:	6f 93       	push	r22
    84de:	7f 93       	push	r23
    84e0:	8f 93       	push	r24
    84e2:	9f 93       	push	r25
    84e4:	af 93       	push	r26
    84e6:	bf 93       	push	r27
    84e8:	ef 93       	push	r30
    84ea:	ff 93       	push	r31
    84ec:	60 91 d6 00 	lds	r22, 0x00D6	; 0x8000d6 <__TEXT_REGION_LENGTH__+0x7000d6>
    84f0:	86 e8       	ldi	r24, 0x86	; 134
    84f2:	9a e0       	ldi	r25, 0x0A	; 10
    84f4:	0e 94 d8 2d 	call	0x5bb0	; 0x5bb0 <RB_writeByte>
    84f8:	ff 91       	pop	r31
    84fa:	ef 91       	pop	r30
    84fc:	bf 91       	pop	r27
    84fe:	af 91       	pop	r26
    8500:	9f 91       	pop	r25
    8502:	8f 91       	pop	r24
    8504:	7f 91       	pop	r23
    8506:	6f 91       	pop	r22
    8508:	5f 91       	pop	r21
    850a:	4f 91       	pop	r20
    850c:	3f 91       	pop	r19
    850e:	2f 91       	pop	r18
    8510:	0f 90       	pop	r0
    8512:	0b be       	out	0x3b, r0	; 59
    8514:	0f 90       	pop	r0
    8516:	0f be       	out	0x3f, r0	; 63
    8518:	0f 90       	pop	r0
    851a:	1f 90       	pop	r1
    851c:	18 95       	reti

0000851e <__vector_55>:
    851e:	1f 92       	push	r1
    8520:	0f 92       	push	r0
    8522:	0f b6       	in	r0, 0x3f	; 63
    8524:	0f 92       	push	r0
    8526:	11 24       	eor	r1, r1
    8528:	0b b6       	in	r0, 0x3b	; 59
    852a:	0f 92       	push	r0
    852c:	2f 93       	push	r18
    852e:	3f 93       	push	r19
    8530:	4f 93       	push	r20
    8532:	5f 93       	push	r21
    8534:	6f 93       	push	r22
    8536:	7f 93       	push	r23
    8538:	8f 93       	push	r24
    853a:	9f 93       	push	r25
    853c:	af 93       	push	r26
    853e:	bf 93       	push	r27
    8540:	ef 93       	push	r30
    8542:	ff 93       	push	r31
    8544:	80 ea       	ldi	r24, 0xA0	; 160
    8546:	9e e0       	ldi	r25, 0x0E	; 14
    8548:	0e 94 b8 2d 	call	0x5b70	; 0x5b70 <RB_length>
    854c:	88 23       	and	r24, r24
    854e:	39 f0       	breq	.+14     	; 0x855e <__vector_55+0x40>
    8550:	80 ea       	ldi	r24, 0xA0	; 160
    8552:	9e e0       	ldi	r25, 0x0E	; 14
    8554:	0e 94 c4 2d 	call	0x5b88	; 0x5b88 <RB_readByte>
    8558:	80 93 36 01 	sts	0x0136, r24	; 0x800136 <__TEXT_REGION_LENGTH__+0x700136>
    855c:	0c c0       	rjmp	.+24     	; 0x8576 <__vector_55+0x58>
    855e:	e1 e3       	ldi	r30, 0x31	; 49
    8560:	f1 e0       	ldi	r31, 0x01	; 1
    8562:	80 81       	ld	r24, Z
    8564:	8f 7d       	andi	r24, 0xDF	; 223
    8566:	80 83       	st	Z, r24
    8568:	e0 91 c1 0f 	lds	r30, 0x0FC1	; 0x800fc1 <ptr_tx_completed_3>
    856c:	f0 91 c2 0f 	lds	r31, 0x0FC2	; 0x800fc2 <ptr_tx_completed_3+0x1>
    8570:	30 97       	sbiw	r30, 0x00	; 0
    8572:	09 f0       	breq	.+2      	; 0x8576 <__vector_55+0x58>
    8574:	19 95       	eicall
    8576:	ff 91       	pop	r31
    8578:	ef 91       	pop	r30
    857a:	bf 91       	pop	r27
    857c:	af 91       	pop	r26
    857e:	9f 91       	pop	r25
    8580:	8f 91       	pop	r24
    8582:	7f 91       	pop	r23
    8584:	6f 91       	pop	r22
    8586:	5f 91       	pop	r21
    8588:	4f 91       	pop	r20
    858a:	3f 91       	pop	r19
    858c:	2f 91       	pop	r18
    858e:	0f 90       	pop	r0
    8590:	0b be       	out	0x3b, r0	; 59
    8592:	0f 90       	pop	r0
    8594:	0f be       	out	0x3f, r0	; 63
    8596:	0f 90       	pop	r0
    8598:	1f 90       	pop	r1
    859a:	18 95       	reti

0000859c <__vector_54>:
    859c:	1f 92       	push	r1
    859e:	0f 92       	push	r0
    85a0:	0f b6       	in	r0, 0x3f	; 63
    85a2:	0f 92       	push	r0
    85a4:	11 24       	eor	r1, r1
    85a6:	0b b6       	in	r0, 0x3b	; 59
    85a8:	0f 92       	push	r0
    85aa:	2f 93       	push	r18
    85ac:	3f 93       	push	r19
    85ae:	4f 93       	push	r20
    85b0:	5f 93       	push	r21
    85b2:	6f 93       	push	r22
    85b4:	7f 93       	push	r23
    85b6:	8f 93       	push	r24
    85b8:	9f 93       	push	r25
    85ba:	af 93       	push	r26
    85bc:	bf 93       	push	r27
    85be:	ef 93       	push	r30
    85c0:	ff 93       	push	r31
    85c2:	60 91 36 01 	lds	r22, 0x0136	; 0x800136 <__TEXT_REGION_LENGTH__+0x700136>
    85c6:	8f ec       	ldi	r24, 0xCF	; 207
    85c8:	91 e1       	ldi	r25, 0x11	; 17
    85ca:	0e 94 d8 2d 	call	0x5bb0	; 0x5bb0 <RB_writeByte>
    85ce:	ff 91       	pop	r31
    85d0:	ef 91       	pop	r30
    85d2:	bf 91       	pop	r27
    85d4:	af 91       	pop	r26
    85d6:	9f 91       	pop	r25
    85d8:	8f 91       	pop	r24
    85da:	7f 91       	pop	r23
    85dc:	6f 91       	pop	r22
    85de:	5f 91       	pop	r21
    85e0:	4f 91       	pop	r20
    85e2:	3f 91       	pop	r19
    85e4:	2f 91       	pop	r18
    85e6:	0f 90       	pop	r0
    85e8:	0b be       	out	0x3b, r0	; 59
    85ea:	0f 90       	pop	r0
    85ec:	0f be       	out	0x3f, r0	; 63
    85ee:	0f 90       	pop	r0
    85f0:	1f 90       	pop	r1
    85f2:	18 95       	reti

000085f4 <transmitByte>:
//***************************************************
//Function to transmit a single byte
//***************************************************
void transmitByte( unsigned char data )
{
    while ( !(UCSR0A & (1<<UDRE0)) )
    85f4:	e0 ec       	ldi	r30, 0xC0	; 192
    85f6:	f0 e0       	ldi	r31, 0x00	; 0
    85f8:	90 81       	ld	r25, Z
    85fa:	95 ff       	sbrs	r25, 5
    85fc:	fd cf       	rjmp	.-6      	; 0x85f8 <transmitByte+0x4>
        ;                           /* Wait for empty transmit buffer */
    UDR0 = data;                    /* Start transmition */
    85fe:	80 93 c6 00 	sts	0x00C6, r24	; 0x8000c6 <__TEXT_REGION_LENGTH__+0x7000c6>
    8602:	08 95       	ret

00008604 <transmitString>:

//***************************************************
//Function to transmit a string in RAM
//***************************************************
void transmitString(unsigned char* string)
{
    8604:	cf 93       	push	r28
    8606:	df 93       	push	r29
    8608:	ec 01       	movw	r28, r24
    while (*string)
    860a:	88 81       	ld	r24, Y
    860c:	88 23       	and	r24, r24
    860e:	29 f0       	breq	.+10     	; 0x861a <transmitString+0x16>
    8610:	21 96       	adiw	r28, 0x01	; 1
        transmitByte(*string++);
    8612:	f0 df       	rcall	.-32     	; 0x85f4 <transmitByte>
//***************************************************
//Function to transmit a string in RAM
//***************************************************
void transmitString(unsigned char* string)
{
    while (*string)
    8614:	89 91       	ld	r24, Y+
    8616:	81 11       	cpse	r24, r1
    8618:	fc cf       	rjmp	.-8      	; 0x8612 <transmitString+0xe>
        transmitByte(*string++);
}
    861a:	df 91       	pop	r29
    861c:	cf 91       	pop	r28
    861e:	08 95       	ret

00008620 <main>:
#include "libraries/Main_functions/Main_Func.h"             // Wird bentigt fr Funktionen, welche im Hauptprogrammfluss aufgerufen werden (z. B IO_init, Check_communication, SD_Startup(), zutaten_init(), cocktails_init()...)
#include "libraries/Cocktail_functions/Cocktail_Statemachine.h"

// MainLoop
int main(void)
{
    8620:	cf 93       	push	r28
    8622:	df 93       	push	r29
    8624:	cd b7       	in	r28, 0x3d	; 61
    8626:	de b7       	in	r29, 0x3e	; 62
    8628:	ed 97       	sbiw	r28, 0x3d	; 61
    862a:	0f b6       	in	r0, 0x3f	; 63
    862c:	f8 94       	cli
    862e:	de bf       	out	0x3e, r29	; 62
    8630:	0f be       	out	0x3f, r0	; 63
    8632:	cd bf       	out	0x3d, r28	; 61
    init_LED();
    8634:	0e 94 38 26 	call	0x4c70	; 0x4c70 <init_LED>

    interfaces_init();
    8638:	0e 94 5d 28 	call	0x50ba	; 0x50ba <interfaces_init>

    devices_init();
    863c:	0e 94 63 28 	call	0x50c6	; 0x50c6 <devices_init>

    speicher_init();
    8640:	0e 94 78 28 	call	0x50f0	; 0x50f0 <speicher_init>
	
    Position = 0;
    8644:	10 92 3d 0a 	sts	0x0A3D, r1	; 0x800a3d <Position>
    8648:	10 92 3e 0a 	sts	0x0A3E, r1	; 0x800a3e <Position+0x1>
    864c:	10 92 3f 0a 	sts	0x0A3F, r1	; 0x800a3f <Position+0x2>
    8650:	10 92 40 0a 	sts	0x0A40, r1	; 0x800a40 <Position+0x3>

    linear_ramp_t Ramp;
    linear_ramp_t * ramp = &Ramp;

    linear_ramp_init(ramp);
    8654:	ce 01       	movw	r24, r28
    8656:	01 96       	adiw	r24, 0x01	; 1
    8658:	0e 94 04 39 	call	0x7208	; 0x7208 <linear_ramp_init>
    linear_ramp_set_defaults(ramp);
    865c:	ce 01       	movw	r24, r28
    865e:	01 96       	adiw	r24, 0x01	; 1
    8660:	0e 94 3f 39 	call	0x727e	; 0x727e <linear_ramp_set_defaults>
    states = IDLE;
    8664:	10 92 9a 0e 	sts	0x0E9A, r1	; 0x800e9a <states>
//     setze_startanzeige(aktuellesGetraenk);                  // Startanzeige des Displays setzen

    // Mainroutine
    while (1)
    {
        if ((Position == 1) && (ramp->ramp_enable == 0))
    8668:	80 91 3d 0a 	lds	r24, 0x0A3D	; 0x800a3d <Position>
    866c:	90 91 3e 0a 	lds	r25, 0x0A3E	; 0x800a3e <Position+0x1>
    8670:	a0 91 3f 0a 	lds	r26, 0x0A3F	; 0x800a3f <Position+0x2>
    8674:	b0 91 40 0a 	lds	r27, 0x0A40	; 0x800a40 <Position+0x3>
    8678:	01 97       	sbiw	r24, 0x01	; 1
    867a:	a1 05       	cpc	r26, r1
    867c:	b1 05       	cpc	r27, r1
    867e:	39 f5       	brne	.+78     	; 0x86ce <main+0xae>
    8680:	89 81       	ldd	r24, Y+1	; 0x01
    8682:	81 11       	cpse	r24, r1
    8684:	27 c0       	rjmp	.+78     	; 0x86d4 <main+0xb4>
        {
	        tmc4671_writeInt(0, 0x6B,                0x00000000);        // writing value 0x00000003 = 3 = 0.0 to address 67 = 0x63(MODE_RAMP_MODE_MOTION)
    8686:	20 e0       	ldi	r18, 0x00	; 0
    8688:	30 e0       	ldi	r19, 0x00	; 0
    868a:	a9 01       	movw	r20, r18
    868c:	6b e6       	ldi	r22, 0x6B	; 107
    868e:	80 e0       	ldi	r24, 0x00	; 0
    8690:	90 e0       	ldi	r25, 0x00	; 0
    8692:	56 da       	rcall	.-2900   	; 0x7b40 <tmc4671_writeInt>
	        tmc4671_setAbsolutTargetPosition(0, 0x00000000);            // berprfen der Maximalwerte, bei zu hohen Eingaben wird automatisch
    8694:	40 e0       	ldi	r20, 0x00	; 0
    8696:	50 e0       	ldi	r21, 0x00	; 0
    8698:	ba 01       	movw	r22, r20
    869a:	80 e0       	ldi	r24, 0x00	; 0
    869c:	78 db       	rcall	.-2320   	; 0x7d8e <tmc4671_setAbsolutTargetPosition>
	        calculateRamp(1000, 1000, 5000, ramp);
    869e:	ce 01       	movw	r24, r28
    86a0:	01 96       	adiw	r24, 0x01	; 1
    86a2:	6c 01       	movw	r12, r24
    86a4:	e1 2c       	mov	r14, r1
    86a6:	10 e4       	ldi	r17, 0x40	; 64
    86a8:	f1 2e       	mov	r15, r17
    86aa:	0c e9       	ldi	r16, 0x9C	; 156
    86ac:	15 e4       	ldi	r17, 0x45	; 69
    86ae:	20 e0       	ldi	r18, 0x00	; 0
    86b0:	30 e0       	ldi	r19, 0x00	; 0
    86b2:	4a e7       	ldi	r20, 0x7A	; 122
    86b4:	54 e4       	ldi	r21, 0x44	; 68
    86b6:	ca 01       	movw	r24, r20
    86b8:	b9 01       	movw	r22, r18
    86ba:	0e 94 82 39 	call	0x7304	; 0x7304 <calculateRamp>
	        Position = 0;
    86be:	10 92 3d 0a 	sts	0x0A3D, r1	; 0x800a3d <Position>
    86c2:	10 92 3e 0a 	sts	0x0A3E, r1	; 0x800a3e <Position+0x1>
    86c6:	10 92 3f 0a 	sts	0x0A3F, r1	; 0x800a3f <Position+0x2>
    86ca:	10 92 40 0a 	sts	0x0A40, r1	; 0x800a40 <Position+0x3>
        }
        if (ramp->ramp_enable)
    86ce:	89 81       	ldd	r24, Y+1	; 0x01
    86d0:	88 23       	and	r24, r24
    86d2:	91 f0       	breq	.+36     	; 0x86f8 <main+0xd8>
        {
	        computeRamp(ramp);
    86d4:	ce 01       	movw	r24, r28
    86d6:	01 96       	adiw	r24, 0x01	; 1
    86d8:	0e 94 b2 39 	call	0x7364	; 0x7364 <computeRamp>
	        tmc4671_setAbsolutTargetPosition(0, (uint32_t)(ramp->ramp_position * 1000));
    86dc:	20 e0       	ldi	r18, 0x00	; 0
    86de:	30 e0       	ldi	r19, 0x00	; 0
    86e0:	4a e7       	ldi	r20, 0x7A	; 122
    86e2:	54 e4       	ldi	r21, 0x44	; 68
    86e4:	6e a1       	ldd	r22, Y+38	; 0x26
    86e6:	7f a1       	ldd	r23, Y+39	; 0x27
    86e8:	88 a5       	ldd	r24, Y+40	; 0x28
    86ea:	99 a5       	ldd	r25, Y+41	; 0x29
    86ec:	bb d1       	rcall	.+886    	; 0x8a64 <__mulsf3>
    86ee:	d8 d0       	rcall	.+432    	; 0x88a0 <__fixunssfsi>
    86f0:	ab 01       	movw	r20, r22
    86f2:	bc 01       	movw	r22, r24
    86f4:	80 e0       	ldi	r24, 0x00	; 0
    86f6:	4b db       	rcall	.-2410   	; 0x7d8e <tmc4671_setAbsolutTargetPosition>
        }
        check_Communication_Input_UART();                   // Prfen. ob ber UART einen Befehl geesendet wurde
    86f8:	0e 94 dd 2b 	call	0x57ba	; 0x57ba <check_Communication_Input_UART>
// 		read_Position_TMC4671();
    }
    86fc:	b5 cf       	rjmp	.-150    	; 0x8668 <main+0x48>

000086fe <__subsf3>:
    86fe:	50 58       	subi	r21, 0x80	; 128

00008700 <__addsf3>:
    8700:	bb 27       	eor	r27, r27
    8702:	aa 27       	eor	r26, r26
    8704:	0e d0       	rcall	.+28     	; 0x8722 <__addsf3x>
    8706:	70 c1       	rjmp	.+736    	; 0x89e8 <__fp_round>
    8708:	61 d1       	rcall	.+706    	; 0x89cc <__fp_pscA>
    870a:	30 f0       	brcs	.+12     	; 0x8718 <__addsf3+0x18>
    870c:	66 d1       	rcall	.+716    	; 0x89da <__fp_pscB>
    870e:	20 f0       	brcs	.+8      	; 0x8718 <__addsf3+0x18>
    8710:	31 f4       	brne	.+12     	; 0x871e <__addsf3+0x1e>
    8712:	9f 3f       	cpi	r25, 0xFF	; 255
    8714:	11 f4       	brne	.+4      	; 0x871a <__addsf3+0x1a>
    8716:	1e f4       	brtc	.+6      	; 0x871e <__addsf3+0x1e>
    8718:	56 c1       	rjmp	.+684    	; 0x89c6 <__fp_nan>
    871a:	0e f4       	brtc	.+2      	; 0x871e <__addsf3+0x1e>
    871c:	e0 95       	com	r30
    871e:	e7 fb       	bst	r30, 7
    8720:	4c c1       	rjmp	.+664    	; 0x89ba <__fp_inf>

00008722 <__addsf3x>:
    8722:	e9 2f       	mov	r30, r25
    8724:	72 d1       	rcall	.+740    	; 0x8a0a <__fp_split3>
    8726:	80 f3       	brcs	.-32     	; 0x8708 <__addsf3+0x8>
    8728:	ba 17       	cp	r27, r26
    872a:	62 07       	cpc	r22, r18
    872c:	73 07       	cpc	r23, r19
    872e:	84 07       	cpc	r24, r20
    8730:	95 07       	cpc	r25, r21
    8732:	18 f0       	brcs	.+6      	; 0x873a <__addsf3x+0x18>
    8734:	71 f4       	brne	.+28     	; 0x8752 <__addsf3x+0x30>
    8736:	9e f5       	brtc	.+102    	; 0x879e <__addsf3x+0x7c>
    8738:	8a c1       	rjmp	.+788    	; 0x8a4e <__fp_zero>
    873a:	0e f4       	brtc	.+2      	; 0x873e <__addsf3x+0x1c>
    873c:	e0 95       	com	r30
    873e:	0b 2e       	mov	r0, r27
    8740:	ba 2f       	mov	r27, r26
    8742:	a0 2d       	mov	r26, r0
    8744:	0b 01       	movw	r0, r22
    8746:	b9 01       	movw	r22, r18
    8748:	90 01       	movw	r18, r0
    874a:	0c 01       	movw	r0, r24
    874c:	ca 01       	movw	r24, r20
    874e:	a0 01       	movw	r20, r0
    8750:	11 24       	eor	r1, r1
    8752:	ff 27       	eor	r31, r31
    8754:	59 1b       	sub	r21, r25
    8756:	99 f0       	breq	.+38     	; 0x877e <__addsf3x+0x5c>
    8758:	59 3f       	cpi	r21, 0xF9	; 249
    875a:	50 f4       	brcc	.+20     	; 0x8770 <__addsf3x+0x4e>
    875c:	50 3e       	cpi	r21, 0xE0	; 224
    875e:	68 f1       	brcs	.+90     	; 0x87ba <__addsf3x+0x98>
    8760:	1a 16       	cp	r1, r26
    8762:	f0 40       	sbci	r31, 0x00	; 0
    8764:	a2 2f       	mov	r26, r18
    8766:	23 2f       	mov	r18, r19
    8768:	34 2f       	mov	r19, r20
    876a:	44 27       	eor	r20, r20
    876c:	58 5f       	subi	r21, 0xF8	; 248
    876e:	f3 cf       	rjmp	.-26     	; 0x8756 <__addsf3x+0x34>
    8770:	46 95       	lsr	r20
    8772:	37 95       	ror	r19
    8774:	27 95       	ror	r18
    8776:	a7 95       	ror	r26
    8778:	f0 40       	sbci	r31, 0x00	; 0
    877a:	53 95       	inc	r21
    877c:	c9 f7       	brne	.-14     	; 0x8770 <__addsf3x+0x4e>
    877e:	7e f4       	brtc	.+30     	; 0x879e <__addsf3x+0x7c>
    8780:	1f 16       	cp	r1, r31
    8782:	ba 0b       	sbc	r27, r26
    8784:	62 0b       	sbc	r22, r18
    8786:	73 0b       	sbc	r23, r19
    8788:	84 0b       	sbc	r24, r20
    878a:	ba f0       	brmi	.+46     	; 0x87ba <__addsf3x+0x98>
    878c:	91 50       	subi	r25, 0x01	; 1
    878e:	a1 f0       	breq	.+40     	; 0x87b8 <__addsf3x+0x96>
    8790:	ff 0f       	add	r31, r31
    8792:	bb 1f       	adc	r27, r27
    8794:	66 1f       	adc	r22, r22
    8796:	77 1f       	adc	r23, r23
    8798:	88 1f       	adc	r24, r24
    879a:	c2 f7       	brpl	.-16     	; 0x878c <__addsf3x+0x6a>
    879c:	0e c0       	rjmp	.+28     	; 0x87ba <__addsf3x+0x98>
    879e:	ba 0f       	add	r27, r26
    87a0:	62 1f       	adc	r22, r18
    87a2:	73 1f       	adc	r23, r19
    87a4:	84 1f       	adc	r24, r20
    87a6:	48 f4       	brcc	.+18     	; 0x87ba <__addsf3x+0x98>
    87a8:	87 95       	ror	r24
    87aa:	77 95       	ror	r23
    87ac:	67 95       	ror	r22
    87ae:	b7 95       	ror	r27
    87b0:	f7 95       	ror	r31
    87b2:	9e 3f       	cpi	r25, 0xFE	; 254
    87b4:	08 f0       	brcs	.+2      	; 0x87b8 <__addsf3x+0x96>
    87b6:	b3 cf       	rjmp	.-154    	; 0x871e <__addsf3+0x1e>
    87b8:	93 95       	inc	r25
    87ba:	88 0f       	add	r24, r24
    87bc:	08 f0       	brcs	.+2      	; 0x87c0 <__addsf3x+0x9e>
    87be:	99 27       	eor	r25, r25
    87c0:	ee 0f       	add	r30, r30
    87c2:	97 95       	ror	r25
    87c4:	87 95       	ror	r24
    87c6:	08 95       	ret

000087c8 <__cmpsf2>:
    87c8:	d4 d0       	rcall	.+424    	; 0x8972 <__fp_cmp>
    87ca:	08 f4       	brcc	.+2      	; 0x87ce <__cmpsf2+0x6>
    87cc:	81 e0       	ldi	r24, 0x01	; 1
    87ce:	08 95       	ret

000087d0 <__divsf3>:
    87d0:	0c d0       	rcall	.+24     	; 0x87ea <__divsf3x>
    87d2:	0a c1       	rjmp	.+532    	; 0x89e8 <__fp_round>
    87d4:	02 d1       	rcall	.+516    	; 0x89da <__fp_pscB>
    87d6:	40 f0       	brcs	.+16     	; 0x87e8 <__divsf3+0x18>
    87d8:	f9 d0       	rcall	.+498    	; 0x89cc <__fp_pscA>
    87da:	30 f0       	brcs	.+12     	; 0x87e8 <__divsf3+0x18>
    87dc:	21 f4       	brne	.+8      	; 0x87e6 <__divsf3+0x16>
    87de:	5f 3f       	cpi	r21, 0xFF	; 255
    87e0:	19 f0       	breq	.+6      	; 0x87e8 <__divsf3+0x18>
    87e2:	eb c0       	rjmp	.+470    	; 0x89ba <__fp_inf>
    87e4:	51 11       	cpse	r21, r1
    87e6:	34 c1       	rjmp	.+616    	; 0x8a50 <__fp_szero>
    87e8:	ee c0       	rjmp	.+476    	; 0x89c6 <__fp_nan>

000087ea <__divsf3x>:
    87ea:	0f d1       	rcall	.+542    	; 0x8a0a <__fp_split3>
    87ec:	98 f3       	brcs	.-26     	; 0x87d4 <__divsf3+0x4>

000087ee <__divsf3_pse>:
    87ee:	99 23       	and	r25, r25
    87f0:	c9 f3       	breq	.-14     	; 0x87e4 <__divsf3+0x14>
    87f2:	55 23       	and	r21, r21
    87f4:	b1 f3       	breq	.-20     	; 0x87e2 <__divsf3+0x12>
    87f6:	95 1b       	sub	r25, r21
    87f8:	55 0b       	sbc	r21, r21
    87fa:	bb 27       	eor	r27, r27
    87fc:	aa 27       	eor	r26, r26
    87fe:	62 17       	cp	r22, r18
    8800:	73 07       	cpc	r23, r19
    8802:	84 07       	cpc	r24, r20
    8804:	38 f0       	brcs	.+14     	; 0x8814 <__divsf3_pse+0x26>
    8806:	9f 5f       	subi	r25, 0xFF	; 255
    8808:	5f 4f       	sbci	r21, 0xFF	; 255
    880a:	22 0f       	add	r18, r18
    880c:	33 1f       	adc	r19, r19
    880e:	44 1f       	adc	r20, r20
    8810:	aa 1f       	adc	r26, r26
    8812:	a9 f3       	breq	.-22     	; 0x87fe <__divsf3_pse+0x10>
    8814:	33 d0       	rcall	.+102    	; 0x887c <__divsf3_pse+0x8e>
    8816:	0e 2e       	mov	r0, r30
    8818:	3a f0       	brmi	.+14     	; 0x8828 <__divsf3_pse+0x3a>
    881a:	e0 e8       	ldi	r30, 0x80	; 128
    881c:	30 d0       	rcall	.+96     	; 0x887e <__divsf3_pse+0x90>
    881e:	91 50       	subi	r25, 0x01	; 1
    8820:	50 40       	sbci	r21, 0x00	; 0
    8822:	e6 95       	lsr	r30
    8824:	00 1c       	adc	r0, r0
    8826:	ca f7       	brpl	.-14     	; 0x881a <__divsf3_pse+0x2c>
    8828:	29 d0       	rcall	.+82     	; 0x887c <__divsf3_pse+0x8e>
    882a:	fe 2f       	mov	r31, r30
    882c:	27 d0       	rcall	.+78     	; 0x887c <__divsf3_pse+0x8e>
    882e:	66 0f       	add	r22, r22
    8830:	77 1f       	adc	r23, r23
    8832:	88 1f       	adc	r24, r24
    8834:	bb 1f       	adc	r27, r27
    8836:	26 17       	cp	r18, r22
    8838:	37 07       	cpc	r19, r23
    883a:	48 07       	cpc	r20, r24
    883c:	ab 07       	cpc	r26, r27
    883e:	b0 e8       	ldi	r27, 0x80	; 128
    8840:	09 f0       	breq	.+2      	; 0x8844 <__divsf3_pse+0x56>
    8842:	bb 0b       	sbc	r27, r27
    8844:	80 2d       	mov	r24, r0
    8846:	bf 01       	movw	r22, r30
    8848:	ff 27       	eor	r31, r31
    884a:	93 58       	subi	r25, 0x83	; 131
    884c:	5f 4f       	sbci	r21, 0xFF	; 255
    884e:	2a f0       	brmi	.+10     	; 0x885a <__divsf3_pse+0x6c>
    8850:	9e 3f       	cpi	r25, 0xFE	; 254
    8852:	51 05       	cpc	r21, r1
    8854:	68 f0       	brcs	.+26     	; 0x8870 <__divsf3_pse+0x82>
    8856:	b1 c0       	rjmp	.+354    	; 0x89ba <__fp_inf>
    8858:	fb c0       	rjmp	.+502    	; 0x8a50 <__fp_szero>
    885a:	5f 3f       	cpi	r21, 0xFF	; 255
    885c:	ec f3       	brlt	.-6      	; 0x8858 <__divsf3_pse+0x6a>
    885e:	98 3e       	cpi	r25, 0xE8	; 232
    8860:	dc f3       	brlt	.-10     	; 0x8858 <__divsf3_pse+0x6a>
    8862:	86 95       	lsr	r24
    8864:	77 95       	ror	r23
    8866:	67 95       	ror	r22
    8868:	b7 95       	ror	r27
    886a:	f7 95       	ror	r31
    886c:	9f 5f       	subi	r25, 0xFF	; 255
    886e:	c9 f7       	brne	.-14     	; 0x8862 <__divsf3_pse+0x74>
    8870:	88 0f       	add	r24, r24
    8872:	91 1d       	adc	r25, r1
    8874:	96 95       	lsr	r25
    8876:	87 95       	ror	r24
    8878:	97 f9       	bld	r25, 7
    887a:	08 95       	ret
    887c:	e1 e0       	ldi	r30, 0x01	; 1
    887e:	66 0f       	add	r22, r22
    8880:	77 1f       	adc	r23, r23
    8882:	88 1f       	adc	r24, r24
    8884:	bb 1f       	adc	r27, r27
    8886:	62 17       	cp	r22, r18
    8888:	73 07       	cpc	r23, r19
    888a:	84 07       	cpc	r24, r20
    888c:	ba 07       	cpc	r27, r26
    888e:	20 f0       	brcs	.+8      	; 0x8898 <__divsf3_pse+0xaa>
    8890:	62 1b       	sub	r22, r18
    8892:	73 0b       	sbc	r23, r19
    8894:	84 0b       	sbc	r24, r20
    8896:	ba 0b       	sbc	r27, r26
    8898:	ee 1f       	adc	r30, r30
    889a:	88 f7       	brcc	.-30     	; 0x887e <__divsf3_pse+0x90>
    889c:	e0 95       	com	r30
    889e:	08 95       	ret

000088a0 <__fixunssfsi>:
    88a0:	bc d0       	rcall	.+376    	; 0x8a1a <__fp_splitA>
    88a2:	88 f0       	brcs	.+34     	; 0x88c6 <__fixunssfsi+0x26>
    88a4:	9f 57       	subi	r25, 0x7F	; 127
    88a6:	90 f0       	brcs	.+36     	; 0x88cc <__fixunssfsi+0x2c>
    88a8:	b9 2f       	mov	r27, r25
    88aa:	99 27       	eor	r25, r25
    88ac:	b7 51       	subi	r27, 0x17	; 23
    88ae:	a0 f0       	brcs	.+40     	; 0x88d8 <__fixunssfsi+0x38>
    88b0:	d1 f0       	breq	.+52     	; 0x88e6 <__fixunssfsi+0x46>
    88b2:	66 0f       	add	r22, r22
    88b4:	77 1f       	adc	r23, r23
    88b6:	88 1f       	adc	r24, r24
    88b8:	99 1f       	adc	r25, r25
    88ba:	1a f0       	brmi	.+6      	; 0x88c2 <__fixunssfsi+0x22>
    88bc:	ba 95       	dec	r27
    88be:	c9 f7       	brne	.-14     	; 0x88b2 <__fixunssfsi+0x12>
    88c0:	12 c0       	rjmp	.+36     	; 0x88e6 <__fixunssfsi+0x46>
    88c2:	b1 30       	cpi	r27, 0x01	; 1
    88c4:	81 f0       	breq	.+32     	; 0x88e6 <__fixunssfsi+0x46>
    88c6:	c3 d0       	rcall	.+390    	; 0x8a4e <__fp_zero>
    88c8:	b1 e0       	ldi	r27, 0x01	; 1
    88ca:	08 95       	ret
    88cc:	c0 c0       	rjmp	.+384    	; 0x8a4e <__fp_zero>
    88ce:	67 2f       	mov	r22, r23
    88d0:	78 2f       	mov	r23, r24
    88d2:	88 27       	eor	r24, r24
    88d4:	b8 5f       	subi	r27, 0xF8	; 248
    88d6:	39 f0       	breq	.+14     	; 0x88e6 <__fixunssfsi+0x46>
    88d8:	b9 3f       	cpi	r27, 0xF9	; 249
    88da:	cc f3       	brlt	.-14     	; 0x88ce <__fixunssfsi+0x2e>
    88dc:	86 95       	lsr	r24
    88de:	77 95       	ror	r23
    88e0:	67 95       	ror	r22
    88e2:	b3 95       	inc	r27
    88e4:	d9 f7       	brne	.-10     	; 0x88dc <__fixunssfsi+0x3c>
    88e6:	3e f4       	brtc	.+14     	; 0x88f6 <__fixunssfsi+0x56>
    88e8:	90 95       	com	r25
    88ea:	80 95       	com	r24
    88ec:	70 95       	com	r23
    88ee:	61 95       	neg	r22
    88f0:	7f 4f       	sbci	r23, 0xFF	; 255
    88f2:	8f 4f       	sbci	r24, 0xFF	; 255
    88f4:	9f 4f       	sbci	r25, 0xFF	; 255
    88f6:	08 95       	ret

000088f8 <__floatunsisf>:
    88f8:	e8 94       	clt
    88fa:	09 c0       	rjmp	.+18     	; 0x890e <__floatsisf+0x12>

000088fc <__floatsisf>:
    88fc:	97 fb       	bst	r25, 7
    88fe:	3e f4       	brtc	.+14     	; 0x890e <__floatsisf+0x12>
    8900:	90 95       	com	r25
    8902:	80 95       	com	r24
    8904:	70 95       	com	r23
    8906:	61 95       	neg	r22
    8908:	7f 4f       	sbci	r23, 0xFF	; 255
    890a:	8f 4f       	sbci	r24, 0xFF	; 255
    890c:	9f 4f       	sbci	r25, 0xFF	; 255
    890e:	99 23       	and	r25, r25
    8910:	a9 f0       	breq	.+42     	; 0x893c <__floatsisf+0x40>
    8912:	f9 2f       	mov	r31, r25
    8914:	96 e9       	ldi	r25, 0x96	; 150
    8916:	bb 27       	eor	r27, r27
    8918:	93 95       	inc	r25
    891a:	f6 95       	lsr	r31
    891c:	87 95       	ror	r24
    891e:	77 95       	ror	r23
    8920:	67 95       	ror	r22
    8922:	b7 95       	ror	r27
    8924:	f1 11       	cpse	r31, r1
    8926:	f8 cf       	rjmp	.-16     	; 0x8918 <__floatsisf+0x1c>
    8928:	fa f4       	brpl	.+62     	; 0x8968 <__floatsisf+0x6c>
    892a:	bb 0f       	add	r27, r27
    892c:	11 f4       	brne	.+4      	; 0x8932 <__floatsisf+0x36>
    892e:	60 ff       	sbrs	r22, 0
    8930:	1b c0       	rjmp	.+54     	; 0x8968 <__floatsisf+0x6c>
    8932:	6f 5f       	subi	r22, 0xFF	; 255
    8934:	7f 4f       	sbci	r23, 0xFF	; 255
    8936:	8f 4f       	sbci	r24, 0xFF	; 255
    8938:	9f 4f       	sbci	r25, 0xFF	; 255
    893a:	16 c0       	rjmp	.+44     	; 0x8968 <__floatsisf+0x6c>
    893c:	88 23       	and	r24, r24
    893e:	11 f0       	breq	.+4      	; 0x8944 <__floatsisf+0x48>
    8940:	96 e9       	ldi	r25, 0x96	; 150
    8942:	11 c0       	rjmp	.+34     	; 0x8966 <__floatsisf+0x6a>
    8944:	77 23       	and	r23, r23
    8946:	21 f0       	breq	.+8      	; 0x8950 <__floatsisf+0x54>
    8948:	9e e8       	ldi	r25, 0x8E	; 142
    894a:	87 2f       	mov	r24, r23
    894c:	76 2f       	mov	r23, r22
    894e:	05 c0       	rjmp	.+10     	; 0x895a <__floatsisf+0x5e>
    8950:	66 23       	and	r22, r22
    8952:	71 f0       	breq	.+28     	; 0x8970 <__floatsisf+0x74>
    8954:	96 e8       	ldi	r25, 0x86	; 134
    8956:	86 2f       	mov	r24, r22
    8958:	70 e0       	ldi	r23, 0x00	; 0
    895a:	60 e0       	ldi	r22, 0x00	; 0
    895c:	2a f0       	brmi	.+10     	; 0x8968 <__floatsisf+0x6c>
    895e:	9a 95       	dec	r25
    8960:	66 0f       	add	r22, r22
    8962:	77 1f       	adc	r23, r23
    8964:	88 1f       	adc	r24, r24
    8966:	da f7       	brpl	.-10     	; 0x895e <__floatsisf+0x62>
    8968:	88 0f       	add	r24, r24
    896a:	96 95       	lsr	r25
    896c:	87 95       	ror	r24
    896e:	97 f9       	bld	r25, 7
    8970:	08 95       	ret

00008972 <__fp_cmp>:
    8972:	99 0f       	add	r25, r25
    8974:	00 08       	sbc	r0, r0
    8976:	55 0f       	add	r21, r21
    8978:	aa 0b       	sbc	r26, r26
    897a:	e0 e8       	ldi	r30, 0x80	; 128
    897c:	fe ef       	ldi	r31, 0xFE	; 254
    897e:	16 16       	cp	r1, r22
    8980:	17 06       	cpc	r1, r23
    8982:	e8 07       	cpc	r30, r24
    8984:	f9 07       	cpc	r31, r25
    8986:	c0 f0       	brcs	.+48     	; 0x89b8 <__fp_cmp+0x46>
    8988:	12 16       	cp	r1, r18
    898a:	13 06       	cpc	r1, r19
    898c:	e4 07       	cpc	r30, r20
    898e:	f5 07       	cpc	r31, r21
    8990:	98 f0       	brcs	.+38     	; 0x89b8 <__fp_cmp+0x46>
    8992:	62 1b       	sub	r22, r18
    8994:	73 0b       	sbc	r23, r19
    8996:	84 0b       	sbc	r24, r20
    8998:	95 0b       	sbc	r25, r21
    899a:	39 f4       	brne	.+14     	; 0x89aa <__fp_cmp+0x38>
    899c:	0a 26       	eor	r0, r26
    899e:	61 f0       	breq	.+24     	; 0x89b8 <__fp_cmp+0x46>
    89a0:	23 2b       	or	r18, r19
    89a2:	24 2b       	or	r18, r20
    89a4:	25 2b       	or	r18, r21
    89a6:	21 f4       	brne	.+8      	; 0x89b0 <__fp_cmp+0x3e>
    89a8:	08 95       	ret
    89aa:	0a 26       	eor	r0, r26
    89ac:	09 f4       	brne	.+2      	; 0x89b0 <__fp_cmp+0x3e>
    89ae:	a1 40       	sbci	r26, 0x01	; 1
    89b0:	a6 95       	lsr	r26
    89b2:	8f ef       	ldi	r24, 0xFF	; 255
    89b4:	81 1d       	adc	r24, r1
    89b6:	81 1d       	adc	r24, r1
    89b8:	08 95       	ret

000089ba <__fp_inf>:
    89ba:	97 f9       	bld	r25, 7
    89bc:	9f 67       	ori	r25, 0x7F	; 127
    89be:	80 e8       	ldi	r24, 0x80	; 128
    89c0:	70 e0       	ldi	r23, 0x00	; 0
    89c2:	60 e0       	ldi	r22, 0x00	; 0
    89c4:	08 95       	ret

000089c6 <__fp_nan>:
    89c6:	9f ef       	ldi	r25, 0xFF	; 255
    89c8:	80 ec       	ldi	r24, 0xC0	; 192
    89ca:	08 95       	ret

000089cc <__fp_pscA>:
    89cc:	00 24       	eor	r0, r0
    89ce:	0a 94       	dec	r0
    89d0:	16 16       	cp	r1, r22
    89d2:	17 06       	cpc	r1, r23
    89d4:	18 06       	cpc	r1, r24
    89d6:	09 06       	cpc	r0, r25
    89d8:	08 95       	ret

000089da <__fp_pscB>:
    89da:	00 24       	eor	r0, r0
    89dc:	0a 94       	dec	r0
    89de:	12 16       	cp	r1, r18
    89e0:	13 06       	cpc	r1, r19
    89e2:	14 06       	cpc	r1, r20
    89e4:	05 06       	cpc	r0, r21
    89e6:	08 95       	ret

000089e8 <__fp_round>:
    89e8:	09 2e       	mov	r0, r25
    89ea:	03 94       	inc	r0
    89ec:	00 0c       	add	r0, r0
    89ee:	11 f4       	brne	.+4      	; 0x89f4 <__fp_round+0xc>
    89f0:	88 23       	and	r24, r24
    89f2:	52 f0       	brmi	.+20     	; 0x8a08 <__fp_round+0x20>
    89f4:	bb 0f       	add	r27, r27
    89f6:	40 f4       	brcc	.+16     	; 0x8a08 <__fp_round+0x20>
    89f8:	bf 2b       	or	r27, r31
    89fa:	11 f4       	brne	.+4      	; 0x8a00 <__fp_round+0x18>
    89fc:	60 ff       	sbrs	r22, 0
    89fe:	04 c0       	rjmp	.+8      	; 0x8a08 <__fp_round+0x20>
    8a00:	6f 5f       	subi	r22, 0xFF	; 255
    8a02:	7f 4f       	sbci	r23, 0xFF	; 255
    8a04:	8f 4f       	sbci	r24, 0xFF	; 255
    8a06:	9f 4f       	sbci	r25, 0xFF	; 255
    8a08:	08 95       	ret

00008a0a <__fp_split3>:
    8a0a:	57 fd       	sbrc	r21, 7
    8a0c:	90 58       	subi	r25, 0x80	; 128
    8a0e:	44 0f       	add	r20, r20
    8a10:	55 1f       	adc	r21, r21
    8a12:	59 f0       	breq	.+22     	; 0x8a2a <__fp_splitA+0x10>
    8a14:	5f 3f       	cpi	r21, 0xFF	; 255
    8a16:	71 f0       	breq	.+28     	; 0x8a34 <__fp_splitA+0x1a>
    8a18:	47 95       	ror	r20

00008a1a <__fp_splitA>:
    8a1a:	88 0f       	add	r24, r24
    8a1c:	97 fb       	bst	r25, 7
    8a1e:	99 1f       	adc	r25, r25
    8a20:	61 f0       	breq	.+24     	; 0x8a3a <__fp_splitA+0x20>
    8a22:	9f 3f       	cpi	r25, 0xFF	; 255
    8a24:	79 f0       	breq	.+30     	; 0x8a44 <__fp_splitA+0x2a>
    8a26:	87 95       	ror	r24
    8a28:	08 95       	ret
    8a2a:	12 16       	cp	r1, r18
    8a2c:	13 06       	cpc	r1, r19
    8a2e:	14 06       	cpc	r1, r20
    8a30:	55 1f       	adc	r21, r21
    8a32:	f2 cf       	rjmp	.-28     	; 0x8a18 <__fp_split3+0xe>
    8a34:	46 95       	lsr	r20
    8a36:	f1 df       	rcall	.-30     	; 0x8a1a <__fp_splitA>
    8a38:	08 c0       	rjmp	.+16     	; 0x8a4a <__fp_splitA+0x30>
    8a3a:	16 16       	cp	r1, r22
    8a3c:	17 06       	cpc	r1, r23
    8a3e:	18 06       	cpc	r1, r24
    8a40:	99 1f       	adc	r25, r25
    8a42:	f1 cf       	rjmp	.-30     	; 0x8a26 <__fp_splitA+0xc>
    8a44:	86 95       	lsr	r24
    8a46:	71 05       	cpc	r23, r1
    8a48:	61 05       	cpc	r22, r1
    8a4a:	08 94       	sec
    8a4c:	08 95       	ret

00008a4e <__fp_zero>:
    8a4e:	e8 94       	clt

00008a50 <__fp_szero>:
    8a50:	bb 27       	eor	r27, r27
    8a52:	66 27       	eor	r22, r22
    8a54:	77 27       	eor	r23, r23
    8a56:	cb 01       	movw	r24, r22
    8a58:	97 f9       	bld	r25, 7
    8a5a:	08 95       	ret

00008a5c <__gesf2>:
    8a5c:	8a df       	rcall	.-236    	; 0x8972 <__fp_cmp>
    8a5e:	08 f4       	brcc	.+2      	; 0x8a62 <__gesf2+0x6>
    8a60:	8f ef       	ldi	r24, 0xFF	; 255
    8a62:	08 95       	ret

00008a64 <__mulsf3>:
    8a64:	0b d0       	rcall	.+22     	; 0x8a7c <__mulsf3x>
    8a66:	c0 cf       	rjmp	.-128    	; 0x89e8 <__fp_round>
    8a68:	b1 df       	rcall	.-158    	; 0x89cc <__fp_pscA>
    8a6a:	28 f0       	brcs	.+10     	; 0x8a76 <__mulsf3+0x12>
    8a6c:	b6 df       	rcall	.-148    	; 0x89da <__fp_pscB>
    8a6e:	18 f0       	brcs	.+6      	; 0x8a76 <__mulsf3+0x12>
    8a70:	95 23       	and	r25, r21
    8a72:	09 f0       	breq	.+2      	; 0x8a76 <__mulsf3+0x12>
    8a74:	a2 cf       	rjmp	.-188    	; 0x89ba <__fp_inf>
    8a76:	a7 cf       	rjmp	.-178    	; 0x89c6 <__fp_nan>
    8a78:	11 24       	eor	r1, r1
    8a7a:	ea cf       	rjmp	.-44     	; 0x8a50 <__fp_szero>

00008a7c <__mulsf3x>:
    8a7c:	c6 df       	rcall	.-116    	; 0x8a0a <__fp_split3>
    8a7e:	a0 f3       	brcs	.-24     	; 0x8a68 <__mulsf3+0x4>

00008a80 <__mulsf3_pse>:
    8a80:	95 9f       	mul	r25, r21
    8a82:	d1 f3       	breq	.-12     	; 0x8a78 <__mulsf3+0x14>
    8a84:	95 0f       	add	r25, r21
    8a86:	50 e0       	ldi	r21, 0x00	; 0
    8a88:	55 1f       	adc	r21, r21
    8a8a:	62 9f       	mul	r22, r18
    8a8c:	f0 01       	movw	r30, r0
    8a8e:	72 9f       	mul	r23, r18
    8a90:	bb 27       	eor	r27, r27
    8a92:	f0 0d       	add	r31, r0
    8a94:	b1 1d       	adc	r27, r1
    8a96:	63 9f       	mul	r22, r19
    8a98:	aa 27       	eor	r26, r26
    8a9a:	f0 0d       	add	r31, r0
    8a9c:	b1 1d       	adc	r27, r1
    8a9e:	aa 1f       	adc	r26, r26
    8aa0:	64 9f       	mul	r22, r20
    8aa2:	66 27       	eor	r22, r22
    8aa4:	b0 0d       	add	r27, r0
    8aa6:	a1 1d       	adc	r26, r1
    8aa8:	66 1f       	adc	r22, r22
    8aaa:	82 9f       	mul	r24, r18
    8aac:	22 27       	eor	r18, r18
    8aae:	b0 0d       	add	r27, r0
    8ab0:	a1 1d       	adc	r26, r1
    8ab2:	62 1f       	adc	r22, r18
    8ab4:	73 9f       	mul	r23, r19
    8ab6:	b0 0d       	add	r27, r0
    8ab8:	a1 1d       	adc	r26, r1
    8aba:	62 1f       	adc	r22, r18
    8abc:	83 9f       	mul	r24, r19
    8abe:	a0 0d       	add	r26, r0
    8ac0:	61 1d       	adc	r22, r1
    8ac2:	22 1f       	adc	r18, r18
    8ac4:	74 9f       	mul	r23, r20
    8ac6:	33 27       	eor	r19, r19
    8ac8:	a0 0d       	add	r26, r0
    8aca:	61 1d       	adc	r22, r1
    8acc:	23 1f       	adc	r18, r19
    8ace:	84 9f       	mul	r24, r20
    8ad0:	60 0d       	add	r22, r0
    8ad2:	21 1d       	adc	r18, r1
    8ad4:	82 2f       	mov	r24, r18
    8ad6:	76 2f       	mov	r23, r22
    8ad8:	6a 2f       	mov	r22, r26
    8ada:	11 24       	eor	r1, r1
    8adc:	9f 57       	subi	r25, 0x7F	; 127
    8ade:	50 40       	sbci	r21, 0x00	; 0
    8ae0:	8a f0       	brmi	.+34     	; 0x8b04 <__mulsf3_pse+0x84>
    8ae2:	e1 f0       	breq	.+56     	; 0x8b1c <__mulsf3_pse+0x9c>
    8ae4:	88 23       	and	r24, r24
    8ae6:	4a f0       	brmi	.+18     	; 0x8afa <__mulsf3_pse+0x7a>
    8ae8:	ee 0f       	add	r30, r30
    8aea:	ff 1f       	adc	r31, r31
    8aec:	bb 1f       	adc	r27, r27
    8aee:	66 1f       	adc	r22, r22
    8af0:	77 1f       	adc	r23, r23
    8af2:	88 1f       	adc	r24, r24
    8af4:	91 50       	subi	r25, 0x01	; 1
    8af6:	50 40       	sbci	r21, 0x00	; 0
    8af8:	a9 f7       	brne	.-22     	; 0x8ae4 <__mulsf3_pse+0x64>
    8afa:	9e 3f       	cpi	r25, 0xFE	; 254
    8afc:	51 05       	cpc	r21, r1
    8afe:	70 f0       	brcs	.+28     	; 0x8b1c <__mulsf3_pse+0x9c>
    8b00:	5c cf       	rjmp	.-328    	; 0x89ba <__fp_inf>
    8b02:	a6 cf       	rjmp	.-180    	; 0x8a50 <__fp_szero>
    8b04:	5f 3f       	cpi	r21, 0xFF	; 255
    8b06:	ec f3       	brlt	.-6      	; 0x8b02 <__mulsf3_pse+0x82>
    8b08:	98 3e       	cpi	r25, 0xE8	; 232
    8b0a:	dc f3       	brlt	.-10     	; 0x8b02 <__mulsf3_pse+0x82>
    8b0c:	86 95       	lsr	r24
    8b0e:	77 95       	ror	r23
    8b10:	67 95       	ror	r22
    8b12:	b7 95       	ror	r27
    8b14:	f7 95       	ror	r31
    8b16:	e7 95       	ror	r30
    8b18:	9f 5f       	subi	r25, 0xFF	; 255
    8b1a:	c1 f7       	brne	.-16     	; 0x8b0c <__mulsf3_pse+0x8c>
    8b1c:	fe 2b       	or	r31, r30
    8b1e:	88 0f       	add	r24, r24
    8b20:	91 1d       	adc	r25, r1
    8b22:	96 95       	lsr	r25
    8b24:	87 95       	ror	r24
    8b26:	97 f9       	bld	r25, 7
    8b28:	08 95       	ret
    8b2a:	11 f4       	brne	.+4      	; 0x8b30 <__mulsf3_pse+0xb0>
    8b2c:	0e f4       	brtc	.+2      	; 0x8b30 <__mulsf3_pse+0xb0>
    8b2e:	4b cf       	rjmp	.-362    	; 0x89c6 <__fp_nan>
    8b30:	3e c0       	rjmp	.+124    	; 0x8bae <__fp_mpack>

00008b32 <sqrt>:
    8b32:	73 df       	rcall	.-282    	; 0x8a1a <__fp_splitA>
    8b34:	d0 f3       	brcs	.-12     	; 0x8b2a <__mulsf3_pse+0xaa>
    8b36:	99 23       	and	r25, r25
    8b38:	d9 f3       	breq	.-10     	; 0x8b30 <__mulsf3_pse+0xb0>
    8b3a:	ce f3       	brts	.-14     	; 0x8b2e <__mulsf3_pse+0xae>
    8b3c:	9f 57       	subi	r25, 0x7F	; 127
    8b3e:	55 0b       	sbc	r21, r21
    8b40:	87 ff       	sbrs	r24, 7
    8b42:	43 d0       	rcall	.+134    	; 0x8bca <__fp_norm2>
    8b44:	00 24       	eor	r0, r0
    8b46:	a0 e6       	ldi	r26, 0x60	; 96
    8b48:	40 ea       	ldi	r20, 0xA0	; 160
    8b4a:	90 01       	movw	r18, r0
    8b4c:	80 58       	subi	r24, 0x80	; 128
    8b4e:	56 95       	lsr	r21
    8b50:	97 95       	ror	r25
    8b52:	28 f4       	brcc	.+10     	; 0x8b5e <sqrt+0x2c>
    8b54:	80 5c       	subi	r24, 0xC0	; 192
    8b56:	66 0f       	add	r22, r22
    8b58:	77 1f       	adc	r23, r23
    8b5a:	88 1f       	adc	r24, r24
    8b5c:	20 f0       	brcs	.+8      	; 0x8b66 <sqrt+0x34>
    8b5e:	26 17       	cp	r18, r22
    8b60:	37 07       	cpc	r19, r23
    8b62:	48 07       	cpc	r20, r24
    8b64:	30 f4       	brcc	.+12     	; 0x8b72 <sqrt+0x40>
    8b66:	62 1b       	sub	r22, r18
    8b68:	73 0b       	sbc	r23, r19
    8b6a:	84 0b       	sbc	r24, r20
    8b6c:	20 29       	or	r18, r0
    8b6e:	31 29       	or	r19, r1
    8b70:	4a 2b       	or	r20, r26
    8b72:	a6 95       	lsr	r26
    8b74:	17 94       	ror	r1
    8b76:	07 94       	ror	r0
    8b78:	20 25       	eor	r18, r0
    8b7a:	31 25       	eor	r19, r1
    8b7c:	4a 27       	eor	r20, r26
    8b7e:	58 f7       	brcc	.-42     	; 0x8b56 <sqrt+0x24>
    8b80:	66 0f       	add	r22, r22
    8b82:	77 1f       	adc	r23, r23
    8b84:	88 1f       	adc	r24, r24
    8b86:	20 f0       	brcs	.+8      	; 0x8b90 <sqrt+0x5e>
    8b88:	26 17       	cp	r18, r22
    8b8a:	37 07       	cpc	r19, r23
    8b8c:	48 07       	cpc	r20, r24
    8b8e:	30 f4       	brcc	.+12     	; 0x8b9c <sqrt+0x6a>
    8b90:	62 0b       	sbc	r22, r18
    8b92:	73 0b       	sbc	r23, r19
    8b94:	84 0b       	sbc	r24, r20
    8b96:	20 0d       	add	r18, r0
    8b98:	31 1d       	adc	r19, r1
    8b9a:	41 1d       	adc	r20, r1
    8b9c:	a0 95       	com	r26
    8b9e:	81 f7       	brne	.-32     	; 0x8b80 <sqrt+0x4e>
    8ba0:	b9 01       	movw	r22, r18
    8ba2:	84 2f       	mov	r24, r20
    8ba4:	91 58       	subi	r25, 0x81	; 129
    8ba6:	88 0f       	add	r24, r24
    8ba8:	96 95       	lsr	r25
    8baa:	87 95       	ror	r24
    8bac:	08 95       	ret

00008bae <__fp_mpack>:
    8bae:	9f 3f       	cpi	r25, 0xFF	; 255
    8bb0:	31 f0       	breq	.+12     	; 0x8bbe <__fp_mpack_finite+0xc>

00008bb2 <__fp_mpack_finite>:
    8bb2:	91 50       	subi	r25, 0x01	; 1
    8bb4:	20 f4       	brcc	.+8      	; 0x8bbe <__fp_mpack_finite+0xc>
    8bb6:	87 95       	ror	r24
    8bb8:	77 95       	ror	r23
    8bba:	67 95       	ror	r22
    8bbc:	b7 95       	ror	r27
    8bbe:	88 0f       	add	r24, r24
    8bc0:	91 1d       	adc	r25, r1
    8bc2:	96 95       	lsr	r25
    8bc4:	87 95       	ror	r24
    8bc6:	97 f9       	bld	r25, 7
    8bc8:	08 95       	ret

00008bca <__fp_norm2>:
    8bca:	91 50       	subi	r25, 0x01	; 1
    8bcc:	50 40       	sbci	r21, 0x00	; 0
    8bce:	66 0f       	add	r22, r22
    8bd0:	77 1f       	adc	r23, r23
    8bd2:	88 1f       	adc	r24, r24
    8bd4:	d2 f7       	brpl	.-12     	; 0x8bca <__fp_norm2>
    8bd6:	08 95       	ret

00008bd8 <__mulsi3>:
    8bd8:	db 01       	movw	r26, r22
    8bda:	8f 93       	push	r24
    8bdc:	9f 93       	push	r25
    8bde:	44 d0       	rcall	.+136    	; 0x8c68 <__muluhisi3>
    8be0:	bf 91       	pop	r27
    8be2:	af 91       	pop	r26
    8be4:	a2 9f       	mul	r26, r18
    8be6:	80 0d       	add	r24, r0
    8be8:	91 1d       	adc	r25, r1
    8bea:	a3 9f       	mul	r26, r19
    8bec:	90 0d       	add	r25, r0
    8bee:	b2 9f       	mul	r27, r18
    8bf0:	90 0d       	add	r25, r0
    8bf2:	11 24       	eor	r1, r1
    8bf4:	08 95       	ret

00008bf6 <__udivmodsi4>:
    8bf6:	a1 e2       	ldi	r26, 0x21	; 33
    8bf8:	1a 2e       	mov	r1, r26
    8bfa:	aa 1b       	sub	r26, r26
    8bfc:	bb 1b       	sub	r27, r27
    8bfe:	fd 01       	movw	r30, r26
    8c00:	0d c0       	rjmp	.+26     	; 0x8c1c <__udivmodsi4_ep>

00008c02 <__udivmodsi4_loop>:
    8c02:	aa 1f       	adc	r26, r26
    8c04:	bb 1f       	adc	r27, r27
    8c06:	ee 1f       	adc	r30, r30
    8c08:	ff 1f       	adc	r31, r31
    8c0a:	a2 17       	cp	r26, r18
    8c0c:	b3 07       	cpc	r27, r19
    8c0e:	e4 07       	cpc	r30, r20
    8c10:	f5 07       	cpc	r31, r21
    8c12:	20 f0       	brcs	.+8      	; 0x8c1c <__udivmodsi4_ep>
    8c14:	a2 1b       	sub	r26, r18
    8c16:	b3 0b       	sbc	r27, r19
    8c18:	e4 0b       	sbc	r30, r20
    8c1a:	f5 0b       	sbc	r31, r21

00008c1c <__udivmodsi4_ep>:
    8c1c:	66 1f       	adc	r22, r22
    8c1e:	77 1f       	adc	r23, r23
    8c20:	88 1f       	adc	r24, r24
    8c22:	99 1f       	adc	r25, r25
    8c24:	1a 94       	dec	r1
    8c26:	69 f7       	brne	.-38     	; 0x8c02 <__udivmodsi4_loop>
    8c28:	60 95       	com	r22
    8c2a:	70 95       	com	r23
    8c2c:	80 95       	com	r24
    8c2e:	90 95       	com	r25
    8c30:	9b 01       	movw	r18, r22
    8c32:	ac 01       	movw	r20, r24
    8c34:	bd 01       	movw	r22, r26
    8c36:	cf 01       	movw	r24, r30
    8c38:	08 95       	ret

00008c3a <__tablejump2__>:
    8c3a:	ee 0f       	add	r30, r30
    8c3c:	ff 1f       	adc	r31, r31
    8c3e:	88 1f       	adc	r24, r24
    8c40:	8b bf       	out	0x3b, r24	; 59
    8c42:	07 90       	elpm	r0, Z+
    8c44:	f6 91       	elpm	r31, Z
    8c46:	e0 2d       	mov	r30, r0
    8c48:	19 94       	eijmp

00008c4a <__umulhisi3>:
    8c4a:	a2 9f       	mul	r26, r18
    8c4c:	b0 01       	movw	r22, r0
    8c4e:	b3 9f       	mul	r27, r19
    8c50:	c0 01       	movw	r24, r0
    8c52:	a3 9f       	mul	r26, r19
    8c54:	70 0d       	add	r23, r0
    8c56:	81 1d       	adc	r24, r1
    8c58:	11 24       	eor	r1, r1
    8c5a:	91 1d       	adc	r25, r1
    8c5c:	b2 9f       	mul	r27, r18
    8c5e:	70 0d       	add	r23, r0
    8c60:	81 1d       	adc	r24, r1
    8c62:	11 24       	eor	r1, r1
    8c64:	91 1d       	adc	r25, r1
    8c66:	08 95       	ret

00008c68 <__muluhisi3>:
    8c68:	f0 df       	rcall	.-32     	; 0x8c4a <__umulhisi3>
    8c6a:	a5 9f       	mul	r26, r21
    8c6c:	90 0d       	add	r25, r0
    8c6e:	b4 9f       	mul	r27, r20
    8c70:	90 0d       	add	r25, r0
    8c72:	a4 9f       	mul	r26, r20
    8c74:	80 0d       	add	r24, r0
    8c76:	91 1d       	adc	r25, r1
    8c78:	11 24       	eor	r1, r1
    8c7a:	08 95       	ret

00008c7c <__moddi3>:
    8c7c:	68 94       	set
    8c7e:	01 c0       	rjmp	.+2      	; 0x8c82 <__divdi3_moddi3>

00008c80 <__divdi3>:
    8c80:	e8 94       	clt

00008c82 <__divdi3_moddi3>:
    8c82:	f9 2f       	mov	r31, r25
    8c84:	f1 2b       	or	r31, r17
    8c86:	0a f0       	brmi	.+2      	; 0x8c8a <__divdi3_moddi3+0x8>
    8c88:	27 c0       	rjmp	.+78     	; 0x8cd8 <__udivdi3_umoddi3>
    8c8a:	a0 e0       	ldi	r26, 0x00	; 0
    8c8c:	b0 e0       	ldi	r27, 0x00	; 0
    8c8e:	ea e4       	ldi	r30, 0x4A	; 74
    8c90:	f6 e4       	ldi	r31, 0x46	; 70
    8c92:	93 c0       	rjmp	.+294    	; 0x8dba <__prologue_saves__+0xc>
    8c94:	09 2e       	mov	r0, r25
    8c96:	05 94       	asr	r0
    8c98:	1a f4       	brpl	.+6      	; 0x8ca0 <__divdi3_moddi3+0x1e>
    8c9a:	79 d0       	rcall	.+242    	; 0x8d8e <__negdi2>
    8c9c:	11 23       	and	r17, r17
    8c9e:	92 f4       	brpl	.+36     	; 0x8cc4 <__divdi3_moddi3+0x42>
    8ca0:	f0 e8       	ldi	r31, 0x80	; 128
    8ca2:	0f 26       	eor	r0, r31
    8ca4:	ff ef       	ldi	r31, 0xFF	; 255
    8ca6:	e0 94       	com	r14
    8ca8:	f0 94       	com	r15
    8caa:	00 95       	com	r16
    8cac:	10 95       	com	r17
    8cae:	b0 94       	com	r11
    8cb0:	c0 94       	com	r12
    8cb2:	d0 94       	com	r13
    8cb4:	a1 94       	neg	r10
    8cb6:	bf 0a       	sbc	r11, r31
    8cb8:	cf 0a       	sbc	r12, r31
    8cba:	df 0a       	sbc	r13, r31
    8cbc:	ef 0a       	sbc	r14, r31
    8cbe:	ff 0a       	sbc	r15, r31
    8cc0:	0f 0b       	sbc	r16, r31
    8cc2:	1f 0b       	sbc	r17, r31
    8cc4:	13 d0       	rcall	.+38     	; 0x8cec <__udivmod64>
    8cc6:	07 fc       	sbrc	r0, 7
    8cc8:	62 d0       	rcall	.+196    	; 0x8d8e <__negdi2>
    8cca:	cd b7       	in	r28, 0x3d	; 61
    8ccc:	de b7       	in	r29, 0x3e	; 62
    8cce:	ec e0       	ldi	r30, 0x0C	; 12
    8cd0:	90 c0       	rjmp	.+288    	; 0x8df2 <__epilogue_restores__+0xc>

00008cd2 <__umoddi3>:
    8cd2:	68 94       	set
    8cd4:	01 c0       	rjmp	.+2      	; 0x8cd8 <__udivdi3_umoddi3>

00008cd6 <__udivdi3>:
    8cd6:	e8 94       	clt

00008cd8 <__udivdi3_umoddi3>:
    8cd8:	8f 92       	push	r8
    8cda:	9f 92       	push	r9
    8cdc:	cf 93       	push	r28
    8cde:	df 93       	push	r29
    8ce0:	05 d0       	rcall	.+10     	; 0x8cec <__udivmod64>
    8ce2:	df 91       	pop	r29
    8ce4:	cf 91       	pop	r28
    8ce6:	9f 90       	pop	r9
    8ce8:	8f 90       	pop	r8
    8cea:	08 95       	ret

00008cec <__udivmod64>:
    8cec:	88 24       	eor	r8, r8
    8cee:	99 24       	eor	r9, r9
    8cf0:	f4 01       	movw	r30, r8
    8cf2:	e4 01       	movw	r28, r8
    8cf4:	b0 e4       	ldi	r27, 0x40	; 64
    8cf6:	9f 93       	push	r25
    8cf8:	aa 27       	eor	r26, r26
    8cfa:	9a 15       	cp	r25, r10
    8cfc:	8b 04       	cpc	r8, r11
    8cfe:	9c 04       	cpc	r9, r12
    8d00:	ed 05       	cpc	r30, r13
    8d02:	fe 05       	cpc	r31, r14
    8d04:	cf 05       	cpc	r28, r15
    8d06:	d0 07       	cpc	r29, r16
    8d08:	a1 07       	cpc	r26, r17
    8d0a:	98 f4       	brcc	.+38     	; 0x8d32 <__udivmod64+0x46>
    8d0c:	ad 2f       	mov	r26, r29
    8d0e:	dc 2f       	mov	r29, r28
    8d10:	cf 2f       	mov	r28, r31
    8d12:	fe 2f       	mov	r31, r30
    8d14:	e9 2d       	mov	r30, r9
    8d16:	98 2c       	mov	r9, r8
    8d18:	89 2e       	mov	r8, r25
    8d1a:	98 2f       	mov	r25, r24
    8d1c:	87 2f       	mov	r24, r23
    8d1e:	76 2f       	mov	r23, r22
    8d20:	65 2f       	mov	r22, r21
    8d22:	54 2f       	mov	r21, r20
    8d24:	43 2f       	mov	r20, r19
    8d26:	32 2f       	mov	r19, r18
    8d28:	22 27       	eor	r18, r18
    8d2a:	b8 50       	subi	r27, 0x08	; 8
    8d2c:	31 f7       	brne	.-52     	; 0x8cfa <__udivmod64+0xe>
    8d2e:	bf 91       	pop	r27
    8d30:	27 c0       	rjmp	.+78     	; 0x8d80 <__udivmod64+0x94>
    8d32:	1b 2e       	mov	r1, r27
    8d34:	bf 91       	pop	r27
    8d36:	bb 27       	eor	r27, r27
    8d38:	22 0f       	add	r18, r18
    8d3a:	33 1f       	adc	r19, r19
    8d3c:	44 1f       	adc	r20, r20
    8d3e:	55 1f       	adc	r21, r21
    8d40:	66 1f       	adc	r22, r22
    8d42:	77 1f       	adc	r23, r23
    8d44:	88 1f       	adc	r24, r24
    8d46:	99 1f       	adc	r25, r25
    8d48:	88 1c       	adc	r8, r8
    8d4a:	99 1c       	adc	r9, r9
    8d4c:	ee 1f       	adc	r30, r30
    8d4e:	ff 1f       	adc	r31, r31
    8d50:	cc 1f       	adc	r28, r28
    8d52:	dd 1f       	adc	r29, r29
    8d54:	aa 1f       	adc	r26, r26
    8d56:	bb 1f       	adc	r27, r27
    8d58:	8a 14       	cp	r8, r10
    8d5a:	9b 04       	cpc	r9, r11
    8d5c:	ec 05       	cpc	r30, r12
    8d5e:	fd 05       	cpc	r31, r13
    8d60:	ce 05       	cpc	r28, r14
    8d62:	df 05       	cpc	r29, r15
    8d64:	a0 07       	cpc	r26, r16
    8d66:	b1 07       	cpc	r27, r17
    8d68:	48 f0       	brcs	.+18     	; 0x8d7c <__udivmod64+0x90>
    8d6a:	8a 18       	sub	r8, r10
    8d6c:	9b 08       	sbc	r9, r11
    8d6e:	ec 09       	sbc	r30, r12
    8d70:	fd 09       	sbc	r31, r13
    8d72:	ce 09       	sbc	r28, r14
    8d74:	df 09       	sbc	r29, r15
    8d76:	a0 0b       	sbc	r26, r16
    8d78:	b1 0b       	sbc	r27, r17
    8d7a:	21 60       	ori	r18, 0x01	; 1
    8d7c:	1a 94       	dec	r1
    8d7e:	e1 f6       	brne	.-72     	; 0x8d38 <__udivmod64+0x4c>
    8d80:	2e f4       	brtc	.+10     	; 0x8d8c <__udivmod64+0xa0>
    8d82:	94 01       	movw	r18, r8
    8d84:	af 01       	movw	r20, r30
    8d86:	be 01       	movw	r22, r28
    8d88:	cd 01       	movw	r24, r26
    8d8a:	00 0c       	add	r0, r0
    8d8c:	08 95       	ret

00008d8e <__negdi2>:
    8d8e:	60 95       	com	r22
    8d90:	70 95       	com	r23
    8d92:	80 95       	com	r24
    8d94:	90 95       	com	r25
    8d96:	30 95       	com	r19
    8d98:	40 95       	com	r20
    8d9a:	50 95       	com	r21
    8d9c:	21 95       	neg	r18
    8d9e:	3f 4f       	sbci	r19, 0xFF	; 255
    8da0:	4f 4f       	sbci	r20, 0xFF	; 255
    8da2:	5f 4f       	sbci	r21, 0xFF	; 255
    8da4:	6f 4f       	sbci	r22, 0xFF	; 255
    8da6:	7f 4f       	sbci	r23, 0xFF	; 255
    8da8:	8f 4f       	sbci	r24, 0xFF	; 255
    8daa:	9f 4f       	sbci	r25, 0xFF	; 255
    8dac:	08 95       	ret

00008dae <__prologue_saves__>:
    8dae:	2f 92       	push	r2
    8db0:	3f 92       	push	r3
    8db2:	4f 92       	push	r4
    8db4:	5f 92       	push	r5
    8db6:	6f 92       	push	r6
    8db8:	7f 92       	push	r7
    8dba:	8f 92       	push	r8
    8dbc:	9f 92       	push	r9
    8dbe:	af 92       	push	r10
    8dc0:	bf 92       	push	r11
    8dc2:	cf 92       	push	r12
    8dc4:	df 92       	push	r13
    8dc6:	ef 92       	push	r14
    8dc8:	ff 92       	push	r15
    8dca:	0f 93       	push	r16
    8dcc:	1f 93       	push	r17
    8dce:	cf 93       	push	r28
    8dd0:	df 93       	push	r29
    8dd2:	cd b7       	in	r28, 0x3d	; 61
    8dd4:	de b7       	in	r29, 0x3e	; 62
    8dd6:	ca 1b       	sub	r28, r26
    8dd8:	db 0b       	sbc	r29, r27
    8dda:	0f b6       	in	r0, 0x3f	; 63
    8ddc:	f8 94       	cli
    8dde:	de bf       	out	0x3e, r29	; 62
    8de0:	0f be       	out	0x3f, r0	; 63
    8de2:	cd bf       	out	0x3d, r28	; 61
    8de4:	19 94       	eijmp

00008de6 <__epilogue_restores__>:
    8de6:	2a 88       	ldd	r2, Y+18	; 0x12
    8de8:	39 88       	ldd	r3, Y+17	; 0x11
    8dea:	48 88       	ldd	r4, Y+16	; 0x10
    8dec:	5f 84       	ldd	r5, Y+15	; 0x0f
    8dee:	6e 84       	ldd	r6, Y+14	; 0x0e
    8df0:	7d 84       	ldd	r7, Y+13	; 0x0d
    8df2:	8c 84       	ldd	r8, Y+12	; 0x0c
    8df4:	9b 84       	ldd	r9, Y+11	; 0x0b
    8df6:	aa 84       	ldd	r10, Y+10	; 0x0a
    8df8:	b9 84       	ldd	r11, Y+9	; 0x09
    8dfa:	c8 84       	ldd	r12, Y+8	; 0x08
    8dfc:	df 80       	ldd	r13, Y+7	; 0x07
    8dfe:	ee 80       	ldd	r14, Y+6	; 0x06
    8e00:	fd 80       	ldd	r15, Y+5	; 0x05
    8e02:	0c 81       	ldd	r16, Y+4	; 0x04
    8e04:	1b 81       	ldd	r17, Y+3	; 0x03
    8e06:	aa 81       	ldd	r26, Y+2	; 0x02
    8e08:	b9 81       	ldd	r27, Y+1	; 0x01
    8e0a:	ce 0f       	add	r28, r30
    8e0c:	d1 1d       	adc	r29, r1
    8e0e:	0f b6       	in	r0, 0x3f	; 63
    8e10:	f8 94       	cli
    8e12:	de bf       	out	0x3e, r29	; 62
    8e14:	0f be       	out	0x3f, r0	; 63
    8e16:	cd bf       	out	0x3d, r28	; 61
    8e18:	ed 01       	movw	r28, r26
    8e1a:	08 95       	ret

00008e1c <__cmpdi2_s8>:
    8e1c:	00 24       	eor	r0, r0
    8e1e:	a7 fd       	sbrc	r26, 7
    8e20:	00 94       	com	r0
    8e22:	2a 17       	cp	r18, r26
    8e24:	30 05       	cpc	r19, r0
    8e26:	40 05       	cpc	r20, r0
    8e28:	50 05       	cpc	r21, r0
    8e2a:	60 05       	cpc	r22, r0
    8e2c:	70 05       	cpc	r23, r0
    8e2e:	80 05       	cpc	r24, r0
    8e30:	90 05       	cpc	r25, r0
    8e32:	08 95       	ret

00008e34 <calloc>:
    8e34:	0f 93       	push	r16
    8e36:	1f 93       	push	r17
    8e38:	cf 93       	push	r28
    8e3a:	df 93       	push	r29
    8e3c:	86 9f       	mul	r24, r22
    8e3e:	80 01       	movw	r16, r0
    8e40:	87 9f       	mul	r24, r23
    8e42:	10 0d       	add	r17, r0
    8e44:	96 9f       	mul	r25, r22
    8e46:	10 0d       	add	r17, r0
    8e48:	11 24       	eor	r1, r1
    8e4a:	c8 01       	movw	r24, r16
    8e4c:	0d d0       	rcall	.+26     	; 0x8e68 <malloc>
    8e4e:	ec 01       	movw	r28, r24
    8e50:	00 97       	sbiw	r24, 0x00	; 0
    8e52:	21 f0       	breq	.+8      	; 0x8e5c <calloc+0x28>
    8e54:	a8 01       	movw	r20, r16
    8e56:	60 e0       	ldi	r22, 0x00	; 0
    8e58:	70 e0       	ldi	r23, 0x00	; 0
    8e5a:	47 d1       	rcall	.+654    	; 0x90ea <memset>
    8e5c:	ce 01       	movw	r24, r28
    8e5e:	df 91       	pop	r29
    8e60:	cf 91       	pop	r28
    8e62:	1f 91       	pop	r17
    8e64:	0f 91       	pop	r16
    8e66:	08 95       	ret

00008e68 <malloc>:
    8e68:	0f 93       	push	r16
    8e6a:	1f 93       	push	r17
    8e6c:	cf 93       	push	r28
    8e6e:	df 93       	push	r29
    8e70:	82 30       	cpi	r24, 0x02	; 2
    8e72:	91 05       	cpc	r25, r1
    8e74:	10 f4       	brcc	.+4      	; 0x8e7a <malloc+0x12>
    8e76:	82 e0       	ldi	r24, 0x02	; 2
    8e78:	90 e0       	ldi	r25, 0x00	; 0
    8e7a:	e0 91 14 17 	lds	r30, 0x1714	; 0x801714 <__flp>
    8e7e:	f0 91 15 17 	lds	r31, 0x1715	; 0x801715 <__flp+0x1>
    8e82:	20 e0       	ldi	r18, 0x00	; 0
    8e84:	30 e0       	ldi	r19, 0x00	; 0
    8e86:	a0 e0       	ldi	r26, 0x00	; 0
    8e88:	b0 e0       	ldi	r27, 0x00	; 0
    8e8a:	30 97       	sbiw	r30, 0x00	; 0
    8e8c:	19 f1       	breq	.+70     	; 0x8ed4 <malloc+0x6c>
    8e8e:	40 81       	ld	r20, Z
    8e90:	51 81       	ldd	r21, Z+1	; 0x01
    8e92:	02 81       	ldd	r16, Z+2	; 0x02
    8e94:	13 81       	ldd	r17, Z+3	; 0x03
    8e96:	48 17       	cp	r20, r24
    8e98:	59 07       	cpc	r21, r25
    8e9a:	c8 f0       	brcs	.+50     	; 0x8ece <malloc+0x66>
    8e9c:	84 17       	cp	r24, r20
    8e9e:	95 07       	cpc	r25, r21
    8ea0:	69 f4       	brne	.+26     	; 0x8ebc <malloc+0x54>
    8ea2:	10 97       	sbiw	r26, 0x00	; 0
    8ea4:	31 f0       	breq	.+12     	; 0x8eb2 <malloc+0x4a>
    8ea6:	12 96       	adiw	r26, 0x02	; 2
    8ea8:	0c 93       	st	X, r16
    8eaa:	12 97       	sbiw	r26, 0x02	; 2
    8eac:	13 96       	adiw	r26, 0x03	; 3
    8eae:	1c 93       	st	X, r17
    8eb0:	27 c0       	rjmp	.+78     	; 0x8f00 <malloc+0x98>
    8eb2:	00 93 14 17 	sts	0x1714, r16	; 0x801714 <__flp>
    8eb6:	10 93 15 17 	sts	0x1715, r17	; 0x801715 <__flp+0x1>
    8eba:	22 c0       	rjmp	.+68     	; 0x8f00 <malloc+0x98>
    8ebc:	21 15       	cp	r18, r1
    8ebe:	31 05       	cpc	r19, r1
    8ec0:	19 f0       	breq	.+6      	; 0x8ec8 <malloc+0x60>
    8ec2:	42 17       	cp	r20, r18
    8ec4:	53 07       	cpc	r21, r19
    8ec6:	18 f4       	brcc	.+6      	; 0x8ece <malloc+0x66>
    8ec8:	9a 01       	movw	r18, r20
    8eca:	bd 01       	movw	r22, r26
    8ecc:	ef 01       	movw	r28, r30
    8ece:	df 01       	movw	r26, r30
    8ed0:	f8 01       	movw	r30, r16
    8ed2:	db cf       	rjmp	.-74     	; 0x8e8a <malloc+0x22>
    8ed4:	21 15       	cp	r18, r1
    8ed6:	31 05       	cpc	r19, r1
    8ed8:	f9 f0       	breq	.+62     	; 0x8f18 <malloc+0xb0>
    8eda:	28 1b       	sub	r18, r24
    8edc:	39 0b       	sbc	r19, r25
    8ede:	24 30       	cpi	r18, 0x04	; 4
    8ee0:	31 05       	cpc	r19, r1
    8ee2:	80 f4       	brcc	.+32     	; 0x8f04 <malloc+0x9c>
    8ee4:	8a 81       	ldd	r24, Y+2	; 0x02
    8ee6:	9b 81       	ldd	r25, Y+3	; 0x03
    8ee8:	61 15       	cp	r22, r1
    8eea:	71 05       	cpc	r23, r1
    8eec:	21 f0       	breq	.+8      	; 0x8ef6 <malloc+0x8e>
    8eee:	fb 01       	movw	r30, r22
    8ef0:	93 83       	std	Z+3, r25	; 0x03
    8ef2:	82 83       	std	Z+2, r24	; 0x02
    8ef4:	04 c0       	rjmp	.+8      	; 0x8efe <malloc+0x96>
    8ef6:	90 93 15 17 	sts	0x1715, r25	; 0x801715 <__flp+0x1>
    8efa:	80 93 14 17 	sts	0x1714, r24	; 0x801714 <__flp>
    8efe:	fe 01       	movw	r30, r28
    8f00:	32 96       	adiw	r30, 0x02	; 2
    8f02:	44 c0       	rjmp	.+136    	; 0x8f8c <malloc+0x124>
    8f04:	fe 01       	movw	r30, r28
    8f06:	e2 0f       	add	r30, r18
    8f08:	f3 1f       	adc	r31, r19
    8f0a:	81 93       	st	Z+, r24
    8f0c:	91 93       	st	Z+, r25
    8f0e:	22 50       	subi	r18, 0x02	; 2
    8f10:	31 09       	sbc	r19, r1
    8f12:	39 83       	std	Y+1, r19	; 0x01
    8f14:	28 83       	st	Y, r18
    8f16:	3a c0       	rjmp	.+116    	; 0x8f8c <malloc+0x124>
    8f18:	20 91 12 17 	lds	r18, 0x1712	; 0x801712 <__brkval>
    8f1c:	30 91 13 17 	lds	r19, 0x1713	; 0x801713 <__brkval+0x1>
    8f20:	23 2b       	or	r18, r19
    8f22:	41 f4       	brne	.+16     	; 0x8f34 <malloc+0xcc>
    8f24:	20 91 02 02 	lds	r18, 0x0202	; 0x800202 <__malloc_heap_start>
    8f28:	30 91 03 02 	lds	r19, 0x0203	; 0x800203 <__malloc_heap_start+0x1>
    8f2c:	30 93 13 17 	sts	0x1713, r19	; 0x801713 <__brkval+0x1>
    8f30:	20 93 12 17 	sts	0x1712, r18	; 0x801712 <__brkval>
    8f34:	20 91 00 02 	lds	r18, 0x0200	; 0x800200 <__DATA_REGION_ORIGIN__>
    8f38:	30 91 01 02 	lds	r19, 0x0201	; 0x800201 <__DATA_REGION_ORIGIN__+0x1>
    8f3c:	21 15       	cp	r18, r1
    8f3e:	31 05       	cpc	r19, r1
    8f40:	41 f4       	brne	.+16     	; 0x8f52 <malloc+0xea>
    8f42:	2d b7       	in	r18, 0x3d	; 61
    8f44:	3e b7       	in	r19, 0x3e	; 62
    8f46:	40 91 04 02 	lds	r20, 0x0204	; 0x800204 <__malloc_margin>
    8f4a:	50 91 05 02 	lds	r21, 0x0205	; 0x800205 <__malloc_margin+0x1>
    8f4e:	24 1b       	sub	r18, r20
    8f50:	35 0b       	sbc	r19, r21
    8f52:	e0 91 12 17 	lds	r30, 0x1712	; 0x801712 <__brkval>
    8f56:	f0 91 13 17 	lds	r31, 0x1713	; 0x801713 <__brkval+0x1>
    8f5a:	e2 17       	cp	r30, r18
    8f5c:	f3 07       	cpc	r31, r19
    8f5e:	a0 f4       	brcc	.+40     	; 0x8f88 <malloc+0x120>
    8f60:	2e 1b       	sub	r18, r30
    8f62:	3f 0b       	sbc	r19, r31
    8f64:	28 17       	cp	r18, r24
    8f66:	39 07       	cpc	r19, r25
    8f68:	78 f0       	brcs	.+30     	; 0x8f88 <malloc+0x120>
    8f6a:	ac 01       	movw	r20, r24
    8f6c:	4e 5f       	subi	r20, 0xFE	; 254
    8f6e:	5f 4f       	sbci	r21, 0xFF	; 255
    8f70:	24 17       	cp	r18, r20
    8f72:	35 07       	cpc	r19, r21
    8f74:	48 f0       	brcs	.+18     	; 0x8f88 <malloc+0x120>
    8f76:	4e 0f       	add	r20, r30
    8f78:	5f 1f       	adc	r21, r31
    8f7a:	50 93 13 17 	sts	0x1713, r21	; 0x801713 <__brkval+0x1>
    8f7e:	40 93 12 17 	sts	0x1712, r20	; 0x801712 <__brkval>
    8f82:	81 93       	st	Z+, r24
    8f84:	91 93       	st	Z+, r25
    8f86:	02 c0       	rjmp	.+4      	; 0x8f8c <malloc+0x124>
    8f88:	e0 e0       	ldi	r30, 0x00	; 0
    8f8a:	f0 e0       	ldi	r31, 0x00	; 0
    8f8c:	cf 01       	movw	r24, r30
    8f8e:	df 91       	pop	r29
    8f90:	cf 91       	pop	r28
    8f92:	1f 91       	pop	r17
    8f94:	0f 91       	pop	r16
    8f96:	08 95       	ret

00008f98 <free>:
    8f98:	cf 93       	push	r28
    8f9a:	df 93       	push	r29
    8f9c:	00 97       	sbiw	r24, 0x00	; 0
    8f9e:	09 f4       	brne	.+2      	; 0x8fa2 <free+0xa>
    8fa0:	81 c0       	rjmp	.+258    	; 0x90a4 <free+0x10c>
    8fa2:	fc 01       	movw	r30, r24
    8fa4:	32 97       	sbiw	r30, 0x02	; 2
    8fa6:	13 82       	std	Z+3, r1	; 0x03
    8fa8:	12 82       	std	Z+2, r1	; 0x02
    8faa:	a0 91 14 17 	lds	r26, 0x1714	; 0x801714 <__flp>
    8fae:	b0 91 15 17 	lds	r27, 0x1715	; 0x801715 <__flp+0x1>
    8fb2:	10 97       	sbiw	r26, 0x00	; 0
    8fb4:	81 f4       	brne	.+32     	; 0x8fd6 <free+0x3e>
    8fb6:	20 81       	ld	r18, Z
    8fb8:	31 81       	ldd	r19, Z+1	; 0x01
    8fba:	82 0f       	add	r24, r18
    8fbc:	93 1f       	adc	r25, r19
    8fbe:	20 91 12 17 	lds	r18, 0x1712	; 0x801712 <__brkval>
    8fc2:	30 91 13 17 	lds	r19, 0x1713	; 0x801713 <__brkval+0x1>
    8fc6:	28 17       	cp	r18, r24
    8fc8:	39 07       	cpc	r19, r25
    8fca:	51 f5       	brne	.+84     	; 0x9020 <free+0x88>
    8fcc:	f0 93 13 17 	sts	0x1713, r31	; 0x801713 <__brkval+0x1>
    8fd0:	e0 93 12 17 	sts	0x1712, r30	; 0x801712 <__brkval>
    8fd4:	67 c0       	rjmp	.+206    	; 0x90a4 <free+0x10c>
    8fd6:	ed 01       	movw	r28, r26
    8fd8:	20 e0       	ldi	r18, 0x00	; 0
    8fda:	30 e0       	ldi	r19, 0x00	; 0
    8fdc:	ce 17       	cp	r28, r30
    8fde:	df 07       	cpc	r29, r31
    8fe0:	40 f4       	brcc	.+16     	; 0x8ff2 <free+0x5a>
    8fe2:	4a 81       	ldd	r20, Y+2	; 0x02
    8fe4:	5b 81       	ldd	r21, Y+3	; 0x03
    8fe6:	9e 01       	movw	r18, r28
    8fe8:	41 15       	cp	r20, r1
    8fea:	51 05       	cpc	r21, r1
    8fec:	f1 f0       	breq	.+60     	; 0x902a <free+0x92>
    8fee:	ea 01       	movw	r28, r20
    8ff0:	f5 cf       	rjmp	.-22     	; 0x8fdc <free+0x44>
    8ff2:	d3 83       	std	Z+3, r29	; 0x03
    8ff4:	c2 83       	std	Z+2, r28	; 0x02
    8ff6:	40 81       	ld	r20, Z
    8ff8:	51 81       	ldd	r21, Z+1	; 0x01
    8ffa:	84 0f       	add	r24, r20
    8ffc:	95 1f       	adc	r25, r21
    8ffe:	c8 17       	cp	r28, r24
    9000:	d9 07       	cpc	r29, r25
    9002:	59 f4       	brne	.+22     	; 0x901a <free+0x82>
    9004:	88 81       	ld	r24, Y
    9006:	99 81       	ldd	r25, Y+1	; 0x01
    9008:	84 0f       	add	r24, r20
    900a:	95 1f       	adc	r25, r21
    900c:	02 96       	adiw	r24, 0x02	; 2
    900e:	91 83       	std	Z+1, r25	; 0x01
    9010:	80 83       	st	Z, r24
    9012:	8a 81       	ldd	r24, Y+2	; 0x02
    9014:	9b 81       	ldd	r25, Y+3	; 0x03
    9016:	93 83       	std	Z+3, r25	; 0x03
    9018:	82 83       	std	Z+2, r24	; 0x02
    901a:	21 15       	cp	r18, r1
    901c:	31 05       	cpc	r19, r1
    901e:	29 f4       	brne	.+10     	; 0x902a <free+0x92>
    9020:	f0 93 15 17 	sts	0x1715, r31	; 0x801715 <__flp+0x1>
    9024:	e0 93 14 17 	sts	0x1714, r30	; 0x801714 <__flp>
    9028:	3d c0       	rjmp	.+122    	; 0x90a4 <free+0x10c>
    902a:	e9 01       	movw	r28, r18
    902c:	fb 83       	std	Y+3, r31	; 0x03
    902e:	ea 83       	std	Y+2, r30	; 0x02
    9030:	49 91       	ld	r20, Y+
    9032:	59 91       	ld	r21, Y+
    9034:	c4 0f       	add	r28, r20
    9036:	d5 1f       	adc	r29, r21
    9038:	ec 17       	cp	r30, r28
    903a:	fd 07       	cpc	r31, r29
    903c:	61 f4       	brne	.+24     	; 0x9056 <free+0xbe>
    903e:	80 81       	ld	r24, Z
    9040:	91 81       	ldd	r25, Z+1	; 0x01
    9042:	84 0f       	add	r24, r20
    9044:	95 1f       	adc	r25, r21
    9046:	02 96       	adiw	r24, 0x02	; 2
    9048:	e9 01       	movw	r28, r18
    904a:	99 83       	std	Y+1, r25	; 0x01
    904c:	88 83       	st	Y, r24
    904e:	82 81       	ldd	r24, Z+2	; 0x02
    9050:	93 81       	ldd	r25, Z+3	; 0x03
    9052:	9b 83       	std	Y+3, r25	; 0x03
    9054:	8a 83       	std	Y+2, r24	; 0x02
    9056:	e0 e0       	ldi	r30, 0x00	; 0
    9058:	f0 e0       	ldi	r31, 0x00	; 0
    905a:	12 96       	adiw	r26, 0x02	; 2
    905c:	8d 91       	ld	r24, X+
    905e:	9c 91       	ld	r25, X
    9060:	13 97       	sbiw	r26, 0x03	; 3
    9062:	00 97       	sbiw	r24, 0x00	; 0
    9064:	19 f0       	breq	.+6      	; 0x906c <free+0xd4>
    9066:	fd 01       	movw	r30, r26
    9068:	dc 01       	movw	r26, r24
    906a:	f7 cf       	rjmp	.-18     	; 0x905a <free+0xc2>
    906c:	8d 91       	ld	r24, X+
    906e:	9c 91       	ld	r25, X
    9070:	11 97       	sbiw	r26, 0x01	; 1
    9072:	9d 01       	movw	r18, r26
    9074:	2e 5f       	subi	r18, 0xFE	; 254
    9076:	3f 4f       	sbci	r19, 0xFF	; 255
    9078:	82 0f       	add	r24, r18
    907a:	93 1f       	adc	r25, r19
    907c:	20 91 12 17 	lds	r18, 0x1712	; 0x801712 <__brkval>
    9080:	30 91 13 17 	lds	r19, 0x1713	; 0x801713 <__brkval+0x1>
    9084:	28 17       	cp	r18, r24
    9086:	39 07       	cpc	r19, r25
    9088:	69 f4       	brne	.+26     	; 0x90a4 <free+0x10c>
    908a:	30 97       	sbiw	r30, 0x00	; 0
    908c:	29 f4       	brne	.+10     	; 0x9098 <free+0x100>
    908e:	10 92 15 17 	sts	0x1715, r1	; 0x801715 <__flp+0x1>
    9092:	10 92 14 17 	sts	0x1714, r1	; 0x801714 <__flp>
    9096:	02 c0       	rjmp	.+4      	; 0x909c <free+0x104>
    9098:	13 82       	std	Z+3, r1	; 0x03
    909a:	12 82       	std	Z+2, r1	; 0x02
    909c:	b0 93 13 17 	sts	0x1713, r27	; 0x801713 <__brkval+0x1>
    90a0:	a0 93 12 17 	sts	0x1712, r26	; 0x801712 <__brkval>
    90a4:	df 91       	pop	r29
    90a6:	cf 91       	pop	r28
    90a8:	08 95       	ret

000090aa <atoi>:
    90aa:	fc 01       	movw	r30, r24
    90ac:	88 27       	eor	r24, r24
    90ae:	99 27       	eor	r25, r25
    90b0:	e8 94       	clt
    90b2:	21 91       	ld	r18, Z+
    90b4:	20 32       	cpi	r18, 0x20	; 32
    90b6:	e9 f3       	breq	.-6      	; 0x90b2 <atoi+0x8>
    90b8:	29 30       	cpi	r18, 0x09	; 9
    90ba:	10 f0       	brcs	.+4      	; 0x90c0 <atoi+0x16>
    90bc:	2e 30       	cpi	r18, 0x0E	; 14
    90be:	c8 f3       	brcs	.-14     	; 0x90b2 <atoi+0x8>
    90c0:	2b 32       	cpi	r18, 0x2B	; 43
    90c2:	39 f0       	breq	.+14     	; 0x90d2 <atoi+0x28>
    90c4:	2d 32       	cpi	r18, 0x2D	; 45
    90c6:	31 f4       	brne	.+12     	; 0x90d4 <atoi+0x2a>
    90c8:	68 94       	set
    90ca:	03 c0       	rjmp	.+6      	; 0x90d2 <atoi+0x28>
    90cc:	61 d0       	rcall	.+194    	; 0x9190 <__mulhi_const_10>
    90ce:	82 0f       	add	r24, r18
    90d0:	91 1d       	adc	r25, r1
    90d2:	21 91       	ld	r18, Z+
    90d4:	20 53       	subi	r18, 0x30	; 48
    90d6:	2a 30       	cpi	r18, 0x0A	; 10
    90d8:	c8 f3       	brcs	.-14     	; 0x90cc <atoi+0x22>
    90da:	1e f4       	brtc	.+6      	; 0x90e2 <atoi+0x38>
    90dc:	90 95       	com	r25
    90de:	81 95       	neg	r24
    90e0:	9f 4f       	sbci	r25, 0xFF	; 255
    90e2:	08 95       	ret

000090e4 <strtok>:
    90e4:	46 e2       	ldi	r20, 0x26	; 38
    90e6:	59 e0       	ldi	r21, 0x09	; 9
    90e8:	22 c0       	rjmp	.+68     	; 0x912e <strtok_r>

000090ea <memset>:
    90ea:	dc 01       	movw	r26, r24
    90ec:	01 c0       	rjmp	.+2      	; 0x90f0 <memset+0x6>
    90ee:	6d 93       	st	X+, r22
    90f0:	41 50       	subi	r20, 0x01	; 1
    90f2:	50 40       	sbci	r21, 0x00	; 0
    90f4:	e0 f7       	brcc	.-8      	; 0x90ee <memset+0x4>
    90f6:	08 95       	ret

000090f8 <strcat>:
    90f8:	fb 01       	movw	r30, r22
    90fa:	dc 01       	movw	r26, r24
    90fc:	0d 90       	ld	r0, X+
    90fe:	00 20       	and	r0, r0
    9100:	e9 f7       	brne	.-6      	; 0x90fc <strcat+0x4>
    9102:	11 97       	sbiw	r26, 0x01	; 1
    9104:	01 90       	ld	r0, Z+
    9106:	0d 92       	st	X+, r0
    9108:	00 20       	and	r0, r0
    910a:	e1 f7       	brne	.-8      	; 0x9104 <strcat+0xc>
    910c:	08 95       	ret

0000910e <strcmp>:
    910e:	fb 01       	movw	r30, r22
    9110:	dc 01       	movw	r26, r24
    9112:	8d 91       	ld	r24, X+
    9114:	01 90       	ld	r0, Z+
    9116:	80 19       	sub	r24, r0
    9118:	01 10       	cpse	r0, r1
    911a:	d9 f3       	breq	.-10     	; 0x9112 <strcmp+0x4>
    911c:	99 0b       	sbc	r25, r25
    911e:	08 95       	ret

00009120 <strcpy>:
    9120:	fb 01       	movw	r30, r22
    9122:	dc 01       	movw	r26, r24
    9124:	01 90       	ld	r0, Z+
    9126:	0d 92       	st	X+, r0
    9128:	00 20       	and	r0, r0
    912a:	e1 f7       	brne	.-8      	; 0x9124 <strcpy+0x4>
    912c:	08 95       	ret

0000912e <strtok_r>:
    912e:	fa 01       	movw	r30, r20
    9130:	a1 91       	ld	r26, Z+
    9132:	b0 81       	ld	r27, Z
    9134:	00 97       	sbiw	r24, 0x00	; 0
    9136:	19 f4       	brne	.+6      	; 0x913e <strtok_r+0x10>
    9138:	10 97       	sbiw	r26, 0x00	; 0
    913a:	e1 f0       	breq	.+56     	; 0x9174 <strtok_r+0x46>
    913c:	cd 01       	movw	r24, r26
    913e:	dc 01       	movw	r26, r24
    9140:	cd 01       	movw	r24, r26
    9142:	0d 90       	ld	r0, X+
    9144:	00 20       	and	r0, r0
    9146:	11 f4       	brne	.+4      	; 0x914c <strtok_r+0x1e>
    9148:	c0 01       	movw	r24, r0
    914a:	13 c0       	rjmp	.+38     	; 0x9172 <strtok_r+0x44>
    914c:	fb 01       	movw	r30, r22
    914e:	21 91       	ld	r18, Z+
    9150:	22 23       	and	r18, r18
    9152:	19 f0       	breq	.+6      	; 0x915a <strtok_r+0x2c>
    9154:	20 15       	cp	r18, r0
    9156:	d9 f7       	brne	.-10     	; 0x914e <strtok_r+0x20>
    9158:	f3 cf       	rjmp	.-26     	; 0x9140 <strtok_r+0x12>
    915a:	fb 01       	movw	r30, r22
    915c:	21 91       	ld	r18, Z+
    915e:	20 15       	cp	r18, r0
    9160:	19 f4       	brne	.+6      	; 0x9168 <strtok_r+0x3a>
    9162:	1e 92       	st	-X, r1
    9164:	11 96       	adiw	r26, 0x01	; 1
    9166:	06 c0       	rjmp	.+12     	; 0x9174 <strtok_r+0x46>
    9168:	22 23       	and	r18, r18
    916a:	c1 f7       	brne	.-16     	; 0x915c <strtok_r+0x2e>
    916c:	0d 90       	ld	r0, X+
    916e:	00 20       	and	r0, r0
    9170:	a1 f7       	brne	.-24     	; 0x915a <strtok_r+0x2c>
    9172:	d0 01       	movw	r26, r0
    9174:	fa 01       	movw	r30, r20
    9176:	a1 93       	st	Z+, r26
    9178:	b0 83       	st	Z, r27
    917a:	08 95       	ret

0000917c <__itoa_ncheck>:
    917c:	bb 27       	eor	r27, r27
    917e:	4a 30       	cpi	r20, 0x0A	; 10
    9180:	31 f4       	brne	.+12     	; 0x918e <__itoa_ncheck+0x12>
    9182:	99 23       	and	r25, r25
    9184:	22 f4       	brpl	.+8      	; 0x918e <__itoa_ncheck+0x12>
    9186:	bd e2       	ldi	r27, 0x2D	; 45
    9188:	90 95       	com	r25
    918a:	81 95       	neg	r24
    918c:	9f 4f       	sbci	r25, 0xFF	; 255
    918e:	09 c0       	rjmp	.+18     	; 0x91a2 <__utoa_common>

00009190 <__mulhi_const_10>:
    9190:	7a e0       	ldi	r23, 0x0A	; 10
    9192:	97 9f       	mul	r25, r23
    9194:	90 2d       	mov	r25, r0
    9196:	87 9f       	mul	r24, r23
    9198:	80 2d       	mov	r24, r0
    919a:	91 0d       	add	r25, r1
    919c:	11 24       	eor	r1, r1
    919e:	08 95       	ret

000091a0 <__utoa_ncheck>:
    91a0:	bb 27       	eor	r27, r27

000091a2 <__utoa_common>:
    91a2:	fb 01       	movw	r30, r22
    91a4:	55 27       	eor	r21, r21
    91a6:	aa 27       	eor	r26, r26
    91a8:	88 0f       	add	r24, r24
    91aa:	99 1f       	adc	r25, r25
    91ac:	aa 1f       	adc	r26, r26
    91ae:	a4 17       	cp	r26, r20
    91b0:	10 f0       	brcs	.+4      	; 0x91b6 <__utoa_common+0x14>
    91b2:	a4 1b       	sub	r26, r20
    91b4:	83 95       	inc	r24
    91b6:	50 51       	subi	r21, 0x10	; 16
    91b8:	b9 f7       	brne	.-18     	; 0x91a8 <__utoa_common+0x6>
    91ba:	a0 5d       	subi	r26, 0xD0	; 208
    91bc:	aa 33       	cpi	r26, 0x3A	; 58
    91be:	08 f0       	brcs	.+2      	; 0x91c2 <__utoa_common+0x20>
    91c0:	a9 5d       	subi	r26, 0xD9	; 217
    91c2:	a1 93       	st	Z+, r26
    91c4:	00 97       	sbiw	r24, 0x00	; 0
    91c6:	79 f7       	brne	.-34     	; 0x91a6 <__utoa_common+0x4>
    91c8:	b1 11       	cpse	r27, r1
    91ca:	b1 93       	st	Z+, r27
    91cc:	11 92       	st	Z+, r1
    91ce:	cb 01       	movw	r24, r22
    91d0:	00 c0       	rjmp	.+0      	; 0x91d2 <strrev>

000091d2 <strrev>:
    91d2:	dc 01       	movw	r26, r24
    91d4:	fc 01       	movw	r30, r24
    91d6:	67 2f       	mov	r22, r23
    91d8:	71 91       	ld	r23, Z+
    91da:	77 23       	and	r23, r23
    91dc:	e1 f7       	brne	.-8      	; 0x91d6 <strrev+0x4>
    91de:	32 97       	sbiw	r30, 0x02	; 2
    91e0:	04 c0       	rjmp	.+8      	; 0x91ea <strrev+0x18>
    91e2:	7c 91       	ld	r23, X
    91e4:	6d 93       	st	X+, r22
    91e6:	70 83       	st	Z, r23
    91e8:	62 91       	ld	r22, -Z
    91ea:	ae 17       	cp	r26, r30
    91ec:	bf 07       	cpc	r27, r31
    91ee:	c8 f3       	brcs	.-14     	; 0x91e2 <strrev+0x10>
    91f0:	08 95       	ret

000091f2 <_exit>:
    91f2:	f8 94       	cli

000091f4 <__stop_program>:
    91f4:	ff cf       	rjmp	.-2      	; 0x91f4 <__stop_program>
