
Mikrocontroller.elf:     file format elf32-avr

Sections:
Idx Name          Size      VMA       LMA       File off  Algn
  0 .data         000004c8  00800200  00004b40  00004bd4  2**0
                  CONTENTS, ALLOC, LOAD, DATA
  1 .text         00004b40  00000000  00000000  00000094  2**1
                  CONTENTS, ALLOC, LOAD, READONLY, CODE
  2 .bss          00000b9a  008006c8  008006c8  0000509c  2**0
                  ALLOC
  3 .comment      00000030  00000000  00000000  0000509c  2**0
                  CONTENTS, READONLY
  4 .note.gnu.avr.deviceinfo 00000040  00000000  00000000  000050cc  2**2
                  CONTENTS, READONLY
  5 .debug_aranges 000004b8  00000000  00000000  0000510c  2**0
                  CONTENTS, READONLY, DEBUGGING
  6 .debug_info   0000ab68  00000000  00000000  000055c4  2**0
                  CONTENTS, READONLY, DEBUGGING
  7 .debug_abbrev 00002095  00000000  00000000  0001012c  2**0
                  CONTENTS, READONLY, DEBUGGING
  8 .debug_line   00004fbb  00000000  00000000  000121c1  2**0
                  CONTENTS, READONLY, DEBUGGING
  9 .debug_frame  00001334  00000000  00000000  0001717c  2**2
                  CONTENTS, READONLY, DEBUGGING
 10 .debug_str    00001dd6  00000000  00000000  000184b0  2**0
                  CONTENTS, READONLY, DEBUGGING
 11 .debug_loc    00006eb7  00000000  00000000  0001a286  2**0
                  CONTENTS, READONLY, DEBUGGING
 12 .debug_ranges 00000500  00000000  00000000  0002113d  2**0
                  CONTENTS, READONLY, DEBUGGING

Disassembly of section .text:

00000000 <__vectors>:
       0:	d5 c0       	rjmp	.+426    	; 0x1ac <__ctors_end>
       2:	00 00       	nop
       4:	f4 c0       	rjmp	.+488    	; 0x1ee <__bad_interrupt>
       6:	00 00       	nop
       8:	f2 c0       	rjmp	.+484    	; 0x1ee <__bad_interrupt>
       a:	00 00       	nop
       c:	f0 c0       	rjmp	.+480    	; 0x1ee <__bad_interrupt>
       e:	00 00       	nop
      10:	ee c0       	rjmp	.+476    	; 0x1ee <__bad_interrupt>
      12:	00 00       	nop
      14:	ec c0       	rjmp	.+472    	; 0x1ee <__bad_interrupt>
      16:	00 00       	nop
      18:	ea c0       	rjmp	.+468    	; 0x1ee <__bad_interrupt>
      1a:	00 00       	nop
      1c:	e8 c0       	rjmp	.+464    	; 0x1ee <__bad_interrupt>
      1e:	00 00       	nop
      20:	e6 c0       	rjmp	.+460    	; 0x1ee <__bad_interrupt>
      22:	00 00       	nop
      24:	e4 c0       	rjmp	.+456    	; 0x1ee <__bad_interrupt>
      26:	00 00       	nop
      28:	e2 c0       	rjmp	.+452    	; 0x1ee <__bad_interrupt>
      2a:	00 00       	nop
      2c:	e0 c0       	rjmp	.+448    	; 0x1ee <__bad_interrupt>
      2e:	00 00       	nop
      30:	de c0       	rjmp	.+444    	; 0x1ee <__bad_interrupt>
      32:	00 00       	nop
      34:	dc c0       	rjmp	.+440    	; 0x1ee <__bad_interrupt>
      36:	00 00       	nop
      38:	da c0       	rjmp	.+436    	; 0x1ee <__bad_interrupt>
      3a:	00 00       	nop
      3c:	d8 c0       	rjmp	.+432    	; 0x1ee <__bad_interrupt>
      3e:	00 00       	nop
      40:	d6 c0       	rjmp	.+428    	; 0x1ee <__bad_interrupt>
      42:	00 00       	nop
      44:	d4 c0       	rjmp	.+424    	; 0x1ee <__bad_interrupt>
      46:	00 00       	nop
      48:	d2 c0       	rjmp	.+420    	; 0x1ee <__bad_interrupt>
      4a:	00 00       	nop
      4c:	d0 c0       	rjmp	.+416    	; 0x1ee <__bad_interrupt>
      4e:	00 00       	nop
      50:	ce c0       	rjmp	.+412    	; 0x1ee <__bad_interrupt>
      52:	00 00       	nop
      54:	cc c0       	rjmp	.+408    	; 0x1ee <__bad_interrupt>
      56:	00 00       	nop
      58:	ca c0       	rjmp	.+404    	; 0x1ee <__bad_interrupt>
      5a:	00 00       	nop
      5c:	c8 c0       	rjmp	.+400    	; 0x1ee <__bad_interrupt>
      5e:	00 00       	nop
      60:	c6 c0       	rjmp	.+396    	; 0x1ee <__bad_interrupt>
      62:	00 00       	nop
      64:	0c 94 47 22 	jmp	0x448e	; 0x448e <__vector_25>
      68:	0c 94 08 22 	jmp	0x4410	; 0x4410 <__vector_26>
      6c:	c0 c0       	rjmp	.+384    	; 0x1ee <__bad_interrupt>
      6e:	00 00       	nop
      70:	be c0       	rjmp	.+380    	; 0x1ee <__bad_interrupt>
      72:	00 00       	nop
      74:	bc c0       	rjmp	.+376    	; 0x1ee <__bad_interrupt>
      76:	00 00       	nop
      78:	ba c0       	rjmp	.+372    	; 0x1ee <__bad_interrupt>
      7a:	00 00       	nop
      7c:	b8 c0       	rjmp	.+368    	; 0x1ee <__bad_interrupt>
      7e:	00 00       	nop
      80:	b6 c0       	rjmp	.+364    	; 0x1ee <__bad_interrupt>
      82:	00 00       	nop
      84:	b4 c0       	rjmp	.+360    	; 0x1ee <__bad_interrupt>
      86:	00 00       	nop
      88:	b2 c0       	rjmp	.+356    	; 0x1ee <__bad_interrupt>
      8a:	00 00       	nop
      8c:	b0 c0       	rjmp	.+352    	; 0x1ee <__bad_interrupt>
      8e:	00 00       	nop
      90:	0c 94 b2 22 	jmp	0x4564	; 0x4564 <__vector_36>
      94:	0c 94 73 22 	jmp	0x44e6	; 0x44e6 <__vector_37>
      98:	aa c0       	rjmp	.+340    	; 0x1ee <__bad_interrupt>
      9a:	00 00       	nop
      9c:	a8 c0       	rjmp	.+336    	; 0x1ee <__bad_interrupt>
      9e:	00 00       	nop
      a0:	a6 c0       	rjmp	.+332    	; 0x1ee <__bad_interrupt>
      a2:	00 00       	nop
      a4:	a4 c0       	rjmp	.+328    	; 0x1ee <__bad_interrupt>
      a6:	00 00       	nop
      a8:	a2 c0       	rjmp	.+324    	; 0x1ee <__bad_interrupt>
      aa:	00 00       	nop
      ac:	a0 c0       	rjmp	.+320    	; 0x1ee <__bad_interrupt>
      ae:	00 00       	nop
      b0:	9e c0       	rjmp	.+316    	; 0x1ee <__bad_interrupt>
      b2:	00 00       	nop
      b4:	9c c0       	rjmp	.+312    	; 0x1ee <__bad_interrupt>
      b6:	00 00       	nop
      b8:	9a c0       	rjmp	.+308    	; 0x1ee <__bad_interrupt>
      ba:	00 00       	nop
      bc:	98 c0       	rjmp	.+304    	; 0x1ee <__bad_interrupt>
      be:	00 00       	nop
      c0:	96 c0       	rjmp	.+300    	; 0x1ee <__bad_interrupt>
      c2:	00 00       	nop
      c4:	94 c0       	rjmp	.+296    	; 0x1ee <__bad_interrupt>
      c6:	00 00       	nop
      c8:	92 c0       	rjmp	.+292    	; 0x1ee <__bad_interrupt>
      ca:	00 00       	nop
      cc:	0c 94 1d 23 	jmp	0x463a	; 0x463a <__vector_51>
      d0:	0c 94 de 22 	jmp	0x45bc	; 0x45bc <__vector_52>
      d4:	8c c0       	rjmp	.+280    	; 0x1ee <__bad_interrupt>
      d6:	00 00       	nop
      d8:	8a c0       	rjmp	.+276    	; 0x1ee <__bad_interrupt>
      da:	00 00       	nop
      dc:	88 c0       	rjmp	.+272    	; 0x1ee <__bad_interrupt>
      de:	00 00       	nop
      e0:	86 c0       	rjmp	.+268    	; 0x1ee <__bad_interrupt>
      e2:	00 00       	nop
      e4:	9c 01       	movw	r18, r24
      e6:	9e 01       	movw	r18, r28
      e8:	a0 01       	movw	r20, r0
      ea:	a2 01       	movw	r20, r4
      ec:	a4 01       	movw	r20, r8
      ee:	a6 01       	movw	r20, r12
      f0:	a8 01       	movw	r20, r16
      f2:	aa 01       	movw	r20, r20
      f4:	b0 01       	movw	r22, r0
      f6:	b6 01       	movw	r22, r12
      f8:	bc 01       	movw	r22, r24
      fa:	c2 01       	movw	r24, r4
      fc:	d3 01       	movw	r26, r6
      fe:	d5 01       	movw	r26, r10
     100:	d7 01       	movw	r26, r14
     102:	d9 01       	movw	r26, r18
     104:	db 01       	movw	r26, r22
     106:	dd 01       	movw	r26, r26
     108:	df 01       	movw	r26, r30
     10a:	e1 01       	movw	r28, r2
     10c:	e7 01       	movw	r28, r14
     10e:	ed 01       	movw	r28, r26
     110:	f3 01       	movw	r30, r6
     112:	f9 01       	movw	r30, r18
     114:	c0 06       	cpc	r12, r16
     116:	d9 06       	cpc	r13, r25
     118:	f2 06       	cpc	r15, r18
     11a:	0b 07       	cpc	r16, r27
     11c:	24 07       	cpc	r18, r20
     11e:	3d 07       	cpc	r19, r29
     120:	56 07       	cpc	r21, r22
     122:	6f 07       	cpc	r22, r31
     124:	88 07       	cpc	r24, r24
     126:	a1 07       	cpc	r26, r17
     128:	ba 07       	cpc	r27, r26
     12a:	d3 07       	cpc	r29, r19
     12c:	ec 07       	cpc	r30, r28
     12e:	05 08       	sbc	r0, r5
     130:	1e 08       	sbc	r1, r14
     132:	37 08       	sbc	r3, r7
     134:	50 08       	sbc	r5, r0
     136:	69 08       	sbc	r6, r9
     138:	82 08       	sbc	r8, r2
     13a:	9b 08       	sbc	r9, r11
     13c:	b4 08       	sbc	r11, r4
     13e:	cd 08       	sbc	r12, r13
     140:	e6 08       	sbc	r14, r6
     142:	ff 08       	sbc	r15, r15
     144:	18 09       	sbc	r17, r8
     146:	31 09       	sbc	r19, r1
     148:	90 09       	sbc	r25, r0
     14a:	4a 09       	sbc	r20, r10
     14c:	54 09       	sbc	r21, r4
     14e:	6d 09       	sbc	r22, r13
     150:	75 09       	sbc	r23, r5
     152:	bb 0a       	sbc	r11, r27
     154:	be 0a       	sbc	r11, r30
     156:	c1 0a       	sbc	r12, r17
     158:	c4 0a       	sbc	r12, r20
     15a:	c7 0a       	sbc	r12, r23
     15c:	ca 0a       	sbc	r12, r26
     15e:	cd 0a       	sbc	r12, r29
     160:	d0 0a       	sbc	r13, r16
     162:	d3 0a       	sbc	r13, r19
     164:	e2 0a       	sbc	r14, r18
     166:	a3 0b       	sbc	r26, r19
     168:	d9 0b       	sbc	r29, r25
     16a:	0e 0c       	add	r0, r14
     16c:	43 0c       	add	r4, r3
     16e:	78 0c       	add	r7, r8
     170:	ad 0c       	add	r10, r13
     172:	e2 0c       	add	r14, r2
     174:	17 0d       	add	r17, r7
     176:	4c 0d       	add	r20, r12
     178:	5b 0d       	add	r21, r11
     17a:	cb 0f       	add	r28, r27
     17c:	db 0f       	add	r29, r27
     17e:	eb 0f       	add	r30, r27
     180:	f2 0f       	add	r31, r18
     182:	14 10       	cpse	r1, r4
     184:	18 10       	cpse	r1, r8
     186:	1c 10       	cpse	r1, r12
     188:	20 10       	cpse	r2, r0
     18a:	34 10       	cpse	r3, r4
     18c:	37 10       	cpse	r3, r7
     18e:	3b 10       	cpse	r3, r11
     190:	3e 10       	cpse	r3, r14
     192:	61 10       	cpse	r6, r1
     194:	61 10       	cpse	r6, r1
     196:	42 10       	cpse	r4, r2
     198:	45 10       	cpse	r4, r5
     19a:	48 10       	cpse	r4, r8
     19c:	4b 10       	cpse	r4, r11
     19e:	4f 10       	cpse	r4, r15
     1a0:	53 10       	cpse	r5, r3
     1a2:	57 10       	cpse	r5, r7
     1a4:	61 10       	cpse	r6, r1
     1a6:	61 10       	cpse	r6, r1
     1a8:	5b 10       	cpse	r5, r11
     1aa:	5f 10       	cpse	r5, r15

000001ac <__ctors_end>:
     1ac:	11 24       	eor	r1, r1
     1ae:	1f be       	out	0x3f, r1	; 63
     1b0:	cf ef       	ldi	r28, 0xFF	; 255
     1b2:	d1 e2       	ldi	r29, 0x21	; 33
     1b4:	de bf       	out	0x3e, r29	; 62
     1b6:	cd bf       	out	0x3d, r28	; 61
     1b8:	00 e0       	ldi	r16, 0x00	; 0
     1ba:	0c bf       	out	0x3c, r16	; 60

000001bc <__do_copy_data>:
     1bc:	16 e0       	ldi	r17, 0x06	; 6
     1be:	a0 e0       	ldi	r26, 0x00	; 0
     1c0:	b2 e0       	ldi	r27, 0x02	; 2
     1c2:	e0 e4       	ldi	r30, 0x40	; 64
     1c4:	fb e4       	ldi	r31, 0x4B	; 75
     1c6:	00 e0       	ldi	r16, 0x00	; 0
     1c8:	0b bf       	out	0x3b, r16	; 59
     1ca:	02 c0       	rjmp	.+4      	; 0x1d0 <__do_copy_data+0x14>
     1cc:	07 90       	elpm	r0, Z+
     1ce:	0d 92       	st	X+, r0
     1d0:	a8 3c       	cpi	r26, 0xC8	; 200
     1d2:	b1 07       	cpc	r27, r17
     1d4:	d9 f7       	brne	.-10     	; 0x1cc <__do_copy_data+0x10>

000001d6 <__do_clear_bss>:
     1d6:	22 e1       	ldi	r18, 0x12	; 18
     1d8:	a8 ec       	ldi	r26, 0xC8	; 200
     1da:	b6 e0       	ldi	r27, 0x06	; 6
     1dc:	01 c0       	rjmp	.+2      	; 0x1e0 <.do_clear_bss_start>

000001de <.do_clear_bss_loop>:
     1de:	1d 92       	st	X+, r1

000001e0 <.do_clear_bss_start>:
     1e0:	a2 36       	cpi	r26, 0x62	; 98
     1e2:	b2 07       	cpc	r27, r18
     1e4:	e1 f7       	brne	.-8      	; 0x1de <.do_clear_bss_loop>
     1e6:	0e 94 5f 23 	call	0x46be	; 0x46be <main>
     1ea:	0c 94 9e 25 	jmp	0x4b3c	; 0x4b3c <_exit>

000001ee <__bad_interrupt>:
     1ee:	08 cf       	rjmp	.-496    	; 0x0 <__vectors>

000001f0 <cocktail_test_command>:
			lese_textfile_in_getraenk(i);
			nextion_setText(string,aktuellesGetraenk->name);
		}
		_delay_ms(10);
	}
}
     1f0:	0e 94 e2 21 	call	0x43c4	; 0x43c4 <Uart_Transmit_IT_PC>
     1f4:	8b ee       	ldi	r24, 0xEB	; 235
     1f6:	94 e0       	ldi	r25, 0x04	; 4
     1f8:	0c 94 e2 21 	jmp	0x43c4	; 0x43c4 <Uart_Transmit_IT_PC>
     1fc:	08 95       	ret

000001fe <schreibe_Menge_in_Getraenk>:
     1fe:	cf 92       	push	r12
     200:	df 92       	push	r13
     202:	ef 92       	push	r14
     204:	ff 92       	push	r15
     206:	0f 93       	push	r16
     208:	1f 93       	push	r17
     20a:	cf 93       	push	r28
     20c:	df 93       	push	r29
     20e:	cd b7       	in	r28, 0x3d	; 61
     210:	de b7       	in	r29, 0x3e	; 62
     212:	69 97       	sbiw	r28, 0x19	; 25
     214:	0f b6       	in	r0, 0x3f	; 63
     216:	f8 94       	cli
     218:	de bf       	out	0x3e, r29	; 62
     21a:	0f be       	out	0x3f, r0	; 63
     21c:	cd bf       	out	0x3d, r28	; 61
     21e:	8e 01       	movw	r16, r28
     220:	0f 5f       	subi	r16, 0xFF	; 255
     222:	1f 4f       	sbci	r17, 0xFF	; 255
     224:	9f e0       	ldi	r25, 0x0F	; 15
     226:	f8 01       	movw	r30, r16
     228:	11 92       	st	Z+, r1
     22a:	9a 95       	dec	r25
     22c:	e9 f7       	brne	.-6      	; 0x228 <schreibe_Menge_in_Getraenk+0x2a>
     22e:	97 e0       	ldi	r25, 0x07	; 7
     230:	e6 ef       	ldi	r30, 0xF6	; 246
     232:	f2 e0       	ldi	r31, 0x02	; 2
     234:	d8 01       	movw	r26, r16
     236:	01 90       	ld	r0, Z+
     238:	0d 92       	st	X+, r0
     23a:	9a 95       	dec	r25
     23c:	e1 f7       	brne	.-8      	; 0x236 <schreibe_Menge_in_Getraenk+0x38>
     23e:	c8 2e       	mov	r12, r24
     240:	d1 2c       	mov	r13, r1
     242:	7e 01       	movw	r14, r28
     244:	f0 e1       	ldi	r31, 0x10	; 16
     246:	ef 0e       	add	r14, r31
     248:	f1 1c       	adc	r15, r1
     24a:	4a e0       	ldi	r20, 0x0A	; 10
     24c:	b7 01       	movw	r22, r14
     24e:	c6 01       	movw	r24, r12
     250:	0e 94 63 25 	call	0x4ac6	; 0x4ac6 <__itoa_ncheck>
     254:	b7 01       	movw	r22, r14
     256:	c8 01       	movw	r24, r16
     258:	0e 94 2a 25 	call	0x4a54	; 0x4a54 <strcat>
     25c:	6c e5       	ldi	r22, 0x5C	; 92
     25e:	70 e1       	ldi	r23, 0x10	; 16
     260:	c8 01       	movw	r24, r16
     262:	0e 94 4b 14 	call	0x2896	; 0x2896 <nextion_getSliderValue>
     266:	e0 91 4f 0f 	lds	r30, 0x0F4F	; 0x800f4f <aktuellesGetraenk>
     26a:	f0 91 50 0f 	lds	r31, 0x0F50	; 0x800f50 <aktuellesGetraenk+0x1>
     26e:	90 91 47 0f 	lds	r25, 0x0F47	; 0x800f47 <i_Liste>
     272:	04 80       	ldd	r0, Z+4	; 0x04
     274:	f5 81       	ldd	r31, Z+5	; 0x05
     276:	e0 2d       	mov	r30, r0
     278:	e9 0f       	add	r30, r25
     27a:	f1 1d       	adc	r31, r1
     27c:	82 83       	std	Z+2, r24	; 0x02
     27e:	4a e0       	ldi	r20, 0x0A	; 10
     280:	b7 01       	movw	r22, r14
     282:	90 e0       	ldi	r25, 0x00	; 0
     284:	0e 94 63 25 	call	0x4ac6	; 0x4ac6 <__itoa_ncheck>
     288:	f7 01       	movw	r30, r14
     28a:	01 90       	ld	r0, Z+
     28c:	00 20       	and	r0, r0
     28e:	e9 f7       	brne	.-6      	; 0x28a <schreibe_Menge_in_Getraenk+0x8c>
     290:	31 97       	sbiw	r30, 0x01	; 1
     292:	85 e2       	ldi	r24, 0x25	; 37
     294:	90 e0       	ldi	r25, 0x00	; 0
     296:	91 83       	std	Z+1, r25	; 0x01
     298:	80 83       	st	Z, r24
     29a:	86 e0       	ldi	r24, 0x06	; 6
     29c:	ed ef       	ldi	r30, 0xFD	; 253
     29e:	f2 e0       	ldi	r31, 0x02	; 2
     2a0:	d8 01       	movw	r26, r16
     2a2:	01 90       	ld	r0, Z+
     2a4:	0d 92       	st	X+, r0
     2a6:	8a 95       	dec	r24
     2a8:	e1 f7       	brne	.-8      	; 0x2a2 <schreibe_Menge_in_Getraenk+0xa4>
     2aa:	4a e0       	ldi	r20, 0x0A	; 10
     2ac:	be 01       	movw	r22, r28
     2ae:	6b 5e       	subi	r22, 0xEB	; 235
     2b0:	7f 4f       	sbci	r23, 0xFF	; 255
     2b2:	c6 01       	movw	r24, r12
     2b4:	0e 94 63 25 	call	0x4ac6	; 0x4ac6 <__itoa_ncheck>
     2b8:	be 01       	movw	r22, r28
     2ba:	6b 5e       	subi	r22, 0xEB	; 235
     2bc:	7f 4f       	sbci	r23, 0xFF	; 255
     2be:	c8 01       	movw	r24, r16
     2c0:	0e 94 2a 25 	call	0x4a54	; 0x4a54 <strcat>
     2c4:	b7 01       	movw	r22, r14
     2c6:	c8 01       	movw	r24, r16
     2c8:	0e 94 fd 13 	call	0x27fa	; 0x27fa <nextion_setText>
     2cc:	69 96       	adiw	r28, 0x19	; 25
     2ce:	0f b6       	in	r0, 0x3f	; 63
     2d0:	f8 94       	cli
     2d2:	de bf       	out	0x3e, r29	; 62
     2d4:	0f be       	out	0x3f, r0	; 63
     2d6:	cd bf       	out	0x3d, r28	; 61
     2d8:	df 91       	pop	r29
     2da:	cf 91       	pop	r28
     2dc:	1f 91       	pop	r17
     2de:	0f 91       	pop	r16
     2e0:	ff 90       	pop	r15
     2e2:	ef 90       	pop	r14
     2e4:	df 90       	pop	r13
     2e6:	cf 90       	pop	r12
     2e8:	08 95       	ret

000002ea <check_reinanzeige1>:
     2ea:	81 30       	cpi	r24, 0x01	; 1
     2ec:	19 f0       	breq	.+6      	; 0x2f4 <check_reinanzeige1+0xa>
     2ee:	82 30       	cpi	r24, 0x02	; 2
     2f0:	29 f0       	breq	.+10     	; 0x2fc <check_reinanzeige1+0x12>
     2f2:	08 95       	ret
     2f4:	87 e0       	ldi	r24, 0x07	; 7
     2f6:	0c 94 de 13 	jmp	0x27bc	; 0x27bc <nextion_change_page>
     2fa:	08 95       	ret
     2fc:	8b e0       	ldi	r24, 0x0B	; 11
     2fe:	0c 94 de 13 	jmp	0x27bc	; 0x27bc <nextion_change_page>
     302:	08 95       	ret

00000304 <check_reinanzeige3>:
     304:	81 30       	cpi	r24, 0x01	; 1
     306:	31 f4       	brne	.+12     	; 0x314 <check_reinanzeige3+0x10>
     308:	87 e0       	ldi	r24, 0x07	; 7
     30a:	0e 94 de 13 	call	0x27bc	; 0x27bc <nextion_change_page>
     30e:	81 e0       	ldi	r24, 0x01	; 1
     310:	80 93 49 0f 	sts	0x0F49, r24	; 0x800f49 <stop>
     314:	08 95       	ret

00000316 <check_infoanzeige>:
     316:	81 30       	cpi	r24, 0x01	; 1
     318:	19 f4       	brne	.+6      	; 0x320 <check_infoanzeige+0xa>
     31a:	87 e0       	ldi	r24, 0x07	; 7
     31c:	0c 94 de 13 	jmp	0x27bc	; 0x27bc <nextion_change_page>
     320:	08 95       	ret

00000322 <schalte_pumpe_ein>:
     322:	90 e0       	ldi	r25, 0x00	; 0
     324:	8c 30       	cpi	r24, 0x0C	; 12
     326:	91 05       	cpc	r25, r1
     328:	90 f5       	brcc	.+100    	; 0x38e <schalte_pumpe_ein+0x6c>
     32a:	fc 01       	movw	r30, r24
     32c:	88 27       	eor	r24, r24
     32e:	ee 58       	subi	r30, 0x8E	; 142
     330:	ff 4f       	sbci	r31, 0xFF	; 255
     332:	8f 4f       	sbci	r24, 0xFF	; 255
     334:	0c 94 a7 23 	jmp	0x474e	; 0x474e <__tablejump2__>
     338:	12 9a       	sbi	0x02, 2	; 2
     33a:	08 95       	ret
     33c:	13 9a       	sbi	0x02, 3	; 2
     33e:	08 95       	ret
     340:	14 9a       	sbi	0x02, 4	; 2
     342:	08 95       	ret
     344:	15 9a       	sbi	0x02, 5	; 2
     346:	08 95       	ret
     348:	16 9a       	sbi	0x02, 6	; 2
     34a:	08 95       	ret
     34c:	17 9a       	sbi	0x02, 7	; 2
     34e:	08 95       	ret
     350:	a2 9a       	sbi	0x14, 2	; 20
     352:	08 95       	ret
     354:	e5 e0       	ldi	r30, 0x05	; 5
     356:	f1 e0       	ldi	r31, 0x01	; 1
     358:	80 81       	ld	r24, Z
     35a:	80 64       	ori	r24, 0x40	; 64
     35c:	80 83       	st	Z, r24
     35e:	08 95       	ret
     360:	e5 e0       	ldi	r30, 0x05	; 5
     362:	f1 e0       	ldi	r31, 0x01	; 1
     364:	80 81       	ld	r24, Z
     366:	80 62       	ori	r24, 0x20	; 32
     368:	80 83       	st	Z, r24
     36a:	08 95       	ret
     36c:	e5 e0       	ldi	r30, 0x05	; 5
     36e:	f1 e0       	ldi	r31, 0x01	; 1
     370:	80 81       	ld	r24, Z
     372:	80 61       	ori	r24, 0x10	; 16
     374:	80 83       	st	Z, r24
     376:	08 95       	ret
     378:	e5 e0       	ldi	r30, 0x05	; 5
     37a:	f1 e0       	ldi	r31, 0x01	; 1
     37c:	80 81       	ld	r24, Z
     37e:	88 60       	ori	r24, 0x08	; 8
     380:	80 83       	st	Z, r24
     382:	08 95       	ret
     384:	e5 e0       	ldi	r30, 0x05	; 5
     386:	f1 e0       	ldi	r31, 0x01	; 1
     388:	80 81       	ld	r24, Z
     38a:	84 60       	ori	r24, 0x04	; 4
     38c:	80 83       	st	Z, r24
     38e:	08 95       	ret

00000390 <schalte_pumpe_aus>:
     390:	90 e0       	ldi	r25, 0x00	; 0
     392:	8c 30       	cpi	r24, 0x0C	; 12
     394:	91 05       	cpc	r25, r1
     396:	90 f5       	brcc	.+100    	; 0x3fc <schalte_pumpe_aus+0x6c>
     398:	fc 01       	movw	r30, r24
     39a:	88 27       	eor	r24, r24
     39c:	e2 58       	subi	r30, 0x82	; 130
     39e:	ff 4f       	sbci	r31, 0xFF	; 255
     3a0:	8f 4f       	sbci	r24, 0xFF	; 255
     3a2:	0c 94 a7 23 	jmp	0x474e	; 0x474e <__tablejump2__>
     3a6:	12 98       	cbi	0x02, 2	; 2
     3a8:	08 95       	ret
     3aa:	13 98       	cbi	0x02, 3	; 2
     3ac:	08 95       	ret
     3ae:	14 98       	cbi	0x02, 4	; 2
     3b0:	08 95       	ret
     3b2:	15 98       	cbi	0x02, 5	; 2
     3b4:	08 95       	ret
     3b6:	16 98       	cbi	0x02, 6	; 2
     3b8:	08 95       	ret
     3ba:	17 98       	cbi	0x02, 7	; 2
     3bc:	08 95       	ret
     3be:	a2 98       	cbi	0x14, 2	; 20
     3c0:	08 95       	ret
     3c2:	e5 e0       	ldi	r30, 0x05	; 5
     3c4:	f1 e0       	ldi	r31, 0x01	; 1
     3c6:	80 81       	ld	r24, Z
     3c8:	8f 7b       	andi	r24, 0xBF	; 191
     3ca:	80 83       	st	Z, r24
     3cc:	08 95       	ret
     3ce:	e5 e0       	ldi	r30, 0x05	; 5
     3d0:	f1 e0       	ldi	r31, 0x01	; 1
     3d2:	80 81       	ld	r24, Z
     3d4:	8f 7d       	andi	r24, 0xDF	; 223
     3d6:	80 83       	st	Z, r24
     3d8:	08 95       	ret
     3da:	e5 e0       	ldi	r30, 0x05	; 5
     3dc:	f1 e0       	ldi	r31, 0x01	; 1
     3de:	80 81       	ld	r24, Z
     3e0:	8f 7e       	andi	r24, 0xEF	; 239
     3e2:	80 83       	st	Z, r24
     3e4:	08 95       	ret
     3e6:	e5 e0       	ldi	r30, 0x05	; 5
     3e8:	f1 e0       	ldi	r31, 0x01	; 1
     3ea:	80 81       	ld	r24, Z
     3ec:	87 7f       	andi	r24, 0xF7	; 247
     3ee:	80 83       	st	Z, r24
     3f0:	08 95       	ret
     3f2:	e5 e0       	ldi	r30, 0x05	; 5
     3f4:	f1 e0       	ldi	r31, 0x01	; 1
     3f6:	80 81       	ld	r24, Z
     3f8:	8b 7f       	andi	r24, 0xFB	; 251
     3fa:	80 83       	st	Z, r24
     3fc:	08 95       	ret

000003fe <fuelle_getraenk>:
     3fe:	4f 92       	push	r4
     400:	5f 92       	push	r5
     402:	6f 92       	push	r6
     404:	7f 92       	push	r7
     406:	8f 92       	push	r8
     408:	9f 92       	push	r9
     40a:	af 92       	push	r10
     40c:	bf 92       	push	r11
     40e:	cf 92       	push	r12
     410:	df 92       	push	r13
     412:	ef 92       	push	r14
     414:	ff 92       	push	r15
     416:	0f 93       	push	r16
     418:	1f 93       	push	r17
     41a:	cf 93       	push	r28
     41c:	df 93       	push	r29
     41e:	cd b7       	in	r28, 0x3d	; 61
     420:	de b7       	in	r29, 0x3e	; 62
     422:	2f 97       	sbiw	r28, 0x0f	; 15
     424:	0f b6       	in	r0, 0x3f	; 63
     426:	f8 94       	cli
     428:	de bf       	out	0x3e, r29	; 62
     42a:	0f be       	out	0x3f, r0	; 63
     42c:	cd bf       	out	0x3d, r28	; 61
     42e:	6c 01       	movw	r12, r24
     430:	e1 2c       	mov	r14, r1
     432:	f1 2c       	mov	r15, r1
     434:	01 e0       	ldi	r16, 0x01	; 1
     436:	81 2c       	mov	r8, r1
     438:	9e 2c       	mov	r9, r14
     43a:	e0 91 4f 0f 	lds	r30, 0x0F4F	; 0x800f4f <aktuellesGetraenk>
     43e:	f0 91 50 0f 	lds	r31, 0x0F50	; 0x800f50 <aktuellesGetraenk+0x1>
     442:	04 80       	ldd	r0, Z+4	; 0x04
     444:	f5 81       	ldd	r31, Z+5	; 0x05
     446:	e0 2d       	mov	r30, r0
     448:	ee 0d       	add	r30, r14
     44a:	ff 1d       	adc	r31, r15
     44c:	80 81       	ld	r24, Z
     44e:	88 23       	and	r24, r24
     450:	09 f4       	brne	.+2      	; 0x454 <__LOCK_REGION_LENGTH__+0x54>
     452:	79 c0       	rjmp	.+242    	; 0x546 <__LOCK_REGION_LENGTH__+0x146>
     454:	4a e0       	ldi	r20, 0x0A	; 10
     456:	be 01       	movw	r22, r28
     458:	65 5f       	subi	r22, 0xF5	; 245
     45a:	7f 4f       	sbci	r23, 0xFF	; 255
     45c:	80 81       	ld	r24, Z
     45e:	91 81       	ldd	r25, Z+1	; 0x01
     460:	0e 94 63 25 	call	0x4ac6	; 0x4ac6 <__itoa_ncheck>
     464:	ce 01       	movw	r24, r28
     466:	0b 96       	adiw	r24, 0x0b	; 11
     468:	0e 94 e2 21 	call	0x43c4	; 0x43c4 <Uart_Transmit_IT_PC>
     46c:	8c e3       	ldi	r24, 0x3C	; 60
     46e:	95 e0       	ldi	r25, 0x05	; 5
     470:	0e 94 e2 21 	call	0x43c4	; 0x43c4 <Uart_Transmit_IT_PC>
     474:	e0 91 4f 0f 	lds	r30, 0x0F4F	; 0x800f4f <aktuellesGetraenk>
     478:	f0 91 50 0f 	lds	r31, 0x0F50	; 0x800f50 <aktuellesGetraenk+0x1>
     47c:	04 80       	ldd	r0, Z+4	; 0x04
     47e:	f5 81       	ldd	r31, Z+5	; 0x05
     480:	e0 2d       	mov	r30, r0
     482:	ee 0d       	add	r30, r14
     484:	ff 1d       	adc	r31, r15
     486:	80 81       	ld	r24, Z
     488:	91 81       	ldd	r25, Z+1	; 0x01
     48a:	c8 9e       	mul	r12, r24
     48c:	90 01       	movw	r18, r0
     48e:	c9 9e       	mul	r12, r25
     490:	30 0d       	add	r19, r0
     492:	d8 9e       	mul	r13, r24
     494:	30 0d       	add	r19, r0
     496:	11 24       	eor	r1, r1
     498:	36 95       	lsr	r19
     49a:	27 95       	ror	r18
     49c:	36 95       	lsr	r19
     49e:	27 95       	ror	r18
     4a0:	ab e7       	ldi	r26, 0x7B	; 123
     4a2:	b4 e1       	ldi	r27, 0x14	; 20
     4a4:	0e 94 af 23 	call	0x475e	; 0x475e <__umulhisi3>
     4a8:	5c 01       	movw	r10, r24
     4aa:	b6 94       	lsr	r11
     4ac:	a7 94       	ror	r10
     4ae:	4a e0       	ldi	r20, 0x0A	; 10
     4b0:	be 01       	movw	r22, r28
     4b2:	6f 5f       	subi	r22, 0xFF	; 255
     4b4:	7f 4f       	sbci	r23, 0xFF	; 255
     4b6:	c5 01       	movw	r24, r10
     4b8:	0e 94 63 25 	call	0x4ac6	; 0x4ac6 <__itoa_ncheck>
     4bc:	ce 01       	movw	r24, r28
     4be:	01 96       	adiw	r24, 0x01	; 1
     4c0:	0e 94 e2 21 	call	0x43c4	; 0x43c4 <Uart_Transmit_IT_PC>
     4c4:	8c e3       	ldi	r24, 0x3C	; 60
     4c6:	95 e0       	ldi	r25, 0x05	; 5
     4c8:	0e 94 e2 21 	call	0x43c4	; 0x43c4 <Uart_Transmit_IT_PC>
     4cc:	8e 2d       	mov	r24, r14
     4ce:	29 df       	rcall	.-430    	; 0x322 <schalte_pumpe_ein>
     4d0:	20 2f       	mov	r18, r16
     4d2:	25 01       	movw	r4, r10
     4d4:	61 2c       	mov	r6, r1
     4d6:	71 2c       	mov	r7, r1
     4d8:	90 91 ce 06 	lds	r25, 0x06CE	; 0x8006ce <oldval.3299>
     4dc:	19 2f       	mov	r17, r25
     4de:	10 27       	eor	r17, r16
     4e0:	91 11       	cpse	r25, r1
     4e2:	2d c0       	rjmp	.+90     	; 0x53e <__LOCK_REGION_LENGTH__+0x13e>
     4e4:	61 f1       	breq	.+88     	; 0x53e <__LOCK_REGION_LENGTH__+0x13e>
     4e6:	80 91 ca 06 	lds	r24, 0x06CA	; 0x8006ca <count.3300>
     4ea:	90 91 cb 06 	lds	r25, 0x06CB	; 0x8006cb <count.3300+0x1>
     4ee:	a0 91 cc 06 	lds	r26, 0x06CC	; 0x8006cc <count.3300+0x2>
     4f2:	b0 91 cd 06 	lds	r27, 0x06CD	; 0x8006cd <count.3300+0x3>
     4f6:	ac 01       	movw	r20, r24
     4f8:	bd 01       	movw	r22, r26
     4fa:	4f 5f       	subi	r20, 0xFF	; 255
     4fc:	5f 4f       	sbci	r21, 0xFF	; 255
     4fe:	6f 4f       	sbci	r22, 0xFF	; 255
     500:	7f 4f       	sbci	r23, 0xFF	; 255
     502:	40 93 ca 06 	sts	0x06CA, r20	; 0x8006ca <count.3300>
     506:	50 93 cb 06 	sts	0x06CB, r21	; 0x8006cb <count.3300+0x1>
     50a:	60 93 cc 06 	sts	0x06CC, r22	; 0x8006cc <count.3300+0x2>
     50e:	70 93 cd 06 	sts	0x06CD, r23	; 0x8006cd <count.3300+0x3>
     512:	48 16       	cp	r4, r24
     514:	59 06       	cpc	r5, r25
     516:	6a 06       	cpc	r6, r26
     518:	7b 06       	cpc	r7, r27
     51a:	58 f4       	brcc	.+22     	; 0x532 <__LOCK_REGION_LENGTH__+0x132>
     51c:	89 2d       	mov	r24, r9
     51e:	38 df       	rcall	.-400    	; 0x390 <schalte_pumpe_aus>
     520:	10 92 ca 06 	sts	0x06CA, r1	; 0x8006ca <count.3300>
     524:	10 92 cb 06 	sts	0x06CB, r1	; 0x8006cb <count.3300+0x1>
     528:	10 92 cc 06 	sts	0x06CC, r1	; 0x8006cc <count.3300+0x2>
     52c:	10 92 cd 06 	sts	0x06CD, r1	; 0x8006cd <count.3300+0x3>
     530:	28 2d       	mov	r18, r8
     532:	8f e9       	ldi	r24, 0x9F	; 159
     534:	9f e0       	ldi	r25, 0x0F	; 15
     536:	01 97       	sbiw	r24, 0x01	; 1
     538:	f1 f7       	brne	.-4      	; 0x536 <__LOCK_REGION_LENGTH__+0x136>
     53a:	00 c0       	rjmp	.+0      	; 0x53c <__LOCK_REGION_LENGTH__+0x13c>
     53c:	00 00       	nop
     53e:	10 93 ce 06 	sts	0x06CE, r17	; 0x8006ce <oldval.3299>
     542:	21 11       	cpse	r18, r1
     544:	c9 cf       	rjmp	.-110    	; 0x4d8 <__LOCK_REGION_LENGTH__+0xd8>
     546:	9f ef       	ldi	r25, 0xFF	; 255
     548:	e9 1a       	sub	r14, r25
     54a:	f9 0a       	sbc	r15, r25
     54c:	8c e0       	ldi	r24, 0x0C	; 12
     54e:	e8 16       	cp	r14, r24
     550:	f1 04       	cpc	r15, r1
     552:	09 f0       	breq	.+2      	; 0x556 <__LOCK_REGION_LENGTH__+0x156>
     554:	71 cf       	rjmp	.-286    	; 0x438 <__LOCK_REGION_LENGTH__+0x38>
     556:	2f 96       	adiw	r28, 0x0f	; 15
     558:	0f b6       	in	r0, 0x3f	; 63
     55a:	f8 94       	cli
     55c:	de bf       	out	0x3e, r29	; 62
     55e:	0f be       	out	0x3f, r0	; 63
     560:	cd bf       	out	0x3d, r28	; 61
     562:	df 91       	pop	r29
     564:	cf 91       	pop	r28
     566:	1f 91       	pop	r17
     568:	0f 91       	pop	r16
     56a:	ff 90       	pop	r15
     56c:	ef 90       	pop	r14
     56e:	df 90       	pop	r13
     570:	cf 90       	pop	r12
     572:	bf 90       	pop	r11
     574:	af 90       	pop	r10
     576:	9f 90       	pop	r9
     578:	8f 90       	pop	r8
     57a:	7f 90       	pop	r7
     57c:	6f 90       	pop	r6
     57e:	5f 90       	pop	r5
     580:	4f 90       	pop	r4
     582:	08 95       	ret

00000584 <erstelle_Liste_zutat>:
     584:	2f 92       	push	r2
     586:	3f 92       	push	r3
     588:	4f 92       	push	r4
     58a:	5f 92       	push	r5
     58c:	6f 92       	push	r6
     58e:	7f 92       	push	r7
     590:	8f 92       	push	r8
     592:	9f 92       	push	r9
     594:	af 92       	push	r10
     596:	bf 92       	push	r11
     598:	cf 92       	push	r12
     59a:	df 92       	push	r13
     59c:	ef 92       	push	r14
     59e:	ff 92       	push	r15
     5a0:	0f 93       	push	r16
     5a2:	1f 93       	push	r17
     5a4:	cf 93       	push	r28
     5a6:	df 93       	push	r29
     5a8:	cd b7       	in	r28, 0x3d	; 61
     5aa:	de b7       	in	r29, 0x3e	; 62
     5ac:	c6 54       	subi	r28, 0x46	; 70
     5ae:	d1 09       	sbc	r29, r1
     5b0:	0f b6       	in	r0, 0x3f	; 63
     5b2:	f8 94       	cli
     5b4:	de bf       	out	0x3e, r29	; 62
     5b6:	0f be       	out	0x3f, r0	; 63
     5b8:	cd bf       	out	0x3d, r28	; 61
     5ba:	20 91 04 09 	lds	r18, 0x0904	; 0x800904 <head_zut>
     5be:	30 91 05 09 	lds	r19, 0x0905	; 0x800905 <head_zut+0x1>
     5c2:	30 93 52 0f 	sts	0x0F52, r19	; 0x800f52 <aktuelleZutat+0x1>
     5c6:	20 93 51 0f 	sts	0x0F51, r18	; 0x800f51 <aktuelleZutat>
     5ca:	80 90 47 0f 	lds	r8, 0x0F47	; 0x800f47 <i_Liste>
     5ce:	08 2d       	mov	r16, r8
     5d0:	10 e0       	ldi	r17, 0x00	; 0
     5d2:	98 01       	movw	r18, r16
     5d4:	2c 5f       	subi	r18, 0xFC	; 252
     5d6:	3f 4f       	sbci	r19, 0xFF	; 255
     5d8:	02 17       	cp	r16, r18
     5da:	13 07       	cpc	r17, r19
     5dc:	0c f0       	brlt	.+2      	; 0x5e0 <erstelle_Liste_zutat+0x5c>
     5de:	02 c1       	rjmp	.+516    	; 0x7e4 <erstelle_Liste_zutat+0x260>
     5e0:	27 96       	adiw	r28, 0x07	; 7
     5e2:	9f af       	std	Y+63, r25	; 0x3f
     5e4:	8e af       	std	Y+62, r24	; 0x3e
     5e6:	27 97       	sbiw	r28, 0x07	; 7
     5e8:	48 01       	movw	r8, r16
     5ea:	c8 01       	movw	r24, r16
     5ec:	0f 2e       	mov	r0, r31
     5ee:	f5 e1       	ldi	r31, 0x15	; 21
     5f0:	3f 2e       	mov	r3, r31
     5f2:	f0 2d       	mov	r31, r0
     5f4:	3e 01       	movw	r6, r28
     5f6:	2b e2       	ldi	r18, 0x2B	; 43
     5f8:	62 0e       	add	r6, r18
     5fa:	71 1c       	adc	r7, r1
     5fc:	6e 01       	movw	r12, r28
     5fe:	36 e1       	ldi	r19, 0x16	; 22
     600:	c3 0e       	add	r12, r19
     602:	d1 1c       	adc	r13, r1
     604:	fe 01       	movw	r30, r28
     606:	31 96       	adiw	r30, 0x01	; 1
     608:	5f 01       	movw	r10, r30
     60a:	0f 2e       	mov	r0, r31
     60c:	f5 e0       	ldi	r31, 0x05	; 5
     60e:	2f 2e       	mov	r2, r31
     610:	f0 2d       	mov	r31, r0
     612:	7e 01       	movw	r14, r28
     614:	f0 e4       	ldi	r31, 0x40	; 64
     616:	ef 0e       	add	r14, r31
     618:	f1 1c       	adc	r15, r1
     61a:	0f 2e       	mov	r0, r31
     61c:	f5 e2       	ldi	r31, 0x25	; 37
     61e:	4f 2e       	mov	r4, r31
     620:	51 2c       	mov	r5, r1
     622:	f0 2d       	mov	r31, r0
     624:	f3 01       	movw	r30, r6
     626:	23 2d       	mov	r18, r3
     628:	11 92       	st	Z+, r1
     62a:	2a 95       	dec	r18
     62c:	e9 f7       	brne	.-6      	; 0x628 <erstelle_Liste_zutat+0xa4>
     62e:	f6 01       	movw	r30, r12
     630:	23 2d       	mov	r18, r3
     632:	11 92       	st	Z+, r1
     634:	2a 95       	dec	r18
     636:	e9 f7       	brne	.-6      	; 0x632 <erstelle_Liste_zutat+0xae>
     638:	f5 01       	movw	r30, r10
     63a:	23 2d       	mov	r18, r3
     63c:	11 92       	st	Z+, r1
     63e:	2a 95       	dec	r18
     640:	e9 f7       	brne	.-6      	; 0x63c <erstelle_Liste_zutat+0xb8>
     642:	f7 01       	movw	r30, r14
     644:	22 2d       	mov	r18, r2
     646:	11 92       	st	Z+, r1
     648:	2a 95       	dec	r18
     64a:	e9 f7       	brne	.-6      	; 0x646 <erstelle_Liste_zutat+0xc2>
     64c:	f8 01       	movw	r30, r16
     64e:	e8 1b       	sub	r30, r24
     650:	f9 0b       	sbc	r31, r25
     652:	cf 01       	movw	r24, r30
     654:	4a e0       	ldi	r20, 0x0A	; 10
     656:	b7 01       	movw	r22, r14
     658:	01 96       	adiw	r24, 0x01	; 1
     65a:	0e 94 63 25 	call	0x4ac6	; 0x4ac6 <__itoa_ncheck>
     65e:	27 96       	adiw	r28, 0x07	; 7
     660:	6e ad       	ldd	r22, Y+62	; 0x3e
     662:	7f ad       	ldd	r23, Y+63	; 0x3f
     664:	27 97       	sbiw	r28, 0x07	; 7
     666:	c3 01       	movw	r24, r6
     668:	0e 94 2a 25 	call	0x4a54	; 0x4a54 <strcat>
     66c:	b7 01       	movw	r22, r14
     66e:	c3 01       	movw	r24, r6
     670:	0e 94 2a 25 	call	0x4a54	; 0x4a54 <strcat>
     674:	d6 01       	movw	r26, r12
     676:	0d 90       	ld	r0, X+
     678:	00 20       	and	r0, r0
     67a:	e9 f7       	brne	.-6      	; 0x676 <erstelle_Liste_zutat+0xf2>
     67c:	11 97       	sbiw	r26, 0x01	; 1
     67e:	87 e0       	ldi	r24, 0x07	; 7
     680:	e6 ef       	ldi	r30, 0xF6	; 246
     682:	f2 e0       	ldi	r31, 0x02	; 2
     684:	01 90       	ld	r0, Z+
     686:	0d 92       	st	X+, r0
     688:	8a 95       	dec	r24
     68a:	e1 f7       	brne	.-8      	; 0x684 <erstelle_Liste_zutat+0x100>
     68c:	b7 01       	movw	r22, r14
     68e:	c6 01       	movw	r24, r12
     690:	0e 94 2a 25 	call	0x4a54	; 0x4a54 <strcat>
     694:	d5 01       	movw	r26, r10
     696:	0d 90       	ld	r0, X+
     698:	00 20       	and	r0, r0
     69a:	e9 f7       	brne	.-6      	; 0x696 <erstelle_Liste_zutat+0x112>
     69c:	11 97       	sbiw	r26, 0x01	; 1
     69e:	86 e0       	ldi	r24, 0x06	; 6
     6a0:	ed ef       	ldi	r30, 0xFD	; 253
     6a2:	f2 e0       	ldi	r31, 0x02	; 2
     6a4:	01 90       	ld	r0, Z+
     6a6:	0d 92       	st	X+, r0
     6a8:	8a 95       	dec	r24
     6aa:	e1 f7       	brne	.-8      	; 0x6a4 <erstelle_Liste_zutat+0x120>
     6ac:	b7 01       	movw	r22, r14
     6ae:	c5 01       	movw	r24, r10
     6b0:	0e 94 2a 25 	call	0x4a54	; 0x4a54 <strcat>
     6b4:	e0 91 51 0f 	lds	r30, 0x0F51	; 0x800f51 <aktuelleZutat>
     6b8:	f0 91 52 0f 	lds	r31, 0x0F52	; 0x800f52 <aktuelleZutat+0x1>
     6bc:	03 80       	ldd	r0, Z+3	; 0x03
     6be:	f4 81       	ldd	r31, Z+4	; 0x04
     6c0:	e0 2d       	mov	r30, r0
     6c2:	82 81       	ldd	r24, Z+2	; 0x02
     6c4:	90 e0       	ldi	r25, 0x00	; 0
     6c6:	80 17       	cp	r24, r16
     6c8:	91 07       	cpc	r25, r17
     6ca:	c1 f7       	brne	.-16     	; 0x6bc <erstelle_Liste_zutat+0x138>
     6cc:	f0 93 52 0f 	sts	0x0F52, r31	; 0x800f52 <aktuelleZutat+0x1>
     6d0:	e0 93 51 0f 	sts	0x0F51, r30	; 0x800f51 <aktuelleZutat>
     6d4:	a0 91 04 09 	lds	r26, 0x0904	; 0x800904 <head_zut>
     6d8:	b0 91 05 09 	lds	r27, 0x0905	; 0x800905 <head_zut+0x1>
     6dc:	12 96       	adiw	r26, 0x02	; 2
     6de:	8c 91       	ld	r24, X
     6e0:	90 e0       	ldi	r25, 0x00	; 0
     6e2:	80 17       	cp	r24, r16
     6e4:	91 07       	cpc	r25, r17
     6e6:	59 f5       	brne	.+86     	; 0x73e <erstelle_Liste_zutat+0x1ba>
     6e8:	80 91 0a 09 	lds	r24, 0x090A	; 0x80090a <block_list_runter>
     6ec:	81 11       	cpse	r24, r1
     6ee:	2b c0       	rjmp	.+86     	; 0x746 <erstelle_Liste_zutat+0x1c2>
     6f0:	21 e0       	ldi	r18, 0x01	; 1
     6f2:	20 93 0a 09 	sts	0x090A, r18	; 0x80090a <block_list_runter>
     6f6:	60 81       	ld	r22, Z
     6f8:	71 81       	ldd	r23, Z+1	; 0x01
     6fa:	c3 01       	movw	r24, r6
     6fc:	0e 94 fd 13 	call	0x27fa	; 0x27fa <nextion_setText>
     700:	e0 91 4f 0f 	lds	r30, 0x0F4F	; 0x800f4f <aktuellesGetraenk>
     704:	f0 91 50 0f 	lds	r31, 0x0F50	; 0x800f50 <aktuellesGetraenk+0x1>
     708:	04 80       	ldd	r0, Z+4	; 0x04
     70a:	f5 81       	ldd	r31, Z+5	; 0x05
     70c:	e0 2d       	mov	r30, r0
     70e:	e8 0d       	add	r30, r8
     710:	f9 1d       	adc	r31, r9
     712:	80 81       	ld	r24, Z
     714:	4a e0       	ldi	r20, 0x0A	; 10
     716:	b7 01       	movw	r22, r14
     718:	90 e0       	ldi	r25, 0x00	; 0
     71a:	0e 94 63 25 	call	0x4ac6	; 0x4ac6 <__itoa_ncheck>
     71e:	b7 01       	movw	r22, r14
     720:	c6 01       	movw	r24, r12
     722:	0e 94 15 14 	call	0x282a	; 0x282a <nextion_setValue>
     726:	f7 01       	movw	r30, r14
     728:	01 90       	ld	r0, Z+
     72a:	00 20       	and	r0, r0
     72c:	e9 f7       	brne	.-6      	; 0x728 <erstelle_Liste_zutat+0x1a4>
     72e:	31 97       	sbiw	r30, 0x01	; 1
     730:	51 82       	std	Z+1, r5	; 0x01
     732:	40 82       	st	Z, r4
     734:	b7 01       	movw	r22, r14
     736:	c5 01       	movw	r24, r10
     738:	0e 94 fd 13 	call	0x27fa	; 0x27fa <nextion_setText>
     73c:	32 c0       	rjmp	.+100    	; 0x7a2 <erstelle_Liste_zutat+0x21e>
     73e:	80 91 0a 09 	lds	r24, 0x090A	; 0x80090a <block_list_runter>
     742:	88 23       	and	r24, r24
     744:	59 f0       	breq	.+22     	; 0x75c <erstelle_Liste_zutat+0x1d8>
     746:	6d ee       	ldi	r22, 0xED	; 237
     748:	74 e0       	ldi	r23, 0x04	; 4
     74a:	c3 01       	movw	r24, r6
     74c:	0e 94 fd 13 	call	0x27fa	; 0x27fa <nextion_setText>
     750:	66 eb       	ldi	r22, 0xB6	; 182
     752:	73 e0       	ldi	r23, 0x03	; 3
     754:	c6 01       	movw	r24, r12
     756:	0e 94 15 14 	call	0x282a	; 0x282a <nextion_setValue>
     75a:	23 c0       	rjmp	.+70     	; 0x7a2 <erstelle_Liste_zutat+0x21e>
     75c:	60 81       	ld	r22, Z
     75e:	71 81       	ldd	r23, Z+1	; 0x01
     760:	c3 01       	movw	r24, r6
     762:	0e 94 fd 13 	call	0x27fa	; 0x27fa <nextion_setText>
     766:	e0 91 4f 0f 	lds	r30, 0x0F4F	; 0x800f4f <aktuellesGetraenk>
     76a:	f0 91 50 0f 	lds	r31, 0x0F50	; 0x800f50 <aktuellesGetraenk+0x1>
     76e:	04 80       	ldd	r0, Z+4	; 0x04
     770:	f5 81       	ldd	r31, Z+5	; 0x05
     772:	e0 2d       	mov	r30, r0
     774:	e8 0d       	add	r30, r8
     776:	f9 1d       	adc	r31, r9
     778:	80 81       	ld	r24, Z
     77a:	4a e0       	ldi	r20, 0x0A	; 10
     77c:	b7 01       	movw	r22, r14
     77e:	90 e0       	ldi	r25, 0x00	; 0
     780:	0e 94 63 25 	call	0x4ac6	; 0x4ac6 <__itoa_ncheck>
     784:	b7 01       	movw	r22, r14
     786:	c6 01       	movw	r24, r12
     788:	0e 94 15 14 	call	0x282a	; 0x282a <nextion_setValue>
     78c:	f7 01       	movw	r30, r14
     78e:	01 90       	ld	r0, Z+
     790:	00 20       	and	r0, r0
     792:	e9 f7       	brne	.-6      	; 0x78e <erstelle_Liste_zutat+0x20a>
     794:	31 97       	sbiw	r30, 0x01	; 1
     796:	51 82       	std	Z+1, r5	; 0x01
     798:	40 82       	st	Z, r4
     79a:	b7 01       	movw	r22, r14
     79c:	c5 01       	movw	r24, r10
     79e:	0e 94 fd 13 	call	0x27fa	; 0x27fa <nextion_setText>
     7a2:	e0 91 45 0f 	lds	r30, 0x0F45	; 0x800f45 <tail_zut>
     7a6:	f0 91 46 0f 	lds	r31, 0x0F46	; 0x800f46 <tail_zut+0x1>
     7aa:	82 81       	ldd	r24, Z+2	; 0x02
     7ac:	90 e0       	ldi	r25, 0x00	; 0
     7ae:	80 17       	cp	r24, r16
     7b0:	91 07       	cpc	r25, r17
     7b2:	19 f4       	brne	.+6      	; 0x7ba <erstelle_Liste_zutat+0x236>
     7b4:	31 e0       	ldi	r19, 0x01	; 1
     7b6:	30 93 17 0d 	sts	0x0D17, r19	; 0x800d17 <block_list_hoch>
     7ba:	8f e3       	ldi	r24, 0x3F	; 63
     7bc:	9c e9       	ldi	r25, 0x9C	; 156
     7be:	01 97       	sbiw	r24, 0x01	; 1
     7c0:	f1 f7       	brne	.-4      	; 0x7be <erstelle_Liste_zutat+0x23a>
     7c2:	00 c0       	rjmp	.+0      	; 0x7c4 <erstelle_Liste_zutat+0x240>
     7c4:	00 00       	nop
     7c6:	0f 5f       	subi	r16, 0xFF	; 255
     7c8:	1f 4f       	sbci	r17, 0xFF	; 255
     7ca:	80 91 47 0f 	lds	r24, 0x0F47	; 0x800f47 <i_Liste>
     7ce:	90 e0       	ldi	r25, 0x00	; 0
     7d0:	ef ef       	ldi	r30, 0xFF	; 255
     7d2:	8e 1a       	sub	r8, r30
     7d4:	9e 0a       	sbc	r9, r30
     7d6:	9c 01       	movw	r18, r24
     7d8:	2c 5f       	subi	r18, 0xFC	; 252
     7da:	3f 4f       	sbci	r19, 0xFF	; 255
     7dc:	02 17       	cp	r16, r18
     7de:	13 07       	cpc	r17, r19
     7e0:	0c f4       	brge	.+2      	; 0x7e4 <erstelle_Liste_zutat+0x260>
     7e2:	20 cf       	rjmp	.-448    	; 0x624 <erstelle_Liste_zutat+0xa0>
     7e4:	ca 5b       	subi	r28, 0xBA	; 186
     7e6:	df 4f       	sbci	r29, 0xFF	; 255
     7e8:	0f b6       	in	r0, 0x3f	; 63
     7ea:	f8 94       	cli
     7ec:	de bf       	out	0x3e, r29	; 62
     7ee:	0f be       	out	0x3f, r0	; 63
     7f0:	cd bf       	out	0x3d, r28	; 61
     7f2:	df 91       	pop	r29
     7f4:	cf 91       	pop	r28
     7f6:	1f 91       	pop	r17
     7f8:	0f 91       	pop	r16
     7fa:	ff 90       	pop	r15
     7fc:	ef 90       	pop	r14
     7fe:	df 90       	pop	r13
     800:	cf 90       	pop	r12
     802:	bf 90       	pop	r11
     804:	af 90       	pop	r10
     806:	9f 90       	pop	r9
     808:	8f 90       	pop	r8
     80a:	7f 90       	pop	r7
     80c:	6f 90       	pop	r6
     80e:	5f 90       	pop	r5
     810:	4f 90       	pop	r4
     812:	3f 90       	pop	r3
     814:	2f 90       	pop	r2
     816:	08 95       	ret

00000818 <setze_startanzeige>:
     818:	0f 93       	push	r16
     81a:	1f 93       	push	r17
     81c:	cf 93       	push	r28
     81e:	df 93       	push	r29
     820:	00 d0       	rcall	.+0      	; 0x822 <setze_startanzeige+0xa>
     822:	1f 92       	push	r1
     824:	cd b7       	in	r28, 0x3d	; 61
     826:	de b7       	in	r29, 0x3e	; 62
     828:	8c 01       	movw	r16, r24
     82a:	81 e0       	ldi	r24, 0x01	; 1
     82c:	0e 94 de 13 	call	0x27bc	; 0x27bc <nextion_change_page>
     830:	f8 01       	movw	r30, r16
     832:	60 81       	ld	r22, Z
     834:	71 81       	ldd	r23, Z+1	; 0x01
     836:	83 e0       	ldi	r24, 0x03	; 3
     838:	93 e0       	ldi	r25, 0x03	; 3
     83a:	0e 94 fd 13 	call	0x27fa	; 0x27fa <nextion_setText>
     83e:	f8 01       	movw	r30, r16
     840:	86 81       	ldd	r24, Z+6	; 0x06
     842:	4a e0       	ldi	r20, 0x0A	; 10
     844:	be 01       	movw	r22, r28
     846:	6f 5f       	subi	r22, 0xFF	; 255
     848:	7f 4f       	sbci	r23, 0xFF	; 255
     84a:	90 e0       	ldi	r25, 0x00	; 0
     84c:	0e 94 63 25 	call	0x4ac6	; 0x4ac6 <__itoa_ncheck>
     850:	ae 01       	movw	r20, r28
     852:	4f 5f       	subi	r20, 0xFF	; 255
     854:	5f 4f       	sbci	r21, 0xFF	; 255
     856:	60 e1       	ldi	r22, 0x10	; 16
     858:	73 e0       	ldi	r23, 0x03	; 3
     85a:	83 e1       	ldi	r24, 0x13	; 19
     85c:	93 e0       	ldi	r25, 0x03	; 3
     85e:	0e 94 25 14 	call	0x284a	; 0x284a <nextion_setPicture>
     862:	0f 90       	pop	r0
     864:	0f 90       	pop	r0
     866:	0f 90       	pop	r0
     868:	0f 90       	pop	r0
     86a:	df 91       	pop	r29
     86c:	cf 91       	pop	r28
     86e:	1f 91       	pop	r17
     870:	0f 91       	pop	r16
     872:	08 95       	ret

00000874 <check_zutatenanzeige>:
     874:	81 30       	cpi	r24, 0x01	; 1
     876:	19 f0       	breq	.+6      	; 0x87e <check_zutatenanzeige+0xa>
     878:	82 30       	cpi	r24, 0x02	; 2
     87a:	51 f0       	breq	.+20     	; 0x890 <check_zutatenanzeige+0x1c>
     87c:	08 95       	ret
     87e:	81 e0       	ldi	r24, 0x01	; 1
     880:	0e 94 de 13 	call	0x27bc	; 0x27bc <nextion_change_page>
     884:	80 91 4f 0f 	lds	r24, 0x0F4F	; 0x800f4f <aktuellesGetraenk>
     888:	90 91 50 0f 	lds	r25, 0x0F50	; 0x800f50 <aktuellesGetraenk+0x1>
     88c:	c5 cf       	rjmp	.-118    	; 0x818 <setze_startanzeige>
     88e:	08 95       	ret
     890:	81 e0       	ldi	r24, 0x01	; 1
     892:	0e 94 de 13 	call	0x27bc	; 0x27bc <nextion_change_page>
     896:	80 91 4f 0f 	lds	r24, 0x0F4F	; 0x800f4f <aktuellesGetraenk>
     89a:	90 91 50 0f 	lds	r25, 0x0F50	; 0x800f50 <aktuellesGetraenk+0x1>
     89e:	bc cf       	rjmp	.-136    	; 0x818 <setze_startanzeige>
     8a0:	08 95       	ret

000008a2 <check_zubabfrage>:
     8a2:	82 30       	cpi	r24, 0x02	; 2
     8a4:	81 f1       	breq	.+96     	; 0x906 <check_zubabfrage+0x64>
     8a6:	83 30       	cpi	r24, 0x03	; 3
     8a8:	09 f4       	brne	.+2      	; 0x8ac <check_zubabfrage+0xa>
     8aa:	57 c0       	rjmp	.+174    	; 0x95a <check_zubabfrage+0xb8>
     8ac:	81 30       	cpi	r24, 0x01	; 1
     8ae:	09 f0       	breq	.+2      	; 0x8b2 <check_zubabfrage+0x10>
     8b0:	57 c0       	rjmp	.+174    	; 0x960 <check_zubabfrage+0xbe>
     8b2:	85 e0       	ldi	r24, 0x05	; 5
     8b4:	0e 94 de 13 	call	0x27bc	; 0x27bc <nextion_change_page>
     8b8:	67 e1       	ldi	r22, 0x17	; 23
     8ba:	73 e0       	ldi	r23, 0x03	; 3
     8bc:	88 e4       	ldi	r24, 0x48	; 72
     8be:	93 e0       	ldi	r25, 0x03	; 3
     8c0:	0e 94 fd 13 	call	0x27fa	; 0x27fa <nextion_setText>
     8c4:	2f ef       	ldi	r18, 0xFF	; 255
     8c6:	83 ed       	ldi	r24, 0xD3	; 211
     8c8:	90 e3       	ldi	r25, 0x30	; 48
     8ca:	21 50       	subi	r18, 0x01	; 1
     8cc:	80 40       	sbci	r24, 0x00	; 0
     8ce:	90 40       	sbci	r25, 0x00	; 0
     8d0:	e1 f7       	brne	.-8      	; 0x8ca <check_zubabfrage+0x28>
     8d2:	00 c0       	rjmp	.+0      	; 0x8d4 <check_zubabfrage+0x32>
     8d4:	00 00       	nop
     8d6:	88 e8       	ldi	r24, 0x88	; 136
     8d8:	93 e1       	ldi	r25, 0x13	; 19
     8da:	91 dd       	rcall	.-1246   	; 0x3fe <fuelle_getraenk>
     8dc:	86 e0       	ldi	r24, 0x06	; 6
     8de:	0e 94 de 13 	call	0x27bc	; 0x27bc <nextion_change_page>
     8e2:	2f ef       	ldi	r18, 0xFF	; 255
     8e4:	87 ea       	ldi	r24, 0xA7	; 167
     8e6:	91 e6       	ldi	r25, 0x61	; 97
     8e8:	21 50       	subi	r18, 0x01	; 1
     8ea:	80 40       	sbci	r24, 0x00	; 0
     8ec:	90 40       	sbci	r25, 0x00	; 0
     8ee:	e1 f7       	brne	.-8      	; 0x8e8 <check_zubabfrage+0x46>
     8f0:	00 c0       	rjmp	.+0      	; 0x8f2 <check_zubabfrage+0x50>
     8f2:	00 00       	nop
     8f4:	81 e0       	ldi	r24, 0x01	; 1
     8f6:	0e 94 de 13 	call	0x27bc	; 0x27bc <nextion_change_page>
     8fa:	80 91 4f 0f 	lds	r24, 0x0F4F	; 0x800f4f <aktuellesGetraenk>
     8fe:	90 91 50 0f 	lds	r25, 0x0F50	; 0x800f50 <aktuellesGetraenk+0x1>
     902:	8a cf       	rjmp	.-236    	; 0x818 <setze_startanzeige>
     904:	08 95       	ret
     906:	85 e0       	ldi	r24, 0x05	; 5
     908:	0e 94 de 13 	call	0x27bc	; 0x27bc <nextion_change_page>
     90c:	67 e1       	ldi	r22, 0x17	; 23
     90e:	73 e0       	ldi	r23, 0x03	; 3
     910:	88 e4       	ldi	r24, 0x48	; 72
     912:	93 e0       	ldi	r25, 0x03	; 3
     914:	0e 94 fd 13 	call	0x27fa	; 0x27fa <nextion_setText>
     918:	2f ef       	ldi	r18, 0xFF	; 255
     91a:	83 ed       	ldi	r24, 0xD3	; 211
     91c:	90 e3       	ldi	r25, 0x30	; 48
     91e:	21 50       	subi	r18, 0x01	; 1
     920:	80 40       	sbci	r24, 0x00	; 0
     922:	90 40       	sbci	r25, 0x00	; 0
     924:	e1 f7       	brne	.-8      	; 0x91e <check_zubabfrage+0x7c>
     926:	00 c0       	rjmp	.+0      	; 0x928 <check_zubabfrage+0x86>
     928:	00 00       	nop
     92a:	88 e8       	ldi	r24, 0x88	; 136
     92c:	93 e1       	ldi	r25, 0x13	; 19
     92e:	67 dd       	rcall	.-1330   	; 0x3fe <fuelle_getraenk>
     930:	86 e0       	ldi	r24, 0x06	; 6
     932:	0e 94 de 13 	call	0x27bc	; 0x27bc <nextion_change_page>
     936:	2f ef       	ldi	r18, 0xFF	; 255
     938:	87 ea       	ldi	r24, 0xA7	; 167
     93a:	91 e6       	ldi	r25, 0x61	; 97
     93c:	21 50       	subi	r18, 0x01	; 1
     93e:	80 40       	sbci	r24, 0x00	; 0
     940:	90 40       	sbci	r25, 0x00	; 0
     942:	e1 f7       	brne	.-8      	; 0x93c <check_zubabfrage+0x9a>
     944:	00 c0       	rjmp	.+0      	; 0x946 <check_zubabfrage+0xa4>
     946:	00 00       	nop
     948:	81 e0       	ldi	r24, 0x01	; 1
     94a:	0e 94 de 13 	call	0x27bc	; 0x27bc <nextion_change_page>
     94e:	80 91 4f 0f 	lds	r24, 0x0F4F	; 0x800f4f <aktuellesGetraenk>
     952:	90 91 50 0f 	lds	r25, 0x0F50	; 0x800f50 <aktuellesGetraenk+0x1>
     956:	60 cf       	rjmp	.-320    	; 0x818 <setze_startanzeige>
     958:	08 95       	ret
     95a:	81 e0       	ldi	r24, 0x01	; 1
     95c:	0c 94 de 13 	jmp	0x27bc	; 0x27bc <nextion_change_page>
     960:	08 95       	ret

00000962 <init_Getraenke_func>:
     962:	81 e0       	ldi	r24, 0x01	; 1
     964:	0e 94 de 13 	call	0x27bc	; 0x27bc <nextion_change_page>
     968:	80 91 4f 0f 	lds	r24, 0x0F4F	; 0x800f4f <aktuellesGetraenk>
     96c:	90 91 50 0f 	lds	r25, 0x0F50	; 0x800f50 <aktuellesGetraenk+0x1>
     970:	53 cf       	rjmp	.-346    	; 0x818 <setze_startanzeige>
     972:	08 95       	ret

00000974 <erstelle_Zutatenliste>:
     974:	2f 92       	push	r2
     976:	3f 92       	push	r3
     978:	4f 92       	push	r4
     97a:	5f 92       	push	r5
     97c:	6f 92       	push	r6
     97e:	7f 92       	push	r7
     980:	8f 92       	push	r8
     982:	9f 92       	push	r9
     984:	af 92       	push	r10
     986:	bf 92       	push	r11
     988:	cf 92       	push	r12
     98a:	df 92       	push	r13
     98c:	ef 92       	push	r14
     98e:	ff 92       	push	r15
     990:	0f 93       	push	r16
     992:	1f 93       	push	r17
     994:	cf 93       	push	r28
     996:	df 93       	push	r29
     998:	cd b7       	in	r28, 0x3d	; 61
     99a:	de b7       	in	r29, 0x3e	; 62
     99c:	c4 50       	subi	r28, 0x04	; 4
     99e:	d1 40       	sbci	r29, 0x01	; 1
     9a0:	0f b6       	in	r0, 0x3f	; 63
     9a2:	f8 94       	cli
     9a4:	de bf       	out	0x3e, r29	; 62
     9a6:	0f be       	out	0x3f, r0	; 63
     9a8:	cd bf       	out	0x3d, r28	; 61
     9aa:	2c 01       	movw	r4, r24
     9ac:	00 91 04 09 	lds	r16, 0x0904	; 0x800904 <head_zut>
     9b0:	10 91 05 09 	lds	r17, 0x0905	; 0x800905 <head_zut+0x1>
     9b4:	fe 01       	movw	r30, r28
     9b6:	31 96       	adiw	r30, 0x01	; 1
     9b8:	80 e0       	ldi	r24, 0x00	; 0
     9ba:	91 e0       	ldi	r25, 0x01	; 1
     9bc:	df 01       	movw	r26, r30
     9be:	9c 01       	movw	r18, r24
     9c0:	1d 92       	st	X+, r1
     9c2:	21 50       	subi	r18, 0x01	; 1
     9c4:	30 40       	sbci	r19, 0x00	; 0
     9c6:	e1 f7       	brne	.-8      	; 0x9c0 <erstelle_Zutatenliste+0x4c>
     9c8:	cf 5f       	subi	r28, 0xFF	; 255
     9ca:	de 4f       	sbci	r29, 0xFE	; 254
     9cc:	18 82       	st	Y, r1
     9ce:	19 82       	std	Y+1, r1	; 0x01
     9d0:	1a 82       	std	Y+2, r1	; 0x02
     9d2:	1b 82       	std	Y+3, r1	; 0x03
     9d4:	c1 50       	subi	r28, 0x01	; 1
     9d6:	d1 40       	sbci	r29, 0x01	; 1
     9d8:	e1 2c       	mov	r14, r1
     9da:	f1 2c       	mov	r15, r1
     9dc:	6f 01       	movw	r12, r30
     9de:	0f 2e       	mov	r0, r31
     9e0:	f4 e1       	ldi	r31, 0x14	; 20
     9e2:	af 2e       	mov	r10, r31
     9e4:	b1 2c       	mov	r11, r1
     9e6:	f0 2d       	mov	r31, r0
     9e8:	0f 2e       	mov	r0, r31
     9ea:	fd e2       	ldi	r31, 0x2D	; 45
     9ec:	8f 2e       	mov	r8, r31
     9ee:	91 2c       	mov	r9, r1
     9f0:	f0 2d       	mov	r31, r0
     9f2:	0f 2e       	mov	r0, r31
     9f4:	f8 e2       	ldi	r31, 0x28	; 40
     9f6:	2f 2e       	mov	r2, r31
     9f8:	31 2c       	mov	r3, r1
     9fa:	f0 2d       	mov	r31, r0
     9fc:	d8 01       	movw	r26, r16
     9fe:	13 96       	adiw	r26, 0x03	; 3
     a00:	0d 91       	ld	r16, X+
     a02:	1c 91       	ld	r17, X
     a04:	14 97       	sbiw	r26, 0x04	; 4
     a06:	f8 01       	movw	r30, r16
     a08:	82 81       	ldd	r24, Z+2	; 0x02
     a0a:	90 e0       	ldi	r25, 0x00	; 0
     a0c:	8e 15       	cp	r24, r14
     a0e:	9f 05       	cpc	r25, r15
     a10:	a9 f7       	brne	.-22     	; 0x9fc <erstelle_Zutatenliste+0x88>
     a12:	d2 01       	movw	r26, r4
     a14:	14 96       	adiw	r26, 0x04	; 4
     a16:	6d 90       	ld	r6, X+
     a18:	7c 90       	ld	r7, X
     a1a:	15 97       	sbiw	r26, 0x05	; 5
     a1c:	6e 0c       	add	r6, r14
     a1e:	7f 1c       	adc	r7, r15
     a20:	f3 01       	movw	r30, r6
     a22:	80 81       	ld	r24, Z
     a24:	88 23       	and	r24, r24
     a26:	09 f4       	brne	.+2      	; 0xa2a <erstelle_Zutatenliste+0xb6>
     a28:	4b c0       	rjmp	.+150    	; 0xac0 <erstelle_Zutatenliste+0x14c>
     a2a:	d8 01       	movw	r26, r16
     a2c:	6d 91       	ld	r22, X+
     a2e:	7c 91       	ld	r23, X
     a30:	c6 01       	movw	r24, r12
     a32:	0e 94 2a 25 	call	0x4a54	; 0x4a54 <strcat>
     a36:	80 e0       	ldi	r24, 0x00	; 0
     a38:	90 e0       	ldi	r25, 0x00	; 0
     a3a:	08 c0       	rjmp	.+16     	; 0xa4c <erstelle_Zutatenliste+0xd8>
     a3c:	f6 01       	movw	r30, r12
     a3e:	01 90       	ld	r0, Z+
     a40:	00 20       	and	r0, r0
     a42:	e9 f7       	brne	.-6      	; 0xa3e <erstelle_Zutatenliste+0xca>
     a44:	31 97       	sbiw	r30, 0x01	; 1
     a46:	91 82       	std	Z+1, r9	; 0x01
     a48:	80 82       	st	Z, r8
     a4a:	01 96       	adiw	r24, 0x01	; 1
     a4c:	f8 01       	movw	r30, r16
     a4e:	a0 81       	ld	r26, Z
     a50:	b1 81       	ldd	r27, Z+1	; 0x01
     a52:	fd 01       	movw	r30, r26
     a54:	01 90       	ld	r0, Z+
     a56:	00 20       	and	r0, r0
     a58:	e9 f7       	brne	.-6      	; 0xa54 <erstelle_Zutatenliste+0xe0>
     a5a:	31 97       	sbiw	r30, 0x01	; 1
     a5c:	ea 1b       	sub	r30, r26
     a5e:	fb 0b       	sbc	r31, r27
     a60:	95 01       	movw	r18, r10
     a62:	2e 1b       	sub	r18, r30
     a64:	3f 0b       	sbc	r19, r31
     a66:	82 17       	cp	r24, r18
     a68:	93 07       	cpc	r25, r19
     a6a:	40 f3       	brcs	.-48     	; 0xa3c <erstelle_Zutatenliste+0xc8>
     a6c:	f6 01       	movw	r30, r12
     a6e:	01 90       	ld	r0, Z+
     a70:	00 20       	and	r0, r0
     a72:	e9 f7       	brne	.-6      	; 0xa6e <erstelle_Zutatenliste+0xfa>
     a74:	31 97       	sbiw	r30, 0x01	; 1
     a76:	31 82       	std	Z+1, r3	; 0x01
     a78:	20 82       	st	Z, r2
     a7a:	d3 01       	movw	r26, r6
     a7c:	8c 91       	ld	r24, X
     a7e:	4a e0       	ldi	r20, 0x0A	; 10
     a80:	be 01       	movw	r22, r28
     a82:	6f 5f       	subi	r22, 0xFF	; 255
     a84:	7e 4f       	sbci	r23, 0xFE	; 254
     a86:	90 e0       	ldi	r25, 0x00	; 0
     a88:	0e 94 63 25 	call	0x4ac6	; 0x4ac6 <__itoa_ncheck>
     a8c:	be 01       	movw	r22, r28
     a8e:	6f 5f       	subi	r22, 0xFF	; 255
     a90:	7e 4f       	sbci	r23, 0xFE	; 254
     a92:	c6 01       	movw	r24, r12
     a94:	0e 94 2a 25 	call	0x4a54	; 0x4a54 <strcat>
     a98:	f6 01       	movw	r30, r12
     a9a:	01 90       	ld	r0, Z+
     a9c:	00 20       	and	r0, r0
     a9e:	e9 f7       	brne	.-6      	; 0xa9a <erstelle_Zutatenliste+0x126>
     aa0:	31 97       	sbiw	r30, 0x01	; 1
     aa2:	25 e2       	ldi	r18, 0x25	; 37
     aa4:	39 e2       	ldi	r19, 0x29	; 41
     aa6:	31 83       	std	Z+1, r19	; 0x01
     aa8:	20 83       	st	Z, r18
     aaa:	12 82       	std	Z+2, r1	; 0x02
     aac:	f6 01       	movw	r30, r12
     aae:	01 90       	ld	r0, Z+
     ab0:	00 20       	and	r0, r0
     ab2:	e9 f7       	brne	.-6      	; 0xaae <erstelle_Zutatenliste+0x13a>
     ab4:	31 97       	sbiw	r30, 0x01	; 1
     ab6:	8c e5       	ldi	r24, 0x5C	; 92
     ab8:	92 e7       	ldi	r25, 0x72	; 114
     aba:	91 83       	std	Z+1, r25	; 0x01
     abc:	80 83       	st	Z, r24
     abe:	12 82       	std	Z+2, r1	; 0x02
     ac0:	d8 01       	movw	r26, r16
     ac2:	13 96       	adiw	r26, 0x03	; 3
     ac4:	0d 91       	ld	r16, X+
     ac6:	1c 91       	ld	r17, X
     ac8:	14 97       	sbiw	r26, 0x04	; 4
     aca:	bf ef       	ldi	r27, 0xFF	; 255
     acc:	eb 1a       	sub	r14, r27
     ace:	fb 0a       	sbc	r15, r27
     ad0:	ec e0       	ldi	r30, 0x0C	; 12
     ad2:	ee 16       	cp	r14, r30
     ad4:	f1 04       	cpc	r15, r1
     ad6:	09 f0       	breq	.+2      	; 0xada <erstelle_Zutatenliste+0x166>
     ad8:	91 cf       	rjmp	.-222    	; 0x9fc <erstelle_Zutatenliste+0x88>
     ada:	be 01       	movw	r22, r28
     adc:	6f 5f       	subi	r22, 0xFF	; 255
     ade:	7f 4f       	sbci	r23, 0xFF	; 255
     ae0:	83 e5       	ldi	r24, 0x53	; 83
     ae2:	93 e0       	ldi	r25, 0x03	; 3
     ae4:	0e 94 fd 13 	call	0x27fa	; 0x27fa <nextion_setText>
     ae8:	cc 5f       	subi	r28, 0xFC	; 252
     aea:	de 4f       	sbci	r29, 0xFE	; 254
     aec:	0f b6       	in	r0, 0x3f	; 63
     aee:	f8 94       	cli
     af0:	de bf       	out	0x3e, r29	; 62
     af2:	0f be       	out	0x3f, r0	; 63
     af4:	cd bf       	out	0x3d, r28	; 61
     af6:	df 91       	pop	r29
     af8:	cf 91       	pop	r28
     afa:	1f 91       	pop	r17
     afc:	0f 91       	pop	r16
     afe:	ff 90       	pop	r15
     b00:	ef 90       	pop	r14
     b02:	df 90       	pop	r13
     b04:	cf 90       	pop	r12
     b06:	bf 90       	pop	r11
     b08:	af 90       	pop	r10
     b0a:	9f 90       	pop	r9
     b0c:	8f 90       	pop	r8
     b0e:	7f 90       	pop	r7
     b10:	6f 90       	pop	r6
     b12:	5f 90       	pop	r5
     b14:	4f 90       	pop	r4
     b16:	3f 90       	pop	r3
     b18:	2f 90       	pop	r2
     b1a:	08 95       	ret

00000b1c <compare_string>:
     b1c:	dc 01       	movw	r26, r24
     b1e:	9c 91       	ld	r25, X
     b20:	fb 01       	movw	r30, r22
     b22:	80 81       	ld	r24, Z
     b24:	98 13       	cpse	r25, r24
     b26:	0b c0       	rjmp	.+22     	; 0xb3e <compare_string+0x22>
     b28:	99 23       	and	r25, r25
     b2a:	91 f0       	breq	.+36     	; 0xb50 <compare_string+0x34>
     b2c:	11 96       	adiw	r26, 0x01	; 1
     b2e:	31 96       	adiw	r30, 0x01	; 1
     b30:	02 c0       	rjmp	.+4      	; 0xb36 <compare_string+0x1a>
     b32:	99 23       	and	r25, r25
     b34:	79 f0       	breq	.+30     	; 0xb54 <compare_string+0x38>
     b36:	9d 91       	ld	r25, X+
     b38:	81 91       	ld	r24, Z+
     b3a:	98 17       	cp	r25, r24
     b3c:	d1 f3       	breq	.-12     	; 0xb32 <compare_string+0x16>
     b3e:	91 11       	cpse	r25, r1
     b40:	0b c0       	rjmp	.+22     	; 0xb58 <compare_string+0x3c>
     b42:	91 e0       	ldi	r25, 0x01	; 1
     b44:	81 11       	cpse	r24, r1
     b46:	01 c0       	rjmp	.+2      	; 0xb4a <compare_string+0x2e>
     b48:	90 e0       	ldi	r25, 0x00	; 0
     b4a:	89 2f       	mov	r24, r25
     b4c:	81 95       	neg	r24
     b4e:	08 95       	ret
     b50:	80 e0       	ldi	r24, 0x00	; 0
     b52:	08 95       	ret
     b54:	80 e0       	ldi	r24, 0x00	; 0
     b56:	08 95       	ret
     b58:	8f ef       	ldi	r24, 0xFF	; 255
     b5a:	08 95       	ret

00000b5c <pruefe_kopf>:
     b5c:	df df       	rcall	.-66     	; 0xb1c <compare_string>
     b5e:	91 e0       	ldi	r25, 0x01	; 1
     b60:	81 11       	cpse	r24, r1
     b62:	90 e0       	ldi	r25, 0x00	; 0
     b64:	89 2f       	mov	r24, r25
     b66:	08 95       	ret

00000b68 <lese_textfile_in_getraenk>:
     b68:	ef 92       	push	r14
     b6a:	ff 92       	push	r15
     b6c:	0f 93       	push	r16
     b6e:	1f 93       	push	r17
     b70:	cf 93       	push	r28
     b72:	df 93       	push	r29
     b74:	cd b7       	in	r28, 0x3d	; 61
     b76:	de b7       	in	r29, 0x3e	; 62
     b78:	6b 97       	sbiw	r28, 0x1b	; 27
     b7a:	0f b6       	in	r0, 0x3f	; 63
     b7c:	f8 94       	cli
     b7e:	de bf       	out	0x3e, r29	; 62
     b80:	0f be       	out	0x3f, r0	; 63
     b82:	cd bf       	out	0x3d, r28	; 61
     b84:	4a e0       	ldi	r20, 0x0A	; 10
     b86:	8e 01       	movw	r16, r28
     b88:	0f 5f       	subi	r16, 0xFF	; 255
     b8a:	1f 4f       	sbci	r17, 0xFF	; 255
     b8c:	b8 01       	movw	r22, r16
     b8e:	90 e0       	ldi	r25, 0x00	; 0
     b90:	0e 94 63 25 	call	0x4ac6	; 0x4ac6 <__itoa_ncheck>
     b94:	d8 01       	movw	r26, r16
     b96:	0d 90       	ld	r0, X+
     b98:	00 20       	and	r0, r0
     b9a:	e9 f7       	brne	.-6      	; 0xb96 <lese_textfile_in_getraenk+0x2e>
     b9c:	11 97       	sbiw	r26, 0x01	; 1
     b9e:	85 e0       	ldi	r24, 0x05	; 5
     ba0:	e0 e6       	ldi	r30, 0x60	; 96
     ba2:	f3 e0       	ldi	r31, 0x03	; 3
     ba4:	01 90       	ld	r0, Z+
     ba6:	0d 92       	st	X+, r0
     ba8:	8a 95       	dec	r24
     baa:	e1 f7       	brne	.-8      	; 0xba4 <lese_textfile_in_getraenk+0x3c>
     bac:	b8 01       	movw	r22, r16
     bae:	80 e0       	ldi	r24, 0x00	; 0
     bb0:	0e 94 24 1b 	call	0x3648	; 0x3648 <readFile>
     bb4:	87 e0       	ldi	r24, 0x07	; 7
     bb6:	ee e7       	ldi	r30, 0x7E	; 126
     bb8:	f3 e0       	ldi	r31, 0x03	; 3
     bba:	de 01       	movw	r26, r28
     bbc:	55 96       	adiw	r26, 0x15	; 21
     bbe:	01 90       	ld	r0, Z+
     bc0:	0d 92       	st	X+, r0
     bc2:	8a 95       	dec	r24
     bc4:	e1 f7       	brne	.-8      	; 0xbbe <lese_textfile_in_getraenk+0x56>
     bc6:	be 01       	movw	r22, r28
     bc8:	6b 5e       	subi	r22, 0xEB	; 235
     bca:	7f 4f       	sbci	r23, 0xFF	; 255
     bcc:	83 e1       	ldi	r24, 0x13	; 19
     bce:	9b e0       	ldi	r25, 0x0B	; 11
     bd0:	0e 94 20 25 	call	0x4a40	; 0x4a40 <strtok>
     bd4:	8c 01       	movw	r16, r24
     bd6:	89 2b       	or	r24, r25
     bd8:	09 f4       	brne	.+2      	; 0xbdc <lese_textfile_in_getraenk+0x74>
     bda:	76 c0       	rjmp	.+236    	; 0xcc8 <lese_textfile_in_getraenk+0x160>
     bdc:	65 e6       	ldi	r22, 0x65	; 101
     bde:	73 e0       	ldi	r23, 0x03	; 3
     be0:	c8 01       	movw	r24, r16
     be2:	bc df       	rcall	.-136    	; 0xb5c <pruefe_kopf>
     be4:	88 23       	and	r24, r24
     be6:	09 f4       	brne	.+2      	; 0xbea <lese_textfile_in_getraenk+0x82>
     be8:	68 c0       	rjmp	.+208    	; 0xcba <lese_textfile_in_getraenk+0x152>
     bea:	be 01       	movw	r22, r28
     bec:	6b 5e       	subi	r22, 0xEB	; 235
     bee:	7f 4f       	sbci	r23, 0xFF	; 255
     bf0:	80 e0       	ldi	r24, 0x00	; 0
     bf2:	90 e0       	ldi	r25, 0x00	; 0
     bf4:	0e 94 20 25 	call	0x4a40	; 0x4a40 <strtok>
     bf8:	8c 01       	movw	r16, r24
     bfa:	e0 91 4f 0f 	lds	r30, 0x0F4F	; 0x800f4f <aktuellesGetraenk>
     bfe:	f0 91 50 0f 	lds	r31, 0x0F50	; 0x800f50 <aktuellesGetraenk+0x1>
     c02:	bc 01       	movw	r22, r24
     c04:	80 81       	ld	r24, Z
     c06:	91 81       	ldd	r25, Z+1	; 0x01
     c08:	0e 94 35 25 	call	0x4a6a	; 0x4a6a <strcpy>
     c0c:	6a e6       	ldi	r22, 0x6A	; 106
     c0e:	73 e0       	ldi	r23, 0x03	; 3
     c10:	c8 01       	movw	r24, r16
     c12:	a4 df       	rcall	.-184    	; 0xb5c <pruefe_kopf>
     c14:	88 23       	and	r24, r24
     c16:	11 f1       	breq	.+68     	; 0xc5c <lese_textfile_in_getraenk+0xf4>
     c18:	00 e0       	ldi	r16, 0x00	; 0
     c1a:	10 e0       	ldi	r17, 0x00	; 0
     c1c:	be 01       	movw	r22, r28
     c1e:	6b 5e       	subi	r22, 0xEB	; 235
     c20:	7f 4f       	sbci	r23, 0xFF	; 255
     c22:	80 e0       	ldi	r24, 0x00	; 0
     c24:	90 e0       	ldi	r25, 0x00	; 0
     c26:	0e 94 20 25 	call	0x4a40	; 0x4a40 <strtok>
     c2a:	e0 91 4f 0f 	lds	r30, 0x0F4F	; 0x800f4f <aktuellesGetraenk>
     c2e:	f0 91 50 0f 	lds	r31, 0x0F50	; 0x800f50 <aktuellesGetraenk+0x1>
     c32:	e4 80       	ldd	r14, Z+4	; 0x04
     c34:	f5 80       	ldd	r15, Z+5	; 0x05
     c36:	e0 0e       	add	r14, r16
     c38:	f1 1e       	adc	r15, r17
     c3a:	0e 94 03 25 	call	0x4a06	; 0x4a06 <atoi>
     c3e:	f7 01       	movw	r30, r14
     c40:	80 83       	st	Z, r24
     c42:	0f 5f       	subi	r16, 0xFF	; 255
     c44:	1f 4f       	sbci	r17, 0xFF	; 255
     c46:	0c 30       	cpi	r16, 0x0C	; 12
     c48:	11 05       	cpc	r17, r1
     c4a:	41 f7       	brne	.-48     	; 0xc1c <lese_textfile_in_getraenk+0xb4>
     c4c:	be 01       	movw	r22, r28
     c4e:	6b 5e       	subi	r22, 0xEB	; 235
     c50:	7f 4f       	sbci	r23, 0xFF	; 255
     c52:	80 e0       	ldi	r24, 0x00	; 0
     c54:	90 e0       	ldi	r25, 0x00	; 0
     c56:	0e 94 20 25 	call	0x4a40	; 0x4a40 <strtok>
     c5a:	8c 01       	movw	r16, r24
     c5c:	61 e7       	ldi	r22, 0x71	; 113
     c5e:	73 e0       	ldi	r23, 0x03	; 3
     c60:	c8 01       	movw	r24, r16
     c62:	7c df       	rcall	.-264    	; 0xb5c <pruefe_kopf>
     c64:	88 23       	and	r24, r24
     c66:	41 f0       	breq	.+16     	; 0xc78 <lese_textfile_in_getraenk+0x110>
     c68:	be 01       	movw	r22, r28
     c6a:	6b 5e       	subi	r22, 0xEB	; 235
     c6c:	7f 4f       	sbci	r23, 0xFF	; 255
     c6e:	80 e0       	ldi	r24, 0x00	; 0
     c70:	90 e0       	ldi	r25, 0x00	; 0
     c72:	0e 94 20 25 	call	0x4a40	; 0x4a40 <strtok>
     c76:	8c 01       	movw	r16, r24
     c78:	69 e7       	ldi	r22, 0x79	; 121
     c7a:	73 e0       	ldi	r23, 0x03	; 3
     c7c:	c8 01       	movw	r24, r16
     c7e:	6e df       	rcall	.-292    	; 0xb5c <pruefe_kopf>
     c80:	88 23       	and	r24, r24
     c82:	79 f0       	breq	.+30     	; 0xca2 <lese_textfile_in_getraenk+0x13a>
     c84:	be 01       	movw	r22, r28
     c86:	6b 5e       	subi	r22, 0xEB	; 235
     c88:	7f 4f       	sbci	r23, 0xFF	; 255
     c8a:	80 e0       	ldi	r24, 0x00	; 0
     c8c:	90 e0       	ldi	r25, 0x00	; 0
     c8e:	0e 94 20 25 	call	0x4a40	; 0x4a40 <strtok>
     c92:	00 91 4f 0f 	lds	r16, 0x0F4F	; 0x800f4f <aktuellesGetraenk>
     c96:	10 91 50 0f 	lds	r17, 0x0F50	; 0x800f50 <aktuellesGetraenk+0x1>
     c9a:	0e 94 03 25 	call	0x4a06	; 0x4a06 <atoi>
     c9e:	f8 01       	movw	r30, r16
     ca0:	86 83       	std	Z+6, r24	; 0x06
     ca2:	be 01       	movw	r22, r28
     ca4:	6b 5e       	subi	r22, 0xEB	; 235
     ca6:	7f 4f       	sbci	r23, 0xFF	; 255
     ca8:	80 e0       	ldi	r24, 0x00	; 0
     caa:	90 e0       	ldi	r25, 0x00	; 0
     cac:	0e 94 20 25 	call	0x4a40	; 0x4a40 <strtok>
     cb0:	8c 01       	movw	r16, r24
     cb2:	89 2b       	or	r24, r25
     cb4:	09 f0       	breq	.+2      	; 0xcb8 <lese_textfile_in_getraenk+0x150>
     cb6:	92 cf       	rjmp	.-220    	; 0xbdc <lese_textfile_in_getraenk+0x74>
     cb8:	07 c0       	rjmp	.+14     	; 0xcc8 <lese_textfile_in_getraenk+0x160>
     cba:	6a e6       	ldi	r22, 0x6A	; 106
     cbc:	73 e0       	ldi	r23, 0x03	; 3
     cbe:	c8 01       	movw	r24, r16
     cc0:	4d df       	rcall	.-358    	; 0xb5c <pruefe_kopf>
     cc2:	81 11       	cpse	r24, r1
     cc4:	a9 cf       	rjmp	.-174    	; 0xc18 <lese_textfile_in_getraenk+0xb0>
     cc6:	ca cf       	rjmp	.-108    	; 0xc5c <lese_textfile_in_getraenk+0xf4>
     cc8:	6b 96       	adiw	r28, 0x1b	; 27
     cca:	0f b6       	in	r0, 0x3f	; 63
     ccc:	f8 94       	cli
     cce:	de bf       	out	0x3e, r29	; 62
     cd0:	0f be       	out	0x3f, r0	; 63
     cd2:	cd bf       	out	0x3d, r28	; 61
     cd4:	df 91       	pop	r29
     cd6:	cf 91       	pop	r28
     cd8:	1f 91       	pop	r17
     cda:	0f 91       	pop	r16
     cdc:	ff 90       	pop	r15
     cde:	ef 90       	pop	r14
     ce0:	08 95       	ret

00000ce2 <check_reinanzeige2>:
     ce2:	1f 93       	push	r17
     ce4:	cf 93       	push	r28
     ce6:	df 93       	push	r29
     ce8:	81 30       	cpi	r24, 0x01	; 1
     cea:	19 f0       	breq	.+6      	; 0xcf2 <check_reinanzeige2+0x10>
     cec:	82 30       	cpi	r24, 0x02	; 2
     cee:	29 f0       	breq	.+10     	; 0xcfa <check_reinanzeige2+0x18>
     cf0:	36 c0       	rjmp	.+108    	; 0xd5e <check_reinanzeige2+0x7c>
     cf2:	87 e0       	ldi	r24, 0x07	; 7
     cf4:	0e 94 de 13 	call	0x27bc	; 0x27bc <nextion_change_page>
     cf8:	32 c0       	rjmp	.+100    	; 0xd5e <check_reinanzeige2+0x7c>
     cfa:	8c e0       	ldi	r24, 0x0C	; 12
     cfc:	0e 94 de 13 	call	0x27bc	; 0x27bc <nextion_change_page>
     d00:	10 e0       	ldi	r17, 0x00	; 0
     d02:	80 91 49 0f 	lds	r24, 0x0F49	; 0x800f49 <stop>
     d06:	81 11       	cpse	r24, r1
     d08:	11 c0       	rjmp	.+34     	; 0xd2c <check_reinanzeige2+0x4a>
     d0a:	81 2f       	mov	r24, r17
     d0c:	0a db       	rcall	.-2540   	; 0x322 <schalte_pumpe_ein>
     d0e:	c0 ed       	ldi	r28, 0xD0	; 208
     d10:	d7 e0       	ldi	r29, 0x07	; 7
     d12:	0e 94 a4 12 	call	0x2548	; 0x2548 <check_Communication_Input_UART_1>
     d16:	81 11       	cpse	r24, r1
     d18:	0e 94 2d 13 	call	0x265a	; 0x265a <proceed_Communication_INPUT_UART_1>
     d1c:	8f e9       	ldi	r24, 0x9F	; 159
     d1e:	9f e0       	ldi	r25, 0x0F	; 15
     d20:	01 97       	sbiw	r24, 0x01	; 1
     d22:	f1 f7       	brne	.-4      	; 0xd20 <check_reinanzeige2+0x3e>
     d24:	00 c0       	rjmp	.+0      	; 0xd26 <check_reinanzeige2+0x44>
     d26:	00 00       	nop
     d28:	21 97       	sbiw	r28, 0x01	; 1
     d2a:	99 f7       	brne	.-26     	; 0xd12 <check_reinanzeige2+0x30>
     d2c:	81 2f       	mov	r24, r17
     d2e:	30 db       	rcall	.-2464   	; 0x390 <schalte_pumpe_aus>
     d30:	1f 5f       	subi	r17, 0xFF	; 255
     d32:	1c 30       	cpi	r17, 0x0C	; 12
     d34:	31 f7       	brne	.-52     	; 0xd02 <check_reinanzeige2+0x20>
     d36:	10 92 49 0f 	sts	0x0F49, r1	; 0x800f49 <stop>
     d3a:	81 e0       	ldi	r24, 0x01	; 1
     d3c:	0e 94 de 13 	call	0x27bc	; 0x27bc <nextion_change_page>
     d40:	e0 91 d6 07 	lds	r30, 0x07D6	; 0x8007d6 <tail_getraenk_file>
     d44:	f0 91 d7 07 	lds	r31, 0x07D7	; 0x8007d7 <tail_getraenk_file+0x1>
     d48:	f0 93 00 09 	sts	0x0900, r31	; 0x800900 <aktuellesGetraenk_file+0x1>
     d4c:	e0 93 ff 08 	sts	0x08FF, r30	; 0x8008ff <aktuellesGetraenk_file>
     d50:	80 81       	ld	r24, Z
     d52:	0a df       	rcall	.-492    	; 0xb68 <lese_textfile_in_getraenk>
     d54:	80 91 4f 0f 	lds	r24, 0x0F4F	; 0x800f4f <aktuellesGetraenk>
     d58:	90 91 50 0f 	lds	r25, 0x0F50	; 0x800f50 <aktuellesGetraenk+0x1>
     d5c:	5d dd       	rcall	.-1350   	; 0x818 <setze_startanzeige>
     d5e:	df 91       	pop	r29
     d60:	cf 91       	pop	r28
     d62:	1f 91       	pop	r17
     d64:	08 95       	ret

00000d66 <check_erstanzeige1>:
     d66:	90 e0       	ldi	r25, 0x00	; 0
     d68:	fc 01       	movw	r30, r24
     d6a:	31 97       	sbiw	r30, 0x01	; 1
     d6c:	ef 31       	cpi	r30, 0x1F	; 31
     d6e:	f1 05       	cpc	r31, r1
     d70:	08 f0       	brcs	.+2      	; 0xd74 <check_erstanzeige1+0xe>
     d72:	e0 c2       	rjmp	.+1472   	; 0x1334 <check_erstanzeige1+0x5ce>
     d74:	88 27       	eor	r24, r24
     d76:	e6 57       	subi	r30, 0x76	; 118
     d78:	ff 4f       	sbci	r31, 0xFF	; 255
     d7a:	8f 4f       	sbci	r24, 0xFF	; 255
     d7c:	0c 94 a7 23 	jmp	0x474e	; 0x474e <__tablejump2__>
     d80:	80 91 03 09 	lds	r24, 0x0903	; 0x800903 <Grossschreib>
     d84:	81 30       	cpi	r24, 0x01	; 1
     d86:	41 f4       	brne	.+16     	; 0xd98 <check_erstanzeige1+0x32>
     d88:	e0 91 1d 0d 	lds	r30, 0x0D1D	; 0x800d1d <counter>
     d8c:	f0 e0       	ldi	r31, 0x00	; 0
     d8e:	ed 5d       	subi	r30, 0xDD	; 221
     d90:	f2 4f       	sbci	r31, 0xF2	; 242
     d92:	81 e4       	ldi	r24, 0x41	; 65
     d94:	80 83       	st	Z, r24
     d96:	07 c0       	rjmp	.+14     	; 0xda6 <check_erstanzeige1+0x40>
     d98:	e0 91 1d 0d 	lds	r30, 0x0D1D	; 0x800d1d <counter>
     d9c:	f0 e0       	ldi	r31, 0x00	; 0
     d9e:	ed 5d       	subi	r30, 0xDD	; 221
     da0:	f2 4f       	sbci	r31, 0xF2	; 242
     da2:	81 e6       	ldi	r24, 0x61	; 97
     da4:	80 83       	st	Z, r24
     da6:	80 91 1d 0d 	lds	r24, 0x0D1D	; 0x800d1d <counter>
     daa:	8f 5f       	subi	r24, 0xFF	; 255
     dac:	80 93 1d 0d 	sts	0x0D1D, r24	; 0x800d1d <counter>
     db0:	c1 c2       	rjmp	.+1410   	; 0x1334 <check_erstanzeige1+0x5ce>
     db2:	80 91 03 09 	lds	r24, 0x0903	; 0x800903 <Grossschreib>
     db6:	81 30       	cpi	r24, 0x01	; 1
     db8:	41 f4       	brne	.+16     	; 0xdca <check_erstanzeige1+0x64>
     dba:	e0 91 1d 0d 	lds	r30, 0x0D1D	; 0x800d1d <counter>
     dbe:	f0 e0       	ldi	r31, 0x00	; 0
     dc0:	ed 5d       	subi	r30, 0xDD	; 221
     dc2:	f2 4f       	sbci	r31, 0xF2	; 242
     dc4:	82 e4       	ldi	r24, 0x42	; 66
     dc6:	80 83       	st	Z, r24
     dc8:	07 c0       	rjmp	.+14     	; 0xdd8 <check_erstanzeige1+0x72>
     dca:	e0 91 1d 0d 	lds	r30, 0x0D1D	; 0x800d1d <counter>
     dce:	f0 e0       	ldi	r31, 0x00	; 0
     dd0:	ed 5d       	subi	r30, 0xDD	; 221
     dd2:	f2 4f       	sbci	r31, 0xF2	; 242
     dd4:	82 e6       	ldi	r24, 0x62	; 98
     dd6:	80 83       	st	Z, r24
     dd8:	80 91 1d 0d 	lds	r24, 0x0D1D	; 0x800d1d <counter>
     ddc:	8f 5f       	subi	r24, 0xFF	; 255
     dde:	80 93 1d 0d 	sts	0x0D1D, r24	; 0x800d1d <counter>
     de2:	a8 c2       	rjmp	.+1360   	; 0x1334 <check_erstanzeige1+0x5ce>
     de4:	80 91 03 09 	lds	r24, 0x0903	; 0x800903 <Grossschreib>
     de8:	81 30       	cpi	r24, 0x01	; 1
     dea:	41 f4       	brne	.+16     	; 0xdfc <check_erstanzeige1+0x96>
     dec:	e0 91 1d 0d 	lds	r30, 0x0D1D	; 0x800d1d <counter>
     df0:	f0 e0       	ldi	r31, 0x00	; 0
     df2:	ed 5d       	subi	r30, 0xDD	; 221
     df4:	f2 4f       	sbci	r31, 0xF2	; 242
     df6:	83 e4       	ldi	r24, 0x43	; 67
     df8:	80 83       	st	Z, r24
     dfa:	07 c0       	rjmp	.+14     	; 0xe0a <check_erstanzeige1+0xa4>
     dfc:	e0 91 1d 0d 	lds	r30, 0x0D1D	; 0x800d1d <counter>
     e00:	f0 e0       	ldi	r31, 0x00	; 0
     e02:	ed 5d       	subi	r30, 0xDD	; 221
     e04:	f2 4f       	sbci	r31, 0xF2	; 242
     e06:	83 e4       	ldi	r24, 0x43	; 67
     e08:	80 83       	st	Z, r24
     e0a:	80 91 1d 0d 	lds	r24, 0x0D1D	; 0x800d1d <counter>
     e0e:	8f 5f       	subi	r24, 0xFF	; 255
     e10:	80 93 1d 0d 	sts	0x0D1D, r24	; 0x800d1d <counter>
     e14:	8f c2       	rjmp	.+1310   	; 0x1334 <check_erstanzeige1+0x5ce>
     e16:	80 91 03 09 	lds	r24, 0x0903	; 0x800903 <Grossschreib>
     e1a:	81 30       	cpi	r24, 0x01	; 1
     e1c:	41 f4       	brne	.+16     	; 0xe2e <check_erstanzeige1+0xc8>
     e1e:	e0 91 1d 0d 	lds	r30, 0x0D1D	; 0x800d1d <counter>
     e22:	f0 e0       	ldi	r31, 0x00	; 0
     e24:	ed 5d       	subi	r30, 0xDD	; 221
     e26:	f2 4f       	sbci	r31, 0xF2	; 242
     e28:	84 e4       	ldi	r24, 0x44	; 68
     e2a:	80 83       	st	Z, r24
     e2c:	07 c0       	rjmp	.+14     	; 0xe3c <check_erstanzeige1+0xd6>
     e2e:	e0 91 1d 0d 	lds	r30, 0x0D1D	; 0x800d1d <counter>
     e32:	f0 e0       	ldi	r31, 0x00	; 0
     e34:	ed 5d       	subi	r30, 0xDD	; 221
     e36:	f2 4f       	sbci	r31, 0xF2	; 242
     e38:	84 e6       	ldi	r24, 0x64	; 100
     e3a:	80 83       	st	Z, r24
     e3c:	80 91 1d 0d 	lds	r24, 0x0D1D	; 0x800d1d <counter>
     e40:	8f 5f       	subi	r24, 0xFF	; 255
     e42:	80 93 1d 0d 	sts	0x0D1D, r24	; 0x800d1d <counter>
     e46:	76 c2       	rjmp	.+1260   	; 0x1334 <check_erstanzeige1+0x5ce>
     e48:	80 91 03 09 	lds	r24, 0x0903	; 0x800903 <Grossschreib>
     e4c:	81 30       	cpi	r24, 0x01	; 1
     e4e:	41 f4       	brne	.+16     	; 0xe60 <check_erstanzeige1+0xfa>
     e50:	e0 91 1d 0d 	lds	r30, 0x0D1D	; 0x800d1d <counter>
     e54:	f0 e0       	ldi	r31, 0x00	; 0
     e56:	ed 5d       	subi	r30, 0xDD	; 221
     e58:	f2 4f       	sbci	r31, 0xF2	; 242
     e5a:	85 e4       	ldi	r24, 0x45	; 69
     e5c:	80 83       	st	Z, r24
     e5e:	07 c0       	rjmp	.+14     	; 0xe6e <check_erstanzeige1+0x108>
     e60:	e0 91 1d 0d 	lds	r30, 0x0D1D	; 0x800d1d <counter>
     e64:	f0 e0       	ldi	r31, 0x00	; 0
     e66:	ed 5d       	subi	r30, 0xDD	; 221
     e68:	f2 4f       	sbci	r31, 0xF2	; 242
     e6a:	85 e6       	ldi	r24, 0x65	; 101
     e6c:	80 83       	st	Z, r24
     e6e:	80 91 1d 0d 	lds	r24, 0x0D1D	; 0x800d1d <counter>
     e72:	8f 5f       	subi	r24, 0xFF	; 255
     e74:	80 93 1d 0d 	sts	0x0D1D, r24	; 0x800d1d <counter>
     e78:	5d c2       	rjmp	.+1210   	; 0x1334 <check_erstanzeige1+0x5ce>
     e7a:	80 91 03 09 	lds	r24, 0x0903	; 0x800903 <Grossschreib>
     e7e:	81 30       	cpi	r24, 0x01	; 1
     e80:	41 f4       	brne	.+16     	; 0xe92 <check_erstanzeige1+0x12c>
     e82:	e0 91 1d 0d 	lds	r30, 0x0D1D	; 0x800d1d <counter>
     e86:	f0 e0       	ldi	r31, 0x00	; 0
     e88:	ed 5d       	subi	r30, 0xDD	; 221
     e8a:	f2 4f       	sbci	r31, 0xF2	; 242
     e8c:	86 e4       	ldi	r24, 0x46	; 70
     e8e:	80 83       	st	Z, r24
     e90:	07 c0       	rjmp	.+14     	; 0xea0 <check_erstanzeige1+0x13a>
     e92:	e0 91 1d 0d 	lds	r30, 0x0D1D	; 0x800d1d <counter>
     e96:	f0 e0       	ldi	r31, 0x00	; 0
     e98:	ed 5d       	subi	r30, 0xDD	; 221
     e9a:	f2 4f       	sbci	r31, 0xF2	; 242
     e9c:	86 e6       	ldi	r24, 0x66	; 102
     e9e:	80 83       	st	Z, r24
     ea0:	80 91 1d 0d 	lds	r24, 0x0D1D	; 0x800d1d <counter>
     ea4:	8f 5f       	subi	r24, 0xFF	; 255
     ea6:	80 93 1d 0d 	sts	0x0D1D, r24	; 0x800d1d <counter>
     eaa:	44 c2       	rjmp	.+1160   	; 0x1334 <check_erstanzeige1+0x5ce>
     eac:	80 91 03 09 	lds	r24, 0x0903	; 0x800903 <Grossschreib>
     eb0:	81 30       	cpi	r24, 0x01	; 1
     eb2:	41 f4       	brne	.+16     	; 0xec4 <check_erstanzeige1+0x15e>
     eb4:	e0 91 1d 0d 	lds	r30, 0x0D1D	; 0x800d1d <counter>
     eb8:	f0 e0       	ldi	r31, 0x00	; 0
     eba:	ed 5d       	subi	r30, 0xDD	; 221
     ebc:	f2 4f       	sbci	r31, 0xF2	; 242
     ebe:	87 e4       	ldi	r24, 0x47	; 71
     ec0:	80 83       	st	Z, r24
     ec2:	07 c0       	rjmp	.+14     	; 0xed2 <check_erstanzeige1+0x16c>
     ec4:	e0 91 1d 0d 	lds	r30, 0x0D1D	; 0x800d1d <counter>
     ec8:	f0 e0       	ldi	r31, 0x00	; 0
     eca:	ed 5d       	subi	r30, 0xDD	; 221
     ecc:	f2 4f       	sbci	r31, 0xF2	; 242
     ece:	87 e6       	ldi	r24, 0x67	; 103
     ed0:	80 83       	st	Z, r24
     ed2:	80 91 1d 0d 	lds	r24, 0x0D1D	; 0x800d1d <counter>
     ed6:	8f 5f       	subi	r24, 0xFF	; 255
     ed8:	80 93 1d 0d 	sts	0x0D1D, r24	; 0x800d1d <counter>
     edc:	2b c2       	rjmp	.+1110   	; 0x1334 <check_erstanzeige1+0x5ce>
     ede:	80 91 03 09 	lds	r24, 0x0903	; 0x800903 <Grossschreib>
     ee2:	81 30       	cpi	r24, 0x01	; 1
     ee4:	41 f4       	brne	.+16     	; 0xef6 <check_erstanzeige1+0x190>
     ee6:	e0 91 1d 0d 	lds	r30, 0x0D1D	; 0x800d1d <counter>
     eea:	f0 e0       	ldi	r31, 0x00	; 0
     eec:	ed 5d       	subi	r30, 0xDD	; 221
     eee:	f2 4f       	sbci	r31, 0xF2	; 242
     ef0:	88 e4       	ldi	r24, 0x48	; 72
     ef2:	80 83       	st	Z, r24
     ef4:	07 c0       	rjmp	.+14     	; 0xf04 <check_erstanzeige1+0x19e>
     ef6:	e0 91 1d 0d 	lds	r30, 0x0D1D	; 0x800d1d <counter>
     efa:	f0 e0       	ldi	r31, 0x00	; 0
     efc:	ed 5d       	subi	r30, 0xDD	; 221
     efe:	f2 4f       	sbci	r31, 0xF2	; 242
     f00:	88 e6       	ldi	r24, 0x68	; 104
     f02:	80 83       	st	Z, r24
     f04:	80 91 1d 0d 	lds	r24, 0x0D1D	; 0x800d1d <counter>
     f08:	8f 5f       	subi	r24, 0xFF	; 255
     f0a:	80 93 1d 0d 	sts	0x0D1D, r24	; 0x800d1d <counter>
     f0e:	12 c2       	rjmp	.+1060   	; 0x1334 <check_erstanzeige1+0x5ce>
     f10:	80 91 03 09 	lds	r24, 0x0903	; 0x800903 <Grossschreib>
     f14:	81 30       	cpi	r24, 0x01	; 1
     f16:	41 f4       	brne	.+16     	; 0xf28 <check_erstanzeige1+0x1c2>
     f18:	e0 91 1d 0d 	lds	r30, 0x0D1D	; 0x800d1d <counter>
     f1c:	f0 e0       	ldi	r31, 0x00	; 0
     f1e:	ed 5d       	subi	r30, 0xDD	; 221
     f20:	f2 4f       	sbci	r31, 0xF2	; 242
     f22:	89 e4       	ldi	r24, 0x49	; 73
     f24:	80 83       	st	Z, r24
     f26:	07 c0       	rjmp	.+14     	; 0xf36 <check_erstanzeige1+0x1d0>
     f28:	e0 91 1d 0d 	lds	r30, 0x0D1D	; 0x800d1d <counter>
     f2c:	f0 e0       	ldi	r31, 0x00	; 0
     f2e:	ed 5d       	subi	r30, 0xDD	; 221
     f30:	f2 4f       	sbci	r31, 0xF2	; 242
     f32:	89 e6       	ldi	r24, 0x69	; 105
     f34:	80 83       	st	Z, r24
     f36:	80 91 1d 0d 	lds	r24, 0x0D1D	; 0x800d1d <counter>
     f3a:	8f 5f       	subi	r24, 0xFF	; 255
     f3c:	80 93 1d 0d 	sts	0x0D1D, r24	; 0x800d1d <counter>
     f40:	f9 c1       	rjmp	.+1010   	; 0x1334 <check_erstanzeige1+0x5ce>
     f42:	80 91 03 09 	lds	r24, 0x0903	; 0x800903 <Grossschreib>
     f46:	81 30       	cpi	r24, 0x01	; 1
     f48:	41 f4       	brne	.+16     	; 0xf5a <check_erstanzeige1+0x1f4>
     f4a:	e0 91 1d 0d 	lds	r30, 0x0D1D	; 0x800d1d <counter>
     f4e:	f0 e0       	ldi	r31, 0x00	; 0
     f50:	ed 5d       	subi	r30, 0xDD	; 221
     f52:	f2 4f       	sbci	r31, 0xF2	; 242
     f54:	8a e4       	ldi	r24, 0x4A	; 74
     f56:	80 83       	st	Z, r24
     f58:	07 c0       	rjmp	.+14     	; 0xf68 <check_erstanzeige1+0x202>
     f5a:	e0 91 1d 0d 	lds	r30, 0x0D1D	; 0x800d1d <counter>
     f5e:	f0 e0       	ldi	r31, 0x00	; 0
     f60:	ed 5d       	subi	r30, 0xDD	; 221
     f62:	f2 4f       	sbci	r31, 0xF2	; 242
     f64:	8a e6       	ldi	r24, 0x6A	; 106
     f66:	80 83       	st	Z, r24
     f68:	80 91 1d 0d 	lds	r24, 0x0D1D	; 0x800d1d <counter>
     f6c:	8f 5f       	subi	r24, 0xFF	; 255
     f6e:	80 93 1d 0d 	sts	0x0D1D, r24	; 0x800d1d <counter>
     f72:	e0 c1       	rjmp	.+960    	; 0x1334 <check_erstanzeige1+0x5ce>
     f74:	80 91 03 09 	lds	r24, 0x0903	; 0x800903 <Grossschreib>
     f78:	81 30       	cpi	r24, 0x01	; 1
     f7a:	41 f4       	brne	.+16     	; 0xf8c <check_erstanzeige1+0x226>
     f7c:	e0 91 1d 0d 	lds	r30, 0x0D1D	; 0x800d1d <counter>
     f80:	f0 e0       	ldi	r31, 0x00	; 0
     f82:	ed 5d       	subi	r30, 0xDD	; 221
     f84:	f2 4f       	sbci	r31, 0xF2	; 242
     f86:	8b e4       	ldi	r24, 0x4B	; 75
     f88:	80 83       	st	Z, r24
     f8a:	07 c0       	rjmp	.+14     	; 0xf9a <check_erstanzeige1+0x234>
     f8c:	e0 91 1d 0d 	lds	r30, 0x0D1D	; 0x800d1d <counter>
     f90:	f0 e0       	ldi	r31, 0x00	; 0
     f92:	ed 5d       	subi	r30, 0xDD	; 221
     f94:	f2 4f       	sbci	r31, 0xF2	; 242
     f96:	8b e6       	ldi	r24, 0x6B	; 107
     f98:	80 83       	st	Z, r24
     f9a:	80 91 1d 0d 	lds	r24, 0x0D1D	; 0x800d1d <counter>
     f9e:	8f 5f       	subi	r24, 0xFF	; 255
     fa0:	80 93 1d 0d 	sts	0x0D1D, r24	; 0x800d1d <counter>
     fa4:	c7 c1       	rjmp	.+910    	; 0x1334 <check_erstanzeige1+0x5ce>
     fa6:	80 91 03 09 	lds	r24, 0x0903	; 0x800903 <Grossschreib>
     faa:	81 30       	cpi	r24, 0x01	; 1
     fac:	41 f4       	brne	.+16     	; 0xfbe <check_erstanzeige1+0x258>
     fae:	e0 91 1d 0d 	lds	r30, 0x0D1D	; 0x800d1d <counter>
     fb2:	f0 e0       	ldi	r31, 0x00	; 0
     fb4:	ed 5d       	subi	r30, 0xDD	; 221
     fb6:	f2 4f       	sbci	r31, 0xF2	; 242
     fb8:	8c e4       	ldi	r24, 0x4C	; 76
     fba:	80 83       	st	Z, r24
     fbc:	07 c0       	rjmp	.+14     	; 0xfcc <check_erstanzeige1+0x266>
     fbe:	e0 91 1d 0d 	lds	r30, 0x0D1D	; 0x800d1d <counter>
     fc2:	f0 e0       	ldi	r31, 0x00	; 0
     fc4:	ed 5d       	subi	r30, 0xDD	; 221
     fc6:	f2 4f       	sbci	r31, 0xF2	; 242
     fc8:	8c e6       	ldi	r24, 0x6C	; 108
     fca:	80 83       	st	Z, r24
     fcc:	80 91 1d 0d 	lds	r24, 0x0D1D	; 0x800d1d <counter>
     fd0:	8f 5f       	subi	r24, 0xFF	; 255
     fd2:	80 93 1d 0d 	sts	0x0D1D, r24	; 0x800d1d <counter>
     fd6:	ae c1       	rjmp	.+860    	; 0x1334 <check_erstanzeige1+0x5ce>
     fd8:	80 91 03 09 	lds	r24, 0x0903	; 0x800903 <Grossschreib>
     fdc:	81 30       	cpi	r24, 0x01	; 1
     fde:	41 f4       	brne	.+16     	; 0xff0 <check_erstanzeige1+0x28a>
     fe0:	e0 91 1d 0d 	lds	r30, 0x0D1D	; 0x800d1d <counter>
     fe4:	f0 e0       	ldi	r31, 0x00	; 0
     fe6:	ed 5d       	subi	r30, 0xDD	; 221
     fe8:	f2 4f       	sbci	r31, 0xF2	; 242
     fea:	8d e4       	ldi	r24, 0x4D	; 77
     fec:	80 83       	st	Z, r24
     fee:	07 c0       	rjmp	.+14     	; 0xffe <check_erstanzeige1+0x298>
     ff0:	e0 91 1d 0d 	lds	r30, 0x0D1D	; 0x800d1d <counter>
     ff4:	f0 e0       	ldi	r31, 0x00	; 0
     ff6:	ed 5d       	subi	r30, 0xDD	; 221
     ff8:	f2 4f       	sbci	r31, 0xF2	; 242
     ffa:	8d e6       	ldi	r24, 0x6D	; 109
     ffc:	80 83       	st	Z, r24
     ffe:	80 91 1d 0d 	lds	r24, 0x0D1D	; 0x800d1d <counter>
    1002:	8f 5f       	subi	r24, 0xFF	; 255
    1004:	80 93 1d 0d 	sts	0x0D1D, r24	; 0x800d1d <counter>
    1008:	95 c1       	rjmp	.+810    	; 0x1334 <check_erstanzeige1+0x5ce>
    100a:	80 91 03 09 	lds	r24, 0x0903	; 0x800903 <Grossschreib>
    100e:	81 30       	cpi	r24, 0x01	; 1
    1010:	41 f4       	brne	.+16     	; 0x1022 <check_erstanzeige1+0x2bc>
    1012:	e0 91 1d 0d 	lds	r30, 0x0D1D	; 0x800d1d <counter>
    1016:	f0 e0       	ldi	r31, 0x00	; 0
    1018:	ed 5d       	subi	r30, 0xDD	; 221
    101a:	f2 4f       	sbci	r31, 0xF2	; 242
    101c:	8e e4       	ldi	r24, 0x4E	; 78
    101e:	80 83       	st	Z, r24
    1020:	07 c0       	rjmp	.+14     	; 0x1030 <check_erstanzeige1+0x2ca>
    1022:	e0 91 1d 0d 	lds	r30, 0x0D1D	; 0x800d1d <counter>
    1026:	f0 e0       	ldi	r31, 0x00	; 0
    1028:	ed 5d       	subi	r30, 0xDD	; 221
    102a:	f2 4f       	sbci	r31, 0xF2	; 242
    102c:	8e e6       	ldi	r24, 0x6E	; 110
    102e:	80 83       	st	Z, r24
    1030:	80 91 1d 0d 	lds	r24, 0x0D1D	; 0x800d1d <counter>
    1034:	8f 5f       	subi	r24, 0xFF	; 255
    1036:	80 93 1d 0d 	sts	0x0D1D, r24	; 0x800d1d <counter>
    103a:	7c c1       	rjmp	.+760    	; 0x1334 <check_erstanzeige1+0x5ce>
    103c:	80 91 03 09 	lds	r24, 0x0903	; 0x800903 <Grossschreib>
    1040:	81 30       	cpi	r24, 0x01	; 1
    1042:	41 f4       	brne	.+16     	; 0x1054 <check_erstanzeige1+0x2ee>
    1044:	e0 91 1d 0d 	lds	r30, 0x0D1D	; 0x800d1d <counter>
    1048:	f0 e0       	ldi	r31, 0x00	; 0
    104a:	ed 5d       	subi	r30, 0xDD	; 221
    104c:	f2 4f       	sbci	r31, 0xF2	; 242
    104e:	8f e4       	ldi	r24, 0x4F	; 79
    1050:	80 83       	st	Z, r24
    1052:	07 c0       	rjmp	.+14     	; 0x1062 <check_erstanzeige1+0x2fc>
    1054:	e0 91 1d 0d 	lds	r30, 0x0D1D	; 0x800d1d <counter>
    1058:	f0 e0       	ldi	r31, 0x00	; 0
    105a:	ed 5d       	subi	r30, 0xDD	; 221
    105c:	f2 4f       	sbci	r31, 0xF2	; 242
    105e:	8f e6       	ldi	r24, 0x6F	; 111
    1060:	80 83       	st	Z, r24
    1062:	80 91 1d 0d 	lds	r24, 0x0D1D	; 0x800d1d <counter>
    1066:	8f 5f       	subi	r24, 0xFF	; 255
    1068:	80 93 1d 0d 	sts	0x0D1D, r24	; 0x800d1d <counter>
    106c:	63 c1       	rjmp	.+710    	; 0x1334 <check_erstanzeige1+0x5ce>
    106e:	80 91 03 09 	lds	r24, 0x0903	; 0x800903 <Grossschreib>
    1072:	81 30       	cpi	r24, 0x01	; 1
    1074:	41 f4       	brne	.+16     	; 0x1086 <check_erstanzeige1+0x320>
    1076:	e0 91 1d 0d 	lds	r30, 0x0D1D	; 0x800d1d <counter>
    107a:	f0 e0       	ldi	r31, 0x00	; 0
    107c:	ed 5d       	subi	r30, 0xDD	; 221
    107e:	f2 4f       	sbci	r31, 0xF2	; 242
    1080:	80 e5       	ldi	r24, 0x50	; 80
    1082:	80 83       	st	Z, r24
    1084:	07 c0       	rjmp	.+14     	; 0x1094 <check_erstanzeige1+0x32e>
    1086:	e0 91 1d 0d 	lds	r30, 0x0D1D	; 0x800d1d <counter>
    108a:	f0 e0       	ldi	r31, 0x00	; 0
    108c:	ed 5d       	subi	r30, 0xDD	; 221
    108e:	f2 4f       	sbci	r31, 0xF2	; 242
    1090:	80 e7       	ldi	r24, 0x70	; 112
    1092:	80 83       	st	Z, r24
    1094:	80 91 1d 0d 	lds	r24, 0x0D1D	; 0x800d1d <counter>
    1098:	8f 5f       	subi	r24, 0xFF	; 255
    109a:	80 93 1d 0d 	sts	0x0D1D, r24	; 0x800d1d <counter>
    109e:	4a c1       	rjmp	.+660    	; 0x1334 <check_erstanzeige1+0x5ce>
    10a0:	80 91 03 09 	lds	r24, 0x0903	; 0x800903 <Grossschreib>
    10a4:	81 30       	cpi	r24, 0x01	; 1
    10a6:	41 f4       	brne	.+16     	; 0x10b8 <check_erstanzeige1+0x352>
    10a8:	e0 91 1d 0d 	lds	r30, 0x0D1D	; 0x800d1d <counter>
    10ac:	f0 e0       	ldi	r31, 0x00	; 0
    10ae:	ed 5d       	subi	r30, 0xDD	; 221
    10b0:	f2 4f       	sbci	r31, 0xF2	; 242
    10b2:	81 e5       	ldi	r24, 0x51	; 81
    10b4:	80 83       	st	Z, r24
    10b6:	07 c0       	rjmp	.+14     	; 0x10c6 <check_erstanzeige1+0x360>
    10b8:	e0 91 1d 0d 	lds	r30, 0x0D1D	; 0x800d1d <counter>
    10bc:	f0 e0       	ldi	r31, 0x00	; 0
    10be:	ed 5d       	subi	r30, 0xDD	; 221
    10c0:	f2 4f       	sbci	r31, 0xF2	; 242
    10c2:	81 e7       	ldi	r24, 0x71	; 113
    10c4:	80 83       	st	Z, r24
    10c6:	80 91 1d 0d 	lds	r24, 0x0D1D	; 0x800d1d <counter>
    10ca:	8f 5f       	subi	r24, 0xFF	; 255
    10cc:	80 93 1d 0d 	sts	0x0D1D, r24	; 0x800d1d <counter>
    10d0:	31 c1       	rjmp	.+610    	; 0x1334 <check_erstanzeige1+0x5ce>
    10d2:	80 91 03 09 	lds	r24, 0x0903	; 0x800903 <Grossschreib>
    10d6:	81 30       	cpi	r24, 0x01	; 1
    10d8:	41 f4       	brne	.+16     	; 0x10ea <check_erstanzeige1+0x384>
    10da:	e0 91 1d 0d 	lds	r30, 0x0D1D	; 0x800d1d <counter>
    10de:	f0 e0       	ldi	r31, 0x00	; 0
    10e0:	ed 5d       	subi	r30, 0xDD	; 221
    10e2:	f2 4f       	sbci	r31, 0xF2	; 242
    10e4:	82 e5       	ldi	r24, 0x52	; 82
    10e6:	80 83       	st	Z, r24
    10e8:	07 c0       	rjmp	.+14     	; 0x10f8 <check_erstanzeige1+0x392>
    10ea:	e0 91 1d 0d 	lds	r30, 0x0D1D	; 0x800d1d <counter>
    10ee:	f0 e0       	ldi	r31, 0x00	; 0
    10f0:	ed 5d       	subi	r30, 0xDD	; 221
    10f2:	f2 4f       	sbci	r31, 0xF2	; 242
    10f4:	82 e7       	ldi	r24, 0x72	; 114
    10f6:	80 83       	st	Z, r24
    10f8:	80 91 1d 0d 	lds	r24, 0x0D1D	; 0x800d1d <counter>
    10fc:	8f 5f       	subi	r24, 0xFF	; 255
    10fe:	80 93 1d 0d 	sts	0x0D1D, r24	; 0x800d1d <counter>
    1102:	18 c1       	rjmp	.+560    	; 0x1334 <check_erstanzeige1+0x5ce>
    1104:	80 91 03 09 	lds	r24, 0x0903	; 0x800903 <Grossschreib>
    1108:	81 30       	cpi	r24, 0x01	; 1
    110a:	41 f4       	brne	.+16     	; 0x111c <check_erstanzeige1+0x3b6>
    110c:	e0 91 1d 0d 	lds	r30, 0x0D1D	; 0x800d1d <counter>
    1110:	f0 e0       	ldi	r31, 0x00	; 0
    1112:	ed 5d       	subi	r30, 0xDD	; 221
    1114:	f2 4f       	sbci	r31, 0xF2	; 242
    1116:	83 e5       	ldi	r24, 0x53	; 83
    1118:	80 83       	st	Z, r24
    111a:	07 c0       	rjmp	.+14     	; 0x112a <check_erstanzeige1+0x3c4>
    111c:	e0 91 1d 0d 	lds	r30, 0x0D1D	; 0x800d1d <counter>
    1120:	f0 e0       	ldi	r31, 0x00	; 0
    1122:	ed 5d       	subi	r30, 0xDD	; 221
    1124:	f2 4f       	sbci	r31, 0xF2	; 242
    1126:	83 e7       	ldi	r24, 0x73	; 115
    1128:	80 83       	st	Z, r24
    112a:	80 91 1d 0d 	lds	r24, 0x0D1D	; 0x800d1d <counter>
    112e:	8f 5f       	subi	r24, 0xFF	; 255
    1130:	80 93 1d 0d 	sts	0x0D1D, r24	; 0x800d1d <counter>
    1134:	ff c0       	rjmp	.+510    	; 0x1334 <check_erstanzeige1+0x5ce>
    1136:	80 91 03 09 	lds	r24, 0x0903	; 0x800903 <Grossschreib>
    113a:	81 30       	cpi	r24, 0x01	; 1
    113c:	41 f4       	brne	.+16     	; 0x114e <check_erstanzeige1+0x3e8>
    113e:	e0 91 1d 0d 	lds	r30, 0x0D1D	; 0x800d1d <counter>
    1142:	f0 e0       	ldi	r31, 0x00	; 0
    1144:	ed 5d       	subi	r30, 0xDD	; 221
    1146:	f2 4f       	sbci	r31, 0xF2	; 242
    1148:	84 e5       	ldi	r24, 0x54	; 84
    114a:	80 83       	st	Z, r24
    114c:	07 c0       	rjmp	.+14     	; 0x115c <check_erstanzeige1+0x3f6>
    114e:	e0 91 1d 0d 	lds	r30, 0x0D1D	; 0x800d1d <counter>
    1152:	f0 e0       	ldi	r31, 0x00	; 0
    1154:	ed 5d       	subi	r30, 0xDD	; 221
    1156:	f2 4f       	sbci	r31, 0xF2	; 242
    1158:	84 e7       	ldi	r24, 0x74	; 116
    115a:	80 83       	st	Z, r24
    115c:	80 91 1d 0d 	lds	r24, 0x0D1D	; 0x800d1d <counter>
    1160:	8f 5f       	subi	r24, 0xFF	; 255
    1162:	80 93 1d 0d 	sts	0x0D1D, r24	; 0x800d1d <counter>
    1166:	e6 c0       	rjmp	.+460    	; 0x1334 <check_erstanzeige1+0x5ce>
    1168:	80 91 03 09 	lds	r24, 0x0903	; 0x800903 <Grossschreib>
    116c:	81 30       	cpi	r24, 0x01	; 1
    116e:	41 f4       	brne	.+16     	; 0x1180 <check_erstanzeige1+0x41a>
    1170:	e0 91 1d 0d 	lds	r30, 0x0D1D	; 0x800d1d <counter>
    1174:	f0 e0       	ldi	r31, 0x00	; 0
    1176:	ed 5d       	subi	r30, 0xDD	; 221
    1178:	f2 4f       	sbci	r31, 0xF2	; 242
    117a:	85 e5       	ldi	r24, 0x55	; 85
    117c:	80 83       	st	Z, r24
    117e:	07 c0       	rjmp	.+14     	; 0x118e <check_erstanzeige1+0x428>
    1180:	e0 91 1d 0d 	lds	r30, 0x0D1D	; 0x800d1d <counter>
    1184:	f0 e0       	ldi	r31, 0x00	; 0
    1186:	ed 5d       	subi	r30, 0xDD	; 221
    1188:	f2 4f       	sbci	r31, 0xF2	; 242
    118a:	85 e7       	ldi	r24, 0x75	; 117
    118c:	80 83       	st	Z, r24
    118e:	80 91 1d 0d 	lds	r24, 0x0D1D	; 0x800d1d <counter>
    1192:	8f 5f       	subi	r24, 0xFF	; 255
    1194:	80 93 1d 0d 	sts	0x0D1D, r24	; 0x800d1d <counter>
    1198:	cd c0       	rjmp	.+410    	; 0x1334 <check_erstanzeige1+0x5ce>
    119a:	80 91 03 09 	lds	r24, 0x0903	; 0x800903 <Grossschreib>
    119e:	81 30       	cpi	r24, 0x01	; 1
    11a0:	41 f4       	brne	.+16     	; 0x11b2 <check_erstanzeige1+0x44c>
    11a2:	e0 91 1d 0d 	lds	r30, 0x0D1D	; 0x800d1d <counter>
    11a6:	f0 e0       	ldi	r31, 0x00	; 0
    11a8:	ed 5d       	subi	r30, 0xDD	; 221
    11aa:	f2 4f       	sbci	r31, 0xF2	; 242
    11ac:	86 e5       	ldi	r24, 0x56	; 86
    11ae:	80 83       	st	Z, r24
    11b0:	07 c0       	rjmp	.+14     	; 0x11c0 <check_erstanzeige1+0x45a>
    11b2:	e0 91 1d 0d 	lds	r30, 0x0D1D	; 0x800d1d <counter>
    11b6:	f0 e0       	ldi	r31, 0x00	; 0
    11b8:	ed 5d       	subi	r30, 0xDD	; 221
    11ba:	f2 4f       	sbci	r31, 0xF2	; 242
    11bc:	86 e7       	ldi	r24, 0x76	; 118
    11be:	80 83       	st	Z, r24
    11c0:	80 91 1d 0d 	lds	r24, 0x0D1D	; 0x800d1d <counter>
    11c4:	8f 5f       	subi	r24, 0xFF	; 255
    11c6:	80 93 1d 0d 	sts	0x0D1D, r24	; 0x800d1d <counter>
    11ca:	b4 c0       	rjmp	.+360    	; 0x1334 <check_erstanzeige1+0x5ce>
    11cc:	80 91 03 09 	lds	r24, 0x0903	; 0x800903 <Grossschreib>
    11d0:	81 30       	cpi	r24, 0x01	; 1
    11d2:	41 f4       	brne	.+16     	; 0x11e4 <check_erstanzeige1+0x47e>
    11d4:	e0 91 1d 0d 	lds	r30, 0x0D1D	; 0x800d1d <counter>
    11d8:	f0 e0       	ldi	r31, 0x00	; 0
    11da:	ed 5d       	subi	r30, 0xDD	; 221
    11dc:	f2 4f       	sbci	r31, 0xF2	; 242
    11de:	87 e5       	ldi	r24, 0x57	; 87
    11e0:	80 83       	st	Z, r24
    11e2:	07 c0       	rjmp	.+14     	; 0x11f2 <check_erstanzeige1+0x48c>
    11e4:	e0 91 1d 0d 	lds	r30, 0x0D1D	; 0x800d1d <counter>
    11e8:	f0 e0       	ldi	r31, 0x00	; 0
    11ea:	ed 5d       	subi	r30, 0xDD	; 221
    11ec:	f2 4f       	sbci	r31, 0xF2	; 242
    11ee:	87 e7       	ldi	r24, 0x77	; 119
    11f0:	80 83       	st	Z, r24
    11f2:	80 91 1d 0d 	lds	r24, 0x0D1D	; 0x800d1d <counter>
    11f6:	8f 5f       	subi	r24, 0xFF	; 255
    11f8:	80 93 1d 0d 	sts	0x0D1D, r24	; 0x800d1d <counter>
    11fc:	9b c0       	rjmp	.+310    	; 0x1334 <check_erstanzeige1+0x5ce>
    11fe:	80 91 03 09 	lds	r24, 0x0903	; 0x800903 <Grossschreib>
    1202:	81 30       	cpi	r24, 0x01	; 1
    1204:	41 f4       	brne	.+16     	; 0x1216 <check_erstanzeige1+0x4b0>
    1206:	e0 91 1d 0d 	lds	r30, 0x0D1D	; 0x800d1d <counter>
    120a:	f0 e0       	ldi	r31, 0x00	; 0
    120c:	ed 5d       	subi	r30, 0xDD	; 221
    120e:	f2 4f       	sbci	r31, 0xF2	; 242
    1210:	88 e5       	ldi	r24, 0x58	; 88
    1212:	80 83       	st	Z, r24
    1214:	07 c0       	rjmp	.+14     	; 0x1224 <check_erstanzeige1+0x4be>
    1216:	e0 91 1d 0d 	lds	r30, 0x0D1D	; 0x800d1d <counter>
    121a:	f0 e0       	ldi	r31, 0x00	; 0
    121c:	ed 5d       	subi	r30, 0xDD	; 221
    121e:	f2 4f       	sbci	r31, 0xF2	; 242
    1220:	88 e7       	ldi	r24, 0x78	; 120
    1222:	80 83       	st	Z, r24
    1224:	80 91 1d 0d 	lds	r24, 0x0D1D	; 0x800d1d <counter>
    1228:	8f 5f       	subi	r24, 0xFF	; 255
    122a:	80 93 1d 0d 	sts	0x0D1D, r24	; 0x800d1d <counter>
    122e:	82 c0       	rjmp	.+260    	; 0x1334 <check_erstanzeige1+0x5ce>
    1230:	80 91 03 09 	lds	r24, 0x0903	; 0x800903 <Grossschreib>
    1234:	81 30       	cpi	r24, 0x01	; 1
    1236:	41 f4       	brne	.+16     	; 0x1248 <check_erstanzeige1+0x4e2>
    1238:	e0 91 1d 0d 	lds	r30, 0x0D1D	; 0x800d1d <counter>
    123c:	f0 e0       	ldi	r31, 0x00	; 0
    123e:	ed 5d       	subi	r30, 0xDD	; 221
    1240:	f2 4f       	sbci	r31, 0xF2	; 242
    1242:	89 e5       	ldi	r24, 0x59	; 89
    1244:	80 83       	st	Z, r24
    1246:	07 c0       	rjmp	.+14     	; 0x1256 <check_erstanzeige1+0x4f0>
    1248:	e0 91 1d 0d 	lds	r30, 0x0D1D	; 0x800d1d <counter>
    124c:	f0 e0       	ldi	r31, 0x00	; 0
    124e:	ed 5d       	subi	r30, 0xDD	; 221
    1250:	f2 4f       	sbci	r31, 0xF2	; 242
    1252:	89 e7       	ldi	r24, 0x79	; 121
    1254:	80 83       	st	Z, r24
    1256:	80 91 1d 0d 	lds	r24, 0x0D1D	; 0x800d1d <counter>
    125a:	8f 5f       	subi	r24, 0xFF	; 255
    125c:	80 93 1d 0d 	sts	0x0D1D, r24	; 0x800d1d <counter>
    1260:	69 c0       	rjmp	.+210    	; 0x1334 <check_erstanzeige1+0x5ce>
    1262:	80 91 03 09 	lds	r24, 0x0903	; 0x800903 <Grossschreib>
    1266:	81 30       	cpi	r24, 0x01	; 1
    1268:	41 f4       	brne	.+16     	; 0x127a <check_erstanzeige1+0x514>
    126a:	e0 91 1d 0d 	lds	r30, 0x0D1D	; 0x800d1d <counter>
    126e:	f0 e0       	ldi	r31, 0x00	; 0
    1270:	ed 5d       	subi	r30, 0xDD	; 221
    1272:	f2 4f       	sbci	r31, 0xF2	; 242
    1274:	8a e5       	ldi	r24, 0x5A	; 90
    1276:	80 83       	st	Z, r24
    1278:	07 c0       	rjmp	.+14     	; 0x1288 <check_erstanzeige1+0x522>
    127a:	e0 91 1d 0d 	lds	r30, 0x0D1D	; 0x800d1d <counter>
    127e:	f0 e0       	ldi	r31, 0x00	; 0
    1280:	ed 5d       	subi	r30, 0xDD	; 221
    1282:	f2 4f       	sbci	r31, 0xF2	; 242
    1284:	8a e7       	ldi	r24, 0x7A	; 122
    1286:	80 83       	st	Z, r24
    1288:	80 91 1d 0d 	lds	r24, 0x0D1D	; 0x800d1d <counter>
    128c:	8f 5f       	subi	r24, 0xFF	; 255
    128e:	80 93 1d 0d 	sts	0x0D1D, r24	; 0x800d1d <counter>
    1292:	50 c0       	rjmp	.+160    	; 0x1334 <check_erstanzeige1+0x5ce>
    1294:	e0 91 1d 0d 	lds	r30, 0x0D1D	; 0x800d1d <counter>
    1298:	e1 50       	subi	r30, 0x01	; 1
    129a:	e0 93 1d 0d 	sts	0x0D1D, r30	; 0x800d1d <counter>
    129e:	f0 e0       	ldi	r31, 0x00	; 0
    12a0:	ed 5d       	subi	r30, 0xDD	; 221
    12a2:	f2 4f       	sbci	r31, 0xF2	; 242
    12a4:	10 82       	st	Z, r1
    12a6:	46 c0       	rjmp	.+140    	; 0x1334 <check_erstanzeige1+0x5ce>
    12a8:	e0 91 d6 07 	lds	r30, 0x07D6	; 0x8007d6 <tail_getraenk_file>
    12ac:	f0 91 d7 07 	lds	r31, 0x07D7	; 0x8007d7 <tail_getraenk_file+0x1>
    12b0:	80 81       	ld	r24, Z
    12b2:	5a dc       	rcall	.-1868   	; 0xb68 <lese_textfile_in_getraenk>
    12b4:	10 92 1d 0d 	sts	0x0D1D, r1	; 0x800d1d <counter>
    12b8:	e3 e2       	ldi	r30, 0x23	; 35
    12ba:	fd e0       	ldi	r31, 0x0D	; 13
    12bc:	87 e3       	ldi	r24, 0x37	; 55
    12be:	9d e0       	ldi	r25, 0x0D	; 13
    12c0:	11 92       	st	Z+, r1
    12c2:	e8 17       	cp	r30, r24
    12c4:	f9 07       	cpc	r31, r25
    12c6:	e1 f7       	brne	.-8      	; 0x12c0 <check_erstanzeige1+0x55a>
    12c8:	81 e0       	ldi	r24, 0x01	; 1
    12ca:	0e 94 de 13 	call	0x27bc	; 0x27bc <nextion_change_page>
    12ce:	80 91 4f 0f 	lds	r24, 0x0F4F	; 0x800f4f <aktuellesGetraenk>
    12d2:	90 91 50 0f 	lds	r25, 0x0F50	; 0x800f50 <aktuellesGetraenk+0x1>
    12d6:	a0 da       	rcall	.-2752   	; 0x818 <setze_startanzeige>
    12d8:	2d c0       	rjmp	.+90     	; 0x1334 <check_erstanzeige1+0x5ce>
    12da:	e0 91 1d 0d 	lds	r30, 0x0D1D	; 0x800d1d <counter>
    12de:	f0 e0       	ldi	r31, 0x00	; 0
    12e0:	ed 5d       	subi	r30, 0xDD	; 221
    12e2:	f2 4f       	sbci	r31, 0xF2	; 242
    12e4:	80 e2       	ldi	r24, 0x20	; 32
    12e6:	80 83       	st	Z, r24
    12e8:	25 c0       	rjmp	.+74     	; 0x1334 <check_erstanzeige1+0x5ce>
    12ea:	81 e1       	ldi	r24, 0x11	; 17
    12ec:	0e 94 de 13 	call	0x27bc	; 0x27bc <nextion_change_page>
    12f0:	80 e0       	ldi	r24, 0x00	; 0
    12f2:	90 e0       	ldi	r25, 0x00	; 0
    12f4:	e0 91 4f 0f 	lds	r30, 0x0F4F	; 0x800f4f <aktuellesGetraenk>
    12f8:	f0 91 50 0f 	lds	r31, 0x0F50	; 0x800f50 <aktuellesGetraenk+0x1>
    12fc:	04 80       	ldd	r0, Z+4	; 0x04
    12fe:	f5 81       	ldd	r31, Z+5	; 0x05
    1300:	e0 2d       	mov	r30, r0
    1302:	e8 0f       	add	r30, r24
    1304:	f9 1f       	adc	r31, r25
    1306:	10 82       	st	Z, r1
    1308:	01 96       	adiw	r24, 0x01	; 1
    130a:	8c 30       	cpi	r24, 0x0C	; 12
    130c:	91 05       	cpc	r25, r1
    130e:	91 f7       	brne	.-28     	; 0x12f4 <check_erstanzeige1+0x58e>
    1310:	10 92 47 0f 	sts	0x0F47, r1	; 0x800f47 <i_Liste>
    1314:	85 e8       	ldi	r24, 0x85	; 133
    1316:	93 e0       	ldi	r25, 0x03	; 3
    1318:	35 d9       	rcall	.-3478   	; 0x584 <erstelle_Liste_zutat>
    131a:	10 92 1d 0d 	sts	0x0D1D, r1	; 0x800d1d <counter>
    131e:	0a c0       	rjmp	.+20     	; 0x1334 <check_erstanzeige1+0x5ce>
    1320:	80 91 03 09 	lds	r24, 0x0903	; 0x800903 <Grossschreib>
    1324:	81 30       	cpi	r24, 0x01	; 1
    1326:	19 f4       	brne	.+6      	; 0x132e <check_erstanzeige1+0x5c8>
    1328:	10 92 03 09 	sts	0x0903, r1	; 0x800903 <Grossschreib>
    132c:	03 c0       	rjmp	.+6      	; 0x1334 <check_erstanzeige1+0x5ce>
    132e:	81 e0       	ldi	r24, 0x01	; 1
    1330:	80 93 03 09 	sts	0x0903, r24	; 0x800903 <Grossschreib>
    1334:	63 e2       	ldi	r22, 0x23	; 35
    1336:	7d e0       	ldi	r23, 0x0D	; 13
    1338:	8b e8       	ldi	r24, 0x8B	; 139
    133a:	93 e0       	ldi	r25, 0x03	; 3
    133c:	0e 94 fd 13 	call	0x27fa	; 0x27fa <nextion_setText>
    1340:	80 91 1d 0d 	lds	r24, 0x0D1D	; 0x800d1d <counter>
    1344:	83 31       	cpi	r24, 0x13	; 19
    1346:	18 f0       	brcs	.+6      	; 0x134e <check_erstanzeige1+0x5e8>
    1348:	83 e1       	ldi	r24, 0x13	; 19
    134a:	80 93 1d 0d 	sts	0x0D1D, r24	; 0x800d1d <counter>
    134e:	08 95       	ret

00001350 <choose_drink>:
    1350:	90 91 47 0f 	lds	r25, 0x0F47	; 0x800f47 <i_Liste>
    1354:	89 0f       	add	r24, r25
    1356:	08 dc       	rcall	.-2032   	; 0xb68 <lese_textfile_in_getraenk>
    1358:	80 91 4f 0f 	lds	r24, 0x0F4F	; 0x800f4f <aktuellesGetraenk>
    135c:	90 91 50 0f 	lds	r25, 0x0F50	; 0x800f50 <aktuellesGetraenk+0x1>
    1360:	5b da       	rcall	.-2890   	; 0x818 <setze_startanzeige>
    1362:	10 92 17 0d 	sts	0x0D17, r1	; 0x800d17 <block_list_hoch>
    1366:	10 92 0a 09 	sts	0x090A, r1	; 0x80090a <block_list_runter>
    136a:	08 95       	ret

0000136c <erstelle_Liste_name>:
    136c:	8f 92       	push	r8
    136e:	9f 92       	push	r9
    1370:	af 92       	push	r10
    1372:	bf 92       	push	r11
    1374:	cf 92       	push	r12
    1376:	df 92       	push	r13
    1378:	ef 92       	push	r14
    137a:	ff 92       	push	r15
    137c:	0f 93       	push	r16
    137e:	1f 93       	push	r17
    1380:	cf 93       	push	r28
    1382:	df 93       	push	r29
    1384:	cd b7       	in	r28, 0x3d	; 61
    1386:	de b7       	in	r29, 0x3e	; 62
    1388:	ad 97       	sbiw	r28, 0x2d	; 45
    138a:	0f b6       	in	r0, 0x3f	; 63
    138c:	f8 94       	cli
    138e:	de bf       	out	0x3e, r29	; 62
    1390:	0f be       	out	0x3f, r0	; 63
    1392:	cd bf       	out	0x3d, r28	; 61
    1394:	5c 01       	movw	r10, r24
    1396:	e0 91 d6 07 	lds	r30, 0x07D6	; 0x8007d6 <tail_getraenk_file>
    139a:	f0 91 d7 07 	lds	r31, 0x07D7	; 0x8007d7 <tail_getraenk_file+0x1>
    139e:	f0 93 00 09 	sts	0x0900, r31	; 0x800900 <aktuellesGetraenk_file+0x1>
    13a2:	e0 93 ff 08 	sts	0x08FF, r30	; 0x8008ff <aktuellesGetraenk_file>
    13a6:	20 91 47 0f 	lds	r18, 0x0F47	; 0x800f47 <i_Liste>
    13aa:	30 e0       	ldi	r19, 0x00	; 0
    13ac:	12 16       	cp	r1, r18
    13ae:	13 06       	cpc	r1, r19
    13b0:	6c f4       	brge	.+26     	; 0x13cc <erstelle_Liste_name+0x60>
    13b2:	80 e0       	ldi	r24, 0x00	; 0
    13b4:	90 e0       	ldi	r25, 0x00	; 0
    13b6:	03 80       	ldd	r0, Z+3	; 0x03
    13b8:	f4 81       	ldd	r31, Z+4	; 0x04
    13ba:	e0 2d       	mov	r30, r0
    13bc:	01 96       	adiw	r24, 0x01	; 1
    13be:	82 17       	cp	r24, r18
    13c0:	93 07       	cpc	r25, r19
    13c2:	c9 f7       	brne	.-14     	; 0x13b6 <erstelle_Liste_name+0x4a>
    13c4:	f0 93 00 09 	sts	0x0900, r31	; 0x800900 <aktuellesGetraenk_file+0x1>
    13c8:	e0 93 ff 08 	sts	0x08FF, r30	; 0x8008ff <aktuellesGetraenk_file>
    13cc:	fe 01       	movw	r30, r28
    13ce:	31 96       	adiw	r30, 0x01	; 1
    13d0:	85 e1       	ldi	r24, 0x15	; 21
    13d2:	df 01       	movw	r26, r30
    13d4:	1d 92       	st	X+, r1
    13d6:	8a 95       	dec	r24
    13d8:	e9 f7       	brne	.-6      	; 0x13d4 <erstelle_Liste_name+0x68>
    13da:	1e 8a       	std	Y+22, r1	; 0x16
    13dc:	1f 8a       	std	Y+23, r1	; 0x17
    13de:	18 8e       	std	Y+24, r1	; 0x18
    13e0:	19 8e       	std	Y+25, r1	; 0x19
    13e2:	00 e0       	ldi	r16, 0x00	; 0
    13e4:	10 e0       	ldi	r17, 0x00	; 0
    13e6:	0f 2e       	mov	r0, r31
    13e8:	f4 e1       	ldi	r31, 0x14	; 20
    13ea:	9f 2e       	mov	r9, r31
    13ec:	f0 2d       	mov	r31, r0
    13ee:	6e 01       	movw	r12, r28
    13f0:	ba e1       	ldi	r27, 0x1A	; 26
    13f2:	cb 0e       	add	r12, r27
    13f4:	d1 1c       	adc	r13, r1
    13f6:	88 24       	eor	r8, r8
    13f8:	83 94       	inc	r8
    13fa:	78 01       	movw	r14, r16
    13fc:	ef ef       	ldi	r30, 0xFF	; 255
    13fe:	ee 1a       	sub	r14, r30
    1400:	fe 0a       	sbc	r15, r30
    1402:	4a e0       	ldi	r20, 0x0A	; 10
    1404:	be 01       	movw	r22, r28
    1406:	6a 5e       	subi	r22, 0xEA	; 234
    1408:	7f 4f       	sbci	r23, 0xFF	; 255
    140a:	c7 01       	movw	r24, r14
    140c:	0e 94 63 25 	call	0x4ac6	; 0x4ac6 <__itoa_ncheck>
    1410:	b5 01       	movw	r22, r10
    1412:	ce 01       	movw	r24, r28
    1414:	01 96       	adiw	r24, 0x01	; 1
    1416:	0e 94 35 25 	call	0x4a6a	; 0x4a6a <strcpy>
    141a:	be 01       	movw	r22, r28
    141c:	6a 5e       	subi	r22, 0xEA	; 234
    141e:	7f 4f       	sbci	r23, 0xFF	; 255
    1420:	ce 01       	movw	r24, r28
    1422:	01 96       	adiw	r24, 0x01	; 1
    1424:	0e 94 2a 25 	call	0x4a54	; 0x4a54 <strcat>
    1428:	80 91 47 0f 	lds	r24, 0x0F47	; 0x800f47 <i_Liste>
    142c:	98 01       	movw	r18, r16
    142e:	28 0f       	add	r18, r24
    1430:	31 1d       	adc	r19, r1
    1432:	2f 5f       	subi	r18, 0xFF	; 255
    1434:	3f 4f       	sbci	r19, 0xFF	; 255
    1436:	e0 91 01 09 	lds	r30, 0x0901	; 0x800901 <head_getraenk_file>
    143a:	f0 91 02 09 	lds	r31, 0x0902	; 0x800902 <head_getraenk_file+0x1>
    143e:	80 81       	ld	r24, Z
    1440:	90 e0       	ldi	r25, 0x00	; 0
    1442:	28 17       	cp	r18, r24
    1444:	39 07       	cpc	r19, r25
    1446:	b9 f4       	brne	.+46     	; 0x1476 <erstelle_Liste_name+0x10a>
    1448:	80 91 0a 09 	lds	r24, 0x090A	; 0x80090a <block_list_runter>
    144c:	81 11       	cpse	r24, r1
    144e:	17 c0       	rjmp	.+46     	; 0x147e <erstelle_Liste_name+0x112>
    1450:	80 92 0a 09 	sts	0x090A, r8	; 0x80090a <block_list_runter>
    1454:	e0 91 ff 08 	lds	r30, 0x08FF	; 0x8008ff <aktuellesGetraenk_file>
    1458:	f0 91 00 09 	lds	r31, 0x0900	; 0x800900 <aktuellesGetraenk_file+0x1>
    145c:	80 81       	ld	r24, Z
    145e:	84 db       	rcall	.-2296   	; 0xb68 <lese_textfile_in_getraenk>
    1460:	e0 91 4f 0f 	lds	r30, 0x0F4F	; 0x800f4f <aktuellesGetraenk>
    1464:	f0 91 50 0f 	lds	r31, 0x0F50	; 0x800f50 <aktuellesGetraenk+0x1>
    1468:	60 81       	ld	r22, Z
    146a:	71 81       	ldd	r23, Z+1	; 0x01
    146c:	ce 01       	movw	r24, r28
    146e:	01 96       	adiw	r24, 0x01	; 1
    1470:	0e 94 fd 13 	call	0x27fa	; 0x27fa <nextion_setText>
    1474:	3a c0       	rjmp	.+116    	; 0x14ea <erstelle_Liste_name+0x17e>
    1476:	80 91 0a 09 	lds	r24, 0x090A	; 0x80090a <block_list_runter>
    147a:	88 23       	and	r24, r24
    147c:	31 f1       	breq	.+76     	; 0x14ca <erstelle_Liste_name+0x15e>
    147e:	6d ee       	ldi	r22, 0xED	; 237
    1480:	74 e0       	ldi	r23, 0x04	; 4
    1482:	ce 01       	movw	r24, r28
    1484:	01 96       	adiw	r24, 0x01	; 1
    1486:	0e 94 fd 13 	call	0x27fa	; 0x27fa <nextion_setText>
    148a:	8f e3       	ldi	r24, 0x3F	; 63
    148c:	9c e9       	ldi	r25, 0x9C	; 156
    148e:	01 97       	sbiw	r24, 0x01	; 1
    1490:	f1 f7       	brne	.-4      	; 0x148e <erstelle_Liste_name+0x122>
    1492:	00 c0       	rjmp	.+0      	; 0x1494 <erstelle_Liste_name+0x128>
    1494:	00 00       	nop
    1496:	d6 01       	movw	r26, r12
    1498:	e9 2d       	mov	r30, r9
    149a:	1d 92       	st	X+, r1
    149c:	ea 95       	dec	r30
    149e:	e9 f7       	brne	.-6      	; 0x149a <erstelle_Liste_name+0x12e>
    14a0:	b5 01       	movw	r22, r10
    14a2:	c6 01       	movw	r24, r12
    14a4:	0e 94 2a 25 	call	0x4a54	; 0x4a54 <strcat>
    14a8:	4a e0       	ldi	r20, 0x0A	; 10
    14aa:	be 01       	movw	r22, r28
    14ac:	6a 5e       	subi	r22, 0xEA	; 234
    14ae:	7f 4f       	sbci	r23, 0xFF	; 255
    14b0:	c7 01       	movw	r24, r14
    14b2:	0e 94 63 25 	call	0x4ac6	; 0x4ac6 <__itoa_ncheck>
    14b6:	be 01       	movw	r22, r28
    14b8:	6a 5e       	subi	r22, 0xEA	; 234
    14ba:	7f 4f       	sbci	r23, 0xFF	; 255
    14bc:	c6 01       	movw	r24, r12
    14be:	0e 94 2a 25 	call	0x4a54	; 0x4a54 <strcat>
    14c2:	c6 01       	movw	r24, r12
    14c4:	0e 94 99 14 	call	0x2932	; 0x2932 <nextion_disableButton>
    14c8:	10 c0       	rjmp	.+32     	; 0x14ea <erstelle_Liste_name+0x17e>
    14ca:	e0 91 ff 08 	lds	r30, 0x08FF	; 0x8008ff <aktuellesGetraenk_file>
    14ce:	f0 91 00 09 	lds	r31, 0x0900	; 0x800900 <aktuellesGetraenk_file+0x1>
    14d2:	80 81       	ld	r24, Z
    14d4:	49 db       	rcall	.-2414   	; 0xb68 <lese_textfile_in_getraenk>
    14d6:	e0 91 4f 0f 	lds	r30, 0x0F4F	; 0x800f4f <aktuellesGetraenk>
    14da:	f0 91 50 0f 	lds	r31, 0x0F50	; 0x800f50 <aktuellesGetraenk+0x1>
    14de:	60 81       	ld	r22, Z
    14e0:	71 81       	ldd	r23, Z+1	; 0x01
    14e2:	ce 01       	movw	r24, r28
    14e4:	01 96       	adiw	r24, 0x01	; 1
    14e6:	0e 94 fd 13 	call	0x27fa	; 0x27fa <nextion_setText>
    14ea:	80 91 47 0f 	lds	r24, 0x0F47	; 0x800f47 <i_Liste>
    14ee:	08 0f       	add	r16, r24
    14f0:	11 1d       	adc	r17, r1
    14f2:	0f 5f       	subi	r16, 0xFF	; 255
    14f4:	1f 4f       	sbci	r17, 0xFF	; 255
    14f6:	e0 91 d6 07 	lds	r30, 0x07D6	; 0x8007d6 <tail_getraenk_file>
    14fa:	f0 91 d7 07 	lds	r31, 0x07D7	; 0x8007d7 <tail_getraenk_file+0x1>
    14fe:	80 81       	ld	r24, Z
    1500:	90 e0       	ldi	r25, 0x00	; 0
    1502:	08 17       	cp	r16, r24
    1504:	19 07       	cpc	r17, r25
    1506:	11 f4       	brne	.+4      	; 0x150c <erstelle_Liste_name+0x1a0>
    1508:	80 92 17 0d 	sts	0x0D17, r8	; 0x800d17 <block_list_hoch>
    150c:	e0 91 ff 08 	lds	r30, 0x08FF	; 0x8008ff <aktuellesGetraenk_file>
    1510:	f0 91 00 09 	lds	r31, 0x0900	; 0x800900 <aktuellesGetraenk_file+0x1>
    1514:	83 81       	ldd	r24, Z+3	; 0x03
    1516:	94 81       	ldd	r25, Z+4	; 0x04
    1518:	90 93 00 09 	sts	0x0900, r25	; 0x800900 <aktuellesGetraenk_file+0x1>
    151c:	80 93 ff 08 	sts	0x08FF, r24	; 0x8008ff <aktuellesGetraenk_file>
    1520:	8f e9       	ldi	r24, 0x9F	; 159
    1522:	9f e0       	ldi	r25, 0x0F	; 15
    1524:	01 97       	sbiw	r24, 0x01	; 1
    1526:	f1 f7       	brne	.-4      	; 0x1524 <erstelle_Liste_name+0x1b8>
    1528:	00 c0       	rjmp	.+0      	; 0x152a <erstelle_Liste_name+0x1be>
    152a:	00 00       	nop
    152c:	87 01       	movw	r16, r14
    152e:	08 30       	cpi	r16, 0x08	; 8
    1530:	11 05       	cpc	r17, r1
    1532:	09 f0       	breq	.+2      	; 0x1536 <erstelle_Liste_name+0x1ca>
    1534:	62 cf       	rjmp	.-316    	; 0x13fa <erstelle_Liste_name+0x8e>
    1536:	ad 96       	adiw	r28, 0x2d	; 45
    1538:	0f b6       	in	r0, 0x3f	; 63
    153a:	f8 94       	cli
    153c:	de bf       	out	0x3e, r29	; 62
    153e:	0f be       	out	0x3f, r0	; 63
    1540:	cd bf       	out	0x3d, r28	; 61
    1542:	df 91       	pop	r29
    1544:	cf 91       	pop	r28
    1546:	1f 91       	pop	r17
    1548:	0f 91       	pop	r16
    154a:	ff 90       	pop	r15
    154c:	ef 90       	pop	r14
    154e:	df 90       	pop	r13
    1550:	cf 90       	pop	r12
    1552:	bf 90       	pop	r11
    1554:	af 90       	pop	r10
    1556:	9f 90       	pop	r9
    1558:	8f 90       	pop	r8
    155a:	08 95       	ret

0000155c <check_listenanzeige>:
    155c:	90 e0       	ldi	r25, 0x00	; 0
    155e:	fc 01       	movw	r30, r24
    1560:	31 97       	sbiw	r30, 0x01	; 1
    1562:	ea 30       	cpi	r30, 0x0A	; 10
    1564:	f1 05       	cpc	r31, r1
    1566:	08 f0       	brcs	.+2      	; 0x156a <check_listenanzeige+0xe>
    1568:	3b c0       	rjmp	.+118    	; 0x15e0 <check_listenanzeige+0x84>
    156a:	88 27       	eor	r24, r24
    156c:	e7 55       	subi	r30, 0x57	; 87
    156e:	ff 4f       	sbci	r31, 0xFF	; 255
    1570:	8f 4f       	sbci	r24, 0xFF	; 255
    1572:	0c 94 a7 23 	jmp	0x474e	; 0x474e <__tablejump2__>
    1576:	81 e0       	ldi	r24, 0x01	; 1
    1578:	eb ce       	rjmp	.-554    	; 0x1350 <choose_drink>
    157a:	08 95       	ret
    157c:	82 e0       	ldi	r24, 0x02	; 2
    157e:	e8 ce       	rjmp	.-560    	; 0x1350 <choose_drink>
    1580:	08 95       	ret
    1582:	83 e0       	ldi	r24, 0x03	; 3
    1584:	e5 ce       	rjmp	.-566    	; 0x1350 <choose_drink>
    1586:	08 95       	ret
    1588:	84 e0       	ldi	r24, 0x04	; 4
    158a:	e2 ce       	rjmp	.-572    	; 0x1350 <choose_drink>
    158c:	08 95       	ret
    158e:	85 e0       	ldi	r24, 0x05	; 5
    1590:	df ce       	rjmp	.-578    	; 0x1350 <choose_drink>
    1592:	08 95       	ret
    1594:	86 e0       	ldi	r24, 0x06	; 6
    1596:	dc ce       	rjmp	.-584    	; 0x1350 <choose_drink>
    1598:	08 95       	ret
    159a:	87 e0       	ldi	r24, 0x07	; 7
    159c:	d9 ce       	rjmp	.-590    	; 0x1350 <choose_drink>
    159e:	08 95       	ret
    15a0:	88 e0       	ldi	r24, 0x08	; 8
    15a2:	d6 ce       	rjmp	.-596    	; 0x1350 <choose_drink>
    15a4:	08 95       	ret
    15a6:	10 92 0a 09 	sts	0x090A, r1	; 0x80090a <block_list_runter>
    15aa:	80 91 17 0d 	lds	r24, 0x0D17	; 0x800d17 <block_list_hoch>
    15ae:	81 11       	cpse	r24, r1
    15b0:	17 c0       	rjmp	.+46     	; 0x15e0 <check_listenanzeige+0x84>
    15b2:	80 91 47 0f 	lds	r24, 0x0F47	; 0x800f47 <i_Liste>
    15b6:	88 50       	subi	r24, 0x08	; 8
    15b8:	80 93 47 0f 	sts	0x0F47, r24	; 0x800f47 <i_Liste>
    15bc:	8a e9       	ldi	r24, 0x9A	; 154
    15be:	93 e0       	ldi	r25, 0x03	; 3
    15c0:	d5 ce       	rjmp	.-598    	; 0x136c <erstelle_Liste_name>
    15c2:	08 95       	ret
    15c4:	10 92 17 0d 	sts	0x0D17, r1	; 0x800d17 <block_list_hoch>
    15c8:	80 91 0a 09 	lds	r24, 0x090A	; 0x80090a <block_list_runter>
    15cc:	81 11       	cpse	r24, r1
    15ce:	08 c0       	rjmp	.+16     	; 0x15e0 <check_listenanzeige+0x84>
    15d0:	80 91 47 0f 	lds	r24, 0x0F47	; 0x800f47 <i_Liste>
    15d4:	88 5f       	subi	r24, 0xF8	; 248
    15d6:	80 93 47 0f 	sts	0x0F47, r24	; 0x800f47 <i_Liste>
    15da:	8a e9       	ldi	r24, 0x9A	; 154
    15dc:	93 e0       	ldi	r25, 0x03	; 3
    15de:	c6 ce       	rjmp	.-628    	; 0x136c <erstelle_Liste_name>
    15e0:	08 95       	ret

000015e2 <check_menuanzeige>:
    15e2:	83 30       	cpi	r24, 0x03	; 3
    15e4:	91 f1       	breq	.+100    	; 0x164a <check_menuanzeige+0x68>
    15e6:	28 f4       	brcc	.+10     	; 0x15f2 <check_menuanzeige+0x10>
    15e8:	81 30       	cpi	r24, 0x01	; 1
    15ea:	41 f0       	breq	.+16     	; 0x15fc <check_menuanzeige+0x1a>
    15ec:	82 30       	cpi	r24, 0x02	; 2
    15ee:	79 f0       	breq	.+30     	; 0x160e <check_menuanzeige+0x2c>
    15f0:	08 95       	ret
    15f2:	84 30       	cpi	r24, 0x04	; 4
    15f4:	71 f1       	breq	.+92     	; 0x1652 <check_menuanzeige+0x70>
    15f6:	85 30       	cpi	r24, 0x05	; 5
    15f8:	81 f1       	breq	.+96     	; 0x165a <check_menuanzeige+0x78>
    15fa:	08 95       	ret
    15fc:	88 e0       	ldi	r24, 0x08	; 8
    15fe:	0e 94 de 13 	call	0x27bc	; 0x27bc <nextion_change_page>
    1602:	10 92 47 0f 	sts	0x0F47, r1	; 0x800f47 <i_Liste>
    1606:	85 e9       	ldi	r24, 0x95	; 149
    1608:	93 e0       	ldi	r25, 0x03	; 3
    160a:	b0 ce       	rjmp	.-672    	; 0x136c <erstelle_Liste_name>
    160c:	08 95       	ret
    160e:	80 e1       	ldi	r24, 0x10	; 16
    1610:	0e 94 de 13 	call	0x27bc	; 0x27bc <nextion_change_page>
    1614:	81 e0       	ldi	r24, 0x01	; 1
    1616:	80 93 03 09 	sts	0x0903, r24	; 0x800903 <Grossschreib>
    161a:	10 92 1d 0d 	sts	0x0D1D, r1	; 0x800d1d <counter>
    161e:	e3 e2       	ldi	r30, 0x23	; 35
    1620:	fd e0       	ldi	r31, 0x0D	; 13
    1622:	01 90       	ld	r0, Z+
    1624:	00 20       	and	r0, r0
    1626:	e9 f7       	brne	.-6      	; 0x1622 <check_menuanzeige+0x40>
    1628:	31 97       	sbiw	r30, 0x01	; 1
    162a:	cf 01       	movw	r24, r30
    162c:	83 52       	subi	r24, 0x23	; 35
    162e:	9d 40       	sbci	r25, 0x0D	; 13
    1630:	99 27       	eor	r25, r25
    1632:	18 16       	cp	r1, r24
    1634:	19 06       	cpc	r1, r25
    1636:	cc f4       	brge	.+50     	; 0x166a <check_menuanzeige+0x88>
    1638:	e3 e2       	ldi	r30, 0x23	; 35
    163a:	fd e0       	ldi	r31, 0x0D	; 13
    163c:	8d 5d       	subi	r24, 0xDD	; 221
    163e:	92 4f       	sbci	r25, 0xF2	; 242
    1640:	11 92       	st	Z+, r1
    1642:	e8 17       	cp	r30, r24
    1644:	f9 07       	cpc	r31, r25
    1646:	e1 f7       	brne	.-8      	; 0x1640 <check_menuanzeige+0x5e>
    1648:	08 95       	ret
    164a:	8a e0       	ldi	r24, 0x0A	; 10
    164c:	0c 94 de 13 	jmp	0x27bc	; 0x27bc <nextion_change_page>
    1650:	08 95       	ret
    1652:	8d e0       	ldi	r24, 0x0D	; 13
    1654:	0c 94 de 13 	jmp	0x27bc	; 0x27bc <nextion_change_page>
    1658:	08 95       	ret
    165a:	81 e0       	ldi	r24, 0x01	; 1
    165c:	0e 94 de 13 	call	0x27bc	; 0x27bc <nextion_change_page>
    1660:	80 91 4f 0f 	lds	r24, 0x0F4F	; 0x800f4f <aktuellesGetraenk>
    1664:	90 91 50 0f 	lds	r25, 0x0F50	; 0x800f50 <aktuellesGetraenk+0x1>
    1668:	d7 c8       	rjmp	.-3666   	; 0x818 <setze_startanzeige>
    166a:	08 95       	ret

0000166c <check_startseite>:
    166c:	84 30       	cpi	r24, 0x04	; 4
    166e:	a1 f1       	breq	.+104    	; 0x16d8 <check_startseite+0x6c>
    1670:	28 f4       	brcc	.+10     	; 0x167c <check_startseite+0x10>
    1672:	82 30       	cpi	r24, 0x02	; 2
    1674:	59 f0       	breq	.+22     	; 0x168c <check_startseite+0x20>
    1676:	83 30       	cpi	r24, 0x03	; 3
    1678:	e1 f0       	breq	.+56     	; 0x16b2 <check_startseite+0x46>
    167a:	08 95       	ret
    167c:	86 30       	cpi	r24, 0x06	; 6
    167e:	09 f4       	brne	.+2      	; 0x1682 <check_startseite+0x16>
    1680:	48 c0       	rjmp	.+144    	; 0x1712 <check_startseite+0xa6>
    1682:	a0 f1       	brcs	.+104    	; 0x16ec <check_startseite+0x80>
    1684:	87 30       	cpi	r24, 0x07	; 7
    1686:	09 f4       	brne	.+2      	; 0x168a <check_startseite+0x1e>
    1688:	4d c0       	rjmp	.+154    	; 0x1724 <check_startseite+0xb8>
    168a:	08 95       	ret
    168c:	82 e0       	ldi	r24, 0x02	; 2
    168e:	0e 94 de 13 	call	0x27bc	; 0x27bc <nextion_change_page>
    1692:	e0 91 4f 0f 	lds	r30, 0x0F4F	; 0x800f4f <aktuellesGetraenk>
    1696:	f0 91 50 0f 	lds	r31, 0x0F50	; 0x800f50 <aktuellesGetraenk+0x1>
    169a:	60 81       	ld	r22, Z
    169c:	71 81       	ldd	r23, Z+1	; 0x01
    169e:	83 e0       	ldi	r24, 0x03	; 3
    16a0:	93 e0       	ldi	r25, 0x03	; 3
    16a2:	0e 94 fd 13 	call	0x27fa	; 0x27fa <nextion_setText>
    16a6:	80 91 4f 0f 	lds	r24, 0x0F4F	; 0x800f4f <aktuellesGetraenk>
    16aa:	90 91 50 0f 	lds	r25, 0x0F50	; 0x800f50 <aktuellesGetraenk+0x1>
    16ae:	62 c9       	rjmp	.-3388   	; 0x974 <erstelle_Zutatenliste>
    16b0:	08 95       	ret
    16b2:	e0 91 ff 08 	lds	r30, 0x08FF	; 0x8008ff <aktuellesGetraenk_file>
    16b6:	f0 91 00 09 	lds	r31, 0x0900	; 0x800900 <aktuellesGetraenk_file+0x1>
    16ba:	01 80       	ldd	r0, Z+1	; 0x01
    16bc:	f2 81       	ldd	r31, Z+2	; 0x02
    16be:	e0 2d       	mov	r30, r0
    16c0:	f0 93 00 09 	sts	0x0900, r31	; 0x800900 <aktuellesGetraenk_file+0x1>
    16c4:	e0 93 ff 08 	sts	0x08FF, r30	; 0x8008ff <aktuellesGetraenk_file>
    16c8:	80 81       	ld	r24, Z
    16ca:	4e da       	rcall	.-2916   	; 0xb68 <lese_textfile_in_getraenk>
    16cc:	80 91 4f 0f 	lds	r24, 0x0F4F	; 0x800f4f <aktuellesGetraenk>
    16d0:	90 91 50 0f 	lds	r25, 0x0F50	; 0x800f50 <aktuellesGetraenk+0x1>
    16d4:	a1 c8       	rjmp	.-3774   	; 0x818 <setze_startanzeige>
    16d6:	08 95       	ret
    16d8:	84 e0       	ldi	r24, 0x04	; 4
    16da:	0e 94 de 13 	call	0x27bc	; 0x27bc <nextion_change_page>
    16de:	e0 91 ff 08 	lds	r30, 0x08FF	; 0x8008ff <aktuellesGetraenk_file>
    16e2:	f0 91 00 09 	lds	r31, 0x0900	; 0x800900 <aktuellesGetraenk_file+0x1>
    16e6:	80 81       	ld	r24, Z
    16e8:	3f ca       	rjmp	.-2946   	; 0xb68 <lese_textfile_in_getraenk>
    16ea:	08 95       	ret
    16ec:	e0 91 ff 08 	lds	r30, 0x08FF	; 0x8008ff <aktuellesGetraenk_file>
    16f0:	f0 91 00 09 	lds	r31, 0x0900	; 0x800900 <aktuellesGetraenk_file+0x1>
    16f4:	03 80       	ldd	r0, Z+3	; 0x03
    16f6:	f4 81       	ldd	r31, Z+4	; 0x04
    16f8:	e0 2d       	mov	r30, r0
    16fa:	f0 93 00 09 	sts	0x0900, r31	; 0x800900 <aktuellesGetraenk_file+0x1>
    16fe:	e0 93 ff 08 	sts	0x08FF, r30	; 0x8008ff <aktuellesGetraenk_file>
    1702:	80 81       	ld	r24, Z
    1704:	31 da       	rcall	.-2974   	; 0xb68 <lese_textfile_in_getraenk>
    1706:	80 91 4f 0f 	lds	r24, 0x0F4F	; 0x800f4f <aktuellesGetraenk>
    170a:	90 91 50 0f 	lds	r25, 0x0F50	; 0x800f50 <aktuellesGetraenk+0x1>
    170e:	84 c8       	rjmp	.-3832   	; 0x818 <setze_startanzeige>
    1710:	08 95       	ret
    1712:	83 e0       	ldi	r24, 0x03	; 3
    1714:	0e 94 de 13 	call	0x27bc	; 0x27bc <nextion_change_page>
    1718:	10 92 47 0f 	sts	0x0F47, r1	; 0x800f47 <i_Liste>
    171c:	8a e9       	ldi	r24, 0x9A	; 154
    171e:	93 e0       	ldi	r25, 0x03	; 3
    1720:	25 ce       	rjmp	.-950    	; 0x136c <erstelle_Liste_name>
    1722:	08 95       	ret
    1724:	87 e0       	ldi	r24, 0x07	; 7
    1726:	0c 94 de 13 	jmp	0x27bc	; 0x27bc <nextion_change_page>
    172a:	08 95       	ret

0000172c <check_bearbeitungsanzeige>:
    172c:	90 e0       	ldi	r25, 0x00	; 0
    172e:	fc 01       	movw	r30, r24
    1730:	31 97       	sbiw	r30, 0x01	; 1
    1732:	ea 30       	cpi	r30, 0x0A	; 10
    1734:	f1 05       	cpc	r31, r1
    1736:	08 f0       	brcs	.+2      	; 0x173a <check_bearbeitungsanzeige+0xe>
    1738:	cc c1       	rjmp	.+920    	; 0x1ad2 <check_bearbeitungsanzeige+0x3a6>
    173a:	88 27       	eor	r24, r24
    173c:	ed 54       	subi	r30, 0x4D	; 77
    173e:	ff 4f       	sbci	r31, 0xFF	; 255
    1740:	8f 4f       	sbci	r24, 0xFF	; 255
    1742:	0c 94 a7 23 	jmp	0x474e	; 0x474e <__tablejump2__>
    1746:	80 91 d6 07 	lds	r24, 0x07D6	; 0x8007d6 <tail_getraenk_file>
    174a:	90 91 d7 07 	lds	r25, 0x07D7	; 0x8007d7 <tail_getraenk_file+0x1>
    174e:	90 93 00 09 	sts	0x0900, r25	; 0x800900 <aktuellesGetraenk_file+0x1>
    1752:	80 93 ff 08 	sts	0x08FF, r24	; 0x8008ff <aktuellesGetraenk_file>
    1756:	40 91 47 0f 	lds	r20, 0x0F47	; 0x800f47 <i_Liste>
    175a:	50 e0       	ldi	r21, 0x00	; 0
    175c:	4f 5f       	subi	r20, 0xFF	; 255
    175e:	5f 4f       	sbci	r21, 0xFF	; 255
    1760:	80 e0       	ldi	r24, 0x00	; 0
    1762:	90 e0       	ldi	r25, 0x00	; 0
    1764:	e0 91 ff 08 	lds	r30, 0x08FF	; 0x8008ff <aktuellesGetraenk_file>
    1768:	f0 91 00 09 	lds	r31, 0x0900	; 0x800900 <aktuellesGetraenk_file+0x1>
    176c:	21 81       	ldd	r18, Z+1	; 0x01
    176e:	32 81       	ldd	r19, Z+2	; 0x02
    1770:	30 93 00 09 	sts	0x0900, r19	; 0x800900 <aktuellesGetraenk_file+0x1>
    1774:	20 93 ff 08 	sts	0x08FF, r18	; 0x8008ff <aktuellesGetraenk_file>
    1778:	01 96       	adiw	r24, 0x01	; 1
    177a:	84 17       	cp	r24, r20
    177c:	95 07       	cpc	r25, r21
    177e:	94 f3       	brlt	.-28     	; 0x1764 <check_bearbeitungsanzeige+0x38>
    1780:	f9 01       	movw	r30, r18
    1782:	80 81       	ld	r24, Z
    1784:	f1 d9       	rcall	.-3102   	; 0xb68 <lese_textfile_in_getraenk>
    1786:	89 e0       	ldi	r24, 0x09	; 9
    1788:	0e 94 de 13 	call	0x27bc	; 0x27bc <nextion_change_page>
    178c:	10 92 47 0f 	sts	0x0F47, r1	; 0x800f47 <i_Liste>
    1790:	10 92 17 0d 	sts	0x0D17, r1	; 0x800d17 <block_list_hoch>
    1794:	10 92 0a 09 	sts	0x090A, r1	; 0x80090a <block_list_runter>
    1798:	80 91 04 09 	lds	r24, 0x0904	; 0x800904 <head_zut>
    179c:	90 91 05 09 	lds	r25, 0x0905	; 0x800905 <head_zut+0x1>
    17a0:	90 93 52 0f 	sts	0x0F52, r25	; 0x800f52 <aktuelleZutat+0x1>
    17a4:	80 93 51 0f 	sts	0x0F51, r24	; 0x800f51 <aktuelleZutat>
    17a8:	85 e8       	ldi	r24, 0x85	; 133
    17aa:	93 e0       	ldi	r25, 0x03	; 3
    17ac:	0c 94 c2 02 	jmp	0x584	; 0x584 <erstelle_Liste_zutat>
    17b0:	08 95       	ret
    17b2:	80 91 d6 07 	lds	r24, 0x07D6	; 0x8007d6 <tail_getraenk_file>
    17b6:	90 91 d7 07 	lds	r25, 0x07D7	; 0x8007d7 <tail_getraenk_file+0x1>
    17ba:	90 93 00 09 	sts	0x0900, r25	; 0x800900 <aktuellesGetraenk_file+0x1>
    17be:	80 93 ff 08 	sts	0x08FF, r24	; 0x8008ff <aktuellesGetraenk_file>
    17c2:	40 91 47 0f 	lds	r20, 0x0F47	; 0x800f47 <i_Liste>
    17c6:	50 e0       	ldi	r21, 0x00	; 0
    17c8:	4e 5f       	subi	r20, 0xFE	; 254
    17ca:	5f 4f       	sbci	r21, 0xFF	; 255
    17cc:	80 e0       	ldi	r24, 0x00	; 0
    17ce:	90 e0       	ldi	r25, 0x00	; 0
    17d0:	e0 91 ff 08 	lds	r30, 0x08FF	; 0x8008ff <aktuellesGetraenk_file>
    17d4:	f0 91 00 09 	lds	r31, 0x0900	; 0x800900 <aktuellesGetraenk_file+0x1>
    17d8:	21 81       	ldd	r18, Z+1	; 0x01
    17da:	32 81       	ldd	r19, Z+2	; 0x02
    17dc:	30 93 00 09 	sts	0x0900, r19	; 0x800900 <aktuellesGetraenk_file+0x1>
    17e0:	20 93 ff 08 	sts	0x08FF, r18	; 0x8008ff <aktuellesGetraenk_file>
    17e4:	01 96       	adiw	r24, 0x01	; 1
    17e6:	84 17       	cp	r24, r20
    17e8:	95 07       	cpc	r25, r21
    17ea:	94 f3       	brlt	.-28     	; 0x17d0 <check_bearbeitungsanzeige+0xa4>
    17ec:	f9 01       	movw	r30, r18
    17ee:	80 81       	ld	r24, Z
    17f0:	bb d9       	rcall	.-3210   	; 0xb68 <lese_textfile_in_getraenk>
    17f2:	89 e0       	ldi	r24, 0x09	; 9
    17f4:	e3 d7       	rcall	.+4038   	; 0x27bc <nextion_change_page>
    17f6:	10 92 47 0f 	sts	0x0F47, r1	; 0x800f47 <i_Liste>
    17fa:	10 92 17 0d 	sts	0x0D17, r1	; 0x800d17 <block_list_hoch>
    17fe:	10 92 0a 09 	sts	0x090A, r1	; 0x80090a <block_list_runter>
    1802:	80 91 04 09 	lds	r24, 0x0904	; 0x800904 <head_zut>
    1806:	90 91 05 09 	lds	r25, 0x0905	; 0x800905 <head_zut+0x1>
    180a:	90 93 52 0f 	sts	0x0F52, r25	; 0x800f52 <aktuelleZutat+0x1>
    180e:	80 93 51 0f 	sts	0x0F51, r24	; 0x800f51 <aktuelleZutat>
    1812:	85 e8       	ldi	r24, 0x85	; 133
    1814:	93 e0       	ldi	r25, 0x03	; 3
    1816:	0c 94 c2 02 	jmp	0x584	; 0x584 <erstelle_Liste_zutat>
    181a:	08 95       	ret
    181c:	80 91 d6 07 	lds	r24, 0x07D6	; 0x8007d6 <tail_getraenk_file>
    1820:	90 91 d7 07 	lds	r25, 0x07D7	; 0x8007d7 <tail_getraenk_file+0x1>
    1824:	90 93 00 09 	sts	0x0900, r25	; 0x800900 <aktuellesGetraenk_file+0x1>
    1828:	80 93 ff 08 	sts	0x08FF, r24	; 0x8008ff <aktuellesGetraenk_file>
    182c:	40 91 47 0f 	lds	r20, 0x0F47	; 0x800f47 <i_Liste>
    1830:	50 e0       	ldi	r21, 0x00	; 0
    1832:	4d 5f       	subi	r20, 0xFD	; 253
    1834:	5f 4f       	sbci	r21, 0xFF	; 255
    1836:	80 e0       	ldi	r24, 0x00	; 0
    1838:	90 e0       	ldi	r25, 0x00	; 0
    183a:	e0 91 ff 08 	lds	r30, 0x08FF	; 0x8008ff <aktuellesGetraenk_file>
    183e:	f0 91 00 09 	lds	r31, 0x0900	; 0x800900 <aktuellesGetraenk_file+0x1>
    1842:	21 81       	ldd	r18, Z+1	; 0x01
    1844:	32 81       	ldd	r19, Z+2	; 0x02
    1846:	30 93 00 09 	sts	0x0900, r19	; 0x800900 <aktuellesGetraenk_file+0x1>
    184a:	20 93 ff 08 	sts	0x08FF, r18	; 0x8008ff <aktuellesGetraenk_file>
    184e:	01 96       	adiw	r24, 0x01	; 1
    1850:	84 17       	cp	r24, r20
    1852:	95 07       	cpc	r25, r21
    1854:	94 f3       	brlt	.-28     	; 0x183a <check_bearbeitungsanzeige+0x10e>
    1856:	f9 01       	movw	r30, r18
    1858:	80 81       	ld	r24, Z
    185a:	86 d9       	rcall	.-3316   	; 0xb68 <lese_textfile_in_getraenk>
    185c:	89 e0       	ldi	r24, 0x09	; 9
    185e:	ae d7       	rcall	.+3932   	; 0x27bc <nextion_change_page>
    1860:	10 92 47 0f 	sts	0x0F47, r1	; 0x800f47 <i_Liste>
    1864:	10 92 17 0d 	sts	0x0D17, r1	; 0x800d17 <block_list_hoch>
    1868:	10 92 0a 09 	sts	0x090A, r1	; 0x80090a <block_list_runter>
    186c:	80 91 04 09 	lds	r24, 0x0904	; 0x800904 <head_zut>
    1870:	90 91 05 09 	lds	r25, 0x0905	; 0x800905 <head_zut+0x1>
    1874:	90 93 52 0f 	sts	0x0F52, r25	; 0x800f52 <aktuelleZutat+0x1>
    1878:	80 93 51 0f 	sts	0x0F51, r24	; 0x800f51 <aktuelleZutat>
    187c:	85 e8       	ldi	r24, 0x85	; 133
    187e:	93 e0       	ldi	r25, 0x03	; 3
    1880:	0c 94 c2 02 	jmp	0x584	; 0x584 <erstelle_Liste_zutat>
    1884:	08 95       	ret
    1886:	80 91 d6 07 	lds	r24, 0x07D6	; 0x8007d6 <tail_getraenk_file>
    188a:	90 91 d7 07 	lds	r25, 0x07D7	; 0x8007d7 <tail_getraenk_file+0x1>
    188e:	90 93 00 09 	sts	0x0900, r25	; 0x800900 <aktuellesGetraenk_file+0x1>
    1892:	80 93 ff 08 	sts	0x08FF, r24	; 0x8008ff <aktuellesGetraenk_file>
    1896:	40 91 47 0f 	lds	r20, 0x0F47	; 0x800f47 <i_Liste>
    189a:	50 e0       	ldi	r21, 0x00	; 0
    189c:	4c 5f       	subi	r20, 0xFC	; 252
    189e:	5f 4f       	sbci	r21, 0xFF	; 255
    18a0:	80 e0       	ldi	r24, 0x00	; 0
    18a2:	90 e0       	ldi	r25, 0x00	; 0
    18a4:	e0 91 ff 08 	lds	r30, 0x08FF	; 0x8008ff <aktuellesGetraenk_file>
    18a8:	f0 91 00 09 	lds	r31, 0x0900	; 0x800900 <aktuellesGetraenk_file+0x1>
    18ac:	21 81       	ldd	r18, Z+1	; 0x01
    18ae:	32 81       	ldd	r19, Z+2	; 0x02
    18b0:	30 93 00 09 	sts	0x0900, r19	; 0x800900 <aktuellesGetraenk_file+0x1>
    18b4:	20 93 ff 08 	sts	0x08FF, r18	; 0x8008ff <aktuellesGetraenk_file>
    18b8:	01 96       	adiw	r24, 0x01	; 1
    18ba:	84 17       	cp	r24, r20
    18bc:	95 07       	cpc	r25, r21
    18be:	94 f3       	brlt	.-28     	; 0x18a4 <check_bearbeitungsanzeige+0x178>
    18c0:	f9 01       	movw	r30, r18
    18c2:	80 81       	ld	r24, Z
    18c4:	51 d9       	rcall	.-3422   	; 0xb68 <lese_textfile_in_getraenk>
    18c6:	89 e0       	ldi	r24, 0x09	; 9
    18c8:	79 d7       	rcall	.+3826   	; 0x27bc <nextion_change_page>
    18ca:	10 92 47 0f 	sts	0x0F47, r1	; 0x800f47 <i_Liste>
    18ce:	10 92 17 0d 	sts	0x0D17, r1	; 0x800d17 <block_list_hoch>
    18d2:	10 92 0a 09 	sts	0x090A, r1	; 0x80090a <block_list_runter>
    18d6:	80 91 04 09 	lds	r24, 0x0904	; 0x800904 <head_zut>
    18da:	90 91 05 09 	lds	r25, 0x0905	; 0x800905 <head_zut+0x1>
    18de:	90 93 52 0f 	sts	0x0F52, r25	; 0x800f52 <aktuelleZutat+0x1>
    18e2:	80 93 51 0f 	sts	0x0F51, r24	; 0x800f51 <aktuelleZutat>
    18e6:	85 e8       	ldi	r24, 0x85	; 133
    18e8:	93 e0       	ldi	r25, 0x03	; 3
    18ea:	0c 94 c2 02 	jmp	0x584	; 0x584 <erstelle_Liste_zutat>
    18ee:	08 95       	ret
    18f0:	80 91 d6 07 	lds	r24, 0x07D6	; 0x8007d6 <tail_getraenk_file>
    18f4:	90 91 d7 07 	lds	r25, 0x07D7	; 0x8007d7 <tail_getraenk_file+0x1>
    18f8:	90 93 00 09 	sts	0x0900, r25	; 0x800900 <aktuellesGetraenk_file+0x1>
    18fc:	80 93 ff 08 	sts	0x08FF, r24	; 0x8008ff <aktuellesGetraenk_file>
    1900:	40 91 47 0f 	lds	r20, 0x0F47	; 0x800f47 <i_Liste>
    1904:	50 e0       	ldi	r21, 0x00	; 0
    1906:	4b 5f       	subi	r20, 0xFB	; 251
    1908:	5f 4f       	sbci	r21, 0xFF	; 255
    190a:	80 e0       	ldi	r24, 0x00	; 0
    190c:	90 e0       	ldi	r25, 0x00	; 0
    190e:	e0 91 ff 08 	lds	r30, 0x08FF	; 0x8008ff <aktuellesGetraenk_file>
    1912:	f0 91 00 09 	lds	r31, 0x0900	; 0x800900 <aktuellesGetraenk_file+0x1>
    1916:	21 81       	ldd	r18, Z+1	; 0x01
    1918:	32 81       	ldd	r19, Z+2	; 0x02
    191a:	30 93 00 09 	sts	0x0900, r19	; 0x800900 <aktuellesGetraenk_file+0x1>
    191e:	20 93 ff 08 	sts	0x08FF, r18	; 0x8008ff <aktuellesGetraenk_file>
    1922:	01 96       	adiw	r24, 0x01	; 1
    1924:	84 17       	cp	r24, r20
    1926:	95 07       	cpc	r25, r21
    1928:	94 f3       	brlt	.-28     	; 0x190e <check_bearbeitungsanzeige+0x1e2>
    192a:	f9 01       	movw	r30, r18
    192c:	80 81       	ld	r24, Z
    192e:	1c d9       	rcall	.-3528   	; 0xb68 <lese_textfile_in_getraenk>
    1930:	89 e0       	ldi	r24, 0x09	; 9
    1932:	44 d7       	rcall	.+3720   	; 0x27bc <nextion_change_page>
    1934:	10 92 47 0f 	sts	0x0F47, r1	; 0x800f47 <i_Liste>
    1938:	10 92 17 0d 	sts	0x0D17, r1	; 0x800d17 <block_list_hoch>
    193c:	10 92 0a 09 	sts	0x090A, r1	; 0x80090a <block_list_runter>
    1940:	80 91 04 09 	lds	r24, 0x0904	; 0x800904 <head_zut>
    1944:	90 91 05 09 	lds	r25, 0x0905	; 0x800905 <head_zut+0x1>
    1948:	90 93 52 0f 	sts	0x0F52, r25	; 0x800f52 <aktuelleZutat+0x1>
    194c:	80 93 51 0f 	sts	0x0F51, r24	; 0x800f51 <aktuelleZutat>
    1950:	85 e8       	ldi	r24, 0x85	; 133
    1952:	93 e0       	ldi	r25, 0x03	; 3
    1954:	0c 94 c2 02 	jmp	0x584	; 0x584 <erstelle_Liste_zutat>
    1958:	08 95       	ret
    195a:	80 91 d6 07 	lds	r24, 0x07D6	; 0x8007d6 <tail_getraenk_file>
    195e:	90 91 d7 07 	lds	r25, 0x07D7	; 0x8007d7 <tail_getraenk_file+0x1>
    1962:	90 93 00 09 	sts	0x0900, r25	; 0x800900 <aktuellesGetraenk_file+0x1>
    1966:	80 93 ff 08 	sts	0x08FF, r24	; 0x8008ff <aktuellesGetraenk_file>
    196a:	40 91 47 0f 	lds	r20, 0x0F47	; 0x800f47 <i_Liste>
    196e:	50 e0       	ldi	r21, 0x00	; 0
    1970:	4a 5f       	subi	r20, 0xFA	; 250
    1972:	5f 4f       	sbci	r21, 0xFF	; 255
    1974:	80 e0       	ldi	r24, 0x00	; 0
    1976:	90 e0       	ldi	r25, 0x00	; 0
    1978:	e0 91 ff 08 	lds	r30, 0x08FF	; 0x8008ff <aktuellesGetraenk_file>
    197c:	f0 91 00 09 	lds	r31, 0x0900	; 0x800900 <aktuellesGetraenk_file+0x1>
    1980:	21 81       	ldd	r18, Z+1	; 0x01
    1982:	32 81       	ldd	r19, Z+2	; 0x02
    1984:	30 93 00 09 	sts	0x0900, r19	; 0x800900 <aktuellesGetraenk_file+0x1>
    1988:	20 93 ff 08 	sts	0x08FF, r18	; 0x8008ff <aktuellesGetraenk_file>
    198c:	01 96       	adiw	r24, 0x01	; 1
    198e:	84 17       	cp	r24, r20
    1990:	95 07       	cpc	r25, r21
    1992:	94 f3       	brlt	.-28     	; 0x1978 <check_bearbeitungsanzeige+0x24c>
    1994:	f9 01       	movw	r30, r18
    1996:	80 81       	ld	r24, Z
    1998:	e7 d8       	rcall	.-3634   	; 0xb68 <lese_textfile_in_getraenk>
    199a:	89 e0       	ldi	r24, 0x09	; 9
    199c:	0f d7       	rcall	.+3614   	; 0x27bc <nextion_change_page>
    199e:	10 92 47 0f 	sts	0x0F47, r1	; 0x800f47 <i_Liste>
    19a2:	10 92 17 0d 	sts	0x0D17, r1	; 0x800d17 <block_list_hoch>
    19a6:	10 92 0a 09 	sts	0x090A, r1	; 0x80090a <block_list_runter>
    19aa:	80 91 04 09 	lds	r24, 0x0904	; 0x800904 <head_zut>
    19ae:	90 91 05 09 	lds	r25, 0x0905	; 0x800905 <head_zut+0x1>
    19b2:	90 93 52 0f 	sts	0x0F52, r25	; 0x800f52 <aktuelleZutat+0x1>
    19b6:	80 93 51 0f 	sts	0x0F51, r24	; 0x800f51 <aktuelleZutat>
    19ba:	85 e8       	ldi	r24, 0x85	; 133
    19bc:	93 e0       	ldi	r25, 0x03	; 3
    19be:	0c 94 c2 02 	jmp	0x584	; 0x584 <erstelle_Liste_zutat>
    19c2:	08 95       	ret
    19c4:	80 91 d6 07 	lds	r24, 0x07D6	; 0x8007d6 <tail_getraenk_file>
    19c8:	90 91 d7 07 	lds	r25, 0x07D7	; 0x8007d7 <tail_getraenk_file+0x1>
    19cc:	90 93 00 09 	sts	0x0900, r25	; 0x800900 <aktuellesGetraenk_file+0x1>
    19d0:	80 93 ff 08 	sts	0x08FF, r24	; 0x8008ff <aktuellesGetraenk_file>
    19d4:	40 91 47 0f 	lds	r20, 0x0F47	; 0x800f47 <i_Liste>
    19d8:	50 e0       	ldi	r21, 0x00	; 0
    19da:	49 5f       	subi	r20, 0xF9	; 249
    19dc:	5f 4f       	sbci	r21, 0xFF	; 255
    19de:	80 e0       	ldi	r24, 0x00	; 0
    19e0:	90 e0       	ldi	r25, 0x00	; 0
    19e2:	e0 91 ff 08 	lds	r30, 0x08FF	; 0x8008ff <aktuellesGetraenk_file>
    19e6:	f0 91 00 09 	lds	r31, 0x0900	; 0x800900 <aktuellesGetraenk_file+0x1>
    19ea:	21 81       	ldd	r18, Z+1	; 0x01
    19ec:	32 81       	ldd	r19, Z+2	; 0x02
    19ee:	30 93 00 09 	sts	0x0900, r19	; 0x800900 <aktuellesGetraenk_file+0x1>
    19f2:	20 93 ff 08 	sts	0x08FF, r18	; 0x8008ff <aktuellesGetraenk_file>
    19f6:	01 96       	adiw	r24, 0x01	; 1
    19f8:	84 17       	cp	r24, r20
    19fa:	95 07       	cpc	r25, r21
    19fc:	94 f3       	brlt	.-28     	; 0x19e2 <check_bearbeitungsanzeige+0x2b6>
    19fe:	f9 01       	movw	r30, r18
    1a00:	80 81       	ld	r24, Z
    1a02:	b2 d8       	rcall	.-3740   	; 0xb68 <lese_textfile_in_getraenk>
    1a04:	89 e0       	ldi	r24, 0x09	; 9
    1a06:	da d6       	rcall	.+3508   	; 0x27bc <nextion_change_page>
    1a08:	10 92 47 0f 	sts	0x0F47, r1	; 0x800f47 <i_Liste>
    1a0c:	10 92 17 0d 	sts	0x0D17, r1	; 0x800d17 <block_list_hoch>
    1a10:	10 92 0a 09 	sts	0x090A, r1	; 0x80090a <block_list_runter>
    1a14:	80 91 04 09 	lds	r24, 0x0904	; 0x800904 <head_zut>
    1a18:	90 91 05 09 	lds	r25, 0x0905	; 0x800905 <head_zut+0x1>
    1a1c:	90 93 52 0f 	sts	0x0F52, r25	; 0x800f52 <aktuelleZutat+0x1>
    1a20:	80 93 51 0f 	sts	0x0F51, r24	; 0x800f51 <aktuelleZutat>
    1a24:	85 e8       	ldi	r24, 0x85	; 133
    1a26:	93 e0       	ldi	r25, 0x03	; 3
    1a28:	0c 94 c2 02 	jmp	0x584	; 0x584 <erstelle_Liste_zutat>
    1a2c:	08 95       	ret
    1a2e:	80 91 d6 07 	lds	r24, 0x07D6	; 0x8007d6 <tail_getraenk_file>
    1a32:	90 91 d7 07 	lds	r25, 0x07D7	; 0x8007d7 <tail_getraenk_file+0x1>
    1a36:	90 93 00 09 	sts	0x0900, r25	; 0x800900 <aktuellesGetraenk_file+0x1>
    1a3a:	80 93 ff 08 	sts	0x08FF, r24	; 0x8008ff <aktuellesGetraenk_file>
    1a3e:	40 91 47 0f 	lds	r20, 0x0F47	; 0x800f47 <i_Liste>
    1a42:	50 e0       	ldi	r21, 0x00	; 0
    1a44:	48 5f       	subi	r20, 0xF8	; 248
    1a46:	5f 4f       	sbci	r21, 0xFF	; 255
    1a48:	80 e0       	ldi	r24, 0x00	; 0
    1a4a:	90 e0       	ldi	r25, 0x00	; 0
    1a4c:	e0 91 ff 08 	lds	r30, 0x08FF	; 0x8008ff <aktuellesGetraenk_file>
    1a50:	f0 91 00 09 	lds	r31, 0x0900	; 0x800900 <aktuellesGetraenk_file+0x1>
    1a54:	21 81       	ldd	r18, Z+1	; 0x01
    1a56:	32 81       	ldd	r19, Z+2	; 0x02
    1a58:	30 93 00 09 	sts	0x0900, r19	; 0x800900 <aktuellesGetraenk_file+0x1>
    1a5c:	20 93 ff 08 	sts	0x08FF, r18	; 0x8008ff <aktuellesGetraenk_file>
    1a60:	01 96       	adiw	r24, 0x01	; 1
    1a62:	84 17       	cp	r24, r20
    1a64:	95 07       	cpc	r25, r21
    1a66:	94 f3       	brlt	.-28     	; 0x1a4c <check_bearbeitungsanzeige+0x320>
    1a68:	f9 01       	movw	r30, r18
    1a6a:	80 81       	ld	r24, Z
    1a6c:	7d d8       	rcall	.-3846   	; 0xb68 <lese_textfile_in_getraenk>
    1a6e:	89 e0       	ldi	r24, 0x09	; 9
    1a70:	a5 d6       	rcall	.+3402   	; 0x27bc <nextion_change_page>
    1a72:	10 92 47 0f 	sts	0x0F47, r1	; 0x800f47 <i_Liste>
    1a76:	10 92 17 0d 	sts	0x0D17, r1	; 0x800d17 <block_list_hoch>
    1a7a:	10 92 0a 09 	sts	0x090A, r1	; 0x80090a <block_list_runter>
    1a7e:	80 91 04 09 	lds	r24, 0x0904	; 0x800904 <head_zut>
    1a82:	90 91 05 09 	lds	r25, 0x0905	; 0x800905 <head_zut+0x1>
    1a86:	90 93 52 0f 	sts	0x0F52, r25	; 0x800f52 <aktuelleZutat+0x1>
    1a8a:	80 93 51 0f 	sts	0x0F51, r24	; 0x800f51 <aktuelleZutat>
    1a8e:	85 e8       	ldi	r24, 0x85	; 133
    1a90:	93 e0       	ldi	r25, 0x03	; 3
    1a92:	0c 94 c2 02 	jmp	0x584	; 0x584 <erstelle_Liste_zutat>
    1a96:	08 95       	ret
    1a98:	10 92 0a 09 	sts	0x090A, r1	; 0x80090a <block_list_runter>
    1a9c:	80 91 17 0d 	lds	r24, 0x0D17	; 0x800d17 <block_list_hoch>
    1aa0:	81 11       	cpse	r24, r1
    1aa2:	17 c0       	rjmp	.+46     	; 0x1ad2 <check_bearbeitungsanzeige+0x3a6>
    1aa4:	80 91 47 0f 	lds	r24, 0x0F47	; 0x800f47 <i_Liste>
    1aa8:	88 50       	subi	r24, 0x08	; 8
    1aaa:	80 93 47 0f 	sts	0x0F47, r24	; 0x800f47 <i_Liste>
    1aae:	85 e9       	ldi	r24, 0x95	; 149
    1ab0:	93 e0       	ldi	r25, 0x03	; 3
    1ab2:	5c cc       	rjmp	.-1864   	; 0x136c <erstelle_Liste_name>
    1ab4:	08 95       	ret
    1ab6:	10 92 17 0d 	sts	0x0D17, r1	; 0x800d17 <block_list_hoch>
    1aba:	80 91 0a 09 	lds	r24, 0x090A	; 0x80090a <block_list_runter>
    1abe:	81 11       	cpse	r24, r1
    1ac0:	08 c0       	rjmp	.+16     	; 0x1ad2 <check_bearbeitungsanzeige+0x3a6>
    1ac2:	80 91 47 0f 	lds	r24, 0x0F47	; 0x800f47 <i_Liste>
    1ac6:	88 5f       	subi	r24, 0xF8	; 248
    1ac8:	80 93 47 0f 	sts	0x0F47, r24	; 0x800f47 <i_Liste>
    1acc:	85 e9       	ldi	r24, 0x95	; 149
    1ace:	93 e0       	ldi	r25, 0x03	; 3
    1ad0:	4d cc       	rjmp	.-1894   	; 0x136c <erstelle_Liste_name>
    1ad2:	08 95       	ret

00001ad4 <SD_startup>:
	}
}

void SD_startup(void)
{
	cardType = 0;
    1ad4:	10 92 42 0f 	sts	0x0F42, r1	; 0x800f42 <cardType>

	for (i=0; i<10; i++)
    1ad8:	10 92 11 0a 	sts	0x0A11, r1	; 0x800a11 <i+0x1>
    1adc:	10 92 10 0a 	sts	0x0A10, r1	; 0x800a10 <i>
	{
		error = SD_init();
    1ae0:	0e 94 56 20 	call	0x40ac	; 0x40ac <SD_init>
    1ae4:	80 93 43 0f 	sts	0x0F43, r24	; 0x800f43 <error>
		if(!error) break;
    1ae8:	88 23       	and	r24, r24
    1aea:	09 f4       	brne	.+2      	; 0x1aee <SD_startup+0x1a>
    1aec:	62 c0       	rjmp	.+196    	; 0x1bb2 <SD_startup+0xde>

void SD_startup(void)
{
	cardType = 0;

	for (i=0; i<10; i++)
    1aee:	20 91 10 0a 	lds	r18, 0x0A10	; 0x800a10 <i>
    1af2:	30 91 11 0a 	lds	r19, 0x0A11	; 0x800a11 <i+0x1>
    1af6:	2f 5f       	subi	r18, 0xFF	; 255
    1af8:	3f 4f       	sbci	r19, 0xFF	; 255
    1afa:	30 93 11 0a 	sts	0x0A11, r19	; 0x800a11 <i+0x1>
    1afe:	20 93 10 0a 	sts	0x0A10, r18	; 0x800a10 <i>
    1b02:	2a 30       	cpi	r18, 0x0A	; 10
    1b04:	31 05       	cpc	r19, r1
    1b06:	60 f3       	brcs	.-40     	; 0x1ae0 <SD_startup+0xc>
    1b08:	5d c0       	rjmp	.+186    	; 0x1bc4 <SD_startup+0xf0>
		if(!error) break;
	}

	if(error)
	{
		if(error == 1) Uart_Transmit_IT_PC((char*)("SD card not detected..\r"));
    1b0a:	88 eb       	ldi	r24, 0xB8	; 184
    1b0c:	93 e0       	ldi	r25, 0x03	; 3
    1b0e:	0e 94 e2 21 	call	0x43c4	; 0x43c4 <Uart_Transmit_IT_PC>
		if(error == 2) Uart_Transmit_IT_PC((char*)("Card Initialization failed..\r"));
    1b12:	80 91 43 0f 	lds	r24, 0x0F43	; 0x800f43 <error>
    1b16:	82 30       	cpi	r24, 0x02	; 2
    1b18:	21 f4       	brne	.+8      	; 0x1b22 <SD_startup+0x4e>
    1b1a:	80 ed       	ldi	r24, 0xD0	; 208
    1b1c:	93 e0       	ldi	r25, 0x03	; 3
    1b1e:	0e 94 e2 21 	call	0x43c4	; 0x43c4 <Uart_Transmit_IT_PC>
	nextion_change_page(FEHLERANZEIGE);
    1b22:	8f e0       	ldi	r24, 0x0F	; 15
    1b24:	4b d6       	rcall	.+3222   	; 0x27bc <nextion_change_page>
	nextion_setText("fehlertxt","Fehler festgestellt!\\rKeine SD-Karte vorhanden.\\rBitte einfgen und\\rneu starten.");
    1b26:	6e ee       	ldi	r22, 0xEE	; 238
    1b28:	73 e0       	ldi	r23, 0x03	; 3
    1b2a:	80 e4       	ldi	r24, 0x40	; 64
    1b2c:	94 e0       	ldi	r25, 0x04	; 4
    1b2e:	65 d6       	rcall	.+3274   	; 0x27fa <nextion_setText>
    1b30:	13 c0       	rjmp	.+38     	; 0x1b58 <SD_startup+0x84>
		// 		while(1);  //wait here forever if error in SD init
		}else{
		
		switch (cardType)
		{
			case 1:Uart_Transmit_IT_PC(("Standard Capacity Card (Ver 1.x) Detected!\r"));
    1b32:	8a e4       	ldi	r24, 0x4A	; 74
    1b34:	94 e0       	ldi	r25, 0x04	; 4
    1b36:	0e 94 e2 21 	call	0x43c4	; 0x43c4 <Uart_Transmit_IT_PC>
			break;
    1b3a:	0e c0       	rjmp	.+28     	; 0x1b58 <SD_startup+0x84>
			case 2:Uart_Transmit_IT_PC(("High Capacity Card Detected!\r"));
    1b3c:	86 e7       	ldi	r24, 0x76	; 118
    1b3e:	94 e0       	ldi	r25, 0x04	; 4
    1b40:	0e 94 e2 21 	call	0x43c4	; 0x43c4 <Uart_Transmit_IT_PC>
			break;
    1b44:	09 c0       	rjmp	.+18     	; 0x1b58 <SD_startup+0x84>
			case 3:Uart_Transmit_IT_PC(("Standard Capacity Card (Ver 2.x) Detected!\r"));
    1b46:	84 e9       	ldi	r24, 0x94	; 148
    1b48:	94 e0       	ldi	r25, 0x04	; 4
    1b4a:	0e 94 e2 21 	call	0x43c4	; 0x43c4 <Uart_Transmit_IT_PC>
			break;
    1b4e:	04 c0       	rjmp	.+8      	; 0x1b58 <SD_startup+0x84>
			default:Uart_Transmit_IT_PC(("Unknown SD Card Detected!\r"));
    1b50:	80 ec       	ldi	r24, 0xC0	; 192
    1b52:	94 e0       	ldi	r25, 0x04	; 4
    1b54:	0e 94 e2 21 	call	0x43c4	; 0x43c4 <Uart_Transmit_IT_PC>
			break;
		}
	}

	SPI_HIGH_SPEED;	//SCK - 4 MHz
    1b58:	80 e5       	ldi	r24, 0x50	; 80
    1b5a:	8c bd       	out	0x2c, r24	; 44
    1b5c:	8d b5       	in	r24, 0x2d	; 45
    1b5e:	81 60       	ori	r24, 0x01	; 1
    1b60:	8d bd       	out	0x2d, r24	; 45
	#else
		//round up by default
		__ticks_dc = (uint32_t)(ceil(fabs(__tmp)));
	#endif

	__builtin_avr_delay_cycles(__ticks_dc);
    1b62:	8f e9       	ldi	r24, 0x9F	; 159
    1b64:	9f e0       	ldi	r25, 0x0F	; 15
    1b66:	01 97       	sbiw	r24, 0x01	; 1
    1b68:	f1 f7       	brne	.-4      	; 0x1b66 <SD_startup+0x92>
    1b6a:	00 c0       	rjmp	.+0      	; 0x1b6c <SD_startup+0x98>
    1b6c:	00 00       	nop
	_delay_ms(1);   //some delay


	FAT32_active = 1;
    1b6e:	81 e0       	ldi	r24, 0x01	; 1
    1b70:	80 93 4a 0f 	sts	0x0F4A, r24	; 0x800f4a <FAT32_active>
	error = getBootSectorData (); //read boot sector and keep necessary data in global variables
    1b74:	0e 94 7c 16 	call	0x2cf8	; 0x2cf8 <getBootSectorData>
    1b78:	80 93 43 0f 	sts	0x0F43, r24	; 0x800f43 <error>
	if(error)
    1b7c:	88 23       	and	r24, r24
    1b7e:	61 f0       	breq	.+24     	; 0x1b98 <SD_startup+0xc4>
	{
		TX_NEWLINE;
    1b80:	8d e0       	ldi	r24, 0x0D	; 13
    1b82:	0e 94 49 23 	call	0x4692	; 0x4692 <transmitByte>
    1b86:	8a e0       	ldi	r24, 0x0A	; 10
    1b88:	0e 94 49 23 	call	0x4692	; 0x4692 <transmitByte>
		Uart_Transmit_IT_PC (("FAT32 not found!\r\n"));  //FAT32 incompatible drive
    1b8c:	8b ed       	ldi	r24, 0xDB	; 219
    1b8e:	94 e0       	ldi	r25, 0x04	; 4
    1b90:	0e 94 e2 21 	call	0x43c4	; 0x43c4 <Uart_Transmit_IT_PC>
		FAT32_active = 0;
    1b94:	10 92 4a 0f 	sts	0x0F4A, r1	; 0x800f4a <FAT32_active>
	}
// 	findFiles(GET_LIST,0);
	TX_NEWLINE
    1b98:	8d e0       	ldi	r24, 0x0D	; 13
    1b9a:	0e 94 49 23 	call	0x4692	; 0x4692 <transmitByte>
    1b9e:	8a e0       	ldi	r24, 0x0A	; 10
    1ba0:	0e 94 49 23 	call	0x4692	; 0x4692 <transmitByte>
	TX_NEWLINE
    1ba4:	8d e0       	ldi	r24, 0x0D	; 13
    1ba6:	0e 94 49 23 	call	0x4692	; 0x4692 <transmitByte>
    1baa:	8a e0       	ldi	r24, 0x0A	; 10
    1bac:	0c 94 49 23 	jmp	0x4692	; 0x4692 <transmitByte>

}
    1bb0:	08 95       	ret
	nextion_change_page(FEHLERANZEIGE);
	nextion_setText("fehlertxt","Fehler festgestellt!\\rKeine SD-Karte vorhanden.\\rBitte einfgen und\\rneu starten.");
		// 		while(1);  //wait here forever if error in SD init
		}else{
		
		switch (cardType)
    1bb2:	80 91 42 0f 	lds	r24, 0x0F42	; 0x800f42 <cardType>
    1bb6:	82 30       	cpi	r24, 0x02	; 2
    1bb8:	09 f2       	breq	.-126    	; 0x1b3c <SD_startup+0x68>
    1bba:	83 30       	cpi	r24, 0x03	; 3
    1bbc:	21 f2       	breq	.-120    	; 0x1b46 <SD_startup+0x72>
    1bbe:	81 30       	cpi	r24, 0x01	; 1
    1bc0:	39 f6       	brne	.-114    	; 0x1b50 <SD_startup+0x7c>
    1bc2:	b7 cf       	rjmp	.-146    	; 0x1b32 <SD_startup+0x5e>
		if(!error) break;
	}

	if(error)
	{
		if(error == 1) Uart_Transmit_IT_PC((char*)("SD card not detected..\r"));
    1bc4:	81 30       	cpi	r24, 0x01	; 1
    1bc6:	09 f0       	breq	.+2      	; 0x1bca <SD_startup+0xf6>
    1bc8:	a4 cf       	rjmp	.-184    	; 0x1b12 <SD_startup+0x3e>
    1bca:	9f cf       	rjmp	.-194    	; 0x1b0a <SD_startup+0x36>

00001bcc <erstelle_File>:
	TX_NEWLINE

}

void erstelle_File(uint8_t filename, char * name, uint8_t alkohol)
{
    1bcc:	af 92       	push	r10
    1bce:	bf 92       	push	r11
    1bd0:	cf 92       	push	r12
    1bd2:	df 92       	push	r13
    1bd4:	ef 92       	push	r14
    1bd6:	ff 92       	push	r15
    1bd8:	0f 93       	push	r16
    1bda:	1f 93       	push	r17
    1bdc:	cf 93       	push	r28
    1bde:	df 93       	push	r29
    1be0:	cd b7       	in	r28, 0x3d	; 61
    1be2:	de b7       	in	r29, 0x3e	; 62
    1be4:	c9 59       	subi	r28, 0x99	; 153
    1be6:	d1 09       	sbc	r29, r1
    1be8:	0f b6       	in	r0, 0x3f	; 63
    1bea:	f8 94       	cli
    1bec:	de bf       	out	0x3e, r29	; 62
    1bee:	0f be       	out	0x3f, r0	; 63
    1bf0:	cd bf       	out	0x3d, r28	; 61
    1bf2:	b8 2e       	mov	r11, r24
    1bf4:	a4 2e       	mov	r10, r20
	char buff[128] = {0};
    1bf6:	8e 01       	movw	r16, r28
    1bf8:	0f 5f       	subi	r16, 0xFF	; 255
    1bfa:	1f 4f       	sbci	r17, 0xFF	; 255
    1bfc:	80 e8       	ldi	r24, 0x80	; 128
    1bfe:	f8 01       	movw	r30, r16
    1c00:	11 92       	st	Z+, r1
    1c02:	8a 95       	dec	r24
    1c04:	e9 f7       	brne	.-6      	; 0x1c00 <erstelle_File+0x34>
	char * ptr = buff;
	strcat(ptr, "Name:");
    1c06:	d8 01       	movw	r26, r16
    1c08:	0d 90       	ld	r0, X+
    1c0a:	00 20       	and	r0, r0
    1c0c:	e9 f7       	brne	.-6      	; 0x1c08 <erstelle_File+0x3c>
    1c0e:	11 97       	sbiw	r26, 0x01	; 1
    1c10:	86 e0       	ldi	r24, 0x06	; 6
    1c12:	ee ee       	ldi	r30, 0xEE	; 238
    1c14:	f4 e0       	ldi	r31, 0x04	; 4
    1c16:	01 90       	ld	r0, Z+
    1c18:	0d 92       	st	X+, r0
    1c1a:	8a 95       	dec	r24
    1c1c:	e1 f7       	brne	.-8      	; 0x1c16 <erstelle_File+0x4a>
	strcat(ptr, name);
    1c1e:	c8 01       	movw	r24, r16
    1c20:	0e 94 2a 25 	call	0x4a54	; 0x4a54 <strcat>

	strcat(ptr, "\rMengen:{");
    1c24:	d8 01       	movw	r26, r16
    1c26:	0d 90       	ld	r0, X+
    1c28:	00 20       	and	r0, r0
    1c2a:	e9 f7       	brne	.-6      	; 0x1c26 <erstelle_File+0x5a>
    1c2c:	11 97       	sbiw	r26, 0x01	; 1
    1c2e:	8a e0       	ldi	r24, 0x0A	; 10
    1c30:	e4 ef       	ldi	r30, 0xF4	; 244
    1c32:	f4 e0       	ldi	r31, 0x04	; 4
    1c34:	01 90       	ld	r0, Z+
    1c36:	0d 92       	st	X+, r0
    1c38:	8a 95       	dec	r24
    1c3a:	e1 f7       	brne	.-8      	; 0x1c34 <erstelle_File+0x68>
	char buff2[5]  = {0};
    1c3c:	7e 01       	movw	r14, r28
    1c3e:	f1 e8       	ldi	r31, 0x81	; 129
    1c40:	ef 0e       	add	r14, r31
    1c42:	f1 1c       	adc	r15, r1
    1c44:	85 e0       	ldi	r24, 0x05	; 5
    1c46:	f7 01       	movw	r30, r14
    1c48:	11 92       	st	Z+, r1
    1c4a:	8a 95       	dec	r24
    1c4c:	e9 f7       	brne	.-6      	; 0x1c48 <erstelle_File+0x7c>
	
	int i = 0;
	itoa(*(aktuellesGetraenk->mengen + i), (char *)buff2, 10);
    1c4e:	e0 91 4f 0f 	lds	r30, 0x0F4F	; 0x800f4f <aktuellesGetraenk>
    1c52:	f0 91 50 0f 	lds	r31, 0x0F50	; 0x800f50 <aktuellesGetraenk+0x1>
    1c56:	04 80       	ldd	r0, Z+4	; 0x04
    1c58:	f5 81       	ldd	r31, Z+5	; 0x05
    1c5a:	e0 2d       	mov	r30, r0
    } else if (__radix < 2 || __radix > 36) {
	*__s = 0;
	return __s;
    } else {
	extern char *__itoa_ncheck (int, char *, unsigned char);
	return __itoa_ncheck (__val, __s, __radix);
    1c5c:	80 81       	ld	r24, Z
    1c5e:	4a e0       	ldi	r20, 0x0A	; 10
    1c60:	b7 01       	movw	r22, r14
    1c62:	90 e0       	ldi	r25, 0x00	; 0
    1c64:	0e 94 63 25 	call	0x4ac6	; 0x4ac6 <__itoa_ncheck>
	strcat(ptr, buff2);
    1c68:	b7 01       	movw	r22, r14
    1c6a:	c8 01       	movw	r24, r16
    1c6c:	0e 94 2a 25 	call	0x4a54	; 0x4a54 <strcat>
	for (i = 1 ; i < 12 ; i++)
    1c70:	01 e0       	ldi	r16, 0x01	; 1
    1c72:	10 e0       	ldi	r17, 0x00	; 0
	{
		strcat(ptr,",");
    1c74:	ce 01       	movw	r24, r28
    1c76:	01 96       	adiw	r24, 0x01	; 1
    1c78:	7c 01       	movw	r14, r24
    1c7a:	0f 2e       	mov	r0, r31
    1c7c:	fc e2       	ldi	r31, 0x2C	; 44
    1c7e:	cf 2e       	mov	r12, r31
    1c80:	d1 2c       	mov	r13, r1
    1c82:	f0 2d       	mov	r31, r0
    1c84:	f7 01       	movw	r30, r14
    1c86:	01 90       	ld	r0, Z+
    1c88:	00 20       	and	r0, r0
    1c8a:	e9 f7       	brne	.-6      	; 0x1c86 <erstelle_File+0xba>
    1c8c:	31 97       	sbiw	r30, 0x01	; 1
    1c8e:	d1 82       	std	Z+1, r13	; 0x01
    1c90:	c0 82       	st	Z, r12
		itoa(*(aktuellesGetraenk->mengen + i), (char *)buff2, 10);
    1c92:	e0 91 4f 0f 	lds	r30, 0x0F4F	; 0x800f4f <aktuellesGetraenk>
    1c96:	f0 91 50 0f 	lds	r31, 0x0F50	; 0x800f50 <aktuellesGetraenk+0x1>
    1c9a:	04 80       	ldd	r0, Z+4	; 0x04
    1c9c:	f5 81       	ldd	r31, Z+5	; 0x05
    1c9e:	e0 2d       	mov	r30, r0
    1ca0:	e0 0f       	add	r30, r16
    1ca2:	f1 1f       	adc	r31, r17
    1ca4:	80 81       	ld	r24, Z
    1ca6:	4a e0       	ldi	r20, 0x0A	; 10
    1ca8:	be 01       	movw	r22, r28
    1caa:	6f 57       	subi	r22, 0x7F	; 127
    1cac:	7f 4f       	sbci	r23, 0xFF	; 255
    1cae:	90 e0       	ldi	r25, 0x00	; 0
    1cb0:	0e 94 63 25 	call	0x4ac6	; 0x4ac6 <__itoa_ncheck>
		strcat(ptr, buff2);
    1cb4:	be 01       	movw	r22, r28
    1cb6:	6f 57       	subi	r22, 0x7F	; 127
    1cb8:	7f 4f       	sbci	r23, 0xFF	; 255
    1cba:	c7 01       	movw	r24, r14
    1cbc:	0e 94 2a 25 	call	0x4a54	; 0x4a54 <strcat>
	char buff2[5]  = {0};
	
	int i = 0;
	itoa(*(aktuellesGetraenk->mengen + i), (char *)buff2, 10);
	strcat(ptr, buff2);
	for (i = 1 ; i < 12 ; i++)
    1cc0:	0f 5f       	subi	r16, 0xFF	; 255
    1cc2:	1f 4f       	sbci	r17, 0xFF	; 255
    1cc4:	0c 30       	cpi	r16, 0x0C	; 12
    1cc6:	11 05       	cpc	r17, r1
    1cc8:	e9 f6       	brne	.-70     	; 0x1c84 <erstelle_File+0xb8>
	{
		strcat(ptr,",");
		itoa(*(aktuellesGetraenk->mengen + i), (char *)buff2, 10);
		strcat(ptr, buff2);
	}
	strcat(ptr, "}\r");
    1cca:	8e 01       	movw	r16, r28
    1ccc:	0f 5f       	subi	r16, 0xFF	; 255
    1cce:	1f 4f       	sbci	r17, 0xFF	; 255
    1cd0:	f8 01       	movw	r30, r16
    1cd2:	01 90       	ld	r0, Z+
    1cd4:	00 20       	and	r0, r0
    1cd6:	e9 f7       	brne	.-6      	; 0x1cd2 <erstelle_File+0x106>
    1cd8:	31 97       	sbiw	r30, 0x01	; 1
    1cda:	8d e7       	ldi	r24, 0x7D	; 125
    1cdc:	9d e0       	ldi	r25, 0x0D	; 13
    1cde:	91 83       	std	Z+1, r25	; 0x01
    1ce0:	80 83       	st	Z, r24
    1ce2:	12 82       	std	Z+2, r1	; 0x02
	strcat(ptr, "Alkohol:");
    1ce4:	d8 01       	movw	r26, r16
    1ce6:	0d 90       	ld	r0, X+
    1ce8:	00 20       	and	r0, r0
    1cea:	e9 f7       	brne	.-6      	; 0x1ce6 <erstelle_File+0x11a>
    1cec:	11 97       	sbiw	r26, 0x01	; 1
    1cee:	89 e0       	ldi	r24, 0x09	; 9
    1cf0:	ee ef       	ldi	r30, 0xFE	; 254
    1cf2:	f4 e0       	ldi	r31, 0x04	; 4
    1cf4:	01 90       	ld	r0, Z+
    1cf6:	0d 92       	st	X+, r0
    1cf8:	8a 95       	dec	r24
    1cfa:	e1 f7       	brne	.-8      	; 0x1cf4 <erstelle_File+0x128>
    1cfc:	4a e0       	ldi	r20, 0x0A	; 10
    1cfe:	be 01       	movw	r22, r28
    1d00:	6f 57       	subi	r22, 0x7F	; 127
    1d02:	7f 4f       	sbci	r23, 0xFF	; 255
    1d04:	8a 2d       	mov	r24, r10
    1d06:	90 e0       	ldi	r25, 0x00	; 0
    1d08:	0e 94 63 25 	call	0x4ac6	; 0x4ac6 <__itoa_ncheck>
	itoa(alkohol, (char *)buff2, 10);
	strcat(ptr, (char *)buff2);
    1d0c:	be 01       	movw	r22, r28
    1d0e:	6f 57       	subi	r22, 0x7F	; 127
    1d10:	7f 4f       	sbci	r23, 0xFF	; 255
    1d12:	c8 01       	movw	r24, r16
    1d14:	0e 94 2a 25 	call	0x4a54	; 0x4a54 <strcat>
	strcat(ptr, "\r");
    1d18:	f8 01       	movw	r30, r16
    1d1a:	01 90       	ld	r0, Z+
    1d1c:	00 20       	and	r0, r0
    1d1e:	e9 f7       	brne	.-6      	; 0x1d1a <erstelle_File+0x14e>
    1d20:	31 97       	sbiw	r30, 0x01	; 1
    1d22:	8d e0       	ldi	r24, 0x0D	; 13
    1d24:	90 e0       	ldi	r25, 0x00	; 0
    1d26:	91 83       	std	Z+1, r25	; 0x01
    1d28:	80 83       	st	Z, r24

	strcat(ptr, "Bild:");
    1d2a:	d8 01       	movw	r26, r16
    1d2c:	0d 90       	ld	r0, X+
    1d2e:	00 20       	and	r0, r0
    1d30:	e9 f7       	brne	.-6      	; 0x1d2c <erstelle_File+0x160>
    1d32:	11 97       	sbiw	r26, 0x01	; 1
    1d34:	86 e0       	ldi	r24, 0x06	; 6
    1d36:	e7 e0       	ldi	r30, 0x07	; 7
    1d38:	f5 e0       	ldi	r31, 0x05	; 5
    1d3a:	01 90       	ld	r0, Z+
    1d3c:	0d 92       	st	X+, r0
    1d3e:	8a 95       	dec	r24
    1d40:	e1 f7       	brne	.-8      	; 0x1d3a <erstelle_File+0x16e>
	if (aktuellesGetraenk->picture != 24)
    1d42:	e0 91 4f 0f 	lds	r30, 0x0F4F	; 0x800f4f <aktuellesGetraenk>
    1d46:	f0 91 50 0f 	lds	r31, 0x0F50	; 0x800f50 <aktuellesGetraenk+0x1>
    1d4a:	86 81       	ldd	r24, Z+6	; 0x06
    1d4c:	88 31       	cpi	r24, 0x18	; 24
    1d4e:	71 f0       	breq	.+28     	; 0x1d6c <erstelle_File+0x1a0>
    1d50:	4a e0       	ldi	r20, 0x0A	; 10
    1d52:	be 01       	movw	r22, r28
    1d54:	6b 56       	subi	r22, 0x6B	; 107
    1d56:	7f 4f       	sbci	r23, 0xFF	; 255
    1d58:	90 e0       	ldi	r25, 0x00	; 0
    1d5a:	0e 94 63 25 	call	0x4ac6	; 0x4ac6 <__itoa_ncheck>
	{
		char buff[5];
		itoa(aktuellesGetraenk->picture,(char *)buff, 10);
		strcat(ptr, (char *)buff);
    1d5e:	be 01       	movw	r22, r28
    1d60:	6b 56       	subi	r22, 0x6B	; 107
    1d62:	7f 4f       	sbci	r23, 0xFF	; 255
    1d64:	c8 01       	movw	r24, r16
    1d66:	0e 94 2a 25 	call	0x4a54	; 0x4a54 <strcat>
    1d6a:	0b c0       	rjmp	.+22     	; 0x1d82 <erstelle_File+0x1b6>
	}
	else
	{
		strcat(ptr, "24");
    1d6c:	fe 01       	movw	r30, r28
    1d6e:	31 96       	adiw	r30, 0x01	; 1
    1d70:	01 90       	ld	r0, Z+
    1d72:	00 20       	and	r0, r0
    1d74:	e9 f7       	brne	.-6      	; 0x1d70 <erstelle_File+0x1a4>
    1d76:	31 97       	sbiw	r30, 0x01	; 1
    1d78:	82 e3       	ldi	r24, 0x32	; 50
    1d7a:	94 e3       	ldi	r25, 0x34	; 52
    1d7c:	91 83       	std	Z+1, r25	; 0x01
    1d7e:	80 83       	st	Z, r24
    1d80:	12 82       	std	Z+2, r1	; 0x02
	}
	
	strcat(ptr, "~");
    1d82:	fe 01       	movw	r30, r28
    1d84:	31 96       	adiw	r30, 0x01	; 1
    1d86:	7f 01       	movw	r14, r30
    1d88:	01 90       	ld	r0, Z+
    1d8a:	00 20       	and	r0, r0
    1d8c:	e9 f7       	brne	.-6      	; 0x1d88 <erstelle_File+0x1bc>
    1d8e:	31 97       	sbiw	r30, 0x01	; 1
    1d90:	8e e7       	ldi	r24, 0x7E	; 126
    1d92:	90 e0       	ldi	r25, 0x00	; 0
    1d94:	91 83       	std	Z+1, r25	; 0x01
    1d96:	80 83       	st	Z, r24

	char buff3[15] = {'\0'};
    1d98:	8e 01       	movw	r16, r28
    1d9a:	0a 57       	subi	r16, 0x7A	; 122
    1d9c:	1f 4f       	sbci	r17, 0xFF	; 255
    1d9e:	8f e0       	ldi	r24, 0x0F	; 15
    1da0:	f8 01       	movw	r30, r16
    1da2:	11 92       	st	Z+, r1
    1da4:	8a 95       	dec	r24
    1da6:	e9 f7       	brne	.-6      	; 0x1da2 <erstelle_File+0x1d6>
    1da8:	4a e0       	ldi	r20, 0x0A	; 10
    1daa:	b8 01       	movw	r22, r16
    1dac:	8b 2d       	mov	r24, r11
    1dae:	90 e0       	ldi	r25, 0x00	; 0
    1db0:	0e 94 63 25 	call	0x4ac6	; 0x4ac6 <__itoa_ncheck>
	itoa(filename, (char *)buff3, 10);
	strcat((char *)buff3, (const char *)".txt");
    1db4:	d8 01       	movw	r26, r16
    1db6:	0d 90       	ld	r0, X+
    1db8:	00 20       	and	r0, r0
    1dba:	e9 f7       	brne	.-6      	; 0x1db6 <erstelle_File+0x1ea>
    1dbc:	11 97       	sbiw	r26, 0x01	; 1
    1dbe:	85 e0       	ldi	r24, 0x05	; 5
    1dc0:	e0 e6       	ldi	r30, 0x60	; 96
    1dc2:	f3 e0       	ldi	r31, 0x03	; 3
    1dc4:	01 90       	ld	r0, Z+
    1dc6:	0d 92       	st	X+, r0
    1dc8:	8a 95       	dec	r24
    1dca:	e1 f7       	brne	.-8      	; 0x1dc4 <erstelle_File+0x1f8>
	writeFile((unsigned char *)buff3,(unsigned char *)ptr);
    1dcc:	b7 01       	movw	r22, r14
    1dce:	c8 01       	movw	r24, r16
    1dd0:	0e 94 0a 1c 	call	0x3814	; 0x3814 <writeFile>
}
    1dd4:	c7 56       	subi	r28, 0x67	; 103
    1dd6:	df 4f       	sbci	r29, 0xFF	; 255
    1dd8:	0f b6       	in	r0, 0x3f	; 63
    1dda:	f8 94       	cli
    1ddc:	de bf       	out	0x3e, r29	; 62
    1dde:	0f be       	out	0x3f, r0	; 63
    1de0:	cd bf       	out	0x3d, r28	; 61
    1de2:	df 91       	pop	r29
    1de4:	cf 91       	pop	r28
    1de6:	1f 91       	pop	r17
    1de8:	0f 91       	pop	r16
    1dea:	ff 90       	pop	r15
    1dec:	ef 90       	pop	r14
    1dee:	df 90       	pop	r13
    1df0:	cf 90       	pop	r12
    1df2:	bf 90       	pop	r11
    1df4:	af 90       	pop	r10
    1df6:	08 95       	ret

00001df8 <check_erstanzeige2>:
		counter = 19;
	}
}

void check_erstanzeige2(uint8_t button)
{
    1df8:	bf 92       	push	r11
    1dfa:	cf 92       	push	r12
    1dfc:	df 92       	push	r13
    1dfe:	ef 92       	push	r14
    1e00:	ff 92       	push	r15
    1e02:	0f 93       	push	r16
    1e04:	1f 93       	push	r17
    1e06:	cf 93       	push	r28
    1e08:	df 93       	push	r29
    1e0a:	cd b7       	in	r28, 0x3d	; 61
    1e0c:	de b7       	in	r29, 0x3e	; 62
    1e0e:	2f 97       	sbiw	r28, 0x0f	; 15
    1e10:	0f b6       	in	r0, 0x3f	; 63
    1e12:	f8 94       	cli
    1e14:	de bf       	out	0x3e, r29	; 62
    1e16:	0f be       	out	0x3f, r0	; 63
    1e18:	cd bf       	out	0x3d, r28	; 61
	getraenk_file_t * tmp2;
	char save = 1;

	switch (button)
    1e1a:	84 30       	cpi	r24, 0x04	; 4
    1e1c:	09 f0       	breq	.+2      	; 0x1e20 <check_erstanzeige2+0x28>
    1e1e:	6b c0       	rjmp	.+214    	; 0x1ef6 <check_erstanzeige2+0xfe>
	case 4:
	
// Speicherattribute in aktuellesGetraenk bertragen.
	
	// buff_name kommt aus Textfeld der vorherigen Seiten.
	strcpy(aktuellesGetraenk->name, (const char *)buff_name);
    1e20:	e0 91 4f 0f 	lds	r30, 0x0F4F	; 0x800f4f <aktuellesGetraenk>
    1e24:	f0 91 50 0f 	lds	r31, 0x0F50	; 0x800f50 <aktuellesGetraenk+0x1>
    1e28:	63 e2       	ldi	r22, 0x23	; 35
    1e2a:	7d e0       	ldi	r23, 0x0D	; 13
    1e2c:	80 81       	ld	r24, Z
    1e2e:	91 81       	ldd	r25, Z+1	; 0x01
    1e30:	0e 94 35 25 	call	0x4a6a	; 0x4a6a <strcpy>
	
	
	// Ob Alkohol oder nicht, kann nicht gesagt werden. (default = 1)
	
	// Das Bild wird defaultmssig auf 24 gestellt (Custom Cocktail).
		aktuellesGetraenk->picture = 24;
    1e34:	e0 91 4f 0f 	lds	r30, 0x0F4F	; 0x800f4f <aktuellesGetraenk>
    1e38:	f0 91 50 0f 	lds	r31, 0x0F50	; 0x800f50 <aktuellesGetraenk+0x1>
    1e3c:	88 e1       	ldi	r24, 0x18	; 24
    1e3e:	86 83       	std	Z+6, r24	; 0x06
    1e40:	01 e0       	ldi	r16, 0x01	; 1
    1e42:	10 e0       	ldi	r17, 0x00	; 0
}

void check_erstanzeige2(uint8_t button)
{
	getraenk_file_t * tmp2;
	char save = 1;
    1e44:	dd 24       	eor	r13, r13
    1e46:	d3 94       	inc	r13
			
			// Whrend gesucht werden soll gilt save = 1.
			if (save)
			{
				// Text erstellen, um File-Nr. zu suchen.
				char buff[15] = {'\0'};
    1e48:	0f 2e       	mov	r0, r31
    1e4a:	ff e0       	ldi	r31, 0x0F	; 15
    1e4c:	cf 2e       	mov	r12, r31
    1e4e:	f0 2d       	mov	r31, r0
    1e50:	ce 01       	movw	r24, r28
    1e52:	01 96       	adiw	r24, 0x01	; 1
    1e54:	7c 01       	movw	r14, r24
				if(readFile(VERIFY, (unsigned char *)buff)!=1)
				{
					erstelle_File(i, buff_name, 1);
					tmp2 = create_new_getraenk_file(i);
					head_getraenk_file = insert_file_at_head(&head_getraenk_file, tmp2);
					save = 0;
    1e56:	b1 2c       	mov	r11, r1
// Speichervorgang
		// Suche von 1 bis 100 durch die Files
		for (int8_t i = 1 ; i <= 100; i++){
			
			// Whrend gesucht werden soll gilt save = 1.
			if (save)
    1e58:	dd 20       	and	r13, r13
    1e5a:	a1 f1       	breq	.+104    	; 0x1ec4 <check_erstanzeige2+0xcc>
			{
				// Text erstellen, um File-Nr. zu suchen.
				char buff[15] = {'\0'};
    1e5c:	f7 01       	movw	r30, r14
    1e5e:	8c 2d       	mov	r24, r12
    1e60:	11 92       	st	Z+, r1
    1e62:	8a 95       	dec	r24
    1e64:	e9 f7       	brne	.-6      	; 0x1e60 <check_erstanzeige2+0x68>
    1e66:	4a e0       	ldi	r20, 0x0A	; 10
    1e68:	b7 01       	movw	r22, r14
    1e6a:	c8 01       	movw	r24, r16
    1e6c:	0e 94 63 25 	call	0x4ac6	; 0x4ac6 <__itoa_ncheck>
				itoa(i, (char *)buff,10);
				strcat((char *)buff, (const char *)".txt");
    1e70:	d7 01       	movw	r26, r14
    1e72:	0d 90       	ld	r0, X+
    1e74:	00 20       	and	r0, r0
    1e76:	e9 f7       	brne	.-6      	; 0x1e72 <check_erstanzeige2+0x7a>
    1e78:	11 97       	sbiw	r26, 0x01	; 1
    1e7a:	85 e0       	ldi	r24, 0x05	; 5
    1e7c:	e0 e6       	ldi	r30, 0x60	; 96
    1e7e:	f3 e0       	ldi	r31, 0x03	; 3
    1e80:	01 90       	ld	r0, Z+
    1e82:	0d 92       	st	X+, r0
    1e84:	8a 95       	dec	r24
    1e86:	e1 f7       	brne	.-8      	; 0x1e80 <check_erstanzeige2+0x88>
				
				// File Suchen
				if(readFile(VERIFY, (unsigned char *)buff)!=1)
    1e88:	b7 01       	movw	r22, r14
    1e8a:	81 e0       	ldi	r24, 0x01	; 1
    1e8c:	0e 94 24 1b 	call	0x3648	; 0x3648 <readFile>
    1e90:	81 30       	cpi	r24, 0x01	; 1
    1e92:	c1 f0       	breq	.+48     	; 0x1ec4 <check_erstanzeige2+0xcc>
				{
					erstelle_File(i, buff_name, 1);
    1e94:	41 e0       	ldi	r20, 0x01	; 1
    1e96:	63 e2       	ldi	r22, 0x23	; 35
    1e98:	7d e0       	ldi	r23, 0x0D	; 13
    1e9a:	80 2f       	mov	r24, r16
    1e9c:	97 de       	rcall	.-722    	; 0x1bcc <erstelle_File>
					tmp2 = create_new_getraenk_file(i);
    1e9e:	80 2f       	mov	r24, r16
    1ea0:	ad d1       	rcall	.+858    	; 0x21fc <create_new_getraenk_file>
					head_getraenk_file = insert_file_at_head(&head_getraenk_file, tmp2);
    1ea2:	bc 01       	movw	r22, r24
    1ea4:	81 e0       	ldi	r24, 0x01	; 1
    1ea6:	99 e0       	ldi	r25, 0x09	; 9
    1ea8:	b5 d1       	rcall	.+874    	; 0x2214 <insert_file_at_head>
    1eaa:	90 93 02 09 	sts	0x0902, r25	; 0x800902 <head_getraenk_file+0x1>
    1eae:	80 93 01 09 	sts	0x0901, r24	; 0x800901 <head_getraenk_file>
					save = 0;
					aktuellesGetraenk_file = head_getraenk_file;
    1eb2:	90 93 00 09 	sts	0x0900, r25	; 0x800900 <aktuellesGetraenk_file+0x1>
    1eb6:	80 93 ff 08 	sts	0x08FF, r24	; 0x8008ff <aktuellesGetraenk_file>
					lese_textfile_in_getraenk(head_getraenk_file->file);
    1eba:	fc 01       	movw	r30, r24
    1ebc:	80 81       	ld	r24, Z
    1ebe:	0e 94 b4 05 	call	0xb68	; 0xb68 <lese_textfile_in_getraenk>
				if(readFile(VERIFY, (unsigned char *)buff)!=1)
				{
					erstelle_File(i, buff_name, 1);
					tmp2 = create_new_getraenk_file(i);
					head_getraenk_file = insert_file_at_head(&head_getraenk_file, tmp2);
					save = 0;
    1ec2:	db 2c       	mov	r13, r11
    1ec4:	0f 5f       	subi	r16, 0xFF	; 255
    1ec6:	1f 4f       	sbci	r17, 0xFF	; 255
	// Das Bild wird defaultmssig auf 24 gestellt (Custom Cocktail).
		aktuellesGetraenk->picture = 24;
		
// Speichervorgang
		// Suche von 1 bis 100 durch die Files
		for (int8_t i = 1 ; i <= 100; i++){
    1ec8:	05 36       	cpi	r16, 0x65	; 101
    1eca:	11 05       	cpc	r17, r1
					aktuellesGetraenk_file = head_getraenk_file;
					lese_textfile_in_getraenk(head_getraenk_file->file);
				}
			}
		}
		nextion_change_page(STARTANZEIGE);
    1ecc:	29 f6       	brne	.-118    	; 0x1e58 <check_erstanzeige2+0x60>
    1ece:	81 e0       	ldi	r24, 0x01	; 1
    1ed0:	75 d4       	rcall	.+2282   	; 0x27bc <nextion_change_page>
		setze_startanzeige(aktuellesGetraenk);
    1ed2:	80 91 4f 0f 	lds	r24, 0x0F4F	; 0x800f4f <aktuellesGetraenk>
    1ed6:	90 91 50 0f 	lds	r25, 0x0F50	; 0x800f50 <aktuellesGetraenk+0x1>
    1eda:	0e 94 0c 04 	call	0x818	; 0x818 <setze_startanzeige>
		counter = 0;
    1ede:	10 92 1d 0d 	sts	0x0D1D, r1	; 0x800d1d <counter>
		i_Liste = 0;
    1ee2:	10 92 47 0f 	sts	0x0F47, r1	; 0x800f47 <i_Liste>
    1ee6:	e3 e2       	ldi	r30, 0x23	; 35
    1ee8:	fd e0       	ldi	r31, 0x0D	; 13
    1eea:	87 e3       	ldi	r24, 0x37	; 55
    1eec:	9d e0       	ldi	r25, 0x0D	; 13
		for (int i = 0 ; i <20 ; i ++)
		{
			buff_name[i] = '\0';
    1eee:	11 92       	st	Z+, r1
		}
		nextion_change_page(STARTANZEIGE);
		setze_startanzeige(aktuellesGetraenk);
		counter = 0;
		i_Liste = 0;
		for (int i = 0 ; i <20 ; i ++)
    1ef0:	e8 17       	cp	r30, r24
    1ef2:	f9 07       	cpc	r31, r25
    1ef4:	e1 f7       	brne	.-8      	; 0x1eee <check_erstanzeige2+0xf6>
		{
			buff_name[i] = '\0';
		}
	break;
	}
}
    1ef6:	2f 96       	adiw	r28, 0x0f	; 15
    1ef8:	0f b6       	in	r0, 0x3f	; 63
    1efa:	f8 94       	cli
    1efc:	de bf       	out	0x3e, r29	; 62
    1efe:	0f be       	out	0x3f, r0	; 63
    1f00:	cd bf       	out	0x3d, r28	; 61
    1f02:	df 91       	pop	r29
    1f04:	cf 91       	pop	r28
    1f06:	1f 91       	pop	r17
    1f08:	0f 91       	pop	r16
    1f0a:	ff 90       	pop	r15
    1f0c:	ef 90       	pop	r14
    1f0e:	df 90       	pop	r13
    1f10:	cf 90       	pop	r12
    1f12:	bf 90       	pop	r11
    1f14:	08 95       	ret

00001f16 <loesche_FIle>:
	strcat((char *)buff3, (const char *)".txt");
	writeFile((unsigned char *)buff3,(unsigned char *)ptr);
}

void loesche_FIle(uint8_t filename)
{
    1f16:	0f 93       	push	r16
    1f18:	1f 93       	push	r17
    1f1a:	cf 93       	push	r28
    1f1c:	df 93       	push	r29
    1f1e:	cd b7       	in	r28, 0x3d	; 61
    1f20:	de b7       	in	r29, 0x3e	; 62
    1f22:	64 97       	sbiw	r28, 0x14	; 20
    1f24:	0f b6       	in	r0, 0x3f	; 63
    1f26:	f8 94       	cli
    1f28:	de bf       	out	0x3e, r29	; 62
    1f2a:	0f be       	out	0x3f, r0	; 63
    1f2c:	cd bf       	out	0x3d, r28	; 61
	unsigned char buff[20] = {'\0'};
    1f2e:	8e 01       	movw	r16, r28
    1f30:	0f 5f       	subi	r16, 0xFF	; 255
    1f32:	1f 4f       	sbci	r17, 0xFF	; 255
    1f34:	94 e1       	ldi	r25, 0x14	; 20
    1f36:	f8 01       	movw	r30, r16
    1f38:	11 92       	st	Z+, r1
    1f3a:	9a 95       	dec	r25
    1f3c:	e9 f7       	brne	.-6      	; 0x1f38 <loesche_FIle+0x22>
    1f3e:	4a e0       	ldi	r20, 0x0A	; 10
    1f40:	b8 01       	movw	r22, r16
    1f42:	90 e0       	ldi	r25, 0x00	; 0
    1f44:	0e 94 63 25 	call	0x4ac6	; 0x4ac6 <__itoa_ncheck>
	itoa(filename, (char *)buff, 10);
	strcat((char *)buff,".txt");
    1f48:	d8 01       	movw	r26, r16
    1f4a:	0d 90       	ld	r0, X+
    1f4c:	00 20       	and	r0, r0
    1f4e:	e9 f7       	brne	.-6      	; 0x1f4a <loesche_FIle+0x34>
    1f50:	11 97       	sbiw	r26, 0x01	; 1
    1f52:	85 e0       	ldi	r24, 0x05	; 5
    1f54:	e0 e6       	ldi	r30, 0x60	; 96
    1f56:	f3 e0       	ldi	r31, 0x03	; 3
    1f58:	01 90       	ld	r0, Z+
    1f5a:	0d 92       	st	X+, r0
    1f5c:	8a 95       	dec	r24
    1f5e:	e1 f7       	brne	.-8      	; 0x1f58 <loesche_FIle+0x42>
	deleteFile((unsigned char *)buff);
    1f60:	c8 01       	movw	r24, r16
    1f62:	0e 94 fe 1b 	call	0x37fc	; 0x37fc <deleteFile>
    1f66:	64 96       	adiw	r28, 0x14	; 20
    1f68:	0f b6       	in	r0, 0x3f	; 63
    1f6a:	f8 94       	cli
    1f6c:	de bf       	out	0x3e, r29	; 62
    1f6e:	0f be       	out	0x3f, r0	; 63
    1f70:	cd bf       	out	0x3d, r28	; 61
    1f72:	df 91       	pop	r29
    1f74:	cf 91       	pop	r28
    1f76:	1f 91       	pop	r17
    1f78:	0f 91       	pop	r16
    1f7a:	08 95       	ret

00001f7c <check_ceinstanzeige>:
	}	
}

void check_ceinstanzeige(uint8_t button)
{
	switch(button)
    1f7c:	90 e0       	ldi	r25, 0x00	; 0
    1f7e:	fc 01       	movw	r30, r24
    1f80:	31 97       	sbiw	r30, 0x01	; 1
    1f82:	e8 30       	cpi	r30, 0x08	; 8
    1f84:	f1 05       	cpc	r31, r1
    1f86:	08 f0       	brcs	.+2      	; 0x1f8a <check_ceinstanzeige+0xe>
    1f88:	5e c0       	rjmp	.+188    	; 0x2046 <check_ceinstanzeige+0xca>
    1f8a:	88 27       	eor	r24, r24
    1f8c:	e3 54       	subi	r30, 0x43	; 67
    1f8e:	ff 4f       	sbci	r31, 0xFF	; 255
    1f90:	8f 4f       	sbci	r24, 0xFF	; 255
    1f92:	0c 94 a7 23 	jmp	0x474e	; 0x474e <__tablejump2__>
	{
		case RAUFLIST3:
			block_list_runter = 0;
    1f96:	10 92 0a 09 	sts	0x090A, r1	; 0x80090a <block_list_runter>
			if (!block_list_hoch)
    1f9a:	80 91 17 0d 	lds	r24, 0x0D17	; 0x800d17 <block_list_hoch>
    1f9e:	81 11       	cpse	r24, r1
    1fa0:	52 c0       	rjmp	.+164    	; 0x2046 <check_ceinstanzeige+0xca>
			{
				i_Liste -= 4;
    1fa2:	80 91 47 0f 	lds	r24, 0x0F47	; 0x800f47 <i_Liste>
    1fa6:	84 50       	subi	r24, 0x04	; 4
    1fa8:	80 93 47 0f 	sts	0x0F47, r24	; 0x800f47 <i_Liste>
				erstelle_Liste_zutat("zutat");
    1fac:	85 e8       	ldi	r24, 0x85	; 133
    1fae:	93 e0       	ldi	r25, 0x03	; 3
    1fb0:	0c 94 c2 02 	jmp	0x584	; 0x584 <erstelle_Liste_zutat>
    1fb4:	08 95       	ret
			}
		break;
		
		case RUNTERLIST3:
			block_list_hoch = 0;
    1fb6:	10 92 17 0d 	sts	0x0D17, r1	; 0x800d17 <block_list_hoch>
			if (!block_list_runter)
    1fba:	80 91 0a 09 	lds	r24, 0x090A	; 0x80090a <block_list_runter>
    1fbe:	81 11       	cpse	r24, r1
    1fc0:	42 c0       	rjmp	.+132    	; 0x2046 <check_ceinstanzeige+0xca>
			{
				i_Liste += 4;
    1fc2:	80 91 47 0f 	lds	r24, 0x0F47	; 0x800f47 <i_Liste>
    1fc6:	8c 5f       	subi	r24, 0xFC	; 252
    1fc8:	80 93 47 0f 	sts	0x0F47, r24	; 0x800f47 <i_Liste>
				erstelle_Liste_zutat("zutat");
    1fcc:	85 e8       	ldi	r24, 0x85	; 133
    1fce:	93 e0       	ldi	r25, 0x03	; 3
    1fd0:	0c 94 c2 02 	jmp	0x584	; 0x584 <erstelle_Liste_zutat>
    1fd4:	08 95       	ret
			}
		break;
		
		case STANDARDEINST:
			block_list_hoch = 0;
    1fd6:	10 92 17 0d 	sts	0x0D17, r1	; 0x800d17 <block_list_hoch>
			block_list_runter = 0;
    1fda:	10 92 0a 09 	sts	0x090A, r1	; 0x80090a <block_list_runter>
			nextion_change_page(STARTANZEIGE);
    1fde:	81 e0       	ldi	r24, 0x01	; 1
    1fe0:	ed c3       	rjmp	.+2010   	; 0x27bc <nextion_change_page>
		break;
    1fe2:	08 95       	ret
		
		case SPEICHERN1:
			block_list_hoch = 0;
    1fe4:	10 92 17 0d 	sts	0x0D17, r1	; 0x800d17 <block_list_hoch>
			block_list_runter = 0;
    1fe8:	10 92 0a 09 	sts	0x090A, r1	; 0x80090a <block_list_runter>
			i_Liste = 0;
    1fec:	10 92 47 0f 	sts	0x0F47, r1	; 0x800f47 <i_Liste>
			loesche_FIle(aktuellesGetraenk_file->file);
    1ff0:	e0 91 ff 08 	lds	r30, 0x08FF	; 0x8008ff <aktuellesGetraenk_file>
    1ff4:	f0 91 00 09 	lds	r31, 0x0900	; 0x800900 <aktuellesGetraenk_file+0x1>
    1ff8:	80 81       	ld	r24, Z
    1ffa:	8d df       	rcall	.-230    	; 0x1f16 <loesche_FIle>
			erstelle_File(aktuellesGetraenk_file->file, aktuellesGetraenk->name, 1);
    1ffc:	e0 91 4f 0f 	lds	r30, 0x0F4F	; 0x800f4f <aktuellesGetraenk>
    2000:	f0 91 50 0f 	lds	r31, 0x0F50	; 0x800f50 <aktuellesGetraenk+0x1>
    2004:	60 81       	ld	r22, Z
    2006:	71 81       	ldd	r23, Z+1	; 0x01
    2008:	e0 91 ff 08 	lds	r30, 0x08FF	; 0x8008ff <aktuellesGetraenk_file>
    200c:	f0 91 00 09 	lds	r31, 0x0900	; 0x800900 <aktuellesGetraenk_file+0x1>
    2010:	41 e0       	ldi	r20, 0x01	; 1
    2012:	80 81       	ld	r24, Z
			nextion_change_page(STARTANZEIGE);
    2014:	db dd       	rcall	.-1098   	; 0x1bcc <erstelle_File>
    2016:	81 e0       	ldi	r24, 0x01	; 1
    2018:	d1 d3       	rcall	.+1954   	; 0x27bc <nextion_change_page>
			setze_startanzeige(aktuellesGetraenk);
    201a:	80 91 4f 0f 	lds	r24, 0x0F4F	; 0x800f4f <aktuellesGetraenk>
    201e:	90 91 50 0f 	lds	r25, 0x0F50	; 0x800f50 <aktuellesGetraenk+0x1>
    2022:	0c 94 0c 04 	jmp	0x818	; 0x818 <setze_startanzeige>
		break;
    2026:	08 95       	ret
		
		case 5:
			schreibe_Menge_in_Getraenk(1);
    2028:	81 e0       	ldi	r24, 0x01	; 1
    202a:	0c 94 ff 00 	jmp	0x1fe	; 0x1fe <schreibe_Menge_in_Getraenk>
		break;
    202e:	08 95       	ret
		
		case 6:
			schreibe_Menge_in_Getraenk(2);
    2030:	82 e0       	ldi	r24, 0x02	; 2
    2032:	0c 94 ff 00 	jmp	0x1fe	; 0x1fe <schreibe_Menge_in_Getraenk>
		break;
    2036:	08 95       	ret
		
		case 7:
			schreibe_Menge_in_Getraenk(3);
    2038:	83 e0       	ldi	r24, 0x03	; 3
    203a:	0c 94 ff 00 	jmp	0x1fe	; 0x1fe <schreibe_Menge_in_Getraenk>
		break;
    203e:	08 95       	ret
		
		case 8:
			schreibe_Menge_in_Getraenk(4);
    2040:	84 e0       	ldi	r24, 0x04	; 4
    2042:	0c 94 ff 00 	jmp	0x1fe	; 0x1fe <schreibe_Menge_in_Getraenk>
    2046:	08 95       	ret

00002048 <cocktail_check_command>:
void cocktail_check_command(int8_t page, int8_t button)
{
/*
	Diese Funktion checkt, von welcher Seiter der Befehl kommt
*/
	switch (page)
    2048:	08 2e       	mov	r0, r24
    204a:	00 0c       	add	r0, r0
    204c:	99 0b       	sbc	r25, r25
    204e:	aa 0b       	sbc	r26, r26
    2050:	bb 0b       	sbc	r27, r27
    2052:	fc 01       	movw	r30, r24
    2054:	31 97       	sbiw	r30, 0x01	; 1
    2056:	e1 31       	cpi	r30, 0x11	; 17
    2058:	f1 05       	cpc	r31, r1
    205a:	98 f5       	brcc	.+102    	; 0x20c2 <cocktail_check_command+0x7a>
    205c:	88 27       	eor	r24, r24
    205e:	eb 53       	subi	r30, 0x3B	; 59
    2060:	ff 4f       	sbci	r31, 0xFF	; 255
    2062:	8f 4f       	sbci	r24, 0xFF	; 255
    2064:	0c 94 a7 23 	jmp	0x474e	; 0x474e <__tablejump2__>
	{
		/*0x01 = 0d01*/
	case STARTANZEIGE:
		check_startseite(button);	
    2068:	86 2f       	mov	r24, r22
    206a:	00 cb       	rjmp	.-2560   	; 0x166c <check_startseite>
	break;
    206c:	08 95       	ret
		
		/*0x02 = 0d02*/
	case ZUTATENANZEIGE:
		check_zutatenanzeige(button);		
    206e:	86 2f       	mov	r24, r22
    2070:	0c 94 3a 04 	jmp	0x874	; 0x874 <check_zutatenanzeige>
	break;
    2074:	08 95       	ret
		
		/*0x03 = 0d03*/
	case LISTENANZEIGE:
		check_listenanzeige(button);
    2076:	86 2f       	mov	r24, r22
    2078:	71 ca       	rjmp	.-2846   	; 0x155c <check_listenanzeige>
	break;
    207a:	08 95       	ret
	
		/*0x04 = 0d04*/
	case ZUBABFRAGE:
		check_zubabfrage(button);	
    207c:	86 2f       	mov	r24, r22
    207e:	0c 94 51 04 	jmp	0x8a2	; 0x8a2 <check_zubabfrage>
		check_zubbildschirm(button);	
	break;
		
		/*0x07 = 0d07*/
	case MENUANZEIGE:
		check_menuanzeige(button);
    2082:	08 95       	ret
    2084:	86 2f       	mov	r24, r22
	break;
    2086:	ad ca       	rjmp	.-2726   	; 0x15e2 <check_menuanzeige>
	
		/*0x08 = 0d08*/
	case BEARBEITUNGSANZEIGE:
		check_bearbeitungsanzeige(button);
    2088:	08 95       	ret
    208a:	86 2f       	mov	r24, r22
	break;
    208c:	4f cb       	rjmp	.-2402   	; 0x172c <check_bearbeitungsanzeige>
	
		/*0x09 0d09*/
	case CEINSTANZEIGE:
		check_ceinstanzeige(button);
    208e:	08 95       	ret
    2090:	86 2f       	mov	r24, r22
    2092:	74 cf       	rjmp	.-280    	; 0x1f7c <check_ceinstanzeige>
	break;
    2094:	08 95       	ret
	
		/*0x0A = 0d10*/
	case REINANZEIGE1:
		check_reinanzeige1(button);	
    2096:	86 2f       	mov	r24, r22
    2098:	0c 94 75 01 	jmp	0x2ea	; 0x2ea <check_reinanzeige1>
	break;
    209c:	08 95       	ret
		
		/*0x0B = 0d11*/
	case REINANZEIGE2:
		check_reinanzeige2(button);	
    209e:	86 2f       	mov	r24, r22
    20a0:	0c 94 71 06 	jmp	0xce2	; 0xce2 <check_reinanzeige2>
	break;
    20a4:	08 95       	ret
	
		/*0x0C = 0d12*/
	case REINANZEIGE3:
		check_reinanzeige3(button);
    20a6:	86 2f       	mov	r24, r22
    20a8:	0c 94 82 01 	jmp	0x304	; 0x304 <check_reinanzeige3>
	break;
    20ac:	08 95       	ret
		/*0x0D = 0d13*/
	case INFOANZEIGE:
		check_infoanzeige(button);
    20ae:	86 2f       	mov	r24, r22
    20b0:	0c 94 8b 01 	jmp	0x316	; 0x316 <check_infoanzeige>
	break;
    20b4:	08 95       	ret
		check_fehleranzeige(button);
	break;
	
		/*0x10 = 0d16*/
	case ERSTANZEIGE1:
		check_erstanzeige1(button);
    20b6:	86 2f       	mov	r24, r22
    20b8:	0c 94 b3 06 	jmp	0xd66	; 0xd66 <check_erstanzeige1>
	break;
	
		/*0x11 = 0d17*/
	case ERSTANZEIGE2:
		check_erstanzeige2(button);
    20bc:	08 95       	ret
    20be:	86 2f       	mov	r24, r22
    20c0:	9b ce       	rjmp	.-714    	; 0x1df8 <check_erstanzeige2>
    20c2:	08 95       	ret

000020c4 <create_new_getraenk>:
{
	for(int i = 0 ; i<4059 ; i++)
	{
		eeprom_write_byte(add+i,'\0');
	}
}
    20c4:	9f 92       	push	r9
    20c6:	af 92       	push	r10
    20c8:	bf 92       	push	r11
    20ca:	cf 92       	push	r12
    20cc:	df 92       	push	r13
    20ce:	ef 92       	push	r14
    20d0:	ff 92       	push	r15
    20d2:	0f 93       	push	r16
    20d4:	1f 93       	push	r17
    20d6:	cf 93       	push	r28
    20d8:	df 93       	push	r29
    20da:	7c 01       	movw	r14, r24
    20dc:	b6 2e       	mov	r11, r22
    20de:	17 2f       	mov	r17, r23
    20e0:	a4 2e       	mov	r10, r20
    20e2:	92 2e       	mov	r9, r18
    20e4:	6b e0       	ldi	r22, 0x0B	; 11
    20e6:	70 e0       	ldi	r23, 0x00	; 0
    20e8:	81 e0       	ldi	r24, 0x01	; 1
    20ea:	90 e0       	ldi	r25, 0x00	; 0
    20ec:	0e 94 c8 23 	call	0x4790	; 0x4790 <calloc>
    20f0:	ec 01       	movw	r28, r24
    20f2:	f7 01       	movw	r30, r14
    20f4:	01 90       	ld	r0, Z+
    20f6:	00 20       	and	r0, r0
    20f8:	e9 f7       	brne	.-6      	; 0x20f4 <create_new_getraenk+0x30>
    20fa:	31 97       	sbiw	r30, 0x01	; 1
    20fc:	6f 01       	movw	r12, r30
    20fe:	ce 18       	sub	r12, r14
    2100:	df 08       	sbc	r13, r15
    2102:	61 e0       	ldi	r22, 0x01	; 1
    2104:	70 e0       	ldi	r23, 0x00	; 0
    2106:	c6 01       	movw	r24, r12
    2108:	01 96       	adiw	r24, 0x01	; 1
    210a:	0e 94 c8 23 	call	0x4790	; 0x4790 <calloc>
    210e:	99 83       	std	Y+1, r25	; 0x01
    2110:	88 83       	st	Y, r24
    2112:	61 e0       	ldi	r22, 0x01	; 1
    2114:	70 e0       	ldi	r23, 0x00	; 0
    2116:	8d e0       	ldi	r24, 0x0D	; 13
    2118:	90 e0       	ldi	r25, 0x00	; 0
    211a:	0e 94 c8 23 	call	0x4790	; 0x4790 <calloc>
    211e:	9d 83       	std	Y+5, r25	; 0x05
    2120:	8c 83       	std	Y+4, r24	; 0x04
    2122:	9b 82       	std	Y+3, r9	; 0x03
    2124:	aa 82       	std	Y+2, r10	; 0x02
    2126:	0e 83       	std	Y+6, r16	; 0x06
    2128:	c1 14       	cp	r12, r1
    212a:	d1 04       	cpc	r13, r1
    212c:	d1 f0       	breq	.+52     	; 0x2162 <create_new_getraenk+0x9e>
    212e:	d7 01       	movw	r26, r14
    2130:	a6 01       	movw	r20, r12
    2132:	80 e0       	ldi	r24, 0x00	; 0
    2134:	90 e0       	ldi	r25, 0x00	; 0
    2136:	2d 91       	ld	r18, X+
    2138:	e8 81       	ld	r30, Y
    213a:	f9 81       	ldd	r31, Y+1	; 0x01
    213c:	e8 0f       	add	r30, r24
    213e:	f9 1f       	adc	r31, r25
    2140:	20 83       	st	Z, r18
    2142:	01 96       	adiw	r24, 0x01	; 1
    2144:	84 17       	cp	r24, r20
    2146:	95 07       	cpc	r25, r21
    2148:	b1 f7       	brne	.-20     	; 0x2136 <create_new_getraenk+0x72>
    214a:	0b c0       	rjmp	.+22     	; 0x2162 <create_new_getraenk+0x9e>
    214c:	2d 91       	ld	r18, X+
    214e:	ec 81       	ldd	r30, Y+4	; 0x04
    2150:	fd 81       	ldd	r31, Y+5	; 0x05
    2152:	e8 0f       	add	r30, r24
    2154:	f9 1f       	adc	r31, r25
    2156:	20 83       	st	Z, r18
    2158:	01 96       	adiw	r24, 0x01	; 1
    215a:	8c 30       	cpi	r24, 0x0C	; 12
    215c:	91 05       	cpc	r25, r1
    215e:	b1 f7       	brne	.-20     	; 0x214c <create_new_getraenk+0x88>
    2160:	12 c0       	rjmp	.+36     	; 0x2186 <create_new_getraenk+0xc2>
    2162:	8f ef       	ldi	r24, 0xFF	; 255
    2164:	c8 1a       	sub	r12, r24
    2166:	d8 0a       	sbc	r13, r24
    2168:	f7 01       	movw	r30, r14
    216a:	ec 0d       	add	r30, r12
    216c:	fd 1d       	adc	r31, r13
    216e:	80 81       	ld	r24, Z
    2170:	28 81       	ld	r18, Y
    2172:	39 81       	ldd	r19, Y+1	; 0x01
    2174:	f9 01       	movw	r30, r18
    2176:	ec 0d       	add	r30, r12
    2178:	fd 1d       	adc	r31, r13
    217a:	80 83       	st	Z, r24
    217c:	ab 2d       	mov	r26, r11
    217e:	b1 2f       	mov	r27, r17
    2180:	80 e0       	ldi	r24, 0x00	; 0
    2182:	90 e0       	ldi	r25, 0x00	; 0
    2184:	e3 cf       	rjmp	.-58     	; 0x214c <create_new_getraenk+0x88>
    2186:	ec 81       	ldd	r30, Y+4	; 0x04
    2188:	fd 81       	ldd	r31, Y+5	; 0x05
    218a:	15 86       	std	Z+13, r1	; 0x0d
    218c:	ce 01       	movw	r24, r28
    218e:	df 91       	pop	r29
    2190:	cf 91       	pop	r28
    2192:	1f 91       	pop	r17
    2194:	0f 91       	pop	r16
    2196:	ff 90       	pop	r15
    2198:	ef 90       	pop	r14
    219a:	df 90       	pop	r13
    219c:	cf 90       	pop	r12
    219e:	bf 90       	pop	r11
    21a0:	af 90       	pop	r10
    21a2:	9f 90       	pop	r9
    21a4:	08 95       	ret

000021a6 <insert_at_head>:
    21a6:	cf 93       	push	r28
    21a8:	df 93       	push	r29
    21aa:	dc 01       	movw	r26, r24
    21ac:	fb 01       	movw	r30, r22
    21ae:	8d 91       	ld	r24, X+
    21b0:	9c 91       	ld	r25, X
    21b2:	11 97       	sbiw	r26, 0x01	; 1
    21b4:	90 87       	std	Z+8, r25	; 0x08
    21b6:	87 83       	std	Z+7, r24	; 0x07
    21b8:	12 86       	std	Z+10, r1	; 0x0a
    21ba:	11 86       	std	Z+9, r1	; 0x09
    21bc:	cd 91       	ld	r28, X+
    21be:	dc 91       	ld	r29, X
    21c0:	11 97       	sbiw	r26, 0x01	; 1
    21c2:	20 97       	sbiw	r28, 0x00	; 0
    21c4:	29 f4       	brne	.+10     	; 0x21d0 <insert_at_head+0x2a>
    21c6:	70 93 dc 08 	sts	0x08DC, r23	; 0x8008dc <tail_getraenk+0x1>
    21ca:	60 93 db 08 	sts	0x08DB, r22	; 0x8008db <tail_getraenk>
    21ce:	08 c0       	rjmp	.+16     	; 0x21e0 <insert_at_head+0x3a>
    21d0:	7a 87       	std	Y+10, r23	; 0x0a
    21d2:	69 87       	std	Y+9, r22	; 0x09
    21d4:	80 91 db 08 	lds	r24, 0x08DB	; 0x8008db <tail_getraenk>
    21d8:	90 91 dc 08 	lds	r25, 0x08DC	; 0x8008dc <tail_getraenk+0x1>
    21dc:	92 87       	std	Z+10, r25	; 0x0a
    21de:	81 87       	std	Z+9, r24	; 0x09
    21e0:	ed 93       	st	X+, r30
    21e2:	fc 93       	st	X, r31
    21e4:	a0 91 db 08 	lds	r26, 0x08DB	; 0x8008db <tail_getraenk>
    21e8:	b0 91 dc 08 	lds	r27, 0x08DC	; 0x8008dc <tail_getraenk+0x1>
    21ec:	18 96       	adiw	r26, 0x08	; 8
    21ee:	fc 93       	st	X, r31
    21f0:	ee 93       	st	-X, r30
    21f2:	17 97       	sbiw	r26, 0x07	; 7
    21f4:	cf 01       	movw	r24, r30
    21f6:	df 91       	pop	r29
    21f8:	cf 91       	pop	r28
    21fa:	08 95       	ret

000021fc <create_new_getraenk_file>:

getraenk_file_t *create_new_getraenk_file(uint8_t file_to_create)
{
    21fc:	cf 93       	push	r28
    21fe:	c8 2f       	mov	r28, r24
	getraenk_file_t *newFile = calloc(1,sizeof(getraenk_file_t));
    2200:	65 e0       	ldi	r22, 0x05	; 5
    2202:	70 e0       	ldi	r23, 0x00	; 0
    2204:	81 e0       	ldi	r24, 0x01	; 1
    2206:	90 e0       	ldi	r25, 0x00	; 0
    2208:	0e 94 c8 23 	call	0x4790	; 0x4790 <calloc>
	newFile->file = file_to_create;
    220c:	fc 01       	movw	r30, r24
    220e:	c0 83       	st	Z, r28
	return newFile;
}
    2210:	cf 91       	pop	r28
    2212:	08 95       	ret

00002214 <insert_file_at_head>:

getraenk_file_t *insert_file_at_head(getraenk_file_t **head, getraenk_file_t *file_to_insert)
{	
    2214:	cf 93       	push	r28
    2216:	df 93       	push	r29
    2218:	dc 01       	movw	r26, r24
    221a:	fb 01       	movw	r30, r22
		file_to_insert->next = *head;
    221c:	8d 91       	ld	r24, X+
    221e:	9c 91       	ld	r25, X
    2220:	11 97       	sbiw	r26, 0x01	; 1
    2222:	92 83       	std	Z+2, r25	; 0x02
    2224:	81 83       	std	Z+1, r24	; 0x01
		file_to_insert->prev = NULL;
    2226:	14 82       	std	Z+4, r1	; 0x04
    2228:	13 82       	std	Z+3, r1	; 0x03
		
		if((*head) == NULL)
    222a:	cd 91       	ld	r28, X+
    222c:	dc 91       	ld	r29, X
    222e:	11 97       	sbiw	r26, 0x01	; 1
    2230:	20 97       	sbiw	r28, 0x00	; 0
    2232:	29 f4       	brne	.+10     	; 0x223e <insert_file_at_head+0x2a>
		{
			tail_getraenk_file = file_to_insert;
    2234:	70 93 d7 07 	sts	0x07D7, r23	; 0x8007d7 <tail_getraenk_file+0x1>
    2238:	60 93 d6 07 	sts	0x07D6, r22	; 0x8007d6 <tail_getraenk_file>
    223c:	08 c0       	rjmp	.+16     	; 0x224e <insert_file_at_head+0x3a>
		} else
		{
			(*head)->prev = file_to_insert;
    223e:	7c 83       	std	Y+4, r23	; 0x04
    2240:	6b 83       	std	Y+3, r22	; 0x03
			file_to_insert->prev = tail_getraenk_file;
    2242:	80 91 d6 07 	lds	r24, 0x07D6	; 0x8007d6 <tail_getraenk_file>
    2246:	90 91 d7 07 	lds	r25, 0x07D7	; 0x8007d7 <tail_getraenk_file+0x1>
    224a:	94 83       	std	Z+4, r25	; 0x04
    224c:	83 83       	std	Z+3, r24	; 0x03
		}
		*head = file_to_insert;
    224e:	ed 93       	st	X+, r30
    2250:	fc 93       	st	X, r31
		tail_getraenk_file->next = *head;
    2252:	a0 91 d6 07 	lds	r26, 0x07D6	; 0x8007d6 <tail_getraenk_file>
    2256:	b0 91 d7 07 	lds	r27, 0x07D7	; 0x8007d7 <tail_getraenk_file+0x1>
    225a:	12 96       	adiw	r26, 0x02	; 2
    225c:	fc 93       	st	X, r31
    225e:	ee 93       	st	-X, r30
    2260:	11 97       	sbiw	r26, 0x01	; 1
		return file_to_insert;
    2262:	cf 01       	movw	r24, r30
    2264:	df 91       	pop	r29
    2266:	cf 91       	pop	r28
    2268:	08 95       	ret

0000226a <cocktails_init>:




void cocktails_init(void)
{
    226a:	df 92       	push	r13
    226c:	ef 92       	push	r14
    226e:	ff 92       	push	r15
    2270:	0f 93       	push	r16
    2272:	1f 93       	push	r17
    2274:	cf 93       	push	r28
    2276:	df 93       	push	r29
    2278:	cd b7       	in	r28, 0x3d	; 61
    227a:	de b7       	in	r29, 0x3e	; 62
    227c:	2f 97       	sbiw	r28, 0x0f	; 15
    227e:	0f b6       	in	r0, 0x3f	; 63
    2280:	f8 94       	cli
    2282:	de bf       	out	0x3e, r29	; 62
    2284:	0f be       	out	0x3f, r0	; 63
    2286:	cd bf       	out	0x3d, r28	; 61

			- Initialisierungen

**************************************************************************************************************/

	head_getraenk = NULL;
    2288:	10 92 d9 07 	sts	0x07D9, r1	; 0x8007d9 <head_getraenk+0x1>
    228c:	10 92 d8 07 	sts	0x07D8, r1	; 0x8007d8 <head_getraenk>
	getraenk_t * tmp;
	head_getraenk_file = NULL;
    2290:	10 92 02 09 	sts	0x0902, r1	; 0x800902 <head_getraenk_file+0x1>
    2294:	10 92 01 09 	sts	0x0901, r1	; 0x800901 <head_getraenk_file>
    2298:	01 e0       	ldi	r16, 0x01	; 1
    229a:	10 e0       	ldi	r17, 0x00	; 0
			- Fr jedes gefundene File wird ein dynamisch gelinkter Eintrag in einer Liste generiert.
			- Im Eintrag ist der Name des Files gespeichert, und ermglicht einen spteren Aufruf.

**************************************************************************************************************/
	for ( int8_t i = 1 ; i <= 100; i++){
		char buff[15] = {'\0'};
    229c:	0f 2e       	mov	r0, r31
    229e:	ff e0       	ldi	r31, 0x0F	; 15
    22a0:	df 2e       	mov	r13, r31
    22a2:	f0 2d       	mov	r31, r0
    22a4:	ce 01       	movw	r24, r28
    22a6:	01 96       	adiw	r24, 0x01	; 1
    22a8:	7c 01       	movw	r14, r24
    22aa:	f7 01       	movw	r30, r14
    22ac:	8d 2d       	mov	r24, r13
    22ae:	11 92       	st	Z+, r1
    22b0:	8a 95       	dec	r24
    22b2:	e9 f7       	brne	.-6      	; 0x22ae <cocktails_init+0x44>
    22b4:	4a e0       	ldi	r20, 0x0A	; 10
    22b6:	b7 01       	movw	r22, r14
    22b8:	c8 01       	movw	r24, r16
    22ba:	0e 94 63 25 	call	0x4ac6	; 0x4ac6 <__itoa_ncheck>
		itoa(i, (char *)buff,10);
		strcat((char *)buff, (const char *)".txt");
    22be:	d7 01       	movw	r26, r14
    22c0:	0d 90       	ld	r0, X+
    22c2:	00 20       	and	r0, r0
    22c4:	e9 f7       	brne	.-6      	; 0x22c0 <cocktails_init+0x56>
    22c6:	11 97       	sbiw	r26, 0x01	; 1
    22c8:	85 e0       	ldi	r24, 0x05	; 5
    22ca:	e0 e6       	ldi	r30, 0x60	; 96
    22cc:	f3 e0       	ldi	r31, 0x03	; 3
    22ce:	01 90       	ld	r0, Z+
    22d0:	0d 92       	st	X+, r0
    22d2:	8a 95       	dec	r24
    22d4:	e1 f7       	brne	.-8      	; 0x22ce <cocktails_init+0x64>
		if(readFile(VERIFY, (unsigned char *)buff)==1)
    22d6:	b7 01       	movw	r22, r14
    22d8:	81 e0       	ldi	r24, 0x01	; 1
    22da:	0e 94 24 1b 	call	0x3648	; 0x3648 <readFile>
    22de:	81 30       	cpi	r24, 0x01	; 1
    22e0:	51 f4       	brne	.+20     	; 0x22f6 <cocktails_init+0x8c>
		{
			tmp2 = create_new_getraenk_file(i);
    22e2:	80 2f       	mov	r24, r16
    22e4:	8b df       	rcall	.-234    	; 0x21fc <create_new_getraenk_file>
			head_getraenk_file = insert_file_at_head(&head_getraenk_file, tmp2);
    22e6:	bc 01       	movw	r22, r24
    22e8:	81 e0       	ldi	r24, 0x01	; 1
    22ea:	99 e0       	ldi	r25, 0x09	; 9
    22ec:	93 df       	rcall	.-218    	; 0x2214 <insert_file_at_head>
    22ee:	90 93 02 09 	sts	0x0902, r25	; 0x800902 <head_getraenk_file+0x1>
    22f2:	80 93 01 09 	sts	0x0901, r24	; 0x800901 <head_getraenk_file>
    22f6:	0f 5f       	subi	r16, 0xFF	; 255
    22f8:	1f 4f       	sbci	r17, 0xFF	; 255
			- Ab hier werden die Getrnke gesucht, welche sich auf der SD-Karte befinden. (0.txt bis 100.txt)
			- Fr jedes gefundene File wird ein dynamisch gelinkter Eintrag in einer Liste generiert.
			- Im Eintrag ist der Name des Files gespeichert, und ermglicht einen spteren Aufruf.

**************************************************************************************************************/
	for ( int8_t i = 1 ; i <= 100; i++){
    22fa:	05 36       	cpi	r16, 0x65	; 101
    22fc:	11 05       	cpc	r17, r1
    22fe:	a9 f6       	brne	.-86     	; 0x22aa <cocktails_init+0x40>
			- Werden Daten bentigt, wird zuerst ein File in diese eine Getrnke-Struktur eingelesen
			  und erst dann verarbeitet.

**************************************************************************************************************/

	tmp = create_new_getraenk("12345678901234567890",0,0,0,0);
    2300:	00 e0       	ldi	r16, 0x00	; 0
    2302:	20 e0       	ldi	r18, 0x00	; 0
    2304:	40 e0       	ldi	r20, 0x00	; 0
    2306:	60 e0       	ldi	r22, 0x00	; 0
    2308:	70 e0       	ldi	r23, 0x00	; 0
    230a:	8e e3       	ldi	r24, 0x3E	; 62
    230c:	95 e0       	ldi	r25, 0x05	; 5
    230e:	da de       	rcall	.-588    	; 0x20c4 <create_new_getraenk>
	aktuellesGetraenk = insert_at_head(&head_getraenk, tmp);
    2310:	bc 01       	movw	r22, r24
    2312:	88 ed       	ldi	r24, 0xD8	; 216
    2314:	97 e0       	ldi	r25, 0x07	; 7
    2316:	47 df       	rcall	.-370    	; 0x21a6 <insert_at_head>
    2318:	90 93 50 0f 	sts	0x0F50, r25	; 0x800f50 <aktuellesGetraenk+0x1>
    231c:	80 93 4f 0f 	sts	0x0F4F, r24	; 0x800f4f <aktuellesGetraenk>
			- Hier wird der aktuelle Pointer auf den Listeneintrag gesetzt und das aktuelle File in die
			  Struktur des Type getraenk_t geladen.

**************************************************************************************************************/

	aktuellesGetraenk_file = tail_getraenk_file;
    2320:	e0 91 d6 07 	lds	r30, 0x07D6	; 0x8007d6 <tail_getraenk_file>
    2324:	f0 91 d7 07 	lds	r31, 0x07D7	; 0x8007d7 <tail_getraenk_file+0x1>
    2328:	f0 93 00 09 	sts	0x0900, r31	; 0x800900 <aktuellesGetraenk_file+0x1>
    232c:	e0 93 ff 08 	sts	0x08FF, r30	; 0x8008ff <aktuellesGetraenk_file>
	lese_textfile_in_getraenk(aktuellesGetraenk_file->file);
    2330:	80 81       	ld	r24, Z
    2332:	0e 94 b4 05 	call	0xb68	; 0xb68 <lese_textfile_in_getraenk>
}
    2336:	2f 96       	adiw	r28, 0x0f	; 15
    2338:	0f b6       	in	r0, 0x3f	; 63
    233a:	f8 94       	cli
    233c:	de bf       	out	0x3e, r29	; 62
    233e:	0f be       	out	0x3f, r0	; 63
    2340:	cd bf       	out	0x3d, r28	; 61
    2342:	df 91       	pop	r29
    2344:	cf 91       	pop	r28
    2346:	1f 91       	pop	r17
    2348:	0f 91       	pop	r16
    234a:	ff 90       	pop	r15
    234c:	ef 90       	pop	r14
    234e:	df 90       	pop	r13
    2350:	08 95       	ret

00002352 <create_neue_zutat>:
	head_zut = insert_zutat_at_head(&head_zut, tmp);
 	}
}

zutat_t *create_neue_zutat(char * name, char k)
{
    2352:	df 92       	push	r13
    2354:	ef 92       	push	r14
    2356:	ff 92       	push	r15
    2358:	0f 93       	push	r16
    235a:	1f 93       	push	r17
    235c:	cf 93       	push	r28
    235e:	df 93       	push	r29
    2360:	7c 01       	movw	r14, r24
    2362:	d6 2e       	mov	r13, r22
	zutat_t *newZutat = calloc(1,sizeof(zutat_t));
    2364:	67 e0       	ldi	r22, 0x07	; 7
    2366:	70 e0       	ldi	r23, 0x00	; 0
    2368:	81 e0       	ldi	r24, 0x01	; 1
    236a:	90 e0       	ldi	r25, 0x00	; 0
    236c:	0e 94 c8 23 	call	0x4790	; 0x4790 <calloc>
    2370:	ec 01       	movw	r28, r24
 	size_t n1 = strlen((const char *)name)+1;
    2372:	f7 01       	movw	r30, r14
    2374:	01 90       	ld	r0, Z+
    2376:	00 20       	and	r0, r0
    2378:	e9 f7       	brne	.-6      	; 0x2374 <create_neue_zutat+0x22>
    237a:	31 97       	sbiw	r30, 0x01	; 1
    237c:	8f 01       	movw	r16, r30
    237e:	0e 19       	sub	r16, r14
    2380:	1f 09       	sbc	r17, r15

 	newZutat->name = calloc(n1,sizeof(char));
    2382:	61 e0       	ldi	r22, 0x01	; 1
    2384:	70 e0       	ldi	r23, 0x00	; 0
    2386:	c8 01       	movw	r24, r16
    2388:	01 96       	adiw	r24, 0x01	; 1
    238a:	0e 94 c8 23 	call	0x4790	; 0x4790 <calloc>
    238e:	99 83       	std	Y+1, r25	; 0x01
    2390:	88 83       	st	Y, r24
	 
	newZutat->nr = k;
    2392:	da 82       	std	Y+2, r13	; 0x02
	newZutat->prev = NULL;
    2394:	1e 82       	std	Y+6, r1	; 0x06
    2396:	1d 82       	std	Y+5, r1	; 0x05
	newZutat->next = NULL;
    2398:	1c 82       	std	Y+4, r1	; 0x04
    239a:	1b 82       	std	Y+3, r1	; 0x03
	 
	int i = 0;
 	for (i=0; i<(n1-1); i++)
    239c:	01 15       	cp	r16, r1
    239e:	11 05       	cpc	r17, r1
    23a0:	79 f0       	breq	.+30     	; 0x23c0 <create_neue_zutat+0x6e>
    23a2:	d7 01       	movw	r26, r14
    23a4:	a8 01       	movw	r20, r16
    23a6:	20 e0       	ldi	r18, 0x00	; 0
    23a8:	30 e0       	ldi	r19, 0x00	; 0
 	{
 		*(char *)(newZutat->name + i) = *(char *)(name + i);
    23aa:	8d 91       	ld	r24, X+
    23ac:	e8 81       	ld	r30, Y
    23ae:	f9 81       	ldd	r31, Y+1	; 0x01
    23b0:	e2 0f       	add	r30, r18
    23b2:	f3 1f       	adc	r31, r19
    23b4:	80 83       	st	Z, r24
	newZutat->nr = k;
	newZutat->prev = NULL;
	newZutat->next = NULL;
	 
	int i = 0;
 	for (i=0; i<(n1-1); i++)
    23b6:	2f 5f       	subi	r18, 0xFF	; 255
    23b8:	3f 4f       	sbci	r19, 0xFF	; 255
    23ba:	24 17       	cp	r18, r20
    23bc:	35 07       	cpc	r19, r21
    23be:	a9 f7       	brne	.-22     	; 0x23aa <create_neue_zutat+0x58>
 	{
 		*(char *)(newZutat->name + i) = *(char *)(name + i);
 	}
	 	*(char *)(newZutat->name + (i+1)) = '\0';
    23c0:	88 81       	ld	r24, Y
    23c2:	99 81       	ldd	r25, Y+1	; 0x01
    23c4:	fc 01       	movw	r30, r24
    23c6:	e0 0f       	add	r30, r16
    23c8:	f1 1f       	adc	r31, r17
    23ca:	11 82       	std	Z+1, r1	; 0x01


	return newZutat;
}
    23cc:	ce 01       	movw	r24, r28
    23ce:	df 91       	pop	r29
    23d0:	cf 91       	pop	r28
    23d2:	1f 91       	pop	r17
    23d4:	0f 91       	pop	r16
    23d6:	ff 90       	pop	r15
    23d8:	ef 90       	pop	r14
    23da:	df 90       	pop	r13
    23dc:	08 95       	ret

000023de <insert_zutat_at_head>:

zutat_t *insert_zutat_at_head(zutat_t **head_zut, zutat_t *zutat_to_insert)
{
    23de:	cf 93       	push	r28
    23e0:	df 93       	push	r29
    23e2:	dc 01       	movw	r26, r24
    23e4:	fb 01       	movw	r30, r22
	zutat_to_insert->next = (*head_zut);
    23e6:	8d 91       	ld	r24, X+
    23e8:	9c 91       	ld	r25, X
    23ea:	11 97       	sbiw	r26, 0x01	; 1
    23ec:	94 83       	std	Z+4, r25	; 0x04
    23ee:	83 83       	std	Z+3, r24	; 0x03
	zutat_to_insert->prev = NULL;
    23f0:	16 82       	std	Z+6, r1	; 0x06
    23f2:	15 82       	std	Z+5, r1	; 0x05
	
	if((*head_zut) == NULL)
    23f4:	cd 91       	ld	r28, X+
    23f6:	dc 91       	ld	r29, X
    23f8:	11 97       	sbiw	r26, 0x01	; 1
    23fa:	20 97       	sbiw	r28, 0x00	; 0
    23fc:	29 f4       	brne	.+10     	; 0x2408 <insert_zutat_at_head+0x2a>
	{
		tail_zut = zutat_to_insert;
    23fe:	70 93 46 0f 	sts	0x0F46, r23	; 0x800f46 <tail_zut+0x1>
    2402:	60 93 45 0f 	sts	0x0F45, r22	; 0x800f45 <tail_zut>
    2406:	08 c0       	rjmp	.+16     	; 0x2418 <insert_zutat_at_head+0x3a>
	} else
	{
		(*head_zut)->prev = zutat_to_insert;
    2408:	7e 83       	std	Y+6, r23	; 0x06
    240a:	6d 83       	std	Y+5, r22	; 0x05
		zutat_to_insert->prev = tail_zut;
    240c:	80 91 45 0f 	lds	r24, 0x0F45	; 0x800f45 <tail_zut>
    2410:	90 91 46 0f 	lds	r25, 0x0F46	; 0x800f46 <tail_zut+0x1>
    2414:	96 83       	std	Z+6, r25	; 0x06
    2416:	85 83       	std	Z+5, r24	; 0x05
	}
	*head_zut = zutat_to_insert;
    2418:	ed 93       	st	X+, r30
    241a:	fc 93       	st	X, r31
	tail_zut->next = *head_zut;
    241c:	a0 91 45 0f 	lds	r26, 0x0F45	; 0x800f45 <tail_zut>
    2420:	b0 91 46 0f 	lds	r27, 0x0F46	; 0x800f46 <tail_zut+0x1>
    2424:	14 96       	adiw	r26, 0x04	; 4
    2426:	fc 93       	st	X, r31
    2428:	ee 93       	st	-X, r30
    242a:	13 97       	sbiw	r26, 0x03	; 3
	return zutat_to_insert;
}
    242c:	cf 01       	movw	r24, r30
    242e:	df 91       	pop	r29
    2430:	cf 91       	pop	r28
    2432:	08 95       	ret

00002434 <zutaten_init>:

#include "Zutaten.h"


void zutaten_init(void)
{
    2434:	ef 92       	push	r14
    2436:	ff 92       	push	r15
    2438:	1f 93       	push	r17
    243a:	cf 93       	push	r28
    243c:	df 93       	push	r29
    243e:	cd b7       	in	r28, 0x3d	; 61
    2440:	de b7       	in	r29, 0x3e	; 62
    2442:	c0 5f       	subi	r28, 0xF0	; 240
    2444:	d1 09       	sbc	r29, r1
    2446:	0f b6       	in	r0, 0x3f	; 63
    2448:	f8 94       	cli
    244a:	de bf       	out	0x3e, r29	; 62
    244c:	0f be       	out	0x3f, r0	; 63
    244e:	cd bf       	out	0x3d, r28	; 61
	address_zut  = (uint8_t *)0;
    2450:	10 92 e2 08 	sts	0x08E2, r1	; 0x8008e2 <address_zut+0x1>
    2454:	10 92 e1 08 	sts	0x08E1, r1	; 0x8008e1 <address_zut>
		1,
		1,
		1,
	};

	char zutaten[12][20] = 
    2458:	80 ef       	ldi	r24, 0xF0	; 240
    245a:	e6 e0       	ldi	r30, 0x06	; 6
    245c:	f2 e0       	ldi	r31, 0x02	; 2
    245e:	de 01       	movw	r26, r28
    2460:	11 96       	adiw	r26, 0x01	; 1
    2462:	01 90       	ld	r0, Z+
    2464:	0d 92       	st	X+, r0
    2466:	8a 95       	dec	r24
    2468:	e1 f7       	brne	.-8      	; 0x2462 <zutaten_init+0x2e>
		"Triple Sec",
		"Whisky",
		"Wodka"
	};
	
	head_zut = NULL;
    246a:	10 92 05 09 	sts	0x0905, r1	; 0x800905 <head_zut+0x1>
    246e:	10 92 04 09 	sts	0x0904, r1	; 0x800904 <head_zut>
    2472:	ce 01       	movw	r24, r28
    2474:	01 96       	adiw	r24, 0x01	; 1
    2476:	7c 01       	movw	r14, r24
    2478:	10 e0       	ldi	r17, 0x00	; 0
	zutat_t *tmp;
 	for ( int i = 0 ; i<12;i++){
	tmp = create_neue_zutat(zutaten[i], i);
    247a:	61 2f       	mov	r22, r17
    247c:	c7 01       	movw	r24, r14
    247e:	69 df       	rcall	.-302    	; 0x2352 <create_neue_zutat>
	head_zut = insert_zutat_at_head(&head_zut, tmp);
    2480:	bc 01       	movw	r22, r24
    2482:	84 e0       	ldi	r24, 0x04	; 4
    2484:	99 e0       	ldi	r25, 0x09	; 9
    2486:	ab df       	rcall	.-170    	; 0x23de <insert_zutat_at_head>
    2488:	90 93 05 09 	sts	0x0905, r25	; 0x800905 <head_zut+0x1>
    248c:	80 93 04 09 	sts	0x0904, r24	; 0x800904 <head_zut>
    2490:	94 e1       	ldi	r25, 0x14	; 20
    2492:	e9 0e       	add	r14, r25
    2494:	f1 1c       	adc	r15, r1
    2496:	1f 5f       	subi	r17, 0xFF	; 255
		"Wodka"
	};
	
	head_zut = NULL;
	zutat_t *tmp;
 	for ( int i = 0 ; i<12;i++){
    2498:	1c 30       	cpi	r17, 0x0C	; 12
    249a:	79 f7       	brne	.-34     	; 0x247a <zutaten_init+0x46>
	tmp = create_neue_zutat(zutaten[i], i);
	head_zut = insert_zutat_at_head(&head_zut, tmp);
 	}
}
    249c:	c0 51       	subi	r28, 0x10	; 16
    249e:	df 4f       	sbci	r29, 0xFF	; 255
    24a0:	0f b6       	in	r0, 0x3f	; 63
    24a2:	f8 94       	cli
    24a4:	de bf       	out	0x3e, r29	; 62
    24a6:	0f be       	out	0x3f, r0	; 63
    24a8:	cd bf       	out	0x3d, r28	; 61
    24aa:	df 91       	pop	r29
    24ac:	cf 91       	pop	r28
    24ae:	1f 91       	pop	r17
    24b0:	ff 90       	pop	r15
    24b2:	ef 90       	pop	r14
    24b4:	08 95       	ret

000024b6 <IO_init>:
    24b6:	88 e7       	ldi	r24, 0x78	; 120
    24b8:	80 bb       	out	0x10, r24	; 16
    24ba:	87 e8       	ldi	r24, 0x87	; 135
    24bc:	84 b9       	out	0x04, r24	; 4
    24be:	88 e6       	ldi	r24, 0x68	; 104
    24c0:	80 93 01 01 	sts	0x0101, r24	; 0x800101 <__TEXT_REGION_LENGTH__+0x700101>
    24c4:	8c ef       	ldi	r24, 0xFC	; 252
    24c6:	81 b9       	out	0x01, r24	; 1
    24c8:	85 e0       	ldi	r24, 0x05	; 5
    24ca:	83 bb       	out	0x13, r24	; 19
    24cc:	8c e7       	ldi	r24, 0x7C	; 124
    24ce:	80 93 04 01 	sts	0x0104, r24	; 0x800104 <__TEXT_REGION_LENGTH__+0x700104>
    24d2:	83 e0       	ldi	r24, 0x03	; 3
    24d4:	87 b9       	out	0x07, r24	; 7
    24d6:	10 92 07 01 	sts	0x0107, r1	; 0x800107 <__TEXT_REGION_LENGTH__+0x700107>
    24da:	93 b1       	in	r25, 0x03	; 3
    24dc:	85 b1       	in	r24, 0x05	; 5
    24de:	89 2b       	or	r24, r25
    24e0:	85 b9       	out	0x05, r24	; 5
    24e2:	08 95       	ret

000024e4 <check_Communication_Input_UART_0>:
{
		LED_PORT = LED_PORT ^ (LEDR_BIT|LEDG_BIT|LEDB_BIT|LEDW_BIT);
}

char check_Communication_Input_UART_0(void)
{
    24e4:	1f 93       	push	r17
    24e6:	cf 93       	push	r28
    24e8:	df 93       	push	r29
	char ret = 0;
    24ea:	d0 e0       	ldi	r29, 0x00	; 0
		}
		else
		{
			INPUT_UART_0[cntr_UART_0]=ch;
			cntr_UART_0++;
			ret = 0;
    24ec:	c0 e0       	ldi	r28, 0x00	; 0
		if (ch == 13)
		{
			INPUT_UART_0[cntr_UART_0] = 0;
			cntr_UART_0 = 0;
			cntr_End_UART_0 = 0;
			ret = 1;
    24ee:	11 e0       	ldi	r17, 0x01	; 1

char check_Communication_Input_UART_0(void)
{
	char ret = 0;
	// Check Buffer auf Einkommende Daten
	while(RB_length(&rb_rx_PC)>0)
    24f0:	1c c0       	rjmp	.+56     	; 0x252a <check_Communication_Input_UART_0+0x46>
	{
		unsigned char ch = RB_readByte(&rb_rx_PC);
    24f2:	8a e3       	ldi	r24, 0x3A	; 58
    24f4:	9d e0       	ldi	r25, 0x0D	; 13
    24f6:	71 d2       	rcall	.+1250   	; 0x29da <RB_readByte>
		if (ch == 13)
    24f8:	8d 30       	cpi	r24, 0x0D	; 13
    24fa:	61 f4       	brne	.+24     	; 0x2514 <check_Communication_Input_UART_0+0x30>
		{
			INPUT_UART_0[cntr_UART_0] = 0;
    24fc:	e0 91 d4 06 	lds	r30, 0x06D4	; 0x8006d4 <cntr_UART_0>
    2500:	f0 e0       	ldi	r31, 0x00	; 0
    2502:	e4 5a       	subi	r30, 0xA4	; 164
    2504:	f0 4f       	sbci	r31, 0xF0	; 240
    2506:	10 82       	st	Z, r1
			cntr_UART_0 = 0;
    2508:	c0 93 d4 06 	sts	0x06D4, r28	; 0x8006d4 <cntr_UART_0>
			cntr_End_UART_0 = 0;
    250c:	c0 93 d3 06 	sts	0x06D3, r28	; 0x8006d3 <cntr_End_UART_0>
			ret = 1;
    2510:	d1 2f       	mov	r29, r17
    2512:	0b c0       	rjmp	.+22     	; 0x252a <check_Communication_Input_UART_0+0x46>
		}
		else
		{
			INPUT_UART_0[cntr_UART_0]=ch;
    2514:	90 91 d4 06 	lds	r25, 0x06D4	; 0x8006d4 <cntr_UART_0>
    2518:	e9 2f       	mov	r30, r25
    251a:	f0 e0       	ldi	r31, 0x00	; 0
    251c:	e4 5a       	subi	r30, 0xA4	; 164
    251e:	f0 4f       	sbci	r31, 0xF0	; 240
    2520:	80 83       	st	Z, r24
			cntr_UART_0++;
    2522:	9f 5f       	subi	r25, 0xFF	; 255
    2524:	90 93 d4 06 	sts	0x06D4, r25	; 0x8006d4 <cntr_UART_0>
			ret = 0;
    2528:	dc 2f       	mov	r29, r28

char check_Communication_Input_UART_0(void)
{
	char ret = 0;
	// Check Buffer auf Einkommende Daten
	while(RB_length(&rb_rx_PC)>0)
    252a:	8a e3       	ldi	r24, 0x3A	; 58
    252c:	9d e0       	ldi	r25, 0x0D	; 13
    252e:	49 d2       	rcall	.+1170   	; 0x29c2 <RB_length>
    2530:	81 11       	cpse	r24, r1
    2532:	df cf       	rjmp	.-66     	; 0x24f2 <check_Communication_Input_UART_0+0xe>
			cntr_UART_0++;
			ret = 0;
		}
	}
	return ret;
}
    2534:	8d 2f       	mov	r24, r29
    2536:	df 91       	pop	r29
    2538:	cf 91       	pop	r28
    253a:	1f 91       	pop	r17
    253c:	08 95       	ret

0000253e <proceed_Communication_Input_UART_0>:

void proceed_Communication_Input_UART_0(void)
{
// 	char * ch = "Proceed UART 0: \n\r";
// 	Uart_Transmit_IT_PC(ch);
	cocktail_test_command(INPUT_UART_0);
    253e:	8c e5       	ldi	r24, 0x5C	; 92
    2540:	9f e0       	ldi	r25, 0x0F	; 15
    2542:	0c 94 f8 00 	jmp	0x1f0	; 0x1f0 <cocktail_test_command>
    2546:	08 95       	ret

00002548 <check_Communication_Input_UART_1>:
}

char check_Communication_Input_UART_1(void)
{
    2548:	df 92       	push	r13
    254a:	ef 92       	push	r14
    254c:	ff 92       	push	r15
    254e:	0f 93       	push	r16
    2550:	1f 93       	push	r17
    2552:	cf 93       	push	r28
    2554:	df 93       	push	r29
	char ret = 0;
    2556:	d1 2c       	mov	r13, r1
		}
		else
		{
			INPUT_UART_1[cntr_UART_1]=ch;
			cntr_UART_1++;
			ret = 0;
    2558:	10 e0       	ldi	r17, 0x00	; 0
			INPUT_UART_1[cntr_UART_1] = 0;
			INPUT_UART_1[cntr_UART_1-1]=0;
			INPUT_UART_1[cntr_UART_1-2]=0;
			cntr_UART_1 = 0;
			cntr_End_UART_1 = 0;
			ret = 1;
    255a:	01 e0       	ldi	r16, 0x01	; 1
			else if (cntr_End_UART_1==2 && ((INPUT_UART_1[cntr_UART_1-1] != 0xFF) || (INPUT_UART_1[cntr_UART_1-2] != 0xFF)))
			{
				cntr_End_UART_1 = 0;
			}
		}
		if (INPUT_UART_1[0] == 'q' && strlen((const char *)INPUT_UART_1) >=4)
    255c:	cc e5       	ldi	r28, 0x5C	; 92
    255e:	d0 e1       	ldi	r29, 0x10	; 16
		{
			INPUT_UART_1[0] = 255;
    2560:	ff 24       	eor	r15, r15
    2562:	fa 94       	dec	r15
			{
				cntr_End_UART_1++;
			}
			else if (cntr_End_UART_1==1 && (INPUT_UART_1[cntr_UART_1-1] == 0xFF))
			{
				cntr_End_UART_1++;
    2564:	68 94       	set
    2566:	ee 24       	eor	r14, r14
    2568:	e1 f8       	bld	r14, 1
}

char check_Communication_Input_UART_1(void)
{
	char ret = 0;
	while(RB_length(&rb_rx_Display)>0)					// UART_1
    256a:	61 c0       	rjmp	.+194    	; 0x262e <check_Communication_Input_UART_1+0xe6>
	{

		unsigned char ch = RB_readByte(&rb_rx_Display);
    256c:	82 e1       	ldi	r24, 0x12	; 18
    256e:	9a e0       	ldi	r25, 0x0A	; 10
    2570:	34 d2       	rcall	.+1128   	; 0x29da <RB_readByte>

		if (ch == 0xFF && INPUT_UART_1[0] != 'q')
    2572:	8f 3f       	cpi	r24, 0xFF	; 255
    2574:	79 f5       	brne	.+94     	; 0x25d4 <check_Communication_Input_UART_1+0x8c>
    2576:	98 81       	ld	r25, Y
    2578:	91 37       	cpi	r25, 0x71	; 113
    257a:	79 f1       	breq	.+94     	; 0x25da <check_Communication_Input_UART_1+0x92>
		{
			if (cntr_End_UART_1==0)
    257c:	90 91 d1 06 	lds	r25, 0x06D1	; 0x8006d1 <cntr_End_UART_1>
    2580:	91 11       	cpse	r25, r1
    2582:	03 c0       	rjmp	.+6      	; 0x258a <check_Communication_Input_UART_1+0x42>
			{
				cntr_End_UART_1++;
    2584:	00 93 d1 06 	sts	0x06D1, r16	; 0x8006d1 <cntr_End_UART_1>
    2588:	47 c0       	rjmp	.+142    	; 0x2618 <check_Communication_Input_UART_1+0xd0>
			}
			else if (cntr_End_UART_1==1 && (INPUT_UART_1[cntr_UART_1-1] == 0xFF))
    258a:	91 30       	cpi	r25, 0x01	; 1
    258c:	71 f4       	brne	.+28     	; 0x25aa <check_Communication_Input_UART_1+0x62>
    258e:	e0 91 d2 06 	lds	r30, 0x06D2	; 0x8006d2 <cntr_UART_1>
    2592:	f0 e0       	ldi	r31, 0x00	; 0
    2594:	e5 5a       	subi	r30, 0xA5	; 165
    2596:	ff 4e       	sbci	r31, 0xEF	; 239
    2598:	90 81       	ld	r25, Z
    259a:	9f 3f       	cpi	r25, 0xFF	; 255
    259c:	19 f4       	brne	.+6      	; 0x25a4 <check_Communication_Input_UART_1+0x5c>
			{
				cntr_End_UART_1++;
    259e:	e0 92 d1 06 	sts	0x06D1, r14	; 0x8006d1 <cntr_End_UART_1>
    25a2:	3a c0       	rjmp	.+116    	; 0x2618 <check_Communication_Input_UART_1+0xd0>
			}
			else if (cntr_End_UART_1==1 && (INPUT_UART_1[cntr_UART_1-1] != 0xFF))
			{
				cntr_End_UART_1=0;
    25a4:	10 93 d1 06 	sts	0x06D1, r17	; 0x8006d1 <cntr_End_UART_1>
    25a8:	37 c0       	rjmp	.+110    	; 0x2618 <check_Communication_Input_UART_1+0xd0>
			}
			else if (cntr_End_UART_1==2 && (INPUT_UART_1[cntr_UART_1-1] == 0xFF) && (INPUT_UART_1[cntr_UART_1-2] == 0xFF))
    25aa:	92 30       	cpi	r25, 0x02	; 2
    25ac:	01 f5       	brne	.+64     	; 0x25ee <check_Communication_Input_UART_1+0xa6>
    25ae:	20 91 d2 06 	lds	r18, 0x06D2	; 0x8006d2 <cntr_UART_1>
    25b2:	30 e0       	ldi	r19, 0x00	; 0
    25b4:	f9 01       	movw	r30, r18
    25b6:	e5 5a       	subi	r30, 0xA5	; 165
    25b8:	ff 4e       	sbci	r31, 0xEF	; 239
    25ba:	90 81       	ld	r25, Z
    25bc:	9f 3f       	cpi	r25, 0xFF	; 255
    25be:	39 f4       	brne	.+14     	; 0x25ce <check_Communication_Input_UART_1+0x86>
    25c0:	f9 01       	movw	r30, r18
    25c2:	e6 5a       	subi	r30, 0xA6	; 166
    25c4:	ff 4e       	sbci	r31, 0xEF	; 239
    25c6:	90 81       	ld	r25, Z
    25c8:	9f 3f       	cpi	r25, 0xFF	; 255
    25ca:	b9 f5       	brne	.+110    	; 0x263a <check_Communication_Input_UART_1+0xf2>
    25cc:	14 c0       	rjmp	.+40     	; 0x25f6 <check_Communication_Input_UART_1+0xae>
			{
				cntr_End_UART_1++;
			}
			else if (cntr_End_UART_1==2 && ((INPUT_UART_1[cntr_UART_1-1] != 0xFF) || (INPUT_UART_1[cntr_UART_1-2] != 0xFF)))
			{
				cntr_End_UART_1 = 0;
    25ce:	10 93 d1 06 	sts	0x06D1, r17	; 0x8006d1 <cntr_End_UART_1>
    25d2:	22 c0       	rjmp	.+68     	; 0x2618 <check_Communication_Input_UART_1+0xd0>
			}
		}
		if (INPUT_UART_1[0] == 'q' && strlen((const char *)INPUT_UART_1) >=4)
    25d4:	98 81       	ld	r25, Y
    25d6:	91 37       	cpi	r25, 0x71	; 113
    25d8:	51 f4       	brne	.+20     	; 0x25ee <check_Communication_Input_UART_1+0xa6>
    25da:	fe 01       	movw	r30, r28
    25dc:	01 90       	ld	r0, Z+
    25de:	00 20       	and	r0, r0
    25e0:	e9 f7       	brne	.-6      	; 0x25dc <check_Communication_Input_UART_1+0x94>
    25e2:	31 97       	sbiw	r30, 0x01	; 1
    25e4:	ec 55       	subi	r30, 0x5C	; 92
    25e6:	f0 41       	sbci	r31, 0x10	; 16
    25e8:	34 97       	sbiw	r30, 0x04	; 4
    25ea:	08 f0       	brcs	.+2      	; 0x25ee <check_Communication_Input_UART_1+0xa6>
		{
			INPUT_UART_1[0] = 255;
    25ec:	f8 82       	st	Y, r15
		}
		if (cntr_End_UART_1 == 3)
    25ee:	90 91 d1 06 	lds	r25, 0x06D1	; 0x8006d1 <cntr_End_UART_1>
    25f2:	93 30       	cpi	r25, 0x03	; 3
    25f4:	89 f4       	brne	.+34     	; 0x2618 <check_Communication_Input_UART_1+0xd0>
		{
			INPUT_UART_1[cntr_UART_1] = 0;
    25f6:	e0 91 d2 06 	lds	r30, 0x06D2	; 0x8006d2 <cntr_UART_1>
    25fa:	f0 e0       	ldi	r31, 0x00	; 0
    25fc:	e4 5a       	subi	r30, 0xA4	; 164
    25fe:	ff 4e       	sbci	r31, 0xEF	; 239
    2600:	10 82       	st	Z, r1
			INPUT_UART_1[cntr_UART_1-1]=0;
    2602:	df 01       	movw	r26, r30
    2604:	11 97       	sbiw	r26, 0x01	; 1
    2606:	1c 92       	st	X, r1
			INPUT_UART_1[cntr_UART_1-2]=0;
    2608:	32 97       	sbiw	r30, 0x02	; 2
    260a:	10 82       	st	Z, r1
			cntr_UART_1 = 0;
    260c:	10 93 d2 06 	sts	0x06D2, r17	; 0x8006d2 <cntr_UART_1>
			cntr_End_UART_1 = 0;
    2610:	10 93 d1 06 	sts	0x06D1, r17	; 0x8006d1 <cntr_End_UART_1>
			ret = 1;
    2614:	d0 2e       	mov	r13, r16
    2616:	0b c0       	rjmp	.+22     	; 0x262e <check_Communication_Input_UART_1+0xe6>
		}
		else
		{
			INPUT_UART_1[cntr_UART_1]=ch;
    2618:	90 91 d2 06 	lds	r25, 0x06D2	; 0x8006d2 <cntr_UART_1>
    261c:	e9 2f       	mov	r30, r25
    261e:	f0 e0       	ldi	r31, 0x00	; 0
    2620:	e4 5a       	subi	r30, 0xA4	; 164
    2622:	ff 4e       	sbci	r31, 0xEF	; 239
    2624:	80 83       	st	Z, r24
			cntr_UART_1++;
    2626:	9f 5f       	subi	r25, 0xFF	; 255
    2628:	90 93 d2 06 	sts	0x06D2, r25	; 0x8006d2 <cntr_UART_1>
			ret = 0;
    262c:	d1 2e       	mov	r13, r17
}

char check_Communication_Input_UART_1(void)
{
	char ret = 0;
	while(RB_length(&rb_rx_Display)>0)					// UART_1
    262e:	82 e1       	ldi	r24, 0x12	; 18
    2630:	9a e0       	ldi	r25, 0x0A	; 10
    2632:	c7 d1       	rcall	.+910    	; 0x29c2 <RB_length>
    2634:	81 11       	cpse	r24, r1
    2636:	9a cf       	rjmp	.-204    	; 0x256c <check_Communication_Input_UART_1+0x24>
    2638:	07 c0       	rjmp	.+14     	; 0x2648 <check_Communication_Input_UART_1+0x100>
			}
			else if (cntr_End_UART_1==2 && (INPUT_UART_1[cntr_UART_1-1] == 0xFF) && (INPUT_UART_1[cntr_UART_1-2] == 0xFF))
			{
				cntr_End_UART_1++;
			}
			else if (cntr_End_UART_1==2 && ((INPUT_UART_1[cntr_UART_1-1] != 0xFF) || (INPUT_UART_1[cntr_UART_1-2] != 0xFF)))
    263a:	f9 01       	movw	r30, r18
    263c:	e6 5a       	subi	r30, 0xA6	; 166
    263e:	ff 4e       	sbci	r31, 0xEF	; 239
    2640:	90 81       	ld	r25, Z
    2642:	9f 3f       	cpi	r25, 0xFF	; 255
    2644:	21 f6       	brne	.-120    	; 0x25ce <check_Communication_Input_UART_1+0x86>
    2646:	e8 cf       	rjmp	.-48     	; 0x2618 <check_Communication_Input_UART_1+0xd0>
			cntr_UART_1++;
			ret = 0;
		}
	}
	return ret;
}
    2648:	8d 2d       	mov	r24, r13
    264a:	df 91       	pop	r29
    264c:	cf 91       	pop	r28
    264e:	1f 91       	pop	r17
    2650:	0f 91       	pop	r16
    2652:	ff 90       	pop	r15
    2654:	ef 90       	pop	r14
    2656:	df 90       	pop	r13
    2658:	08 95       	ret

0000265a <proceed_Communication_INPUT_UART_1>:

void proceed_Communication_INPUT_UART_1(void)
{
	Uart_Transmit_IT_PC("Proceed UART 1: ");
    265a:	83 e5       	ldi	r24, 0x53	; 83
    265c:	95 e0       	ldi	r25, 0x05	; 5
    265e:	0e 94 e2 21 	call	0x43c4	; 0x43c4 <Uart_Transmit_IT_PC>
	Uart_Transmit_IT_PC((char *)INPUT_UART_1);
    2662:	8c e5       	ldi	r24, 0x5C	; 92
    2664:	90 e1       	ldi	r25, 0x10	; 16
    2666:	0e 94 e2 21 	call	0x43c4	; 0x43c4 <Uart_Transmit_IT_PC>
	Uart_Transmit_IT_PC("\r");
    266a:	8c e3       	ldi	r24, 0x3C	; 60
    266c:	95 e0       	ldi	r25, 0x05	; 5
    266e:	0e 94 e2 21 	call	0x43c4	; 0x43c4 <Uart_Transmit_IT_PC>
	
	cocktail_check_command(INPUT_UART_1[0], INPUT_UART_1[1]);
    2672:	ec e5       	ldi	r30, 0x5C	; 92
    2674:	f0 e1       	ldi	r31, 0x10	; 16
    2676:	61 81       	ldd	r22, Z+1	; 0x01
    2678:	80 81       	ld	r24, Z
    267a:	e6 cc       	rjmp	.-1588   	; 0x2048 <cocktail_check_command>
    267c:	08 95       	ret

0000267e <check_Communication_Input_UART_2>:
}

char check_Communication_Input_UART_2(void)
{
    267e:	0f 93       	push	r16
    2680:	1f 93       	push	r17
    2682:	cf 93       	push	r28
    2684:	df 93       	push	r29
	char ret = 0;
    2686:	00 e0       	ldi	r16, 0x00	; 0
		}
		else
		{
			INPUT_UART_2[cntr_UART_2]=ch;
			cntr_UART_2++;
			ret = 0;
    2688:	c0 e0       	ldi	r28, 0x00	; 0
			INPUT_UART_2[cntr_UART_2] = 0;
			INPUT_UART_2[cntr_UART_2-1]=0;
			INPUT_UART_2[cntr_UART_2-2]=0;
			cntr_UART_2 = 0;
			cntr_End_UART_2 = 0;
			ret = 1;
    268a:	d1 e0       	ldi	r29, 0x01	; 1
			{
				cntr_End_UART_2++;
			}
			if (cntr_End_UART_2==1 && (INPUT_UART_2[cntr_UART_2-1] == 0xFF))
			{
				cntr_End_UART_2++;
    268c:	12 e0       	ldi	r17, 0x02	; 2
}

char check_Communication_Input_UART_2(void)
{
	char ret = 0;
	while(RB_length(&rb_rx_ESP)>0)					// UART_2
    268e:	49 c0       	rjmp	.+146    	; 0x2722 <check_Communication_Input_UART_2+0xa4>
	{
		unsigned char ch = RB_readByte(&rb_rx_ESP);
    2690:	8b e0       	ldi	r24, 0x0B	; 11
    2692:	99 e0       	ldi	r25, 0x09	; 9
    2694:	a2 d1       	rcall	.+836    	; 0x29da <RB_readByte>
		// Verbesserung oder Verschlimmbesserung: Falls cntr_UART_1 >=2 dann schauen ob die letzten drei bertragungen [cntr_UART_1], [cntr_UART_1-1], [cntr_UART_1-2] 0xFF sind
		if (ch == 0xFF)
    2696:	8f 3f       	cpi	r24, 0xFF	; 255
    2698:	21 f5       	brne	.+72     	; 0x26e2 <check_Communication_Input_UART_2+0x64>
		{
			if (cntr_End_UART_2==0)
    269a:	90 91 cf 06 	lds	r25, 0x06CF	; 0x8006cf <cntr_End_UART_2>
    269e:	99 23       	and	r25, r25
    26a0:	19 f0       	breq	.+6      	; 0x26a8 <check_Communication_Input_UART_2+0x2a>
			{
				cntr_End_UART_2++;
			}
			if (cntr_End_UART_2==1 && (INPUT_UART_2[cntr_UART_2-1] == 0xFF))
    26a2:	91 30       	cpi	r25, 0x01	; 1
    26a4:	09 f0       	breq	.+2      	; 0x26a8 <check_Communication_Input_UART_2+0x2a>
    26a6:	46 c0       	rjmp	.+140    	; 0x2734 <check_Communication_Input_UART_2+0xb6>
    26a8:	e0 91 d0 06 	lds	r30, 0x06D0	; 0x8006d0 <cntr_UART_2>
    26ac:	f0 e0       	ldi	r31, 0x00	; 0
    26ae:	e3 5a       	subi	r30, 0xA3	; 163
    26b0:	fe 4e       	sbci	r31, 0xEE	; 238
    26b2:	90 81       	ld	r25, Z
    26b4:	9f 3f       	cpi	r25, 0xFF	; 255
    26b6:	d9 f5       	brne	.+118    	; 0x272e <check_Communication_Input_UART_2+0xb0>
			{
				cntr_End_UART_2++;
    26b8:	10 93 cf 06 	sts	0x06CF, r17	; 0x8006cf <cntr_End_UART_2>
			}
			if (cntr_End_UART_2==1 && (INPUT_UART_2[cntr_UART_2-1] != 0xFF))
			{
				cntr_End_UART_2=0;
			}
			if (cntr_End_UART_2==2 && (INPUT_UART_2[cntr_UART_2-1] == 0xFF) && (INPUT_UART_2[cntr_UART_2-2] == 0xFF))
    26bc:	20 91 d0 06 	lds	r18, 0x06D0	; 0x8006d0 <cntr_UART_2>
    26c0:	30 e0       	ldi	r19, 0x00	; 0
    26c2:	f9 01       	movw	r30, r18
    26c4:	e3 5a       	subi	r30, 0xA3	; 163
    26c6:	fe 4e       	sbci	r31, 0xEE	; 238
    26c8:	90 81       	ld	r25, Z
    26ca:	9f 3f       	cpi	r25, 0xFF	; 255
    26cc:	39 f4       	brne	.+14     	; 0x26dc <check_Communication_Input_UART_2+0x5e>
    26ce:	f9 01       	movw	r30, r18
    26d0:	e4 5a       	subi	r30, 0xA4	; 164
    26d2:	fe 4e       	sbci	r31, 0xEE	; 238
    26d4:	90 81       	ld	r25, Z
    26d6:	9f 3f       	cpi	r25, 0xFF	; 255
    26d8:	91 f5       	brne	.+100    	; 0x273e <check_Communication_Input_UART_2+0xc0>
    26da:	07 c0       	rjmp	.+14     	; 0x26ea <check_Communication_Input_UART_2+0x6c>
			{
				cntr_End_UART_2++;
			}
			if (cntr_End_UART_2==2 && ((INPUT_UART_2[cntr_UART_2-1] != 0xFF) || (INPUT_UART_2[cntr_UART_2-2] != 0xFF)))
			{
				cntr_End_UART_2 = 0;
    26dc:	c0 93 cf 06 	sts	0x06CF, r28	; 0x8006cf <cntr_End_UART_2>
    26e0:	15 c0       	rjmp	.+42     	; 0x270c <check_Communication_Input_UART_2+0x8e>
			}
		}
		if (cntr_End_UART_2 == 3)
    26e2:	90 91 cf 06 	lds	r25, 0x06CF	; 0x8006cf <cntr_End_UART_2>
    26e6:	93 30       	cpi	r25, 0x03	; 3
    26e8:	89 f4       	brne	.+34     	; 0x270c <check_Communication_Input_UART_2+0x8e>
		{
			INPUT_UART_2[cntr_UART_2] = 0;
    26ea:	e0 91 d0 06 	lds	r30, 0x06D0	; 0x8006d0 <cntr_UART_2>
    26ee:	f0 e0       	ldi	r31, 0x00	; 0
    26f0:	e2 5a       	subi	r30, 0xA2	; 162
    26f2:	fe 4e       	sbci	r31, 0xEE	; 238
    26f4:	10 82       	st	Z, r1
			INPUT_UART_2[cntr_UART_2-1]=0;
    26f6:	df 01       	movw	r26, r30
    26f8:	11 97       	sbiw	r26, 0x01	; 1
    26fa:	1c 92       	st	X, r1
			INPUT_UART_2[cntr_UART_2-2]=0;
    26fc:	32 97       	sbiw	r30, 0x02	; 2
    26fe:	10 82       	st	Z, r1
			cntr_UART_2 = 0;
    2700:	c0 93 d0 06 	sts	0x06D0, r28	; 0x8006d0 <cntr_UART_2>
			cntr_End_UART_2 = 0;
    2704:	c0 93 cf 06 	sts	0x06CF, r28	; 0x8006cf <cntr_End_UART_2>
			ret = 1;
    2708:	0d 2f       	mov	r16, r29
    270a:	0b c0       	rjmp	.+22     	; 0x2722 <check_Communication_Input_UART_2+0xa4>
		}
		else
		{
			INPUT_UART_2[cntr_UART_2]=ch;
    270c:	90 91 d0 06 	lds	r25, 0x06D0	; 0x8006d0 <cntr_UART_2>
    2710:	e9 2f       	mov	r30, r25
    2712:	f0 e0       	ldi	r31, 0x00	; 0
    2714:	e2 5a       	subi	r30, 0xA2	; 162
    2716:	fe 4e       	sbci	r31, 0xEE	; 238
    2718:	80 83       	st	Z, r24
			cntr_UART_2++;
    271a:	9f 5f       	subi	r25, 0xFF	; 255
    271c:	90 93 d0 06 	sts	0x06D0, r25	; 0x8006d0 <cntr_UART_2>
			ret = 0;
    2720:	0c 2f       	mov	r16, r28
}

char check_Communication_Input_UART_2(void)
{
	char ret = 0;
	while(RB_length(&rb_rx_ESP)>0)					// UART_2
    2722:	8b e0       	ldi	r24, 0x0B	; 11
    2724:	99 e0       	ldi	r25, 0x09	; 9
    2726:	4d d1       	rcall	.+666    	; 0x29c2 <RB_length>
    2728:	81 11       	cpse	r24, r1
    272a:	b2 cf       	rjmp	.-156    	; 0x2690 <check_Communication_Input_UART_2+0x12>
    272c:	11 c0       	rjmp	.+34     	; 0x2750 <check_Communication_Input_UART_2+0xd2>
			{
				cntr_End_UART_2++;
			}
			if (cntr_End_UART_2==1 && (INPUT_UART_2[cntr_UART_2-1] != 0xFF))
			{
				cntr_End_UART_2=0;
    272e:	c0 93 cf 06 	sts	0x06CF, r28	; 0x8006cf <cntr_End_UART_2>
    2732:	d7 cf       	rjmp	.-82     	; 0x26e2 <check_Communication_Input_UART_2+0x64>
			}
			if (cntr_End_UART_2==2 && (INPUT_UART_2[cntr_UART_2-1] == 0xFF) && (INPUT_UART_2[cntr_UART_2-2] == 0xFF))
    2734:	90 91 cf 06 	lds	r25, 0x06CF	; 0x8006cf <cntr_End_UART_2>
    2738:	92 30       	cpi	r25, 0x02	; 2
    273a:	99 f6       	brne	.-90     	; 0x26e2 <check_Communication_Input_UART_2+0x64>
    273c:	bf cf       	rjmp	.-130    	; 0x26bc <check_Communication_Input_UART_2+0x3e>
			{
				cntr_End_UART_2++;
			}
			if (cntr_End_UART_2==2 && ((INPUT_UART_2[cntr_UART_2-1] != 0xFF) || (INPUT_UART_2[cntr_UART_2-2] != 0xFF)))
    273e:	e0 91 d0 06 	lds	r30, 0x06D0	; 0x8006d0 <cntr_UART_2>
    2742:	f0 e0       	ldi	r31, 0x00	; 0
    2744:	e4 5a       	subi	r30, 0xA4	; 164
    2746:	fe 4e       	sbci	r31, 0xEE	; 238
    2748:	90 81       	ld	r25, Z
    274a:	9f 3f       	cpi	r25, 0xFF	; 255
    274c:	39 f6       	brne	.-114    	; 0x26dc <check_Communication_Input_UART_2+0x5e>
    274e:	de cf       	rjmp	.-68     	; 0x270c <check_Communication_Input_UART_2+0x8e>
			ret = 0;
			
		}
	}
	return ret;
}
    2750:	80 2f       	mov	r24, r16
    2752:	df 91       	pop	r29
    2754:	cf 91       	pop	r28
    2756:	1f 91       	pop	r17
    2758:	0f 91       	pop	r16
    275a:	08 95       	ret

0000275c <proceed_Communication_Input_UART_2>:

void proceed_Communication_Input_UART_2(void)
{
	Uart_Transmit_IT_PC("Proceed UART 2: ");
    275c:	84 e6       	ldi	r24, 0x64	; 100
    275e:	95 e0       	ldi	r25, 0x05	; 5
    2760:	0e 94 e2 21 	call	0x43c4	; 0x43c4 <Uart_Transmit_IT_PC>
	Uart_Transmit_IT_PC((char *)INPUT_UART_2);
    2764:	8e e5       	ldi	r24, 0x5E	; 94
    2766:	91 e1       	ldi	r25, 0x11	; 17
    2768:	0e 94 e2 21 	call	0x43c4	; 0x43c4 <Uart_Transmit_IT_PC>
	Uart_Transmit_IT_PC("\r\n");
    276c:	8b ee       	ldi	r24, 0xEB	; 235
    276e:	94 e0       	ldi	r25, 0x04	; 4
    2770:	0e 94 e2 21 	call	0x43c4	; 0x43c4 <Uart_Transmit_IT_PC>
	
	cocktail_check_command(4,1);
    2774:	61 e0       	ldi	r22, 0x01	; 1
    2776:	84 e0       	ldi	r24, 0x04	; 4
    2778:	67 cc       	rjmp	.-1842   	; 0x2048 <cocktail_check_command>
    277a:	08 95       	ret

0000277c <check_Communication_Input_UART>:
// 	cocktail_check_command(INPUT_UART_3[0],INPUT_UART_3[1]);
// }

void check_Communication_Input_UART(void)
{
	if (check_Communication_Input_UART_0())				// Check UART_0 (USB), ob vollstndige bertragung stattgefunden hat (Ende = "\r")
    277c:	b3 de       	rcall	.-666    	; 0x24e4 <check_Communication_Input_UART_0>
    277e:	81 11       	cpse	r24, r1
	{
		proceed_Communication_Input_UART_0();				// Vollstndige bertragung des USB verarbeiten
    2780:	de de       	rcall	.-580    	; 0x253e <proceed_Communication_Input_UART_0>
	}
	if (check_Communication_Input_UART_1())				// Check UART_1 (Nextion-Display), ob vollstndige bertragung stattgefunden hat (Ende = "0xFF 0xFF 0xFF")
    2782:	e2 de       	rcall	.-572    	; 0x2548 <check_Communication_Input_UART_1>
	{
		proceed_Communication_INPUT_UART_1();				// Vollstndige bertragung des Displays verarbeiten
    2784:	81 11       	cpse	r24, r1
	}
	if (check_Communication_Input_UART_2())				// Check UART_2 (ESP), ob vollstndige bertragung stattgefunden hat (Ende = "0xFF 0xFF 0xFF")
    2786:	69 df       	rcall	.-302    	; 0x265a <proceed_Communication_INPUT_UART_1>
    2788:	7a df       	rcall	.-268    	; 0x267e <check_Communication_Input_UART_2>
    278a:	81 11       	cpse	r24, r1
	{
		proceed_Communication_Input_UART_2();				// Vollstndige bertragung des ESP's verarbeiten
    278c:	e7 cf       	rjmp	.-50     	; 0x275c <proceed_Communication_Input_UART_2>
    278e:	08 95       	ret

00002790 <endConversation>:
    2790:	cf 93       	push	r28
	endConversation();
}


void endConversation(void)
{
    2792:	df 93       	push	r29
    2794:	00 d0       	rcall	.+0      	; 0x2796 <endConversation+0x6>
    2796:	1f 92       	push	r1
    2798:	cd b7       	in	r28, 0x3d	; 61
    279a:	de b7       	in	r29, 0x3e	; 62
	unsigned char end [4]= {255,255,255,'\0'};
    279c:	8f ef       	ldi	r24, 0xFF	; 255
    279e:	89 83       	std	Y+1, r24	; 0x01
    27a0:	8a 83       	std	Y+2, r24	; 0x02
    27a2:	8b 83       	std	Y+3, r24	; 0x03
    27a4:	1c 82       	std	Y+4, r1	; 0x04
	Uart_Transmit_IT_Display(( char *)end);
    27a6:	ce 01       	movw	r24, r28
    27a8:	01 96       	adiw	r24, 0x01	; 1
    27aa:	0e 94 f5 21 	call	0x43ea	; 0x43ea <Uart_Transmit_IT_Display>
	if (DEBUG_DISPLAY)
	{
		Uart_Transmit_IT_PC((char *)end);
		Uart_Transmit_IT_PC("\r\n");
	}
    27ae:	0f 90       	pop	r0
    27b0:	0f 90       	pop	r0
    27b2:	0f 90       	pop	r0
    27b4:	0f 90       	pop	r0
    27b6:	df 91       	pop	r29
    27b8:	cf 91       	pop	r28
    27ba:	08 95       	ret

000027bc <nextion_change_page>:

#include "Nextion_Display.h"
#include "../Main_functions/Main_Func.h"

void nextion_change_page(char page)
{
    27bc:	cf 93       	push	r28
    27be:	df 93       	push	r29
    27c0:	00 d0       	rcall	.+0      	; 0x27c2 <nextion_change_page+0x6>
    27c2:	cd b7       	in	r28, 0x3d	; 61
    27c4:	de b7       	in	r29, 0x3e	; 62
	char * pge = "page ";
 	char buff[3] = {0};
    27c6:	19 82       	std	Y+1, r1	; 0x01
    27c8:	1a 82       	std	Y+2, r1	; 0x02
    27ca:	1b 82       	std	Y+3, r1	; 0x03
    27cc:	90 e0       	ldi	r25, 0x00	; 0
    27ce:	4a e0       	ldi	r20, 0x0A	; 10
    27d0:	be 01       	movw	r22, r28
    27d2:	6f 5f       	subi	r22, 0xFF	; 255
    27d4:	7f 4f       	sbci	r23, 0xFF	; 255
    27d6:	01 97       	sbiw	r24, 0x01	; 1
    27d8:	0e 94 63 25 	call	0x4ac6	; 0x4ac6 <__itoa_ncheck>
	itoa((page-1),(char *)buff,10);
	Uart_Transmit_IT_Display(pge);
    27dc:	85 e7       	ldi	r24, 0x75	; 117
    27de:	95 e0       	ldi	r25, 0x05	; 5
    27e0:	0e 94 f5 21 	call	0x43ea	; 0x43ea <Uart_Transmit_IT_Display>
	Uart_Transmit_IT_Display((char *)buff);
    27e4:	ce 01       	movw	r24, r28
    27e6:	01 96       	adiw	r24, 0x01	; 1
    27e8:	0e 94 f5 21 	call	0x43ea	; 0x43ea <Uart_Transmit_IT_Display>
	{
		Uart_Transmit_IT_PC(pge);
		Uart_Transmit_IT_PC((char *)buff);
	}
	
	endConversation();
    27ec:	d1 df       	rcall	.-94     	; 0x2790 <endConversation>
}
    27ee:	0f 90       	pop	r0
    27f0:	0f 90       	pop	r0
    27f2:	0f 90       	pop	r0
    27f4:	df 91       	pop	r29
    27f6:	cf 91       	pop	r28
    27f8:	08 95       	ret

000027fa <nextion_setText>:

void nextion_setText(char * object, char * text)
{
    27fa:	cf 93       	push	r28
    27fc:	df 93       	push	r29
    27fe:	eb 01       	movw	r28, r22
	char * txt = ".txt=";
	char * slash = "\"";
	Uart_Transmit_IT_Display(object);
    2800:	0e 94 f5 21 	call	0x43ea	; 0x43ea <Uart_Transmit_IT_Display>
	Uart_Transmit_IT_Display(txt);
    2804:	8b e7       	ldi	r24, 0x7B	; 123
    2806:	95 e0       	ldi	r25, 0x05	; 5
    2808:	0e 94 f5 21 	call	0x43ea	; 0x43ea <Uart_Transmit_IT_Display>
	Uart_Transmit_IT_Display(slash);
    280c:	81 e8       	ldi	r24, 0x81	; 129
    280e:	95 e0       	ldi	r25, 0x05	; 5
    2810:	0e 94 f5 21 	call	0x43ea	; 0x43ea <Uart_Transmit_IT_Display>
	Uart_Transmit_IT_Display(text);
    2814:	ce 01       	movw	r24, r28
    2816:	0e 94 f5 21 	call	0x43ea	; 0x43ea <Uart_Transmit_IT_Display>
	Uart_Transmit_IT_Display(slash);
    281a:	81 e8       	ldi	r24, 0x81	; 129
    281c:	95 e0       	ldi	r25, 0x05	; 5
    281e:	0e 94 f5 21 	call	0x43ea	; 0x43ea <Uart_Transmit_IT_Display>
		Uart_Transmit_IT_PC(slash);
		Uart_Transmit_IT_PC(( char *)text);
		Uart_Transmit_IT_PC(slash);
	}
	
	endConversation();
    2822:	b6 df       	rcall	.-148    	; 0x2790 <endConversation>
}
    2824:	df 91       	pop	r29
    2826:	cf 91       	pop	r28
    2828:	08 95       	ret

0000282a <nextion_setValue>:

void nextion_setValue( char * object,  char * value)
{
    282a:	cf 93       	push	r28
    282c:	df 93       	push	r29
    282e:	eb 01       	movw	r28, r22
	 char * val = ".val=";
	Uart_Transmit_IT_Display(object);
    2830:	0e 94 f5 21 	call	0x43ea	; 0x43ea <Uart_Transmit_IT_Display>
	Uart_Transmit_IT_Display(val);
    2834:	83 e8       	ldi	r24, 0x83	; 131
    2836:	95 e0       	ldi	r25, 0x05	; 5
    2838:	0e 94 f5 21 	call	0x43ea	; 0x43ea <Uart_Transmit_IT_Display>
	Uart_Transmit_IT_Display(value);
    283c:	ce 01       	movw	r24, r28
    283e:	0e 94 f5 21 	call	0x43ea	; 0x43ea <Uart_Transmit_IT_Display>
	{
		Uart_Transmit_IT_PC(object);
		Uart_Transmit_IT_PC(val);
		Uart_Transmit_IT_PC(value);
	}
	endConversation();
    2842:	a6 df       	rcall	.-180    	; 0x2790 <endConversation>
}
    2844:	df 91       	pop	r29
    2846:	cf 91       	pop	r28
    2848:	08 95       	ret

0000284a <nextion_setPicture>:

void nextion_setPicture( char * x,  char * y,  char * picture)
{
    284a:	ef 92       	push	r14
    284c:	ff 92       	push	r15
    284e:	0f 93       	push	r16
    2850:	1f 93       	push	r17
    2852:	cf 93       	push	r28
    2854:	df 93       	push	r29
    2856:	7c 01       	movw	r14, r24
    2858:	8b 01       	movw	r16, r22
    285a:	ea 01       	movw	r28, r20
	 char * pic = "pic ";
	 char * komma = ",";
	Uart_Transmit_IT_Display(pic);
    285c:	89 e8       	ldi	r24, 0x89	; 137
    285e:	95 e0       	ldi	r25, 0x05	; 5
    2860:	0e 94 f5 21 	call	0x43ea	; 0x43ea <Uart_Transmit_IT_Display>
	Uart_Transmit_IT_Display(x);
    2864:	c7 01       	movw	r24, r14
    2866:	0e 94 f5 21 	call	0x43ea	; 0x43ea <Uart_Transmit_IT_Display>
	Uart_Transmit_IT_Display(komma);
    286a:	8e e8       	ldi	r24, 0x8E	; 142
    286c:	95 e0       	ldi	r25, 0x05	; 5
    286e:	0e 94 f5 21 	call	0x43ea	; 0x43ea <Uart_Transmit_IT_Display>
	Uart_Transmit_IT_Display(y);
    2872:	c8 01       	movw	r24, r16
    2874:	0e 94 f5 21 	call	0x43ea	; 0x43ea <Uart_Transmit_IT_Display>
	Uart_Transmit_IT_Display(komma);
    2878:	8e e8       	ldi	r24, 0x8E	; 142
    287a:	95 e0       	ldi	r25, 0x05	; 5
    287c:	0e 94 f5 21 	call	0x43ea	; 0x43ea <Uart_Transmit_IT_Display>
	Uart_Transmit_IT_Display(picture);
    2880:	ce 01       	movw	r24, r28
    2882:	0e 94 f5 21 	call	0x43ea	; 0x43ea <Uart_Transmit_IT_Display>
		Uart_Transmit_IT_PC((char *)komma);
		Uart_Transmit_IT_PC((char *)y);
		Uart_Transmit_IT_PC((char *)komma);
		Uart_Transmit_IT_PC((char *)picture);
	}
		endConversation();
    2886:	84 df       	rcall	.-248    	; 0x2790 <endConversation>
}
    2888:	df 91       	pop	r29
    288a:	cf 91       	pop	r28
    288c:	1f 91       	pop	r17
    288e:	0f 91       	pop	r16
    2890:	ff 90       	pop	r15
    2892:	ef 90       	pop	r14
    2894:	08 95       	ret

00002896 <nextion_getSliderValue>:

uint8_t nextion_getSliderValue(char * object, unsigned char * INPUT)
{
    2896:	ef 92       	push	r14
    2898:	ff 92       	push	r15
    289a:	0f 93       	push	r16
    289c:	1f 93       	push	r17
    289e:	cf 93       	push	r28
    28a0:	df 93       	push	r29
    28a2:	cd b7       	in	r28, 0x3d	; 61
    28a4:	de b7       	in	r29, 0x3e	; 62
    28a6:	64 97       	sbiw	r28, 0x14	; 20
    28a8:	0f b6       	in	r0, 0x3f	; 63
    28aa:	f8 94       	cli
    28ac:	de bf       	out	0x3e, r29	; 62
    28ae:	0f be       	out	0x3f, r0	; 63
    28b0:	cd bf       	out	0x3d, r28	; 61
    28b2:	9c 01       	movw	r18, r24
    28b4:	7b 01       	movw	r14, r22
	uint8_t ret = 0;
	
	char buff[20] = {0};
    28b6:	8e 01       	movw	r16, r28
    28b8:	0f 5f       	subi	r16, 0xFF	; 255
    28ba:	1f 4f       	sbci	r17, 0xFF	; 255
    28bc:	84 e1       	ldi	r24, 0x14	; 20
    28be:	f8 01       	movw	r30, r16
    28c0:	11 92       	st	Z+, r1
    28c2:	8a 95       	dec	r24
    28c4:	e9 f7       	brne	.-6      	; 0x28c0 <nextion_getSliderValue+0x2a>
	char * get_slider = "get ";
	char * val = ".val";

	strcat((char *)buff, (const char *)get_slider);
    28c6:	d8 01       	movw	r26, r16
    28c8:	0d 90       	ld	r0, X+
    28ca:	00 20       	and	r0, r0
    28cc:	e9 f7       	brne	.-6      	; 0x28c8 <nextion_getSliderValue+0x32>
    28ce:	11 97       	sbiw	r26, 0x01	; 1
    28d0:	95 e0       	ldi	r25, 0x05	; 5
    28d2:	e0 e9       	ldi	r30, 0x90	; 144
    28d4:	f5 e0       	ldi	r31, 0x05	; 5
    28d6:	01 90       	ld	r0, Z+
    28d8:	0d 92       	st	X+, r0
    28da:	9a 95       	dec	r25
    28dc:	e1 f7       	brne	.-8      	; 0x28d6 <nextion_getSliderValue+0x40>
	strcat((char *)buff, (const char *)object);
    28de:	b9 01       	movw	r22, r18
    28e0:	c8 01       	movw	r24, r16
    28e2:	0e 94 2a 25 	call	0x4a54	; 0x4a54 <strcat>
	strcat((char *)buff, (const char *)val);
    28e6:	d8 01       	movw	r26, r16
    28e8:	0d 90       	ld	r0, X+
    28ea:	00 20       	and	r0, r0
    28ec:	e9 f7       	brne	.-6      	; 0x28e8 <nextion_getSliderValue+0x52>
    28ee:	11 97       	sbiw	r26, 0x01	; 1
    28f0:	85 e0       	ldi	r24, 0x05	; 5
    28f2:	e5 e9       	ldi	r30, 0x95	; 149
    28f4:	f5 e0       	ldi	r31, 0x05	; 5
    28f6:	01 90       	ld	r0, Z+
    28f8:	0d 92       	st	X+, r0
    28fa:	8a 95       	dec	r24
    28fc:	e1 f7       	brne	.-8      	; 0x28f6 <nextion_getSliderValue+0x60>
	Uart_Transmit_IT_Display((char *) buff);
    28fe:	c8 01       	movw	r24, r16
    2900:	0e 94 f5 21 	call	0x43ea	; 0x43ea <Uart_Transmit_IT_Display>
	endConversation();
    2904:	45 df       	rcall	.-374    	; 0x2790 <endConversation>
	
	while (check_Communication_Input_UART_1()==0)
    2906:	20 de       	rcall	.-960    	; 0x2548 <check_Communication_Input_UART_1>
    2908:	88 23       	and	r24, r24
    290a:	e9 f3       	breq	.-6      	; 0x2906 <nextion_getSliderValue+0x70>
	;
	proceed_Communication_INPUT_UART_1();
    290c:	a6 de       	rcall	.-692    	; 0x265a <proceed_Communication_INPUT_UART_1>
    290e:	f7 01       	movw	r30, r14
	
	if (*(INPUT+1)==255)
    2910:	81 81       	ldd	r24, Z+1	; 0x01
    2912:	8f 3f       	cpi	r24, 0xFF	; 255
    2914:	09 f4       	brne	.+2      	; 0x2918 <nextion_getSliderValue+0x82>
    2916:	80 e0       	ldi	r24, 0x00	; 0
	{
		ret = 0;
    2918:	64 96       	adiw	r28, 0x14	; 20
	else
	{
		ret = *(INPUT + 1);
	}
	return ret;
}
    291a:	0f b6       	in	r0, 0x3f	; 63
    291c:	f8 94       	cli
    291e:	de bf       	out	0x3e, r29	; 62
    2920:	0f be       	out	0x3f, r0	; 63
    2922:	cd bf       	out	0x3d, r28	; 61
    2924:	df 91       	pop	r29
    2926:	cf 91       	pop	r28
    2928:	1f 91       	pop	r17
    292a:	0f 91       	pop	r16
    292c:	ff 90       	pop	r15
    292e:	ef 90       	pop	r14
    2930:	08 95       	ret

00002932 <nextion_disableButton>:
    2932:	0f 93       	push	r16

void nextion_disableButton(char * object)
{
    2934:	1f 93       	push	r17
    2936:	cf 93       	push	r28
    2938:	df 93       	push	r29
    293a:	cd b7       	in	r28, 0x3d	; 61
    293c:	de b7       	in	r29, 0x3e	; 62
    293e:	64 97       	sbiw	r28, 0x14	; 20
    2940:	0f b6       	in	r0, 0x3f	; 63
    2942:	f8 94       	cli
    2944:	de bf       	out	0x3e, r29	; 62
    2946:	0f be       	out	0x3f, r0	; 63
    2948:	cd bf       	out	0x3d, r28	; 61
    294a:	bc 01       	movw	r22, r24
	char buff10[20] = {'\0'};
    294c:	8e 01       	movw	r16, r28
    294e:	0f 5f       	subi	r16, 0xFF	; 255
    2950:	1f 4f       	sbci	r17, 0xFF	; 255
    2952:	84 e1       	ldi	r24, 0x14	; 20
    2954:	f8 01       	movw	r30, r16
    2956:	11 92       	st	Z+, r1
    2958:	8a 95       	dec	r24
    295a:	e9 f7       	brne	.-6      	; 0x2956 <nextion_disableButton+0x24>
	strcpy((char *)buff10, (const char *)"tsw ");
    295c:	95 e0       	ldi	r25, 0x05	; 5
    295e:	ea e9       	ldi	r30, 0x9A	; 154
    2960:	f5 e0       	ldi	r31, 0x05	; 5
    2962:	d8 01       	movw	r26, r16
    2964:	01 90       	ld	r0, Z+
    2966:	0d 92       	st	X+, r0
    2968:	9a 95       	dec	r25
    296a:	e1 f7       	brne	.-8      	; 0x2964 <nextion_disableButton+0x32>
	strcat((char *)buff10, (const char *)object);
    296c:	c8 01       	movw	r24, r16
    296e:	0e 94 2a 25 	call	0x4a54	; 0x4a54 <strcat>
	strcat((char *)buff10, (const char *)",0");
    2972:	f8 01       	movw	r30, r16
    2974:	01 90       	ld	r0, Z+
    2976:	00 20       	and	r0, r0
    2978:	e9 f7       	brne	.-6      	; 0x2974 <nextion_disableButton+0x42>
    297a:	31 97       	sbiw	r30, 0x01	; 1
    297c:	8c e2       	ldi	r24, 0x2C	; 44
    297e:	90 e3       	ldi	r25, 0x30	; 48
    2980:	91 83       	std	Z+1, r25	; 0x01
    2982:	80 83       	st	Z, r24
    2984:	12 82       	std	Z+2, r1	; 0x02
	
	Uart_Transmit_IT_Display((char *)buff10);
    2986:	c8 01       	movw	r24, r16
    2988:	0e 94 f5 21 	call	0x43ea	; 0x43ea <Uart_Transmit_IT_Display>
	
	endConversation();
    298c:	01 df       	rcall	.-510    	; 0x2790 <endConversation>
}
    298e:	64 96       	adiw	r28, 0x14	; 20
    2990:	0f b6       	in	r0, 0x3f	; 63
    2992:	f8 94       	cli
    2994:	de bf       	out	0x3e, r29	; 62
    2996:	0f be       	out	0x3f, r0	; 63
    2998:	cd bf       	out	0x3d, r28	; 61
    299a:	df 91       	pop	r29
    299c:	cf 91       	pop	r28
    299e:	1f 91       	pop	r17
    29a0:	0f 91       	pop	r16
    29a2:	08 95       	ret

000029a4 <RB_init>:
		}
	}
	rb->tail = tail;
	
	return 1;
}
    29a4:	fc 01       	movw	r30, r24
    29a6:	11 82       	std	Z+1, r1	; 0x01
    29a8:	10 82       	st	Z, r1
    29aa:	08 95       	ret

000029ac <RB_free>:
    29ac:	fc 01       	movw	r30, r24
    29ae:	90 81       	ld	r25, Z
    29b0:	81 81       	ldd	r24, Z+1	; 0x01
    29b2:	98 17       	cp	r25, r24
    29b4:	20 f0       	brcs	.+8      	; 0x29be <RB_free+0x12>
    29b6:	98 1b       	sub	r25, r24
    29b8:	89 2f       	mov	r24, r25
    29ba:	80 95       	com	r24
    29bc:	08 95       	ret
    29be:	89 1b       	sub	r24, r25
    29c0:	08 95       	ret

000029c2 <RB_length>:
    29c2:	fc 01       	movw	r30, r24
    29c4:	20 81       	ld	r18, Z
    29c6:	91 81       	ldd	r25, Z+1	; 0x01
    29c8:	29 17       	cp	r18, r25
    29ca:	18 f0       	brcs	.+6      	; 0x29d2 <RB_length+0x10>
    29cc:	82 2f       	mov	r24, r18
    29ce:	89 1b       	sub	r24, r25
    29d0:	08 95       	ret
    29d2:	89 2f       	mov	r24, r25
    29d4:	82 1b       	sub	r24, r18
    29d6:	80 95       	com	r24
    29d8:	08 95       	ret

000029da <RB_readByte>:
    29da:	cf 93       	push	r28
    29dc:	df 93       	push	r29
    29de:	ec 01       	movw	r28, r24
    29e0:	f0 df       	rcall	.-32     	; 0x29c2 <RB_length>
    29e2:	88 23       	and	r24, r24
    29e4:	59 f0       	breq	.+22     	; 0x29fc <RB_readByte+0x22>
    29e6:	89 81       	ldd	r24, Y+1	; 0x01
    29e8:	91 e0       	ldi	r25, 0x01	; 1
    29ea:	98 0f       	add	r25, r24
    29ec:	fe 01       	movw	r30, r28
    29ee:	e8 0f       	add	r30, r24
    29f0:	f1 1d       	adc	r31, r1
    29f2:	82 81       	ldd	r24, Z+2	; 0x02
    29f4:	9f 3f       	cpi	r25, 0xFF	; 255
    29f6:	09 f4       	brne	.+2      	; 0x29fa <RB_readByte+0x20>
    29f8:	90 e0       	ldi	r25, 0x00	; 0
    29fa:	99 83       	std	Y+1, r25	; 0x01
    29fc:	df 91       	pop	r29
    29fe:	cf 91       	pop	r28
    2a00:	08 95       	ret

00002a02 <RB_writeByte>:
    2a02:	0f 93       	push	r16
    2a04:	1f 93       	push	r17
    2a06:	cf 93       	push	r28
    2a08:	df 93       	push	r29
    2a0a:	ec 01       	movw	r28, r24
    2a0c:	16 2f       	mov	r17, r22
    2a0e:	08 81       	ld	r16, Y
    2a10:	cd df       	rcall	.-102    	; 0x29ac <RB_free>
    2a12:	88 23       	and	r24, r24
    2a14:	f1 f3       	breq	.-4      	; 0x2a12 <RB_writeByte+0x10>
    2a16:	11 11       	cpse	r17, r1
    2a18:	01 c0       	rjmp	.+2      	; 0x2a1c <RB_writeByte+0x1a>
    2a1a:	1f ef       	ldi	r17, 0xFF	; 255
    2a1c:	81 e0       	ldi	r24, 0x01	; 1
    2a1e:	80 0f       	add	r24, r16
    2a20:	fe 01       	movw	r30, r28
    2a22:	e0 0f       	add	r30, r16
    2a24:	f1 1d       	adc	r31, r1
    2a26:	12 83       	std	Z+2, r17	; 0x02
    2a28:	8f 3f       	cpi	r24, 0xFF	; 255
    2a2a:	09 f4       	brne	.+2      	; 0x2a2e <RB_writeByte+0x2c>
    2a2c:	80 e0       	ldi	r24, 0x00	; 0
    2a2e:	88 83       	st	Y, r24
    2a30:	81 e0       	ldi	r24, 0x01	; 1
    2a32:	df 91       	pop	r29
    2a34:	cf 91       	pop	r28
    2a36:	1f 91       	pop	r17
    2a38:	0f 91       	pop	r16
    2a3a:	08 95       	ret

00002a3c <RB_write>:

unsigned char RB_write( ring_buffer_t *rb, char *data, unsigned char datal )
{
    2a3c:	ff 92       	push	r15
    2a3e:	0f 93       	push	r16
    2a40:	1f 93       	push	r17
    2a42:	cf 93       	push	r28
    2a44:	df 93       	push	r29
	unsigned char head;
	
	head = rb->head;
	
	if (datal == 0)
    2a46:	44 23       	and	r20, r20
    2a48:	d9 f0       	breq	.+54     	; 0x2a80 <RB_write+0x44>
    2a4a:	c4 2f       	mov	r28, r20
    2a4c:	d7 2f       	mov	r29, r23
    2a4e:	f6 2e       	mov	r15, r22
    2a50:	8c 01       	movw	r16, r24
	{
		return  0;
	}
	
	while(RB_free(rb) < datal);
    2a52:	ac df       	rcall	.-168    	; 0x29ac <RB_free>
    2a54:	8c 17       	cp	r24, r28
    2a56:	f0 f3       	brcs	.-4      	; 0x2a54 <RB_write+0x18>
    2a58:	15 c0       	rjmp	.+42     	; 0x2a84 <RB_write+0x48>
	
	while(datal--)
	{
		rb->data[head++] = *data++;
    2a5a:	21 e0       	ldi	r18, 0x01	; 1
    2a5c:	29 0f       	add	r18, r25
    2a5e:	31 91       	ld	r19, Z+
    2a60:	d8 01       	movw	r26, r16
    2a62:	a9 0f       	add	r26, r25
    2a64:	b1 1d       	adc	r27, r1
    2a66:	12 96       	adiw	r26, 0x02	; 2
    2a68:	3c 93       	st	X, r19
		if (head >= RING_BUFFER_SIZE)
    2a6a:	2f 3f       	cpi	r18, 0xFF	; 255
    2a6c:	11 f4       	brne	.+4      	; 0x2a72 <RB_write+0x36>
		{
			head = 0;
    2a6e:	98 2f       	mov	r25, r24
    2a70:	01 c0       	rjmp	.+2      	; 0x2a74 <RB_write+0x38>
	
	while(RB_free(rb) < datal);
	
	while(datal--)
	{
		rb->data[head++] = *data++;
    2a72:	92 2f       	mov	r25, r18
		return  0;
	}
	
	while(RB_free(rb) < datal);
	
	while(datal--)
    2a74:	41 50       	subi	r20, 0x01	; 1
    2a76:	88 f7       	brcc	.-30     	; 0x2a5a <RB_write+0x1e>
		{
			head = 0;
		}
	}
	
	rb->head = head;
    2a78:	f8 01       	movw	r30, r16
    2a7a:	90 83       	st	Z, r25
	
	return 1;
    2a7c:	81 e0       	ldi	r24, 0x01	; 1
    2a7e:	0a c0       	rjmp	.+20     	; 0x2a94 <RB_write+0x58>
	
	head = rb->head;
	
	if (datal == 0)
	{
		return  0;
    2a80:	80 e0       	ldi	r24, 0x00	; 0
    2a82:	08 c0       	rjmp	.+16     	; 0x2a94 <RB_write+0x58>

unsigned char RB_write( ring_buffer_t *rb, char *data, unsigned char datal )
{
	unsigned char head;
	
	head = rb->head;
    2a84:	f8 01       	movw	r30, r16
    2a86:	90 81       	ld	r25, Z
		return  0;
	}
	
	while(RB_free(rb) < datal);
	
	while(datal--)
    2a88:	4f ef       	ldi	r20, 0xFF	; 255
    2a8a:	4c 0f       	add	r20, r28
    2a8c:	ef 2d       	mov	r30, r15
    2a8e:	fd 2f       	mov	r31, r29
	{
		rb->data[head++] = *data++;
		if (head >= RING_BUFFER_SIZE)
		{
			head = 0;
    2a90:	80 e0       	ldi	r24, 0x00	; 0
    2a92:	e3 cf       	rjmp	.-58     	; 0x2a5a <RB_write+0x1e>
	}
	
	rb->head = head;
	
	return 1;
}
    2a94:	df 91       	pop	r29
    2a96:	cf 91       	pop	r28
    2a98:	1f 91       	pop	r17
    2a9a:	0f 91       	pop	r16
    2a9c:	ff 90       	pop	r15
    2a9e:	08 95       	ret

00002aa0 <getFirstSector>:
freeMemory *= bytesPerSector ;
TX_NEWLINE;
Uart_Transmit_IT_PC((char*)(" Free Memory: "));
displayMemory (HIGH, freeMemory);
TX_NEWLINE; 
}
    2aa0:	cf 92       	push	r12
    2aa2:	df 92       	push	r13
    2aa4:	ef 92       	push	r14
    2aa6:	ff 92       	push	r15
    2aa8:	a0 91 14 0d 	lds	r26, 0x0D14	; 0x800d14 <sectorPerCluster>
    2aac:	b0 91 15 0d 	lds	r27, 0x0D15	; 0x800d15 <sectorPerCluster+0x1>
    2ab0:	c0 90 f0 08 	lds	r12, 0x08F0	; 0x8008f0 <firstDataSector>
    2ab4:	d0 90 f1 08 	lds	r13, 0x08F1	; 0x8008f1 <firstDataSector+0x1>
    2ab8:	e0 90 f2 08 	lds	r14, 0x08F2	; 0x8008f2 <firstDataSector+0x2>
    2abc:	f0 90 f3 08 	lds	r15, 0x08F3	; 0x8008f3 <firstDataSector+0x3>
    2ac0:	9b 01       	movw	r18, r22
    2ac2:	ac 01       	movw	r20, r24
    2ac4:	22 50       	subi	r18, 0x02	; 2
    2ac6:	31 09       	sbc	r19, r1
    2ac8:	41 09       	sbc	r20, r1
    2aca:	51 09       	sbc	r21, r1
    2acc:	0e 94 be 23 	call	0x477c	; 0x477c <__muluhisi3>
    2ad0:	6c 0d       	add	r22, r12
    2ad2:	7d 1d       	adc	r23, r13
    2ad4:	8e 1d       	adc	r24, r14
    2ad6:	9f 1d       	adc	r25, r15
    2ad8:	ff 90       	pop	r15
    2ada:	ef 90       	pop	r14
    2adc:	df 90       	pop	r13
    2ade:	cf 90       	pop	r12
    2ae0:	08 95       	ret

00002ae2 <getSetNextCluster>:
    2ae2:	4f 92       	push	r4
    2ae4:	5f 92       	push	r5
    2ae6:	6f 92       	push	r6
    2ae8:	7f 92       	push	r7
    2aea:	8f 92       	push	r8
    2aec:	9f 92       	push	r9
    2aee:	af 92       	push	r10
    2af0:	bf 92       	push	r11
    2af2:	cf 92       	push	r12
    2af4:	df 92       	push	r13
    2af6:	ef 92       	push	r14
    2af8:	ff 92       	push	r15
    2afa:	0f 93       	push	r16
    2afc:	1f 93       	push	r17
    2afe:	cf 93       	push	r28
    2b00:	df 93       	push	r29
    2b02:	d4 2f       	mov	r29, r20
    2b04:	28 01       	movw	r4, r16
    2b06:	39 01       	movw	r6, r18
    2b08:	40 91 38 0d 	lds	r20, 0x0D38	; 0x800d38 <reservedSectorCount>
    2b0c:	50 91 39 0d 	lds	r21, 0x0D39	; 0x800d39 <reservedSectorCount+0x1>
    2b10:	4b 01       	movw	r8, r22
    2b12:	5c 01       	movw	r10, r24
    2b14:	88 0c       	add	r8, r8
    2b16:	99 1c       	adc	r9, r9
    2b18:	aa 1c       	adc	r10, r10
    2b1a:	bb 1c       	adc	r11, r11
    2b1c:	88 0c       	add	r8, r8
    2b1e:	99 1c       	adc	r9, r9
    2b20:	aa 1c       	adc	r10, r10
    2b22:	bb 1c       	adc	r11, r11
    2b24:	20 91 f8 08 	lds	r18, 0x08F8	; 0x8008f8 <bytesPerSector>
    2b28:	30 91 f9 08 	lds	r19, 0x08F9	; 0x8008f9 <bytesPerSector+0x1>
    2b2c:	c0 90 18 0d 	lds	r12, 0x0D18	; 0x800d18 <unusedSectors>
    2b30:	d0 90 19 0d 	lds	r13, 0x0D19	; 0x800d19 <unusedSectors+0x1>
    2b34:	e0 90 1a 0d 	lds	r14, 0x0D1A	; 0x800d1a <unusedSectors+0x2>
    2b38:	f0 90 1b 0d 	lds	r15, 0x0D1B	; 0x800d1b <unusedSectors+0x3>
    2b3c:	c4 0e       	add	r12, r20
    2b3e:	d5 1e       	adc	r13, r21
    2b40:	e1 1c       	adc	r14, r1
    2b42:	f1 1c       	adc	r15, r1
    2b44:	40 e0       	ldi	r20, 0x00	; 0
    2b46:	50 e0       	ldi	r21, 0x00	; 0
    2b48:	c5 01       	movw	r24, r10
    2b4a:	b4 01       	movw	r22, r8
    2b4c:	0e 94 85 23 	call	0x470a	; 0x470a <__udivmodsi4>
    2b50:	c2 0e       	add	r12, r18
    2b52:	d3 1e       	adc	r13, r19
    2b54:	e4 1e       	adc	r14, r20
    2b56:	f5 1e       	adc	r15, r21
    2b58:	20 91 f8 08 	lds	r18, 0x08F8	; 0x8008f8 <bytesPerSector>
    2b5c:	30 91 f9 08 	lds	r19, 0x08F9	; 0x8008f9 <bytesPerSector+0x1>
    2b60:	40 e0       	ldi	r20, 0x00	; 0
    2b62:	50 e0       	ldi	r21, 0x00	; 0
    2b64:	c5 01       	movw	r24, r10
    2b66:	b4 01       	movw	r22, r8
    2b68:	0e 94 85 23 	call	0x470a	; 0x470a <__udivmodsi4>
    2b6c:	4b 01       	movw	r8, r22
    2b6e:	5c 01       	movw	r10, r24
    2b70:	ca e0       	ldi	r28, 0x0A	; 10
    2b72:	c7 01       	movw	r24, r14
    2b74:	b6 01       	movw	r22, r12
    2b76:	0e 94 e8 20 	call	0x41d0	; 0x41d0 <SD_readSingleBlock>
    2b7a:	88 23       	and	r24, r24
    2b7c:	11 f0       	breq	.+4      	; 0x2b82 <getSetNextCluster+0xa0>
    2b7e:	c1 50       	subi	r28, 0x01	; 1
    2b80:	c1 f7       	brne	.-16     	; 0x2b72 <getSetNextCluster+0x90>
    2b82:	f4 01       	movw	r30, r8
    2b84:	ed 5e       	subi	r30, 0xED	; 237
    2b86:	f4 4f       	sbci	r31, 0xF4	; 244
    2b88:	d1 11       	cpse	r29, r1
    2b8a:	08 c0       	rjmp	.+16     	; 0x2b9c <getSetNextCluster+0xba>
    2b8c:	80 81       	ld	r24, Z
    2b8e:	91 81       	ldd	r25, Z+1	; 0x01
    2b90:	a2 81       	ldd	r26, Z+2	; 0x02
    2b92:	b3 81       	ldd	r27, Z+3	; 0x03
    2b94:	bc 01       	movw	r22, r24
    2b96:	cd 01       	movw	r24, r26
    2b98:	9f 70       	andi	r25, 0x0F	; 15
    2b9a:	0b c0       	rjmp	.+22     	; 0x2bb2 <getSetNextCluster+0xd0>
    2b9c:	40 82       	st	Z, r4
    2b9e:	51 82       	std	Z+1, r5	; 0x01
    2ba0:	62 82       	std	Z+2, r6	; 0x02
    2ba2:	73 82       	std	Z+3, r7	; 0x03
    2ba4:	c7 01       	movw	r24, r14
    2ba6:	b6 01       	movw	r22, r12
    2ba8:	0e 94 10 21 	call	0x4220	; 0x4220 <SD_writeSingleBlock>
    2bac:	60 e0       	ldi	r22, 0x00	; 0
    2bae:	70 e0       	ldi	r23, 0x00	; 0
    2bb0:	cb 01       	movw	r24, r22
    2bb2:	df 91       	pop	r29
    2bb4:	cf 91       	pop	r28
    2bb6:	1f 91       	pop	r17
    2bb8:	0f 91       	pop	r16
    2bba:	ff 90       	pop	r15
    2bbc:	ef 90       	pop	r14
    2bbe:	df 90       	pop	r13
    2bc0:	cf 90       	pop	r12
    2bc2:	bf 90       	pop	r11
    2bc4:	af 90       	pop	r10
    2bc6:	9f 90       	pop	r9
    2bc8:	8f 90       	pop	r8
    2bca:	7f 90       	pop	r7
    2bcc:	6f 90       	pop	r6
    2bce:	5f 90       	pop	r5
    2bd0:	4f 90       	pop	r4
    2bd2:	08 95       	ret

00002bd4 <getSetFreeCluster>:
    2bd4:	cf 92       	push	r12
    2bd6:	df 92       	push	r13
    2bd8:	ef 92       	push	r14
    2bda:	ff 92       	push	r15
    2bdc:	cf 93       	push	r28
    2bde:	df 93       	push	r29
    2be0:	d8 2f       	mov	r29, r24
    2be2:	c6 2f       	mov	r28, r22
    2be4:	69 01       	movw	r12, r18
    2be6:	7a 01       	movw	r14, r20
    2be8:	80 91 18 0d 	lds	r24, 0x0D18	; 0x800d18 <unusedSectors>
    2bec:	90 91 19 0d 	lds	r25, 0x0D19	; 0x800d19 <unusedSectors+0x1>
    2bf0:	a0 91 1a 0d 	lds	r26, 0x0D1A	; 0x800d1a <unusedSectors+0x2>
    2bf4:	b0 91 1b 0d 	lds	r27, 0x0D1B	; 0x800d1b <unusedSectors+0x3>
    2bf8:	bc 01       	movw	r22, r24
    2bfa:	cd 01       	movw	r24, r26
    2bfc:	6f 5f       	subi	r22, 0xFF	; 255
    2bfe:	7f 4f       	sbci	r23, 0xFF	; 255
    2c00:	8f 4f       	sbci	r24, 0xFF	; 255
    2c02:	9f 4f       	sbci	r25, 0xFF	; 255
    2c04:	0e 94 e8 20 	call	0x41d0	; 0x41d0 <SD_readSingleBlock>
    2c08:	80 91 13 0b 	lds	r24, 0x0B13	; 0x800b13 <buffer>
    2c0c:	90 91 14 0b 	lds	r25, 0x0B14	; 0x800b14 <buffer+0x1>
    2c10:	a0 91 15 0b 	lds	r26, 0x0B15	; 0x800b15 <buffer+0x2>
    2c14:	b0 91 16 0b 	lds	r27, 0x0B16	; 0x800b16 <buffer+0x3>
    2c18:	82 35       	cpi	r24, 0x52	; 82
    2c1a:	92 45       	sbci	r25, 0x52	; 82
    2c1c:	a1 46       	sbci	r26, 0x61	; 97
    2c1e:	b1 44       	sbci	r27, 0x41	; 65
    2c20:	09 f0       	breq	.+2      	; 0x2c24 <getSetFreeCluster+0x50>
    2c22:	58 c0       	rjmp	.+176    	; 0x2cd4 <getSetFreeCluster+0x100>
    2c24:	80 91 f7 0c 	lds	r24, 0x0CF7	; 0x800cf7 <buffer+0x1e4>
    2c28:	90 91 f8 0c 	lds	r25, 0x0CF8	; 0x800cf8 <buffer+0x1e5>
    2c2c:	a0 91 f9 0c 	lds	r26, 0x0CF9	; 0x800cf9 <buffer+0x1e6>
    2c30:	b0 91 fa 0c 	lds	r27, 0x0CFA	; 0x800cfa <buffer+0x1e7>
    2c34:	82 37       	cpi	r24, 0x72	; 114
    2c36:	92 47       	sbci	r25, 0x72	; 114
    2c38:	a1 44       	sbci	r26, 0x41	; 65
    2c3a:	b1 46       	sbci	r27, 0x61	; 97
    2c3c:	09 f0       	breq	.+2      	; 0x2c40 <getSetFreeCluster+0x6c>
    2c3e:	4e c0       	rjmp	.+156    	; 0x2cdc <getSetFreeCluster+0x108>
    2c40:	80 91 0f 0d 	lds	r24, 0x0D0F	; 0x800d0f <buffer+0x1fc>
    2c44:	90 91 10 0d 	lds	r25, 0x0D10	; 0x800d10 <buffer+0x1fd>
    2c48:	a0 91 11 0d 	lds	r26, 0x0D11	; 0x800d11 <buffer+0x1fe>
    2c4c:	b0 91 12 0d 	lds	r27, 0x0D12	; 0x800d12 <buffer+0x1ff>
    2c50:	00 97       	sbiw	r24, 0x00	; 0
    2c52:	a5 45       	sbci	r26, 0x55	; 85
    2c54:	ba 4a       	sbci	r27, 0xAA	; 170
    2c56:	09 f0       	breq	.+2      	; 0x2c5a <getSetFreeCluster+0x86>
    2c58:	45 c0       	rjmp	.+138    	; 0x2ce4 <getSetFreeCluster+0x110>
    2c5a:	c1 11       	cpse	r28, r1
    2c5c:	14 c0       	rjmp	.+40     	; 0x2c86 <getSetFreeCluster+0xb2>
    2c5e:	d1 30       	cpi	r29, 0x01	; 1
    2c60:	49 f4       	brne	.+18     	; 0x2c74 <getSetFreeCluster+0xa0>
    2c62:	60 91 fb 0c 	lds	r22, 0x0CFB	; 0x800cfb <buffer+0x1e8>
    2c66:	70 91 fc 0c 	lds	r23, 0x0CFC	; 0x800cfc <buffer+0x1e9>
    2c6a:	80 91 fd 0c 	lds	r24, 0x0CFD	; 0x800cfd <buffer+0x1ea>
    2c6e:	90 91 fe 0c 	lds	r25, 0x0CFE	; 0x800cfe <buffer+0x1eb>
    2c72:	3b c0       	rjmp	.+118    	; 0x2cea <getSetFreeCluster+0x116>
    2c74:	60 91 ff 0c 	lds	r22, 0x0CFF	; 0x800cff <buffer+0x1ec>
    2c78:	70 91 00 0d 	lds	r23, 0x0D00	; 0x800d00 <buffer+0x1ed>
    2c7c:	80 91 01 0d 	lds	r24, 0x0D01	; 0x800d01 <buffer+0x1ee>
    2c80:	90 91 02 0d 	lds	r25, 0x0D02	; 0x800d02 <buffer+0x1ef>
    2c84:	32 c0       	rjmp	.+100    	; 0x2cea <getSetFreeCluster+0x116>
    2c86:	d1 30       	cpi	r29, 0x01	; 1
    2c88:	49 f4       	brne	.+18     	; 0x2c9c <getSetFreeCluster+0xc8>
    2c8a:	c0 92 fb 0c 	sts	0x0CFB, r12	; 0x800cfb <buffer+0x1e8>
    2c8e:	d0 92 fc 0c 	sts	0x0CFC, r13	; 0x800cfc <buffer+0x1e9>
    2c92:	e0 92 fd 0c 	sts	0x0CFD, r14	; 0x800cfd <buffer+0x1ea>
    2c96:	f0 92 fe 0c 	sts	0x0CFE, r15	; 0x800cfe <buffer+0x1eb>
    2c9a:	08 c0       	rjmp	.+16     	; 0x2cac <getSetFreeCluster+0xd8>
    2c9c:	c0 92 ff 0c 	sts	0x0CFF, r12	; 0x800cff <buffer+0x1ec>
    2ca0:	d0 92 00 0d 	sts	0x0D00, r13	; 0x800d00 <buffer+0x1ed>
    2ca4:	e0 92 01 0d 	sts	0x0D01, r14	; 0x800d01 <buffer+0x1ee>
    2ca8:	f0 92 02 0d 	sts	0x0D02, r15	; 0x800d02 <buffer+0x1ef>
    2cac:	80 91 18 0d 	lds	r24, 0x0D18	; 0x800d18 <unusedSectors>
    2cb0:	90 91 19 0d 	lds	r25, 0x0D19	; 0x800d19 <unusedSectors+0x1>
    2cb4:	a0 91 1a 0d 	lds	r26, 0x0D1A	; 0x800d1a <unusedSectors+0x2>
    2cb8:	b0 91 1b 0d 	lds	r27, 0x0D1B	; 0x800d1b <unusedSectors+0x3>
    2cbc:	bc 01       	movw	r22, r24
    2cbe:	cd 01       	movw	r24, r26
    2cc0:	6f 5f       	subi	r22, 0xFF	; 255
    2cc2:	7f 4f       	sbci	r23, 0xFF	; 255
    2cc4:	8f 4f       	sbci	r24, 0xFF	; 255
    2cc6:	9f 4f       	sbci	r25, 0xFF	; 255
    2cc8:	0e 94 10 21 	call	0x4220	; 0x4220 <SD_writeSingleBlock>
    2ccc:	6f ef       	ldi	r22, 0xFF	; 255
    2cce:	7f ef       	ldi	r23, 0xFF	; 255
    2cd0:	cb 01       	movw	r24, r22
    2cd2:	0b c0       	rjmp	.+22     	; 0x2cea <getSetFreeCluster+0x116>
    2cd4:	6f ef       	ldi	r22, 0xFF	; 255
    2cd6:	7f ef       	ldi	r23, 0xFF	; 255
    2cd8:	cb 01       	movw	r24, r22
    2cda:	07 c0       	rjmp	.+14     	; 0x2cea <getSetFreeCluster+0x116>
    2cdc:	6f ef       	ldi	r22, 0xFF	; 255
    2cde:	7f ef       	ldi	r23, 0xFF	; 255
    2ce0:	cb 01       	movw	r24, r22
    2ce2:	03 c0       	rjmp	.+6      	; 0x2cea <getSetFreeCluster+0x116>
    2ce4:	6f ef       	ldi	r22, 0xFF	; 255
    2ce6:	7f ef       	ldi	r23, 0xFF	; 255
    2ce8:	cb 01       	movw	r24, r22
    2cea:	df 91       	pop	r29
    2cec:	cf 91       	pop	r28
    2cee:	ff 90       	pop	r15
    2cf0:	ef 90       	pop	r14
    2cf2:	df 90       	pop	r13
    2cf4:	cf 90       	pop	r12
    2cf6:	08 95       	ret

00002cf8 <getBootSectorData>:
    2cf8:	ef 92       	push	r14
    2cfa:	ff 92       	push	r15
    2cfc:	0f 93       	push	r16
    2cfe:	1f 93       	push	r17
    2d00:	cf 93       	push	r28
    2d02:	df 93       	push	r29
    2d04:	10 92 18 0d 	sts	0x0D18, r1	; 0x800d18 <unusedSectors>
    2d08:	10 92 19 0d 	sts	0x0D19, r1	; 0x800d19 <unusedSectors+0x1>
    2d0c:	10 92 1a 0d 	sts	0x0D1A, r1	; 0x800d1a <unusedSectors+0x2>
    2d10:	10 92 1b 0d 	sts	0x0D1B, r1	; 0x800d1b <unusedSectors+0x3>
    2d14:	60 e0       	ldi	r22, 0x00	; 0
    2d16:	70 e0       	ldi	r23, 0x00	; 0
    2d18:	cb 01       	movw	r24, r22
    2d1a:	0e 94 e8 20 	call	0x41d0	; 0x41d0 <SD_readSingleBlock>
    2d1e:	80 91 13 0b 	lds	r24, 0x0B13	; 0x800b13 <buffer>
    2d22:	8d 7f       	andi	r24, 0xFD	; 253
    2d24:	89 3e       	cpi	r24, 0xE9	; 233
    2d26:	01 f1       	breq	.+64     	; 0x2d68 <getBootSectorData+0x70>
    2d28:	80 91 11 0d 	lds	r24, 0x0D11	; 0x800d11 <buffer+0x1fe>
    2d2c:	90 91 12 0d 	lds	r25, 0x0D12	; 0x800d12 <buffer+0x1ff>
    2d30:	85 35       	cpi	r24, 0x55	; 85
    2d32:	9a 4a       	sbci	r25, 0xAA	; 170
    2d34:	09 f0       	breq	.+2      	; 0x2d38 <getBootSectorData+0x40>
    2d36:	96 c0       	rjmp	.+300    	; 0x2e64 <getBootSectorData+0x16c>
    2d38:	60 91 d9 0c 	lds	r22, 0x0CD9	; 0x800cd9 <buffer+0x1c6>
    2d3c:	70 91 da 0c 	lds	r23, 0x0CDA	; 0x800cda <buffer+0x1c7>
    2d40:	80 91 db 0c 	lds	r24, 0x0CDB	; 0x800cdb <buffer+0x1c8>
    2d44:	90 91 dc 0c 	lds	r25, 0x0CDC	; 0x800cdc <buffer+0x1c9>
    2d48:	60 93 18 0d 	sts	0x0D18, r22	; 0x800d18 <unusedSectors>
    2d4c:	70 93 19 0d 	sts	0x0D19, r23	; 0x800d19 <unusedSectors+0x1>
    2d50:	80 93 1a 0d 	sts	0x0D1A, r24	; 0x800d1a <unusedSectors+0x2>
    2d54:	90 93 1b 0d 	sts	0x0D1B, r25	; 0x800d1b <unusedSectors+0x3>
    2d58:	0e 94 e8 20 	call	0x41d0	; 0x41d0 <SD_readSingleBlock>
    2d5c:	80 91 13 0b 	lds	r24, 0x0B13	; 0x800b13 <buffer>
    2d60:	8d 7f       	andi	r24, 0xFD	; 253
    2d62:	89 3e       	cpi	r24, 0xE9	; 233
    2d64:	09 f0       	breq	.+2      	; 0x2d68 <getBootSectorData+0x70>
    2d66:	80 c0       	rjmp	.+256    	; 0x2e68 <getBootSectorData+0x170>
    2d68:	e3 e1       	ldi	r30, 0x13	; 19
    2d6a:	fb e0       	ldi	r31, 0x0B	; 11
    2d6c:	83 85       	ldd	r24, Z+11	; 0x0b
    2d6e:	94 85       	ldd	r25, Z+12	; 0x0c
    2d70:	90 93 f9 08 	sts	0x08F9, r25	; 0x8008f9 <bytesPerSector+0x1>
    2d74:	80 93 f8 08 	sts	0x08F8, r24	; 0x8008f8 <bytesPerSector>
    2d78:	85 85       	ldd	r24, Z+13	; 0x0d
    2d7a:	90 e0       	ldi	r25, 0x00	; 0
    2d7c:	90 93 15 0d 	sts	0x0D15, r25	; 0x800d15 <sectorPerCluster+0x1>
    2d80:	80 93 14 0d 	sts	0x0D14, r24	; 0x800d14 <sectorPerCluster>
    2d84:	c6 85       	ldd	r28, Z+14	; 0x0e
    2d86:	d7 85       	ldd	r29, Z+15	; 0x0f
    2d88:	d0 93 39 0d 	sts	0x0D39, r29	; 0x800d39 <reservedSectorCount+0x1>
    2d8c:	c0 93 38 0d 	sts	0x0D38, r28	; 0x800d38 <reservedSectorCount>
    2d90:	84 a5       	ldd	r24, Z+44	; 0x2c
    2d92:	95 a5       	ldd	r25, Z+45	; 0x2d
    2d94:	a6 a5       	ldd	r26, Z+46	; 0x2e
    2d96:	b7 a5       	ldd	r27, Z+47	; 0x2f
    2d98:	80 93 06 09 	sts	0x0906, r24	; 0x800906 <rootCluster>
    2d9c:	90 93 07 09 	sts	0x0907, r25	; 0x800907 <rootCluster+0x1>
    2da0:	a0 93 08 09 	sts	0x0908, r26	; 0x800908 <rootCluster+0x2>
    2da4:	b0 93 09 09 	sts	0x0909, r27	; 0x800909 <rootCluster+0x3>
    2da8:	00 91 38 0d 	lds	r16, 0x0D38	; 0x800d38 <reservedSectorCount>
    2dac:	10 91 39 0d 	lds	r17, 0x0D39	; 0x800d39 <reservedSectorCount+0x1>
    2db0:	a0 89       	ldd	r26, Z+16	; 0x10
    2db2:	24 a1       	ldd	r18, Z+36	; 0x24
    2db4:	35 a1       	ldd	r19, Z+37	; 0x25
    2db6:	46 a1       	ldd	r20, Z+38	; 0x26
    2db8:	57 a1       	ldd	r21, Z+39	; 0x27
    2dba:	b0 e0       	ldi	r27, 0x00	; 0
    2dbc:	0e 94 be 23 	call	0x477c	; 0x477c <__muluhisi3>
    2dc0:	ab 01       	movw	r20, r22
    2dc2:	bc 01       	movw	r22, r24
    2dc4:	84 8d       	ldd	r24, Z+28	; 0x1c
    2dc6:	95 8d       	ldd	r25, Z+29	; 0x1d
    2dc8:	a6 8d       	ldd	r26, Z+30	; 0x1e
    2dca:	b7 8d       	ldd	r27, Z+31	; 0x1f
    2dcc:	80 0f       	add	r24, r16
    2dce:	91 1f       	adc	r25, r17
    2dd0:	a1 1d       	adc	r26, r1
    2dd2:	b1 1d       	adc	r27, r1
    2dd4:	84 0f       	add	r24, r20
    2dd6:	95 1f       	adc	r25, r21
    2dd8:	a6 1f       	adc	r26, r22
    2dda:	b7 1f       	adc	r27, r23
    2ddc:	80 93 f0 08 	sts	0x08F0, r24	; 0x8008f0 <firstDataSector>
    2de0:	90 93 f1 08 	sts	0x08F1, r25	; 0x8008f1 <firstDataSector+0x1>
    2de4:	a0 93 f2 08 	sts	0x08F2, r26	; 0x8008f2 <firstDataSector+0x2>
    2de8:	b0 93 f3 08 	sts	0x08F3, r27	; 0x8008f3 <firstDataSector+0x3>
    2dec:	20 91 14 0d 	lds	r18, 0x0D14	; 0x800d14 <sectorPerCluster>
    2df0:	30 91 15 0d 	lds	r19, 0x0D15	; 0x800d15 <sectorPerCluster+0x1>
    2df4:	80 a1       	ldd	r24, Z+32	; 0x20
    2df6:	91 a1       	ldd	r25, Z+33	; 0x21
    2df8:	a2 a1       	ldd	r26, Z+34	; 0x22
    2dfa:	b3 a1       	ldd	r27, Z+35	; 0x23
    2dfc:	8c 1b       	sub	r24, r28
    2dfe:	9d 0b       	sbc	r25, r29
    2e00:	a1 09       	sbc	r26, r1
    2e02:	b1 09       	sbc	r27, r1
    2e04:	7c 01       	movw	r14, r24
    2e06:	8d 01       	movw	r16, r26
    2e08:	e4 1a       	sub	r14, r20
    2e0a:	f5 0a       	sbc	r15, r21
    2e0c:	06 0b       	sbc	r16, r22
    2e0e:	17 0b       	sbc	r17, r23
    2e10:	c8 01       	movw	r24, r16
    2e12:	b7 01       	movw	r22, r14
    2e14:	40 e0       	ldi	r20, 0x00	; 0
    2e16:	50 e0       	ldi	r21, 0x00	; 0
    2e18:	0e 94 85 23 	call	0x470a	; 0x470a <__udivmodsi4>
    2e1c:	20 93 fa 08 	sts	0x08FA, r18	; 0x8008fa <totalClusters>
    2e20:	30 93 fb 08 	sts	0x08FB, r19	; 0x8008fb <totalClusters+0x1>
    2e24:	40 93 fc 08 	sts	0x08FC, r20	; 0x8008fc <totalClusters+0x2>
    2e28:	50 93 fd 08 	sts	0x08FD, r21	; 0x8008fd <totalClusters+0x3>
    2e2c:	20 e0       	ldi	r18, 0x00	; 0
    2e2e:	30 e0       	ldi	r19, 0x00	; 0
    2e30:	a9 01       	movw	r20, r18
    2e32:	60 e0       	ldi	r22, 0x00	; 0
    2e34:	81 e0       	ldi	r24, 0x01	; 1
    2e36:	ce de       	rcall	.-612    	; 0x2bd4 <getSetFreeCluster>
    2e38:	00 91 fa 08 	lds	r16, 0x08FA	; 0x8008fa <totalClusters>
    2e3c:	10 91 fb 08 	lds	r17, 0x08FB	; 0x8008fb <totalClusters+0x1>
    2e40:	20 91 fc 08 	lds	r18, 0x08FC	; 0x8008fc <totalClusters+0x2>
    2e44:	30 91 fd 08 	lds	r19, 0x08FD	; 0x8008fd <totalClusters+0x3>
    2e48:	06 17       	cp	r16, r22
    2e4a:	17 07       	cpc	r17, r23
    2e4c:	28 07       	cpc	r18, r24
    2e4e:	39 07       	cpc	r19, r25
    2e50:	20 f4       	brcc	.+8      	; 0x2e5a <getBootSectorData+0x162>
    2e52:	10 92 48 0f 	sts	0x0F48, r1	; 0x800f48 <freeClusterCountUpdated>
    2e56:	80 e0       	ldi	r24, 0x00	; 0
    2e58:	08 c0       	rjmp	.+16     	; 0x2e6a <getBootSectorData+0x172>
    2e5a:	81 e0       	ldi	r24, 0x01	; 1
    2e5c:	80 93 48 0f 	sts	0x0F48, r24	; 0x800f48 <freeClusterCountUpdated>
    2e60:	80 e0       	ldi	r24, 0x00	; 0
    2e62:	03 c0       	rjmp	.+6      	; 0x2e6a <getBootSectorData+0x172>
    2e64:	81 e0       	ldi	r24, 0x01	; 1
    2e66:	01 c0       	rjmp	.+2      	; 0x2e6a <getBootSectorData+0x172>
    2e68:	81 e0       	ldi	r24, 0x01	; 1
    2e6a:	df 91       	pop	r29
    2e6c:	cf 91       	pop	r28
    2e6e:	1f 91       	pop	r17
    2e70:	0f 91       	pop	r16
    2e72:	ff 90       	pop	r15
    2e74:	ef 90       	pop	r14
    2e76:	08 95       	ret

00002e78 <convertFileName>:
    2e78:	cf 93       	push	r28
    2e7a:	df 93       	push	r29
    2e7c:	cd b7       	in	r28, 0x3d	; 61
    2e7e:	de b7       	in	r29, 0x3e	; 62
    2e80:	2b 97       	sbiw	r28, 0x0b	; 11
    2e82:	0f b6       	in	r0, 0x3f	; 63
    2e84:	f8 94       	cli
    2e86:	de bf       	out	0x3e, r29	; 62
    2e88:	0f be       	out	0x3f, r0	; 63
    2e8a:	cd bf       	out	0x3d, r28	; 61
    2e8c:	bc 01       	movw	r22, r24
    2e8e:	dc 01       	movw	r26, r24
    2e90:	8c 91       	ld	r24, X
    2e92:	8e 32       	cpi	r24, 0x2E	; 46
    2e94:	61 f1       	breq	.+88     	; 0x2eee <convertFileName+0x76>
    2e96:	fb 01       	movw	r30, r22
    2e98:	31 96       	adiw	r30, 0x01	; 1
    2e9a:	91 e0       	ldi	r25, 0x01	; 1
    2e9c:	81 91       	ld	r24, Z+
    2e9e:	8e 32       	cpi	r24, 0x2E	; 46
    2ea0:	21 f0       	breq	.+8      	; 0x2eaa <convertFileName+0x32>
    2ea2:	9f 5f       	subi	r25, 0xFF	; 255
    2ea4:	9c 30       	cpi	r25, 0x0C	; 12
    2ea6:	d1 f7       	brne	.-12     	; 0x2e9c <convertFileName+0x24>
    2ea8:	06 c0       	rjmp	.+12     	; 0x2eb6 <convertFileName+0x3e>
    2eaa:	99 30       	cpi	r25, 0x09	; 9
    2eac:	20 f4       	brcc	.+8      	; 0x2eb6 <convertFileName+0x3e>
    2eae:	91 11       	cpse	r25, r1
    2eb0:	08 c0       	rjmp	.+16     	; 0x2ec2 <convertFileName+0x4a>
    2eb2:	29 2f       	mov	r18, r25
    2eb4:	1e c0       	rjmp	.+60     	; 0x2ef2 <convertFileName+0x7a>
    2eb6:	8f e9       	ldi	r24, 0x9F	; 159
    2eb8:	95 e0       	ldi	r25, 0x05	; 5
    2eba:	0e 94 e2 21 	call	0x43c4	; 0x43c4 <Uart_Transmit_IT_PC>
    2ebe:	81 e0       	ldi	r24, 0x01	; 1
    2ec0:	62 c0       	rjmp	.+196    	; 0x2f86 <convertFileName+0x10e>
    2ec2:	fb 01       	movw	r30, r22
    2ec4:	9e 01       	movw	r18, r28
    2ec6:	2f 5f       	subi	r18, 0xFF	; 255
    2ec8:	3f 4f       	sbci	r19, 0xFF	; 255
    2eca:	4f ef       	ldi	r20, 0xFF	; 255
    2ecc:	49 0f       	add	r20, r25
    2ece:	50 e0       	ldi	r21, 0x00	; 0
    2ed0:	4f 5f       	subi	r20, 0xFF	; 255
    2ed2:	5f 4f       	sbci	r21, 0xFF	; 255
    2ed4:	46 0f       	add	r20, r22
    2ed6:	57 1f       	adc	r21, r23
    2ed8:	81 91       	ld	r24, Z+
    2eda:	d9 01       	movw	r26, r18
    2edc:	8d 93       	st	X+, r24
    2ede:	9d 01       	movw	r18, r26
    2ee0:	4e 17       	cp	r20, r30
    2ee2:	5f 07       	cpc	r21, r31
    2ee4:	c9 f7       	brne	.-14     	; 0x2ed8 <convertFileName+0x60>
    2ee6:	98 30       	cpi	r25, 0x08	; 8
    2ee8:	78 f4       	brcc	.+30     	; 0x2f08 <convertFileName+0x90>
    2eea:	29 2f       	mov	r18, r25
    2eec:	02 c0       	rjmp	.+4      	; 0x2ef2 <convertFileName+0x7a>
    2eee:	90 e0       	ldi	r25, 0x00	; 0
    2ef0:	20 e0       	ldi	r18, 0x00	; 0
    2ef2:	80 e2       	ldi	r24, 0x20	; 32
    2ef4:	e1 e0       	ldi	r30, 0x01	; 1
    2ef6:	f0 e0       	ldi	r31, 0x00	; 0
    2ef8:	ec 0f       	add	r30, r28
    2efa:	fd 1f       	adc	r31, r29
    2efc:	e2 0f       	add	r30, r18
    2efe:	f1 1d       	adc	r31, r1
    2f00:	80 83       	st	Z, r24
    2f02:	2f 5f       	subi	r18, 0xFF	; 255
    2f04:	28 30       	cpi	r18, 0x08	; 8
    2f06:	b0 f3       	brcs	.-20     	; 0x2ef4 <convertFileName+0x7c>
    2f08:	21 e0       	ldi	r18, 0x01	; 1
    2f0a:	29 0f       	add	r18, r25
    2f0c:	98 e0       	ldi	r25, 0x08	; 8
    2f0e:	fb 01       	movw	r30, r22
    2f10:	e2 0f       	add	r30, r18
    2f12:	f1 1d       	adc	r31, r1
    2f14:	80 81       	ld	r24, Z
    2f16:	81 11       	cpse	r24, r1
    2f18:	03 c0       	rjmp	.+6      	; 0x2f20 <convertFileName+0xa8>
    2f1a:	9b 30       	cpi	r25, 0x0B	; 11
    2f1c:	50 f0       	brcs	.+20     	; 0x2f32 <convertFileName+0xba>
    2f1e:	15 c0       	rjmp	.+42     	; 0x2f4a <convertFileName+0xd2>
    2f20:	2f 5f       	subi	r18, 0xFF	; 255
    2f22:	e1 e0       	ldi	r30, 0x01	; 1
    2f24:	f0 e0       	ldi	r31, 0x00	; 0
    2f26:	ec 0f       	add	r30, r28
    2f28:	fd 1f       	adc	r31, r29
    2f2a:	e9 0f       	add	r30, r25
    2f2c:	f1 1d       	adc	r31, r1
    2f2e:	80 83       	st	Z, r24
    2f30:	0c c0       	rjmp	.+24     	; 0x2f4a <convertFileName+0xd2>
    2f32:	20 e2       	ldi	r18, 0x20	; 32
    2f34:	e1 e0       	ldi	r30, 0x01	; 1
    2f36:	f0 e0       	ldi	r31, 0x00	; 0
    2f38:	ec 0f       	add	r30, r28
    2f3a:	fd 1f       	adc	r31, r29
    2f3c:	e9 0f       	add	r30, r25
    2f3e:	f1 1d       	adc	r31, r1
    2f40:	20 83       	st	Z, r18
    2f42:	9f 5f       	subi	r25, 0xFF	; 255
    2f44:	9b 30       	cpi	r25, 0x0B	; 11
    2f46:	b1 f7       	brne	.-20     	; 0x2f34 <convertFileName+0xbc>
    2f48:	03 c0       	rjmp	.+6      	; 0x2f50 <convertFileName+0xd8>
    2f4a:	9f 5f       	subi	r25, 0xFF	; 255
    2f4c:	9b 30       	cpi	r25, 0x0B	; 11
    2f4e:	f8 f2       	brcs	.-66     	; 0x2f0e <convertFileName+0x96>
    2f50:	9e 01       	movw	r18, r28
    2f52:	2f 5f       	subi	r18, 0xFF	; 255
    2f54:	3f 4f       	sbci	r19, 0xFF	; 255
    2f56:	ae 01       	movw	r20, r28
    2f58:	44 5f       	subi	r20, 0xF4	; 244
    2f5a:	5f 4f       	sbci	r21, 0xFF	; 255
    2f5c:	f9 01       	movw	r30, r18
    2f5e:	80 81       	ld	r24, Z
    2f60:	9f e9       	ldi	r25, 0x9F	; 159
    2f62:	98 0f       	add	r25, r24
    2f64:	9a 31       	cpi	r25, 0x1A	; 26
    2f66:	10 f4       	brcc	.+4      	; 0x2f6c <convertFileName+0xf4>
    2f68:	80 52       	subi	r24, 0x20	; 32
    2f6a:	80 83       	st	Z, r24
    2f6c:	31 96       	adiw	r30, 0x01	; 1
    2f6e:	4e 17       	cp	r20, r30
    2f70:	5f 07       	cpc	r21, r31
    2f72:	a9 f7       	brne	.-22     	; 0x2f5e <convertFileName+0xe6>
    2f74:	fb 01       	movw	r30, r22
    2f76:	d9 01       	movw	r26, r18
    2f78:	8d 91       	ld	r24, X+
    2f7a:	9d 01       	movw	r18, r26
    2f7c:	81 93       	st	Z+, r24
    2f7e:	a4 17       	cp	r26, r20
    2f80:	b5 07       	cpc	r27, r21
    2f82:	c9 f7       	brne	.-14     	; 0x2f76 <convertFileName+0xfe>
    2f84:	80 e0       	ldi	r24, 0x00	; 0
    2f86:	2b 96       	adiw	r28, 0x0b	; 11
    2f88:	0f b6       	in	r0, 0x3f	; 63
    2f8a:	f8 94       	cli
    2f8c:	de bf       	out	0x3e, r29	; 62
    2f8e:	0f be       	out	0x3f, r0	; 63
    2f90:	cd bf       	out	0x3d, r28	; 61
    2f92:	df 91       	pop	r29
    2f94:	cf 91       	pop	r28
    2f96:	08 95       	ret

00002f98 <searchNextFreeCluster>:
    2f98:	4f 92       	push	r4
    2f9a:	5f 92       	push	r5
    2f9c:	6f 92       	push	r6
    2f9e:	7f 92       	push	r7
    2fa0:	8f 92       	push	r8
    2fa2:	9f 92       	push	r9
    2fa4:	af 92       	push	r10
    2fa6:	bf 92       	push	r11
    2fa8:	cf 92       	push	r12
    2faa:	df 92       	push	r13
    2fac:	ef 92       	push	r14
    2fae:	ff 92       	push	r15
    2fb0:	cf 93       	push	r28
    2fb2:	df 93       	push	r29
    2fb4:	6b 01       	movw	r12, r22
    2fb6:	7c 01       	movw	r14, r24
    2fb8:	20 e8       	ldi	r18, 0x80	; 128
    2fba:	c2 22       	and	r12, r18
    2fbc:	80 91 fa 08 	lds	r24, 0x08FA	; 0x8008fa <totalClusters>
    2fc0:	90 91 fb 08 	lds	r25, 0x08FB	; 0x8008fb <totalClusters+0x1>
    2fc4:	a0 91 fc 08 	lds	r26, 0x08FC	; 0x8008fc <totalClusters+0x2>
    2fc8:	b0 91 fd 08 	lds	r27, 0x08FD	; 0x8008fd <totalClusters+0x3>
    2fcc:	c8 16       	cp	r12, r24
    2fce:	d9 06       	cpc	r13, r25
    2fd0:	ea 06       	cpc	r14, r26
    2fd2:	fb 06       	cpc	r15, r27
    2fd4:	08 f0       	brcs	.+2      	; 0x2fd8 <searchNextFreeCluster+0x40>
    2fd6:	70 c0       	rjmp	.+224    	; 0x30b8 <searchNextFreeCluster+0x120>
    2fd8:	46 01       	movw	r8, r12
    2fda:	57 01       	movw	r10, r14
    2fdc:	88 0c       	add	r8, r8
    2fde:	99 1c       	adc	r9, r9
    2fe0:	aa 1c       	adc	r10, r10
    2fe2:	bb 1c       	adc	r11, r11
    2fe4:	88 0c       	add	r8, r8
    2fe6:	99 1c       	adc	r9, r9
    2fe8:	aa 1c       	adc	r10, r10
    2fea:	bb 1c       	adc	r11, r11
    2fec:	c3 e1       	ldi	r28, 0x13	; 19
    2fee:	db e0       	ldi	r29, 0x0B	; 11
    2ff0:	40 91 38 0d 	lds	r20, 0x0D38	; 0x800d38 <reservedSectorCount>
    2ff4:	50 91 39 0d 	lds	r21, 0x0D39	; 0x800d39 <reservedSectorCount+0x1>
    2ff8:	80 91 f8 08 	lds	r24, 0x08F8	; 0x8008f8 <bytesPerSector>
    2ffc:	90 91 f9 08 	lds	r25, 0x08F9	; 0x8008f9 <bytesPerSector+0x1>
    3000:	40 90 18 0d 	lds	r4, 0x0D18	; 0x800d18 <unusedSectors>
    3004:	50 90 19 0d 	lds	r5, 0x0D19	; 0x800d19 <unusedSectors+0x1>
    3008:	60 90 1a 0d 	lds	r6, 0x0D1A	; 0x800d1a <unusedSectors+0x2>
    300c:	70 90 1b 0d 	lds	r7, 0x0D1B	; 0x800d1b <unusedSectors+0x3>
    3010:	44 0e       	add	r4, r20
    3012:	55 1e       	adc	r5, r21
    3014:	61 1c       	adc	r6, r1
    3016:	71 1c       	adc	r7, r1
    3018:	9c 01       	movw	r18, r24
    301a:	40 e0       	ldi	r20, 0x00	; 0
    301c:	50 e0       	ldi	r21, 0x00	; 0
    301e:	c5 01       	movw	r24, r10
    3020:	b4 01       	movw	r22, r8
    3022:	0e 94 85 23 	call	0x470a	; 0x470a <__udivmodsi4>
    3026:	c3 01       	movw	r24, r6
    3028:	b2 01       	movw	r22, r4
    302a:	62 0f       	add	r22, r18
    302c:	73 1f       	adc	r23, r19
    302e:	84 1f       	adc	r24, r20
    3030:	95 1f       	adc	r25, r21
    3032:	0e 94 e8 20 	call	0x41d0	; 0x41d0 <SD_readSingleBlock>
    3036:	88 81       	ld	r24, Y
    3038:	99 81       	ldd	r25, Y+1	; 0x01
    303a:	aa 81       	ldd	r26, Y+2	; 0x02
    303c:	bb 81       	ldd	r27, Y+3	; 0x03
    303e:	bf 70       	andi	r27, 0x0F	; 15
    3040:	89 2b       	or	r24, r25
    3042:	8a 2b       	or	r24, r26
    3044:	8b 2b       	or	r24, r27
    3046:	99 f0       	breq	.+38     	; 0x306e <searchNextFreeCluster+0xd6>
    3048:	21 e0       	ldi	r18, 0x01	; 1
    304a:	e2 2f       	mov	r30, r18
    304c:	f0 e0       	ldi	r31, 0x00	; 0
    304e:	ee 0f       	add	r30, r30
    3050:	ff 1f       	adc	r31, r31
    3052:	ee 0f       	add	r30, r30
    3054:	ff 1f       	adc	r31, r31
    3056:	ed 5e       	subi	r30, 0xED	; 237
    3058:	f4 4f       	sbci	r31, 0xF4	; 244
    305a:	80 81       	ld	r24, Z
    305c:	91 81       	ldd	r25, Z+1	; 0x01
    305e:	a2 81       	ldd	r26, Z+2	; 0x02
    3060:	b3 81       	ldd	r27, Z+3	; 0x03
    3062:	bf 70       	andi	r27, 0x0F	; 15
    3064:	89 2b       	or	r24, r25
    3066:	8a 2b       	or	r24, r26
    3068:	8b 2b       	or	r24, r27
    306a:	49 f4       	brne	.+18     	; 0x307e <searchNextFreeCluster+0xe6>
    306c:	01 c0       	rjmp	.+2      	; 0x3070 <searchNextFreeCluster+0xd8>
    306e:	20 e0       	ldi	r18, 0x00	; 0
    3070:	c7 01       	movw	r24, r14
    3072:	b6 01       	movw	r22, r12
    3074:	62 0f       	add	r22, r18
    3076:	71 1d       	adc	r23, r1
    3078:	81 1d       	adc	r24, r1
    307a:	91 1d       	adc	r25, r1
    307c:	20 c0       	rjmp	.+64     	; 0x30be <searchNextFreeCluster+0x126>
    307e:	2f 5f       	subi	r18, 0xFF	; 255
    3080:	22 f7       	brpl	.-56     	; 0x304a <searchNextFreeCluster+0xb2>
    3082:	80 e8       	ldi	r24, 0x80	; 128
    3084:	c8 0e       	add	r12, r24
    3086:	d1 1c       	adc	r13, r1
    3088:	e1 1c       	adc	r14, r1
    308a:	f1 1c       	adc	r15, r1
    308c:	80 91 fa 08 	lds	r24, 0x08FA	; 0x8008fa <totalClusters>
    3090:	90 91 fb 08 	lds	r25, 0x08FB	; 0x8008fb <totalClusters+0x1>
    3094:	a0 91 fc 08 	lds	r26, 0x08FC	; 0x8008fc <totalClusters+0x2>
    3098:	b0 91 fd 08 	lds	r27, 0x08FD	; 0x8008fd <totalClusters+0x3>
    309c:	22 e0       	ldi	r18, 0x02	; 2
    309e:	92 0e       	add	r9, r18
    30a0:	a1 1c       	adc	r10, r1
    30a2:	b1 1c       	adc	r11, r1
    30a4:	c8 16       	cp	r12, r24
    30a6:	d9 06       	cpc	r13, r25
    30a8:	ea 06       	cpc	r14, r26
    30aa:	fb 06       	cpc	r15, r27
    30ac:	08 f4       	brcc	.+2      	; 0x30b0 <searchNextFreeCluster+0x118>
    30ae:	a0 cf       	rjmp	.-192    	; 0x2ff0 <searchNextFreeCluster+0x58>
    30b0:	60 e0       	ldi	r22, 0x00	; 0
    30b2:	70 e0       	ldi	r23, 0x00	; 0
    30b4:	cb 01       	movw	r24, r22
    30b6:	03 c0       	rjmp	.+6      	; 0x30be <searchNextFreeCluster+0x126>
    30b8:	60 e0       	ldi	r22, 0x00	; 0
    30ba:	70 e0       	ldi	r23, 0x00	; 0
    30bc:	cb 01       	movw	r24, r22
    30be:	df 91       	pop	r29
    30c0:	cf 91       	pop	r28
    30c2:	ff 90       	pop	r15
    30c4:	ef 90       	pop	r14
    30c6:	df 90       	pop	r13
    30c8:	cf 90       	pop	r12
    30ca:	bf 90       	pop	r11
    30cc:	af 90       	pop	r10
    30ce:	9f 90       	pop	r9
    30d0:	8f 90       	pop	r8
    30d2:	7f 90       	pop	r7
    30d4:	6f 90       	pop	r6
    30d6:	5f 90       	pop	r5
    30d8:	4f 90       	pop	r4
    30da:	08 95       	ret

000030dc <displayMemory>:
    30dc:	8f 92       	push	r8
    30de:	9f 92       	push	r9
    30e0:	af 92       	push	r10
    30e2:	bf 92       	push	r11
    30e4:	df 92       	push	r13
    30e6:	ef 92       	push	r14
    30e8:	ff 92       	push	r15
    30ea:	0f 93       	push	r16
    30ec:	1f 93       	push	r17
    30ee:	cf 93       	push	r28
    30f0:	df 93       	push	r29
    30f2:	cd b7       	in	r28, 0x3d	; 61
    30f4:	de b7       	in	r29, 0x3e	; 62
    30f6:	64 97       	sbiw	r28, 0x14	; 20
    30f8:	0f b6       	in	r0, 0x3f	; 63
    30fa:	f8 94       	cli
    30fc:	de bf       	out	0x3e, r29	; 62
    30fe:	0f be       	out	0x3f, r0	; 63
    3100:	cd bf       	out	0x3d, r28	; 61
    3102:	d8 2e       	mov	r13, r24
    3104:	cb 01       	movw	r24, r22
    3106:	ba 01       	movw	r22, r20
    3108:	24 e1       	ldi	r18, 0x14	; 20
    310a:	e2 eb       	ldi	r30, 0xB2	; 178
    310c:	f5 e0       	ldi	r31, 0x05	; 5
    310e:	de 01       	movw	r26, r28
    3110:	11 96       	adiw	r26, 0x01	; 1
    3112:	01 90       	ld	r0, Z+
    3114:	0d 92       	st	X+, r0
    3116:	2a 95       	dec	r18
    3118:	e1 f7       	brne	.-8      	; 0x3112 <displayMemory+0x36>
    311a:	1c e0       	ldi	r17, 0x0C	; 12
    311c:	0c e2       	ldi	r16, 0x2C	; 44
    311e:	0f 2e       	mov	r0, r31
    3120:	fa e0       	ldi	r31, 0x0A	; 10
    3122:	8f 2e       	mov	r8, r31
    3124:	91 2c       	mov	r9, r1
    3126:	a1 2c       	mov	r10, r1
    3128:	b1 2c       	mov	r11, r1
    312a:	f0 2d       	mov	r31, r0
    312c:	15 30       	cpi	r17, 0x05	; 5
    312e:	11 f0       	breq	.+4      	; 0x3134 <displayMemory+0x58>
    3130:	19 30       	cpi	r17, 0x09	; 9
    3132:	29 f4       	brne	.+10     	; 0x313e <displayMemory+0x62>
    3134:	fe 01       	movw	r30, r28
    3136:	e1 0f       	add	r30, r17
    3138:	f1 1d       	adc	r31, r1
    313a:	00 83       	st	Z, r16
    313c:	11 50       	subi	r17, 0x01	; 1
    313e:	7e 01       	movw	r14, r28
    3140:	e1 0e       	add	r14, r17
    3142:	f1 1c       	adc	r15, r1
    3144:	a5 01       	movw	r20, r10
    3146:	94 01       	movw	r18, r8
    3148:	0e 94 85 23 	call	0x470a	; 0x470a <__udivmodsi4>
    314c:	60 63       	ori	r22, 0x30	; 48
    314e:	f7 01       	movw	r30, r14
    3150:	60 83       	st	Z, r22
    3152:	62 2f       	mov	r22, r18
    3154:	73 2f       	mov	r23, r19
    3156:	84 2f       	mov	r24, r20
    3158:	95 2f       	mov	r25, r21
    315a:	61 15       	cp	r22, r1
    315c:	71 05       	cpc	r23, r1
    315e:	81 05       	cpc	r24, r1
    3160:	91 05       	cpc	r25, r1
    3162:	11 f0       	breq	.+4      	; 0x3168 <displayMemory+0x8c>
    3164:	11 50       	subi	r17, 0x01	; 1
    3166:	11 f7       	brne	.-60     	; 0x312c <displayMemory+0x50>
    3168:	f1 e0       	ldi	r31, 0x01	; 1
    316a:	df 12       	cpse	r13, r31
    316c:	02 c0       	rjmp	.+4      	; 0x3172 <displayMemory+0x96>
    316e:	8b e4       	ldi	r24, 0x4B	; 75
    3170:	8e 87       	std	Y+14, r24	; 0x0e
    3172:	ce 01       	movw	r24, r28
    3174:	01 96       	adiw	r24, 0x01	; 1
    3176:	0e 94 51 23 	call	0x46a2	; 0x46a2 <transmitString>
    317a:	64 96       	adiw	r28, 0x14	; 20
    317c:	0f b6       	in	r0, 0x3f	; 63
    317e:	f8 94       	cli
    3180:	de bf       	out	0x3e, r29	; 62
    3182:	0f be       	out	0x3f, r0	; 63
    3184:	cd bf       	out	0x3d, r28	; 61
    3186:	df 91       	pop	r29
    3188:	cf 91       	pop	r28
    318a:	1f 91       	pop	r17
    318c:	0f 91       	pop	r16
    318e:	ff 90       	pop	r15
    3190:	ef 90       	pop	r14
    3192:	df 90       	pop	r13
    3194:	bf 90       	pop	r11
    3196:	af 90       	pop	r10
    3198:	9f 90       	pop	r9
    319a:	8f 90       	pop	r8
    319c:	08 95       	ret

0000319e <freeMemoryUpdate>:
//			to ADD or REMOVE clusters occupied by the file
//Arguments: #1.flag ADD or REMOVE #2.file size in Bytes
//return: none
//********************************************************************
void freeMemoryUpdate (unsigned char flag, unsigned long size)
{
    319e:	cf 92       	push	r12
    31a0:	df 92       	push	r13
    31a2:	ef 92       	push	r14
    31a4:	ff 92       	push	r15
    31a6:	cf 93       	push	r28
  unsigned long freeClusters;
  //convert file size into number of clusters occupied
  if((size % 512) == 0) size = size / 512;
    31a8:	6a 01       	movw	r12, r20
    31aa:	7b 01       	movw	r14, r22
    31ac:	91 e0       	ldi	r25, 0x01	; 1
    31ae:	d9 22       	and	r13, r25
    31b0:	ee 24       	eor	r14, r14
    31b2:	ff 24       	eor	r15, r15
    31b4:	cd 28       	or	r12, r13
    31b6:	ce 28       	or	r12, r14
    31b8:	cf 28       	or	r12, r15
    31ba:	51 f4       	brne	.+20     	; 0x31d0 <freeMemoryUpdate+0x32>
    31bc:	03 2e       	mov	r0, r19
    31be:	39 e0       	ldi	r19, 0x09	; 9
    31c0:	76 95       	lsr	r23
    31c2:	67 95       	ror	r22
    31c4:	57 95       	ror	r21
    31c6:	47 95       	ror	r20
    31c8:	3a 95       	dec	r19
    31ca:	d1 f7       	brne	.-12     	; 0x31c0 <freeMemoryUpdate+0x22>
    31cc:	30 2d       	mov	r19, r0
    31ce:	0d c0       	rjmp	.+26     	; 0x31ea <freeMemoryUpdate+0x4c>
  else size = (size / 512) +1;
    31d0:	03 2e       	mov	r0, r19
    31d2:	39 e0       	ldi	r19, 0x09	; 9
    31d4:	76 95       	lsr	r23
    31d6:	67 95       	ror	r22
    31d8:	57 95       	ror	r21
    31da:	47 95       	ror	r20
    31dc:	3a 95       	dec	r19
    31de:	d1 f7       	brne	.-12     	; 0x31d4 <freeMemoryUpdate+0x36>
    31e0:	30 2d       	mov	r19, r0
    31e2:	4f 5f       	subi	r20, 0xFF	; 255
    31e4:	5f 4f       	sbci	r21, 0xFF	; 255
    31e6:	6f 4f       	sbci	r22, 0xFF	; 255
    31e8:	7f 4f       	sbci	r23, 0xFF	; 255
  if((size % 8) == 0) size = size / 8;
    31ea:	6a 01       	movw	r12, r20
    31ec:	7b 01       	movw	r14, r22
    31ee:	97 e0       	ldi	r25, 0x07	; 7
    31f0:	c9 22       	and	r12, r25
    31f2:	dd 24       	eor	r13, r13
    31f4:	ee 24       	eor	r14, r14
    31f6:	ff 24       	eor	r15, r15
    31f8:	cd 28       	or	r12, r13
    31fa:	ce 28       	or	r12, r14
    31fc:	cf 28       	or	r12, r15
    31fe:	59 f4       	brne	.+22     	; 0x3216 <freeMemoryUpdate+0x78>
    3200:	6a 01       	movw	r12, r20
    3202:	7b 01       	movw	r14, r22
    3204:	68 94       	set
    3206:	12 f8       	bld	r1, 2
    3208:	f6 94       	lsr	r15
    320a:	e7 94       	ror	r14
    320c:	d7 94       	ror	r13
    320e:	c7 94       	ror	r12
    3210:	16 94       	lsr	r1
    3212:	d1 f7       	brne	.-12     	; 0x3208 <freeMemoryUpdate+0x6a>
    3214:	0f c0       	rjmp	.+30     	; 0x3234 <freeMemoryUpdate+0x96>
  else size = (size / 8) +1;
    3216:	68 94       	set
    3218:	12 f8       	bld	r1, 2
    321a:	76 95       	lsr	r23
    321c:	67 95       	ror	r22
    321e:	57 95       	ror	r21
    3220:	47 95       	ror	r20
    3222:	16 94       	lsr	r1
    3224:	d1 f7       	brne	.-12     	; 0x321a <freeMemoryUpdate+0x7c>
    3226:	6a 01       	movw	r12, r20
    3228:	7b 01       	movw	r14, r22
    322a:	9f ef       	ldi	r25, 0xFF	; 255
    322c:	c9 1a       	sub	r12, r25
    322e:	d9 0a       	sbc	r13, r25
    3230:	e9 0a       	sbc	r14, r25
    3232:	f9 0a       	sbc	r15, r25

  if(freeClusterCountUpdated)
    3234:	90 91 48 0f 	lds	r25, 0x0F48	; 0x800f48 <freeClusterCountUpdated>
    3238:	99 23       	and	r25, r25
    323a:	c9 f0       	breq	.+50     	; 0x326e <freeMemoryUpdate+0xd0>
    323c:	c8 2f       	mov	r28, r24
  {
	freeClusters = getSetFreeCluster (TOTAL_FREE, GET, 0);
    323e:	20 e0       	ldi	r18, 0x00	; 0
    3240:	30 e0       	ldi	r19, 0x00	; 0
    3242:	a9 01       	movw	r20, r18
    3244:	60 e0       	ldi	r22, 0x00	; 0
    3246:	81 e0       	ldi	r24, 0x01	; 1
    3248:	c5 dc       	rcall	.-1654   	; 0x2bd4 <getSetFreeCluster>
	if(flag == ADD)
    324a:	c1 11       	cpse	r28, r1
    324c:	07 c0       	rjmp	.+14     	; 0x325c <freeMemoryUpdate+0xbe>
  	   freeClusters = freeClusters + size;
    324e:	a7 01       	movw	r20, r14
    3250:	96 01       	movw	r18, r12
    3252:	26 0f       	add	r18, r22
    3254:	37 1f       	adc	r19, r23
    3256:	48 1f       	adc	r20, r24
    3258:	59 1f       	adc	r21, r25
    325a:	06 c0       	rjmp	.+12     	; 0x3268 <freeMemoryUpdate+0xca>
	else  //when flag = REMOVE
	   freeClusters = freeClusters - size;
    325c:	9b 01       	movw	r18, r22
    325e:	ac 01       	movw	r20, r24
    3260:	2c 19       	sub	r18, r12
    3262:	3d 09       	sbc	r19, r13
    3264:	4e 09       	sbc	r20, r14
    3266:	5f 09       	sbc	r21, r15
	getSetFreeCluster (TOTAL_FREE, SET, freeClusters);
    3268:	61 e0       	ldi	r22, 0x01	; 1
    326a:	81 e0       	ldi	r24, 0x01	; 1
    326c:	b3 dc       	rcall	.-1690   	; 0x2bd4 <getSetFreeCluster>
  }
}
    326e:	cf 91       	pop	r28
    3270:	ff 90       	pop	r15
    3272:	ef 90       	pop	r14
    3274:	df 90       	pop	r13
    3276:	cf 90       	pop	r12
    3278:	08 95       	ret

0000327a <findFiles>:
//return: first cluster of the file, if flag = GET_FILE
//        print file/dir list of the root directory, if flag = GET_LIST
//		  Delete the file mentioned in arg#2, if flag = DELETE
//****************************************************************************
struct dir_Structure* findFiles (unsigned char flag, unsigned char *fileName)
{
    327a:	2f 92       	push	r2
    327c:	3f 92       	push	r3
    327e:	4f 92       	push	r4
    3280:	5f 92       	push	r5
    3282:	6f 92       	push	r6
    3284:	7f 92       	push	r7
    3286:	8f 92       	push	r8
    3288:	9f 92       	push	r9
    328a:	af 92       	push	r10
    328c:	bf 92       	push	r11
    328e:	cf 92       	push	r12
    3290:	df 92       	push	r13
    3292:	ef 92       	push	r14
    3294:	ff 92       	push	r15
    3296:	0f 93       	push	r16
    3298:	1f 93       	push	r17
    329a:	cf 93       	push	r28
    329c:	df 93       	push	r29
    329e:	cd b7       	in	r28, 0x3d	; 61
    32a0:	de b7       	in	r29, 0x3e	; 62
    32a2:	2c 97       	sbiw	r28, 0x0c	; 12
    32a4:	0f b6       	in	r0, 0x3f	; 63
    32a6:	f8 94       	cli
    32a8:	de bf       	out	0x3e, r29	; 62
    32aa:	0f be       	out	0x3f, r0	; 63
    32ac:	cd bf       	out	0x3d, r28	; 61
    32ae:	8e 83       	std	Y+6, r24	; 0x06
    32b0:	1b 01       	movw	r2, r22
unsigned long cluster, sector, firstSector, firstCluster, nextCluster;
struct dir_Structure *dir;
unsigned int i;
unsigned char j;

cluster = rootCluster; //root cluster
    32b2:	80 91 06 09 	lds	r24, 0x0906	; 0x800906 <rootCluster>
    32b6:	90 91 07 09 	lds	r25, 0x0907	; 0x800907 <rootCluster+0x1>
    32ba:	a0 91 08 09 	lds	r26, 0x0908	; 0x800908 <rootCluster+0x2>
    32be:	b0 91 09 09 	lds	r27, 0x0909	; 0x800909 <rootCluster+0x3>
    32c2:	8f 83       	std	Y+7, r24	; 0x07
    32c4:	98 87       	std	Y+8, r25	; 0x08
    32c6:	a9 87       	std	Y+9, r26	; 0x09
    32c8:	ba 87       	std	Y+10, r27	; 0x0a
		      Uart_Transmit_IT_PC((char*)("N/F\r"));
		  return 0;   
		}
		if((dir->name[0] != DELETED) && (dir->attrib != ATTR_LONG_NAME))
        {
          if((flag == GET_FILE) || (flag == DELETE))
    32ca:	9e 81       	ldd	r25, Y+6	; 0x06
    32cc:	91 50       	subi	r25, 0x01	; 1
    32ce:	99 83       	std	Y+1, r25	; 0x01
			     Uart_Transmit_IT_PC ((char*)("FILE" ));
		         Uart_Transmit_IT_PC ((char*)("   "));
			     displayMemory (LOW, dir->fileSize);
			 }
			 else
			   Uart_Transmit_IT_PC ((char*)((dir->attrib == 0x10)? ("DIR") : ("ROOT")));
    32d0:	0f 2e       	mov	r0, r31
    32d2:	f8 ee       	ldi	r31, 0xE8	; 232
    32d4:	cf 2e       	mov	r12, r31
    32d6:	f5 e0       	ldi	r31, 0x05	; 5
    32d8:	df 2e       	mov	r13, r31
    32da:	f0 2d       	mov	r31, r0

cluster = rootCluster; //root cluster

while(1)
{
   firstSector = getFirstSector (cluster);
    32dc:	6f 81       	ldd	r22, Y+7	; 0x07
    32de:	78 85       	ldd	r23, Y+8	; 0x08
    32e0:	89 85       	ldd	r24, Y+9	; 0x09
    32e2:	9a 85       	ldd	r25, Y+10	; 0x0a
    32e4:	dd db       	rcall	.-2118   	; 0x2aa0 <getFirstSector>
    32e6:	4b 01       	movw	r8, r22
    32e8:	5c 01       	movw	r10, r24

   for(sector = 0; sector < sectorPerCluster; sector++)
    32ea:	80 91 14 0d 	lds	r24, 0x0D14	; 0x800d14 <sectorPerCluster>
    32ee:	90 91 15 0d 	lds	r25, 0x0D15	; 0x800d15 <sectorPerCluster+0x1>
    32f2:	89 2b       	or	r24, r25
    32f4:	09 f4       	brne	.+2      	; 0x32f8 <findFiles+0x7e>
    32f6:	6b c1       	rjmp	.+726    	; 0x35ce <findFiles+0x354>
    32f8:	41 2c       	mov	r4, r1
    32fa:	51 2c       	mov	r5, r1
    32fc:	32 01       	movw	r6, r4
   {
     SD_readSingleBlock (firstSector + sector);
    32fe:	d5 01       	movw	r26, r10
    3300:	c4 01       	movw	r24, r8
    3302:	84 0d       	add	r24, r4
    3304:	95 1d       	adc	r25, r5
    3306:	a6 1d       	adc	r26, r6
    3308:	b7 1d       	adc	r27, r7
    330a:	8a 83       	std	Y+2, r24	; 0x02
    330c:	9b 83       	std	Y+3, r25	; 0x03
    330e:	ac 83       	std	Y+4, r26	; 0x04
    3310:	bd 83       	std	Y+5, r27	; 0x05
    3312:	bc 01       	movw	r22, r24
    3314:	cd 01       	movw	r24, r26
    3316:	5c d7       	rcall	.+3768   	; 0x41d0 <SD_readSingleBlock>
	

     for(i=0; i<bytesPerSector; i+=32)
    3318:	80 91 f8 08 	lds	r24, 0x08F8	; 0x8008f8 <bytesPerSector>
    331c:	90 91 f9 08 	lds	r25, 0x08F9	; 0x8008f9 <bytesPerSector+0x1>
    3320:	89 2b       	or	r24, r25
    3322:	09 f4       	brne	.+2      	; 0x3326 <findFiles+0xac>
    3324:	43 c1       	rjmp	.+646    	; 0x35ac <findFiles+0x332>
     {
	    dir = (struct dir_Structure *) &buffer[i];

        if(dir->name[0] == EMPTY) //indicates end of the file list of the directory
    3326:	a3 e1       	ldi	r26, 0x13	; 19
    3328:	bb e0       	ldi	r27, 0x0B	; 11
    332a:	8c 91       	ld	r24, X
    332c:	88 23       	and	r24, r24
    332e:	51 f0       	breq	.+20     	; 0x3344 <findFiles+0xca>
    3330:	8d 01       	movw	r16, r26
    3332:	e1 2c       	mov	r14, r1
    3334:	f1 2c       	mov	r15, r1
    3336:	12 c0       	rjmp	.+36     	; 0x335c <findFiles+0xe2>
    3338:	00 5e       	subi	r16, 0xE0	; 224
    333a:	1f 4f       	sbci	r17, 0xFF	; 255
    333c:	f8 01       	movw	r30, r16
    333e:	80 81       	ld	r24, Z
    3340:	81 11       	cpse	r24, r1
    3342:	0c c0       	rjmp	.+24     	; 0x335c <findFiles+0xe2>
		{
		  if((flag == GET_FILE) || (flag == DELETE))
    3344:	8e 81       	ldd	r24, Y+6	; 0x06
    3346:	81 50       	subi	r24, 0x01	; 1
    3348:	82 30       	cpi	r24, 0x02	; 2
    334a:	08 f0       	brcs	.+2      	; 0x334e <findFiles+0xd4>
    334c:	5f c1       	rjmp	.+702    	; 0x360c <findFiles+0x392>
// 		      Uart_Transmit_IT_PC((char*)("File does not exist!"));
		      Uart_Transmit_IT_PC((char*)("N/F\r"));
    334e:	8d ee       	ldi	r24, 0xED	; 237
    3350:	95 e0       	ldi	r25, 0x05	; 5
    3352:	0e 94 e2 21 	call	0x43c4	; 0x43c4 <Uart_Transmit_IT_PC>
		  return 0;   
    3356:	80 e0       	ldi	r24, 0x00	; 0
    3358:	90 e0       	ldi	r25, 0x00	; 0
    335a:	5d c1       	rjmp	.+698    	; 0x3616 <findFiles+0x39c>
		}
		if((dir->name[0] != DELETED) && (dir->attrib != ATTR_LONG_NAME))
    335c:	85 3e       	cpi	r24, 0xE5	; 229
    335e:	09 f4       	brne	.+2      	; 0x3362 <findFiles+0xe8>
    3360:	1a c1       	rjmp	.+564    	; 0x3596 <findFiles+0x31c>
    3362:	d8 01       	movw	r26, r16
    3364:	1b 96       	adiw	r26, 0x0b	; 11
    3366:	8c 91       	ld	r24, X
    3368:	8f 30       	cpi	r24, 0x0F	; 15
    336a:	09 f4       	brne	.+2      	; 0x336e <findFiles+0xf4>
    336c:	14 c1       	rjmp	.+552    	; 0x3596 <findFiles+0x31c>
        {
          if((flag == GET_FILE) || (flag == DELETE))
    336e:	b9 81       	ldd	r27, Y+1	; 0x01
    3370:	b2 30       	cpi	r27, 0x02	; 2
    3372:	08 f0       	brcs	.+2      	; 0x3376 <findFiles+0xfc>
    3374:	c7 c0       	rjmp	.+398    	; 0x3504 <findFiles+0x28a>
          {
            for(j=0; j<11; j++)
            if(dir->name[j] != fileName[j]) break;
    3376:	f8 01       	movw	r30, r16
    3378:	90 81       	ld	r25, Z
    337a:	d1 01       	movw	r26, r2
    337c:	8c 91       	ld	r24, X
    337e:	98 13       	cpse	r25, r24
    3380:	0a c1       	rjmp	.+532    	; 0x3596 <findFiles+0x31c>
    3382:	d8 01       	movw	r26, r16
    3384:	11 96       	adiw	r26, 0x01	; 1
    3386:	f1 01       	movw	r30, r2
    3388:	31 96       	adiw	r30, 0x01	; 1
		}
		if((dir->name[0] != DELETED) && (dir->attrib != ATTR_LONG_NAME))
        {
          if((flag == GET_FILE) || (flag == DELETE))
          {
            for(j=0; j<11; j++)
    338a:	81 e0       	ldi	r24, 0x01	; 1
            if(dir->name[j] != fileName[j]) break;
    338c:	2d 91       	ld	r18, X+
    338e:	91 91       	ld	r25, Z+
    3390:	29 13       	cpse	r18, r25
    3392:	04 c0       	rjmp	.+8      	; 0x339c <findFiles+0x122>
		}
		if((dir->name[0] != DELETED) && (dir->attrib != ATTR_LONG_NAME))
        {
          if((flag == GET_FILE) || (flag == DELETE))
          {
            for(j=0; j<11; j++)
    3394:	8f 5f       	subi	r24, 0xFF	; 255
    3396:	8b 30       	cpi	r24, 0x0B	; 11
    3398:	c9 f7       	brne	.-14     	; 0x338c <findFiles+0x112>
    339a:	03 c0       	rjmp	.+6      	; 0x33a2 <findFiles+0x128>
            if(dir->name[j] != fileName[j]) break;
            if(j == 11)
    339c:	8b 30       	cpi	r24, 0x0B	; 11
    339e:	09 f0       	breq	.+2      	; 0x33a2 <findFiles+0x128>
    33a0:	fa c0       	rjmp	.+500    	; 0x3596 <findFiles+0x31c>
			{
			  if(flag == GET_FILE)
    33a2:	be 81       	ldd	r27, Y+6	; 0x06
    33a4:	b1 30       	cpi	r27, 0x01	; 1
    33a6:	09 f0       	breq	.+2      	; 0x33aa <findFiles+0x130>
    33a8:	41 c0       	rjmp	.+130    	; 0x342c <findFiles+0x1b2>
              {
			    appendFileSector = firstSector + sector;
    33aa:	8a 81       	ldd	r24, Y+2	; 0x02
    33ac:	9b 81       	ldd	r25, Y+3	; 0x03
    33ae:	ac 81       	ldd	r26, Y+4	; 0x04
    33b0:	bd 81       	ldd	r27, Y+5	; 0x05
    33b2:	80 93 4b 0f 	sts	0x0F4B, r24	; 0x800f4b <appendFileSector>
    33b6:	90 93 4c 0f 	sts	0x0F4C, r25	; 0x800f4c <appendFileSector+0x1>
    33ba:	a0 93 4d 0f 	sts	0x0F4D, r26	; 0x800f4d <appendFileSector+0x2>
    33be:	b0 93 4e 0f 	sts	0x0F4E, r27	; 0x800f4e <appendFileSector+0x3>
				appendFileLocation = i;
    33c2:	c7 01       	movw	r24, r14
    33c4:	a0 e0       	ldi	r26, 0x00	; 0
    33c6:	b0 e0       	ldi	r27, 0x00	; 0
    33c8:	80 93 dd 08 	sts	0x08DD, r24	; 0x8008dd <appendFileLocation>
    33cc:	90 93 de 08 	sts	0x08DE, r25	; 0x8008de <appendFileLocation+0x1>
    33d0:	a0 93 df 08 	sts	0x08DF, r26	; 0x8008df <appendFileLocation+0x2>
    33d4:	b0 93 e0 08 	sts	0x08E0, r27	; 0x8008e0 <appendFileLocation+0x3>
				appendStartCluster = (((unsigned long) dir->firstClusterHI) << 16) | dir->firstClusterLO;
    33d8:	d8 01       	movw	r26, r16
    33da:	54 96       	adiw	r26, 0x14	; 20
    33dc:	8d 91       	ld	r24, X+
    33de:	9c 91       	ld	r25, X
    33e0:	55 97       	sbiw	r26, 0x15	; 21
    33e2:	a0 e0       	ldi	r26, 0x00	; 0
    33e4:	b0 e0       	ldi	r27, 0x00	; 0
    33e6:	dc 01       	movw	r26, r24
    33e8:	99 27       	eor	r25, r25
    33ea:	88 27       	eor	r24, r24
    33ec:	f8 01       	movw	r30, r16
    33ee:	42 8d       	ldd	r20, Z+26	; 0x1a
    33f0:	53 8d       	ldd	r21, Z+27	; 0x1b
    33f2:	60 e0       	ldi	r22, 0x00	; 0
    33f4:	70 e0       	ldi	r23, 0x00	; 0
    33f6:	84 2b       	or	r24, r20
    33f8:	95 2b       	or	r25, r21
    33fa:	a6 2b       	or	r26, r22
    33fc:	b7 2b       	or	r27, r23
    33fe:	80 93 3e 0f 	sts	0x0F3E, r24	; 0x800f3e <appendStartCluster>
    3402:	90 93 3f 0f 	sts	0x0F3F, r25	; 0x800f3f <appendStartCluster+0x1>
    3406:	a0 93 40 0f 	sts	0x0F40, r26	; 0x800f40 <appendStartCluster+0x2>
    340a:	b0 93 41 0f 	sts	0x0F41, r27	; 0x800f41 <appendStartCluster+0x3>
				fileSize = dir->fileSize;
    340e:	84 8d       	ldd	r24, Z+28	; 0x1c
    3410:	95 8d       	ldd	r25, Z+29	; 0x1d
    3412:	a6 8d       	ldd	r26, Z+30	; 0x1e
    3414:	b7 8d       	ldd	r27, Z+31	; 0x1f
    3416:	80 93 f4 08 	sts	0x08F4, r24	; 0x8008f4 <fileSize>
    341a:	90 93 f5 08 	sts	0x08F5, r25	; 0x8008f5 <fileSize+0x1>
    341e:	a0 93 f6 08 	sts	0x08F6, r26	; 0x8008f6 <fileSize+0x2>
    3422:	b0 93 f7 08 	sts	0x08F7, r27	; 0x8008f7 <fileSize+0x3>
			    return (dir);
    3426:	80 2f       	mov	r24, r16
    3428:	91 2f       	mov	r25, r17
    342a:	f5 c0       	rjmp	.+490    	; 0x3616 <findFiles+0x39c>
			  }	
			  else    //when flag = DELETE
			  {
			     TX_NEWLINE;
    342c:	8d e0       	ldi	r24, 0x0D	; 13
    342e:	0e 94 49 23 	call	0x4692	; 0x4692 <transmitByte>
    3432:	8a e0       	ldi	r24, 0x0A	; 10
    3434:	0e 94 49 23 	call	0x4692	; 0x4692 <transmitByte>
				 Uart_Transmit_IT_PC((char*)("Deleting.."));
    3438:	82 ef       	ldi	r24, 0xF2	; 242
    343a:	95 e0       	ldi	r25, 0x05	; 5
    343c:	c3 d7       	rcall	.+3974   	; 0x43c4 <Uart_Transmit_IT_PC>
				 TX_NEWLINE;
    343e:	8d e0       	ldi	r24, 0x0D	; 13
    3440:	0e 94 49 23 	call	0x4692	; 0x4692 <transmitByte>
    3444:	8a e0       	ldi	r24, 0x0A	; 10
    3446:	0e 94 49 23 	call	0x4692	; 0x4692 <transmitByte>
				 TX_NEWLINE;
    344a:	8d e0       	ldi	r24, 0x0D	; 13
    344c:	0e 94 49 23 	call	0x4692	; 0x4692 <transmitByte>
    3450:	8a e0       	ldi	r24, 0x0A	; 10
    3452:	0e 94 49 23 	call	0x4692	; 0x4692 <transmitByte>
				 firstCluster = (((unsigned long) dir->firstClusterHI) << 16) | dir->firstClusterLO;
    3456:	d8 01       	movw	r26, r16
    3458:	54 96       	adiw	r26, 0x14	; 20
    345a:	cd 90       	ld	r12, X+
    345c:	dc 90       	ld	r13, X
    345e:	55 97       	sbiw	r26, 0x15	; 21
    3460:	e1 2c       	mov	r14, r1
    3462:	f1 2c       	mov	r15, r1
    3464:	d6 01       	movw	r26, r12
    3466:	99 27       	eor	r25, r25
    3468:	88 27       	eor	r24, r24
    346a:	f8 01       	movw	r30, r16
    346c:	c2 8c       	ldd	r12, Z+26	; 0x1a
    346e:	d3 8c       	ldd	r13, Z+27	; 0x1b
    3470:	e1 2c       	mov	r14, r1
    3472:	f1 2c       	mov	r15, r1
    3474:	c8 2a       	or	r12, r24
    3476:	d9 2a       	or	r13, r25
    3478:	ea 2a       	or	r14, r26
    347a:	fb 2a       	or	r15, r27
                
				 //mark file as 'deleted' in FAT table
				 dir->name[0] = DELETED;    
    347c:	85 ee       	ldi	r24, 0xE5	; 229
    347e:	80 83       	st	Z, r24
				 SD_writeSingleBlock (firstSector+sector);
    3480:	6a 81       	ldd	r22, Y+2	; 0x02
    3482:	7b 81       	ldd	r23, Y+3	; 0x03
    3484:	8c 81       	ldd	r24, Y+4	; 0x04
    3486:	9d 81       	ldd	r25, Y+5	; 0x05
    3488:	cb d6       	rcall	.+3478   	; 0x4220 <SD_writeSingleBlock>
				 			 
				 freeMemoryUpdate (ADD, dir->fileSize);
    348a:	d8 01       	movw	r26, r16
    348c:	5c 96       	adiw	r26, 0x1c	; 28
    348e:	4d 91       	ld	r20, X+
    3490:	5d 91       	ld	r21, X+
    3492:	6d 91       	ld	r22, X+
    3494:	7c 91       	ld	r23, X
    3496:	5f 97       	sbiw	r26, 0x1f	; 31
    3498:	80 e0       	ldi	r24, 0x00	; 0
    349a:	81 de       	rcall	.-766    	; 0x319e <freeMemoryUpdate>

				 //update next free cluster entry in FSinfo sector
				 cluster = getSetFreeCluster (NEXT_FREE, GET, 0); 
    349c:	20 e0       	ldi	r18, 0x00	; 0
    349e:	30 e0       	ldi	r19, 0x00	; 0
    34a0:	a9 01       	movw	r20, r18
    34a2:	60 e0       	ldi	r22, 0x00	; 0
    34a4:	82 e0       	ldi	r24, 0x02	; 2
    34a6:	96 db       	rcall	.-2260   	; 0x2bd4 <getSetFreeCluster>
				 if(firstCluster < cluster)
    34a8:	c6 16       	cp	r12, r22
    34aa:	d7 06       	cpc	r13, r23
    34ac:	e8 06       	cpc	r14, r24
    34ae:	f9 06       	cpc	r15, r25
				     getSetFreeCluster (NEXT_FREE, SET, firstCluster);
    34b0:	28 f4       	brcc	.+10     	; 0x34bc <findFiles+0x242>
    34b2:	a7 01       	movw	r20, r14
    34b4:	96 01       	movw	r18, r12
    34b6:	61 e0       	ldi	r22, 0x01	; 1
    34b8:	82 e0       	ldi	r24, 0x02	; 2
    34ba:	8c db       	rcall	.-2280   	; 0x2bd4 <getSetFreeCluster>

				 //mark all the clusters allocated to the file as 'free'
			     while(1)  
			     {
			        nextCluster = getSetNextCluster (firstCluster, GET, 0);
    34bc:	00 e0       	ldi	r16, 0x00	; 0
    34be:	10 e0       	ldi	r17, 0x00	; 0
    34c0:	98 01       	movw	r18, r16
    34c2:	40 e0       	ldi	r20, 0x00	; 0
    34c4:	c7 01       	movw	r24, r14
    34c6:	b6 01       	movw	r22, r12
    34c8:	0c db       	rcall	.-2536   	; 0x2ae2 <getSetNextCluster>
    34ca:	a6 2e       	mov	r10, r22
    34cc:	b7 2e       	mov	r11, r23
    34ce:	8a 83       	std	Y+2, r24	; 0x02
    34d0:	99 83       	std	Y+1, r25	; 0x01
					getSetNextCluster (firstCluster, SET, 0);
    34d2:	00 e0       	ldi	r16, 0x00	; 0
    34d4:	10 e0       	ldi	r17, 0x00	; 0
    34d6:	98 01       	movw	r18, r16
    34d8:	41 e0       	ldi	r20, 0x01	; 1
    34da:	c7 01       	movw	r24, r14
    34dc:	b6 01       	movw	r22, r12
    34de:	01 db       	rcall	.-2558   	; 0x2ae2 <getSetNextCluster>
    34e0:	ca 2c       	mov	r12, r10
					if(nextCluster > 0x0ffffff6) 
					   {Uart_Transmit_IT_PC((char*)("File deleted!"));return 0;}
					firstCluster = nextCluster;
    34e2:	db 2c       	mov	r13, r11
    34e4:	ea 80       	ldd	r14, Y+2	; 0x02
    34e6:	f9 80       	ldd	r15, Y+1	; 0x01
    34e8:	b7 ef       	ldi	r27, 0xF7	; 247
				 //mark all the clusters allocated to the file as 'free'
			     while(1)  
			     {
			        nextCluster = getSetNextCluster (firstCluster, GET, 0);
					getSetNextCluster (firstCluster, SET, 0);
					if(nextCluster > 0x0ffffff6) 
    34ea:	cb 16       	cp	r12, r27
    34ec:	bf ef       	ldi	r27, 0xFF	; 255
    34ee:	db 06       	cpc	r13, r27
    34f0:	eb 06       	cpc	r14, r27
    34f2:	bf e0       	ldi	r27, 0x0F	; 15
    34f4:	fb 06       	cpc	r15, r27
    34f6:	10 f3       	brcs	.-60     	; 0x34bc <findFiles+0x242>
					   {Uart_Transmit_IT_PC((char*)("File deleted!"));return 0;}
    34f8:	8d ef       	ldi	r24, 0xFD	; 253
    34fa:	95 e0       	ldi	r25, 0x05	; 5
    34fc:	63 d7       	rcall	.+3782   	; 0x43c4 <Uart_Transmit_IT_PC>
    34fe:	80 e0       	ldi	r24, 0x00	; 0
    3500:	90 e0       	ldi	r25, 0x00	; 0
    3502:	89 c0       	rjmp	.+274    	; 0x3616 <findFiles+0x39c>
    3504:	8d e0       	ldi	r24, 0x0D	; 13
			  }
            }
          }
          else  //when flag = GET_LIST
		  {
		     TX_NEWLINE;
    3506:	0e 94 49 23 	call	0x4692	; 0x4692 <transmitByte>
    350a:	8a e0       	ldi	r24, 0x0A	; 10
    350c:	0e 94 49 23 	call	0x4692	; 0x4692 <transmitByte>
    3510:	e1 e0       	ldi	r30, 0x01	; 1
    3512:	1b 86       	std	Y+11, r1	; 0x0b
    3514:	ec 87       	std	Y+12, r30	; 0x0c
    3516:	06 c0       	rjmp	.+12     	; 0x3524 <findFiles+0x2aa>
    3518:	2b 85       	ldd	r18, Y+11	; 0x0b
    351a:	2f 5f       	subi	r18, 0xFF	; 255
    351c:	2b 87       	std	Y+11, r18	; 0x0b
    351e:	3c 85       	ldd	r19, Y+12	; 0x0c
    3520:	3f 5f       	subi	r19, 0xFF	; 255
    3522:	3c 87       	std	Y+12, r19	; 0x0c
    3524:	8b 85       	ldd	r24, Y+11	; 0x0b
			 for(j=0; j<11; j++)
		     {
			   if(j == 8) transmitByte(' ');
    3526:	88 30       	cpi	r24, 0x08	; 8
    3528:	59 f4       	brne	.+22     	; 0x3540 <findFiles+0x2c6>
    352a:	80 e2       	ldi	r24, 0x20	; 32
    352c:	0e 94 49 23 	call	0x4692	; 0x4692 <transmitByte>
    3530:	f8 01       	movw	r30, r16
			   transmitByte (dir->name[j]);
    3532:	9b 85       	ldd	r25, Y+11	; 0x0b
    3534:	e9 0f       	add	r30, r25
    3536:	f1 1d       	adc	r31, r1
    3538:	80 81       	ld	r24, Z
    353a:	0e 94 49 23 	call	0x4692	; 0x4692 <transmitByte>
    353e:	ec cf       	rjmp	.-40     	; 0x3518 <findFiles+0x29e>
    3540:	f8 01       	movw	r30, r16
    3542:	ab 85       	ldd	r26, Y+11	; 0x0b
    3544:	ea 0f       	add	r30, r26
    3546:	f1 1d       	adc	r31, r1
    3548:	80 81       	ld	r24, Z
    354a:	0e 94 49 23 	call	0x4692	; 0x4692 <transmitByte>
            }
          }
          else  //when flag = GET_LIST
		  {
		     TX_NEWLINE;
			 for(j=0; j<11; j++)
    354e:	bc 85       	ldd	r27, Y+12	; 0x0c
    3550:	bb 30       	cpi	r27, 0x0B	; 11
    3552:	10 f3       	brcs	.-60     	; 0x3518 <findFiles+0x29e>
		     {
			   if(j == 8) transmitByte(' ');
			   transmitByte (dir->name[j]);
			 }
		     Uart_Transmit_IT_PC ((char*)("   "));
    3554:	8b e0       	ldi	r24, 0x0B	; 11
    3556:	96 e0       	ldi	r25, 0x06	; 6
    3558:	35 d7       	rcall	.+3690   	; 0x43c4 <Uart_Transmit_IT_PC>
		     if((dir->attrib != 0x10) && (dir->attrib != 0x08))
    355a:	f8 01       	movw	r30, r16
    355c:	83 85       	ldd	r24, Z+11	; 0x0b
    355e:	80 31       	cpi	r24, 0x10	; 16
    3560:	91 f0       	breq	.+36     	; 0x3586 <findFiles+0x30c>
    3562:	88 30       	cpi	r24, 0x08	; 8
			 {
			     Uart_Transmit_IT_PC ((char*)("FILE" ));
    3564:	a9 f0       	breq	.+42     	; 0x3590 <findFiles+0x316>
    3566:	8f e0       	ldi	r24, 0x0F	; 15
    3568:	96 e0       	ldi	r25, 0x06	; 6
    356a:	2c d7       	rcall	.+3672   	; 0x43c4 <Uart_Transmit_IT_PC>
		         Uart_Transmit_IT_PC ((char*)("   "));
    356c:	8b e0       	ldi	r24, 0x0B	; 11
    356e:	96 e0       	ldi	r25, 0x06	; 6
    3570:	29 d7       	rcall	.+3666   	; 0x43c4 <Uart_Transmit_IT_PC>
			     displayMemory (LOW, dir->fileSize);
    3572:	d8 01       	movw	r26, r16
    3574:	5c 96       	adiw	r26, 0x1c	; 28
    3576:	4d 91       	ld	r20, X+
    3578:	5d 91       	ld	r21, X+
    357a:	6d 91       	ld	r22, X+
    357c:	7c 91       	ld	r23, X
    357e:	5f 97       	sbiw	r26, 0x1f	; 31
    3580:	80 e0       	ldi	r24, 0x00	; 0
    3582:	ac dd       	rcall	.-1192   	; 0x30dc <displayMemory>
    3584:	08 c0       	rjmp	.+16     	; 0x3596 <findFiles+0x31c>
			 }
			 else
			   Uart_Transmit_IT_PC ((char*)((dir->attrib == 0x10)? ("DIR") : ("ROOT")));
    3586:	e4 ee       	ldi	r30, 0xE4	; 228
    3588:	f5 e0       	ldi	r31, 0x05	; 5
    358a:	8e 2f       	mov	r24, r30
    358c:	9f 2f       	mov	r25, r31
    358e:	02 c0       	rjmp	.+4      	; 0x3594 <findFiles+0x31a>
    3590:	8c 2d       	mov	r24, r12
    3592:	9d 2d       	mov	r25, r13
    3594:	17 d7       	rcall	.+3630   	; 0x43c4 <Uart_Transmit_IT_PC>
    3596:	f0 e2       	ldi	r31, 0x20	; 32
   for(sector = 0; sector < sectorPerCluster; sector++)
   {
     SD_readSingleBlock (firstSector + sector);
	

     for(i=0; i<bytesPerSector; i+=32)
    3598:	ef 0e       	add	r14, r31
    359a:	f1 1c       	adc	r15, r1
    359c:	80 91 f8 08 	lds	r24, 0x08F8	; 0x8008f8 <bytesPerSector>
    35a0:	90 91 f9 08 	lds	r25, 0x08F9	; 0x8008f9 <bytesPerSector+0x1>
    35a4:	e8 16       	cp	r14, r24
    35a6:	f9 06       	cpc	r15, r25
    35a8:	08 f4       	brcc	.+2      	; 0x35ac <findFiles+0x332>
    35aa:	c6 ce       	rjmp	.-628    	; 0x3338 <findFiles+0xbe>
    35ac:	2f ef       	ldi	r18, 0xFF	; 255

while(1)
{
   firstSector = getFirstSector (cluster);

   for(sector = 0; sector < sectorPerCluster; sector++)
    35ae:	42 1a       	sub	r4, r18
    35b0:	52 0a       	sbc	r5, r18
    35b2:	62 0a       	sbc	r6, r18
    35b4:	72 0a       	sbc	r7, r18
    35b6:	80 91 14 0d 	lds	r24, 0x0D14	; 0x800d14 <sectorPerCluster>
    35ba:	90 91 15 0d 	lds	r25, 0x0D15	; 0x800d15 <sectorPerCluster+0x1>
    35be:	a0 e0       	ldi	r26, 0x00	; 0
    35c0:	b0 e0       	ldi	r27, 0x00	; 0
    35c2:	48 16       	cp	r4, r24
    35c4:	59 06       	cpc	r5, r25
    35c6:	6a 06       	cpc	r6, r26
    35c8:	7b 06       	cpc	r7, r27
    35ca:	08 f4       	brcc	.+2      	; 0x35ce <findFiles+0x354>
    35cc:	98 ce       	rjmp	.-720    	; 0x32fe <findFiles+0x84>
		  }
       }
     }
   }

   cluster = (getSetNextCluster (cluster, GET, 0));
    35ce:	00 e0       	ldi	r16, 0x00	; 0
    35d0:	10 e0       	ldi	r17, 0x00	; 0
    35d2:	98 01       	movw	r18, r16
    35d4:	40 e0       	ldi	r20, 0x00	; 0
    35d6:	6f 81       	ldd	r22, Y+7	; 0x07
    35d8:	78 85       	ldd	r23, Y+8	; 0x08
    35da:	89 85       	ldd	r24, Y+9	; 0x09
    35dc:	9a 85       	ldd	r25, Y+10	; 0x0a
    35de:	81 da       	rcall	.-2814   	; 0x2ae2 <getSetNextCluster>
    35e0:	6f 83       	std	Y+7, r22	; 0x07
    35e2:	78 87       	std	Y+8, r23	; 0x08
    35e4:	89 87       	std	Y+9, r24	; 0x09
    35e6:	9a 87       	std	Y+10, r25	; 0x0a

   if(cluster > 0x0ffffff6)
    35e8:	67 3f       	cpi	r22, 0xF7	; 247
    35ea:	3f ef       	ldi	r19, 0xFF	; 255
    35ec:	73 07       	cpc	r23, r19
    35ee:	83 07       	cpc	r24, r19
    35f0:	3f e0       	ldi	r19, 0x0F	; 15
    35f2:	93 07       	cpc	r25, r19
    35f4:	70 f4       	brcc	.+28     	; 0x3612 <findFiles+0x398>
   	 return 0;
   if(cluster == 0) 
    35f6:	67 2b       	or	r22, r23
    35f8:	68 2b       	or	r22, r24
    35fa:	69 2b       	or	r22, r25
    35fc:	09 f0       	breq	.+2      	; 0x3600 <findFiles+0x386>
    35fe:	6e ce       	rjmp	.-804    	; 0x32dc <findFiles+0x62>
   {Uart_Transmit_IT_PC((char*)("Error in getting cluster"));  return 0;}
    3600:	84 e1       	ldi	r24, 0x14	; 20
    3602:	96 e0       	ldi	r25, 0x06	; 6
    3604:	df d6       	rcall	.+3518   	; 0x43c4 <Uart_Transmit_IT_PC>
    3606:	80 e0       	ldi	r24, 0x00	; 0
    3608:	90 e0       	ldi	r25, 0x00	; 0
    360a:	05 c0       	rjmp	.+10     	; 0x3616 <findFiles+0x39c>
    360c:	80 e0       	ldi	r24, 0x00	; 0
        if(dir->name[0] == EMPTY) //indicates end of the file list of the directory
		{
		  if((flag == GET_FILE) || (flag == DELETE))
// 		      Uart_Transmit_IT_PC((char*)("File does not exist!"));
		      Uart_Transmit_IT_PC((char*)("N/F\r"));
		  return 0;   
    360e:	90 e0       	ldi	r25, 0x00	; 0
    3610:	02 c0       	rjmp	.+4      	; 0x3616 <findFiles+0x39c>
    3612:	80 e0       	ldi	r24, 0x00	; 0
   }

   cluster = (getSetNextCluster (cluster, GET, 0));

   if(cluster > 0x0ffffff6)
   	 return 0;
    3614:	90 e0       	ldi	r25, 0x00	; 0
    3616:	2c 96       	adiw	r28, 0x0c	; 12
   if(cluster == 0) 
   {Uart_Transmit_IT_PC((char*)("Error in getting cluster"));  return 0;}
 }
return 0;
}
    3618:	0f b6       	in	r0, 0x3f	; 63
    361a:	f8 94       	cli
    361c:	de bf       	out	0x3e, r29	; 62
    361e:	0f be       	out	0x3f, r0	; 63
    3620:	cd bf       	out	0x3d, r28	; 61
    3622:	df 91       	pop	r29
    3624:	cf 91       	pop	r28
    3626:	1f 91       	pop	r17
    3628:	0f 91       	pop	r16
    362a:	ff 90       	pop	r15
    362c:	ef 90       	pop	r14
    362e:	df 90       	pop	r13
    3630:	cf 90       	pop	r12
    3632:	bf 90       	pop	r11
    3634:	af 90       	pop	r10
    3636:	9f 90       	pop	r9
    3638:	8f 90       	pop	r8
    363a:	7f 90       	pop	r7
    363c:	6f 90       	pop	r6
    363e:	5f 90       	pop	r5
    3640:	4f 90       	pop	r4
    3642:	3f 90       	pop	r3
    3644:	2f 90       	pop	r2
    3646:	08 95       	ret

00003648 <readFile>:
    3648:	4f 92       	push	r4
//return: 0, if normal operation or flag is READ
//	      1, if file is already existing and flag = VERIFY
//		  2, if file name is incompatible
//***************************************************************************
unsigned char readFile (unsigned char flag, unsigned char *fileName)
{
    364a:	5f 92       	push	r5
    364c:	6f 92       	push	r6
    364e:	7f 92       	push	r7
    3650:	8f 92       	push	r8
    3652:	9f 92       	push	r9
    3654:	af 92       	push	r10
    3656:	bf 92       	push	r11
    3658:	cf 92       	push	r12
    365a:	df 92       	push	r13
    365c:	ef 92       	push	r14
    365e:	ff 92       	push	r15
    3660:	0f 93       	push	r16
    3662:	1f 93       	push	r17
    3664:	cf 93       	push	r28
    3666:	df 93       	push	r29
    3668:	cd b7       	in	r28, 0x3d	; 61
    366a:	de b7       	in	r29, 0x3e	; 62
    366c:	29 97       	sbiw	r28, 0x09	; 9
    366e:	0f b6       	in	r0, 0x3f	; 63
    3670:	f8 94       	cli
    3672:	de bf       	out	0x3e, r29	; 62
    3674:	0f be       	out	0x3f, r0	; 63
    3676:	cd bf       	out	0x3d, r28	; 61
    3678:	89 83       	std	Y+1, r24	; 0x01
    367a:	7b 01       	movw	r14, r22
struct dir_Structure *dir;
unsigned long cluster, byteCounter = 0, fileSize, firstSector;
unsigned int k;
unsigned char j, error;

error = convertFileName (fileName); //convert fileName into FAT format
    367c:	cb 01       	movw	r24, r22
    367e:	fc db       	rcall	.-2056   	; 0x2e78 <convertFileName>
if(error) return 2;
    3680:	81 11       	cpse	r24, r1
    3682:	9c c0       	rjmp	.+312    	; 0x37bc <readFile+0x174>

dir = findFiles (GET_FILE, fileName); //get the file location
    3684:	b7 01       	movw	r22, r14
    3686:	81 e0       	ldi	r24, 0x01	; 1
    3688:	f8 dd       	rcall	.-1040   	; 0x327a <findFiles>
if(dir == 0) 
    368a:	00 97       	sbiw	r24, 0x00	; 0
    368c:	09 f4       	brne	.+2      	; 0x3690 <readFile+0x48>
    368e:	98 c0       	rjmp	.+304    	; 0x37c0 <readFile+0x178>
  return (0);

if(flag == VERIFY) return (1);	//specified file name is already existing
    3690:	09 81       	ldd	r16, Y+1	; 0x01
    3692:	01 30       	cpi	r16, 0x01	; 1
    3694:	09 f4       	brne	.+2      	; 0x3698 <readFile+0x50>
    3696:	96 c0       	rjmp	.+300    	; 0x37c4 <readFile+0x17c>

cluster = (((unsigned long) dir->firstClusterHI) << 16) | dir->firstClusterLO;
    3698:	dc 01       	movw	r26, r24
    369a:	54 96       	adiw	r26, 0x14	; 20
    369c:	4d 91       	ld	r20, X+
    369e:	5c 91       	ld	r21, X
    36a0:	55 97       	sbiw	r26, 0x15	; 21
    36a2:	60 e0       	ldi	r22, 0x00	; 0
    36a4:	70 e0       	ldi	r23, 0x00	; 0
    36a6:	ba 01       	movw	r22, r20
    36a8:	55 27       	eor	r21, r21
    36aa:	44 27       	eor	r20, r20
    36ac:	5a 96       	adiw	r26, 0x1a	; 26
    36ae:	cd 90       	ld	r12, X+
    36b0:	dc 90       	ld	r13, X
    36b2:	5b 97       	sbiw	r26, 0x1b	; 27
    36b4:	e1 2c       	mov	r14, r1
    36b6:	f1 2c       	mov	r15, r1
    36b8:	8a 01       	movw	r16, r20
    36ba:	9b 01       	movw	r18, r22
    36bc:	0c 29       	or	r16, r12
    36be:	1d 29       	or	r17, r13
    36c0:	2e 29       	or	r18, r14
    36c2:	3f 29       	or	r19, r15
    36c4:	0d 83       	std	Y+5, r16	; 0x05
    36c6:	1e 83       	std	Y+6, r17	; 0x06
    36c8:	2f 83       	std	Y+7, r18	; 0x07
    36ca:	38 87       	std	Y+8, r19	; 0x08

fileSize = dir->fileSize;
    36cc:	5c 96       	adiw	r26, 0x1c	; 28
    36ce:	4d 90       	ld	r4, X+
    36d0:	5d 90       	ld	r5, X+
    36d2:	6d 90       	ld	r6, X+
    36d4:	7c 90       	ld	r7, X

TX_NEWLINE;
    36d6:	5f 97       	sbiw	r26, 0x1f	; 31
    36d8:	8d e0       	ldi	r24, 0x0D	; 13
    36da:	db d7       	rcall	.+4022   	; 0x4692 <transmitByte>
    36dc:	8a e0       	ldi	r24, 0x0A	; 10
TX_NEWLINE;
    36de:	d9 d7       	rcall	.+4018   	; 0x4692 <transmitByte>
    36e0:	8d e0       	ldi	r24, 0x0D	; 13
    36e2:	d7 d7       	rcall	.+4014   	; 0x4692 <transmitByte>
    36e4:	8a e0       	ldi	r24, 0x0A	; 10
    36e6:	d5 d7       	rcall	.+4010   	; 0x4692 <transmitByte>
    36e8:	c1 2c       	mov	r12, r1
//		  2, if file name is incompatible
//***************************************************************************
unsigned char readFile (unsigned char flag, unsigned char *fileName)
{
struct dir_Structure *dir;
unsigned long cluster, byteCounter = 0, fileSize, firstSector;
    36ea:	d1 2c       	mov	r13, r1
    36ec:	76 01       	movw	r14, r12
    36ee:	53 01       	movw	r10, r6
    36f0:	42 01       	movw	r8, r4
    36f2:	1f ef       	ldi	r17, 0xFF	; 255
    36f4:	81 1a       	sub	r8, r17
    36f6:	91 0a       	sbc	r9, r17
    36f8:	a1 0a       	sbc	r10, r17
    36fa:	b1 0a       	sbc	r11, r17
    36fc:	6d 81       	ldd	r22, Y+5	; 0x05
TX_NEWLINE;
TX_NEWLINE;

while(1)
{
  firstSector = getFirstSector (cluster);
    36fe:	7e 81       	ldd	r23, Y+6	; 0x06
    3700:	8f 81       	ldd	r24, Y+7	; 0x07
    3702:	98 85       	ldd	r25, Y+8	; 0x08
    3704:	cd d9       	rcall	.-3174   	; 0x2aa0 <getFirstSector>
    3706:	69 83       	std	Y+1, r22	; 0x01
    3708:	7a 83       	std	Y+2, r23	; 0x02
    370a:	8b 83       	std	Y+3, r24	; 0x03
    370c:	9c 83       	std	Y+4, r25	; 0x04
    370e:	80 91 14 0d 	lds	r24, 0x0D14	; 0x800d14 <sectorPerCluster>

  for(j=0; j<sectorPerCluster; j++)
    3712:	90 91 15 0d 	lds	r25, 0x0D15	; 0x800d15 <sectorPerCluster+0x1>
    3716:	89 2b       	or	r24, r25
    3718:	d1 f1       	breq	.+116    	; 0x378e <readFile+0x146>
    371a:	19 86       	std	Y+9, r1	; 0x09
    371c:	69 81       	ldd	r22, Y+1	; 0x01
  {
	  //liest Block von 512 Bytes aus mit SPI und schreibt Werte in buffer[]
    SD_readSingleBlock(firstSector + j);
    371e:	7a 81       	ldd	r23, Y+2	; 0x02
    3720:	8b 81       	ldd	r24, Y+3	; 0x03
    3722:	9c 81       	ldd	r25, Y+4	; 0x04
    3724:	09 85       	ldd	r16, Y+9	; 0x09
    3726:	60 0f       	add	r22, r16
    3728:	71 1d       	adc	r23, r1
    372a:	81 1d       	adc	r24, r1
    372c:	91 1d       	adc	r25, r1
    372e:	50 d5       	rcall	.+2720   	; 0x41d0 <SD_readSingleBlock>
    3730:	c4 14       	cp	r12, r4
    
	for(k=0; k<512; k++)
    {
//       transmitByte(buffer[k]);
      if ((byteCounter++) >= fileSize ) return 0;
    3732:	d5 04       	cpc	r13, r5
    3734:	e6 04       	cpc	r14, r6
    3736:	f7 04       	cpc	r15, r7
    3738:	08 f0       	brcs	.+2      	; 0x373c <readFile+0xf4>
    373a:	46 c0       	rjmp	.+140    	; 0x37c8 <readFile+0x180>
    373c:	b7 01       	movw	r22, r14
    373e:	a6 01       	movw	r20, r12
    3740:	4f 5f       	subi	r20, 0xFF	; 255
    3742:	5d 4f       	sbci	r21, 0xFD	; 253
    3744:	6f 4f       	sbci	r22, 0xFF	; 255
    3746:	7f 4f       	sbci	r23, 0xFF	; 255
    3748:	12 e0       	ldi	r17, 0x02	; 2
    374a:	c1 0e       	add	r12, r17
    374c:	d1 1c       	adc	r13, r1
    374e:	e1 1c       	adc	r14, r1
    3750:	f1 1c       	adc	r15, r1
    3752:	02 c0       	rjmp	.+4      	; 0x3758 <readFile+0x110>
    3754:	6c 01       	movw	r12, r24
    3756:	7d 01       	movw	r14, r26
    3758:	8c 14       	cp	r8, r12
    375a:	9d 04       	cpc	r9, r13
    375c:	ae 04       	cpc	r10, r14
    375e:	bf 04       	cpc	r11, r15
    3760:	a9 f1       	breq	.+106    	; 0x37cc <readFile+0x184>
    3762:	d7 01       	movw	r26, r14
    3764:	c6 01       	movw	r24, r12
    3766:	01 96       	adiw	r24, 0x01	; 1
    3768:	a1 1d       	adc	r26, r1
    376a:	b1 1d       	adc	r27, r1
    376c:	48 17       	cp	r20, r24
  for(j=0; j<sectorPerCluster; j++)
  {
	  //liest Block von 512 Bytes aus mit SPI und schreibt Werte in buffer[]
    SD_readSingleBlock(firstSector + j);
    
	for(k=0; k<512; k++)
    376e:	59 07       	cpc	r21, r25
    3770:	6a 07       	cpc	r22, r26
    3772:	7b 07       	cpc	r23, r27
    3774:	79 f7       	brne	.-34     	; 0x3754 <readFile+0x10c>
    3776:	09 85       	ldd	r16, Y+9	; 0x09

while(1)
{
  firstSector = getFirstSector (cluster);

  for(j=0; j<sectorPerCluster; j++)
    3778:	0f 5f       	subi	r16, 0xFF	; 255
    377a:	09 87       	std	Y+9, r16	; 0x09
    377c:	80 91 14 0d 	lds	r24, 0x0D14	; 0x800d14 <sectorPerCluster>
    3780:	90 91 15 0d 	lds	r25, 0x0D15	; 0x800d15 <sectorPerCluster+0x1>
    3784:	20 2f       	mov	r18, r16
    3786:	30 e0       	ldi	r19, 0x00	; 0
    3788:	28 17       	cp	r18, r24
    378a:	39 07       	cpc	r19, r25
    378c:	38 f2       	brcs	.-114    	; 0x371c <readFile+0xd4>
    378e:	00 e0       	ldi	r16, 0x00	; 0
    {
//       transmitByte(buffer[k]);
      if ((byteCounter++) >= fileSize ) return 0;
    }
  }
  cluster = getSetNextCluster (cluster, GET, 0);
    3790:	10 e0       	ldi	r17, 0x00	; 0
    3792:	98 01       	movw	r18, r16
    3794:	40 e0       	ldi	r20, 0x00	; 0
    3796:	6d 81       	ldd	r22, Y+5	; 0x05
    3798:	7e 81       	ldd	r23, Y+6	; 0x06
    379a:	8f 81       	ldd	r24, Y+7	; 0x07
    379c:	98 85       	ldd	r25, Y+8	; 0x08
    379e:	a1 d9       	rcall	.-3262   	; 0x2ae2 <getSetNextCluster>
    37a0:	6d 83       	std	Y+5, r22	; 0x05
    37a2:	7e 83       	std	Y+6, r23	; 0x06
    37a4:	8f 83       	std	Y+7, r24	; 0x07
    37a6:	98 87       	std	Y+8, r25	; 0x08
    37a8:	67 2b       	or	r22, r23
  if(cluster == 0) {Uart_Transmit_IT_PC((char*)("Error in getting cluster")); return 0;}
    37aa:	68 2b       	or	r22, r24
    37ac:	69 2b       	or	r22, r25
    37ae:	09 f0       	breq	.+2      	; 0x37b2 <readFile+0x16a>
    37b0:	a5 cf       	rjmp	.-182    	; 0x36fc <readFile+0xb4>
    37b2:	84 e1       	ldi	r24, 0x14	; 20
    37b4:	96 e0       	ldi	r25, 0x06	; 6
    37b6:	06 d6       	rcall	.+3084   	; 0x43c4 <Uart_Transmit_IT_PC>
    37b8:	80 e0       	ldi	r24, 0x00	; 0
    37ba:	09 c0       	rjmp	.+18     	; 0x37ce <readFile+0x186>
    37bc:	82 e0       	ldi	r24, 0x02	; 2
unsigned long cluster, byteCounter = 0, fileSize, firstSector;
unsigned int k;
unsigned char j, error;

error = convertFileName (fileName); //convert fileName into FAT format
if(error) return 2;
    37be:	07 c0       	rjmp	.+14     	; 0x37ce <readFile+0x186>
    37c0:	80 e0       	ldi	r24, 0x00	; 0

dir = findFiles (GET_FILE, fileName); //get the file location
if(dir == 0) 
  return (0);
    37c2:	05 c0       	rjmp	.+10     	; 0x37ce <readFile+0x186>
    37c4:	81 e0       	ldi	r24, 0x01	; 1

if(flag == VERIFY) return (1);	//specified file name is already existing
    37c6:	03 c0       	rjmp	.+6      	; 0x37ce <readFile+0x186>
    37c8:	80 e0       	ldi	r24, 0x00	; 0
    SD_readSingleBlock(firstSector + j);
    
	for(k=0; k<512; k++)
    {
//       transmitByte(buffer[k]);
      if ((byteCounter++) >= fileSize ) return 0;
    37ca:	01 c0       	rjmp	.+2      	; 0x37ce <readFile+0x186>
    37cc:	80 e0       	ldi	r24, 0x00	; 0
    37ce:	29 96       	adiw	r28, 0x09	; 9
  }
  cluster = getSetNextCluster (cluster, GET, 0);
  if(cluster == 0) {Uart_Transmit_IT_PC((char*)("Error in getting cluster")); return 0;}
}
return 0;
}
    37d0:	0f b6       	in	r0, 0x3f	; 63
    37d2:	f8 94       	cli
    37d4:	de bf       	out	0x3e, r29	; 62
    37d6:	0f be       	out	0x3f, r0	; 63
    37d8:	cd bf       	out	0x3d, r28	; 61
    37da:	df 91       	pop	r29
    37dc:	cf 91       	pop	r28
    37de:	1f 91       	pop	r17
    37e0:	0f 91       	pop	r16
    37e2:	ff 90       	pop	r15
    37e4:	ef 90       	pop	r14
    37e6:	df 90       	pop	r13
    37e8:	cf 90       	pop	r12
    37ea:	bf 90       	pop	r11
    37ec:	af 90       	pop	r10
    37ee:	9f 90       	pop	r9
    37f0:	8f 90       	pop	r8
    37f2:	7f 90       	pop	r7
    37f4:	6f 90       	pop	r6
    37f6:	5f 90       	pop	r5
    37f8:	4f 90       	pop	r4
    37fa:	08 95       	ret

000037fc <deleteFile>:
    37fc:	cf 93       	push	r28
//Function: to delete a specified file from the root directory
//Arguments: pointer to the file name
//return: none
//********************************************************************
void deleteFile (unsigned char *fileName)
{
    37fe:	df 93       	push	r29
    3800:	ec 01       	movw	r28, r24
  unsigned char error;

  error = convertFileName (fileName);
    3802:	3a db       	rcall	.-2444   	; 0x2e78 <convertFileName>
  if(error) return;
    3804:	81 11       	cpse	r24, r1
    3806:	03 c0       	rjmp	.+6      	; 0x380e <deleteFile+0x12>

  findFiles (DELETE, fileName);
    3808:	be 01       	movw	r22, r28
    380a:	82 e0       	ldi	r24, 0x02	; 2
    380c:	36 dd       	rcall	.-1428   	; 0x327a <findFiles>
}
    380e:	df 91       	pop	r29
    3810:	cf 91       	pop	r28
    3812:	08 95       	ret

00003814 <writeFile>:
//			file name does not exist; if the file already exists then append the data
//Arguments: pointer to the file name
//return: none
//************************************************************************************
void writeFile (unsigned char *fileName, unsigned char * INPUT)
{
    3814:	2f 92       	push	r2
    3816:	3f 92       	push	r3
    3818:	4f 92       	push	r4
    381a:	5f 92       	push	r5
    381c:	6f 92       	push	r6
    381e:	7f 92       	push	r7
    3820:	8f 92       	push	r8
    3822:	9f 92       	push	r9
    3824:	af 92       	push	r10
    3826:	bf 92       	push	r11
    3828:	cf 92       	push	r12
    382a:	df 92       	push	r13
    382c:	ef 92       	push	r14
    382e:	ff 92       	push	r15
    3830:	0f 93       	push	r16
    3832:	1f 93       	push	r17
    3834:	cf 93       	push	r28
    3836:	df 93       	push	r29
    3838:	cd b7       	in	r28, 0x3d	; 61
    383a:	de b7       	in	r29, 0x3e	; 62
    383c:	67 97       	sbiw	r28, 0x17	; 23
    383e:	0f b6       	in	r0, 0x3f	; 63
    3840:	f8 94       	cli
    3842:	de bf       	out	0x3e, r29	; 62
    3844:	0f be       	out	0x3f, r0	; 63
    3846:	cd bf       	out	0x3d, r28	; 61
    3848:	98 87       	std	Y+8, r25	; 0x08
    384a:	8f 83       	std	Y+7, r24	; 0x07
    384c:	5b 01       	movw	r10, r22
unsigned char j, data, error, fileCreatedFlag = 0, start = 0, appendFile = 0, sectorEndFlag = 0, sector;
unsigned int i, firstClusterHigh, firstClusterLow;
struct dir_Structure *dir;
unsigned long cluster, nextCluster, prevCluster, firstSector, clusterCount, extraMemory;

j = readFile (VERIFY, fileName);
    384e:	bc 01       	movw	r22, r24
    3850:	81 e0       	ldi	r24, 0x01	; 1
    3852:	fa de       	rcall	.-524    	; 0x3648 <readFile>

if(j == 1) 
    3854:	81 30       	cpi	r24, 0x01	; 1
    3856:	09 f0       	breq	.+2      	; 0x385a <writeFile+0x46>
    3858:	4e c0       	rjmp	.+156    	; 0x38f6 <writeFile+0xe2>
{
  Uart_Transmit_IT_PC((char*)("  File already existing, appending data..")); 
    385a:	8d e2       	ldi	r24, 0x2D	; 45
    385c:	96 e0       	ldi	r25, 0x06	; 6
    385e:	b2 d5       	rcall	.+2916   	; 0x43c4 <Uart_Transmit_IT_PC>
  appendFile = 1;
  cluster = appendStartCluster;
    3860:	40 90 3e 0f 	lds	r4, 0x0F3E	; 0x800f3e <appendStartCluster>
    3864:	50 90 3f 0f 	lds	r5, 0x0F3F	; 0x800f3f <appendStartCluster+0x1>
    3868:	60 90 40 0f 	lds	r6, 0x0F40	; 0x800f40 <appendStartCluster+0x2>
    386c:	70 90 41 0f 	lds	r7, 0x0F41	; 0x800f41 <appendStartCluster+0x3>
  clusterCount=0;
    3870:	c1 2c       	mov	r12, r1
    3872:	d1 2c       	mov	r13, r1
    3874:	76 01       	movw	r14, r12
  while(1)
  {
    nextCluster = getSetNextCluster (cluster, GET, 0);
    3876:	00 e0       	ldi	r16, 0x00	; 0
    3878:	10 e0       	ldi	r17, 0x00	; 0
    387a:	98 01       	movw	r18, r16
    387c:	40 e0       	ldi	r20, 0x00	; 0
    387e:	c3 01       	movw	r24, r6
    3880:	b2 01       	movw	r22, r4
    3882:	2f d9       	rcall	.-3490   	; 0x2ae2 <getSetNextCluster>
    if(nextCluster == EOF) break;
    3884:	6f 3f       	cpi	r22, 0xFF	; 255
    3886:	2f ef       	ldi	r18, 0xFF	; 255
    3888:	72 07       	cpc	r23, r18
    388a:	82 07       	cpc	r24, r18
    388c:	2f e0       	ldi	r18, 0x0F	; 15
    388e:	92 07       	cpc	r25, r18
    3890:	41 f0       	breq	.+16     	; 0x38a2 <writeFile+0x8e>
	cluster = nextCluster;
	clusterCount++;
    3892:	3f ef       	ldi	r19, 0xFF	; 255
    3894:	c3 1a       	sub	r12, r19
    3896:	d3 0a       	sbc	r13, r19
    3898:	e3 0a       	sbc	r14, r19
    389a:	f3 0a       	sbc	r15, r19
  clusterCount=0;
  while(1)
  {
    nextCluster = getSetNextCluster (cluster, GET, 0);
    if(nextCluster == EOF) break;
	cluster = nextCluster;
    389c:	2b 01       	movw	r4, r22
    389e:	3c 01       	movw	r6, r24
	clusterCount++;
  }
    38a0:	ea cf       	rjmp	.-44     	; 0x3876 <writeFile+0x62>

  sector = (fileSize - (clusterCount * sectorPerCluster * bytesPerSector)) / bytesPerSector; //last sector number of the last cluster of the file
    38a2:	20 91 14 0d 	lds	r18, 0x0D14	; 0x800d14 <sectorPerCluster>
    38a6:	30 91 15 0d 	lds	r19, 0x0D15	; 0x800d15 <sectorPerCluster+0x1>
    38aa:	a0 91 f8 08 	lds	r26, 0x08F8	; 0x8008f8 <bytesPerSector>
    38ae:	b0 91 f9 08 	lds	r27, 0x08F9	; 0x8008f9 <bytesPerSector+0x1>
    38b2:	e0 91 f8 08 	lds	r30, 0x08F8	; 0x8008f8 <bytesPerSector>
    38b6:	f0 91 f9 08 	lds	r31, 0x08F9	; 0x8008f9 <bytesPerSector+0x1>
    38ba:	51 d7       	rcall	.+3746   	; 0x475e <__umulhisi3>
    38bc:	9b 01       	movw	r18, r22
    38be:	ac 01       	movw	r20, r24
    38c0:	c7 01       	movw	r24, r14
    38c2:	b6 01       	movw	r22, r12
    38c4:	13 d7       	rcall	.+3622   	; 0x46ec <__mulsi3>
    38c6:	00 91 f4 08 	lds	r16, 0x08F4	; 0x8008f4 <fileSize>
    38ca:	10 91 f5 08 	lds	r17, 0x08F5	; 0x8008f5 <fileSize+0x1>
    38ce:	20 91 f6 08 	lds	r18, 0x08F6	; 0x8008f6 <fileSize+0x2>
    38d2:	30 91 f7 08 	lds	r19, 0x08F7	; 0x8008f7 <fileSize+0x3>
    38d6:	68 01       	movw	r12, r16
    38d8:	79 01       	movw	r14, r18
    38da:	c6 1a       	sub	r12, r22
    38dc:	d7 0a       	sbc	r13, r23
    38de:	e8 0a       	sbc	r14, r24
    38e0:	f9 0a       	sbc	r15, r25
    38e2:	c7 01       	movw	r24, r14
    38e4:	b6 01       	movw	r22, r12
    38e6:	9f 01       	movw	r18, r30
    38e8:	40 e0       	ldi	r20, 0x00	; 0
    38ea:	50 e0       	ldi	r21, 0x00	; 0
    38ec:	0e d7       	rcall	.+3612   	; 0x470a <__udivmodsi4>
    38ee:	29 87       	std	Y+9, r18	; 0x09
  start = 1;
    38f0:	21 e0       	ldi	r18, 0x01	; 1
    38f2:	29 8b       	std	Y+17, r18	; 0x11
//  appendFile();
//  return;
}
else if(j == 2) 
    38f4:	48 c0       	rjmp	.+144    	; 0x3986 <writeFile+0x172>
    38f6:	82 30       	cpi	r24, 0x02	; 2
   return; //invalid file name
else
{
  TX_NEWLINE;
    38f8:	09 f4       	brne	.+2      	; 0x38fc <writeFile+0xe8>
    38fa:	65 c3       	rjmp	.+1738   	; 0x3fc6 <writeFile+0x7b2>
    38fc:	8d e0       	ldi	r24, 0x0D	; 13
    38fe:	c9 d6       	rcall	.+3474   	; 0x4692 <transmitByte>
    3900:	8a e0       	ldi	r24, 0x0A	; 10
  Uart_Transmit_IT_PC((char*)(" Creating File.."));
    3902:	c7 d6       	rcall	.+3470   	; 0x4692 <transmitByte>
    3904:	87 e5       	ldi	r24, 0x57	; 87
    3906:	96 e0       	ldi	r25, 0x06	; 6

  cluster = getSetFreeCluster (NEXT_FREE, GET, 0);
    3908:	5d d5       	rcall	.+2746   	; 0x43c4 <Uart_Transmit_IT_PC>
    390a:	20 e0       	ldi	r18, 0x00	; 0
    390c:	30 e0       	ldi	r19, 0x00	; 0
    390e:	a9 01       	movw	r20, r18
    3910:	60 e0       	ldi	r22, 0x00	; 0
    3912:	82 e0       	ldi	r24, 0x02	; 2
    3914:	5f d9       	rcall	.-3394   	; 0x2bd4 <getSetFreeCluster>
  if(cluster > totalClusters)
    3916:	00 91 fa 08 	lds	r16, 0x08FA	; 0x8008fa <totalClusters>
    391a:	10 91 fb 08 	lds	r17, 0x08FB	; 0x8008fb <totalClusters+0x1>
    391e:	20 91 fc 08 	lds	r18, 0x08FC	; 0x8008fc <totalClusters+0x2>
    3922:	30 91 fd 08 	lds	r19, 0x08FD	; 0x8008fd <totalClusters+0x3>
    3926:	06 17       	cp	r16, r22
    3928:	17 07       	cpc	r17, r23
    392a:	28 07       	cpc	r18, r24
    392c:	39 07       	cpc	r19, r25
     cluster = rootCluster;
    392e:	40 f4       	brcc	.+16     	; 0x3940 <writeFile+0x12c>
    3930:	60 91 06 09 	lds	r22, 0x0906	; 0x800906 <rootCluster>
    3934:	70 91 07 09 	lds	r23, 0x0907	; 0x800907 <rootCluster+0x1>
    3938:	80 91 08 09 	lds	r24, 0x0908	; 0x800908 <rootCluster+0x2>
    393c:	90 91 09 09 	lds	r25, 0x0909	; 0x800909 <rootCluster+0x3>

  cluster = searchNextFreeCluster(cluster);
    3940:	2b db       	rcall	.-2474   	; 0x2f98 <searchNextFreeCluster>
   if(cluster == 0)
    3942:	2b 01       	movw	r4, r22
    3944:	3c 01       	movw	r6, r24
    3946:	61 15       	cp	r22, r1
    3948:	71 05       	cpc	r23, r1
   {
      TX_NEWLINE;
    394a:	81 05       	cpc	r24, r1
    394c:	91 05       	cpc	r25, r1
    394e:	41 f4       	brne	.+16     	; 0x3960 <writeFile+0x14c>
    3950:	8d e0       	ldi	r24, 0x0D	; 13
    3952:	9f d6       	rcall	.+3390   	; 0x4692 <transmitByte>
      Uart_Transmit_IT_PC((char*)(" No free cluster!"));
    3954:	8a e0       	ldi	r24, 0x0A	; 10
    3956:	9d d6       	rcall	.+3386   	; 0x4692 <transmitByte>
    3958:	88 e6       	ldi	r24, 0x68	; 104
    395a:	96 e0       	ldi	r25, 0x06	; 6
	  return;
    395c:	33 d5       	rcall	.+2662   	; 0x43c4 <Uart_Transmit_IT_PC>
   }
  getSetNextCluster(cluster, SET, EOF);   //last cluster of the file, marked EOF
    395e:	33 c3       	rjmp	.+1638   	; 0x3fc6 <writeFile+0x7b2>
    3960:	0f ef       	ldi	r16, 0xFF	; 255
    3962:	1f ef       	ldi	r17, 0xFF	; 255
    3964:	2f ef       	ldi	r18, 0xFF	; 255
    3966:	3f e0       	ldi	r19, 0x0F	; 15
    3968:	41 e0       	ldi	r20, 0x01	; 1
    396a:	bb d8       	rcall	.-3722   	; 0x2ae2 <getSetNextCluster>
   
  firstClusterHigh = (unsigned int) ((cluster & 0xffff0000) >> 16 );
    396c:	7b 8a       	std	Y+19, r7	; 0x13
    396e:	6a 8a       	std	Y+18, r6	; 0x12
  firstClusterLow = (unsigned int) ( cluster & 0x0000ffff);
    3970:	5d 8a       	std	Y+21, r5	; 0x15
    3972:	4c 8a       	std	Y+20, r4	; 0x14
  fileSize = 0;
    3974:	10 92 f4 08 	sts	0x08F4, r1	; 0x8008f4 <fileSize>
    3978:	10 92 f5 08 	sts	0x08F5, r1	; 0x8008f5 <fileSize+0x1>
    397c:	10 92 f6 08 	sts	0x08F6, r1	; 0x8008f6 <fileSize+0x2>
    3980:	10 92 f7 08 	sts	0x08F7, r1	; 0x8008f7 <fileSize+0x3>
//Arguments: pointer to the file name
//return: none
//************************************************************************************
void writeFile (unsigned char *fileName, unsigned char * INPUT)
{
unsigned char j, data, error, fileCreatedFlag = 0, start = 0, appendFile = 0, sectorEndFlag = 0, sector;
    3984:	19 8a       	std	Y+17, r1	; 0x11
    3986:	89 89       	ldd	r24, Y+17	; 0x11
    3988:	21 2c       	mov	r2, r1
while(1)
{
   if(start)
   {
      start = 0;
	  startBlock = getFirstSector (cluster) + sector;
    398a:	d9 84       	ldd	r13, Y+9	; 0x09
    398c:	cd 2c       	mov	r12, r13
    398e:	d1 2c       	mov	r13, r1
    3990:	e1 2c       	mov	r14, r1
    3992:	f1 2c       	mov	r15, r1
    3994:	cd 86       	std	Y+13, r12	; 0x0d
    3996:	de 86       	std	Y+14, r13	; 0x0e
    3998:	ef 86       	std	Y+15, r14	; 0x0f
   }
   else
   {
      startBlock = getFirstSector (cluster);
	  i=0;
	  j=0;
    399a:	f8 8a       	std	Y+16, r15	; 0x10
     buffer[i++] = data;
	 fileSize++;
     if(data == '\r')  //'Carriege Return (CR)' character
     {
        if(i == 512)
		   sectorEndFlag = 1;  //flag to indicate that the appended '\n' char should be put in the next sector
    399c:	31 2c       	mov	r3, r1
    399e:	21 e0       	ldi	r18, 0x01	; 1
    39a0:	2b 83       	std	Y+3, r18	; 0x03
    39a2:	ba 82       	std	Y+2, r11	; 0x02



while(1)
{
   if(start)
    39a4:	a9 82       	std	Y+1, r10	; 0x01
    39a6:	88 23       	and	r24, r24
   {
      start = 0;
	  startBlock = getFirstSector (cluster) + sector;
    39a8:	79 f1       	breq	.+94     	; 0x3a08 <writeFile+0x1f4>
    39aa:	c3 01       	movw	r24, r6
    39ac:	b2 01       	movw	r22, r4
    39ae:	78 d8       	rcall	.-3856   	; 0x2aa0 <getFirstSector>
    39b0:	cd 84       	ldd	r12, Y+13	; 0x0d
    39b2:	de 84       	ldd	r13, Y+14	; 0x0e
    39b4:	ef 84       	ldd	r14, Y+15	; 0x0f
    39b6:	f8 88       	ldd	r15, Y+16	; 0x10
    39b8:	c6 0e       	add	r12, r22
    39ba:	d7 1e       	adc	r13, r23
    39bc:	e8 1e       	adc	r14, r24
    39be:	f9 1e       	adc	r15, r25
    39c0:	c0 92 0c 0a 	sts	0x0A0C, r12	; 0x800a0c <startBlock>
    39c4:	d0 92 0d 0a 	sts	0x0A0D, r13	; 0x800a0d <startBlock+0x1>
    39c8:	e0 92 0e 0a 	sts	0x0A0E, r14	; 0x800a0e <startBlock+0x2>
    39cc:	f0 92 0f 0a 	sts	0x0A0F, r15	; 0x800a0f <startBlock+0x3>
	  SD_readSingleBlock (startBlock);
    39d0:	60 91 0c 0a 	lds	r22, 0x0A0C	; 0x800a0c <startBlock>
    39d4:	70 91 0d 0a 	lds	r23, 0x0A0D	; 0x800a0d <startBlock+0x1>
    39d8:	80 91 0e 0a 	lds	r24, 0x0A0E	; 0x800a0e <startBlock+0x2>
    39dc:	90 91 0f 0a 	lds	r25, 0x0A0F	; 0x800a0f <startBlock+0x3>
    39e0:	f7 d3       	rcall	.+2030   	; 0x41d0 <SD_readSingleBlock>
	  i = fileSize % bytesPerSector;
    39e2:	20 91 f8 08 	lds	r18, 0x08F8	; 0x8008f8 <bytesPerSector>
    39e6:	30 91 f9 08 	lds	r19, 0x08F9	; 0x8008f9 <bytesPerSector+0x1>
    39ea:	40 e0       	ldi	r20, 0x00	; 0
    39ec:	50 e0       	ldi	r21, 0x00	; 0
    39ee:	60 91 f4 08 	lds	r22, 0x08F4	; 0x8008f4 <fileSize>
    39f2:	70 91 f5 08 	lds	r23, 0x08F5	; 0x8008f5 <fileSize+0x1>
    39f6:	80 91 f6 08 	lds	r24, 0x08F6	; 0x8008f6 <fileSize+0x2>
    39fa:	90 91 f7 08 	lds	r25, 0x08F7	; 0x8008f7 <fileSize+0x3>
    39fe:	85 d6       	rcall	.+3338   	; 0x470a <__udivmodsi4>
    3a00:	7f 8b       	std	Y+23, r23	; 0x17
	  j = sector;
    3a02:	6e 8b       	std	Y+22, r22	; 0x16
    3a04:	09 85       	ldd	r16, Y+9	; 0x09
   }
   else
   {
      startBlock = getFirstSector (cluster);
    3a06:	0e c0       	rjmp	.+28     	; 0x3a24 <writeFile+0x210>
    3a08:	c3 01       	movw	r24, r6
    3a0a:	b2 01       	movw	r22, r4
    3a0c:	49 d8       	rcall	.-3950   	; 0x2aa0 <getFirstSector>
    3a0e:	60 93 0c 0a 	sts	0x0A0C, r22	; 0x800a0c <startBlock>
    3a12:	70 93 0d 0a 	sts	0x0A0D, r23	; 0x800a0d <startBlock+0x1>
    3a16:	80 93 0e 0a 	sts	0x0A0E, r24	; 0x800a0e <startBlock+0x2>
	  i=0;
    3a1a:	90 93 0f 0a 	sts	0x0A0F, r25	; 0x800a0f <startBlock+0x3>
	  j=0;
   }
   

   TX_NEWLINE;
    3a1e:	1f 8a       	std	Y+23, r1	; 0x17
    3a20:	1e 8a       	std	Y+22, r1	; 0x16
    3a22:	00 e0       	ldi	r16, 0x00	; 0
    3a24:	8d e0       	ldi	r24, 0x0D	; 13
    3a26:	35 d6       	rcall	.+3178   	; 0x4692 <transmitByte>
   Uart_Transmit_IT_PC((char*)(" Enter text (end with ~):"));
    3a28:	8a e0       	ldi	r24, 0x0A	; 10
    3a2a:	33 d6       	rcall	.+3174   	; 0x4692 <transmitByte>
    3a2c:	8a e7       	ldi	r24, 0x7A	; 122
    3a2e:	96 e0       	ldi	r25, 0x06	; 6
   uint32_t counter = 0;
    3a30:	c9 d4       	rcall	.+2450   	; 0x43c4 <Uart_Transmit_IT_PC>
    3a32:	81 2c       	mov	r8, r1
    3a34:	91 2c       	mov	r9, r1
   do
   {
     if(sectorEndFlag == 1) //special case when the last character in previous sector was '\r'
    3a36:	54 01       	movw	r10, r8
    3a38:	ff 24       	eor	r15, r15
    3a3a:	f3 94       	inc	r15
    3a3c:	2f 10       	cpse	r2, r15
	 {
	 	transmitByte ('\n');
    3a3e:	21 c0       	rjmp	.+66     	; 0x3a82 <writeFile+0x26e>
    3a40:	8a e0       	ldi	r24, 0x0A	; 10
    3a42:	27 d6       	rcall	.+3150   	; 0x4692 <transmitByte>
        buffer[i++] = '\n'; //appending 'Line Feed (LF)' character
    3a44:	ee 89       	ldd	r30, Y+22	; 0x16
    3a46:	ff 89       	ldd	r31, Y+23	; 0x17
    3a48:	ed 5e       	subi	r30, 0xED	; 237
    3a4a:	f4 4f       	sbci	r31, 0xF4	; 244
    3a4c:	8a e0       	ldi	r24, 0x0A	; 10
    3a4e:	80 83       	st	Z, r24
		fileSize++;
    3a50:	80 91 f4 08 	lds	r24, 0x08F4	; 0x8008f4 <fileSize>
    3a54:	90 91 f5 08 	lds	r25, 0x08F5	; 0x8008f5 <fileSize+0x1>
    3a58:	a0 91 f6 08 	lds	r26, 0x08F6	; 0x8008f6 <fileSize+0x2>
    3a5c:	b0 91 f7 08 	lds	r27, 0x08F7	; 0x8008f7 <fileSize+0x3>
    3a60:	01 96       	adiw	r24, 0x01	; 1
    3a62:	a1 1d       	adc	r26, r1
    3a64:	b1 1d       	adc	r27, r1
    3a66:	80 93 f4 08 	sts	0x08F4, r24	; 0x8008f4 <fileSize>
    3a6a:	90 93 f5 08 	sts	0x08F5, r25	; 0x8008f5 <fileSize+0x1>
    3a6e:	a0 93 f6 08 	sts	0x08F6, r26	; 0x8008f6 <fileSize+0x2>
    3a72:	b0 93 f7 08 	sts	0x08F7, r27	; 0x8008f7 <fileSize+0x3>
   do
   {
     if(sectorEndFlag == 1) //special case when the last character in previous sector was '\r'
	 {
	 	transmitByte ('\n');
        buffer[i++] = '\n'; //appending 'Line Feed (LF)' character
    3a76:	2e 89       	ldd	r18, Y+22	; 0x16
    3a78:	3f 89       	ldd	r19, Y+23	; 0x17
    3a7a:	2f 5f       	subi	r18, 0xFF	; 255
    3a7c:	3f 4f       	sbci	r19, 0xFF	; 255
		fileSize++;
	 }

	sectorEndFlag = 0;

	 data = *(INPUT + counter);
    3a7e:	3f 8b       	std	Y+23, r19	; 0x17
    3a80:	2e 8b       	std	Y+22, r18	; 0x16
    3a82:	e9 81       	ldd	r30, Y+1	; 0x01
    3a84:	fa 81       	ldd	r31, Y+2	; 0x02
    3a86:	e8 0d       	add	r30, r8
	 if(data == 0x08)	//'Back Space' key pressed
    3a88:	f9 1d       	adc	r31, r9
    3a8a:	10 81       	ld	r17, Z
	 { 
	   if(i != 0)
    3a8c:	18 30       	cpi	r17, 0x08	; 8
    3a8e:	29 f5       	brne	.+74     	; 0x3ada <writeFile+0x2c6>
    3a90:	ce 88       	ldd	r12, Y+22	; 0x16
    3a92:	df 88       	ldd	r13, Y+23	; 0x17
    3a94:	c1 14       	cp	r12, r1
    3a96:	d1 04       	cpc	r13, r1
	   { 
	     transmitByte(data);
    3a98:	09 f4       	brne	.+2      	; 0x3a9c <writeFile+0x288>
    3a9a:	74 c2       	rjmp	.+1256   	; 0x3f84 <writeFile+0x770>
    3a9c:	88 e0       	ldi	r24, 0x08	; 8
		 transmitByte(' '); 
    3a9e:	f9 d5       	rcall	.+3058   	; 0x4692 <transmitByte>
    3aa0:	80 e2       	ldi	r24, 0x20	; 32
    3aa2:	f7 d5       	rcall	.+3054   	; 0x4692 <transmitByte>
	     transmitByte(data); 
    3aa4:	88 e0       	ldi	r24, 0x08	; 8
    3aa6:	f5 d5       	rcall	.+3050   	; 0x4692 <transmitByte>
    3aa8:	96 01       	movw	r18, r12
	     i--; 
    3aaa:	21 50       	subi	r18, 0x01	; 1
    3aac:	31 09       	sbc	r19, r1
    3aae:	3f 8b       	std	Y+23, r19	; 0x17
    3ab0:	2e 8b       	std	Y+22, r18	; 0x16
		 fileSize--;
    3ab2:	80 91 f4 08 	lds	r24, 0x08F4	; 0x8008f4 <fileSize>
    3ab6:	90 91 f5 08 	lds	r25, 0x08F5	; 0x8008f5 <fileSize+0x1>
    3aba:	a0 91 f6 08 	lds	r26, 0x08F6	; 0x8008f6 <fileSize+0x2>
    3abe:	b0 91 f7 08 	lds	r27, 0x08F7	; 0x8008f7 <fileSize+0x3>
    3ac2:	01 97       	sbiw	r24, 0x01	; 1
    3ac4:	a1 09       	sbc	r26, r1
    3ac6:	b1 09       	sbc	r27, r1
    3ac8:	80 93 f4 08 	sts	0x08F4, r24	; 0x8008f4 <fileSize>
    3acc:	90 93 f5 08 	sts	0x08F5, r25	; 0x8008f5 <fileSize+0x1>
    3ad0:	a0 93 f6 08 	sts	0x08F6, r26	; 0x8008f6 <fileSize+0x2>
    3ad4:	b0 93 f7 08 	sts	0x08F7, r27	; 0x8008f7 <fileSize+0x3>
    3ad8:	55 c2       	rjmp	.+1194   	; 0x3f84 <writeFile+0x770>
	   } 
	   continue;     
	 }
	 transmitByte(data);
    3ada:	81 2f       	mov	r24, r17
    3adc:	da d5       	rcall	.+2996   	; 0x4692 <transmitByte>
    3ade:	ee 88       	ldd	r14, Y+22	; 0x16
     buffer[i++] = data;
    3ae0:	ff 88       	ldd	r15, Y+23	; 0x17
    3ae2:	3f ef       	ldi	r19, 0xFF	; 255
    3ae4:	e3 1a       	sub	r14, r19
    3ae6:	f3 0a       	sbc	r15, r19
    3ae8:	ee 89       	ldd	r30, Y+22	; 0x16
    3aea:	ff 89       	ldd	r31, Y+23	; 0x17
    3aec:	ed 5e       	subi	r30, 0xED	; 237
    3aee:	f4 4f       	sbci	r31, 0xF4	; 244
    3af0:	10 83       	st	Z, r17
    3af2:	80 91 f4 08 	lds	r24, 0x08F4	; 0x8008f4 <fileSize>
	 fileSize++;
    3af6:	90 91 f5 08 	lds	r25, 0x08F5	; 0x8008f5 <fileSize+0x1>
    3afa:	a0 91 f6 08 	lds	r26, 0x08F6	; 0x8008f6 <fileSize+0x2>
    3afe:	b0 91 f7 08 	lds	r27, 0x08F7	; 0x8008f7 <fileSize+0x3>
    3b02:	01 96       	adiw	r24, 0x01	; 1
    3b04:	a1 1d       	adc	r26, r1
    3b06:	b1 1d       	adc	r27, r1
    3b08:	80 93 f4 08 	sts	0x08F4, r24	; 0x8008f4 <fileSize>
    3b0c:	90 93 f5 08 	sts	0x08F5, r25	; 0x8008f5 <fileSize+0x1>
    3b10:	a0 93 f6 08 	sts	0x08F6, r26	; 0x8008f6 <fileSize+0x2>
    3b14:	b0 93 f7 08 	sts	0x08F7, r27	; 0x8008f7 <fileSize+0x3>
     if(data == '\r')  //'Carriege Return (CR)' character
    3b18:	1d 30       	cpi	r17, 0x0D	; 13
    3b1a:	59 f5       	brne	.+86     	; 0x3b72 <writeFile+0x35e>
     {
        if(i == 512)
    3b1c:	e1 14       	cp	r14, r1
    3b1e:	42 e0       	ldi	r20, 0x02	; 2
    3b20:	f4 06       	cpc	r15, r20
    3b22:	69 f1       	breq	.+90     	; 0x3b7e <writeFile+0x36a>
		   sectorEndFlag = 1;  //flag to indicate that the appended '\n' char should be put in the next sector
	    else
		{ 
		   transmitByte ('\n');
    3b24:	8a e0       	ldi	r24, 0x0A	; 10
    3b26:	b5 d5       	rcall	.+2922   	; 0x4692 <transmitByte>
    3b28:	8e 89       	ldd	r24, Y+22	; 0x16
           buffer[i++] = '\n'; //appending 'Line Feed (LF)' character
    3b2a:	9f 89       	ldd	r25, Y+23	; 0x17
    3b2c:	02 96       	adiw	r24, 0x02	; 2
    3b2e:	9f 8b       	std	Y+23, r25	; 0x17
    3b30:	8e 8b       	std	Y+22, r24	; 0x16
    3b32:	f7 01       	movw	r30, r14
    3b34:	ed 5e       	subi	r30, 0xED	; 237
    3b36:	f4 4f       	sbci	r31, 0xF4	; 244
    3b38:	8a e0       	ldi	r24, 0x0A	; 10
    3b3a:	80 83       	st	Z, r24
    3b3c:	80 91 f4 08 	lds	r24, 0x08F4	; 0x8008f4 <fileSize>
		   fileSize++;
    3b40:	90 91 f5 08 	lds	r25, 0x08F5	; 0x8008f5 <fileSize+0x1>
    3b44:	a0 91 f6 08 	lds	r26, 0x08F6	; 0x8008f6 <fileSize+0x2>
    3b48:	b0 91 f7 08 	lds	r27, 0x08F7	; 0x8008f7 <fileSize+0x3>
    3b4c:	01 96       	adiw	r24, 0x01	; 1
    3b4e:	a1 1d       	adc	r26, r1
    3b50:	b1 1d       	adc	r27, r1
    3b52:	80 93 f4 08 	sts	0x08F4, r24	; 0x8008f4 <fileSize>
    3b56:	90 93 f5 08 	sts	0x08F5, r25	; 0x8008f5 <fileSize+0x1>
    3b5a:	a0 93 f6 08 	sts	0x08F6, r26	; 0x8008f6 <fileSize+0x2>
    3b5e:	b0 93 f7 08 	sts	0x08F7, r27	; 0x8008f7 <fileSize+0x3>
    3b62:	ce 88       	ldd	r12, Y+22	; 0x16
	    }
     }
	 
     if(i >= 512)   //though 'i' will never become greater than 512, it's kept here to avoid 
    3b64:	df 88       	ldd	r13, Y+23	; 0x17
    3b66:	c1 14       	cp	r12, r1
    3b68:	22 e0       	ldi	r18, 0x02	; 2
    3b6a:	d2 06       	cpc	r13, r18
    3b6c:	08 f4       	brcc	.+2      	; 0x3b70 <writeFile+0x35c>
    3b6e:	10 c2       	rjmp	.+1056   	; 0x3f90 <writeFile+0x77c>
    3b70:	08 c0       	rjmp	.+16     	; 0x3b82 <writeFile+0x36e>
    3b72:	e1 14       	cp	r14, r1
    3b74:	32 e0       	ldi	r19, 0x02	; 2
    3b76:	f3 06       	cpc	r15, r19
    3b78:	70 f1       	brcs	.+92     	; 0x3bd6 <writeFile+0x3c2>
    3b7a:	23 2c       	mov	r2, r3
    3b7c:	03 c0       	rjmp	.+6      	; 0x3b84 <writeFile+0x370>
     buffer[i++] = data;
	 fileSize++;
     if(data == '\r')  //'Carriege Return (CR)' character
     {
        if(i == 512)
		   sectorEndFlag = 1;  //flag to indicate that the appended '\n' char should be put in the next sector
    3b7e:	2b 80       	ldd	r2, Y+3	; 0x03
    3b80:	01 c0       	rjmp	.+2      	; 0x3b84 <writeFile+0x370>
           buffer[i++] = '\n'; //appending 'Line Feed (LF)' character
		   fileSize++;
	    }
     }
	 
     if(i >= 512)   //though 'i' will never become greater than 512, it's kept here to avoid 
    3b82:	23 2c       	mov	r2, r3
	 {				//infinite loop in case it happens to be greater than 512 due to some data corruption
	   i=0;
	   error = SD_writeSingleBlock (startBlock);
    3b84:	60 91 0c 0a 	lds	r22, 0x0A0C	; 0x800a0c <startBlock>
    3b88:	70 91 0d 0a 	lds	r23, 0x0A0D	; 0x800a0d <startBlock+0x1>
    3b8c:	80 91 0e 0a 	lds	r24, 0x0A0E	; 0x800a0e <startBlock+0x2>
    3b90:	90 91 0f 0a 	lds	r25, 0x0A0F	; 0x800a0f <startBlock+0x3>
    3b94:	45 d3       	rcall	.+1674   	; 0x4220 <SD_writeSingleBlock>
    3b96:	0f 5f       	subi	r16, 0xFF	; 255
       j++;
    3b98:	80 91 14 0d 	lds	r24, 0x0D14	; 0x800d14 <sectorPerCluster>
	   if(j == sectorPerCluster) {j = 0; break;}
    3b9c:	90 91 15 0d 	lds	r25, 0x0D15	; 0x800d15 <sectorPerCluster+0x1>
    3ba0:	20 2f       	mov	r18, r16
    3ba2:	30 e0       	ldi	r19, 0x00	; 0
    3ba4:	28 17       	cp	r18, r24
    3ba6:	39 07       	cpc	r19, r25
    3ba8:	11 f1       	breq	.+68     	; 0x3bee <writeFile+0x3da>
    3baa:	80 91 0c 0a 	lds	r24, 0x0A0C	; 0x800a0c <startBlock>
	   startBlock++; 
    3bae:	90 91 0d 0a 	lds	r25, 0x0A0D	; 0x800a0d <startBlock+0x1>
    3bb2:	a0 91 0e 0a 	lds	r26, 0x0A0E	; 0x800a0e <startBlock+0x2>
    3bb6:	b0 91 0f 0a 	lds	r27, 0x0A0F	; 0x800a0f <startBlock+0x3>
    3bba:	01 96       	adiw	r24, 0x01	; 1
    3bbc:	a1 1d       	adc	r26, r1
    3bbe:	b1 1d       	adc	r27, r1
    3bc0:	80 93 0c 0a 	sts	0x0A0C, r24	; 0x800a0c <startBlock>
    3bc4:	90 93 0d 0a 	sts	0x0A0D, r25	; 0x800a0d <startBlock+0x1>
    3bc8:	a0 93 0e 0a 	sts	0x0A0E, r26	; 0x800a0e <startBlock+0x2>
    3bcc:	b0 93 0f 0a 	sts	0x0A0F, r27	; 0x800a0f <startBlock+0x3>
    3bd0:	1f 8a       	std	Y+23, r1	; 0x17
	    }
     }
	 
     if(i >= 512)   //though 'i' will never become greater than 512, it's kept here to avoid 
	 {				//infinite loop in case it happens to be greater than 512 due to some data corruption
	   i=0;
    3bd2:	1e 8a       	std	Y+22, r1	; 0x16
    3bd4:	03 c0       	rjmp	.+6      	; 0x3bdc <writeFile+0x3c8>
    3bd6:	ff 8a       	std	Y+23, r15	; 0x17
		 fileSize--;
	   } 
	   continue;     
	 }
	 transmitByte(data);
     buffer[i++] = data;
    3bd8:	ee 8a       	std	Y+22, r14	; 0x16
    3bda:	23 2c       	mov	r2, r3
    3bdc:	4f ef       	ldi	r20, 0xFF	; 255
	   error = SD_writeSingleBlock (startBlock);
       j++;
	   if(j == sectorPerCluster) {j = 0; break;}
	   startBlock++; 
     }
	 counter ++;
    3bde:	84 1a       	sub	r8, r20
    3be0:	94 0a       	sbc	r9, r20
    3be2:	a4 0a       	sbc	r10, r20
    3be4:	b4 0a       	sbc	r11, r20
    3be6:	1e 37       	cpi	r17, 0x7E	; 126
	}while (data != '~');
    3be8:	09 f0       	breq	.+2      	; 0x3bec <writeFile+0x3d8>
    3bea:	26 cf       	rjmp	.-436    	; 0x3a38 <writeFile+0x224>
    3bec:	04 c0       	rjmp	.+8      	; 0x3bf6 <writeFile+0x3e2>
    3bee:	1e 37       	cpi	r17, 0x7E	; 126

   if(data == '~') 
    3bf0:	09 f0       	breq	.+2      	; 0x3bf4 <writeFile+0x3e0>
    3bf2:	3f c0       	rjmp	.+126    	; 0x3c72 <writeFile+0x45e>
    3bf4:	d4 c1       	rjmp	.+936    	; 0x3f9e <writeFile+0x78a>
    3bf6:	ce 88       	ldd	r12, Y+22	; 0x16
    3bf8:	df 88       	ldd	r13, Y+23	; 0x17
    3bfa:	80 91 f4 08 	lds	r24, 0x08F4	; 0x8008f4 <fileSize>
   {
      fileSize--;	//to remove the last entered '~' character
    3bfe:	90 91 f5 08 	lds	r25, 0x08F5	; 0x8008f5 <fileSize+0x1>
    3c02:	a0 91 f6 08 	lds	r26, 0x08F6	; 0x8008f6 <fileSize+0x2>
    3c06:	b0 91 f7 08 	lds	r27, 0x08F7	; 0x8008f7 <fileSize+0x3>
    3c0a:	01 97       	sbiw	r24, 0x01	; 1
    3c0c:	a1 09       	sbc	r26, r1
    3c0e:	b1 09       	sbc	r27, r1
    3c10:	80 93 f4 08 	sts	0x08F4, r24	; 0x8008f4 <fileSize>
    3c14:	90 93 f5 08 	sts	0x08F5, r25	; 0x8008f5 <fileSize+0x1>
    3c18:	a0 93 f6 08 	sts	0x08F6, r26	; 0x8008f6 <fileSize+0x2>
    3c1c:	b0 93 f7 08 	sts	0x08F7, r27	; 0x8008f7 <fileSize+0x3>
    3c20:	96 01       	movw	r18, r12
	  i--;
    3c22:	21 50       	subi	r18, 0x01	; 1
    3c24:	31 09       	sbc	r19, r1
    3c26:	3a 83       	std	Y+2, r19	; 0x02
    3c28:	29 83       	std	Y+1, r18	; 0x01
	  for(;i<512;i++)  //fill the rest of the buffer with 0x00
    3c2a:	21 15       	cp	r18, r1
    3c2c:	32 40       	sbci	r19, 0x02	; 2
    3c2e:	68 f4       	brcc	.+26     	; 0x3c4a <writeFile+0x436>
        buffer[i]= 0x00;
    3c30:	e9 81       	ldd	r30, Y+1	; 0x01
    3c32:	fa 81       	ldd	r31, Y+2	; 0x02
    3c34:	ed 5e       	subi	r30, 0xED	; 237
    3c36:	f4 4f       	sbci	r31, 0xF4	; 244
    3c38:	10 82       	st	Z, r1

   if(data == '~') 
   {
      fileSize--;	//to remove the last entered '~' character
	  i--;
	  for(;i<512;i++)  //fill the rest of the buffer with 0x00
    3c3a:	89 81       	ldd	r24, Y+1	; 0x01
    3c3c:	9a 81       	ldd	r25, Y+2	; 0x02
    3c3e:	01 96       	adiw	r24, 0x01	; 1
    3c40:	9a 83       	std	Y+2, r25	; 0x02
    3c42:	89 83       	std	Y+1, r24	; 0x01
    3c44:	81 15       	cp	r24, r1
    3c46:	92 40       	sbci	r25, 0x02	; 2
        buffer[i]= 0x00;
   	  error = SD_writeSingleBlock (startBlock);
    3c48:	99 f7       	brne	.-26     	; 0x3c30 <writeFile+0x41c>
    3c4a:	60 91 0c 0a 	lds	r22, 0x0A0C	; 0x800a0c <startBlock>
    3c4e:	70 91 0d 0a 	lds	r23, 0x0A0D	; 0x800a0d <startBlock+0x1>
    3c52:	80 91 0e 0a 	lds	r24, 0x0A0E	; 0x800a0e <startBlock+0x2>
    3c56:	90 91 0f 0a 	lds	r25, 0x0A0F	; 0x800a0f <startBlock+0x3>

   getSetNextCluster(prevCluster, SET, cluster);
   getSetNextCluster(cluster, SET, EOF);   //last cluster of the file, marked EOF
}        

getSetFreeCluster (NEXT_FREE, SET, cluster); //update FSinfo next free cluster entry
    3c5a:	e2 d2       	rcall	.+1476   	; 0x4220 <SD_writeSingleBlock>
    3c5c:	a3 01       	movw	r20, r6
    3c5e:	92 01       	movw	r18, r4
    3c60:	61 e0       	ldi	r22, 0x01	; 1

if(appendFile)  //executes this loop if file is to be appended
    3c62:	82 e0       	ldi	r24, 0x02	; 2
    3c64:	0e 94 ea 15 	call	0x2bd4	; 0x2bd4 <getSetFreeCluster>
    3c68:	c9 88       	ldd	r12, Y+17	; 0x11
    3c6a:	cc 20       	and	r12, r12
      break;
   } 
	  
   prevCluster = cluster;

   cluster = searchNextFreeCluster(prevCluster); //look for a free cluster starting from the current cluster
    3c6c:	09 f4       	brne	.+2      	; 0x3c70 <writeFile+0x45c>
    3c6e:	65 c0       	rjmp	.+202    	; 0x3d3a <writeFile+0x526>
    3c70:	26 c0       	rjmp	.+76     	; 0x3cbe <writeFile+0x4aa>
    3c72:	c3 01       	movw	r24, r6
    3c74:	b2 01       	movw	r22, r4
    3c76:	90 d9       	rcall	.-3296   	; 0x2f98 <searchNextFreeCluster>

   if(cluster == 0)
    3c78:	6b 01       	movw	r12, r22
    3c7a:	7c 01       	movw	r14, r24
    3c7c:	61 15       	cp	r22, r1
    3c7e:	71 05       	cpc	r23, r1
    3c80:	81 05       	cpc	r24, r1
   {
      TX_NEWLINE;
    3c82:	91 05       	cpc	r25, r1
    3c84:	41 f4       	brne	.+16     	; 0x3c96 <writeFile+0x482>
    3c86:	8d e0       	ldi	r24, 0x0D	; 13
    3c88:	04 d5       	rcall	.+2568   	; 0x4692 <transmitByte>
    3c8a:	8a e0       	ldi	r24, 0x0A	; 10
    3c8c:	02 d5       	rcall	.+2564   	; 0x4692 <transmitByte>
      Uart_Transmit_IT_PC((char*)(" No free cluster!"));
    3c8e:	88 e6       	ldi	r24, 0x68	; 104
    3c90:	96 e0       	ldi	r25, 0x06	; 6
    3c92:	98 d3       	rcall	.+1840   	; 0x43c4 <Uart_Transmit_IT_PC>
	  return;
    3c94:	98 c1       	rjmp	.+816    	; 0x3fc6 <writeFile+0x7b2>
   }

   getSetNextCluster(prevCluster, SET, cluster);
    3c96:	8b 01       	movw	r16, r22
    3c98:	9c 01       	movw	r18, r24
    3c9a:	41 e0       	ldi	r20, 0x01	; 1
    3c9c:	c3 01       	movw	r24, r6
    3c9e:	b2 01       	movw	r22, r4
    3ca0:	0e 94 71 15 	call	0x2ae2	; 0x2ae2 <getSetNextCluster>
   getSetNextCluster(cluster, SET, EOF);   //last cluster of the file, marked EOF
    3ca4:	0f ef       	ldi	r16, 0xFF	; 255
    3ca6:	1f ef       	ldi	r17, 0xFF	; 255
    3ca8:	2f ef       	ldi	r18, 0xFF	; 255
    3caa:	3f e0       	ldi	r19, 0x0F	; 15
    3cac:	41 e0       	ldi	r20, 0x01	; 1
    3cae:	c7 01       	movw	r24, r14
    3cb0:	b6 01       	movw	r22, r12
    3cb2:	0e 94 71 15 	call	0x2ae2	; 0x2ae2 <getSetNextCluster>
    3cb6:	80 e0       	ldi	r24, 0x00	; 0
      break;
   } 
	  
   prevCluster = cluster;

   cluster = searchNextFreeCluster(prevCluster); //look for a free cluster starting from the current cluster
    3cb8:	26 01       	movw	r4, r12
    3cba:	37 01       	movw	r6, r14
	  return;
   }

   getSetNextCluster(prevCluster, SET, cluster);
   getSetNextCluster(cluster, SET, EOF);   //last cluster of the file, marked EOF
}        
    3cbc:	74 ce       	rjmp	.-792    	; 0x39a6 <writeFile+0x192>

getSetFreeCluster (NEXT_FREE, SET, cluster); //update FSinfo next free cluster entry

if(appendFile)  //executes this loop if file is to be appended
{
  SD_readSingleBlock (appendFileSector);    
    3cbe:	60 91 4b 0f 	lds	r22, 0x0F4B	; 0x800f4b <appendFileSector>
    3cc2:	70 91 4c 0f 	lds	r23, 0x0F4C	; 0x800f4c <appendFileSector+0x1>
    3cc6:	80 91 4d 0f 	lds	r24, 0x0F4D	; 0x800f4d <appendFileSector+0x2>
    3cca:	90 91 4e 0f 	lds	r25, 0x0F4E	; 0x800f4e <appendFileSector+0x3>
    3cce:	80 d2       	rcall	.+1280   	; 0x41d0 <SD_readSingleBlock>
    3cd0:	e0 91 dd 08 	lds	r30, 0x08DD	; 0x8008dd <appendFileLocation>
  dir = (struct dir_Structure *) &buffer[appendFileLocation]; 
    3cd4:	f0 91 de 08 	lds	r31, 0x08DE	; 0x8008de <appendFileLocation+0x1>
    3cd8:	ed 5e       	subi	r30, 0xED	; 237
    3cda:	f4 4f       	sbci	r31, 0xF4	; 244
  extraMemory = fileSize - dir->fileSize;
    3cdc:	80 91 f4 08 	lds	r24, 0x08F4	; 0x8008f4 <fileSize>
    3ce0:	90 91 f5 08 	lds	r25, 0x08F5	; 0x8008f5 <fileSize+0x1>
    3ce4:	a0 91 f6 08 	lds	r26, 0x08F6	; 0x8008f6 <fileSize+0x2>
    3ce8:	b0 91 f7 08 	lds	r27, 0x08F7	; 0x8008f7 <fileSize+0x3>
    3cec:	44 8d       	ldd	r20, Z+28	; 0x1c
    3cee:	55 8d       	ldd	r21, Z+29	; 0x1d
    3cf0:	66 8d       	ldd	r22, Z+30	; 0x1e
    3cf2:	77 8d       	ldd	r23, Z+31	; 0x1f
    3cf4:	6c 01       	movw	r12, r24
  dir->fileSize = fileSize;
    3cf6:	7d 01       	movw	r14, r26
    3cf8:	c4 1a       	sub	r12, r20
    3cfa:	d5 0a       	sbc	r13, r21
    3cfc:	e6 0a       	sbc	r14, r22
  SD_writeSingleBlock (appendFileSector);
    3cfe:	f7 0a       	sbc	r15, r23
    3d00:	84 8f       	std	Z+28, r24	; 0x1c
    3d02:	95 8f       	std	Z+29, r25	; 0x1d
    3d04:	a6 8f       	std	Z+30, r26	; 0x1e
    3d06:	b7 8f       	std	Z+31, r27	; 0x1f
    3d08:	60 91 4b 0f 	lds	r22, 0x0F4B	; 0x800f4b <appendFileSector>
    3d0c:	70 91 4c 0f 	lds	r23, 0x0F4C	; 0x800f4c <appendFileSector+0x1>
    3d10:	80 91 4d 0f 	lds	r24, 0x0F4D	; 0x800f4d <appendFileSector+0x2>
  freeMemoryUpdate (REMOVE, extraMemory); //updating free memory count in FSinfo sector;
    3d14:	90 91 4e 0f 	lds	r25, 0x0F4E	; 0x800f4e <appendFileSector+0x3>
    3d18:	83 d2       	rcall	.+1286   	; 0x4220 <SD_writeSingleBlock>
    3d1a:	b7 01       	movw	r22, r14

  
  TX_NEWLINE;
    3d1c:	a6 01       	movw	r20, r12
    3d1e:	81 e0       	ldi	r24, 0x01	; 1
    3d20:	3e da       	rcall	.-2948   	; 0x319e <freeMemoryUpdate>
    3d22:	8d e0       	ldi	r24, 0x0D	; 13
    3d24:	b6 d4       	rcall	.+2412   	; 0x4692 <transmitByte>
    3d26:	8a e0       	ldi	r24, 0x0A	; 10
  Uart_Transmit_IT_PC((char*)(" File appended!"));
    3d28:	b4 d4       	rcall	.+2408   	; 0x4692 <transmitByte>
    3d2a:	84 e9       	ldi	r24, 0x94	; 148
    3d2c:	96 e0       	ldi	r25, 0x06	; 6
    3d2e:	4a d3       	rcall	.+1684   	; 0x43c4 <Uart_Transmit_IT_PC>
  TX_NEWLINE;
    3d30:	8d e0       	ldi	r24, 0x0D	; 13
    3d32:	af d4       	rcall	.+2398   	; 0x4692 <transmitByte>
    3d34:	8a e0       	ldi	r24, 0x0A	; 10
    3d36:	ad d4       	rcall	.+2394   	; 0x4692 <transmitByte>
    3d38:	46 c1       	rjmp	.+652    	; 0x3fc6 <writeFile+0x7b2>
    3d3a:	c0 90 06 09 	lds	r12, 0x0906	; 0x800906 <rootCluster>
  return;
}

//executes following portion when new file is created

prevCluster = rootCluster; //root cluster
    3d3e:	d0 90 07 09 	lds	r13, 0x0907	; 0x800907 <rootCluster+0x1>
    3d42:	e0 90 08 09 	lds	r14, 0x0908	; 0x800908 <rootCluster+0x2>
    3d46:	f0 90 09 09 	lds	r15, 0x0909	; 0x800909 <rootCluster+0x3>
    3d4a:	cb 82       	std	Y+3, r12	; 0x03
    3d4c:	dc 82       	std	Y+4, r13	; 0x04
    3d4e:	ed 82       	std	Y+5, r14	; 0x05
    3d50:	fe 82       	std	Y+6, r15	; 0x06
    3d52:	19 82       	std	Y+1, r1	; 0x01
    3d54:	2f 81       	ldd	r18, Y+7	; 0x07
//Arguments: pointer to the file name
//return: none
//************************************************************************************
void writeFile (unsigned char *fileName, unsigned char * INPUT)
{
unsigned char j, data, error, fileCreatedFlag = 0, start = 0, appendFile = 0, sectorEndFlag = 0, sector;
    3d56:	38 85       	ldd	r19, Y+8	; 0x08
    3d58:	25 5f       	subi	r18, 0xF5	; 245
    3d5a:	3f 4f       	sbci	r19, 0xFF	; 255
    3d5c:	68 94       	set
    3d5e:	66 24       	eor	r6, r6

        if((dir->name[0] == EMPTY) || (dir->name[0] == DELETED))  //looking for an empty slot to enter file info
		{
		  for(j=0; j<11; j++)
  			dir->name[j] = fileName[j];
		  dir->attrib = ATTR_ARCHIVE;	//settting file attribute as 'archive'
    3d60:	65 f8       	bld	r6, 5
    3d62:	0f 2e       	mov	r0, r31
    3d64:	f4 e8       	ldi	r31, 0x84	; 132
		  dir->NTreserved = 0;			//always set to 0
		  dir->timeTenth = 0;			//always set to 0
		  dir->createTime = 0x9684;		//fixed time of creation
    3d66:	2f 2e       	mov	r2, r31
    3d68:	f6 e9       	ldi	r31, 0x96	; 150
    3d6a:	3f 2e       	mov	r3, r31
    3d6c:	f0 2d       	mov	r31, r0
    3d6e:	0f 2e       	mov	r0, r31
    3d70:	f7 e3       	ldi	r31, 0x37	; 55
		  dir->createDate = 0x3a37;		//fixed date of creation
    3d72:	4f 2e       	mov	r4, r31
    3d74:	fa e3       	ldi	r31, 0x3A	; 58
    3d76:	5f 2e       	mov	r5, r31
    3d78:	f0 2d       	mov	r31, r0
    3d7a:	ea 88       	ldd	r14, Y+18	; 0x12
    3d7c:	fb 88       	ldd	r15, Y+19	; 0x13
    3d7e:	cc 88       	ldd	r12, Y+20	; 0x14
    3d80:	dd 88       	ldd	r13, Y+21	; 0x15
    3d82:	3e 87       	std	Y+14, r19	; 0x0e
    3d84:	2d 87       	std	Y+13, r18	; 0x0d
    3d86:	6b 81       	ldd	r22, Y+3	; 0x03

prevCluster = rootCluster; //root cluster

while(1)
{
   firstSector = getFirstSector (prevCluster);
    3d88:	7c 81       	ldd	r23, Y+4	; 0x04
    3d8a:	8d 81       	ldd	r24, Y+5	; 0x05
    3d8c:	9e 81       	ldd	r25, Y+6	; 0x06
    3d8e:	0e 94 50 15 	call	0x2aa0	; 0x2aa0 <getFirstSector>
    3d92:	69 87       	std	Y+9, r22	; 0x09
    3d94:	7a 87       	std	Y+10, r23	; 0x0a
    3d96:	8b 87       	std	Y+11, r24	; 0x0b
    3d98:	9c 87       	std	Y+12, r25	; 0x0c
    3d9a:	80 91 14 0d 	lds	r24, 0x0D14	; 0x800d14 <sectorPerCluster>

   for(sector = 0; sector < sectorPerCluster; sector++)
    3d9e:	90 91 15 0d 	lds	r25, 0x0D15	; 0x800d15 <sectorPerCluster+0x1>
    3da2:	89 2b       	or	r24, r25
    3da4:	09 f4       	brne	.+2      	; 0x3da8 <writeFile+0x594>
    3da6:	9f c0       	rjmp	.+318    	; 0x3ee6 <writeFile+0x6d2>
    3da8:	71 2c       	mov	r7, r1
    3daa:	89 84       	ldd	r8, Y+9	; 0x09
   {
     SD_readSingleBlock (firstSector + sector);
    3dac:	9a 84       	ldd	r9, Y+10	; 0x0a
    3dae:	ab 84       	ldd	r10, Y+11	; 0x0b
    3db0:	bc 84       	ldd	r11, Y+12	; 0x0c
    3db2:	87 0c       	add	r8, r7
    3db4:	91 1c       	adc	r9, r1
    3db6:	a1 1c       	adc	r10, r1
    3db8:	b1 1c       	adc	r11, r1
    3dba:	c5 01       	movw	r24, r10
    3dbc:	b4 01       	movw	r22, r8
    3dbe:	08 d2       	rcall	.+1040   	; 0x41d0 <SD_readSingleBlock>
    3dc0:	80 91 f8 08 	lds	r24, 0x08F8	; 0x8008f8 <bytesPerSector>
	

     for(i=0; i<bytesPerSector; i+=32)
    3dc4:	90 91 f9 08 	lds	r25, 0x08F9	; 0x8008f9 <bytesPerSector+0x1>
    3dc8:	89 2b       	or	r24, r25
    3dca:	09 f4       	brne	.+2      	; 0x3dce <writeFile+0x5ba>
    3dcc:	81 c0       	rjmp	.+258    	; 0x3ed0 <writeFile+0x6bc>
    3dce:	59 81       	ldd	r21, Y+1	; 0x01
    3dd0:	51 11       	cpse	r21, r1
     {
	    dir = (struct dir_Structure *) &buffer[i];

		if(fileCreatedFlag)   //to mark last directory entry with 0x00 (empty) mark
    3dd2:	07 c0       	rjmp	.+14     	; 0x3de2 <writeFile+0x5ce>
    3dd4:	83 e1       	ldi	r24, 0x13	; 19
    3dd6:	9b e0       	ldi	r25, 0x0B	; 11
    3dd8:	00 e0       	ldi	r16, 0x00	; 0
    3dda:	10 e0       	ldi	r17, 0x00	; 0
    3ddc:	06 c0       	rjmp	.+12     	; 0x3dea <writeFile+0x5d6>
    3dde:	80 96       	adiw	r24, 0x20	; 32
    3de0:	04 c0       	rjmp	.+8      	; 0x3dea <writeFile+0x5d6>
    3de2:	e3 e1       	ldi	r30, 0x13	; 19
    3de4:	fb e0       	ldi	r31, 0x0B	; 11
     SD_readSingleBlock (firstSector + sector);
	

     for(i=0; i<bytesPerSector; i+=32)
     {
	    dir = (struct dir_Structure *) &buffer[i];
    3de6:	10 82       	st	Z, r1
    3de8:	ee c0       	rjmp	.+476    	; 0x3fc6 <writeFile+0x7b2>

		if(fileCreatedFlag)   //to mark last directory entry with 0x00 (empty) mark
		 { 					  //indicating end of the directory file list
		   dir->name[0] = 0x00;
    3dea:	fc 01       	movw	r30, r24
           return;
    3dec:	20 81       	ld	r18, Z
         }

        if((dir->name[0] == EMPTY) || (dir->name[0] == DELETED))  //looking for an empty slot to enter file info
    3dee:	22 23       	and	r18, r18
    3df0:	19 f0       	breq	.+6      	; 0x3df8 <writeFile+0x5e4>
    3df2:	25 3e       	cpi	r18, 0xE5	; 229
    3df4:	09 f0       	breq	.+2      	; 0x3df8 <writeFile+0x5e4>
    3df6:	62 c0       	rjmp	.+196    	; 0x3ebc <writeFile+0x6a8>
    3df8:	ef 81       	ldd	r30, Y+7	; 0x07
    3dfa:	f8 85       	ldd	r31, Y+8	; 0x08
    3dfc:	dc 01       	movw	r26, r24
    3dfe:	21 91       	ld	r18, Z+
    3e00:	2d 93       	st	X+, r18
		{
		  for(j=0; j<11; j++)
  			dir->name[j] = fileName[j];
    3e02:	4d 85       	ldd	r20, Y+13	; 0x0d
    3e04:	5e 85       	ldd	r21, Y+14	; 0x0e
           return;
         }

        if((dir->name[0] == EMPTY) || (dir->name[0] == DELETED))  //looking for an empty slot to enter file info
		{
		  for(j=0; j<11; j++)
    3e06:	4e 17       	cp	r20, r30
    3e08:	5f 07       	cpc	r21, r31
    3e0a:	c9 f7       	brne	.-14     	; 0x3dfe <writeFile+0x5ea>
    3e0c:	dc 01       	movw	r26, r24
    3e0e:	1b 96       	adiw	r26, 0x0b	; 11
  			dir->name[j] = fileName[j];
		  dir->attrib = ATTR_ARCHIVE;	//settting file attribute as 'archive'
    3e10:	6c 92       	st	X, r6
    3e12:	1b 97       	sbiw	r26, 0x0b	; 11
    3e14:	1c 96       	adiw	r26, 0x0c	; 12
    3e16:	1c 92       	st	X, r1
		  dir->NTreserved = 0;			//always set to 0
    3e18:	1c 97       	sbiw	r26, 0x0c	; 12
    3e1a:	1d 96       	adiw	r26, 0x0d	; 13
    3e1c:	1c 92       	st	X, r1
		  dir->timeTenth = 0;			//always set to 0
    3e1e:	1d 97       	sbiw	r26, 0x0d	; 13
    3e20:	1f 96       	adiw	r26, 0x0f	; 15
    3e22:	3c 92       	st	X, r3
		  dir->createTime = 0x9684;		//fixed time of creation
    3e24:	2e 92       	st	-X, r2
    3e26:	1e 97       	sbiw	r26, 0x0e	; 14
    3e28:	51 96       	adiw	r26, 0x11	; 17
    3e2a:	5c 92       	st	X, r5
		  dir->createDate = 0x3a37;		//fixed date of creation
    3e2c:	4e 92       	st	-X, r4
    3e2e:	50 97       	sbiw	r26, 0x10	; 16
		  dir->lastAccessDate = 0x3a37;	//fixed date of last access
    3e30:	53 96       	adiw	r26, 0x13	; 19
    3e32:	5c 92       	st	X, r5
		  dir->writeTime = 0x9684;		//fixed time of last write
    3e34:	4e 92       	st	-X, r4
    3e36:	52 97       	sbiw	r26, 0x12	; 18
    3e38:	57 96       	adiw	r26, 0x17	; 23
		  dir->writeDate = 0x3a37;		//fixed date of last write
    3e3a:	3c 92       	st	X, r3
    3e3c:	2e 92       	st	-X, r2
    3e3e:	56 97       	sbiw	r26, 0x16	; 22
    3e40:	59 96       	adiw	r26, 0x19	; 25
		  dir->firstClusterHI = firstClusterHigh;
    3e42:	5c 92       	st	X, r5
    3e44:	4e 92       	st	-X, r4
    3e46:	58 97       	sbiw	r26, 0x18	; 24
    3e48:	55 96       	adiw	r26, 0x15	; 21
		  dir->firstClusterLO = firstClusterLow;
    3e4a:	fc 92       	st	X, r15
    3e4c:	ee 92       	st	-X, r14
    3e4e:	54 97       	sbiw	r26, 0x14	; 20
		  dir->fileSize = fileSize;
    3e50:	5b 96       	adiw	r26, 0x1b	; 27
    3e52:	dc 92       	st	X, r13
    3e54:	ce 92       	st	-X, r12
    3e56:	5a 97       	sbiw	r26, 0x1a	; 26
    3e58:	40 91 f4 08 	lds	r20, 0x08F4	; 0x8008f4 <fileSize>
    3e5c:	50 91 f5 08 	lds	r21, 0x08F5	; 0x8008f5 <fileSize+0x1>
    3e60:	60 91 f6 08 	lds	r22, 0x08F6	; 0x8008f6 <fileSize+0x2>
    3e64:	70 91 f7 08 	lds	r23, 0x08F7	; 0x8008f7 <fileSize+0x3>
    3e68:	fc 01       	movw	r30, r24

		  SD_writeSingleBlock (firstSector + sector);
    3e6a:	44 8f       	std	Z+28, r20	; 0x1c
    3e6c:	55 8f       	std	Z+29, r21	; 0x1d
    3e6e:	66 8f       	std	Z+30, r22	; 0x1e
    3e70:	77 8f       	std	Z+31, r23	; 0x1f
		  fileCreatedFlag = 1;

		  TX_NEWLINE;
    3e72:	c5 01       	movw	r24, r10
    3e74:	b4 01       	movw	r22, r8
    3e76:	d4 d1       	rcall	.+936    	; 0x4220 <SD_writeSingleBlock>
    3e78:	8d e0       	ldi	r24, 0x0D	; 13
    3e7a:	0b d4       	rcall	.+2070   	; 0x4692 <transmitByte>
    3e7c:	8a e0       	ldi	r24, 0x0A	; 10
		  TX_NEWLINE;
    3e7e:	09 d4       	rcall	.+2066   	; 0x4692 <transmitByte>
    3e80:	8d e0       	ldi	r24, 0x0D	; 13
    3e82:	07 d4       	rcall	.+2062   	; 0x4692 <transmitByte>
    3e84:	8a e0       	ldi	r24, 0x0A	; 10
    3e86:	05 d4       	rcall	.+2058   	; 0x4692 <transmitByte>
    3e88:	84 ea       	ldi	r24, 0xA4	; 164
		  Uart_Transmit_IT_PC((char*)(" File Created!"));
    3e8a:	96 e0       	ldi	r25, 0x06	; 6
    3e8c:	9b d2       	rcall	.+1334   	; 0x43c4 <Uart_Transmit_IT_PC>
    3e8e:	40 91 f4 08 	lds	r20, 0x08F4	; 0x8008f4 <fileSize>

		  freeMemoryUpdate (REMOVE, fileSize); //updating free memory count in FSinfo sector
    3e92:	50 91 f5 08 	lds	r21, 0x08F5	; 0x8008f5 <fileSize+0x1>
    3e96:	60 91 f6 08 	lds	r22, 0x08F6	; 0x8008f6 <fileSize+0x2>
    3e9a:	70 91 f7 08 	lds	r23, 0x08F7	; 0x8008f7 <fileSize+0x3>
    3e9e:	81 e0       	ldi	r24, 0x01	; 1
    3ea0:	7e d9       	rcall	.-3332   	; 0x319e <freeMemoryUpdate>
    3ea2:	00 5e       	subi	r16, 0xE0	; 224
    3ea4:	1f 4f       	sbci	r17, 0xFF	; 255
    3ea6:	80 91 f8 08 	lds	r24, 0x08F8	; 0x8008f8 <bytesPerSector>
   for(sector = 0; sector < sectorPerCluster; sector++)
   {
     SD_readSingleBlock (firstSector + sector);
	

     for(i=0; i<bytesPerSector; i+=32)
    3eaa:	90 91 f9 08 	lds	r25, 0x08F9	; 0x8008f9 <bytesPerSector+0x1>
    3eae:	08 17       	cp	r16, r24
    3eb0:	19 07       	cpc	r17, r25
    3eb2:	08 f4       	brcc	.+2      	; 0x3eb6 <writeFile+0x6a2>
    3eb4:	69 c0       	rjmp	.+210    	; 0x3f88 <writeFile+0x774>
    3eb6:	f1 e0       	ldi	r31, 0x01	; 1
    3eb8:	f9 83       	std	Y+1, r31	; 0x01
    3eba:	0a c0       	rjmp	.+20     	; 0x3ed0 <writeFile+0x6bc>
		  dir->firstClusterHI = firstClusterHigh;
		  dir->firstClusterLO = firstClusterLow;
		  dir->fileSize = fileSize;

		  SD_writeSingleBlock (firstSector + sector);
		  fileCreatedFlag = 1;
    3ebc:	00 5e       	subi	r16, 0xE0	; 224
    3ebe:	1f 4f       	sbci	r17, 0xFF	; 255
   for(sector = 0; sector < sectorPerCluster; sector++)
   {
     SD_readSingleBlock (firstSector + sector);
	

     for(i=0; i<bytesPerSector; i+=32)
    3ec0:	20 91 f8 08 	lds	r18, 0x08F8	; 0x8008f8 <bytesPerSector>
    3ec4:	30 91 f9 08 	lds	r19, 0x08F9	; 0x8008f9 <bytesPerSector+0x1>
    3ec8:	02 17       	cp	r16, r18
    3eca:	13 07       	cpc	r17, r19
    3ecc:	08 f4       	brcc	.+2      	; 0x3ed0 <writeFile+0x6bc>
    3ece:	87 cf       	rjmp	.-242    	; 0x3dde <writeFile+0x5ca>
    3ed0:	73 94       	inc	r7
    3ed2:	80 91 14 0d 	lds	r24, 0x0D14	; 0x800d14 <sectorPerCluster>

while(1)
{
   firstSector = getFirstSector (prevCluster);

   for(sector = 0; sector < sectorPerCluster; sector++)
    3ed6:	90 91 15 0d 	lds	r25, 0x0D15	; 0x800d15 <sectorPerCluster+0x1>
    3eda:	27 2d       	mov	r18, r7
    3edc:	30 e0       	ldi	r19, 0x00	; 0
    3ede:	28 17       	cp	r18, r24
    3ee0:	39 07       	cpc	r19, r25
    3ee2:	08 f4       	brcc	.+2      	; 0x3ee6 <writeFile+0x6d2>
    3ee4:	62 cf       	rjmp	.-316    	; 0x3daa <writeFile+0x596>
    3ee6:	00 e0       	ldi	r16, 0x00	; 0
    3ee8:	10 e0       	ldi	r17, 0x00	; 0
	     
        }
     }
   }

   cluster = getSetNextCluster (prevCluster, GET, 0);
    3eea:	98 01       	movw	r18, r16
    3eec:	40 e0       	ldi	r20, 0x00	; 0
    3eee:	6b 81       	ldd	r22, Y+3	; 0x03
    3ef0:	7c 81       	ldd	r23, Y+4	; 0x04
    3ef2:	8d 81       	ldd	r24, Y+5	; 0x05
    3ef4:	9e 81       	ldd	r25, Y+6	; 0x06
    3ef6:	0e 94 71 15 	call	0x2ae2	; 0x2ae2 <getSetNextCluster>
    3efa:	67 3f       	cpi	r22, 0xF7	; 247
    3efc:	5f ef       	ldi	r21, 0xFF	; 255

   if(cluster > 0x0ffffff6)
    3efe:	75 07       	cpc	r23, r21
    3f00:	85 07       	cpc	r24, r21
    3f02:	5f e0       	ldi	r21, 0x0F	; 15
    3f04:	95 07       	cpc	r25, r21
    3f06:	68 f1       	brcs	.+90     	; 0x3f62 <writeFile+0x74e>
    3f08:	6f 3f       	cpi	r22, 0xFF	; 255
   {
      if(cluster == EOF)   //this situation will come when total files in root is multiple of (32*sectorPerCluster)
    3f0a:	7f 4f       	sbci	r23, 0xFF	; 255
    3f0c:	8f 4f       	sbci	r24, 0xFF	; 255
    3f0e:	9f 40       	sbci	r25, 0x0F	; 15
    3f10:	21 f5       	brne	.+72     	; 0x3f5a <writeFile+0x746>
    3f12:	6b 81       	ldd	r22, Y+3	; 0x03
	  {  
		cluster = searchNextFreeCluster(prevCluster); //find next cluster for root directory entries
    3f14:	7c 81       	ldd	r23, Y+4	; 0x04
    3f16:	8d 81       	ldd	r24, Y+5	; 0x05
    3f18:	9e 81       	ldd	r25, Y+6	; 0x06
    3f1a:	3e d8       	rcall	.-3972   	; 0x2f98 <searchNextFreeCluster>
    3f1c:	86 2e       	mov	r8, r22
    3f1e:	97 2e       	mov	r9, r23
    3f20:	a8 2e       	mov	r10, r24
    3f22:	b9 2e       	mov	r11, r25
    3f24:	06 2f       	mov	r16, r22
    3f26:	17 2f       	mov	r17, r23
		getSetNextCluster(prevCluster, SET, cluster); //link the new cluster of root to the previous cluster
    3f28:	28 2f       	mov	r18, r24
    3f2a:	39 2f       	mov	r19, r25
    3f2c:	41 e0       	ldi	r20, 0x01	; 1
    3f2e:	6b 81       	ldd	r22, Y+3	; 0x03
    3f30:	7c 81       	ldd	r23, Y+4	; 0x04
    3f32:	8d 81       	ldd	r24, Y+5	; 0x05
    3f34:	9e 81       	ldd	r25, Y+6	; 0x06
    3f36:	0e 94 71 15 	call	0x2ae2	; 0x2ae2 <getSetNextCluster>
    3f3a:	0f ef       	ldi	r16, 0xFF	; 255
		getSetNextCluster(cluster, SET, EOF);  //set the new cluster as end of the root directory
    3f3c:	1f ef       	ldi	r17, 0xFF	; 255
    3f3e:	2f ef       	ldi	r18, 0xFF	; 255
    3f40:	3f e0       	ldi	r19, 0x0F	; 15
    3f42:	41 e0       	ldi	r20, 0x01	; 1
    3f44:	68 2d       	mov	r22, r8
    3f46:	79 2d       	mov	r23, r9
    3f48:	8a 2d       	mov	r24, r10
    3f4a:	9b 2d       	mov	r25, r11
    3f4c:	0e 94 71 15 	call	0x2ae2	; 0x2ae2 <getSetNextCluster>
    3f50:	8b 82       	std	Y+3, r8	; 0x03

   if(cluster > 0x0ffffff6)
   {
      if(cluster == EOF)   //this situation will come when total files in root is multiple of (32*sectorPerCluster)
	  {  
		cluster = searchNextFreeCluster(prevCluster); //find next cluster for root directory entries
    3f52:	9c 82       	std	Y+4, r9	; 0x04
    3f54:	ad 82       	std	Y+5, r10	; 0x05
    3f56:	be 82       	std	Y+6, r11	; 0x06
    3f58:	08 c0       	rjmp	.+16     	; 0x3f6a <writeFile+0x756>
    3f5a:	83 eb       	ldi	r24, 0xB3	; 179
		getSetNextCluster(cluster, SET, EOF);  //set the new cluster as end of the root directory
      } 

      else
      {	
	    Uart_Transmit_IT_PC((char*)("End of Cluster Chain")); 
    3f5c:	96 e0       	ldi	r25, 0x06	; 6
    3f5e:	32 d2       	rcall	.+1124   	; 0x43c4 <Uart_Transmit_IT_PC>
    3f60:	32 c0       	rjmp	.+100    	; 0x3fc6 <writeFile+0x7b2>
    3f62:	6b 83       	std	Y+3, r22	; 0x03
	    return;
    3f64:	7c 83       	std	Y+4, r23	; 0x04
	     
        }
     }
   }

   cluster = getSetNextCluster (prevCluster, GET, 0);
    3f66:	8d 83       	std	Y+5, r24	; 0x05
    3f68:	9e 83       	std	Y+6, r25	; 0x06
    3f6a:	2b 81       	ldd	r18, Y+3	; 0x03
    3f6c:	3c 81       	ldd	r19, Y+4	; 0x04
      {	
	    Uart_Transmit_IT_PC((char*)("End of Cluster Chain")); 
	    return;
      }
   }
   if(cluster == 0) {Uart_Transmit_IT_PC((char*)("Error in getting cluster")); return;}
    3f6e:	4d 81       	ldd	r20, Y+5	; 0x05
    3f70:	5e 81       	ldd	r21, Y+6	; 0x06
    3f72:	23 2b       	or	r18, r19
    3f74:	24 2b       	or	r18, r20
    3f76:	25 2b       	or	r18, r21
    3f78:	09 f0       	breq	.+2      	; 0x3f7c <writeFile+0x768>
    3f7a:	05 cf       	rjmp	.-502    	; 0x3d86 <writeFile+0x572>
    3f7c:	84 e1       	ldi	r24, 0x14	; 20
    3f7e:	96 e0       	ldi	r25, 0x06	; 6
    3f80:	21 d2       	rcall	.+1090   	; 0x43c4 <Uart_Transmit_IT_PC>
    3f82:	21 c0       	rjmp	.+66     	; 0x3fc6 <writeFile+0x7b2>
    3f84:	23 2c       	mov	r2, r3
    3f86:	58 cd       	rjmp	.-1360   	; 0x3a38 <writeFile+0x224>
    3f88:	f8 01       	movw	r30, r16
   }
   else
   {
      startBlock = getFirstSector (cluster);
	  i=0;
	  j=0;
    3f8a:	ed 5e       	subi	r30, 0xED	; 237
    3f8c:	f4 4f       	sbci	r31, 0xF4	; 244
     SD_readSingleBlock (firstSector + sector);
	

     for(i=0; i<bytesPerSector; i+=32)
     {
	    dir = (struct dir_Structure *) &buffer[i];
    3f8e:	2b cf       	rjmp	.-426    	; 0x3de6 <writeFile+0x5d2>
    3f90:	3f ef       	ldi	r19, 0xFF	; 255
    3f92:	83 1a       	sub	r8, r19
    3f94:	93 0a       	sbc	r9, r19
	   error = SD_writeSingleBlock (startBlock);
       j++;
	   if(j == sectorPerCluster) {j = 0; break;}
	   startBlock++; 
     }
	 counter ++;
    3f96:	a3 0a       	sbc	r10, r19
    3f98:	b3 0a       	sbc	r11, r19
    3f9a:	23 2c       	mov	r2, r3
    3f9c:	4d cd       	rjmp	.-1382   	; 0x3a38 <writeFile+0x224>
    3f9e:	80 91 f4 08 	lds	r24, 0x08F4	; 0x8008f4 <fileSize>
    3fa2:	90 91 f5 08 	lds	r25, 0x08F5	; 0x8008f5 <fileSize+0x1>
	}while (data != '~');

   if(data == '~') 
   {
      fileSize--;	//to remove the last entered '~' character
    3fa6:	a0 91 f6 08 	lds	r26, 0x08F6	; 0x8008f6 <fileSize+0x2>
    3faa:	b0 91 f7 08 	lds	r27, 0x08F7	; 0x8008f7 <fileSize+0x3>
    3fae:	01 97       	sbiw	r24, 0x01	; 1
    3fb0:	a1 09       	sbc	r26, r1
    3fb2:	b1 09       	sbc	r27, r1
    3fb4:	80 93 f4 08 	sts	0x08F4, r24	; 0x8008f4 <fileSize>
    3fb8:	90 93 f5 08 	sts	0x08F5, r25	; 0x8008f5 <fileSize+0x1>
    3fbc:	a0 93 f6 08 	sts	0x08F6, r26	; 0x8008f6 <fileSize+0x2>
    3fc0:	b0 93 f7 08 	sts	0x08F7, r27	; 0x8008f7 <fileSize+0x3>
    3fc4:	42 ce       	rjmp	.-892    	; 0x3c4a <writeFile+0x436>
    3fc6:	67 96       	adiw	r28, 0x17	; 23
    3fc8:	0f b6       	in	r0, 0x3f	; 63
    3fca:	f8 94       	cli
   
   prevCluster = cluster;
 }
 
 return;
}
    3fcc:	de bf       	out	0x3e, r29	; 62
    3fce:	0f be       	out	0x3f, r0	; 63
    3fd0:	cd bf       	out	0x3d, r28	; 61
    3fd2:	df 91       	pop	r29
    3fd4:	cf 91       	pop	r28
    3fd6:	1f 91       	pop	r17
    3fd8:	0f 91       	pop	r16
    3fda:	ff 90       	pop	r15
    3fdc:	ef 90       	pop	r14
    3fde:	df 90       	pop	r13
    3fe0:	cf 90       	pop	r12
    3fe2:	bf 90       	pop	r11
    3fe4:	af 90       	pop	r10
    3fe6:	9f 90       	pop	r9
    3fe8:	8f 90       	pop	r8
    3fea:	7f 90       	pop	r7
    3fec:	6f 90       	pop	r6
    3fee:	5f 90       	pop	r5
    3ff0:	4f 90       	pop	r4
    3ff2:	3f 90       	pop	r3
    3ff4:	2f 90       	pop	r2
    3ff6:	08 95       	ret

00003ff8 <SD_sendCommand>:
    3ff8:	cf 92       	push	r12
    3ffa:	df 92       	push	r13
    3ffc:	ef 92       	push	r14
response = SD_sendCommand(ERASE_SELECTED_BLOCKS, 0); //erase all selected blocks
if(response != 0x00)
  return response;

return 0; //normal return
}
    3ffe:	ff 92       	push	r15
    4000:	1f 93       	push	r17
    4002:	cf 93       	push	r28
    4004:	df 93       	push	r29
    4006:	18 2f       	mov	r17, r24
    4008:	6a 01       	movw	r12, r20
    400a:	7b 01       	movw	r14, r22
    400c:	80 91 1c 0d 	lds	r24, 0x0D1C	; 0x800d1c <SDHC_flag>
    4010:	81 11       	cpse	r24, r1
    4012:	15 c0       	rjmp	.+42     	; 0x403e <SD_sendCommand+0x46>
    4014:	8f ee       	ldi	r24, 0xEF	; 239
    4016:	81 0f       	add	r24, r17
    4018:	82 30       	cpi	r24, 0x02	; 2
    401a:	40 f0       	brcs	.+16     	; 0x402c <SD_sendCommand+0x34>
    401c:	88 ee       	ldi	r24, 0xE8	; 232
    401e:	81 0f       	add	r24, r17
    4020:	82 30       	cpi	r24, 0x02	; 2
    4022:	20 f0       	brcs	.+8      	; 0x402c <SD_sendCommand+0x34>
    4024:	80 ee       	ldi	r24, 0xE0	; 224
    4026:	81 0f       	add	r24, r17
    4028:	82 30       	cpi	r24, 0x02	; 2
    402a:	48 f4       	brcc	.+18     	; 0x403e <SD_sendCommand+0x46>
    402c:	0b 2e       	mov	r0, r27
    402e:	b9 e0       	ldi	r27, 0x09	; 9
    4030:	cc 0c       	add	r12, r12
    4032:	dd 1c       	adc	r13, r13
    4034:	ee 1c       	adc	r14, r14
    4036:	ff 1c       	adc	r15, r15
    4038:	ba 95       	dec	r27
    403a:	d1 f7       	brne	.-12     	; 0x4030 <SD_sendCommand+0x38>
    403c:	b0 2d       	mov	r27, r0
    403e:	40 98       	cbi	0x08, 0	; 8
    4040:	81 2f       	mov	r24, r17
    4042:	80 64       	ori	r24, 0x40	; 64
    4044:	2e d1       	rcall	.+604    	; 0x42a2 <spi_transmit>
    4046:	8f 2d       	mov	r24, r15
    4048:	2c d1       	rcall	.+600    	; 0x42a2 <spi_transmit>
    404a:	8e 2d       	mov	r24, r14
    404c:	2a d1       	rcall	.+596    	; 0x42a2 <spi_transmit>
    404e:	8d 2d       	mov	r24, r13
    4050:	28 d1       	rcall	.+592    	; 0x42a2 <spi_transmit>
    4052:	8c 2d       	mov	r24, r12
    4054:	26 d1       	rcall	.+588    	; 0x42a2 <spi_transmit>
    4056:	18 30       	cpi	r17, 0x08	; 8
    4058:	19 f4       	brne	.+6      	; 0x4060 <SD_sendCommand+0x68>
    405a:	87 e8       	ldi	r24, 0x87	; 135
    405c:	22 d1       	rcall	.+580    	; 0x42a2 <spi_transmit>
    405e:	06 c0       	rjmp	.+12     	; 0x406c <SD_sendCommand+0x74>
    4060:	85 e9       	ldi	r24, 0x95	; 149
    4062:	1f d1       	rcall	.+574    	; 0x42a2 <spi_transmit>
    4064:	03 c0       	rjmp	.+6      	; 0x406c <SD_sendCommand+0x74>
    4066:	c1 50       	subi	r28, 0x01	; 1
    4068:	11 f4       	brne	.+4      	; 0x406e <SD_sendCommand+0x76>
    406a:	15 c0       	rjmp	.+42     	; 0x4096 <SD_sendCommand+0x9e>
    406c:	c0 e0       	ldi	r28, 0x00	; 0
    406e:	1f d1       	rcall	.+574    	; 0x42ae <spi_receive>
    4070:	d8 2f       	mov	r29, r24
    4072:	8f 3f       	cpi	r24, 0xFF	; 255
    4074:	c1 f3       	breq	.-16     	; 0x4066 <SD_sendCommand+0x6e>
    4076:	81 11       	cpse	r24, r1
    4078:	0e c0       	rjmp	.+28     	; 0x4096 <SD_sendCommand+0x9e>
    407a:	1a 33       	cpi	r17, 0x3A	; 58
    407c:	61 f4       	brne	.+24     	; 0x4096 <SD_sendCommand+0x9e>
    407e:	17 d1       	rcall	.+558    	; 0x42ae <spi_receive>
    4080:	86 ff       	sbrs	r24, 6
    4082:	04 c0       	rjmp	.+8      	; 0x408c <SD_sendCommand+0x94>
    4084:	81 e0       	ldi	r24, 0x01	; 1
    4086:	80 93 1c 0d 	sts	0x0D1C, r24	; 0x800d1c <SDHC_flag>
    408a:	02 c0       	rjmp	.+4      	; 0x4090 <SD_sendCommand+0x98>
    408c:	10 92 1c 0d 	sts	0x0D1C, r1	; 0x800d1c <SDHC_flag>
    4090:	0e d1       	rcall	.+540    	; 0x42ae <spi_receive>
    4092:	0d d1       	rcall	.+538    	; 0x42ae <spi_receive>
    4094:	0c d1       	rcall	.+536    	; 0x42ae <spi_receive>
    4096:	0b d1       	rcall	.+534    	; 0x42ae <spi_receive>
    4098:	40 9a       	sbi	0x08, 0	; 8
    409a:	8d 2f       	mov	r24, r29
    409c:	df 91       	pop	r29
    409e:	cf 91       	pop	r28
    40a0:	1f 91       	pop	r17
    40a2:	ff 90       	pop	r15
    40a4:	ef 90       	pop	r14
    40a6:	df 90       	pop	r13
    40a8:	cf 90       	pop	r12
    40aa:	08 95       	ret

000040ac <SD_init>:
    40ac:	0f 93       	push	r16
    40ae:	1f 93       	push	r17
    40b0:	cf 93       	push	r28
    40b2:	df 93       	push	r29
    40b4:	1a e0       	ldi	r17, 0x0A	; 10
    40b6:	8f ef       	ldi	r24, 0xFF	; 255
    40b8:	f4 d0       	rcall	.+488    	; 0x42a2 <spi_transmit>
    40ba:	11 50       	subi	r17, 0x01	; 1
    40bc:	e1 f7       	brne	.-8      	; 0x40b6 <SD_init+0xa>
    40be:	40 98       	cbi	0x08, 0	; 8
    40c0:	40 e0       	ldi	r20, 0x00	; 0
    40c2:	50 e0       	ldi	r21, 0x00	; 0
    40c4:	ba 01       	movw	r22, r20
    40c6:	80 e0       	ldi	r24, 0x00	; 0
    40c8:	97 df       	rcall	.-210    	; 0x3ff8 <SD_sendCommand>
    40ca:	c0 e2       	ldi	r28, 0x20	; 32
    40cc:	d0 e0       	ldi	r29, 0x00	; 0
    40ce:	08 c0       	rjmp	.+16     	; 0x40e0 <SD_init+0x34>
    40d0:	40 e0       	ldi	r20, 0x00	; 0
    40d2:	50 e0       	ldi	r21, 0x00	; 0
    40d4:	ba 01       	movw	r22, r20
    40d6:	80 e0       	ldi	r24, 0x00	; 0
    40d8:	8f df       	rcall	.-226    	; 0x3ff8 <SD_sendCommand>
    40da:	21 97       	sbiw	r28, 0x01	; 1
    40dc:	09 f4       	brne	.+2      	; 0x40e0 <SD_init+0x34>
    40de:	68 c0       	rjmp	.+208    	; 0x41b0 <SD_init+0x104>
    40e0:	81 30       	cpi	r24, 0x01	; 1
    40e2:	b1 f7       	brne	.-20     	; 0x40d0 <SD_init+0x24>
    40e4:	40 9a       	sbi	0x08, 0	; 8
    40e6:	8f ef       	ldi	r24, 0xFF	; 255
    40e8:	dc d0       	rcall	.+440    	; 0x42a2 <spi_transmit>
    40ea:	8f ef       	ldi	r24, 0xFF	; 255
    40ec:	da d0       	rcall	.+436    	; 0x42a2 <spi_transmit>
    40ee:	4a ea       	ldi	r20, 0xAA	; 170
    40f0:	51 e0       	ldi	r21, 0x01	; 1
    40f2:	60 e0       	ldi	r22, 0x00	; 0
    40f4:	70 e0       	ldi	r23, 0x00	; 0
    40f6:	88 e0       	ldi	r24, 0x08	; 8
    40f8:	7f df       	rcall	.-258    	; 0x3ff8 <SD_sendCommand>
    40fa:	ce ef       	ldi	r28, 0xFE	; 254
    40fc:	d0 e0       	ldi	r29, 0x00	; 0
    40fe:	11 c0       	rjmp	.+34     	; 0x4122 <SD_init+0x76>
    4100:	4a ea       	ldi	r20, 0xAA	; 170
    4102:	51 e0       	ldi	r21, 0x01	; 1
    4104:	60 e0       	ldi	r22, 0x00	; 0
    4106:	70 e0       	ldi	r23, 0x00	; 0
    4108:	88 e0       	ldi	r24, 0x08	; 8
    410a:	76 df       	rcall	.-276    	; 0x3ff8 <SD_sendCommand>
    410c:	21 97       	sbiw	r28, 0x01	; 1
    410e:	49 f4       	brne	.+18     	; 0x4122 <SD_init+0x76>
    4110:	8d e0       	ldi	r24, 0x0D	; 13
    4112:	bf d2       	rcall	.+1406   	; 0x4692 <transmitByte>
    4114:	8a e0       	ldi	r24, 0x0A	; 10
    4116:	bd d2       	rcall	.+1402   	; 0x4692 <transmitByte>
    4118:	81 e0       	ldi	r24, 0x01	; 1
    411a:	80 93 42 0f 	sts	0x0F42, r24	; 0x800f42 <cardType>
    411e:	01 e0       	ldi	r16, 0x01	; 1
    4120:	03 c0       	rjmp	.+6      	; 0x4128 <SD_init+0x7c>
    4122:	81 30       	cpi	r24, 0x01	; 1
    4124:	69 f7       	brne	.-38     	; 0x4100 <SD_init+0x54>
    4126:	02 e0       	ldi	r16, 0x02	; 2
    4128:	40 e0       	ldi	r20, 0x00	; 0
    412a:	50 e0       	ldi	r21, 0x00	; 0
    412c:	ba 01       	movw	r22, r20
    412e:	87 e3       	ldi	r24, 0x37	; 55
    4130:	63 df       	rcall	.-314    	; 0x3ff8 <SD_sendCommand>
    4132:	40 e0       	ldi	r20, 0x00	; 0
    4134:	50 e0       	ldi	r21, 0x00	; 0
    4136:	60 e0       	ldi	r22, 0x00	; 0
    4138:	70 e4       	ldi	r23, 0x40	; 64
    413a:	89 e2       	ldi	r24, 0x29	; 41
    413c:	5d df       	rcall	.-326    	; 0x3ff8 <SD_sendCommand>
    413e:	ce ef       	ldi	r28, 0xFE	; 254
    4140:	d0 e0       	ldi	r29, 0x00	; 0
    4142:	13 c0       	rjmp	.+38     	; 0x416a <SD_init+0xbe>
    4144:	40 e0       	ldi	r20, 0x00	; 0
    4146:	50 e0       	ldi	r21, 0x00	; 0
    4148:	ba 01       	movw	r22, r20
    414a:	87 e3       	ldi	r24, 0x37	; 55
    414c:	55 df       	rcall	.-342    	; 0x3ff8 <SD_sendCommand>
    414e:	40 e0       	ldi	r20, 0x00	; 0
    4150:	50 e0       	ldi	r21, 0x00	; 0
    4152:	60 e0       	ldi	r22, 0x00	; 0
    4154:	70 e4       	ldi	r23, 0x40	; 64
    4156:	89 e2       	ldi	r24, 0x29	; 41
    4158:	4f df       	rcall	.-354    	; 0x3ff8 <SD_sendCommand>
    415a:	21 97       	sbiw	r28, 0x01	; 1
    415c:	31 f4       	brne	.+12     	; 0x416a <SD_init+0xbe>
    415e:	8d e0       	ldi	r24, 0x0D	; 13
    4160:	98 d2       	rcall	.+1328   	; 0x4692 <transmitByte>
    4162:	8a e0       	ldi	r24, 0x0A	; 10
    4164:	96 d2       	rcall	.+1324   	; 0x4692 <transmitByte>
    4166:	12 e0       	ldi	r17, 0x02	; 2
    4168:	2d c0       	rjmp	.+90     	; 0x41c4 <SD_init+0x118>
    416a:	81 11       	cpse	r24, r1
    416c:	eb cf       	rjmp	.-42     	; 0x4144 <SD_init+0x98>
    416e:	10 92 1c 0d 	sts	0x0D1C, r1	; 0x800d1c <SDHC_flag>
    4172:	02 30       	cpi	r16, 0x02	; 2
    4174:	39 f5       	brne	.+78     	; 0x41c4 <SD_init+0x118>
    4176:	1e c0       	rjmp	.+60     	; 0x41b4 <SD_init+0x108>
    4178:	40 e0       	ldi	r20, 0x00	; 0
    417a:	50 e0       	ldi	r21, 0x00	; 0
    417c:	ba 01       	movw	r22, r20
    417e:	8a e3       	ldi	r24, 0x3A	; 58
    4180:	3b df       	rcall	.-394    	; 0x3ff8 <SD_sendCommand>
    4182:	21 97       	sbiw	r28, 0x01	; 1
    4184:	39 f4       	brne	.+14     	; 0x4194 <SD_init+0xe8>
    4186:	8d e0       	ldi	r24, 0x0D	; 13
    4188:	84 d2       	rcall	.+1288   	; 0x4692 <transmitByte>
    418a:	8a e0       	ldi	r24, 0x0A	; 10
    418c:	82 d2       	rcall	.+1284   	; 0x4692 <transmitByte>
    418e:	10 92 42 0f 	sts	0x0F42, r1	; 0x800f42 <cardType>
    4192:	02 c0       	rjmp	.+4      	; 0x4198 <SD_init+0xec>
    4194:	81 11       	cpse	r24, r1
    4196:	f0 cf       	rjmp	.-32     	; 0x4178 <SD_init+0xcc>
    4198:	80 91 1c 0d 	lds	r24, 0x0D1C	; 0x800d1c <SDHC_flag>
    419c:	81 30       	cpi	r24, 0x01	; 1
    419e:	21 f4       	brne	.+8      	; 0x41a8 <SD_init+0xfc>
    41a0:	82 e0       	ldi	r24, 0x02	; 2
    41a2:	80 93 42 0f 	sts	0x0F42, r24	; 0x800f42 <cardType>
    41a6:	0e c0       	rjmp	.+28     	; 0x41c4 <SD_init+0x118>
    41a8:	83 e0       	ldi	r24, 0x03	; 3
    41aa:	80 93 42 0f 	sts	0x0F42, r24	; 0x800f42 <cardType>
    41ae:	0a c0       	rjmp	.+20     	; 0x41c4 <SD_init+0x118>
    41b0:	11 e0       	ldi	r17, 0x01	; 1
    41b2:	08 c0       	rjmp	.+16     	; 0x41c4 <SD_init+0x118>
    41b4:	40 e0       	ldi	r20, 0x00	; 0
    41b6:	50 e0       	ldi	r21, 0x00	; 0
    41b8:	ba 01       	movw	r22, r20
    41ba:	8a e3       	ldi	r24, 0x3A	; 58
    41bc:	1d df       	rcall	.-454    	; 0x3ff8 <SD_sendCommand>
    41be:	ce ef       	ldi	r28, 0xFE	; 254
    41c0:	d0 e0       	ldi	r29, 0x00	; 0
    41c2:	e8 cf       	rjmp	.-48     	; 0x4194 <SD_init+0xe8>
    41c4:	81 2f       	mov	r24, r17
    41c6:	df 91       	pop	r29
    41c8:	cf 91       	pop	r28
    41ca:	1f 91       	pop	r17
    41cc:	0f 91       	pop	r16
    41ce:	08 95       	ret

000041d0 <SD_readSingleBlock>:
//Arguments	: none
//return	: unsigned char; will be 0 if no error,
// 			  otherwise the response byte will be sent
//******************************************************************
unsigned char SD_readSingleBlock(unsigned long startBlock)
{
    41d0:	cf 93       	push	r28
    41d2:	df 93       	push	r29
    41d4:	ab 01       	movw	r20, r22
    41d6:	bc 01       	movw	r22, r24
unsigned char response;
unsigned int i, retry=0;

 response = SD_sendCommand(READ_SINGLE_BLOCK, startBlock); //read a Block command
    41d8:	81 e1       	ldi	r24, 0x11	; 17
    41da:	0e df       	rcall	.-484    	; 0x3ff8 <SD_sendCommand>
 
 if(response != 0x00) return response; //check for SD status: 0x00 - OK (No flags set)
    41dc:	81 11       	cpse	r24, r1
    41de:	1d c0       	rjmp	.+58     	; 0x421a <SD_readSingleBlock+0x4a>

SD_CS_ASSERT;
    41e0:	40 98       	cbi	0x08, 0	; 8

retry = 0;
while(spi_receive() != 0xfe) //wait for start block token 0xfe (0x11111110)
    41e2:	c0 e0       	ldi	r28, 0x00	; 0
    41e4:	d0 e0       	ldi	r29, 0x00	; 0
    41e6:	05 c0       	rjmp	.+10     	; 0x41f2 <SD_readSingleBlock+0x22>
    41e8:	21 97       	sbiw	r28, 0x01	; 1
  if(retry++ > 0xfffe){SD_CS_DEASSERT; return 1;} //return if time-out
    41ea:	19 f4       	brne	.+6      	; 0x41f2 <SD_readSingleBlock+0x22>
    41ec:	40 9a       	sbi	0x08, 0	; 8
    41ee:	81 e0       	ldi	r24, 0x01	; 1
 if(response != 0x00) return response; //check for SD status: 0x00 - OK (No flags set)

SD_CS_ASSERT;

retry = 0;
while(spi_receive() != 0xfe) //wait for start block token 0xfe (0x11111110)
    41f0:	14 c0       	rjmp	.+40     	; 0x421a <SD_readSingleBlock+0x4a>
    41f2:	5d d0       	rcall	.+186    	; 0x42ae <spi_receive>
    41f4:	8e 3f       	cpi	r24, 0xFE	; 254
    41f6:	c1 f7       	brne	.-16     	; 0x41e8 <SD_readSingleBlock+0x18>
    41f8:	c0 e0       	ldi	r28, 0x00	; 0
  if(retry++ > 0xfffe){SD_CS_DEASSERT; return 1;} //return if time-out

for(i=0; i<512; i++) //read 512 bytes
  buffer[i] = spi_receive();
    41fa:	d0 e0       	ldi	r29, 0x00	; 0
    41fc:	58 d0       	rcall	.+176    	; 0x42ae <spi_receive>
    41fe:	fe 01       	movw	r30, r28
    4200:	ed 5e       	subi	r30, 0xED	; 237
    4202:	f4 4f       	sbci	r31, 0xF4	; 244
    4204:	80 83       	st	Z, r24

retry = 0;
while(spi_receive() != 0xfe) //wait for start block token 0xfe (0x11111110)
  if(retry++ > 0xfffe){SD_CS_DEASSERT; return 1;} //return if time-out

for(i=0; i<512; i++) //read 512 bytes
    4206:	21 96       	adiw	r28, 0x01	; 1
    4208:	c1 15       	cp	r28, r1
    420a:	82 e0       	ldi	r24, 0x02	; 2
  buffer[i] = spi_receive();

spi_receive(); //receive incoming CRC (16-bit), CRC is ignored here
    420c:	d8 07       	cpc	r29, r24
    420e:	b1 f7       	brne	.-20     	; 0x41fc <SD_readSingleBlock+0x2c>
spi_receive();
    4210:	4e d0       	rcall	.+156    	; 0x42ae <spi_receive>
    4212:	4d d0       	rcall	.+154    	; 0x42ae <spi_receive>

spi_receive(); //extra 8 clock pulses
    4214:	4c d0       	rcall	.+152    	; 0x42ae <spi_receive>
    4216:	40 9a       	sbi	0x08, 0	; 8
SD_CS_DEASSERT;
    4218:	80 e0       	ldi	r24, 0x00	; 0

return 0;
    421a:	df 91       	pop	r29
}
    421c:	cf 91       	pop	r28
    421e:	08 95       	ret

00004220 <SD_writeSingleBlock>:
    4220:	cf 93       	push	r28
//Arguments	: none
//return	: unsigned char; will be 0 if no error,
// 			  otherwise the response byte will be sent
//******************************************************************
unsigned char SD_writeSingleBlock(unsigned long startBlock)
{
    4222:	df 93       	push	r29
    4224:	ab 01       	movw	r20, r22
    4226:	bc 01       	movw	r22, r24
unsigned char response;
unsigned int i, retry=0;

 response = SD_sendCommand(WRITE_SINGLE_BLOCK, startBlock); //write a Block command
    4228:	88 e1       	ldi	r24, 0x18	; 24
    422a:	e6 de       	rcall	.-564    	; 0x3ff8 <SD_sendCommand>
  
 if(response != 0x00) return response; //check for SD status: 0x00 - OK (No flags set)
    422c:	81 11       	cpse	r24, r1
    422e:	36 c0       	rjmp	.+108    	; 0x429c <SD_writeSingleBlock+0x7c>

SD_CS_ASSERT;
    4230:	40 98       	cbi	0x08, 0	; 8

spi_transmit(0xfe);     //Send start block token 0xfe (0x11111110)
    4232:	8e ef       	ldi	r24, 0xFE	; 254
    4234:	36 d0       	rcall	.+108    	; 0x42a2 <spi_transmit>

for(i=0; i<512; i++)    //send 512 bytes data
    4236:	c0 e0       	ldi	r28, 0x00	; 0
    4238:	d0 e0       	ldi	r29, 0x00	; 0
  spi_transmit(buffer[i]);
    423a:	fe 01       	movw	r30, r28
    423c:	ed 5e       	subi	r30, 0xED	; 237
    423e:	f4 4f       	sbci	r31, 0xF4	; 244
    4240:	80 81       	ld	r24, Z
    4242:	2f d0       	rcall	.+94     	; 0x42a2 <spi_transmit>

SD_CS_ASSERT;

spi_transmit(0xfe);     //Send start block token 0xfe (0x11111110)

for(i=0; i<512; i++)    //send 512 bytes data
    4244:	21 96       	adiw	r28, 0x01	; 1
    4246:	c1 15       	cp	r28, r1
    4248:	22 e0       	ldi	r18, 0x02	; 2
    424a:	d2 07       	cpc	r29, r18
  spi_transmit(buffer[i]);

spi_transmit(0xff);     //transmit dummy CRC (16-bit), CRC is ignored here
    424c:	b1 f7       	brne	.-20     	; 0x423a <SD_writeSingleBlock+0x1a>
spi_transmit(0xff);
    424e:	8f ef       	ldi	r24, 0xFF	; 255
    4250:	28 d0       	rcall	.+80     	; 0x42a2 <spi_transmit>
    4252:	8f ef       	ldi	r24, 0xFF	; 255

response = spi_receive();
    4254:	26 d0       	rcall	.+76     	; 0x42a2 <spi_transmit>
    4256:	2b d0       	rcall	.+86     	; 0x42ae <spi_receive>

if( (response & 0x1f) != 0x05) //response= 0xXXX0AAA1 ; AAA='010' - data accepted
    4258:	98 2f       	mov	r25, r24
    425a:	9f 71       	andi	r25, 0x1F	; 31
    425c:	95 30       	cpi	r25, 0x05	; 5
    425e:	39 f0       	breq	.+14     	; 0x426e <SD_writeSingleBlock+0x4e>
{                              //AAA='101'-data rejected due to CRC error
  SD_CS_DEASSERT;              //AAA='110'-data rejected due to write error
    4260:	40 9a       	sbi	0x08, 0	; 8
  return response;
    4262:	1c c0       	rjmp	.+56     	; 0x429c <SD_writeSingleBlock+0x7c>
}

while(!spi_receive()) //wait for SD card to complete writing and get idle
if(retry++ > 0xfffe){SD_CS_DEASSERT; return 1;}
    4264:	21 96       	adiw	r28, 0x01	; 1
    4266:	29 f4       	brne	.+10     	; 0x4272 <SD_writeSingleBlock+0x52>
    4268:	40 9a       	sbi	0x08, 0	; 8
    426a:	81 e0       	ldi	r24, 0x01	; 1
    426c:	17 c0       	rjmp	.+46     	; 0x429c <SD_writeSingleBlock+0x7c>
{                              //AAA='101'-data rejected due to CRC error
  SD_CS_DEASSERT;              //AAA='110'-data rejected due to write error
  return response;
}

while(!spi_receive()) //wait for SD card to complete writing and get idle
    426e:	c0 e0       	ldi	r28, 0x00	; 0
    4270:	d0 e0       	ldi	r29, 0x00	; 0
    4272:	1d d0       	rcall	.+58     	; 0x42ae <spi_receive>
    4274:	88 23       	and	r24, r24
if(retry++ > 0xfffe){SD_CS_DEASSERT; return 1;}

SD_CS_DEASSERT;
    4276:	b1 f3       	breq	.-20     	; 0x4264 <SD_writeSingleBlock+0x44>
spi_transmit(0xff);   //just spend 8 clock cycle delay before reasserting the CS line
    4278:	40 9a       	sbi	0x08, 0	; 8
    427a:	8f ef       	ldi	r24, 0xFF	; 255
    427c:	12 d0       	rcall	.+36     	; 0x42a2 <spi_transmit>
SD_CS_ASSERT;         //re-asserting the CS line to verify if card is still busy
    427e:	40 98       	cbi	0x08, 0	; 8

while(!spi_receive()) //wait for SD card to complete writing and get idle
    4280:	08 c0       	rjmp	.+16     	; 0x4292 <SD_writeSingleBlock+0x72>
   if(retry++ > 0xfffe){SD_CS_DEASSERT; return 1;}
    4282:	ce 01       	movw	r24, r28
    4284:	01 96       	adiw	r24, 0x01	; 1
    4286:	21 96       	adiw	r28, 0x01	; 1
    4288:	19 f4       	brne	.+6      	; 0x4290 <SD_writeSingleBlock+0x70>
    428a:	40 9a       	sbi	0x08, 0	; 8
    428c:	81 e0       	ldi	r24, 0x01	; 1
    428e:	06 c0       	rjmp	.+12     	; 0x429c <SD_writeSingleBlock+0x7c>

SD_CS_DEASSERT;
spi_transmit(0xff);   //just spend 8 clock cycle delay before reasserting the CS line
SD_CS_ASSERT;         //re-asserting the CS line to verify if card is still busy

while(!spi_receive()) //wait for SD card to complete writing and get idle
    4290:	ec 01       	movw	r28, r24
    4292:	0d d0       	rcall	.+26     	; 0x42ae <spi_receive>
    4294:	88 23       	and	r24, r24
    4296:	a9 f3       	breq	.-22     	; 0x4282 <SD_writeSingleBlock+0x62>
   if(retry++ > 0xfffe){SD_CS_DEASSERT; return 1;}
SD_CS_DEASSERT;
    4298:	40 9a       	sbi	0x08, 0	; 8

return 0;
    429a:	80 e0       	ldi	r24, 0x00	; 0
}
    429c:	df 91       	pop	r29
    429e:	cf 91       	pop	r28
    42a0:	08 95       	ret

000042a2 <spi_transmit>:
		case MFRC522:
		SPI_CS_RC522_PORT &= ~SPI_CS_RC522_BIT;
		break;
		
		case SDCARD:
		SPI_CS_SD_CARD_PORT &= ~SPI_CS_SD_CARD_BIT;
    42a2:	8e bd       	out	0x2e, r24	; 46
    42a4:	0d b4       	in	r0, 0x2d	; 45
    42a6:	07 fe       	sbrs	r0, 7
    42a8:	fd cf       	rjmp	.-6      	; 0x42a4 <spi_transmit+0x2>
    42aa:	8e b5       	in	r24, 0x2e	; 46
    42ac:	08 95       	ret

000042ae <spi_receive>:
    42ae:	8f ef       	ldi	r24, 0xFF	; 255
    42b0:	8e bd       	out	0x2e, r24	; 46
    42b2:	0d b4       	in	r0, 0x2d	; 45
    42b4:	07 fe       	sbrs	r0, 7
    42b6:	fd cf       	rjmp	.-6      	; 0x42b2 <spi_receive+0x4>
    42b8:	8e b5       	in	r24, 0x2e	; 46
    42ba:	08 95       	ret

000042bc <disable_Slave>:
	}
}

void disable_Slave(uint8_t Slave)
{
	switch (Slave)
    42bc:	81 30       	cpi	r24, 0x01	; 1
    42be:	41 f0       	breq	.+16     	; 0x42d0 <disable_Slave+0x14>
    42c0:	28 f0       	brcs	.+10     	; 0x42cc <disable_Slave+0x10>
    42c2:	82 30       	cpi	r24, 0x02	; 2
    42c4:	59 f0       	breq	.+22     	; 0x42dc <disable_Slave+0x20>
    42c6:	83 30       	cpi	r24, 0x03	; 3
    42c8:	59 f0       	breq	.+22     	; 0x42e0 <disable_Slave+0x24>
    42ca:	08 95       	ret
	{
		case TMC4671:
		SPI_CS_TMC4671_PORT |= SPI_CS_TMC4671_BIT;
    42cc:	28 9a       	sbi	0x05, 0	; 5
		break;
    42ce:	08 95       	ret
		
		case TMC6200:
		SPI_CS_TMC6200_PORT |= SPI_CS_TMC6200_BIT;
    42d0:	e2 e0       	ldi	r30, 0x02	; 2
    42d2:	f1 e0       	ldi	r31, 0x01	; 1
    42d4:	80 81       	ld	r24, Z
    42d6:	80 64       	ori	r24, 0x40	; 64
    42d8:	80 83       	st	Z, r24
		break;
    42da:	08 95       	ret
		
		case MFRC522:
		SPI_CS_RC522_PORT |= SPI_CS_RC522_BIT;
    42dc:	41 9a       	sbi	0x08, 1	; 8
		break;
    42de:	08 95       	ret
		
		case SDCARD:
		SPI_CS_SD_CARD_PORT |= SPI_CS_SD_CARD_BIT;
    42e0:	40 9a       	sbi	0x08, 0	; 8
    42e2:	08 95       	ret

000042e4 <SPI_init>:

void SPI_init(void)
{
	// Einstellungen fr TMC4671: CLK = 1MHz, SPI-Mode = 3, MSB first)

	SPCR = ((1<<SPE)|       // SPI Enable					(1 = Enable, 0 = Disable)					Datasheet S. 197 (Kapitel 21.2.1)
    42e4:	83 e5       	ldi	r24, 0x53	; 83
    42e6:	8c bd       	out	0x2c, r24	; 44
	(1<<MSTR)|              // Master/Slave select			(0 = Slave, 1 = Master)						Datasheet S. 197 (Kapitel 21.2.1)
	(1<<SPR1)|(1<<SPR0)|    // SPI Clock Rate				(Divider Systemclock 16MHz)					Datasheet S. 198 (Kapitel 21.2.1)
	(0<<CPOL)|              // Clock Polarity when idle		(0 = low, 1 = SCK high)						Datasheet S. 197 (Kapitel 21.2.1)
	(0<<CPHA));             // Clock Phase edge sampling	(0 = leading, 1 = trailing edge sampling)	Datasheet S. 197 (Kapitel 21.2.1)

	SPSR = (0<<SPI2X);      // Double Clock Rate			(0 = Disable, 1 = Enable)					Datasheet S. 198 (Kapitel 21.2.1)
    42e8:	1d bc       	out	0x2d, r1	; 45

	disable_Slave(TMC4671);
    42ea:	80 e0       	ldi	r24, 0x00	; 0
    42ec:	e7 df       	rcall	.-50     	; 0x42bc <disable_Slave>
	disable_Slave(TMC6200);
    42ee:	81 e0       	ldi	r24, 0x01	; 1
    42f0:	e5 df       	rcall	.-54     	; 0x42bc <disable_Slave>
	disable_Slave(MFRC522);
    42f2:	82 e0       	ldi	r24, 0x02	; 2
    42f4:	e3 cf       	rjmp	.-58     	; 0x42bc <disable_Slave>
    42f6:	08 95       	ret

000042f8 <tx_completed>:
    42f8:	00 00       	nop
	while(RB_length(&rb_rx_PC)==0); 	// Wait for incomming data
	
	data = RB_readByte(&rb_rx_PC);
	
	return(data);
}
    42fa:	00 00       	nop
    42fc:	08 95       	ret

000042fe <UART_init>:
    42fe:	ef 92       	push	r14
    4300:	ff 92       	push	r15
    4302:	0f 93       	push	r16
    4304:	1f 93       	push	r17
    4306:	cf 93       	push	r28
    4308:	df 93       	push	r29
    430a:	10 92 c5 00 	sts	0x00C5, r1	; 0x8000c5 <__TEXT_REGION_LENGTH__+0x7000c5>
    430e:	97 e6       	ldi	r25, 0x67	; 103
    4310:	90 93 c4 00 	sts	0x00C4, r25	; 0x8000c4 <__TEXT_REGION_LENGTH__+0x7000c4>
    4314:	0f 2e       	mov	r0, r31
    4316:	f1 ec       	ldi	r31, 0xC1	; 193
    4318:	ef 2e       	mov	r14, r31
    431a:	f1 2c       	mov	r15, r1
    431c:	f0 2d       	mov	r31, r0
    431e:	88 e1       	ldi	r24, 0x18	; 24
    4320:	f7 01       	movw	r30, r14
    4322:	80 83       	st	Z, r24
    4324:	86 e0       	ldi	r24, 0x06	; 6
    4326:	80 93 c2 00 	sts	0x00C2, r24	; 0x8000c2 <__TEXT_REGION_LENGTH__+0x7000c2>
    432a:	10 92 cd 00 	sts	0x00CD, r1	; 0x8000cd <__TEXT_REGION_LENGTH__+0x7000cd>
    432e:	90 93 cc 00 	sts	0x00CC, r25	; 0x8000cc <__TEXT_REGION_LENGTH__+0x7000cc>
    4332:	09 ec       	ldi	r16, 0xC9	; 201
    4334:	10 e0       	ldi	r17, 0x00	; 0
    4336:	28 e9       	ldi	r18, 0x98	; 152
    4338:	f8 01       	movw	r30, r16
    433a:	20 83       	st	Z, r18
    433c:	80 93 ca 00 	sts	0x00CA, r24	; 0x8000ca <__TEXT_REGION_LENGTH__+0x7000ca>
    4340:	10 92 d5 00 	sts	0x00D5, r1	; 0x8000d5 <__TEXT_REGION_LENGTH__+0x7000d5>
    4344:	90 93 d4 00 	sts	0x00D4, r25	; 0x8000d4 <__TEXT_REGION_LENGTH__+0x7000d4>
    4348:	c1 ed       	ldi	r28, 0xD1	; 209
    434a:	d0 e0       	ldi	r29, 0x00	; 0
    434c:	28 83       	st	Y, r18
    434e:	80 93 d2 00 	sts	0x00D2, r24	; 0x8000d2 <__TEXT_REGION_LENGTH__+0x7000d2>
    4352:	85 ed       	ldi	r24, 0xD5	; 213
    4354:	96 e0       	ldi	r25, 0x06	; 6
    4356:	0e 94 d2 14 	call	0x29a4	; 0x29a4 <RB_init>
    435a:	8a e3       	ldi	r24, 0x3A	; 58
    435c:	9d e0       	ldi	r25, 0x0D	; 13
    435e:	0e 94 d2 14 	call	0x29a4	; 0x29a4 <RB_init>
    4362:	8a ed       	ldi	r24, 0xDA	; 218
    4364:	97 e0       	ldi	r25, 0x07	; 7
    4366:	0e 94 d2 14 	call	0x29a4	; 0x29a4 <RB_init>
    436a:	82 e1       	ldi	r24, 0x12	; 18
    436c:	9a e0       	ldi	r25, 0x0A	; 10
    436e:	0e 94 d2 14 	call	0x29a4	; 0x29a4 <RB_init>
    4372:	8b e3       	ldi	r24, 0x3B	; 59
    4374:	9e e0       	ldi	r25, 0x0E	; 14
    4376:	0e 94 d2 14 	call	0x29a4	; 0x29a4 <RB_init>
    437a:	8b e0       	ldi	r24, 0x0B	; 11
    437c:	99 e0       	ldi	r25, 0x09	; 9
    437e:	0e 94 d2 14 	call	0x29a4	; 0x29a4 <RB_init>
    4382:	f7 01       	movw	r30, r14
    4384:	80 81       	ld	r24, Z
    4386:	80 68       	ori	r24, 0x80	; 128
    4388:	80 83       	st	Z, r24
    438a:	f8 01       	movw	r30, r16
    438c:	80 81       	ld	r24, Z
    438e:	80 68       	ori	r24, 0x80	; 128
    4390:	80 83       	st	Z, r24
    4392:	88 81       	ld	r24, Y
    4394:	80 68       	ori	r24, 0x80	; 128
    4396:	88 83       	st	Y, r24
    4398:	78 94       	sei
    439a:	8c e7       	ldi	r24, 0x7C	; 124
    439c:	91 e2       	ldi	r25, 0x21	; 33
    439e:	90 93 5b 0f 	sts	0x0F5B, r25	; 0x800f5b <ptr_tx_completed_0+0x1>
    43a2:	80 93 5a 0f 	sts	0x0F5A, r24	; 0x800f5a <ptr_tx_completed_0>
    43a6:	90 93 55 0f 	sts	0x0F55, r25	; 0x800f55 <ptr_tx_completed_1+0x1>
    43aa:	80 93 54 0f 	sts	0x0F54, r24	; 0x800f54 <ptr_tx_completed_1>
    43ae:	90 93 57 0f 	sts	0x0F57, r25	; 0x800f57 <ptr_tx_completed_2+0x1>
    43b2:	80 93 56 0f 	sts	0x0F56, r24	; 0x800f56 <ptr_tx_completed_2>
    43b6:	df 91       	pop	r29
    43b8:	cf 91       	pop	r28
    43ba:	1f 91       	pop	r17
    43bc:	0f 91       	pop	r16
    43be:	ff 90       	pop	r15
    43c0:	ef 90       	pop	r14
    43c2:	08 95       	ret

000043c4 <Uart_Transmit_IT_PC>:
    43c4:	fc 01       	movw	r30, r24
    43c6:	01 90       	ld	r0, Z+
    43c8:	00 20       	and	r0, r0
    43ca:	e9 f7       	brne	.-6      	; 0x43c6 <Uart_Transmit_IT_PC+0x2>
    43cc:	31 97       	sbiw	r30, 0x01	; 1
    43ce:	af 01       	movw	r20, r30
    43d0:	48 1b       	sub	r20, r24
    43d2:	59 0b       	sbc	r21, r25
    43d4:	bc 01       	movw	r22, r24
    43d6:	85 ed       	ldi	r24, 0xD5	; 213
    43d8:	96 e0       	ldi	r25, 0x06	; 6
    43da:	0e 94 1e 15 	call	0x2a3c	; 0x2a3c <RB_write>
    43de:	e1 ec       	ldi	r30, 0xC1	; 193
    43e0:	f0 e0       	ldi	r31, 0x00	; 0
    43e2:	80 81       	ld	r24, Z
    43e4:	80 62       	ori	r24, 0x20	; 32
    43e6:	80 83       	st	Z, r24
    43e8:	08 95       	ret

000043ea <Uart_Transmit_IT_Display>:
    43ea:	fc 01       	movw	r30, r24
    43ec:	01 90       	ld	r0, Z+
    43ee:	00 20       	and	r0, r0
    43f0:	e9 f7       	brne	.-6      	; 0x43ec <Uart_Transmit_IT_Display+0x2>
    43f2:	31 97       	sbiw	r30, 0x01	; 1
    43f4:	af 01       	movw	r20, r30
    43f6:	48 1b       	sub	r20, r24
    43f8:	59 0b       	sbc	r21, r25
    43fa:	bc 01       	movw	r22, r24
    43fc:	8a ed       	ldi	r24, 0xDA	; 218
    43fe:	97 e0       	ldi	r25, 0x07	; 7
    4400:	0e 94 1e 15 	call	0x2a3c	; 0x2a3c <RB_write>
    4404:	e9 ec       	ldi	r30, 0xC9	; 201
    4406:	f0 e0       	ldi	r31, 0x00	; 0
    4408:	80 81       	ld	r24, Z
    440a:	80 62       	ori	r24, 0x20	; 32
    440c:	80 83       	st	Z, r24
    440e:	08 95       	ret

00004410 <__vector_26>:
    4410:	1f 92       	push	r1
    4412:	0f 92       	push	r0
    4414:	0f b6       	in	r0, 0x3f	; 63
    4416:	0f 92       	push	r0
    4418:	11 24       	eor	r1, r1
    441a:	0b b6       	in	r0, 0x3b	; 59
    441c:	0f 92       	push	r0
    441e:	2f 93       	push	r18
    4420:	3f 93       	push	r19
    4422:	4f 93       	push	r20
    4424:	5f 93       	push	r21
    4426:	6f 93       	push	r22
    4428:	7f 93       	push	r23
    442a:	8f 93       	push	r24
    442c:	9f 93       	push	r25
    442e:	af 93       	push	r26
    4430:	bf 93       	push	r27
    4432:	ef 93       	push	r30
    4434:	ff 93       	push	r31
    4436:	85 ed       	ldi	r24, 0xD5	; 213
    4438:	96 e0       	ldi	r25, 0x06	; 6
    443a:	0e 94 e1 14 	call	0x29c2	; 0x29c2 <RB_length>
    443e:	88 23       	and	r24, r24
    4440:	39 f0       	breq	.+14     	; 0x4450 <__vector_26+0x40>
    4442:	85 ed       	ldi	r24, 0xD5	; 213
    4444:	96 e0       	ldi	r25, 0x06	; 6
    4446:	0e 94 ed 14 	call	0x29da	; 0x29da <RB_readByte>
    444a:	80 93 c6 00 	sts	0x00C6, r24	; 0x8000c6 <__TEXT_REGION_LENGTH__+0x7000c6>
    444e:	0c c0       	rjmp	.+24     	; 0x4468 <__vector_26+0x58>
    4450:	e1 ec       	ldi	r30, 0xC1	; 193
    4452:	f0 e0       	ldi	r31, 0x00	; 0
    4454:	80 81       	ld	r24, Z
    4456:	8f 7d       	andi	r24, 0xDF	; 223
    4458:	80 83       	st	Z, r24
    445a:	e0 91 5a 0f 	lds	r30, 0x0F5A	; 0x800f5a <ptr_tx_completed_0>
    445e:	f0 91 5b 0f 	lds	r31, 0x0F5B	; 0x800f5b <ptr_tx_completed_0+0x1>
    4462:	30 97       	sbiw	r30, 0x00	; 0
    4464:	09 f0       	breq	.+2      	; 0x4468 <__vector_26+0x58>
    4466:	19 95       	eicall
    4468:	ff 91       	pop	r31
    446a:	ef 91       	pop	r30
    446c:	bf 91       	pop	r27
    446e:	af 91       	pop	r26
    4470:	9f 91       	pop	r25
    4472:	8f 91       	pop	r24
    4474:	7f 91       	pop	r23
    4476:	6f 91       	pop	r22
    4478:	5f 91       	pop	r21
    447a:	4f 91       	pop	r20
    447c:	3f 91       	pop	r19
    447e:	2f 91       	pop	r18
    4480:	0f 90       	pop	r0
    4482:	0b be       	out	0x3b, r0	; 59
    4484:	0f 90       	pop	r0
    4486:	0f be       	out	0x3f, r0	; 63
    4488:	0f 90       	pop	r0
    448a:	1f 90       	pop	r1
    448c:	18 95       	reti

0000448e <__vector_25>:
    448e:	1f 92       	push	r1
    4490:	0f 92       	push	r0
    4492:	0f b6       	in	r0, 0x3f	; 63
    4494:	0f 92       	push	r0
    4496:	11 24       	eor	r1, r1
    4498:	0b b6       	in	r0, 0x3b	; 59
    449a:	0f 92       	push	r0
    449c:	2f 93       	push	r18
    449e:	3f 93       	push	r19
    44a0:	4f 93       	push	r20
    44a2:	5f 93       	push	r21
    44a4:	6f 93       	push	r22
    44a6:	7f 93       	push	r23
    44a8:	8f 93       	push	r24
    44aa:	9f 93       	push	r25
    44ac:	af 93       	push	r26
    44ae:	bf 93       	push	r27
    44b0:	ef 93       	push	r30
    44b2:	ff 93       	push	r31
    44b4:	60 91 c6 00 	lds	r22, 0x00C6	; 0x8000c6 <__TEXT_REGION_LENGTH__+0x7000c6>
    44b8:	8a e3       	ldi	r24, 0x3A	; 58
    44ba:	9d e0       	ldi	r25, 0x0D	; 13
    44bc:	0e 94 01 15 	call	0x2a02	; 0x2a02 <RB_writeByte>
    44c0:	ff 91       	pop	r31
    44c2:	ef 91       	pop	r30
    44c4:	bf 91       	pop	r27
    44c6:	af 91       	pop	r26
    44c8:	9f 91       	pop	r25
    44ca:	8f 91       	pop	r24
    44cc:	7f 91       	pop	r23
    44ce:	6f 91       	pop	r22
    44d0:	5f 91       	pop	r21
    44d2:	4f 91       	pop	r20
    44d4:	3f 91       	pop	r19
    44d6:	2f 91       	pop	r18
    44d8:	0f 90       	pop	r0
    44da:	0b be       	out	0x3b, r0	; 59
    44dc:	0f 90       	pop	r0
    44de:	0f be       	out	0x3f, r0	; 63
    44e0:	0f 90       	pop	r0
    44e2:	1f 90       	pop	r1
    44e4:	18 95       	reti

000044e6 <__vector_37>:
    44e6:	1f 92       	push	r1
    44e8:	0f 92       	push	r0
    44ea:	0f b6       	in	r0, 0x3f	; 63
    44ec:	0f 92       	push	r0
    44ee:	11 24       	eor	r1, r1
    44f0:	0b b6       	in	r0, 0x3b	; 59
    44f2:	0f 92       	push	r0
    44f4:	2f 93       	push	r18
    44f6:	3f 93       	push	r19
    44f8:	4f 93       	push	r20
    44fa:	5f 93       	push	r21
    44fc:	6f 93       	push	r22
    44fe:	7f 93       	push	r23
    4500:	8f 93       	push	r24
    4502:	9f 93       	push	r25
    4504:	af 93       	push	r26
    4506:	bf 93       	push	r27
    4508:	ef 93       	push	r30
    450a:	ff 93       	push	r31
    450c:	8a ed       	ldi	r24, 0xDA	; 218
    450e:	97 e0       	ldi	r25, 0x07	; 7
    4510:	0e 94 e1 14 	call	0x29c2	; 0x29c2 <RB_length>
    4514:	88 23       	and	r24, r24
    4516:	39 f0       	breq	.+14     	; 0x4526 <__vector_37+0x40>
    4518:	8a ed       	ldi	r24, 0xDA	; 218
    451a:	97 e0       	ldi	r25, 0x07	; 7
    451c:	0e 94 ed 14 	call	0x29da	; 0x29da <RB_readByte>
    4520:	80 93 ce 00 	sts	0x00CE, r24	; 0x8000ce <__TEXT_REGION_LENGTH__+0x7000ce>
    4524:	0c c0       	rjmp	.+24     	; 0x453e <__vector_37+0x58>
    4526:	e9 ec       	ldi	r30, 0xC9	; 201
    4528:	f0 e0       	ldi	r31, 0x00	; 0
    452a:	80 81       	ld	r24, Z
    452c:	8f 7d       	andi	r24, 0xDF	; 223
    452e:	80 83       	st	Z, r24
    4530:	e0 91 54 0f 	lds	r30, 0x0F54	; 0x800f54 <ptr_tx_completed_1>
    4534:	f0 91 55 0f 	lds	r31, 0x0F55	; 0x800f55 <ptr_tx_completed_1+0x1>
    4538:	30 97       	sbiw	r30, 0x00	; 0
    453a:	09 f0       	breq	.+2      	; 0x453e <__vector_37+0x58>
    453c:	19 95       	eicall
    453e:	ff 91       	pop	r31
    4540:	ef 91       	pop	r30
    4542:	bf 91       	pop	r27
    4544:	af 91       	pop	r26
    4546:	9f 91       	pop	r25
    4548:	8f 91       	pop	r24
    454a:	7f 91       	pop	r23
    454c:	6f 91       	pop	r22
    454e:	5f 91       	pop	r21
    4550:	4f 91       	pop	r20
    4552:	3f 91       	pop	r19
    4554:	2f 91       	pop	r18
    4556:	0f 90       	pop	r0
    4558:	0b be       	out	0x3b, r0	; 59
    455a:	0f 90       	pop	r0
    455c:	0f be       	out	0x3f, r0	; 63
    455e:	0f 90       	pop	r0
    4560:	1f 90       	pop	r1
    4562:	18 95       	reti

00004564 <__vector_36>:
    4564:	1f 92       	push	r1
    4566:	0f 92       	push	r0
    4568:	0f b6       	in	r0, 0x3f	; 63
    456a:	0f 92       	push	r0
    456c:	11 24       	eor	r1, r1
    456e:	0b b6       	in	r0, 0x3b	; 59
    4570:	0f 92       	push	r0
    4572:	2f 93       	push	r18
    4574:	3f 93       	push	r19
    4576:	4f 93       	push	r20
    4578:	5f 93       	push	r21
    457a:	6f 93       	push	r22
    457c:	7f 93       	push	r23
    457e:	8f 93       	push	r24
    4580:	9f 93       	push	r25
    4582:	af 93       	push	r26
    4584:	bf 93       	push	r27
    4586:	ef 93       	push	r30
    4588:	ff 93       	push	r31
    458a:	60 91 ce 00 	lds	r22, 0x00CE	; 0x8000ce <__TEXT_REGION_LENGTH__+0x7000ce>
    458e:	82 e1       	ldi	r24, 0x12	; 18
    4590:	9a e0       	ldi	r25, 0x0A	; 10
    4592:	0e 94 01 15 	call	0x2a02	; 0x2a02 <RB_writeByte>
    4596:	ff 91       	pop	r31
    4598:	ef 91       	pop	r30
    459a:	bf 91       	pop	r27
    459c:	af 91       	pop	r26
    459e:	9f 91       	pop	r25
    45a0:	8f 91       	pop	r24
    45a2:	7f 91       	pop	r23
    45a4:	6f 91       	pop	r22
    45a6:	5f 91       	pop	r21
    45a8:	4f 91       	pop	r20
    45aa:	3f 91       	pop	r19
    45ac:	2f 91       	pop	r18
    45ae:	0f 90       	pop	r0
    45b0:	0b be       	out	0x3b, r0	; 59
    45b2:	0f 90       	pop	r0
    45b4:	0f be       	out	0x3f, r0	; 63
    45b6:	0f 90       	pop	r0
    45b8:	1f 90       	pop	r1
    45ba:	18 95       	reti

000045bc <__vector_52>:
    45bc:	1f 92       	push	r1
    45be:	0f 92       	push	r0
    45c0:	0f b6       	in	r0, 0x3f	; 63
    45c2:	0f 92       	push	r0
    45c4:	11 24       	eor	r1, r1
    45c6:	0b b6       	in	r0, 0x3b	; 59
    45c8:	0f 92       	push	r0
    45ca:	2f 93       	push	r18
    45cc:	3f 93       	push	r19
    45ce:	4f 93       	push	r20
    45d0:	5f 93       	push	r21
    45d2:	6f 93       	push	r22
    45d4:	7f 93       	push	r23
    45d6:	8f 93       	push	r24
    45d8:	9f 93       	push	r25
    45da:	af 93       	push	r26
    45dc:	bf 93       	push	r27
    45de:	ef 93       	push	r30
    45e0:	ff 93       	push	r31
    45e2:	8b e3       	ldi	r24, 0x3B	; 59
    45e4:	9e e0       	ldi	r25, 0x0E	; 14
    45e6:	0e 94 e1 14 	call	0x29c2	; 0x29c2 <RB_length>
    45ea:	88 23       	and	r24, r24
    45ec:	39 f0       	breq	.+14     	; 0x45fc <__vector_52+0x40>
    45ee:	8b e3       	ldi	r24, 0x3B	; 59
    45f0:	9e e0       	ldi	r25, 0x0E	; 14
    45f2:	0e 94 ed 14 	call	0x29da	; 0x29da <RB_readByte>
    45f6:	80 93 d6 00 	sts	0x00D6, r24	; 0x8000d6 <__TEXT_REGION_LENGTH__+0x7000d6>
    45fa:	0c c0       	rjmp	.+24     	; 0x4614 <__vector_52+0x58>
    45fc:	e1 ed       	ldi	r30, 0xD1	; 209
    45fe:	f0 e0       	ldi	r31, 0x00	; 0
    4600:	80 81       	ld	r24, Z
    4602:	8f 7d       	andi	r24, 0xDF	; 223
    4604:	80 83       	st	Z, r24
    4606:	e0 91 56 0f 	lds	r30, 0x0F56	; 0x800f56 <ptr_tx_completed_2>
    460a:	f0 91 57 0f 	lds	r31, 0x0F57	; 0x800f57 <ptr_tx_completed_2+0x1>
    460e:	30 97       	sbiw	r30, 0x00	; 0
    4610:	09 f0       	breq	.+2      	; 0x4614 <__vector_52+0x58>
    4612:	19 95       	eicall
    4614:	ff 91       	pop	r31
    4616:	ef 91       	pop	r30
    4618:	bf 91       	pop	r27
    461a:	af 91       	pop	r26
    461c:	9f 91       	pop	r25
    461e:	8f 91       	pop	r24
    4620:	7f 91       	pop	r23
    4622:	6f 91       	pop	r22
    4624:	5f 91       	pop	r21
    4626:	4f 91       	pop	r20
    4628:	3f 91       	pop	r19
    462a:	2f 91       	pop	r18
    462c:	0f 90       	pop	r0
    462e:	0b be       	out	0x3b, r0	; 59
    4630:	0f 90       	pop	r0
    4632:	0f be       	out	0x3f, r0	; 63
    4634:	0f 90       	pop	r0
    4636:	1f 90       	pop	r1
    4638:	18 95       	reti

0000463a <__vector_51>:
    463a:	1f 92       	push	r1
    463c:	0f 92       	push	r0
    463e:	0f b6       	in	r0, 0x3f	; 63
    4640:	0f 92       	push	r0
    4642:	11 24       	eor	r1, r1
    4644:	0b b6       	in	r0, 0x3b	; 59
    4646:	0f 92       	push	r0
    4648:	2f 93       	push	r18
    464a:	3f 93       	push	r19
    464c:	4f 93       	push	r20
    464e:	5f 93       	push	r21
    4650:	6f 93       	push	r22
    4652:	7f 93       	push	r23
    4654:	8f 93       	push	r24
    4656:	9f 93       	push	r25
    4658:	af 93       	push	r26
    465a:	bf 93       	push	r27
    465c:	ef 93       	push	r30
    465e:	ff 93       	push	r31
    4660:	60 91 d6 00 	lds	r22, 0x00D6	; 0x8000d6 <__TEXT_REGION_LENGTH__+0x7000d6>
    4664:	8b e0       	ldi	r24, 0x0B	; 11
    4666:	99 e0       	ldi	r25, 0x09	; 9
    4668:	0e 94 01 15 	call	0x2a02	; 0x2a02 <RB_writeByte>
    466c:	ff 91       	pop	r31
    466e:	ef 91       	pop	r30
    4670:	bf 91       	pop	r27
    4672:	af 91       	pop	r26
    4674:	9f 91       	pop	r25
    4676:	8f 91       	pop	r24
    4678:	7f 91       	pop	r23
    467a:	6f 91       	pop	r22
    467c:	5f 91       	pop	r21
    467e:	4f 91       	pop	r20
    4680:	3f 91       	pop	r19
    4682:	2f 91       	pop	r18
    4684:	0f 90       	pop	r0
    4686:	0b be       	out	0x3b, r0	; 59
    4688:	0f 90       	pop	r0
    468a:	0f be       	out	0x3f, r0	; 63
    468c:	0f 90       	pop	r0
    468e:	1f 90       	pop	r1
    4690:	18 95       	reti

00004692 <transmitByte>:
//***************************************************
//Function to transmit a single byte
//***************************************************
void transmitByte( unsigned char data )
{
	while ( !(UCSR0A & (1<<UDRE0)) )
    4692:	e0 ec       	ldi	r30, 0xC0	; 192
    4694:	f0 e0       	ldi	r31, 0x00	; 0
    4696:	90 81       	ld	r25, Z
    4698:	95 ff       	sbrs	r25, 5
    469a:	fd cf       	rjmp	.-6      	; 0x4696 <transmitByte+0x4>
		; 			                /* Wait for empty transmit buffer */
	UDR0 = data; 			        /* Start transmition */
    469c:	80 93 c6 00 	sts	0x00C6, r24	; 0x8000c6 <__TEXT_REGION_LENGTH__+0x7000c6>
    46a0:	08 95       	ret

000046a2 <transmitString>:

//***************************************************
//Function to transmit a string in RAM
//***************************************************
void transmitString(unsigned char* string)
{
    46a2:	cf 93       	push	r28
    46a4:	df 93       	push	r29
    46a6:	ec 01       	movw	r28, r24
  while (*string)
    46a8:	88 81       	ld	r24, Y
    46aa:	88 23       	and	r24, r24
    46ac:	29 f0       	breq	.+10     	; 0x46b8 <transmitString+0x16>
    46ae:	21 96       	adiw	r28, 0x01	; 1
   transmitByte(*string++);
    46b0:	f0 df       	rcall	.-32     	; 0x4692 <transmitByte>
//***************************************************
//Function to transmit a string in RAM
//***************************************************
void transmitString(unsigned char* string)
{
  while (*string)
    46b2:	89 91       	ld	r24, Y+
    46b4:	81 11       	cpse	r24, r1
    46b6:	fc cf       	rjmp	.-8      	; 0x46b0 <transmitString+0xe>
   transmitByte(*string++);
}
    46b8:	df 91       	pop	r29
    46ba:	cf 91       	pop	r28
    46bc:	08 95       	ret

000046be <main>:

// MainLoop
int main(void)
{
	// Gate Treiber disable (active high)
 	EN_TMC6200_PORT &= ~EN_TMC6200_BIT;
    46be:	e2 e0       	ldi	r30, 0x02	; 2
    46c0:	f1 e0       	ldi	r31, 0x01	; 1
    46c2:	80 81       	ld	r24, Z
    46c4:	87 7f       	andi	r24, 0xF7	; 247
    46c6:	80 83       	st	Z, r24
	 Grossschreib = 1;
    46c8:	81 e0       	ldi	r24, 0x01	; 1
    46ca:	80 93 03 09 	sts	0x0903, r24	; 0x800903 <Grossschreib>
//Initialisierungen
	IO_init();
    46ce:	0e 94 5b 12 	call	0x24b6	; 0x24b6 <IO_init>
	SPI_init();
    46d2:	08 de       	rcall	.-1008   	; 0x42e4 <SPI_init>
	UART_init();
    46d4:	14 de       	rcall	.-984    	; 0x42fe <UART_init>
    46d6:	0e 94 6a 0d 	call	0x1ad4	; 0x1ad4 <SD_startup>
	SD_startup();
    46da:	0e 94 1a 12 	call	0x2434	; 0x2434 <zutaten_init>
// 	TMC4671_init();
// 	initTMC6200();
// 	initTMC4671_Openloop();
// 	mfrc522_init();
	zutaten_init();
    46de:	0e 94 35 11 	call	0x226a	; 0x226a <cocktails_init>
	cocktails_init();
    46e2:	0e 94 b1 04 	call	0x962	; 0x962 <init_Getraenke_func>
	init_Getraenke_func();
    46e6:	0e 94 be 13 	call	0x277c	; 0x277c <check_Communication_Input_UART>
		
// Mainroutine
	while (1)
	{
//  	check_Communication_Input_MFRC522();
		check_Communication_Input_UART();
    46ea:	fd cf       	rjmp	.-6      	; 0x46e6 <main+0x28>

000046ec <__mulsi3>:
    46ec:	db 01       	movw	r26, r22
    46ee:	8f 93       	push	r24
    46f0:	9f 93       	push	r25
    46f2:	44 d0       	rcall	.+136    	; 0x477c <__muluhisi3>
    46f4:	bf 91       	pop	r27
    46f6:	af 91       	pop	r26
    46f8:	a2 9f       	mul	r26, r18
    46fa:	80 0d       	add	r24, r0
    46fc:	91 1d       	adc	r25, r1
    46fe:	a3 9f       	mul	r26, r19
    4700:	90 0d       	add	r25, r0
    4702:	b2 9f       	mul	r27, r18
    4704:	90 0d       	add	r25, r0
    4706:	11 24       	eor	r1, r1
    4708:	08 95       	ret

0000470a <__udivmodsi4>:
    470a:	a1 e2       	ldi	r26, 0x21	; 33
    470c:	1a 2e       	mov	r1, r26
    470e:	aa 1b       	sub	r26, r26
    4710:	bb 1b       	sub	r27, r27
    4712:	fd 01       	movw	r30, r26
    4714:	0d c0       	rjmp	.+26     	; 0x4730 <__udivmodsi4_ep>

00004716 <__udivmodsi4_loop>:
    4716:	aa 1f       	adc	r26, r26
    4718:	bb 1f       	adc	r27, r27
    471a:	ee 1f       	adc	r30, r30
    471c:	ff 1f       	adc	r31, r31
    471e:	a2 17       	cp	r26, r18
    4720:	b3 07       	cpc	r27, r19
    4722:	e4 07       	cpc	r30, r20
    4724:	f5 07       	cpc	r31, r21
    4726:	20 f0       	brcs	.+8      	; 0x4730 <__udivmodsi4_ep>
    4728:	a2 1b       	sub	r26, r18
    472a:	b3 0b       	sbc	r27, r19
    472c:	e4 0b       	sbc	r30, r20
    472e:	f5 0b       	sbc	r31, r21

00004730 <__udivmodsi4_ep>:
    4730:	66 1f       	adc	r22, r22
    4732:	77 1f       	adc	r23, r23
    4734:	88 1f       	adc	r24, r24
    4736:	99 1f       	adc	r25, r25
    4738:	1a 94       	dec	r1
    473a:	69 f7       	brne	.-38     	; 0x4716 <__udivmodsi4_loop>
    473c:	60 95       	com	r22
    473e:	70 95       	com	r23
    4740:	80 95       	com	r24
    4742:	90 95       	com	r25
    4744:	9b 01       	movw	r18, r22
    4746:	ac 01       	movw	r20, r24
    4748:	bd 01       	movw	r22, r26
    474a:	cf 01       	movw	r24, r30
    474c:	08 95       	ret

0000474e <__tablejump2__>:
    474e:	ee 0f       	add	r30, r30
    4750:	ff 1f       	adc	r31, r31
    4752:	88 1f       	adc	r24, r24
    4754:	8b bf       	out	0x3b, r24	; 59
    4756:	07 90       	elpm	r0, Z+
    4758:	f6 91       	elpm	r31, Z
    475a:	e0 2d       	mov	r30, r0
    475c:	19 94       	eijmp

0000475e <__umulhisi3>:
    475e:	a2 9f       	mul	r26, r18
    4760:	b0 01       	movw	r22, r0
    4762:	b3 9f       	mul	r27, r19
    4764:	c0 01       	movw	r24, r0
    4766:	a3 9f       	mul	r26, r19
    4768:	70 0d       	add	r23, r0
    476a:	81 1d       	adc	r24, r1
    476c:	11 24       	eor	r1, r1
    476e:	91 1d       	adc	r25, r1
    4770:	b2 9f       	mul	r27, r18
    4772:	70 0d       	add	r23, r0
    4774:	81 1d       	adc	r24, r1
    4776:	11 24       	eor	r1, r1
    4778:	91 1d       	adc	r25, r1
    477a:	08 95       	ret

0000477c <__muluhisi3>:
    477c:	f0 df       	rcall	.-32     	; 0x475e <__umulhisi3>
    477e:	a5 9f       	mul	r26, r21
    4780:	90 0d       	add	r25, r0
    4782:	b4 9f       	mul	r27, r20
    4784:	90 0d       	add	r25, r0
    4786:	a4 9f       	mul	r26, r20
    4788:	80 0d       	add	r24, r0
    478a:	91 1d       	adc	r25, r1
    478c:	11 24       	eor	r1, r1
    478e:	08 95       	ret

00004790 <calloc>:
    4790:	0f 93       	push	r16
    4792:	1f 93       	push	r17
    4794:	cf 93       	push	r28
    4796:	df 93       	push	r29
    4798:	86 9f       	mul	r24, r22
    479a:	80 01       	movw	r16, r0
    479c:	87 9f       	mul	r24, r23
    479e:	10 0d       	add	r17, r0
    47a0:	96 9f       	mul	r25, r22
    47a2:	10 0d       	add	r17, r0
    47a4:	11 24       	eor	r1, r1
    47a6:	c8 01       	movw	r24, r16
    47a8:	0d d0       	rcall	.+26     	; 0x47c4 <malloc>
    47aa:	ec 01       	movw	r28, r24
    47ac:	00 97       	sbiw	r24, 0x00	; 0
    47ae:	21 f0       	breq	.+8      	; 0x47b8 <calloc+0x28>
    47b0:	a8 01       	movw	r20, r16
    47b2:	60 e0       	ldi	r22, 0x00	; 0
    47b4:	70 e0       	ldi	r23, 0x00	; 0
    47b6:	47 d1       	rcall	.+654    	; 0x4a46 <memset>
    47b8:	ce 01       	movw	r24, r28
    47ba:	df 91       	pop	r29
    47bc:	cf 91       	pop	r28
    47be:	1f 91       	pop	r17
    47c0:	0f 91       	pop	r16
    47c2:	08 95       	ret

000047c4 <malloc>:
    47c4:	0f 93       	push	r16
    47c6:	1f 93       	push	r17
    47c8:	cf 93       	push	r28
    47ca:	df 93       	push	r29
    47cc:	82 30       	cpi	r24, 0x02	; 2
    47ce:	91 05       	cpc	r25, r1
    47d0:	10 f4       	brcc	.+4      	; 0x47d6 <malloc+0x12>
    47d2:	82 e0       	ldi	r24, 0x02	; 2
    47d4:	90 e0       	ldi	r25, 0x00	; 0
    47d6:	e0 91 60 12 	lds	r30, 0x1260	; 0x801260 <__flp>
    47da:	f0 91 61 12 	lds	r31, 0x1261	; 0x801261 <__flp+0x1>
    47de:	20 e0       	ldi	r18, 0x00	; 0
    47e0:	30 e0       	ldi	r19, 0x00	; 0
    47e2:	a0 e0       	ldi	r26, 0x00	; 0
    47e4:	b0 e0       	ldi	r27, 0x00	; 0
    47e6:	30 97       	sbiw	r30, 0x00	; 0
    47e8:	19 f1       	breq	.+70     	; 0x4830 <malloc+0x6c>
    47ea:	40 81       	ld	r20, Z
    47ec:	51 81       	ldd	r21, Z+1	; 0x01
    47ee:	02 81       	ldd	r16, Z+2	; 0x02
    47f0:	13 81       	ldd	r17, Z+3	; 0x03
    47f2:	48 17       	cp	r20, r24
    47f4:	59 07       	cpc	r21, r25
    47f6:	c8 f0       	brcs	.+50     	; 0x482a <malloc+0x66>
    47f8:	84 17       	cp	r24, r20
    47fa:	95 07       	cpc	r25, r21
    47fc:	69 f4       	brne	.+26     	; 0x4818 <malloc+0x54>
    47fe:	10 97       	sbiw	r26, 0x00	; 0
    4800:	31 f0       	breq	.+12     	; 0x480e <malloc+0x4a>
    4802:	12 96       	adiw	r26, 0x02	; 2
    4804:	0c 93       	st	X, r16
    4806:	12 97       	sbiw	r26, 0x02	; 2
    4808:	13 96       	adiw	r26, 0x03	; 3
    480a:	1c 93       	st	X, r17
    480c:	27 c0       	rjmp	.+78     	; 0x485c <malloc+0x98>
    480e:	00 93 60 12 	sts	0x1260, r16	; 0x801260 <__flp>
    4812:	10 93 61 12 	sts	0x1261, r17	; 0x801261 <__flp+0x1>
    4816:	22 c0       	rjmp	.+68     	; 0x485c <malloc+0x98>
    4818:	21 15       	cp	r18, r1
    481a:	31 05       	cpc	r19, r1
    481c:	19 f0       	breq	.+6      	; 0x4824 <malloc+0x60>
    481e:	42 17       	cp	r20, r18
    4820:	53 07       	cpc	r21, r19
    4822:	18 f4       	brcc	.+6      	; 0x482a <malloc+0x66>
    4824:	9a 01       	movw	r18, r20
    4826:	bd 01       	movw	r22, r26
    4828:	ef 01       	movw	r28, r30
    482a:	df 01       	movw	r26, r30
    482c:	f8 01       	movw	r30, r16
    482e:	db cf       	rjmp	.-74     	; 0x47e6 <malloc+0x22>
    4830:	21 15       	cp	r18, r1
    4832:	31 05       	cpc	r19, r1
    4834:	f9 f0       	breq	.+62     	; 0x4874 <malloc+0xb0>
    4836:	28 1b       	sub	r18, r24
    4838:	39 0b       	sbc	r19, r25
    483a:	24 30       	cpi	r18, 0x04	; 4
    483c:	31 05       	cpc	r19, r1
    483e:	80 f4       	brcc	.+32     	; 0x4860 <malloc+0x9c>
    4840:	8a 81       	ldd	r24, Y+2	; 0x02
    4842:	9b 81       	ldd	r25, Y+3	; 0x03
    4844:	61 15       	cp	r22, r1
    4846:	71 05       	cpc	r23, r1
    4848:	21 f0       	breq	.+8      	; 0x4852 <malloc+0x8e>
    484a:	fb 01       	movw	r30, r22
    484c:	93 83       	std	Z+3, r25	; 0x03
    484e:	82 83       	std	Z+2, r24	; 0x02
    4850:	04 c0       	rjmp	.+8      	; 0x485a <malloc+0x96>
    4852:	90 93 61 12 	sts	0x1261, r25	; 0x801261 <__flp+0x1>
    4856:	80 93 60 12 	sts	0x1260, r24	; 0x801260 <__flp>
    485a:	fe 01       	movw	r30, r28
    485c:	32 96       	adiw	r30, 0x02	; 2
    485e:	44 c0       	rjmp	.+136    	; 0x48e8 <malloc+0x124>
    4860:	fe 01       	movw	r30, r28
    4862:	e2 0f       	add	r30, r18
    4864:	f3 1f       	adc	r31, r19
    4866:	81 93       	st	Z+, r24
    4868:	91 93       	st	Z+, r25
    486a:	22 50       	subi	r18, 0x02	; 2
    486c:	31 09       	sbc	r19, r1
    486e:	39 83       	std	Y+1, r19	; 0x01
    4870:	28 83       	st	Y, r18
    4872:	3a c0       	rjmp	.+116    	; 0x48e8 <malloc+0x124>
    4874:	20 91 5e 12 	lds	r18, 0x125E	; 0x80125e <__brkval>
    4878:	30 91 5f 12 	lds	r19, 0x125F	; 0x80125f <__brkval+0x1>
    487c:	23 2b       	or	r18, r19
    487e:	41 f4       	brne	.+16     	; 0x4890 <malloc+0xcc>
    4880:	20 91 02 02 	lds	r18, 0x0202	; 0x800202 <__malloc_heap_start>
    4884:	30 91 03 02 	lds	r19, 0x0203	; 0x800203 <__malloc_heap_start+0x1>
    4888:	30 93 5f 12 	sts	0x125F, r19	; 0x80125f <__brkval+0x1>
    488c:	20 93 5e 12 	sts	0x125E, r18	; 0x80125e <__brkval>
    4890:	20 91 00 02 	lds	r18, 0x0200	; 0x800200 <__DATA_REGION_ORIGIN__>
    4894:	30 91 01 02 	lds	r19, 0x0201	; 0x800201 <__DATA_REGION_ORIGIN__+0x1>
    4898:	21 15       	cp	r18, r1
    489a:	31 05       	cpc	r19, r1
    489c:	41 f4       	brne	.+16     	; 0x48ae <malloc+0xea>
    489e:	2d b7       	in	r18, 0x3d	; 61
    48a0:	3e b7       	in	r19, 0x3e	; 62
    48a2:	40 91 04 02 	lds	r20, 0x0204	; 0x800204 <__malloc_margin>
    48a6:	50 91 05 02 	lds	r21, 0x0205	; 0x800205 <__malloc_margin+0x1>
    48aa:	24 1b       	sub	r18, r20
    48ac:	35 0b       	sbc	r19, r21
    48ae:	e0 91 5e 12 	lds	r30, 0x125E	; 0x80125e <__brkval>
    48b2:	f0 91 5f 12 	lds	r31, 0x125F	; 0x80125f <__brkval+0x1>
    48b6:	e2 17       	cp	r30, r18
    48b8:	f3 07       	cpc	r31, r19
    48ba:	a0 f4       	brcc	.+40     	; 0x48e4 <malloc+0x120>
    48bc:	2e 1b       	sub	r18, r30
    48be:	3f 0b       	sbc	r19, r31
    48c0:	28 17       	cp	r18, r24
    48c2:	39 07       	cpc	r19, r25
    48c4:	78 f0       	brcs	.+30     	; 0x48e4 <malloc+0x120>
    48c6:	ac 01       	movw	r20, r24
    48c8:	4e 5f       	subi	r20, 0xFE	; 254
    48ca:	5f 4f       	sbci	r21, 0xFF	; 255
    48cc:	24 17       	cp	r18, r20
    48ce:	35 07       	cpc	r19, r21
    48d0:	48 f0       	brcs	.+18     	; 0x48e4 <malloc+0x120>
    48d2:	4e 0f       	add	r20, r30
    48d4:	5f 1f       	adc	r21, r31
    48d6:	50 93 5f 12 	sts	0x125F, r21	; 0x80125f <__brkval+0x1>
    48da:	40 93 5e 12 	sts	0x125E, r20	; 0x80125e <__brkval>
    48de:	81 93       	st	Z+, r24
    48e0:	91 93       	st	Z+, r25
    48e2:	02 c0       	rjmp	.+4      	; 0x48e8 <malloc+0x124>
    48e4:	e0 e0       	ldi	r30, 0x00	; 0
    48e6:	f0 e0       	ldi	r31, 0x00	; 0
    48e8:	cf 01       	movw	r24, r30
    48ea:	df 91       	pop	r29
    48ec:	cf 91       	pop	r28
    48ee:	1f 91       	pop	r17
    48f0:	0f 91       	pop	r16
    48f2:	08 95       	ret

000048f4 <free>:
    48f4:	cf 93       	push	r28
    48f6:	df 93       	push	r29
    48f8:	00 97       	sbiw	r24, 0x00	; 0
    48fa:	09 f4       	brne	.+2      	; 0x48fe <free+0xa>
    48fc:	81 c0       	rjmp	.+258    	; 0x4a00 <free+0x10c>
    48fe:	fc 01       	movw	r30, r24
    4900:	32 97       	sbiw	r30, 0x02	; 2
    4902:	13 82       	std	Z+3, r1	; 0x03
    4904:	12 82       	std	Z+2, r1	; 0x02
    4906:	a0 91 60 12 	lds	r26, 0x1260	; 0x801260 <__flp>
    490a:	b0 91 61 12 	lds	r27, 0x1261	; 0x801261 <__flp+0x1>
    490e:	10 97       	sbiw	r26, 0x00	; 0
    4910:	81 f4       	brne	.+32     	; 0x4932 <free+0x3e>
    4912:	20 81       	ld	r18, Z
    4914:	31 81       	ldd	r19, Z+1	; 0x01
    4916:	82 0f       	add	r24, r18
    4918:	93 1f       	adc	r25, r19
    491a:	20 91 5e 12 	lds	r18, 0x125E	; 0x80125e <__brkval>
    491e:	30 91 5f 12 	lds	r19, 0x125F	; 0x80125f <__brkval+0x1>
    4922:	28 17       	cp	r18, r24
    4924:	39 07       	cpc	r19, r25
    4926:	51 f5       	brne	.+84     	; 0x497c <free+0x88>
    4928:	f0 93 5f 12 	sts	0x125F, r31	; 0x80125f <__brkval+0x1>
    492c:	e0 93 5e 12 	sts	0x125E, r30	; 0x80125e <__brkval>
    4930:	67 c0       	rjmp	.+206    	; 0x4a00 <free+0x10c>
    4932:	ed 01       	movw	r28, r26
    4934:	20 e0       	ldi	r18, 0x00	; 0
    4936:	30 e0       	ldi	r19, 0x00	; 0
    4938:	ce 17       	cp	r28, r30
    493a:	df 07       	cpc	r29, r31
    493c:	40 f4       	brcc	.+16     	; 0x494e <free+0x5a>
    493e:	4a 81       	ldd	r20, Y+2	; 0x02
    4940:	5b 81       	ldd	r21, Y+3	; 0x03
    4942:	9e 01       	movw	r18, r28
    4944:	41 15       	cp	r20, r1
    4946:	51 05       	cpc	r21, r1
    4948:	f1 f0       	breq	.+60     	; 0x4986 <free+0x92>
    494a:	ea 01       	movw	r28, r20
    494c:	f5 cf       	rjmp	.-22     	; 0x4938 <free+0x44>
    494e:	d3 83       	std	Z+3, r29	; 0x03
    4950:	c2 83       	std	Z+2, r28	; 0x02
    4952:	40 81       	ld	r20, Z
    4954:	51 81       	ldd	r21, Z+1	; 0x01
    4956:	84 0f       	add	r24, r20
    4958:	95 1f       	adc	r25, r21
    495a:	c8 17       	cp	r28, r24
    495c:	d9 07       	cpc	r29, r25
    495e:	59 f4       	brne	.+22     	; 0x4976 <free+0x82>
    4960:	88 81       	ld	r24, Y
    4962:	99 81       	ldd	r25, Y+1	; 0x01
    4964:	84 0f       	add	r24, r20
    4966:	95 1f       	adc	r25, r21
    4968:	02 96       	adiw	r24, 0x02	; 2
    496a:	91 83       	std	Z+1, r25	; 0x01
    496c:	80 83       	st	Z, r24
    496e:	8a 81       	ldd	r24, Y+2	; 0x02
    4970:	9b 81       	ldd	r25, Y+3	; 0x03
    4972:	93 83       	std	Z+3, r25	; 0x03
    4974:	82 83       	std	Z+2, r24	; 0x02
    4976:	21 15       	cp	r18, r1
    4978:	31 05       	cpc	r19, r1
    497a:	29 f4       	brne	.+10     	; 0x4986 <free+0x92>
    497c:	f0 93 61 12 	sts	0x1261, r31	; 0x801261 <__flp+0x1>
    4980:	e0 93 60 12 	sts	0x1260, r30	; 0x801260 <__flp>
    4984:	3d c0       	rjmp	.+122    	; 0x4a00 <free+0x10c>
    4986:	e9 01       	movw	r28, r18
    4988:	fb 83       	std	Y+3, r31	; 0x03
    498a:	ea 83       	std	Y+2, r30	; 0x02
    498c:	49 91       	ld	r20, Y+
    498e:	59 91       	ld	r21, Y+
    4990:	c4 0f       	add	r28, r20
    4992:	d5 1f       	adc	r29, r21
    4994:	ec 17       	cp	r30, r28
    4996:	fd 07       	cpc	r31, r29
    4998:	61 f4       	brne	.+24     	; 0x49b2 <free+0xbe>
    499a:	80 81       	ld	r24, Z
    499c:	91 81       	ldd	r25, Z+1	; 0x01
    499e:	84 0f       	add	r24, r20
    49a0:	95 1f       	adc	r25, r21
    49a2:	02 96       	adiw	r24, 0x02	; 2
    49a4:	e9 01       	movw	r28, r18
    49a6:	99 83       	std	Y+1, r25	; 0x01
    49a8:	88 83       	st	Y, r24
    49aa:	82 81       	ldd	r24, Z+2	; 0x02
    49ac:	93 81       	ldd	r25, Z+3	; 0x03
    49ae:	9b 83       	std	Y+3, r25	; 0x03
    49b0:	8a 83       	std	Y+2, r24	; 0x02
    49b2:	e0 e0       	ldi	r30, 0x00	; 0
    49b4:	f0 e0       	ldi	r31, 0x00	; 0
    49b6:	12 96       	adiw	r26, 0x02	; 2
    49b8:	8d 91       	ld	r24, X+
    49ba:	9c 91       	ld	r25, X
    49bc:	13 97       	sbiw	r26, 0x03	; 3
    49be:	00 97       	sbiw	r24, 0x00	; 0
    49c0:	19 f0       	breq	.+6      	; 0x49c8 <free+0xd4>
    49c2:	fd 01       	movw	r30, r26
    49c4:	dc 01       	movw	r26, r24
    49c6:	f7 cf       	rjmp	.-18     	; 0x49b6 <free+0xc2>
    49c8:	8d 91       	ld	r24, X+
    49ca:	9c 91       	ld	r25, X
    49cc:	11 97       	sbiw	r26, 0x01	; 1
    49ce:	9d 01       	movw	r18, r26
    49d0:	2e 5f       	subi	r18, 0xFE	; 254
    49d2:	3f 4f       	sbci	r19, 0xFF	; 255
    49d4:	82 0f       	add	r24, r18
    49d6:	93 1f       	adc	r25, r19
    49d8:	20 91 5e 12 	lds	r18, 0x125E	; 0x80125e <__brkval>
    49dc:	30 91 5f 12 	lds	r19, 0x125F	; 0x80125f <__brkval+0x1>
    49e0:	28 17       	cp	r18, r24
    49e2:	39 07       	cpc	r19, r25
    49e4:	69 f4       	brne	.+26     	; 0x4a00 <free+0x10c>
    49e6:	30 97       	sbiw	r30, 0x00	; 0
    49e8:	29 f4       	brne	.+10     	; 0x49f4 <free+0x100>
    49ea:	10 92 61 12 	sts	0x1261, r1	; 0x801261 <__flp+0x1>
    49ee:	10 92 60 12 	sts	0x1260, r1	; 0x801260 <__flp>
    49f2:	02 c0       	rjmp	.+4      	; 0x49f8 <free+0x104>
    49f4:	13 82       	std	Z+3, r1	; 0x03
    49f6:	12 82       	std	Z+2, r1	; 0x02
    49f8:	b0 93 5f 12 	sts	0x125F, r27	; 0x80125f <__brkval+0x1>
    49fc:	a0 93 5e 12 	sts	0x125E, r26	; 0x80125e <__brkval>
    4a00:	df 91       	pop	r29
    4a02:	cf 91       	pop	r28
    4a04:	08 95       	ret

00004a06 <atoi>:
    4a06:	fc 01       	movw	r30, r24
    4a08:	88 27       	eor	r24, r24
    4a0a:	99 27       	eor	r25, r25
    4a0c:	e8 94       	clt
    4a0e:	21 91       	ld	r18, Z+
    4a10:	20 32       	cpi	r18, 0x20	; 32
    4a12:	e9 f3       	breq	.-6      	; 0x4a0e <atoi+0x8>
    4a14:	29 30       	cpi	r18, 0x09	; 9
    4a16:	10 f0       	brcs	.+4      	; 0x4a1c <atoi+0x16>
    4a18:	2e 30       	cpi	r18, 0x0E	; 14
    4a1a:	c8 f3       	brcs	.-14     	; 0x4a0e <atoi+0x8>
    4a1c:	2b 32       	cpi	r18, 0x2B	; 43
    4a1e:	39 f0       	breq	.+14     	; 0x4a2e <atoi+0x28>
    4a20:	2d 32       	cpi	r18, 0x2D	; 45
    4a22:	31 f4       	brne	.+12     	; 0x4a30 <atoi+0x2a>
    4a24:	68 94       	set
    4a26:	03 c0       	rjmp	.+6      	; 0x4a2e <atoi+0x28>
    4a28:	58 d0       	rcall	.+176    	; 0x4ada <__mulhi_const_10>
    4a2a:	82 0f       	add	r24, r18
    4a2c:	91 1d       	adc	r25, r1
    4a2e:	21 91       	ld	r18, Z+
    4a30:	20 53       	subi	r18, 0x30	; 48
    4a32:	2a 30       	cpi	r18, 0x0A	; 10
    4a34:	c8 f3       	brcs	.-14     	; 0x4a28 <atoi+0x22>
    4a36:	1e f4       	brtc	.+6      	; 0x4a3e <atoi+0x38>
    4a38:	90 95       	com	r25
    4a3a:	81 95       	neg	r24
    4a3c:	9f 4f       	sbci	r25, 0xFF	; 255
    4a3e:	08 95       	ret

00004a40 <strtok>:
    4a40:	48 ec       	ldi	r20, 0xC8	; 200
    4a42:	56 e0       	ldi	r21, 0x06	; 6
    4a44:	19 c0       	rjmp	.+50     	; 0x4a78 <strtok_r>

00004a46 <memset>:
    4a46:	dc 01       	movw	r26, r24
    4a48:	01 c0       	rjmp	.+2      	; 0x4a4c <memset+0x6>
    4a4a:	6d 93       	st	X+, r22
    4a4c:	41 50       	subi	r20, 0x01	; 1
    4a4e:	50 40       	sbci	r21, 0x00	; 0
    4a50:	e0 f7       	brcc	.-8      	; 0x4a4a <memset+0x4>
    4a52:	08 95       	ret

00004a54 <strcat>:
    4a54:	fb 01       	movw	r30, r22
    4a56:	dc 01       	movw	r26, r24
    4a58:	0d 90       	ld	r0, X+
    4a5a:	00 20       	and	r0, r0
    4a5c:	e9 f7       	brne	.-6      	; 0x4a58 <strcat+0x4>
    4a5e:	11 97       	sbiw	r26, 0x01	; 1
    4a60:	01 90       	ld	r0, Z+
    4a62:	0d 92       	st	X+, r0
    4a64:	00 20       	and	r0, r0
    4a66:	e1 f7       	brne	.-8      	; 0x4a60 <strcat+0xc>
    4a68:	08 95       	ret

00004a6a <strcpy>:
    4a6a:	fb 01       	movw	r30, r22
    4a6c:	dc 01       	movw	r26, r24
    4a6e:	01 90       	ld	r0, Z+
    4a70:	0d 92       	st	X+, r0
    4a72:	00 20       	and	r0, r0
    4a74:	e1 f7       	brne	.-8      	; 0x4a6e <strcpy+0x4>
    4a76:	08 95       	ret

00004a78 <strtok_r>:
    4a78:	fa 01       	movw	r30, r20
    4a7a:	a1 91       	ld	r26, Z+
    4a7c:	b0 81       	ld	r27, Z
    4a7e:	00 97       	sbiw	r24, 0x00	; 0
    4a80:	19 f4       	brne	.+6      	; 0x4a88 <strtok_r+0x10>
    4a82:	10 97       	sbiw	r26, 0x00	; 0
    4a84:	e1 f0       	breq	.+56     	; 0x4abe <strtok_r+0x46>
    4a86:	cd 01       	movw	r24, r26
    4a88:	dc 01       	movw	r26, r24
    4a8a:	cd 01       	movw	r24, r26
    4a8c:	0d 90       	ld	r0, X+
    4a8e:	00 20       	and	r0, r0
    4a90:	11 f4       	brne	.+4      	; 0x4a96 <strtok_r+0x1e>
    4a92:	c0 01       	movw	r24, r0
    4a94:	13 c0       	rjmp	.+38     	; 0x4abc <strtok_r+0x44>
    4a96:	fb 01       	movw	r30, r22
    4a98:	21 91       	ld	r18, Z+
    4a9a:	22 23       	and	r18, r18
    4a9c:	19 f0       	breq	.+6      	; 0x4aa4 <strtok_r+0x2c>
    4a9e:	20 15       	cp	r18, r0
    4aa0:	d9 f7       	brne	.-10     	; 0x4a98 <strtok_r+0x20>
    4aa2:	f3 cf       	rjmp	.-26     	; 0x4a8a <strtok_r+0x12>
    4aa4:	fb 01       	movw	r30, r22
    4aa6:	21 91       	ld	r18, Z+
    4aa8:	20 15       	cp	r18, r0
    4aaa:	19 f4       	brne	.+6      	; 0x4ab2 <strtok_r+0x3a>
    4aac:	1e 92       	st	-X, r1
    4aae:	11 96       	adiw	r26, 0x01	; 1
    4ab0:	06 c0       	rjmp	.+12     	; 0x4abe <strtok_r+0x46>
    4ab2:	22 23       	and	r18, r18
    4ab4:	c1 f7       	brne	.-16     	; 0x4aa6 <strtok_r+0x2e>
    4ab6:	0d 90       	ld	r0, X+
    4ab8:	00 20       	and	r0, r0
    4aba:	a1 f7       	brne	.-24     	; 0x4aa4 <strtok_r+0x2c>
    4abc:	d0 01       	movw	r26, r0
    4abe:	fa 01       	movw	r30, r20
    4ac0:	a1 93       	st	Z+, r26
    4ac2:	b0 83       	st	Z, r27
    4ac4:	08 95       	ret

00004ac6 <__itoa_ncheck>:
    4ac6:	bb 27       	eor	r27, r27
    4ac8:	4a 30       	cpi	r20, 0x0A	; 10
    4aca:	31 f4       	brne	.+12     	; 0x4ad8 <__itoa_ncheck+0x12>
    4acc:	99 23       	and	r25, r25
    4ace:	22 f4       	brpl	.+8      	; 0x4ad8 <__itoa_ncheck+0x12>
    4ad0:	bd e2       	ldi	r27, 0x2D	; 45
    4ad2:	90 95       	com	r25
    4ad4:	81 95       	neg	r24
    4ad6:	9f 4f       	sbci	r25, 0xFF	; 255
    4ad8:	09 c0       	rjmp	.+18     	; 0x4aec <__utoa_common>

00004ada <__mulhi_const_10>:
    4ada:	7a e0       	ldi	r23, 0x0A	; 10
    4adc:	97 9f       	mul	r25, r23
    4ade:	90 2d       	mov	r25, r0
    4ae0:	87 9f       	mul	r24, r23
    4ae2:	80 2d       	mov	r24, r0
    4ae4:	91 0d       	add	r25, r1
    4ae6:	11 24       	eor	r1, r1
    4ae8:	08 95       	ret

00004aea <__utoa_ncheck>:
    4aea:	bb 27       	eor	r27, r27

00004aec <__utoa_common>:
    4aec:	fb 01       	movw	r30, r22
    4aee:	55 27       	eor	r21, r21
    4af0:	aa 27       	eor	r26, r26
    4af2:	88 0f       	add	r24, r24
    4af4:	99 1f       	adc	r25, r25
    4af6:	aa 1f       	adc	r26, r26
    4af8:	a4 17       	cp	r26, r20
    4afa:	10 f0       	brcs	.+4      	; 0x4b00 <__utoa_common+0x14>
    4afc:	a4 1b       	sub	r26, r20
    4afe:	83 95       	inc	r24
    4b00:	50 51       	subi	r21, 0x10	; 16
    4b02:	b9 f7       	brne	.-18     	; 0x4af2 <__utoa_common+0x6>
    4b04:	a0 5d       	subi	r26, 0xD0	; 208
    4b06:	aa 33       	cpi	r26, 0x3A	; 58
    4b08:	08 f0       	brcs	.+2      	; 0x4b0c <__utoa_common+0x20>
    4b0a:	a9 5d       	subi	r26, 0xD9	; 217
    4b0c:	a1 93       	st	Z+, r26
    4b0e:	00 97       	sbiw	r24, 0x00	; 0
    4b10:	79 f7       	brne	.-34     	; 0x4af0 <__utoa_common+0x4>
    4b12:	b1 11       	cpse	r27, r1
    4b14:	b1 93       	st	Z+, r27
    4b16:	11 92       	st	Z+, r1
    4b18:	cb 01       	movw	r24, r22
    4b1a:	00 c0       	rjmp	.+0      	; 0x4b1c <strrev>

00004b1c <strrev>:
    4b1c:	dc 01       	movw	r26, r24
    4b1e:	fc 01       	movw	r30, r24
    4b20:	67 2f       	mov	r22, r23
    4b22:	71 91       	ld	r23, Z+
    4b24:	77 23       	and	r23, r23
    4b26:	e1 f7       	brne	.-8      	; 0x4b20 <strrev+0x4>
    4b28:	32 97       	sbiw	r30, 0x02	; 2
    4b2a:	04 c0       	rjmp	.+8      	; 0x4b34 <strrev+0x18>
    4b2c:	7c 91       	ld	r23, X
    4b2e:	6d 93       	st	X+, r22
    4b30:	70 83       	st	Z, r23
    4b32:	62 91       	ld	r22, -Z
    4b34:	ae 17       	cp	r26, r30
    4b36:	bf 07       	cpc	r27, r31
    4b38:	c8 f3       	brcs	.-14     	; 0x4b2c <strrev+0x10>
    4b3a:	08 95       	ret

00004b3c <_exit>:
    4b3c:	f8 94       	cli

00004b3e <__stop_program>:
    4b3e:	ff cf       	rjmp	.-2      	; 0x4b3e <__stop_program>
