
Mikrocontroller.elf:     file format elf32-avr

Sections:
Idx Name          Size      VMA       LMA       File off  Algn
  0 .data         000004f2  00800200  00006970  00006a04  2**0
                  CONTENTS, ALLOC, LOAD, DATA
  1 .text         00006970  00000000  00000000  00000094  2**1
                  CONTENTS, ALLOC, LOAD, READONLY, CODE
  2 .bss          00000ddd  008006f2  008006f2  00006ef6  2**0
                  ALLOC
  3 .comment      00000030  00000000  00000000  00006ef6  2**0
                  CONTENTS, READONLY
  4 .note.gnu.avr.deviceinfo 00000040  00000000  00000000  00006f28  2**2
                  CONTENTS, READONLY
  5 .debug_aranges 000007c8  00000000  00000000  00006f68  2**0
                  CONTENTS, READONLY, DEBUGGING
  6 .debug_info   000125c2  00000000  00000000  00007730  2**0
                  CONTENTS, READONLY, DEBUGGING
  7 .debug_abbrev 00002c16  00000000  00000000  00019cf2  2**0
                  CONTENTS, READONLY, DEBUGGING
  8 .debug_line   00007621  00000000  00000000  0001c908  2**0
                  CONTENTS, READONLY, DEBUGGING
  9 .debug_frame  0000200c  00000000  00000000  00023f2c  2**2
                  CONTENTS, READONLY, DEBUGGING
 10 .debug_str    00002de1  00000000  00000000  00025f38  2**0
                  CONTENTS, READONLY, DEBUGGING
 11 .debug_loc    0000c7ed  00000000  00000000  00028d19  2**0
                  CONTENTS, READONLY, DEBUGGING
 12 .debug_ranges 000008f0  00000000  00000000  00035506  2**0
                  CONTENTS, READONLY, DEBUGGING

Disassembly of section .text:

00000000 <__vectors>:
       0:	23 c1       	rjmp	.+582    	; 0x248 <__ctors_end>
       2:	00 00       	nop
       4:	42 c1       	rjmp	.+644    	; 0x28a <__bad_interrupt>
       6:	00 00       	nop
       8:	40 c1       	rjmp	.+640    	; 0x28a <__bad_interrupt>
       a:	00 00       	nop
       c:	3e c1       	rjmp	.+636    	; 0x28a <__bad_interrupt>
       e:	00 00       	nop
      10:	3c c1       	rjmp	.+632    	; 0x28a <__bad_interrupt>
      12:	00 00       	nop
      14:	3a c1       	rjmp	.+628    	; 0x28a <__bad_interrupt>
      16:	00 00       	nop
      18:	38 c1       	rjmp	.+624    	; 0x28a <__bad_interrupt>
      1a:	00 00       	nop
      1c:	36 c1       	rjmp	.+620    	; 0x28a <__bad_interrupt>
      1e:	00 00       	nop
      20:	34 c1       	rjmp	.+616    	; 0x28a <__bad_interrupt>
      22:	00 00       	nop
      24:	32 c1       	rjmp	.+612    	; 0x28a <__bad_interrupt>
      26:	00 00       	nop
      28:	30 c1       	rjmp	.+608    	; 0x28a <__bad_interrupt>
      2a:	00 00       	nop
      2c:	2e c1       	rjmp	.+604    	; 0x28a <__bad_interrupt>
      2e:	00 00       	nop
      30:	2c c1       	rjmp	.+600    	; 0x28a <__bad_interrupt>
      32:	00 00       	nop
      34:	2a c1       	rjmp	.+596    	; 0x28a <__bad_interrupt>
      36:	00 00       	nop
      38:	28 c1       	rjmp	.+592    	; 0x28a <__bad_interrupt>
      3a:	00 00       	nop
      3c:	26 c1       	rjmp	.+588    	; 0x28a <__bad_interrupt>
      3e:	00 00       	nop
      40:	24 c1       	rjmp	.+584    	; 0x28a <__bad_interrupt>
      42:	00 00       	nop
      44:	22 c1       	rjmp	.+580    	; 0x28a <__bad_interrupt>
      46:	00 00       	nop
      48:	20 c1       	rjmp	.+576    	; 0x28a <__bad_interrupt>
      4a:	00 00       	nop
      4c:	1e c1       	rjmp	.+572    	; 0x28a <__bad_interrupt>
      4e:	00 00       	nop
      50:	1c c1       	rjmp	.+568    	; 0x28a <__bad_interrupt>
      52:	00 00       	nop
      54:	1a c1       	rjmp	.+564    	; 0x28a <__bad_interrupt>
      56:	00 00       	nop
      58:	18 c1       	rjmp	.+560    	; 0x28a <__bad_interrupt>
      5a:	00 00       	nop
      5c:	16 c1       	rjmp	.+556    	; 0x28a <__bad_interrupt>
      5e:	00 00       	nop
      60:	14 c1       	rjmp	.+552    	; 0x28a <__bad_interrupt>
      62:	00 00       	nop
      64:	0c 94 1e 31 	jmp	0x623c	; 0x623c <__vector_25>
      68:	0c 94 df 30 	jmp	0x61be	; 0x61be <__vector_26>
      6c:	0e c1       	rjmp	.+540    	; 0x28a <__bad_interrupt>
      6e:	00 00       	nop
      70:	0c c1       	rjmp	.+536    	; 0x28a <__bad_interrupt>
      72:	00 00       	nop
      74:	0a c1       	rjmp	.+532    	; 0x28a <__bad_interrupt>
      76:	00 00       	nop
      78:	08 c1       	rjmp	.+528    	; 0x28a <__bad_interrupt>
      7a:	00 00       	nop
      7c:	06 c1       	rjmp	.+524    	; 0x28a <__bad_interrupt>
      7e:	00 00       	nop
      80:	04 c1       	rjmp	.+520    	; 0x28a <__bad_interrupt>
      82:	00 00       	nop
      84:	02 c1       	rjmp	.+516    	; 0x28a <__bad_interrupt>
      86:	00 00       	nop
      88:	00 c1       	rjmp	.+512    	; 0x28a <__bad_interrupt>
      8a:	00 00       	nop
      8c:	fe c0       	rjmp	.+508    	; 0x28a <__bad_interrupt>
      8e:	00 00       	nop
      90:	0c 94 4a 31 	jmp	0x6294	; 0x6294 <__vector_36>
      94:	fa c0       	rjmp	.+500    	; 0x28a <__bad_interrupt>
      96:	00 00       	nop
      98:	f8 c0       	rjmp	.+496    	; 0x28a <__bad_interrupt>
      9a:	00 00       	nop
      9c:	f6 c0       	rjmp	.+492    	; 0x28a <__bad_interrupt>
      9e:	00 00       	nop
      a0:	f4 c0       	rjmp	.+488    	; 0x28a <__bad_interrupt>
      a2:	00 00       	nop
      a4:	f2 c0       	rjmp	.+484    	; 0x28a <__bad_interrupt>
      a6:	00 00       	nop
      a8:	f0 c0       	rjmp	.+480    	; 0x28a <__bad_interrupt>
      aa:	00 00       	nop
      ac:	ee c0       	rjmp	.+476    	; 0x28a <__bad_interrupt>
      ae:	00 00       	nop
      b0:	ec c0       	rjmp	.+472    	; 0x28a <__bad_interrupt>
      b2:	00 00       	nop
      b4:	ea c0       	rjmp	.+468    	; 0x28a <__bad_interrupt>
      b6:	00 00       	nop
      b8:	e8 c0       	rjmp	.+464    	; 0x28a <__bad_interrupt>
      ba:	00 00       	nop
      bc:	e6 c0       	rjmp	.+460    	; 0x28a <__bad_interrupt>
      be:	00 00       	nop
      c0:	e4 c0       	rjmp	.+456    	; 0x28a <__bad_interrupt>
      c2:	00 00       	nop
      c4:	e2 c0       	rjmp	.+452    	; 0x28a <__bad_interrupt>
      c6:	00 00       	nop
      c8:	e0 c0       	rjmp	.+448    	; 0x28a <__bad_interrupt>
      ca:	00 00       	nop
      cc:	0c 94 b5 31 	jmp	0x636a	; 0x636a <__vector_51>
      d0:	0c 94 76 31 	jmp	0x62ec	; 0x62ec <__vector_52>
      d4:	da c0       	rjmp	.+436    	; 0x28a <__bad_interrupt>
      d6:	00 00       	nop
      d8:	0c 94 20 32 	jmp	0x6440	; 0x6440 <__vector_54>
      dc:	0c 94 e1 31 	jmp	0x63c2	; 0x63c2 <__vector_55>
      e0:	d4 c0       	rjmp	.+424    	; 0x28a <__bad_interrupt>
      e2:	00 00       	nop
      e4:	2e 02       	muls	r18, r30
      e6:	30 02       	muls	r19, r16
      e8:	32 02       	muls	r19, r18
      ea:	34 02       	muls	r19, r20
      ec:	36 02       	muls	r19, r22
      ee:	38 02       	muls	r19, r24
      f0:	3a 02       	muls	r19, r26
      f2:	3c 02       	muls	r19, r28
      f4:	42 02       	muls	r20, r18
      f6:	48 02       	muls	r20, r24
      f8:	4e 02       	muls	r20, r30
      fa:	54 02       	muls	r21, r20
      fc:	65 02       	muls	r22, r21
      fe:	67 02       	muls	r22, r23
     100:	69 02       	muls	r22, r25
     102:	6b 02       	muls	r22, r27
     104:	6d 02       	muls	r22, r29
     106:	6f 02       	muls	r22, r31
     108:	71 02       	muls	r23, r17
     10a:	73 02       	muls	r23, r19
     10c:	79 02       	muls	r23, r25
     10e:	7f 02       	muls	r23, r31
     110:	85 02       	muls	r24, r21
     112:	8b 02       	muls	r24, r27
     114:	9c 02       	muls	r25, r28
     116:	9f 02       	muls	r25, r31
     118:	a3 02       	muls	r26, r19
     11a:	a7 02       	muls	r26, r23
     11c:	ab 02       	muls	r26, r27
     11e:	af 02       	muls	r26, r31
     120:	b3 02       	muls	r27, r19
     122:	b7 02       	muls	r27, r23
     124:	bb 02       	muls	r27, r27
     126:	bf 02       	muls	r27, r31
     128:	c3 02       	muls	r28, r19
     12a:	c6 02       	muls	r28, r22
     12c:	36 0f       	add	r19, r22
     12e:	4a 0f       	add	r20, r26
     130:	7c 0f       	add	r23, r28
     132:	87 0f       	add	r24, r23
     134:	b9 0f       	add	r27, r25
     136:	c2 0f       	add	r28, r18
     138:	c6 0f       	add	r28, r22
     13a:	0a 10       	cpse	r0, r10
     13c:	2e 10       	cpse	r2, r14
     13e:	38 10       	cpse	r3, r8
     140:	42 10       	cpse	r4, r2
     142:	4c 10       	cpse	r4, r12
     144:	56 10       	cpse	r5, r6
     146:	60 10       	cpse	r6, r0
     148:	6a 10       	cpse	r6, r10
     14a:	74 10       	cpse	r7, r4
     14c:	7e 10       	cpse	r7, r14
     14e:	8e 10       	cpse	r8, r14
     150:	df 10       	cpse	r13, r15
     152:	e9 10       	cpse	r14, r9
     154:	08 11       	cpse	r16, r8
     156:	0c 11       	cpse	r16, r12
     158:	10 11       	cpse	r17, r0
     15a:	17 11       	cpse	r17, r7
     15c:	1c 11       	cpse	r17, r12
     15e:	83 11       	cpse	r24, r3
     160:	87 11       	cpse	r24, r7
     162:	8b 11       	cpse	r24, r11
     164:	8f 11       	cpse	r24, r15
     166:	93 11       	cpse	r25, r3
     168:	97 11       	cpse	r25, r7
     16a:	9b 11       	cpse	r25, r11
     16c:	9f 11       	cpse	r25, r15
     16e:	a3 11       	cpse	r26, r3
     170:	b3 11       	cpse	r27, r3
     172:	d0 11       	cpse	r29, r0
     174:	e0 11       	cpse	r30, r0
     176:	f0 11       	cpse	r31, r0
     178:	f8 11       	cpse	r31, r8
     17a:	19 12       	cpse	r1, r25
     17c:	1d 12       	cpse	r1, r29
     17e:	21 12       	cpse	r2, r17
     180:	25 12       	cpse	r2, r21
     182:	98 12       	cpse	r9, r24
     184:	b1 12       	cpse	r11, r17
     186:	ca 12       	cpse	r12, r26
     188:	e3 12       	cpse	r14, r19
     18a:	fc 12       	cpse	r15, r28
     18c:	15 13       	cpse	r17, r21
     18e:	2e 13       	cpse	r18, r30
     190:	47 13       	cpse	r20, r23
     192:	60 13       	cpse	r22, r16
     194:	79 13       	cpse	r23, r25
     196:	92 13       	cpse	r25, r18
     198:	ab 13       	cpse	r26, r27
     19a:	c4 13       	cpse	r28, r20
     19c:	dd 13       	cpse	r29, r29
     19e:	f6 13       	cpse	r31, r22
     1a0:	0f 14       	cp	r0, r15
     1a2:	28 14       	cp	r2, r8
     1a4:	41 14       	cp	r4, r1
     1a6:	5a 14       	cp	r5, r10
     1a8:	73 14       	cp	r7, r3
     1aa:	8c 14       	cp	r8, r12
     1ac:	a5 14       	cp	r10, r5
     1ae:	be 14       	cp	r11, r14
     1b0:	d7 14       	cp	r13, r7
     1b2:	f0 14       	cp	r15, r0
     1b4:	09 15       	cp	r16, r9
     1b6:	68 15       	cp	r22, r8
     1b8:	22 15       	cp	r18, r2
     1ba:	2c 15       	cp	r18, r12
     1bc:	44 15       	cp	r20, r4
     1be:	4c 15       	cp	r20, r12
     1c0:	cc 16       	cp	r12, r28
     1c2:	d7 16       	cp	r13, r23
     1c4:	e2 16       	cp	r14, r18
     1c6:	ed 16       	cp	r14, r29
     1c8:	f8 16       	cp	r15, r24
     1ca:	03 17       	cp	r16, r19
     1cc:	0e 17       	cp	r16, r30
     1ce:	19 17       	cp	r17, r25
     1d0:	24 17       	cp	r18, r20
     1d2:	2f 17       	cp	r18, r31
     1d4:	3a 17       	cp	r19, r26
     1d6:	45 17       	cp	r20, r21
     1d8:	50 17       	cp	r21, r16
     1da:	61 17       	cp	r22, r17
     1dc:	66 17       	cp	r22, r22
     1de:	6b 17       	cp	r22, r27
     1e0:	70 17       	cp	r23, r16
     1e2:	75 17       	cp	r23, r21
     1e4:	7a 17       	cp	r23, r26
     1e6:	7f 17       	cp	r23, r31
     1e8:	8f 17       	cp	r24, r31
     1ea:	9f 17       	cp	r25, r31
     1ec:	a5 17       	cp	r26, r21
     1ee:	aa 17       	cp	r26, r26
     1f0:	0b 19       	sub	r16, r11
     1f2:	33 19       	sub	r19, r3
     1f4:	5a 19       	sub	r21, r10
     1f6:	81 19       	sub	r24, r1
     1f8:	a8 19       	sub	r26, r8
     1fa:	cf 19       	sub	r28, r15
     1fc:	f6 19       	sub	r31, r6
     1fe:	50 1a       	sub	r5, r16
     200:	aa 1a       	sub	r10, r26
     202:	0d 1b       	sub	r16, r29
     204:	10 1b       	sub	r17, r16
     206:	13 1b       	sub	r17, r19
     208:	16 1b       	sub	r17, r22
     20a:	19 1b       	sub	r17, r25
     20c:	1c 1b       	sub	r17, r28
     20e:	1f 1b       	sub	r17, r31
     210:	22 1b       	sub	r18, r18
     212:	25 1b       	sub	r18, r21
     214:	35 1b       	sub	r19, r21
     216:	5f 1b       	sub	r21, r31
     218:	63 1b       	sub	r22, r19
     21a:	67 1b       	sub	r22, r23
     21c:	6b 1b       	sub	r22, r27
     21e:	6f 1b       	sub	r22, r31
     220:	ad 1b       	sub	r26, r29
     222:	73 1b       	sub	r23, r19
     224:	77 1b       	sub	r23, r23
     226:	7b 1b       	sub	r23, r27
     228:	7f 1b       	sub	r23, r31
     22a:	83 1b       	sub	r24, r19
     22c:	87 1b       	sub	r24, r23
     22e:	8b 1b       	sub	r24, r27
     230:	ad 1b       	sub	r26, r29
     232:	ad 1b       	sub	r26, r29
     234:	8f 1b       	sub	r24, r31
     236:	93 1b       	sub	r25, r19
     238:	96 1b       	sub	r25, r22
     23a:	99 1b       	sub	r25, r25
     23c:	9c 1b       	sub	r25, r28
     23e:	9f 1b       	sub	r25, r31
     240:	a2 1b       	sub	r26, r18
     242:	a5 1b       	sub	r26, r21
     244:	a8 1b       	sub	r26, r24
     246:	ab 1b       	sub	r26, r27

00000248 <__ctors_end>:
     248:	11 24       	eor	r1, r1
     24a:	1f be       	out	0x3f, r1	; 63
     24c:	cf ef       	ldi	r28, 0xFF	; 255
     24e:	d1 e2       	ldi	r29, 0x21	; 33
     250:	de bf       	out	0x3e, r29	; 62
     252:	cd bf       	out	0x3d, r28	; 61
     254:	00 e0       	ldi	r16, 0x00	; 0
     256:	0c bf       	out	0x3c, r16	; 60

00000258 <__do_copy_data>:
     258:	16 e0       	ldi	r17, 0x06	; 6
     25a:	a0 e0       	ldi	r26, 0x00	; 0
     25c:	b2 e0       	ldi	r27, 0x02	; 2
     25e:	e0 e7       	ldi	r30, 0x70	; 112
     260:	f9 e6       	ldi	r31, 0x69	; 105
     262:	00 e0       	ldi	r16, 0x00	; 0
     264:	0b bf       	out	0x3b, r16	; 59
     266:	02 c0       	rjmp	.+4      	; 0x26c <__do_copy_data+0x14>
     268:	07 90       	elpm	r0, Z+
     26a:	0d 92       	st	X+, r0
     26c:	a2 3f       	cpi	r26, 0xF2	; 242
     26e:	b1 07       	cpc	r27, r17
     270:	d9 f7       	brne	.-10     	; 0x268 <__do_copy_data+0x10>

00000272 <__do_clear_bss>:
     272:	24 e1       	ldi	r18, 0x14	; 20
     274:	a2 ef       	ldi	r26, 0xF2	; 242
     276:	b6 e0       	ldi	r27, 0x06	; 6
     278:	01 c0       	rjmp	.+2      	; 0x27c <.do_clear_bss_start>

0000027a <.do_clear_bss_loop>:
     27a:	1d 92       	st	X+, r1

0000027c <.do_clear_bss_start>:
     27c:	af 3c       	cpi	r26, 0xCF	; 207
     27e:	b2 07       	cpc	r27, r18
     280:	e1 f7       	brne	.-8      	; 0x27a <.do_clear_bss_loop>
     282:	0e 94 62 32 	call	0x64c4	; 0x64c4 <main>
     286:	0c 94 b6 34 	jmp	0x696c	; 0x696c <_exit>

0000028a <__bad_interrupt>:
     28a:	ba ce       	rjmp	.-652    	; 0x0 <__vectors>

0000028c <cocktail_test_command>:
			lese_textfile_in_getraenk(i);
			nextion_setText(string,aktuellesGetraenk->name);
		}
		_delay_ms(10);
	}
}
     28c:	cf 93       	push	r28
     28e:	df 93       	push	r29
     290:	ec 01       	movw	r28, r24
     292:	86 e3       	ldi	r24, 0x36	; 54
     294:	92 e0       	ldi	r25, 0x02	; 2
     296:	0e 94 b6 30 	call	0x616c	; 0x616c <Uart_Transmit_IT_PC>
     29a:	ce 01       	movw	r24, r28
     29c:	0e 94 b6 30 	call	0x616c	; 0x616c <Uart_Transmit_IT_PC>
     2a0:	8c e8       	ldi	r24, 0x8C	; 140
     2a2:	95 e0       	ldi	r25, 0x05	; 5
     2a4:	0e 94 b6 30 	call	0x616c	; 0x616c <Uart_Transmit_IT_PC>
     2a8:	df 91       	pop	r29
     2aa:	cf 91       	pop	r28
     2ac:	08 95       	ret

000002ae <schreibe_Menge_in_Getraenk>:
     2ae:	cf 92       	push	r12
     2b0:	df 92       	push	r13
     2b2:	ef 92       	push	r14
     2b4:	ff 92       	push	r15
     2b6:	0f 93       	push	r16
     2b8:	1f 93       	push	r17
     2ba:	cf 93       	push	r28
     2bc:	df 93       	push	r29
     2be:	cd b7       	in	r28, 0x3d	; 61
     2c0:	de b7       	in	r29, 0x3e	; 62
     2c2:	69 97       	sbiw	r28, 0x19	; 25
     2c4:	0f b6       	in	r0, 0x3f	; 63
     2c6:	f8 94       	cli
     2c8:	de bf       	out	0x3e, r29	; 62
     2ca:	0f be       	out	0x3f, r0	; 63
     2cc:	cd bf       	out	0x3d, r28	; 61
     2ce:	fe 01       	movw	r30, r28
     2d0:	31 96       	adiw	r30, 0x01	; 1
     2d2:	9f e0       	ldi	r25, 0x0F	; 15
     2d4:	df 01       	movw	r26, r30
     2d6:	1d 92       	st	X+, r1
     2d8:	9a 95       	dec	r25
     2da:	e9 f7       	brne	.-6      	; 0x2d6 <schreibe_Menge_in_Getraenk+0x28>
     2dc:	08 2f       	mov	r16, r24
     2de:	10 e0       	ldi	r17, 0x00	; 0
     2e0:	80 91 8a 10 	lds	r24, 0x108A	; 0x80108a <i_Liste>
     2e4:	b8 01       	movw	r22, r16
     2e6:	68 0f       	add	r22, r24
     2e8:	71 1d       	adc	r23, r1
     2ea:	a0 91 c4 10 	lds	r26, 0x10C4	; 0x8010c4 <aktuellesGetraenk>
     2ee:	b0 91 c5 10 	lds	r27, 0x10C5	; 0x8010c5 <aktuellesGetraenk+0x1>
     2f2:	20 e0       	ldi	r18, 0x00	; 0
     2f4:	30 e0       	ldi	r19, 0x00	; 0
     2f6:	90 e0       	ldi	r25, 0x00	; 0
     2f8:	62 17       	cp	r22, r18
     2fa:	73 07       	cpc	r23, r19
     2fc:	41 f0       	breq	.+16     	; 0x30e <schreibe_Menge_in_Getraenk+0x60>
     2fe:	13 96       	adiw	r26, 0x03	; 3
     300:	ed 91       	ld	r30, X+
     302:	fc 91       	ld	r31, X
     304:	14 97       	sbiw	r26, 0x04	; 4
     306:	e2 0f       	add	r30, r18
     308:	f3 1f       	adc	r31, r19
     30a:	40 81       	ld	r20, Z
     30c:	94 0f       	add	r25, r20
     30e:	2f 5f       	subi	r18, 0xFF	; 255
     310:	3f 4f       	sbci	r19, 0xFF	; 255
     312:	2c 30       	cpi	r18, 0x0C	; 12
     314:	31 05       	cpc	r19, r1
     316:	81 f7       	brne	.-32     	; 0x2f8 <schreibe_Menge_in_Getraenk+0x4a>
     318:	84 e6       	ldi	r24, 0x64	; 100
     31a:	f8 2e       	mov	r15, r24
     31c:	f9 1a       	sub	r15, r25
     31e:	87 e0       	ldi	r24, 0x07	; 7
     320:	e5 e4       	ldi	r30, 0x45	; 69
     322:	f2 e0       	ldi	r31, 0x02	; 2
     324:	de 01       	movw	r26, r28
     326:	11 96       	adiw	r26, 0x01	; 1
     328:	01 90       	ld	r0, Z+
     32a:	0d 92       	st	X+, r0
     32c:	8a 95       	dec	r24
     32e:	e1 f7       	brne	.-8      	; 0x328 <schreibe_Menge_in_Getraenk+0x7a>
     330:	68 01       	movw	r12, r16
     332:	bf ef       	ldi	r27, 0xFF	; 255
     334:	cb 1a       	sub	r12, r27
     336:	db 0a       	sbc	r13, r27
     338:	4a e0       	ldi	r20, 0x0A	; 10
     33a:	be 01       	movw	r22, r28
     33c:	60 5f       	subi	r22, 0xF0	; 240
     33e:	7f 4f       	sbci	r23, 0xFF	; 255
     340:	c6 01       	movw	r24, r12
     342:	0e 94 7b 34 	call	0x68f6	; 0x68f6 <__itoa_ncheck>
     346:	be 01       	movw	r22, r28
     348:	60 5f       	subi	r22, 0xF0	; 240
     34a:	7f 4f       	sbci	r23, 0xFF	; 255
     34c:	ce 01       	movw	r24, r28
     34e:	01 96       	adiw	r24, 0x01	; 1
     350:	0e 94 42 34 	call	0x6884	; 0x6884 <strcat>
     354:	69 ec       	ldi	r22, 0xC9	; 201
     356:	72 e1       	ldi	r23, 0x12	; 18
     358:	ce 01       	movw	r24, r28
     35a:	01 96       	adiw	r24, 0x01	; 1
     35c:	0e 94 57 21 	call	0x42ae	; 0x42ae <nextion_getSliderValue>
     360:	9f 2d       	mov	r25, r15
     362:	8f 15       	cp	r24, r15
     364:	08 f4       	brcc	.+2      	; 0x368 <schreibe_Menge_in_Getraenk+0xba>
     366:	98 2f       	mov	r25, r24
     368:	e0 91 c4 10 	lds	r30, 0x10C4	; 0x8010c4 <aktuellesGetraenk>
     36c:	f0 91 c5 10 	lds	r31, 0x10C5	; 0x8010c5 <aktuellesGetraenk+0x1>
     370:	20 91 8a 10 	lds	r18, 0x108A	; 0x80108a <i_Liste>
     374:	03 80       	ldd	r0, Z+3	; 0x03
     376:	f4 81       	ldd	r31, Z+4	; 0x04
     378:	e0 2d       	mov	r30, r0
     37a:	0e 0f       	add	r16, r30
     37c:	1f 1f       	adc	r17, r31
     37e:	f8 01       	movw	r30, r16
     380:	e2 0f       	add	r30, r18
     382:	f1 1d       	adc	r31, r1
     384:	90 83       	st	Z, r25
     386:	09 2f       	mov	r16, r25
     388:	10 e0       	ldi	r17, 0x00	; 0
     38a:	7e 01       	movw	r14, r28
     38c:	80 e1       	ldi	r24, 0x10	; 16
     38e:	e8 0e       	add	r14, r24
     390:	f1 1c       	adc	r15, r1
     392:	4a e0       	ldi	r20, 0x0A	; 10
     394:	b7 01       	movw	r22, r14
     396:	c8 01       	movw	r24, r16
     398:	0e 94 7b 34 	call	0x68f6	; 0x68f6 <__itoa_ncheck>
     39c:	f7 01       	movw	r30, r14
     39e:	01 90       	ld	r0, Z+
     3a0:	00 20       	and	r0, r0
     3a2:	e9 f7       	brne	.-6      	; 0x39e <schreibe_Menge_in_Getraenk+0xf0>
     3a4:	31 97       	sbiw	r30, 0x01	; 1
     3a6:	85 e2       	ldi	r24, 0x25	; 37
     3a8:	90 e0       	ldi	r25, 0x00	; 0
     3aa:	91 83       	std	Z+1, r25	; 0x01
     3ac:	80 83       	st	Z, r24
     3ae:	86 e0       	ldi	r24, 0x06	; 6
     3b0:	ec e4       	ldi	r30, 0x4C	; 76
     3b2:	f2 e0       	ldi	r31, 0x02	; 2
     3b4:	de 01       	movw	r26, r28
     3b6:	11 96       	adiw	r26, 0x01	; 1
     3b8:	01 90       	ld	r0, Z+
     3ba:	0d 92       	st	X+, r0
     3bc:	8a 95       	dec	r24
     3be:	e1 f7       	brne	.-8      	; 0x3b8 <schreibe_Menge_in_Getraenk+0x10a>
     3c0:	4a e0       	ldi	r20, 0x0A	; 10
     3c2:	be 01       	movw	r22, r28
     3c4:	6b 5e       	subi	r22, 0xEB	; 235
     3c6:	7f 4f       	sbci	r23, 0xFF	; 255
     3c8:	c6 01       	movw	r24, r12
     3ca:	0e 94 7b 34 	call	0x68f6	; 0x68f6 <__itoa_ncheck>
     3ce:	be 01       	movw	r22, r28
     3d0:	6b 5e       	subi	r22, 0xEB	; 235
     3d2:	7f 4f       	sbci	r23, 0xFF	; 255
     3d4:	ce 01       	movw	r24, r28
     3d6:	01 96       	adiw	r24, 0x01	; 1
     3d8:	0e 94 42 34 	call	0x6884	; 0x6884 <strcat>
     3dc:	b7 01       	movw	r22, r14
     3de:	ce 01       	movw	r24, r28
     3e0:	01 96       	adiw	r24, 0x01	; 1
     3e2:	0e 94 09 21 	call	0x4212	; 0x4212 <nextion_setText>
     3e6:	4a e0       	ldi	r20, 0x0A	; 10
     3e8:	b7 01       	movw	r22, r14
     3ea:	c8 01       	movw	r24, r16
     3ec:	0e 94 7b 34 	call	0x68f6	; 0x68f6 <__itoa_ncheck>
     3f0:	87 e0       	ldi	r24, 0x07	; 7
     3f2:	e5 e4       	ldi	r30, 0x45	; 69
     3f4:	f2 e0       	ldi	r31, 0x02	; 2
     3f6:	de 01       	movw	r26, r28
     3f8:	11 96       	adiw	r26, 0x01	; 1
     3fa:	01 90       	ld	r0, Z+
     3fc:	0d 92       	st	X+, r0
     3fe:	8a 95       	dec	r24
     400:	e1 f7       	brne	.-8      	; 0x3fa <schreibe_Menge_in_Getraenk+0x14c>
     402:	4a e0       	ldi	r20, 0x0A	; 10
     404:	be 01       	movw	r22, r28
     406:	6b 5e       	subi	r22, 0xEB	; 235
     408:	7f 4f       	sbci	r23, 0xFF	; 255
     40a:	c6 01       	movw	r24, r12
     40c:	0e 94 7b 34 	call	0x68f6	; 0x68f6 <__itoa_ncheck>
     410:	be 01       	movw	r22, r28
     412:	6b 5e       	subi	r22, 0xEB	; 235
     414:	7f 4f       	sbci	r23, 0xFF	; 255
     416:	ce 01       	movw	r24, r28
     418:	01 96       	adiw	r24, 0x01	; 1
     41a:	0e 94 42 34 	call	0x6884	; 0x6884 <strcat>
     41e:	b7 01       	movw	r22, r14
     420:	ce 01       	movw	r24, r28
     422:	01 96       	adiw	r24, 0x01	; 1
     424:	0e 94 21 21 	call	0x4242	; 0x4242 <nextion_setValue>
     428:	69 96       	adiw	r28, 0x19	; 25
     42a:	0f b6       	in	r0, 0x3f	; 63
     42c:	f8 94       	cli
     42e:	de bf       	out	0x3e, r29	; 62
     430:	0f be       	out	0x3f, r0	; 63
     432:	cd bf       	out	0x3d, r28	; 61
     434:	df 91       	pop	r29
     436:	cf 91       	pop	r28
     438:	1f 91       	pop	r17
     43a:	0f 91       	pop	r16
     43c:	ff 90       	pop	r15
     43e:	ef 90       	pop	r14
     440:	df 90       	pop	r13
     442:	cf 90       	pop	r12
     444:	08 95       	ret

00000446 <schalte_pumpe_ein>:
     446:	90 e0       	ldi	r25, 0x00	; 0
     448:	8c 30       	cpi	r24, 0x0C	; 12
     44a:	91 05       	cpc	r25, r1
     44c:	90 f5       	brcc	.+100    	; 0x4b2 <schalte_pumpe_ein+0x6c>
     44e:	fc 01       	movw	r30, r24
     450:	88 27       	eor	r24, r24
     452:	ee 58       	subi	r30, 0x8E	; 142
     454:	ff 4f       	sbci	r31, 0xFF	; 255
     456:	8f 4f       	sbci	r24, 0xFF	; 255
     458:	0c 94 bf 32 	jmp	0x657e	; 0x657e <__tablejump2__>
     45c:	12 9a       	sbi	0x02, 2	; 2
     45e:	08 95       	ret
     460:	13 9a       	sbi	0x02, 3	; 2
     462:	08 95       	ret
     464:	14 9a       	sbi	0x02, 4	; 2
     466:	08 95       	ret
     468:	15 9a       	sbi	0x02, 5	; 2
     46a:	08 95       	ret
     46c:	16 9a       	sbi	0x02, 6	; 2
     46e:	08 95       	ret
     470:	17 9a       	sbi	0x02, 7	; 2
     472:	08 95       	ret
     474:	a2 9a       	sbi	0x14, 2	; 20
     476:	08 95       	ret
     478:	e5 e0       	ldi	r30, 0x05	; 5
     47a:	f1 e0       	ldi	r31, 0x01	; 1
     47c:	80 81       	ld	r24, Z
     47e:	80 64       	ori	r24, 0x40	; 64
     480:	80 83       	st	Z, r24
     482:	08 95       	ret
     484:	e5 e0       	ldi	r30, 0x05	; 5
     486:	f1 e0       	ldi	r31, 0x01	; 1
     488:	80 81       	ld	r24, Z
     48a:	80 62       	ori	r24, 0x20	; 32
     48c:	80 83       	st	Z, r24
     48e:	08 95       	ret
     490:	e5 e0       	ldi	r30, 0x05	; 5
     492:	f1 e0       	ldi	r31, 0x01	; 1
     494:	80 81       	ld	r24, Z
     496:	80 61       	ori	r24, 0x10	; 16
     498:	80 83       	st	Z, r24
     49a:	08 95       	ret
     49c:	e5 e0       	ldi	r30, 0x05	; 5
     49e:	f1 e0       	ldi	r31, 0x01	; 1
     4a0:	80 81       	ld	r24, Z
     4a2:	88 60       	ori	r24, 0x08	; 8
     4a4:	80 83       	st	Z, r24
     4a6:	08 95       	ret
     4a8:	e5 e0       	ldi	r30, 0x05	; 5
     4aa:	f1 e0       	ldi	r31, 0x01	; 1
     4ac:	80 81       	ld	r24, Z
     4ae:	84 60       	ori	r24, 0x04	; 4
     4b0:	80 83       	st	Z, r24
     4b2:	08 95       	ret

000004b4 <schalte_pumpe_aus>:
     4b4:	90 e0       	ldi	r25, 0x00	; 0
     4b6:	8c 30       	cpi	r24, 0x0C	; 12
     4b8:	91 05       	cpc	r25, r1
     4ba:	90 f5       	brcc	.+100    	; 0x520 <schalte_pumpe_aus+0x6c>
     4bc:	fc 01       	movw	r30, r24
     4be:	88 27       	eor	r24, r24
     4c0:	e2 58       	subi	r30, 0x82	; 130
     4c2:	ff 4f       	sbci	r31, 0xFF	; 255
     4c4:	8f 4f       	sbci	r24, 0xFF	; 255
     4c6:	0c 94 bf 32 	jmp	0x657e	; 0x657e <__tablejump2__>
     4ca:	12 98       	cbi	0x02, 2	; 2
     4cc:	08 95       	ret
     4ce:	13 98       	cbi	0x02, 3	; 2
     4d0:	08 95       	ret
     4d2:	14 98       	cbi	0x02, 4	; 2
     4d4:	08 95       	ret
     4d6:	15 98       	cbi	0x02, 5	; 2
     4d8:	08 95       	ret
     4da:	16 98       	cbi	0x02, 6	; 2
     4dc:	08 95       	ret
     4de:	17 98       	cbi	0x02, 7	; 2
     4e0:	08 95       	ret
     4e2:	a2 98       	cbi	0x14, 2	; 20
     4e4:	08 95       	ret
     4e6:	e5 e0       	ldi	r30, 0x05	; 5
     4e8:	f1 e0       	ldi	r31, 0x01	; 1
     4ea:	80 81       	ld	r24, Z
     4ec:	8f 7b       	andi	r24, 0xBF	; 191
     4ee:	80 83       	st	Z, r24
     4f0:	08 95       	ret
     4f2:	e5 e0       	ldi	r30, 0x05	; 5
     4f4:	f1 e0       	ldi	r31, 0x01	; 1
     4f6:	80 81       	ld	r24, Z
     4f8:	8f 7d       	andi	r24, 0xDF	; 223
     4fa:	80 83       	st	Z, r24
     4fc:	08 95       	ret
     4fe:	e5 e0       	ldi	r30, 0x05	; 5
     500:	f1 e0       	ldi	r31, 0x01	; 1
     502:	80 81       	ld	r24, Z
     504:	8f 7e       	andi	r24, 0xEF	; 239
     506:	80 83       	st	Z, r24
     508:	08 95       	ret
     50a:	e5 e0       	ldi	r30, 0x05	; 5
     50c:	f1 e0       	ldi	r31, 0x01	; 1
     50e:	80 81       	ld	r24, Z
     510:	87 7f       	andi	r24, 0xF7	; 247
     512:	80 83       	st	Z, r24
     514:	08 95       	ret
     516:	e5 e0       	ldi	r30, 0x05	; 5
     518:	f1 e0       	ldi	r31, 0x01	; 1
     51a:	80 81       	ld	r24, Z
     51c:	8b 7f       	andi	r24, 0xFB	; 251
     51e:	80 83       	st	Z, r24
     520:	08 95       	ret

00000522 <lese_sensor>:
     522:	90 e0       	ldi	r25, 0x00	; 0
     524:	8c 30       	cpi	r24, 0x0C	; 12
     526:	91 05       	cpc	r25, r1
     528:	a0 f5       	brcc	.+104    	; 0x592 <lese_sensor+0x70>
     52a:	fc 01       	movw	r30, r24
     52c:	88 27       	eor	r24, r24
     52e:	e6 57       	subi	r30, 0x76	; 118
     530:	ff 4f       	sbci	r31, 0xFF	; 255
     532:	8f 4f       	sbci	r24, 0xFF	; 255
     534:	0c 94 bf 32 	jmp	0x657e	; 0x657e <__tablejump2__>
     538:	8f b1       	in	r24, 0x0f	; 15
     53a:	80 78       	andi	r24, 0x80	; 128
     53c:	08 95       	ret
     53e:	80 91 06 01 	lds	r24, 0x0106	; 0x800106 <__TEXT_REGION_LENGTH__+0x700106>
     542:	81 70       	andi	r24, 0x01	; 1
     544:	08 95       	ret
     546:	80 91 06 01 	lds	r24, 0x0106	; 0x800106 <__TEXT_REGION_LENGTH__+0x700106>
     54a:	82 70       	andi	r24, 0x02	; 2
     54c:	08 95       	ret
     54e:	80 91 06 01 	lds	r24, 0x0106	; 0x800106 <__TEXT_REGION_LENGTH__+0x700106>
     552:	84 70       	andi	r24, 0x04	; 4
     554:	08 95       	ret
     556:	80 91 06 01 	lds	r24, 0x0106	; 0x800106 <__TEXT_REGION_LENGTH__+0x700106>
     55a:	88 70       	andi	r24, 0x08	; 8
     55c:	08 95       	ret
     55e:	80 91 06 01 	lds	r24, 0x0106	; 0x800106 <__TEXT_REGION_LENGTH__+0x700106>
     562:	80 71       	andi	r24, 0x10	; 16
     564:	08 95       	ret
     566:	80 91 06 01 	lds	r24, 0x0106	; 0x800106 <__TEXT_REGION_LENGTH__+0x700106>
     56a:	80 72       	andi	r24, 0x20	; 32
     56c:	08 95       	ret
     56e:	80 91 06 01 	lds	r24, 0x0106	; 0x800106 <__TEXT_REGION_LENGTH__+0x700106>
     572:	80 74       	andi	r24, 0x40	; 64
     574:	08 95       	ret
     576:	80 91 06 01 	lds	r24, 0x0106	; 0x800106 <__TEXT_REGION_LENGTH__+0x700106>
     57a:	80 78       	andi	r24, 0x80	; 128
     57c:	08 95       	ret
     57e:	80 91 03 01 	lds	r24, 0x0103	; 0x800103 <__TEXT_REGION_LENGTH__+0x700103>
     582:	80 78       	andi	r24, 0x80	; 128
     584:	08 95       	ret
     586:	80 b1       	in	r24, 0x00	; 0
     588:	81 70       	andi	r24, 0x01	; 1
     58a:	08 95       	ret
     58c:	80 b1       	in	r24, 0x00	; 0
     58e:	82 70       	andi	r24, 0x02	; 2
     590:	08 95       	ret
     592:	80 e0       	ldi	r24, 0x00	; 0
     594:	08 95       	ret

00000596 <erstelle_Liste_zutat>:
     596:	9f 92       	push	r9
     598:	af 92       	push	r10
     59a:	bf 92       	push	r11
     59c:	cf 92       	push	r12
     59e:	df 92       	push	r13
     5a0:	ef 92       	push	r14
     5a2:	ff 92       	push	r15
     5a4:	0f 93       	push	r16
     5a6:	1f 93       	push	r17
     5a8:	cf 93       	push	r28
     5aa:	df 93       	push	r29
     5ac:	cd b7       	in	r28, 0x3d	; 61
     5ae:	de b7       	in	r29, 0x3e	; 62
     5b0:	c4 54       	subi	r28, 0x44	; 68
     5b2:	d1 09       	sbc	r29, r1
     5b4:	0f b6       	in	r0, 0x3f	; 63
     5b6:	f8 94       	cli
     5b8:	de bf       	out	0x3e, r29	; 62
     5ba:	0f be       	out	0x3f, r0	; 63
     5bc:	cd bf       	out	0x3d, r28	; 61
     5be:	6c 01       	movw	r12, r24
     5c0:	85 e1       	ldi	r24, 0x15	; 21
     5c2:	fe 01       	movw	r30, r28
     5c4:	31 96       	adiw	r30, 0x01	; 1
     5c6:	df 01       	movw	r26, r30
     5c8:	98 2f       	mov	r25, r24
     5ca:	1d 92       	st	X+, r1
     5cc:	9a 95       	dec	r25
     5ce:	e9 f7       	brne	.-6      	; 0x5ca <erstelle_Liste_zutat+0x34>
     5d0:	75 96       	adiw	r30, 0x15	; 21
     5d2:	df 01       	movw	r26, r30
     5d4:	98 2f       	mov	r25, r24
     5d6:	1d 92       	st	X+, r1
     5d8:	9a 95       	dec	r25
     5da:	e9 f7       	brne	.-6      	; 0x5d6 <erstelle_Liste_zutat+0x40>
     5dc:	75 96       	adiw	r30, 0x15	; 21
     5de:	df 01       	movw	r26, r30
     5e0:	1d 92       	st	X+, r1
     5e2:	8a 95       	dec	r24
     5e4:	e9 f7       	brne	.-6      	; 0x5e0 <erstelle_Liste_zutat+0x4a>
     5e6:	75 96       	adiw	r30, 0x15	; 21
     5e8:	85 e0       	ldi	r24, 0x05	; 5
     5ea:	df 01       	movw	r26, r30
     5ec:	1d 92       	st	X+, r1
     5ee:	8a 95       	dec	r24
     5f0:	e9 f7       	brne	.-6      	; 0x5ec <erstelle_Liste_zutat+0x56>
     5f2:	e0 91 5f 0d 	lds	r30, 0x0D5F	; 0x800d5f <tail_zut_in_Maschine>
     5f6:	f0 91 60 0d 	lds	r31, 0x0D60	; 0x800d60 <tail_zut_in_Maschine+0x1>
     5fa:	f0 93 0a 08 	sts	0x080A, r31	; 0x80080a <aktuelleZutatInMaschine+0x1>
     5fe:	e0 93 09 08 	sts	0x0809, r30	; 0x800809 <aktuelleZutatInMaschine>
     602:	20 91 8a 10 	lds	r18, 0x108A	; 0x80108a <i_Liste>
     606:	30 e0       	ldi	r19, 0x00	; 0
     608:	12 16       	cp	r1, r18
     60a:	13 06       	cpc	r1, r19
     60c:	0c f0       	brlt	.+2      	; 0x610 <erstelle_Liste_zutat+0x7a>
     60e:	d0 c0       	rjmp	.+416    	; 0x7b0 <erstelle_Liste_zutat+0x21a>
     610:	80 e0       	ldi	r24, 0x00	; 0
     612:	90 e0       	ldi	r25, 0x00	; 0
     614:	07 80       	ldd	r0, Z+7	; 0x07
     616:	f0 85       	ldd	r31, Z+8	; 0x08
     618:	e0 2d       	mov	r30, r0
     61a:	01 96       	adiw	r24, 0x01	; 1
     61c:	82 17       	cp	r24, r18
     61e:	93 07       	cpc	r25, r19
     620:	c9 f7       	brne	.-14     	; 0x614 <erstelle_Liste_zutat+0x7e>
     622:	f0 93 0a 08 	sts	0x080A, r31	; 0x80080a <aktuelleZutatInMaschine+0x1>
     626:	e0 93 09 08 	sts	0x0809, r30	; 0x800809 <aktuelleZutatInMaschine>
     62a:	c2 c0       	rjmp	.+388    	; 0x7b0 <erstelle_Liste_zutat+0x21a>
     62c:	bf ef       	ldi	r27, 0xFF	; 255
     62e:	eb 1a       	sub	r14, r27
     630:	fb 0a       	sbc	r15, r27
     632:	4a e0       	ldi	r20, 0x0A	; 10
     634:	b8 01       	movw	r22, r16
     636:	c7 01       	movw	r24, r14
     638:	0e 94 7b 34 	call	0x68f6	; 0x68f6 <__itoa_ncheck>
     63c:	b6 01       	movw	r22, r12
     63e:	ce 01       	movw	r24, r28
     640:	01 96       	adiw	r24, 0x01	; 1
     642:	0e 94 4d 34 	call	0x689a	; 0x689a <strcpy>
     646:	b8 01       	movw	r22, r16
     648:	ce 01       	movw	r24, r28
     64a:	01 96       	adiw	r24, 0x01	; 1
     64c:	0e 94 42 34 	call	0x6884	; 0x6884 <strcat>
     650:	87 e0       	ldi	r24, 0x07	; 7
     652:	e5 e4       	ldi	r30, 0x45	; 69
     654:	f2 e0       	ldi	r31, 0x02	; 2
     656:	de 01       	movw	r26, r28
     658:	56 96       	adiw	r26, 0x16	; 22
     65a:	01 90       	ld	r0, Z+
     65c:	0d 92       	st	X+, r0
     65e:	8a 95       	dec	r24
     660:	e1 f7       	brne	.-8      	; 0x65a <erstelle_Liste_zutat+0xc4>
     662:	b8 01       	movw	r22, r16
     664:	ce 01       	movw	r24, r28
     666:	46 96       	adiw	r24, 0x16	; 22
     668:	0e 94 42 34 	call	0x6884	; 0x6884 <strcat>
     66c:	86 e0       	ldi	r24, 0x06	; 6
     66e:	ec e4       	ldi	r30, 0x4C	; 76
     670:	f2 e0       	ldi	r31, 0x02	; 2
     672:	de 01       	movw	r26, r28
     674:	9b 96       	adiw	r26, 0x2b	; 43
     676:	01 90       	ld	r0, Z+
     678:	0d 92       	st	X+, r0
     67a:	8a 95       	dec	r24
     67c:	e1 f7       	brne	.-8      	; 0x676 <erstelle_Liste_zutat+0xe0>
     67e:	b8 01       	movw	r22, r16
     680:	ce 01       	movw	r24, r28
     682:	8b 96       	adiw	r24, 0x2b	; 43
     684:	0e 94 42 34 	call	0x6884	; 0x6884 <strcat>
     688:	e0 91 09 08 	lds	r30, 0x0809	; 0x800809 <aktuelleZutatInMaschine>
     68c:	f0 91 0a 08 	lds	r31, 0x080A	; 0x80080a <aktuelleZutatInMaschine+0x1>
     690:	80 91 04 08 	lds	r24, 0x0804	; 0x800804 <head_zut_in_Maschine>
     694:	90 91 05 08 	lds	r25, 0x0805	; 0x800805 <head_zut_in_Maschine+0x1>
     698:	e8 17       	cp	r30, r24
     69a:	f9 07       	cpc	r31, r25
     69c:	99 f5       	brne	.+102    	; 0x704 <erstelle_Liste_zutat+0x16e>
     69e:	80 91 3f 08 	lds	r24, 0x083F	; 0x80083f <block_list_runter>
     6a2:	81 11       	cpse	r24, r1
     6a4:	33 c0       	rjmp	.+102    	; 0x70c <erstelle_Liste_zutat+0x176>
     6a6:	90 92 3f 08 	sts	0x083F, r9	; 0x80083f <block_list_runter>
     6aa:	60 81       	ld	r22, Z
     6ac:	71 81       	ldd	r23, Z+1	; 0x01
     6ae:	ce 01       	movw	r24, r28
     6b0:	01 96       	adiw	r24, 0x01	; 1
     6b2:	0e 94 09 21 	call	0x4212	; 0x4212 <nextion_setText>
     6b6:	e0 91 c4 10 	lds	r30, 0x10C4	; 0x8010c4 <aktuellesGetraenk>
     6ba:	f0 91 c5 10 	lds	r31, 0x10C5	; 0x8010c5 <aktuellesGetraenk+0x1>
     6be:	a0 91 09 08 	lds	r26, 0x0809	; 0x800809 <aktuelleZutatInMaschine>
     6c2:	b0 91 0a 08 	lds	r27, 0x080A	; 0x80080a <aktuelleZutatInMaschine+0x1>
     6c6:	14 96       	adiw	r26, 0x04	; 4
     6c8:	8c 91       	ld	r24, X
     6ca:	03 80       	ldd	r0, Z+3	; 0x03
     6cc:	f4 81       	ldd	r31, Z+4	; 0x04
     6ce:	e0 2d       	mov	r30, r0
     6d0:	e8 0f       	add	r30, r24
     6d2:	f1 1d       	adc	r31, r1
     6d4:	80 81       	ld	r24, Z
     6d6:	4a e0       	ldi	r20, 0x0A	; 10
     6d8:	b8 01       	movw	r22, r16
     6da:	90 e0       	ldi	r25, 0x00	; 0
     6dc:	0e 94 7b 34 	call	0x68f6	; 0x68f6 <__itoa_ncheck>
     6e0:	b8 01       	movw	r22, r16
     6e2:	ce 01       	movw	r24, r28
     6e4:	46 96       	adiw	r24, 0x16	; 22
     6e6:	0e 94 21 21 	call	0x4242	; 0x4242 <nextion_setValue>
     6ea:	f8 01       	movw	r30, r16
     6ec:	01 90       	ld	r0, Z+
     6ee:	00 20       	and	r0, r0
     6f0:	e9 f7       	brne	.-6      	; 0x6ec <erstelle_Liste_zutat+0x156>
     6f2:	31 97       	sbiw	r30, 0x01	; 1
     6f4:	b1 82       	std	Z+1, r11	; 0x01
     6f6:	a0 82       	st	Z, r10
     6f8:	b8 01       	movw	r22, r16
     6fa:	ce 01       	movw	r24, r28
     6fc:	8b 96       	adiw	r24, 0x2b	; 43
     6fe:	0e 94 09 21 	call	0x4212	; 0x4212 <nextion_setText>
     702:	3d c0       	rjmp	.+122    	; 0x77e <erstelle_Liste_zutat+0x1e8>
     704:	80 91 3f 08 	lds	r24, 0x083F	; 0x80083f <block_list_runter>
     708:	88 23       	and	r24, r24
     70a:	69 f0       	breq	.+26     	; 0x726 <erstelle_Liste_zutat+0x190>
     70c:	6e e8       	ldi	r22, 0x8E	; 142
     70e:	75 e0       	ldi	r23, 0x05	; 5
     710:	ce 01       	movw	r24, r28
     712:	01 96       	adiw	r24, 0x01	; 1
     714:	0e 94 09 21 	call	0x4212	; 0x4212 <nextion_setText>
     718:	6e e1       	ldi	r22, 0x1E	; 30
     71a:	73 e0       	ldi	r23, 0x03	; 3
     71c:	ce 01       	movw	r24, r28
     71e:	46 96       	adiw	r24, 0x16	; 22
     720:	0e 94 21 21 	call	0x4242	; 0x4242 <nextion_setValue>
     724:	2c c0       	rjmp	.+88     	; 0x77e <erstelle_Liste_zutat+0x1e8>
     726:	60 81       	ld	r22, Z
     728:	71 81       	ldd	r23, Z+1	; 0x01
     72a:	ce 01       	movw	r24, r28
     72c:	01 96       	adiw	r24, 0x01	; 1
     72e:	0e 94 09 21 	call	0x4212	; 0x4212 <nextion_setText>
     732:	e0 91 c4 10 	lds	r30, 0x10C4	; 0x8010c4 <aktuellesGetraenk>
     736:	f0 91 c5 10 	lds	r31, 0x10C5	; 0x8010c5 <aktuellesGetraenk+0x1>
     73a:	a0 91 09 08 	lds	r26, 0x0809	; 0x800809 <aktuelleZutatInMaschine>
     73e:	b0 91 0a 08 	lds	r27, 0x080A	; 0x80080a <aktuelleZutatInMaschine+0x1>
     742:	14 96       	adiw	r26, 0x04	; 4
     744:	8c 91       	ld	r24, X
     746:	03 80       	ldd	r0, Z+3	; 0x03
     748:	f4 81       	ldd	r31, Z+4	; 0x04
     74a:	e0 2d       	mov	r30, r0
     74c:	e8 0f       	add	r30, r24
     74e:	f1 1d       	adc	r31, r1
     750:	80 81       	ld	r24, Z
     752:	4a e0       	ldi	r20, 0x0A	; 10
     754:	b8 01       	movw	r22, r16
     756:	90 e0       	ldi	r25, 0x00	; 0
     758:	0e 94 7b 34 	call	0x68f6	; 0x68f6 <__itoa_ncheck>
     75c:	b8 01       	movw	r22, r16
     75e:	ce 01       	movw	r24, r28
     760:	46 96       	adiw	r24, 0x16	; 22
     762:	0e 94 21 21 	call	0x4242	; 0x4242 <nextion_setValue>
     766:	f8 01       	movw	r30, r16
     768:	01 90       	ld	r0, Z+
     76a:	00 20       	and	r0, r0
     76c:	e9 f7       	brne	.-6      	; 0x768 <erstelle_Liste_zutat+0x1d2>
     76e:	31 97       	sbiw	r30, 0x01	; 1
     770:	b1 82       	std	Z+1, r11	; 0x01
     772:	a0 82       	st	Z, r10
     774:	b8 01       	movw	r22, r16
     776:	ce 01       	movw	r24, r28
     778:	8b 96       	adiw	r24, 0x2b	; 43
     77a:	0e 94 09 21 	call	0x4212	; 0x4212 <nextion_setText>
     77e:	e0 91 09 08 	lds	r30, 0x0809	; 0x800809 <aktuelleZutatInMaschine>
     782:	f0 91 0a 08 	lds	r31, 0x080A	; 0x80080a <aktuelleZutatInMaschine+0x1>
     786:	80 91 5f 0d 	lds	r24, 0x0D5F	; 0x800d5f <tail_zut_in_Maschine>
     78a:	90 91 60 0d 	lds	r25, 0x0D60	; 0x800d60 <tail_zut_in_Maschine+0x1>
     78e:	e8 17       	cp	r30, r24
     790:	f9 07       	cpc	r31, r25
     792:	11 f4       	brne	.+4      	; 0x798 <erstelle_Liste_zutat+0x202>
     794:	90 92 53 0c 	sts	0x0C53, r9	; 0x800c53 <block_list_hoch>
     798:	87 81       	ldd	r24, Z+7	; 0x07
     79a:	90 85       	ldd	r25, Z+8	; 0x08
     79c:	90 93 0a 08 	sts	0x080A, r25	; 0x80080a <aktuelleZutatInMaschine+0x1>
     7a0:	80 93 09 08 	sts	0x0809, r24	; 0x800809 <aktuelleZutatInMaschine>
     7a4:	84 e0       	ldi	r24, 0x04	; 4
     7a6:	e8 16       	cp	r14, r24
     7a8:	f1 04       	cpc	r15, r1
     7aa:	09 f0       	breq	.+2      	; 0x7ae <erstelle_Liste_zutat+0x218>
     7ac:	3f cf       	rjmp	.-386    	; 0x62c <erstelle_Liste_zutat+0x96>
     7ae:	0d c0       	rjmp	.+26     	; 0x7ca <erstelle_Liste_zutat+0x234>
     7b0:	e1 2c       	mov	r14, r1
     7b2:	f1 2c       	mov	r15, r1
     7b4:	8e 01       	movw	r16, r28
     7b6:	00 5c       	subi	r16, 0xC0	; 192
     7b8:	1f 4f       	sbci	r17, 0xFF	; 255
     7ba:	0f 2e       	mov	r0, r31
     7bc:	f5 e2       	ldi	r31, 0x25	; 37
     7be:	af 2e       	mov	r10, r31
     7c0:	b1 2c       	mov	r11, r1
     7c2:	f0 2d       	mov	r31, r0
     7c4:	99 24       	eor	r9, r9
     7c6:	93 94       	inc	r9
     7c8:	31 cf       	rjmp	.-414    	; 0x62c <erstelle_Liste_zutat+0x96>
     7ca:	cc 5b       	subi	r28, 0xBC	; 188
     7cc:	df 4f       	sbci	r29, 0xFF	; 255
     7ce:	0f b6       	in	r0, 0x3f	; 63
     7d0:	f8 94       	cli
     7d2:	de bf       	out	0x3e, r29	; 62
     7d4:	0f be       	out	0x3f, r0	; 63
     7d6:	cd bf       	out	0x3d, r28	; 61
     7d8:	df 91       	pop	r29
     7da:	cf 91       	pop	r28
     7dc:	1f 91       	pop	r17
     7de:	0f 91       	pop	r16
     7e0:	ff 90       	pop	r15
     7e2:	ef 90       	pop	r14
     7e4:	df 90       	pop	r13
     7e6:	cf 90       	pop	r12
     7e8:	bf 90       	pop	r11
     7ea:	af 90       	pop	r10
     7ec:	9f 90       	pop	r9
     7ee:	08 95       	ret

000007f0 <setze_startanzeige>:
     7f0:	0f 93       	push	r16
     7f2:	1f 93       	push	r17
     7f4:	cf 93       	push	r28
     7f6:	df 93       	push	r29
     7f8:	00 d0       	rcall	.+0      	; 0x7fa <setze_startanzeige+0xa>
     7fa:	1f 92       	push	r1
     7fc:	cd b7       	in	r28, 0x3d	; 61
     7fe:	de b7       	in	r29, 0x3e	; 62
     800:	8c 01       	movw	r16, r24
     802:	81 e0       	ldi	r24, 0x01	; 1
     804:	0e 94 ea 20 	call	0x41d4	; 0x41d4 <nextion_change_page>
     808:	f8 01       	movw	r30, r16
     80a:	60 81       	ld	r22, Z
     80c:	71 81       	ldd	r23, Z+1	; 0x01
     80e:	82 e5       	ldi	r24, 0x52	; 82
     810:	92 e0       	ldi	r25, 0x02	; 2
     812:	0e 94 09 21 	call	0x4212	; 0x4212 <nextion_setText>
     816:	f8 01       	movw	r30, r16
     818:	85 81       	ldd	r24, Z+5	; 0x05
     81a:	4a e0       	ldi	r20, 0x0A	; 10
     81c:	be 01       	movw	r22, r28
     81e:	6f 5f       	subi	r22, 0xFF	; 255
     820:	7f 4f       	sbci	r23, 0xFF	; 255
     822:	90 e0       	ldi	r25, 0x00	; 0
     824:	0e 94 7b 34 	call	0x68f6	; 0x68f6 <__itoa_ncheck>
     828:	ae 01       	movw	r20, r28
     82a:	4f 5f       	subi	r20, 0xFF	; 255
     82c:	5f 4f       	sbci	r21, 0xFF	; 255
     82e:	6f e5       	ldi	r22, 0x5F	; 95
     830:	72 e0       	ldi	r23, 0x02	; 2
     832:	82 e6       	ldi	r24, 0x62	; 98
     834:	92 e0       	ldi	r25, 0x02	; 2
     836:	0e 94 31 21 	call	0x4262	; 0x4262 <nextion_setPicture>
     83a:	80 91 08 08 	lds	r24, 0x0808	; 0x800808 <Liste>
     83e:	81 30       	cpi	r24, 0x01	; 1
     840:	59 f0       	breq	.+22     	; 0x858 <setze_startanzeige+0x68>
     842:	18 f0       	brcs	.+6      	; 0x84a <setze_startanzeige+0x5a>
     844:	82 30       	cpi	r24, 0x02	; 2
     846:	79 f0       	breq	.+30     	; 0x866 <setze_startanzeige+0x76>
     848:	14 c0       	rjmp	.+40     	; 0x872 <setze_startanzeige+0x82>
     84a:	66 e6       	ldi	r22, 0x66	; 102
     84c:	72 e0       	ldi	r23, 0x02	; 2
     84e:	82 e7       	ldi	r24, 0x72	; 114
     850:	92 e0       	ldi	r25, 0x02	; 2
     852:	0e 94 09 21 	call	0x4212	; 0x4212 <nextion_setText>
     856:	0d c0       	rjmp	.+26     	; 0x872 <setze_startanzeige+0x82>
     858:	60 e8       	ldi	r22, 0x80	; 128
     85a:	72 e0       	ldi	r23, 0x02	; 2
     85c:	82 e7       	ldi	r24, 0x72	; 114
     85e:	92 e0       	ldi	r25, 0x02	; 2
     860:	0e 94 09 21 	call	0x4212	; 0x4212 <nextion_setText>
     864:	06 c0       	rjmp	.+12     	; 0x872 <setze_startanzeige+0x82>
     866:	6c e8       	ldi	r22, 0x8C	; 140
     868:	72 e0       	ldi	r23, 0x02	; 2
     86a:	82 e7       	ldi	r24, 0x72	; 114
     86c:	92 e0       	ldi	r25, 0x02	; 2
     86e:	0e 94 09 21 	call	0x4212	; 0x4212 <nextion_setText>
     872:	0f 90       	pop	r0
     874:	0f 90       	pop	r0
     876:	0f 90       	pop	r0
     878:	0f 90       	pop	r0
     87a:	df 91       	pop	r29
     87c:	cf 91       	pop	r28
     87e:	1f 91       	pop	r17
     880:	0f 91       	pop	r16
     882:	08 95       	ret

00000884 <fuelle_getraenk>:
     884:	4f 92       	push	r4
     886:	5f 92       	push	r5
     888:	6f 92       	push	r6
     88a:	7f 92       	push	r7
     88c:	9f 92       	push	r9
     88e:	af 92       	push	r10
     890:	bf 92       	push	r11
     892:	cf 92       	push	r12
     894:	df 92       	push	r13
     896:	ef 92       	push	r14
     898:	ff 92       	push	r15
     89a:	0f 93       	push	r16
     89c:	1f 93       	push	r17
     89e:	cf 93       	push	r28
     8a0:	df 93       	push	r29
     8a2:	cd b7       	in	r28, 0x3d	; 61
     8a4:	de b7       	in	r29, 0x3e	; 62
     8a6:	e4 97       	sbiw	r28, 0x34	; 52
     8a8:	0f b6       	in	r0, 0x3f	; 63
     8aa:	f8 94       	cli
     8ac:	de bf       	out	0x3e, r29	; 62
     8ae:	0f be       	out	0x3f, r0	; 63
     8b0:	cd bf       	out	0x3d, r28	; 61
     8b2:	69 ab       	std	Y+49, r22	; 0x31
     8b4:	7a ab       	std	Y+50, r23	; 0x32
     8b6:	8b ab       	std	Y+51, r24	; 0x33
     8b8:	9c ab       	std	Y+52, r25	; 0x34
     8ba:	ce 01       	movw	r24, r28
     8bc:	01 96       	adiw	r24, 0x01	; 1
     8be:	5c 01       	movw	r10, r24
     8c0:	e1 2c       	mov	r14, r1
     8c2:	f1 2c       	mov	r15, r1
     8c4:	cc 24       	eor	r12, r12
     8c6:	c3 94       	inc	r12
     8c8:	e0 91 c4 10 	lds	r30, 0x10C4	; 0x8010c4 <aktuellesGetraenk>
     8cc:	f0 91 c5 10 	lds	r31, 0x10C5	; 0x8010c5 <aktuellesGetraenk+0x1>
     8d0:	03 80       	ldd	r0, Z+3	; 0x03
     8d2:	f4 81       	ldd	r31, Z+4	; 0x04
     8d4:	e0 2d       	mov	r30, r0
     8d6:	ee 0d       	add	r30, r14
     8d8:	ff 1d       	adc	r31, r15
     8da:	10 81       	ld	r17, Z
     8dc:	11 23       	and	r17, r17
     8de:	09 f4       	brne	.+2      	; 0x8e2 <fuelle_getraenk+0x5e>
     8e0:	a3 c0       	rjmp	.+326    	; 0xa28 <fuelle_getraenk+0x1a4>
     8e2:	80 91 be 10 	lds	r24, 0x10BE	; 0x8010be <stop>
     8e6:	81 11       	cpse	r24, r1
     8e8:	9f c0       	rjmp	.+318    	; 0xa28 <fuelle_getraenk+0x1a4>
     8ea:	80 e3       	ldi	r24, 0x30	; 48
     8ec:	e6 e0       	ldi	r30, 0x06	; 6
     8ee:	f2 e0       	ldi	r31, 0x02	; 2
     8f0:	de 01       	movw	r26, r28
     8f2:	11 96       	adiw	r26, 0x01	; 1
     8f4:	01 90       	ld	r0, Z+
     8f6:	0d 92       	st	X+, r0
     8f8:	8a 95       	dec	r24
     8fa:	e1 f7       	brne	.-8      	; 0x8f4 <fuelle_getraenk+0x70>
     8fc:	f5 01       	movw	r30, r10
     8fe:	60 81       	ld	r22, Z
     900:	71 81       	ldd	r23, Z+1	; 0x01
     902:	82 81       	ldd	r24, Z+2	; 0x02
     904:	93 81       	ldd	r25, Z+3	; 0x03
     906:	29 a9       	ldd	r18, Y+49	; 0x31
     908:	3a a9       	ldd	r19, Y+50	; 0x32
     90a:	4b a9       	ldd	r20, Y+51	; 0x33
     90c:	5c a9       	ldd	r21, Y+52	; 0x34
     90e:	0e 94 8e 32 	call	0x651c	; 0x651c <__mulsi3>
     912:	9b 01       	movw	r18, r22
     914:	ac 01       	movw	r20, r24
     916:	a1 2f       	mov	r26, r17
     918:	b0 e0       	ldi	r27, 0x00	; 0
     91a:	0e 94 d6 32 	call	0x65ac	; 0x65ac <__muluhisi3>
     91e:	24 e6       	ldi	r18, 0x64	; 100
     920:	30 e0       	ldi	r19, 0x00	; 0
     922:	40 e0       	ldi	r20, 0x00	; 0
     924:	50 e0       	ldi	r21, 0x00	; 0
     926:	0e 94 9d 32 	call	0x653a	; 0x653a <__udivmodsi4>
     92a:	29 01       	movw	r4, r18
     92c:	3a 01       	movw	r6, r20
     92e:	9e 2c       	mov	r9, r14
     930:	8e 2d       	mov	r24, r14
     932:	f7 dd       	rcall	.-1042   	; 0x522 <lese_sensor>
     934:	8e 2d       	mov	r24, r14
     936:	87 dd       	rcall	.-1266   	; 0x446 <schalte_pumpe_ein>
     938:	0c 2d       	mov	r16, r12
     93a:	01 c0       	rjmp	.+2      	; 0x93e <fuelle_getraenk+0xba>
     93c:	08 2f       	mov	r16, r24
     93e:	10 91 f8 06 	lds	r17, 0x06F8	; 0x8006f8 <oldval.3083>
     942:	d1 2e       	mov	r13, r17
     944:	dc 24       	eor	r13, r12
     946:	11 11       	cpse	r17, r1
     948:	64 c0       	rjmp	.+200    	; 0xa12 <fuelle_getraenk+0x18e>
     94a:	09 f4       	brne	.+2      	; 0x94e <fuelle_getraenk+0xca>
     94c:	64 c0       	rjmp	.+200    	; 0xa16 <fuelle_getraenk+0x192>
     94e:	80 91 f4 06 	lds	r24, 0x06F4	; 0x8006f4 <count.3084>
     952:	90 91 f5 06 	lds	r25, 0x06F5	; 0x8006f5 <count.3084+0x1>
     956:	a0 91 f6 06 	lds	r26, 0x06F6	; 0x8006f6 <count.3084+0x2>
     95a:	b0 91 f7 06 	lds	r27, 0x06F7	; 0x8006f7 <count.3084+0x3>
     95e:	ac 01       	movw	r20, r24
     960:	bd 01       	movw	r22, r26
     962:	4f 5f       	subi	r20, 0xFF	; 255
     964:	5f 4f       	sbci	r21, 0xFF	; 255
     966:	6f 4f       	sbci	r22, 0xFF	; 255
     968:	7f 4f       	sbci	r23, 0xFF	; 255
     96a:	40 93 f4 06 	sts	0x06F4, r20	; 0x8006f4 <count.3084>
     96e:	50 93 f5 06 	sts	0x06F5, r21	; 0x8006f5 <count.3084+0x1>
     972:	60 93 f6 06 	sts	0x06F6, r22	; 0x8006f6 <count.3084+0x2>
     976:	70 93 f7 06 	sts	0x06F7, r23	; 0x8006f7 <count.3084+0x3>
     97a:	48 16       	cp	r4, r24
     97c:	59 06       	cpc	r5, r25
     97e:	6a 06       	cpc	r6, r26
     980:	7b 06       	cpc	r7, r27
     982:	b0 f4       	brcc	.+44     	; 0x9b0 <fuelle_getraenk+0x12c>
     984:	89 2d       	mov	r24, r9
     986:	96 dd       	rcall	.-1236   	; 0x4b4 <schalte_pumpe_aus>
     988:	10 92 f4 06 	sts	0x06F4, r1	; 0x8006f4 <count.3084>
     98c:	10 92 f5 06 	sts	0x06F5, r1	; 0x8006f5 <count.3084+0x1>
     990:	10 92 f6 06 	sts	0x06F6, r1	; 0x8006f6 <count.3084+0x2>
     994:	10 92 f7 06 	sts	0x06F7, r1	; 0x8006f7 <count.3084+0x3>
     998:	8f e3       	ldi	r24, 0x3F	; 63
     99a:	9f e1       	ldi	r25, 0x1F	; 31
     99c:	01 97       	sbiw	r24, 0x01	; 1
     99e:	f1 f7       	brne	.-4      	; 0x99c <fuelle_getraenk+0x118>
     9a0:	00 c0       	rjmp	.+0      	; 0x9a2 <fuelle_getraenk+0x11e>
     9a2:	00 00       	nop
     9a4:	0e 94 b0 1f 	call	0x3f60	; 0x3f60 <check_Communication_Input_UART_1>
     9a8:	88 23       	and	r24, r24
     9aa:	09 f4       	brne	.+2      	; 0x9ae <fuelle_getraenk+0x12a>
     9ac:	4b c0       	rjmp	.+150    	; 0xa44 <fuelle_getraenk+0x1c0>
     9ae:	50 c0       	rjmp	.+160    	; 0xa50 <fuelle_getraenk+0x1cc>
     9b0:	ef e3       	ldi	r30, 0x3F	; 63
     9b2:	ff e1       	ldi	r31, 0x1F	; 31
     9b4:	31 97       	sbiw	r30, 0x01	; 1
     9b6:	f1 f7       	brne	.-4      	; 0x9b4 <fuelle_getraenk+0x130>
     9b8:	00 c0       	rjmp	.+0      	; 0x9ba <fuelle_getraenk+0x136>
     9ba:	00 00       	nop
     9bc:	0e 94 b0 1f 	call	0x3f60	; 0x3f60 <check_Communication_Input_UART_1>
     9c0:	88 23       	and	r24, r24
     9c2:	59 f1       	breq	.+86     	; 0xa1a <fuelle_getraenk+0x196>
     9c4:	0e 94 39 20 	call	0x4072	; 0x4072 <proceed_Communication_INPUT_UART_1>
     9c8:	80 91 be 10 	lds	r24, 0x10BE	; 0x8010be <stop>
     9cc:	81 30       	cpi	r24, 0x01	; 1
     9ce:	39 f5       	brne	.+78     	; 0xa1e <fuelle_getraenk+0x19a>
     9d0:	81 2f       	mov	r24, r17
     9d2:	70 dd       	rcall	.-1312   	; 0x4b4 <schalte_pumpe_aus>
     9d4:	1f 5f       	subi	r17, 0xFF	; 255
     9d6:	1c 30       	cpi	r17, 0x0C	; 12
     9d8:	d9 f7       	brne	.-10     	; 0x9d0 <fuelle_getraenk+0x14c>
     9da:	8e e0       	ldi	r24, 0x0E	; 14
     9dc:	0e 94 ea 20 	call	0x41d4	; 0x41d4 <nextion_change_page>
     9e0:	ff ef       	ldi	r31, 0xFF	; 255
     9e2:	27 ea       	ldi	r18, 0xA7	; 167
     9e4:	81 e6       	ldi	r24, 0x61	; 97
     9e6:	f1 50       	subi	r31, 0x01	; 1
     9e8:	20 40       	sbci	r18, 0x00	; 0
     9ea:	80 40       	sbci	r24, 0x00	; 0
     9ec:	e1 f7       	brne	.-8      	; 0x9e6 <fuelle_getraenk+0x162>
     9ee:	00 c0       	rjmp	.+0      	; 0x9f0 <fuelle_getraenk+0x16c>
     9f0:	00 00       	nop
     9f2:	80 91 c4 10 	lds	r24, 0x10C4	; 0x8010c4 <aktuellesGetraenk>
     9f6:	90 91 c5 10 	lds	r25, 0x10C5	; 0x8010c5 <aktuellesGetraenk+0x1>
     9fa:	fa de       	rcall	.-524    	; 0x7f0 <setze_startanzeige>
     9fc:	10 92 f4 06 	sts	0x06F4, r1	; 0x8006f4 <count.3084>
     a00:	10 92 f5 06 	sts	0x06F5, r1	; 0x8006f5 <count.3084+0x1>
     a04:	10 92 f6 06 	sts	0x06F6, r1	; 0x8006f6 <count.3084+0x2>
     a08:	10 92 f7 06 	sts	0x06F7, r1	; 0x8006f7 <count.3084+0x3>
     a0c:	d0 92 f8 06 	sts	0x06F8, r13	; 0x8006f8 <oldval.3083>
     a10:	0b c0       	rjmp	.+22     	; 0xa28 <fuelle_getraenk+0x1a4>
     a12:	80 2f       	mov	r24, r16
     a14:	05 c0       	rjmp	.+10     	; 0xa20 <fuelle_getraenk+0x19c>
     a16:	80 2f       	mov	r24, r16
     a18:	03 c0       	rjmp	.+6      	; 0xa20 <fuelle_getraenk+0x19c>
     a1a:	80 2f       	mov	r24, r16
     a1c:	01 c0       	rjmp	.+2      	; 0xa20 <fuelle_getraenk+0x19c>
     a1e:	80 2f       	mov	r24, r16
     a20:	d0 92 f8 06 	sts	0x06F8, r13	; 0x8006f8 <oldval.3083>
     a24:	01 11       	cpse	r16, r1
     a26:	8a cf       	rjmp	.-236    	; 0x93c <fuelle_getraenk+0xb8>
     a28:	9f ef       	ldi	r25, 0xFF	; 255
     a2a:	e9 1a       	sub	r14, r25
     a2c:	f9 0a       	sbc	r15, r25
     a2e:	e4 e0       	ldi	r30, 0x04	; 4
     a30:	ae 0e       	add	r10, r30
     a32:	b1 1c       	adc	r11, r1
     a34:	fc e0       	ldi	r31, 0x0C	; 12
     a36:	ef 16       	cp	r14, r31
     a38:	f1 04       	cpc	r15, r1
     a3a:	09 f0       	breq	.+2      	; 0xa3e <fuelle_getraenk+0x1ba>
     a3c:	45 cf       	rjmp	.-374    	; 0x8c8 <fuelle_getraenk+0x44>
     a3e:	10 92 be 10 	sts	0x10BE, r1	; 0x8010be <stop>
     a42:	0d c0       	rjmp	.+26     	; 0xa5e <fuelle_getraenk+0x1da>
     a44:	d0 92 f8 06 	sts	0x06F8, r13	; 0x8006f8 <oldval.3083>
     a48:	ef cf       	rjmp	.-34     	; 0xa28 <fuelle_getraenk+0x1a4>
     a4a:	d0 92 f8 06 	sts	0x06F8, r13	; 0x8006f8 <oldval.3083>
     a4e:	ec cf       	rjmp	.-40     	; 0xa28 <fuelle_getraenk+0x1a4>
     a50:	0e 94 39 20 	call	0x4072	; 0x4072 <proceed_Communication_INPUT_UART_1>
     a54:	80 91 be 10 	lds	r24, 0x10BE	; 0x8010be <stop>
     a58:	81 30       	cpi	r24, 0x01	; 1
     a5a:	b9 f7       	brne	.-18     	; 0xa4a <fuelle_getraenk+0x1c6>
     a5c:	b9 cf       	rjmp	.-142    	; 0x9d0 <fuelle_getraenk+0x14c>
     a5e:	e4 96       	adiw	r28, 0x34	; 52
     a60:	0f b6       	in	r0, 0x3f	; 63
     a62:	f8 94       	cli
     a64:	de bf       	out	0x3e, r29	; 62
     a66:	0f be       	out	0x3f, r0	; 63
     a68:	cd bf       	out	0x3d, r28	; 61
     a6a:	df 91       	pop	r29
     a6c:	cf 91       	pop	r28
     a6e:	1f 91       	pop	r17
     a70:	0f 91       	pop	r16
     a72:	ff 90       	pop	r15
     a74:	ef 90       	pop	r14
     a76:	df 90       	pop	r13
     a78:	cf 90       	pop	r12
     a7a:	bf 90       	pop	r11
     a7c:	af 90       	pop	r10
     a7e:	9f 90       	pop	r9
     a80:	7f 90       	pop	r7
     a82:	6f 90       	pop	r6
     a84:	5f 90       	pop	r5
     a86:	4f 90       	pop	r4
     a88:	08 95       	ret

00000a8a <zubereitung_getraenk>:
     a8a:	cf 92       	push	r12
     a8c:	df 92       	push	r13
     a8e:	ef 92       	push	r14
     a90:	ff 92       	push	r15
     a92:	6b 01       	movw	r12, r22
     a94:	7c 01       	movw	r14, r24
     a96:	85 e0       	ldi	r24, 0x05	; 5
     a98:	0e 94 ea 20 	call	0x41d4	; 0x41d4 <nextion_change_page>
     a9c:	61 e9       	ldi	r22, 0x91	; 145
     a9e:	72 e0       	ldi	r23, 0x02	; 2
     aa0:	8a eb       	ldi	r24, 0xBA	; 186
     aa2:	92 e0       	ldi	r25, 0x02	; 2
     aa4:	0e 94 09 21 	call	0x4212	; 0x4212 <nextion_setText>
     aa8:	2f ef       	ldi	r18, 0xFF	; 255
     aaa:	83 ed       	ldi	r24, 0xD3	; 211
     aac:	90 e3       	ldi	r25, 0x30	; 48
     aae:	21 50       	subi	r18, 0x01	; 1
     ab0:	80 40       	sbci	r24, 0x00	; 0
     ab2:	90 40       	sbci	r25, 0x00	; 0
     ab4:	e1 f7       	brne	.-8      	; 0xaae <zubereitung_getraenk+0x24>
     ab6:	00 c0       	rjmp	.+0      	; 0xab8 <zubereitung_getraenk+0x2e>
     ab8:	00 00       	nop
     aba:	c7 01       	movw	r24, r14
     abc:	b6 01       	movw	r22, r12
     abe:	e2 de       	rcall	.-572    	; 0x884 <fuelle_getraenk>
     ac0:	86 e0       	ldi	r24, 0x06	; 6
     ac2:	0e 94 ea 20 	call	0x41d4	; 0x41d4 <nextion_change_page>
     ac6:	2f ef       	ldi	r18, 0xFF	; 255
     ac8:	87 ea       	ldi	r24, 0xA7	; 167
     aca:	91 e6       	ldi	r25, 0x61	; 97
     acc:	21 50       	subi	r18, 0x01	; 1
     ace:	80 40       	sbci	r24, 0x00	; 0
     ad0:	90 40       	sbci	r25, 0x00	; 0
     ad2:	e1 f7       	brne	.-8      	; 0xacc <zubereitung_getraenk+0x42>
     ad4:	00 c0       	rjmp	.+0      	; 0xad6 <zubereitung_getraenk+0x4c>
     ad6:	00 00       	nop
     ad8:	81 e0       	ldi	r24, 0x01	; 1
     ada:	0e 94 ea 20 	call	0x41d4	; 0x41d4 <nextion_change_page>
     ade:	80 91 c4 10 	lds	r24, 0x10C4	; 0x8010c4 <aktuellesGetraenk>
     ae2:	90 91 c5 10 	lds	r25, 0x10C5	; 0x8010c5 <aktuellesGetraenk+0x1>
     ae6:	84 de       	rcall	.-760    	; 0x7f0 <setze_startanzeige>
     ae8:	ff 90       	pop	r15
     aea:	ef 90       	pop	r14
     aec:	df 90       	pop	r13
     aee:	cf 90       	pop	r12
     af0:	08 95       	ret

00000af2 <erstelle_Zutatenliste>:
     af2:	2f 92       	push	r2
     af4:	3f 92       	push	r3
     af6:	4f 92       	push	r4
     af8:	5f 92       	push	r5
     afa:	6f 92       	push	r6
     afc:	7f 92       	push	r7
     afe:	8f 92       	push	r8
     b00:	9f 92       	push	r9
     b02:	af 92       	push	r10
     b04:	bf 92       	push	r11
     b06:	cf 92       	push	r12
     b08:	df 92       	push	r13
     b0a:	ef 92       	push	r14
     b0c:	ff 92       	push	r15
     b0e:	0f 93       	push	r16
     b10:	1f 93       	push	r17
     b12:	cf 93       	push	r28
     b14:	df 93       	push	r29
     b16:	cd b7       	in	r28, 0x3d	; 61
     b18:	de b7       	in	r29, 0x3e	; 62
     b1a:	ca 50       	subi	r28, 0x0A	; 10
     b1c:	d2 40       	sbci	r29, 0x02	; 2
     b1e:	0f b6       	in	r0, 0x3f	; 63
     b20:	f8 94       	cli
     b22:	de bf       	out	0x3e, r29	; 62
     b24:	0f be       	out	0x3f, r0	; 63
     b26:	cd bf       	out	0x3d, r28	; 61
     b28:	fe 01       	movw	r30, r28
     b2a:	31 96       	adiw	r30, 0x01	; 1
     b2c:	8a e0       	ldi	r24, 0x0A	; 10
     b2e:	df 01       	movw	r26, r30
     b30:	1d 92       	st	X+, r1
     b32:	8a 95       	dec	r24
     b34:	e9 f7       	brne	.-6      	; 0xb30 <erstelle_Zutatenliste+0x3e>
     b36:	3a 96       	adiw	r30, 0x0a	; 10
     b38:	80 e0       	ldi	r24, 0x00	; 0
     b3a:	92 e0       	ldi	r25, 0x02	; 2
     b3c:	df 01       	movw	r26, r30
     b3e:	9c 01       	movw	r18, r24
     b40:	1d 92       	st	X+, r1
     b42:	21 50       	subi	r18, 0x01	; 1
     b44:	30 40       	sbci	r19, 0x00	; 0
     b46:	e1 f7       	brne	.-8      	; 0xb40 <erstelle_Zutatenliste+0x4e>
     b48:	80 91 5f 0d 	lds	r24, 0x0D5F	; 0x800d5f <tail_zut_in_Maschine>
     b4c:	90 91 60 0d 	lds	r25, 0x0D60	; 0x800d60 <tail_zut_in_Maschine+0x1>
     b50:	90 93 0a 08 	sts	0x080A, r25	; 0x80080a <aktuelleZutatInMaschine+0x1>
     b54:	80 93 09 08 	sts	0x0809, r24	; 0x800809 <aktuelleZutatInMaschine>
     b58:	00 e0       	ldi	r16, 0x00	; 0
     b5a:	10 e0       	ldi	r17, 0x00	; 0
     b5c:	7f 01       	movw	r14, r30
     b5e:	0f 2e       	mov	r0, r31
     b60:	f4 e1       	ldi	r31, 0x14	; 20
     b62:	af 2e       	mov	r10, r31
     b64:	b1 2c       	mov	r11, r1
     b66:	f0 2d       	mov	r31, r0
     b68:	0f 2e       	mov	r0, r31
     b6a:	fd e2       	ldi	r31, 0x2D	; 45
     b6c:	8f 2e       	mov	r8, r31
     b6e:	91 2c       	mov	r9, r1
     b70:	f0 2d       	mov	r31, r0
     b72:	0f 2e       	mov	r0, r31
     b74:	f8 e2       	ldi	r31, 0x28	; 40
     b76:	2f 2e       	mov	r2, r31
     b78:	31 2c       	mov	r3, r1
     b7a:	f0 2d       	mov	r31, r0
     b7c:	60 90 c4 10 	lds	r6, 0x10C4	; 0x8010c4 <aktuellesGetraenk>
     b80:	70 90 c5 10 	lds	r7, 0x10C5	; 0x8010c5 <aktuellesGetraenk+0x1>
     b84:	28 01       	movw	r4, r16
     b86:	d3 01       	movw	r26, r6
     b88:	13 96       	adiw	r26, 0x03	; 3
     b8a:	ed 91       	ld	r30, X+
     b8c:	fc 91       	ld	r31, X
     b8e:	14 97       	sbiw	r26, 0x04	; 4
     b90:	e0 0f       	add	r30, r16
     b92:	f1 1f       	adc	r31, r17
     b94:	80 81       	ld	r24, Z
     b96:	88 23       	and	r24, r24
     b98:	09 f4       	brne	.+2      	; 0xb9c <erstelle_Zutatenliste+0xaa>
     b9a:	4e c0       	rjmp	.+156    	; 0xc38 <erstelle_Zutatenliste+0x146>
     b9c:	c0 90 09 08 	lds	r12, 0x0809	; 0x800809 <aktuelleZutatInMaschine>
     ba0:	d0 90 0a 08 	lds	r13, 0x080A	; 0x80080a <aktuelleZutatInMaschine+0x1>
     ba4:	f6 01       	movw	r30, r12
     ba6:	60 81       	ld	r22, Z
     ba8:	71 81       	ldd	r23, Z+1	; 0x01
     baa:	c7 01       	movw	r24, r14
     bac:	0e 94 42 34 	call	0x6884	; 0x6884 <strcat>
     bb0:	80 e0       	ldi	r24, 0x00	; 0
     bb2:	90 e0       	ldi	r25, 0x00	; 0
     bb4:	08 c0       	rjmp	.+16     	; 0xbc6 <erstelle_Zutatenliste+0xd4>
     bb6:	f7 01       	movw	r30, r14
     bb8:	01 90       	ld	r0, Z+
     bba:	00 20       	and	r0, r0
     bbc:	e9 f7       	brne	.-6      	; 0xbb8 <erstelle_Zutatenliste+0xc6>
     bbe:	31 97       	sbiw	r30, 0x01	; 1
     bc0:	91 82       	std	Z+1, r9	; 0x01
     bc2:	80 82       	st	Z, r8
     bc4:	01 96       	adiw	r24, 0x01	; 1
     bc6:	f6 01       	movw	r30, r12
     bc8:	a0 81       	ld	r26, Z
     bca:	b1 81       	ldd	r27, Z+1	; 0x01
     bcc:	fd 01       	movw	r30, r26
     bce:	01 90       	ld	r0, Z+
     bd0:	00 20       	and	r0, r0
     bd2:	e9 f7       	brne	.-6      	; 0xbce <erstelle_Zutatenliste+0xdc>
     bd4:	31 97       	sbiw	r30, 0x01	; 1
     bd6:	ea 1b       	sub	r30, r26
     bd8:	fb 0b       	sbc	r31, r27
     bda:	95 01       	movw	r18, r10
     bdc:	2e 1b       	sub	r18, r30
     bde:	3f 0b       	sbc	r19, r31
     be0:	82 17       	cp	r24, r18
     be2:	93 07       	cpc	r25, r19
     be4:	40 f3       	brcs	.-48     	; 0xbb6 <erstelle_Zutatenliste+0xc4>
     be6:	f7 01       	movw	r30, r14
     be8:	01 90       	ld	r0, Z+
     bea:	00 20       	and	r0, r0
     bec:	e9 f7       	brne	.-6      	; 0xbe8 <erstelle_Zutatenliste+0xf6>
     bee:	31 97       	sbiw	r30, 0x01	; 1
     bf0:	31 82       	std	Z+1, r3	; 0x01
     bf2:	20 82       	st	Z, r2
     bf4:	d3 01       	movw	r26, r6
     bf6:	13 96       	adiw	r26, 0x03	; 3
     bf8:	8d 91       	ld	r24, X+
     bfa:	9c 91       	ld	r25, X
     bfc:	14 97       	sbiw	r26, 0x04	; 4
     bfe:	fc 01       	movw	r30, r24
     c00:	e4 0d       	add	r30, r4
     c02:	f5 1d       	adc	r31, r5
     c04:	80 81       	ld	r24, Z
     c06:	4a e0       	ldi	r20, 0x0A	; 10
     c08:	be 01       	movw	r22, r28
     c0a:	6f 5f       	subi	r22, 0xFF	; 255
     c0c:	7f 4f       	sbci	r23, 0xFF	; 255
     c0e:	90 e0       	ldi	r25, 0x00	; 0
     c10:	0e 94 7b 34 	call	0x68f6	; 0x68f6 <__itoa_ncheck>
     c14:	be 01       	movw	r22, r28
     c16:	6f 5f       	subi	r22, 0xFF	; 255
     c18:	7f 4f       	sbci	r23, 0xFF	; 255
     c1a:	c7 01       	movw	r24, r14
     c1c:	0e 94 42 34 	call	0x6884	; 0x6884 <strcat>
     c20:	d7 01       	movw	r26, r14
     c22:	0d 90       	ld	r0, X+
     c24:	00 20       	and	r0, r0
     c26:	e9 f7       	brne	.-6      	; 0xc22 <erstelle_Zutatenliste+0x130>
     c28:	11 97       	sbiw	r26, 0x01	; 1
     c2a:	85 e0       	ldi	r24, 0x05	; 5
     c2c:	e5 ec       	ldi	r30, 0xC5	; 197
     c2e:	f2 e0       	ldi	r31, 0x02	; 2
     c30:	01 90       	ld	r0, Z+
     c32:	0d 92       	st	X+, r0
     c34:	8a 95       	dec	r24
     c36:	e1 f7       	brne	.-8      	; 0xc30 <erstelle_Zutatenliste+0x13e>
     c38:	e0 91 09 08 	lds	r30, 0x0809	; 0x800809 <aktuelleZutatInMaschine>
     c3c:	f0 91 0a 08 	lds	r31, 0x080A	; 0x80080a <aktuelleZutatInMaschine+0x1>
     c40:	87 81       	ldd	r24, Z+7	; 0x07
     c42:	90 85       	ldd	r25, Z+8	; 0x08
     c44:	90 93 0a 08 	sts	0x080A, r25	; 0x80080a <aktuelleZutatInMaschine+0x1>
     c48:	80 93 09 08 	sts	0x0809, r24	; 0x800809 <aktuelleZutatInMaschine>
     c4c:	0f 5f       	subi	r16, 0xFF	; 255
     c4e:	1f 4f       	sbci	r17, 0xFF	; 255
     c50:	0c 30       	cpi	r16, 0x0C	; 12
     c52:	11 05       	cpc	r17, r1
     c54:	09 f0       	breq	.+2      	; 0xc58 <erstelle_Zutatenliste+0x166>
     c56:	92 cf       	rjmp	.-220    	; 0xb7c <erstelle_Zutatenliste+0x8a>
     c58:	be 01       	movw	r22, r28
     c5a:	65 5f       	subi	r22, 0xF5	; 245
     c5c:	7f 4f       	sbci	r23, 0xFF	; 255
     c5e:	8a ec       	ldi	r24, 0xCA	; 202
     c60:	92 e0       	ldi	r25, 0x02	; 2
     c62:	0e 94 09 21 	call	0x4212	; 0x4212 <nextion_setText>
     c66:	c6 5f       	subi	r28, 0xF6	; 246
     c68:	dd 4f       	sbci	r29, 0xFD	; 253
     c6a:	0f b6       	in	r0, 0x3f	; 63
     c6c:	f8 94       	cli
     c6e:	de bf       	out	0x3e, r29	; 62
     c70:	0f be       	out	0x3f, r0	; 63
     c72:	cd bf       	out	0x3d, r28	; 61
     c74:	df 91       	pop	r29
     c76:	cf 91       	pop	r28
     c78:	1f 91       	pop	r17
     c7a:	0f 91       	pop	r16
     c7c:	ff 90       	pop	r15
     c7e:	ef 90       	pop	r14
     c80:	df 90       	pop	r13
     c82:	cf 90       	pop	r12
     c84:	bf 90       	pop	r11
     c86:	af 90       	pop	r10
     c88:	9f 90       	pop	r9
     c8a:	8f 90       	pop	r8
     c8c:	7f 90       	pop	r7
     c8e:	6f 90       	pop	r6
     c90:	5f 90       	pop	r5
     c92:	4f 90       	pop	r4
     c94:	3f 90       	pop	r3
     c96:	2f 90       	pop	r2
     c98:	08 95       	ret

00000c9a <compare_string>:
     c9a:	dc 01       	movw	r26, r24
     c9c:	9c 91       	ld	r25, X
     c9e:	fb 01       	movw	r30, r22
     ca0:	80 81       	ld	r24, Z
     ca2:	98 13       	cpse	r25, r24
     ca4:	0b c0       	rjmp	.+22     	; 0xcbc <compare_string+0x22>
     ca6:	99 23       	and	r25, r25
     ca8:	91 f0       	breq	.+36     	; 0xcce <compare_string+0x34>
     caa:	11 96       	adiw	r26, 0x01	; 1
     cac:	31 96       	adiw	r30, 0x01	; 1
     cae:	02 c0       	rjmp	.+4      	; 0xcb4 <compare_string+0x1a>
     cb0:	99 23       	and	r25, r25
     cb2:	79 f0       	breq	.+30     	; 0xcd2 <compare_string+0x38>
     cb4:	9d 91       	ld	r25, X+
     cb6:	81 91       	ld	r24, Z+
     cb8:	98 17       	cp	r25, r24
     cba:	d1 f3       	breq	.-12     	; 0xcb0 <compare_string+0x16>
     cbc:	91 11       	cpse	r25, r1
     cbe:	0b c0       	rjmp	.+22     	; 0xcd6 <compare_string+0x3c>
     cc0:	91 e0       	ldi	r25, 0x01	; 1
     cc2:	81 11       	cpse	r24, r1
     cc4:	01 c0       	rjmp	.+2      	; 0xcc8 <compare_string+0x2e>
     cc6:	90 e0       	ldi	r25, 0x00	; 0
     cc8:	89 2f       	mov	r24, r25
     cca:	81 95       	neg	r24
     ccc:	08 95       	ret
     cce:	80 e0       	ldi	r24, 0x00	; 0
     cd0:	08 95       	ret
     cd2:	80 e0       	ldi	r24, 0x00	; 0
     cd4:	08 95       	ret
     cd6:	8f ef       	ldi	r24, 0xFF	; 255
     cd8:	08 95       	ret

00000cda <pruefe_kopf>:
     cda:	df df       	rcall	.-66     	; 0xc9a <compare_string>
     cdc:	91 e0       	ldi	r25, 0x01	; 1
     cde:	81 11       	cpse	r24, r1
     ce0:	90 e0       	ldi	r25, 0x00	; 0
     ce2:	89 2f       	mov	r24, r25
     ce4:	08 95       	ret

00000ce6 <lese_textfile_in_getraenk>:
     ce6:	af 92       	push	r10
     ce8:	bf 92       	push	r11
     cea:	cf 92       	push	r12
     cec:	df 92       	push	r13
     cee:	ef 92       	push	r14
     cf0:	ff 92       	push	r15
     cf2:	0f 93       	push	r16
     cf4:	1f 93       	push	r17
     cf6:	cf 93       	push	r28
     cf8:	df 93       	push	r29
     cfa:	cd b7       	in	r28, 0x3d	; 61
     cfc:	de b7       	in	r29, 0x3e	; 62
     cfe:	e9 97       	sbiw	r28, 0x39	; 57
     d00:	0f b6       	in	r0, 0x3f	; 63
     d02:	f8 94       	cli
     d04:	de bf       	out	0x3e, r29	; 62
     d06:	0f be       	out	0x3f, r0	; 63
     d08:	cd bf       	out	0x3d, r28	; 61
     d0a:	4a e0       	ldi	r20, 0x0A	; 10
     d0c:	8e 01       	movw	r16, r28
     d0e:	0f 5f       	subi	r16, 0xFF	; 255
     d10:	1f 4f       	sbci	r17, 0xFF	; 255
     d12:	b8 01       	movw	r22, r16
     d14:	90 e0       	ldi	r25, 0x00	; 0
     d16:	0e 94 7b 34 	call	0x68f6	; 0x68f6 <__itoa_ncheck>
     d1a:	d8 01       	movw	r26, r16
     d1c:	0d 90       	ld	r0, X+
     d1e:	00 20       	and	r0, r0
     d20:	e9 f7       	brne	.-6      	; 0xd1c <lese_textfile_in_getraenk+0x36>
     d22:	11 97       	sbiw	r26, 0x01	; 1
     d24:	85 e0       	ldi	r24, 0x05	; 5
     d26:	eb ec       	ldi	r30, 0xCB	; 203
     d28:	f4 e0       	ldi	r31, 0x04	; 4
     d2a:	01 90       	ld	r0, Z+
     d2c:	0d 92       	st	X+, r0
     d2e:	8a 95       	dec	r24
     d30:	e1 f7       	brne	.-8      	; 0xd2a <lese_textfile_in_getraenk+0x44>
     d32:	b8 01       	movw	r22, r16
     d34:	80 e0       	ldi	r24, 0x00	; 0
     d36:	0e 94 db 28 	call	0x51b6	; 0x51b6 <readFile>
     d3a:	87 e0       	ldi	r24, 0x07	; 7
     d3c:	e0 ef       	ldi	r30, 0xF0	; 240
     d3e:	f2 e0       	ldi	r31, 0x02	; 2
     d40:	de 01       	movw	r26, r28
     d42:	d3 96       	adiw	r26, 0x33	; 51
     d44:	01 90       	ld	r0, Z+
     d46:	0d 92       	st	X+, r0
     d48:	8a 95       	dec	r24
     d4a:	e1 f7       	brne	.-8      	; 0xd44 <lese_textfile_in_getraenk+0x5e>
     d4c:	be 01       	movw	r22, r28
     d4e:	6d 5c       	subi	r22, 0xCD	; 205
     d50:	7f 4f       	sbci	r23, 0xFF	; 255
     d52:	8e e4       	ldi	r24, 0x4E	; 78
     d54:	9a e0       	ldi	r25, 0x0A	; 10
     d56:	0e 94 38 34 	call	0x6870	; 0x6870 <strtok>
     d5a:	8c 01       	movw	r16, r24
     d5c:	89 2b       	or	r24, r25
     d5e:	09 f4       	brne	.+2      	; 0xd62 <lese_textfile_in_getraenk+0x7c>
     d60:	cf c0       	rjmp	.+414    	; 0xf00 <lese_textfile_in_getraenk+0x21a>
     d62:	7e 01       	movw	r14, r28
     d64:	83 e3       	ldi	r24, 0x33	; 51
     d66:	e8 0e       	add	r14, r24
     d68:	f1 1c       	adc	r15, r1
     d6a:	67 ed       	ldi	r22, 0xD7	; 215
     d6c:	72 e0       	ldi	r23, 0x02	; 2
     d6e:	c8 01       	movw	r24, r16
     d70:	b4 df       	rcall	.-152    	; 0xcda <pruefe_kopf>
     d72:	88 23       	and	r24, r24
     d74:	79 f0       	breq	.+30     	; 0xd94 <lese_textfile_in_getraenk+0xae>
     d76:	b7 01       	movw	r22, r14
     d78:	80 e0       	ldi	r24, 0x00	; 0
     d7a:	90 e0       	ldi	r25, 0x00	; 0
     d7c:	0e 94 38 34 	call	0x6870	; 0x6870 <strtok>
     d80:	8c 01       	movw	r16, r24
     d82:	e0 91 c4 10 	lds	r30, 0x10C4	; 0x8010c4 <aktuellesGetraenk>
     d86:	f0 91 c5 10 	lds	r31, 0x10C5	; 0x8010c5 <aktuellesGetraenk+0x1>
     d8a:	bc 01       	movw	r22, r24
     d8c:	80 81       	ld	r24, Z
     d8e:	91 81       	ldd	r25, Z+1	; 0x01
     d90:	0e 94 4d 34 	call	0x689a	; 0x689a <strcpy>
     d94:	6c ed       	ldi	r22, 0xDC	; 220
     d96:	72 e0       	ldi	r23, 0x02	; 2
     d98:	c8 01       	movw	r24, r16
     d9a:	9f df       	rcall	.-194    	; 0xcda <pruefe_kopf>
     d9c:	88 23       	and	r24, r24
     d9e:	09 f4       	brne	.+2      	; 0xda2 <lese_textfile_in_getraenk+0xbc>
     da0:	7f c0       	rjmp	.+254    	; 0xea0 <lese_textfile_in_getraenk+0x1ba>
     da2:	b7 01       	movw	r22, r14
     da4:	80 e0       	ldi	r24, 0x00	; 0
     da6:	90 e0       	ldi	r25, 0x00	; 0
     da8:	0e 94 38 34 	call	0x6870	; 0x6870 <strtok>
     dac:	8c 01       	movw	r16, r24
     dae:	80 91 5f 0d 	lds	r24, 0x0D5F	; 0x800d5f <tail_zut_in_Maschine>
     db2:	90 91 60 0d 	lds	r25, 0x0D60	; 0x800d60 <tail_zut_in_Maschine+0x1>
     db6:	90 93 0a 08 	sts	0x080A, r25	; 0x80080a <aktuelleZutatInMaschine+0x1>
     dba:	80 93 09 08 	sts	0x0809, r24	; 0x800809 <aktuelleZutatInMaschine>
     dbe:	e0 91 c4 10 	lds	r30, 0x10C4	; 0x8010c4 <aktuellesGetraenk>
     dc2:	f0 91 c5 10 	lds	r31, 0x10C5	; 0x8010c5 <aktuellesGetraenk+0x1>
     dc6:	a0 91 09 08 	lds	r26, 0x0809	; 0x800809 <aktuelleZutatInMaschine>
     dca:	b0 91 0a 08 	lds	r27, 0x080A	; 0x80080a <aktuelleZutatInMaschine+0x1>
     dce:	14 96       	adiw	r26, 0x04	; 4
     dd0:	8c 91       	ld	r24, X
     dd2:	03 80       	ldd	r0, Z+3	; 0x03
     dd4:	f4 81       	ldd	r31, Z+4	; 0x04
     dd6:	e0 2d       	mov	r30, r0
     dd8:	e8 0f       	add	r30, r24
     dda:	f1 1d       	adc	r31, r1
     ddc:	10 82       	st	Z, r1
     dde:	e0 91 09 08 	lds	r30, 0x0809	; 0x800809 <aktuelleZutatInMaschine>
     de2:	f0 91 0a 08 	lds	r31, 0x080A	; 0x80080a <aktuelleZutatInMaschine+0x1>
     de6:	87 81       	ldd	r24, Z+7	; 0x07
     de8:	90 85       	ldd	r25, Z+8	; 0x08
     dea:	90 93 0a 08 	sts	0x080A, r25	; 0x80080a <aktuelleZutatInMaschine+0x1>
     dee:	80 93 09 08 	sts	0x0809, r24	; 0x800809 <aktuelleZutatInMaschine>
     df2:	20 91 5f 0d 	lds	r18, 0x0D5F	; 0x800d5f <tail_zut_in_Maschine>
     df6:	30 91 60 0d 	lds	r19, 0x0D60	; 0x800d60 <tail_zut_in_Maschine+0x1>
     dfa:	82 17       	cp	r24, r18
     dfc:	93 07       	cpc	r25, r19
     dfe:	f9 f6       	brne	.-66     	; 0xdbe <lese_textfile_in_getraenk+0xd8>
     e00:	f8 01       	movw	r30, r16
     e02:	80 81       	ld	r24, Z
     e04:	8b 33       	cpi	r24, 0x3B	; 59
     e06:	09 f4       	brne	.+2      	; 0xe0a <lese_textfile_in_getraenk+0x124>
     e08:	4b c0       	rjmp	.+150    	; 0xea0 <lese_textfile_in_getraenk+0x1ba>
     e0a:	ce 2c       	mov	r12, r14
     e0c:	df 2c       	mov	r13, r15
     e0e:	80 91 5f 0d 	lds	r24, 0x0D5F	; 0x800d5f <tail_zut_in_Maschine>
     e12:	90 91 60 0d 	lds	r25, 0x0D60	; 0x800d60 <tail_zut_in_Maschine+0x1>
     e16:	90 93 0a 08 	sts	0x080A, r25	; 0x80080a <aktuelleZutatInMaschine+0x1>
     e1a:	80 93 09 08 	sts	0x0809, r24	; 0x800809 <aktuelleZutatInMaschine>
     e1e:	e0 91 09 08 	lds	r30, 0x0809	; 0x800809 <aktuelleZutatInMaschine>
     e22:	f0 91 0a 08 	lds	r31, 0x080A	; 0x80080a <aktuelleZutatInMaschine+0x1>
     e26:	60 81       	ld	r22, Z
     e28:	71 81       	ldd	r23, Z+1	; 0x01
     e2a:	c8 01       	movw	r24, r16
     e2c:	36 df       	rcall	.-404    	; 0xc9a <compare_string>
     e2e:	81 11       	cpse	r24, r1
     e30:	1a c0       	rjmp	.+52     	; 0xe66 <lese_textfile_in_getraenk+0x180>
     e32:	6c 2d       	mov	r22, r12
     e34:	7d 2d       	mov	r23, r13
     e36:	80 e0       	ldi	r24, 0x00	; 0
     e38:	90 e0       	ldi	r25, 0x00	; 0
     e3a:	0e 94 38 34 	call	0x6870	; 0x6870 <strtok>
     e3e:	8c 01       	movw	r16, r24
     e40:	e0 91 c4 10 	lds	r30, 0x10C4	; 0x8010c4 <aktuellesGetraenk>
     e44:	f0 91 c5 10 	lds	r31, 0x10C5	; 0x8010c5 <aktuellesGetraenk+0x1>
     e48:	a0 91 09 08 	lds	r26, 0x0809	; 0x800809 <aktuelleZutatInMaschine>
     e4c:	b0 91 0a 08 	lds	r27, 0x080A	; 0x80080a <aktuelleZutatInMaschine+0x1>
     e50:	14 96       	adiw	r26, 0x04	; 4
     e52:	8c 91       	ld	r24, X
     e54:	a3 80       	ldd	r10, Z+3	; 0x03
     e56:	b4 80       	ldd	r11, Z+4	; 0x04
     e58:	a8 0e       	add	r10, r24
     e5a:	b1 1c       	adc	r11, r1
     e5c:	c8 01       	movw	r24, r16
     e5e:	0e 94 1b 34 	call	0x6836	; 0x6836 <atoi>
     e62:	f5 01       	movw	r30, r10
     e64:	80 83       	st	Z, r24
     e66:	e0 91 09 08 	lds	r30, 0x0809	; 0x800809 <aktuelleZutatInMaschine>
     e6a:	f0 91 0a 08 	lds	r31, 0x080A	; 0x80080a <aktuelleZutatInMaschine+0x1>
     e6e:	87 81       	ldd	r24, Z+7	; 0x07
     e70:	90 85       	ldd	r25, Z+8	; 0x08
     e72:	90 93 0a 08 	sts	0x080A, r25	; 0x80080a <aktuelleZutatInMaschine+0x1>
     e76:	80 93 09 08 	sts	0x0809, r24	; 0x800809 <aktuelleZutatInMaschine>
     e7a:	20 91 5f 0d 	lds	r18, 0x0D5F	; 0x800d5f <tail_zut_in_Maschine>
     e7e:	30 91 60 0d 	lds	r19, 0x0D60	; 0x800d60 <tail_zut_in_Maschine+0x1>
     e82:	82 17       	cp	r24, r18
     e84:	93 07       	cpc	r25, r19
     e86:	59 f6       	brne	.-106    	; 0xe1e <lese_textfile_in_getraenk+0x138>
     e88:	6c 2d       	mov	r22, r12
     e8a:	7d 2d       	mov	r23, r13
     e8c:	80 e0       	ldi	r24, 0x00	; 0
     e8e:	90 e0       	ldi	r25, 0x00	; 0
     e90:	0e 94 38 34 	call	0x6870	; 0x6870 <strtok>
     e94:	8c 01       	movw	r16, r24
     e96:	fc 01       	movw	r30, r24
     e98:	80 81       	ld	r24, Z
     e9a:	8b 33       	cpi	r24, 0x3B	; 59
     e9c:	09 f0       	breq	.+2      	; 0xea0 <lese_textfile_in_getraenk+0x1ba>
     e9e:	b7 cf       	rjmp	.-146    	; 0xe0e <lese_textfile_in_getraenk+0x128>
     ea0:	63 ee       	ldi	r22, 0xE3	; 227
     ea2:	72 e0       	ldi	r23, 0x02	; 2
     ea4:	c8 01       	movw	r24, r16
     ea6:	19 df       	rcall	.-462    	; 0xcda <pruefe_kopf>
     ea8:	88 23       	and	r24, r24
     eaa:	71 f0       	breq	.+28     	; 0xec8 <lese_textfile_in_getraenk+0x1e2>
     eac:	b7 01       	movw	r22, r14
     eae:	80 e0       	ldi	r24, 0x00	; 0
     eb0:	90 e0       	ldi	r25, 0x00	; 0
     eb2:	0e 94 38 34 	call	0x6870	; 0x6870 <strtok>
     eb6:	8c 01       	movw	r16, r24
     eb8:	c0 90 c4 10 	lds	r12, 0x10C4	; 0x8010c4 <aktuellesGetraenk>
     ebc:	d0 90 c5 10 	lds	r13, 0x10C5	; 0x8010c5 <aktuellesGetraenk+0x1>
     ec0:	0e 94 1b 34 	call	0x6836	; 0x6836 <atoi>
     ec4:	f6 01       	movw	r30, r12
     ec6:	82 83       	std	Z+2, r24	; 0x02
     ec8:	6b ee       	ldi	r22, 0xEB	; 235
     eca:	72 e0       	ldi	r23, 0x02	; 2
     ecc:	c8 01       	movw	r24, r16
     ece:	05 df       	rcall	.-502    	; 0xcda <pruefe_kopf>
     ed0:	88 23       	and	r24, r24
     ed2:	69 f0       	breq	.+26     	; 0xeee <lese_textfile_in_getraenk+0x208>
     ed4:	b7 01       	movw	r22, r14
     ed6:	80 e0       	ldi	r24, 0x00	; 0
     ed8:	90 e0       	ldi	r25, 0x00	; 0
     eda:	0e 94 38 34 	call	0x6870	; 0x6870 <strtok>
     ede:	00 91 c4 10 	lds	r16, 0x10C4	; 0x8010c4 <aktuellesGetraenk>
     ee2:	10 91 c5 10 	lds	r17, 0x10C5	; 0x8010c5 <aktuellesGetraenk+0x1>
     ee6:	0e 94 1b 34 	call	0x6836	; 0x6836 <atoi>
     eea:	f8 01       	movw	r30, r16
     eec:	85 83       	std	Z+5, r24	; 0x05
     eee:	b7 01       	movw	r22, r14
     ef0:	80 e0       	ldi	r24, 0x00	; 0
     ef2:	90 e0       	ldi	r25, 0x00	; 0
     ef4:	0e 94 38 34 	call	0x6870	; 0x6870 <strtok>
     ef8:	8c 01       	movw	r16, r24
     efa:	89 2b       	or	r24, r25
     efc:	09 f0       	breq	.+2      	; 0xf00 <lese_textfile_in_getraenk+0x21a>
     efe:	35 cf       	rjmp	.-406    	; 0xd6a <lese_textfile_in_getraenk+0x84>
     f00:	e9 96       	adiw	r28, 0x39	; 57
     f02:	0f b6       	in	r0, 0x3f	; 63
     f04:	f8 94       	cli
     f06:	de bf       	out	0x3e, r29	; 62
     f08:	0f be       	out	0x3f, r0	; 63
     f0a:	cd bf       	out	0x3d, r28	; 61
     f0c:	df 91       	pop	r29
     f0e:	cf 91       	pop	r28
     f10:	1f 91       	pop	r17
     f12:	0f 91       	pop	r16
     f14:	ff 90       	pop	r15
     f16:	ef 90       	pop	r14
     f18:	df 90       	pop	r13
     f1a:	cf 90       	pop	r12
     f1c:	bf 90       	pop	r11
     f1e:	af 90       	pop	r10
     f20:	08 95       	ret

00000f22 <choose_aktuellesGetraenk>:
     f22:	e0 91 02 08 	lds	r30, 0x0802	; 0x800802 <tail_getraenk_file>
     f26:	f0 91 03 08 	lds	r31, 0x0803	; 0x800803 <tail_getraenk_file+0x1>
     f2a:	f0 93 37 08 	sts	0x0837, r31	; 0x800837 <aktuellesGetraenk_file+0x1>
     f2e:	e0 93 36 08 	sts	0x0836, r30	; 0x800836 <aktuellesGetraenk_file>
     f32:	20 91 8a 10 	lds	r18, 0x108A	; 0x80108a <i_Liste>
     f36:	90 e0       	ldi	r25, 0x00	; 0
     f38:	82 0f       	add	r24, r18
     f3a:	91 1d       	adc	r25, r1
     f3c:	18 16       	cp	r1, r24
     f3e:	19 06       	cpc	r1, r25
     f40:	74 f4       	brge	.+28     	; 0xf5e <choose_aktuellesGetraenk+0x3c>
     f42:	20 e0       	ldi	r18, 0x00	; 0
     f44:	30 e0       	ldi	r19, 0x00	; 0
     f46:	03 80       	ldd	r0, Z+3	; 0x03
     f48:	f4 81       	ldd	r31, Z+4	; 0x04
     f4a:	e0 2d       	mov	r30, r0
     f4c:	2f 5f       	subi	r18, 0xFF	; 255
     f4e:	3f 4f       	sbci	r19, 0xFF	; 255
     f50:	28 17       	cp	r18, r24
     f52:	39 07       	cpc	r19, r25
     f54:	c1 f7       	brne	.-16     	; 0xf46 <choose_aktuellesGetraenk+0x24>
     f56:	f0 93 37 08 	sts	0x0837, r31	; 0x800837 <aktuellesGetraenk_file+0x1>
     f5a:	e0 93 36 08 	sts	0x0836, r30	; 0x800836 <aktuellesGetraenk_file>
     f5e:	e0 91 36 08 	lds	r30, 0x0836	; 0x800836 <aktuellesGetraenk_file>
     f62:	f0 91 37 08 	lds	r31, 0x0837	; 0x800837 <aktuellesGetraenk_file+0x1>
     f66:	80 81       	ld	r24, Z
     f68:	be de       	rcall	.-644    	; 0xce6 <lese_textfile_in_getraenk>
     f6a:	e0 91 c4 10 	lds	r30, 0x10C4	; 0x8010c4 <aktuellesGetraenk>
     f6e:	f0 91 c5 10 	lds	r31, 0x10C5	; 0x8010c5 <aktuellesGetraenk+0x1>
     f72:	80 81       	ld	r24, Z
     f74:	91 81       	ldd	r25, Z+1	; 0x01
     f76:	0e 94 b6 30 	call	0x616c	; 0x616c <Uart_Transmit_IT_PC>
     f7a:	88 e0       	ldi	r24, 0x08	; 8
     f7c:	96 e0       	ldi	r25, 0x06	; 6
     f7e:	0e 94 b6 30 	call	0x616c	; 0x616c <Uart_Transmit_IT_PC>
     f82:	10 92 53 0c 	sts	0x0C53, r1	; 0x800c53 <block_list_hoch>
     f86:	10 92 3f 08 	sts	0x083F, r1	; 0x80083f <block_list_runter>
     f8a:	10 92 8a 10 	sts	0x108A, r1	; 0x80108a <i_Liste>
     f8e:	08 95       	ret

00000f90 <bearbeite_Cocktail>:
     f90:	c8 df       	rcall	.-112    	; 0xf22 <choose_aktuellesGetraenk>
     f92:	89 e0       	ldi	r24, 0x09	; 9
     f94:	0e 94 ea 20 	call	0x41d4	; 0x41d4 <nextion_change_page>
     f98:	87 ef       	ldi	r24, 0xF7	; 247
     f9a:	92 e0       	ldi	r25, 0x02	; 2
     f9c:	fc da       	rcall	.-2568   	; 0x596 <erstelle_Liste_zutat>
     f9e:	10 92 8a 10 	sts	0x108A, r1	; 0x80108a <i_Liste>
     fa2:	08 95       	ret

00000fa4 <schiebe_file_next>:
	nextion_setText("zutatenliste",string);
}

void schiebe_file_next(void)
{
	aktuellesGetraenk_file = aktuellesGetraenk_file->next;
     fa4:	e0 91 36 08 	lds	r30, 0x0836	; 0x800836 <aktuellesGetraenk_file>
     fa8:	f0 91 37 08 	lds	r31, 0x0837	; 0x800837 <aktuellesGetraenk_file+0x1>
     fac:	01 80       	ldd	r0, Z+1	; 0x01
     fae:	f2 81       	ldd	r31, Z+2	; 0x02
     fb0:	e0 2d       	mov	r30, r0
     fb2:	f0 93 37 08 	sts	0x0837, r31	; 0x800837 <aktuellesGetraenk_file+0x1>
     fb6:	e0 93 36 08 	sts	0x0836, r30	; 0x800836 <aktuellesGetraenk_file>
	lese_textfile_in_getraenk(aktuellesGetraenk_file->file);
     fba:	80 81       	ld	r24, Z
     fbc:	94 ce       	rjmp	.-728    	; 0xce6 <lese_textfile_in_getraenk>
     fbe:	08 95       	ret

00000fc0 <schiebe_file_prev>:
}

void schiebe_file_prev(void)
{
	aktuellesGetraenk_file = aktuellesGetraenk_file->prev;
     fc0:	e0 91 36 08 	lds	r30, 0x0836	; 0x800836 <aktuellesGetraenk_file>
     fc4:	f0 91 37 08 	lds	r31, 0x0837	; 0x800837 <aktuellesGetraenk_file+0x1>
     fc8:	03 80       	ldd	r0, Z+3	; 0x03
     fca:	f4 81       	ldd	r31, Z+4	; 0x04
     fcc:	e0 2d       	mov	r30, r0
     fce:	f0 93 37 08 	sts	0x0837, r31	; 0x800837 <aktuellesGetraenk_file+0x1>
     fd2:	e0 93 36 08 	sts	0x0836, r30	; 0x800836 <aktuellesGetraenk_file>
	lese_textfile_in_getraenk(aktuellesGetraenk_file->file);
     fd6:	80 81       	ld	r24, Z
     fd8:	86 ce       	rjmp	.-756    	; 0xce6 <lese_textfile_in_getraenk>
     fda:	08 95       	ret

00000fdc <erstelle_Liste_name>:
	}
	return val;
}

void erstelle_Liste_name(char * name_button)
{
     fdc:	9f 92       	push	r9
     fde:	af 92       	push	r10
     fe0:	bf 92       	push	r11
     fe2:	cf 92       	push	r12
     fe4:	df 92       	push	r13
     fe6:	ef 92       	push	r14
     fe8:	ff 92       	push	r15
     fea:	0f 93       	push	r16
     fec:	1f 93       	push	r17
     fee:	cf 93       	push	r28
     ff0:	df 93       	push	r29
     ff2:	cd b7       	in	r28, 0x3d	; 61
     ff4:	de b7       	in	r29, 0x3e	; 62
     ff6:	e3 97       	sbiw	r28, 0x33	; 51
     ff8:	0f b6       	in	r0, 0x3f	; 63
     ffa:	f8 94       	cli
     ffc:	de bf       	out	0x3e, r29	; 62
     ffe:	0f be       	out	0x3f, r0	; 63
    1000:	cd bf       	out	0x3d, r28	; 61
    1002:	6c 01       	movw	r12, r24
	char buff[10] = {'\0'};
    1004:	8e 01       	movw	r16, r28
    1006:	0f 5f       	subi	r16, 0xFF	; 255
    1008:	1f 4f       	sbci	r17, 0xFF	; 255
    100a:	8a e0       	ldi	r24, 0x0A	; 10
    100c:	d8 01       	movw	r26, r16
    100e:	1d 92       	st	X+, r1
    1010:	8a 95       	dec	r24
    1012:	e9 f7       	brne	.-6      	; 0x100e <erstelle_Liste_name+0x32>
	Uart_Transmit_IT_PC("Liste:\r");
    1014:	80 e2       	ldi	r24, 0x20	; 32
    1016:	93 e0       	ldi	r25, 0x03	; 3
    1018:	0e 94 b6 30 	call	0x616c	; 0x616c <Uart_Transmit_IT_PC>
	Uart_Transmit_IT_PC("i_Liste_test_cnt = ");
    101c:	88 e2       	ldi	r24, 0x28	; 40
    101e:	93 e0       	ldi	r25, 0x03	; 3
    1020:	0e 94 b6 30 	call	0x616c	; 0x616c <Uart_Transmit_IT_PC>
    } else if (__radix < 2 || __radix > 36) {
	*__s = 0;
	return __s;
    } else {
	extern char *__itoa_ncheck (int, char *, unsigned char);
	return __itoa_ncheck (__val, __s, __radix);
    1024:	80 91 30 08 	lds	r24, 0x0830	; 0x800830 <i_Liste_test_cnt>
    1028:	4a e0       	ldi	r20, 0x0A	; 10
    102a:	b8 01       	movw	r22, r16
    102c:	90 e0       	ldi	r25, 0x00	; 0
    102e:	0e 94 7b 34 	call	0x68f6	; 0x68f6 <__itoa_ncheck>
	itoa(i_Liste_test_cnt, (char *)buff, 10);
	Uart_Transmit_IT_PC((char *)buff);
    1032:	c8 01       	movw	r24, r16
    1034:	0e 94 b6 30 	call	0x616c	; 0x616c <Uart_Transmit_IT_PC>
	Uart_Transmit_IT_PC("\ri_Liste[] = ");
    1038:	8c e3       	ldi	r24, 0x3C	; 60
    103a:	93 e0       	ldi	r25, 0x03	; 3
    103c:	0e 94 b6 30 	call	0x616c	; 0x616c <Uart_Transmit_IT_PC>
	itoa(i_Liste_test[i_Liste_test_cnt],(char *)buff, 10);
    1040:	e0 91 30 08 	lds	r30, 0x0830	; 0x800830 <i_Liste_test_cnt>
    1044:	f0 e0       	ldi	r31, 0x00	; 0
    1046:	e5 57       	subi	r30, 0x75	; 117
    1048:	ff 4e       	sbci	r31, 0xEF	; 239
    104a:	80 81       	ld	r24, Z
    104c:	4a e0       	ldi	r20, 0x0A	; 10
    104e:	b8 01       	movw	r22, r16
    1050:	90 e0       	ldi	r25, 0x00	; 0
    1052:	0e 94 7b 34 	call	0x68f6	; 0x68f6 <__itoa_ncheck>
	Uart_Transmit_IT_PC((char *)buff);
    1056:	c8 01       	movw	r24, r16
    1058:	0e 94 b6 30 	call	0x616c	; 0x616c <Uart_Transmit_IT_PC>
	Uart_Transmit_IT_PC("\r");
    105c:	88 e0       	ldi	r24, 0x08	; 8
    105e:	96 e0       	ldi	r25, 0x06	; 6
    1060:	0e 94 b6 30 	call	0x616c	; 0x616c <Uart_Transmit_IT_PC>
	#else
		//round up by default
		__ticks_dc = (uint32_t)(ceil(fabs(__tmp)));
	#endif

	__builtin_avr_delay_cycles(__ticks_dc);
    1064:	bf ef       	ldi	r27, 0xFF	; 255
    1066:	e1 ee       	ldi	r30, 0xE1	; 225
    1068:	f4 e0       	ldi	r31, 0x04	; 4
    106a:	b1 50       	subi	r27, 0x01	; 1
    106c:	e0 40       	sbci	r30, 0x00	; 0
    106e:	f0 40       	sbci	r31, 0x00	; 0
    1070:	e1 f7       	brne	.-8      	; 0x106a <erstelle_Liste_name+0x8e>
    1072:	00 c0       	rjmp	.+0      	; 0x1074 <erstelle_Liste_name+0x98>
    1074:	00 00       	nop
	_delay_ms(100);
	
	uint8_t list_length = 8;
	
	// Getrnkedurchwahr bei Tail starten.
	aktuellesGetraenk_file = tail_getraenk_file;
    1076:	e0 91 02 08 	lds	r30, 0x0802	; 0x800802 <tail_getraenk_file>
    107a:	f0 91 03 08 	lds	r31, 0x0803	; 0x800803 <tail_getraenk_file+0x1>
    107e:	f0 93 37 08 	sts	0x0837, r31	; 0x800837 <aktuellesGetraenk_file+0x1>
    1082:	e0 93 36 08 	sts	0x0836, r30	; 0x800836 <aktuellesGetraenk_file>
	
	// Shifte aktuelles Getrnk auf bestimmte Seite
	// (1. Seite: i_Liste = 0; 2. Seite: i_Liste = 8; ...)
	for (int count = 0 ; count < i_Liste_test[i_Liste_test_cnt] ; count++)
    1086:	a0 91 30 08 	lds	r26, 0x0830	; 0x800830 <i_Liste_test_cnt>
    108a:	b0 e0       	ldi	r27, 0x00	; 0
    108c:	a5 57       	subi	r26, 0x75	; 117
    108e:	bf 4e       	sbci	r27, 0xEF	; 239
    1090:	2c 91       	ld	r18, X
    1092:	30 e0       	ldi	r19, 0x00	; 0
    1094:	12 16       	cp	r1, r18
    1096:	13 06       	cpc	r1, r19
    1098:	6c f4       	brge	.+26     	; 0x10b4 <erstelle_Liste_name+0xd8>
    109a:	80 e0       	ldi	r24, 0x00	; 0
    109c:	90 e0       	ldi	r25, 0x00	; 0
	{
		aktuellesGetraenk_file = aktuellesGetraenk_file->prev;
    109e:	03 80       	ldd	r0, Z+3	; 0x03
    10a0:	f4 81       	ldd	r31, Z+4	; 0x04
    10a2:	e0 2d       	mov	r30, r0
	// Getrnkedurchwahr bei Tail starten.
	aktuellesGetraenk_file = tail_getraenk_file;
	
	// Shifte aktuelles Getrnk auf bestimmte Seite
	// (1. Seite: i_Liste = 0; 2. Seite: i_Liste = 8; ...)
	for (int count = 0 ; count < i_Liste_test[i_Liste_test_cnt] ; count++)
    10a4:	01 96       	adiw	r24, 0x01	; 1
    10a6:	82 17       	cp	r24, r18
    10a8:	93 07       	cpc	r25, r19
    10aa:	c9 f7       	brne	.-14     	; 0x109e <erstelle_Liste_name+0xc2>
    10ac:	f0 93 37 08 	sts	0x0837, r31	; 0x800837 <aktuellesGetraenk_file+0x1>
    10b0:	e0 93 36 08 	sts	0x0836, r30	; 0x800836 <aktuellesGetraenk_file>
	uint8_t counter = 0;
	
	// Fr alle Buttons auf der Seite ...
		
		// Initialisierungen
	char button[21] = {'\0'};
    10b4:	fe 01       	movw	r30, r28
    10b6:	3b 96       	adiw	r30, 0x0b	; 11
    10b8:	85 e1       	ldi	r24, 0x15	; 21
    10ba:	df 01       	movw	r26, r30
    10bc:	1d 92       	st	X+, r1
    10be:	8a 95       	dec	r24
    10c0:	e9 f7       	brne	.-6      	; 0x10bc <erstelle_Liste_name+0xe0>
	
	for (int count = 0 ; count < list_length ; count++)
    10c2:	00 e0       	ldi	r16, 0x00	; 0
    10c4:	10 e0       	ldi	r17, 0x00	; 0
	for (int count = 0 ; count < i_Liste_test[i_Liste_test_cnt] ; count++)
	{
		aktuellesGetraenk_file = aktuellesGetraenk_file->prev;
	}
	
	uint8_t counter = 0;
    10c6:	b1 2c       	mov	r11, r1
			
			// Sicherheitsdelay, Programm strzt sonst ab
			_delay_ms(10);
			
			// Schreibe Text und Buttonnummer fr disable in String
			char buff10[20] = {'\0'};
    10c8:	0f 2e       	mov	r0, r31
    10ca:	f4 e1       	ldi	r31, 0x14	; 20
    10cc:	af 2e       	mov	r10, r31
    10ce:	f0 2d       	mov	r31, r0
    10d0:	7e 01       	movw	r14, r28
    10d2:	b0 e2       	ldi	r27, 0x20	; 32
    10d4:	eb 0e       	add	r14, r27
    10d6:	f1 1c       	adc	r15, r1
		
		// Falls das untere Ende der Liste erreicht wurde und liste noch nicht blockiert ist,
		// runterscrollen, blockieren und letzter Name einschreiben.
		if (aktuellesGetraenk_file == head_getraenk_file && !block_list_runter)
		{
			block_list_runter = 1;
    10d8:	99 24       	eor	r9, r9
    10da:	93 94       	inc	r9
	char button[21] = {'\0'};
	
	for (int count = 0 ; count < list_length ; count++)
	{
		// Schreibe Zahl und Name des Buttons in String
		itoa((count + 1),buff,10);
    10dc:	0f 5f       	subi	r16, 0xFF	; 255
    10de:	1f 4f       	sbci	r17, 0xFF	; 255
    10e0:	4a e0       	ldi	r20, 0x0A	; 10
    10e2:	be 01       	movw	r22, r28
    10e4:	6f 5f       	subi	r22, 0xFF	; 255
    10e6:	7f 4f       	sbci	r23, 0xFF	; 255
    10e8:	c8 01       	movw	r24, r16
    10ea:	0e 94 7b 34 	call	0x68f6	; 0x68f6 <__itoa_ncheck>
		strcpy((char *)button, (const char *)name_button);
    10ee:	b6 01       	movw	r22, r12
    10f0:	ce 01       	movw	r24, r28
    10f2:	0b 96       	adiw	r24, 0x0b	; 11
    10f4:	0e 94 4d 34 	call	0x689a	; 0x689a <strcpy>
		strcat((char *)button, (const char *)buff);
    10f8:	be 01       	movw	r22, r28
    10fa:	6f 5f       	subi	r22, 0xFF	; 255
    10fc:	7f 4f       	sbci	r23, 0xFF	; 255
    10fe:	ce 01       	movw	r24, r28
    1100:	0b 96       	adiw	r24, 0x0b	; 11
    1102:	0e 94 42 34 	call	0x6884	; 0x6884 <strcat>
		
		// Falls das untere Ende der Liste erreicht wurde und liste noch nicht blockiert ist,
		// runterscrollen, blockieren und letzter Name einschreiben.
		if (aktuellesGetraenk_file == head_getraenk_file && !block_list_runter)
    1106:	e0 91 36 08 	lds	r30, 0x0836	; 0x800836 <aktuellesGetraenk_file>
    110a:	f0 91 37 08 	lds	r31, 0x0837	; 0x800837 <aktuellesGetraenk_file+0x1>
    110e:	80 91 38 08 	lds	r24, 0x0838	; 0x800838 <head_getraenk_file>
    1112:	90 91 39 08 	lds	r25, 0x0839	; 0x800839 <head_getraenk_file+0x1>
    1116:	e8 17       	cp	r30, r24
    1118:	f9 07       	cpc	r31, r25
    111a:	99 f4       	brne	.+38     	; 0x1142 <erstelle_Liste_name+0x166>
    111c:	80 91 3f 08 	lds	r24, 0x083F	; 0x80083f <block_list_runter>
    1120:	81 11       	cpse	r24, r1
    1122:	13 c0       	rjmp	.+38     	; 0x114a <erstelle_Liste_name+0x16e>
		{
			block_list_runter = 1;
    1124:	90 92 3f 08 	sts	0x083F, r9	; 0x80083f <block_list_runter>
			lese_textfile_in_getraenk(aktuellesGetraenk_file->file);
    1128:	80 81       	ld	r24, Z
    112a:	dd dd       	rcall	.-1094   	; 0xce6 <lese_textfile_in_getraenk>
			nextion_setText(button,aktuellesGetraenk->name);
    112c:	e0 91 c4 10 	lds	r30, 0x10C4	; 0x8010c4 <aktuellesGetraenk>
    1130:	f0 91 c5 10 	lds	r31, 0x10C5	; 0x8010c5 <aktuellesGetraenk+0x1>
    1134:	60 81       	ld	r22, Z
    1136:	71 81       	ldd	r23, Z+1	; 0x01
    1138:	ce 01       	movw	r24, r28
    113a:	0b 96       	adiw	r24, 0x0b	; 11
    113c:	0e 94 09 21 	call	0x4212	; 0x4212 <nextion_setText>
    1140:	44 c0       	rjmp	.+136    	; 0x11ca <erstelle_Liste_name+0x1ee>
		}
		
		// Falls die Liste blockiert ist, Leeren String in das Feld schreiben und
		// die Buttons disablen
		else if (block_list_runter)
    1142:	80 91 3f 08 	lds	r24, 0x083F	; 0x80083f <block_list_runter>
    1146:	88 23       	and	r24, r24
    1148:	a1 f1       	breq	.+104    	; 0x11b2 <erstelle_Liste_name+0x1d6>
		{
			// leerer String
			nextion_setText(button,"");
    114a:	6e e8       	ldi	r22, 0x8E	; 142
    114c:	75 e0       	ldi	r23, 0x05	; 5
    114e:	ce 01       	movw	r24, r28
    1150:	0b 96       	adiw	r24, 0x0b	; 11
    1152:	0e 94 09 21 	call	0x4212	; 0x4212 <nextion_setText>
    1156:	ef e3       	ldi	r30, 0x3F	; 63
    1158:	fc e9       	ldi	r31, 0x9C	; 156
    115a:	31 97       	sbiw	r30, 0x01	; 1
    115c:	f1 f7       	brne	.-4      	; 0x115a <erstelle_Liste_name+0x17e>
    115e:	00 c0       	rjmp	.+0      	; 0x1160 <erstelle_Liste_name+0x184>
    1160:	00 00       	nop
			
			// Sicherheitsdelay, Programm strzt sonst ab
			_delay_ms(10);
			
			// Schreibe Text und Buttonnummer fr disable in String
			char buff10[20] = {'\0'};
    1162:	d7 01       	movw	r26, r14
    1164:	ea 2d       	mov	r30, r10
    1166:	1d 92       	st	X+, r1
    1168:	ea 95       	dec	r30
    116a:	e9 f7       	brne	.-6      	; 0x1166 <erstelle_Liste_name+0x18a>
			strcat((char *)buff10, (const char *)name_button);
    116c:	b6 01       	movw	r22, r12
    116e:	c7 01       	movw	r24, r14
    1170:	0e 94 42 34 	call	0x6884	; 0x6884 <strcat>
    1174:	80 91 47 09 	lds	r24, 0x0947	; 0x800947 <i>
    1178:	90 91 48 09 	lds	r25, 0x0948	; 0x800948 <i+0x1>
    117c:	4a e0       	ldi	r20, 0x0A	; 10
    117e:	be 01       	movw	r22, r28
    1180:	6f 5f       	subi	r22, 0xFF	; 255
    1182:	7f 4f       	sbci	r23, 0xFF	; 255
    1184:	01 96       	adiw	r24, 0x01	; 1
    1186:	0e 94 7b 34 	call	0x68f6	; 0x68f6 <__itoa_ncheck>
			itoa((i + 1), (char *)buff, 10);
			strcat((char *)buff10, (const char *)buff);
    118a:	be 01       	movw	r22, r28
    118c:	6f 5f       	subi	r22, 0xFF	; 255
    118e:	7f 4f       	sbci	r23, 0xFF	; 255
    1190:	c7 01       	movw	r24, r14
    1192:	0e 94 42 34 	call	0x6884	; 0x6884 <strcat>
			
			// Disable Button
			nextion_disableButton(buff10);
    1196:	c7 01       	movw	r24, r14
    1198:	0e 94 a2 21 	call	0x4344	; 0x4344 <nextion_disableButton>
			aktuellesGetraenk_file = aktuellesGetraenk_file->next;
    119c:	e0 91 36 08 	lds	r30, 0x0836	; 0x800836 <aktuellesGetraenk_file>
    11a0:	f0 91 37 08 	lds	r31, 0x0837	; 0x800837 <aktuellesGetraenk_file+0x1>
    11a4:	81 81       	ldd	r24, Z+1	; 0x01
    11a6:	92 81       	ldd	r25, Z+2	; 0x02
    11a8:	90 93 37 08 	sts	0x0837, r25	; 0x800837 <aktuellesGetraenk_file+0x1>
    11ac:	80 93 36 08 	sts	0x0836, r24	; 0x800836 <aktuellesGetraenk_file>
    11b0:	0c c0       	rjmp	.+24     	; 0x11ca <erstelle_Liste_name+0x1ee>
		}
		
		//Falls Eintrag dazwischen, Name einschreiben (Normalbetrieb)
		else
		{
			lese_textfile_in_getraenk(aktuellesGetraenk_file->file);
    11b2:	80 81       	ld	r24, Z
    11b4:	98 dd       	rcall	.-1232   	; 0xce6 <lese_textfile_in_getraenk>
			nextion_setText(button,aktuellesGetraenk->name);
    11b6:	e0 91 c4 10 	lds	r30, 0x10C4	; 0x8010c4 <aktuellesGetraenk>
    11ba:	f0 91 c5 10 	lds	r31, 0x10C5	; 0x8010c5 <aktuellesGetraenk+0x1>
    11be:	60 81       	ld	r22, Z
    11c0:	71 81       	ldd	r23, Z+1	; 0x01
    11c2:	ce 01       	movw	r24, r28
    11c4:	0b 96       	adiw	r24, 0x0b	; 11
    11c6:	0e 94 09 21 	call	0x4212	; 0x4212 <nextion_setText>
		
		// Falls das obere Ende der Liste erreicht wird, und das untere noch nicht erreicht wurde 
		// (da aktuelles Getraenk auf Tail getraenk springt und sozusagen "berluft" und so beide
		// Richtungen blockiert werden, sobald das untere Ende erreicht wird), hochscrollen blockieren
		
		switch (Liste)
    11ca:	80 91 08 08 	lds	r24, 0x0808	; 0x800808 <Liste>
    11ce:	81 30       	cpi	r24, 0x01	; 1
    11d0:	19 f0       	breq	.+6      	; 0x11d8 <erstelle_Liste_name+0x1fc>
    11d2:	82 30       	cpi	r24, 0x02	; 2
    11d4:	21 f0       	breq	.+8      	; 0x11de <erstelle_Liste_name+0x202>
		{
			char run = 1;
			
			case ALKOHOL:
			//				0x01 = 0b01
			schiebe_file_prev();
    11d6:	05 c0       	rjmp	.+10     	; 0x11e2 <erstelle_Liste_name+0x206>
			counter++;
    11d8:	f3 de       	rcall	.-538    	; 0xfc0 <schiebe_file_prev>
    11da:	b3 94       	inc	r11
				}
			}
			break;
			case ALKOHOLFREI:
			//				0x02 = 0b02
			schiebe_file_prev();
    11dc:	02 c0       	rjmp	.+4      	; 0x11e2 <erstelle_Liste_name+0x206>
    11de:	f0 de       	rcall	.-544    	; 0xfc0 <schiebe_file_prev>
			counter++;
    11e0:	b3 94       	inc	r11
    11e2:	8f e9       	ldi	r24, 0x9F	; 159
    11e4:	9f e0       	ldi	r25, 0x0F	; 15
    11e6:	01 97       	sbiw	r24, 0x01	; 1
    11e8:	f1 f7       	brne	.-4      	; 0x11e6 <erstelle_Liste_name+0x20a>
    11ea:	00 c0       	rjmp	.+0      	; 0x11ec <erstelle_Liste_name+0x210>
    11ec:	00 00       	nop
			break;
		}
				
		// Sicherheitsdelay, Programm strzt sonst ab
		_delay_ms(1);
		if (i == (list_length - 1))
    11ee:	80 91 47 09 	lds	r24, 0x0947	; 0x800947 <i>
    11f2:	90 91 48 09 	lds	r25, 0x0948	; 0x800948 <i+0x1>
    11f6:	07 97       	sbiw	r24, 0x07	; 7
    11f8:	09 f0       	breq	.+2      	; 0x11fc <erstelle_Liste_name+0x220>
    11fa:	42 c0       	rjmp	.+132    	; 0x1280 <erstelle_Liste_name+0x2a4>
		{
			i_Liste_test[i_Liste_test_cnt+1] = i_Liste_test[i_Liste_test_cnt] + counter;
    11fc:	80 91 30 08 	lds	r24, 0x0830	; 0x800830 <i_Liste_test_cnt>
    1200:	e8 2f       	mov	r30, r24
    1202:	f0 e0       	ldi	r31, 0x00	; 0
    1204:	e5 57       	subi	r30, 0x75	; 117
    1206:	ff 4e       	sbci	r31, 0xEF	; 239
    1208:	90 81       	ld	r25, Z
    120a:	9b 0d       	add	r25, r11
    120c:	91 83       	std	Z+1, r25	; 0x01
			i_Liste_test_cnt++;
    120e:	8f 5f       	subi	r24, 0xFF	; 255
    1210:	80 93 30 08 	sts	0x0830, r24	; 0x800830 <i_Liste_test_cnt>
			char buff[10] = {'\0'};
    1214:	8a e0       	ldi	r24, 0x0A	; 10
    1216:	d7 01       	movw	r26, r14
    1218:	1d 92       	st	X+, r1
    121a:	8a 95       	dec	r24
    121c:	e9 f7       	brne	.-6      	; 0x1218 <erstelle_Liste_name+0x23c>
			Uart_Transmit_IT_PC("Liste Ende:\r");
    121e:	8a e4       	ldi	r24, 0x4A	; 74
    1220:	93 e0       	ldi	r25, 0x03	; 3
    1222:	0e 94 b6 30 	call	0x616c	; 0x616c <Uart_Transmit_IT_PC>
			Uart_Transmit_IT_PC("i_Liste_test_cnt = ");
    1226:	88 e2       	ldi	r24, 0x28	; 40
    1228:	93 e0       	ldi	r25, 0x03	; 3
    122a:	0e 94 b6 30 	call	0x616c	; 0x616c <Uart_Transmit_IT_PC>
    122e:	80 91 30 08 	lds	r24, 0x0830	; 0x800830 <i_Liste_test_cnt>
    1232:	4a e0       	ldi	r20, 0x0A	; 10
    1234:	b7 01       	movw	r22, r14
    1236:	90 e0       	ldi	r25, 0x00	; 0
    1238:	0e 94 7b 34 	call	0x68f6	; 0x68f6 <__itoa_ncheck>
			itoa(i_Liste_test_cnt, (char *)buff, 10);
			Uart_Transmit_IT_PC((char *)buff);
    123c:	c7 01       	movw	r24, r14
    123e:	0e 94 b6 30 	call	0x616c	; 0x616c <Uart_Transmit_IT_PC>
			Uart_Transmit_IT_PC("\ri_Liste[] = ");
    1242:	8c e3       	ldi	r24, 0x3C	; 60
    1244:	93 e0       	ldi	r25, 0x03	; 3
    1246:	0e 94 b6 30 	call	0x616c	; 0x616c <Uart_Transmit_IT_PC>
			itoa(i_Liste_test[i_Liste_test_cnt],(char *)buff, 10);
    124a:	e0 91 30 08 	lds	r30, 0x0830	; 0x800830 <i_Liste_test_cnt>
    124e:	f0 e0       	ldi	r31, 0x00	; 0
    1250:	e5 57       	subi	r30, 0x75	; 117
    1252:	ff 4e       	sbci	r31, 0xEF	; 239
    1254:	80 81       	ld	r24, Z
    1256:	4a e0       	ldi	r20, 0x0A	; 10
    1258:	b7 01       	movw	r22, r14
    125a:	90 e0       	ldi	r25, 0x00	; 0
    125c:	0e 94 7b 34 	call	0x68f6	; 0x68f6 <__itoa_ncheck>
			Uart_Transmit_IT_PC((char *)buff);
    1260:	c7 01       	movw	r24, r14
    1262:	0e 94 b6 30 	call	0x616c	; 0x616c <Uart_Transmit_IT_PC>
			Uart_Transmit_IT_PC("\r");
    1266:	88 e0       	ldi	r24, 0x08	; 8
    1268:	96 e0       	ldi	r25, 0x06	; 6
    126a:	0e 94 b6 30 	call	0x616c	; 0x616c <Uart_Transmit_IT_PC>
    126e:	bf ef       	ldi	r27, 0xFF	; 255
    1270:	e1 ee       	ldi	r30, 0xE1	; 225
    1272:	f4 e0       	ldi	r31, 0x04	; 4
    1274:	b1 50       	subi	r27, 0x01	; 1
    1276:	e0 40       	sbci	r30, 0x00	; 0
    1278:	f0 40       	sbci	r31, 0x00	; 0
    127a:	e1 f7       	brne	.-8      	; 0x1274 <erstelle_Liste_name+0x298>
    127c:	00 c0       	rjmp	.+0      	; 0x127e <erstelle_Liste_name+0x2a2>
    127e:	00 00       	nop
	// Fr alle Buttons auf der Seite ...
		
		// Initialisierungen
	char button[21] = {'\0'};
	
	for (int count = 0 ; count < list_length ; count++)
    1280:	08 30       	cpi	r16, 0x08	; 8
    1282:	11 05       	cpc	r17, r1
    1284:	09 f0       	breq	.+2      	; 0x1288 <erstelle_Liste_name+0x2ac>
    1286:	2a cf       	rjmp	.-428    	; 0x10dc <erstelle_Liste_name+0x100>
			Uart_Transmit_IT_PC("\r");
			_delay_ms(100);
	
		}
	}
}
    1288:	e3 96       	adiw	r28, 0x33	; 51
    128a:	0f b6       	in	r0, 0x3f	; 63
    128c:	f8 94       	cli
    128e:	de bf       	out	0x3e, r29	; 62
    1290:	0f be       	out	0x3f, r0	; 63
    1292:	cd bf       	out	0x3d, r28	; 61
    1294:	df 91       	pop	r29
    1296:	cf 91       	pop	r28
    1298:	1f 91       	pop	r17
    129a:	0f 91       	pop	r16
    129c:	ff 90       	pop	r15
    129e:	ef 90       	pop	r14
    12a0:	df 90       	pop	r13
    12a2:	cf 90       	pop	r12
    12a4:	bf 90       	pop	r11
    12a6:	af 90       	pop	r10
    12a8:	9f 90       	pop	r9
    12aa:	08 95       	ret

000012ac <SD_startup>:
	}
}

void SD_startup(void)
{
	cardType = 0;
    12ac:	10 92 86 0f 	sts	0x0F86, r1	; 0x800f86 <cardType>

	for (i=0; i<10; i++)
    12b0:	10 92 48 09 	sts	0x0948, r1	; 0x800948 <i+0x1>
    12b4:	10 92 47 09 	sts	0x0947, r1	; 0x800947 <i>
	{
		error = SD_init();
    12b8:	0e 94 06 2e 	call	0x5c0c	; 0x5c0c <SD_init>
    12bc:	80 93 87 0f 	sts	0x0F87, r24	; 0x800f87 <error>
		if(!error) break;
    12c0:	88 23       	and	r24, r24
    12c2:	09 f4       	brne	.+2      	; 0x12c6 <SD_startup+0x1a>
    12c4:	52 c0       	rjmp	.+164    	; 0x136a <SD_startup+0xbe>

void SD_startup(void)
{
	cardType = 0;

	for (i=0; i<10; i++)
    12c6:	20 91 47 09 	lds	r18, 0x0947	; 0x800947 <i>
    12ca:	30 91 48 09 	lds	r19, 0x0948	; 0x800948 <i+0x1>
    12ce:	2f 5f       	subi	r18, 0xFF	; 255
    12d0:	3f 4f       	sbci	r19, 0xFF	; 255
    12d2:	30 93 48 09 	sts	0x0948, r19	; 0x800948 <i+0x1>
    12d6:	20 93 47 09 	sts	0x0947, r18	; 0x800947 <i>
    12da:	2a 30       	cpi	r18, 0x0A	; 10
    12dc:	31 05       	cpc	r19, r1
    12de:	60 f3       	brcs	.-40     	; 0x12b8 <SD_startup+0xc>
    12e0:	4d c0       	rjmp	.+154    	; 0x137c <SD_startup+0xd0>
		if(!error) break;
	}

	if(error)
	{
		if(error == 1) Uart_Transmit_IT_PC((char*)("SD card not detected..\r"));
    12e2:	87 e5       	ldi	r24, 0x57	; 87
    12e4:	93 e0       	ldi	r25, 0x03	; 3
    12e6:	0e 94 b6 30 	call	0x616c	; 0x616c <Uart_Transmit_IT_PC>
		if(error == 2) Uart_Transmit_IT_PC((char*)("Card Initialization failed..\r"));
    12ea:	80 91 87 0f 	lds	r24, 0x0F87	; 0x800f87 <error>
    12ee:	82 30       	cpi	r24, 0x02	; 2
    12f0:	21 f4       	brne	.+8      	; 0x12fa <SD_startup+0x4e>
    12f2:	8f e6       	ldi	r24, 0x6F	; 111
    12f4:	93 e0       	ldi	r25, 0x03	; 3
    12f6:	0e 94 b6 30 	call	0x616c	; 0x616c <Uart_Transmit_IT_PC>
	nextion_change_page(FEHLERANZEIGE);
    12fa:	8f e0       	ldi	r24, 0x0F	; 15
    12fc:	0e 94 ea 20 	call	0x41d4	; 0x41d4 <nextion_change_page>
	nextion_setText("fehlertxt","Fehler festgestellt!\\rKeine SD-Karte vorhanden.\\rBitte einfgen und\\rneu starten.");
    1300:	6d e8       	ldi	r22, 0x8D	; 141
    1302:	73 e0       	ldi	r23, 0x03	; 3
    1304:	8f ed       	ldi	r24, 0xDF	; 223
    1306:	93 e0       	ldi	r25, 0x03	; 3
    1308:	0e 94 09 21 	call	0x4212	; 0x4212 <nextion_setText>
    130c:	13 c0       	rjmp	.+38     	; 0x1334 <SD_startup+0x88>
		// 		while(1);  //wait here forever if error in SD init
		}else{
		
		switch (cardType)
		{
			case 1:Uart_Transmit_IT_PC(("Standard Capacity Card (Ver 1.x) Detected!\r"));
    130e:	89 ee       	ldi	r24, 0xE9	; 233
    1310:	93 e0       	ldi	r25, 0x03	; 3
    1312:	0e 94 b6 30 	call	0x616c	; 0x616c <Uart_Transmit_IT_PC>
			break;
    1316:	0e c0       	rjmp	.+28     	; 0x1334 <SD_startup+0x88>
			case 2:Uart_Transmit_IT_PC(("High Capacity Card Detected!\r"));
    1318:	85 e1       	ldi	r24, 0x15	; 21
    131a:	94 e0       	ldi	r25, 0x04	; 4
    131c:	0e 94 b6 30 	call	0x616c	; 0x616c <Uart_Transmit_IT_PC>
			break;
    1320:	09 c0       	rjmp	.+18     	; 0x1334 <SD_startup+0x88>
			case 3:Uart_Transmit_IT_PC(("Standard Capacity Card (Ver 2.x) Detected!\r"));
    1322:	83 e3       	ldi	r24, 0x33	; 51
    1324:	94 e0       	ldi	r25, 0x04	; 4
    1326:	0e 94 b6 30 	call	0x616c	; 0x616c <Uart_Transmit_IT_PC>
			break;
    132a:	04 c0       	rjmp	.+8      	; 0x1334 <SD_startup+0x88>
			default:Uart_Transmit_IT_PC(("Unknown SD Card Detected!\r"));
    132c:	8f e5       	ldi	r24, 0x5F	; 95
    132e:	94 e0       	ldi	r25, 0x04	; 4
    1330:	0e 94 b6 30 	call	0x616c	; 0x616c <Uart_Transmit_IT_PC>
			break;
		}
	}

	SPI_HIGH_SPEED;	//SCK - 4 MHz
    1334:	80 e5       	ldi	r24, 0x50	; 80
    1336:	8c bd       	out	0x2c, r24	; 44
    1338:	8d b5       	in	r24, 0x2d	; 45
    133a:	81 60       	ori	r24, 0x01	; 1
    133c:	8d bd       	out	0x2d, r24	; 45
    133e:	8f e9       	ldi	r24, 0x9F	; 159
    1340:	9f e0       	ldi	r25, 0x0F	; 15
    1342:	01 97       	sbiw	r24, 0x01	; 1
    1344:	f1 f7       	brne	.-4      	; 0x1342 <SD_startup+0x96>
    1346:	00 c0       	rjmp	.+0      	; 0x1348 <SD_startup+0x9c>
    1348:	00 00       	nop
	_delay_ms(1);   //some delay


	FAT32_active = 1;
    134a:	81 e0       	ldi	r24, 0x01	; 1
    134c:	80 93 bf 10 	sts	0x10BF, r24	; 0x8010bf <FAT32_active>
	error = getBootSectorData (); //read boot sector and keep necessary data in global variables
    1350:	0e 94 2d 24 	call	0x485a	; 0x485a <getBootSectorData>
    1354:	80 93 87 0f 	sts	0x0F87, r24	; 0x800f87 <error>
	if(error)
    1358:	88 23       	and	r24, r24
    135a:	a1 f0       	breq	.+40     	; 0x1384 <SD_startup+0xd8>
	{
		Uart_Transmit_IT_PC (("FAT32 not found!\r\n"));  //FAT32 incompatible drive
    135c:	8a e7       	ldi	r24, 0x7A	; 122
    135e:	94 e0       	ldi	r25, 0x04	; 4
    1360:	0e 94 b6 30 	call	0x616c	; 0x616c <Uart_Transmit_IT_PC>
		FAT32_active = 0;
    1364:	10 92 bf 10 	sts	0x10BF, r1	; 0x8010bf <FAT32_active>
	}
// 	findFiles(GET_LIST,0);

}
    1368:	08 95       	ret
	nextion_change_page(FEHLERANZEIGE);
	nextion_setText("fehlertxt","Fehler festgestellt!\\rKeine SD-Karte vorhanden.\\rBitte einfgen und\\rneu starten.");
		// 		while(1);  //wait here forever if error in SD init
		}else{
		
		switch (cardType)
    136a:	80 91 86 0f 	lds	r24, 0x0F86	; 0x800f86 <cardType>
    136e:	82 30       	cpi	r24, 0x02	; 2
    1370:	99 f2       	breq	.-90     	; 0x1318 <SD_startup+0x6c>
    1372:	83 30       	cpi	r24, 0x03	; 3
    1374:	b1 f2       	breq	.-84     	; 0x1322 <SD_startup+0x76>
    1376:	81 30       	cpi	r24, 0x01	; 1
    1378:	c9 f6       	brne	.-78     	; 0x132c <SD_startup+0x80>
    137a:	c9 cf       	rjmp	.-110    	; 0x130e <SD_startup+0x62>
		if(!error) break;
	}

	if(error)
	{
		if(error == 1) Uart_Transmit_IT_PC((char*)("SD card not detected..\r"));
    137c:	81 30       	cpi	r24, 0x01	; 1
    137e:	09 f0       	breq	.+2      	; 0x1382 <SD_startup+0xd6>
    1380:	b4 cf       	rjmp	.-152    	; 0x12ea <SD_startup+0x3e>
    1382:	af cf       	rjmp	.-162    	; 0x12e2 <SD_startup+0x36>
    1384:	08 95       	ret

00001386 <erstelle_File>:
// 	findFiles(GET_LIST,0);

}

void erstelle_File(uint8_t filename, char * name, uint8_t alkohol)
{
    1386:	6f 92       	push	r6
    1388:	7f 92       	push	r7
    138a:	8f 92       	push	r8
    138c:	9f 92       	push	r9
    138e:	af 92       	push	r10
    1390:	bf 92       	push	r11
    1392:	cf 92       	push	r12
    1394:	df 92       	push	r13
    1396:	ef 92       	push	r14
    1398:	ff 92       	push	r15
    139a:	0f 93       	push	r16
    139c:	1f 93       	push	r17
    139e:	cf 93       	push	r28
    13a0:	df 93       	push	r29
    13a2:	cd b7       	in	r28, 0x3d	; 61
    13a4:	de b7       	in	r29, 0x3e	; 62
    13a6:	c9 59       	subi	r28, 0x99	; 153
    13a8:	d1 09       	sbc	r29, r1
    13aa:	0f b6       	in	r0, 0x3f	; 63
    13ac:	f8 94       	cli
    13ae:	de bf       	out	0x3e, r29	; 62
    13b0:	0f be       	out	0x3f, r0	; 63
    13b2:	cd bf       	out	0x3d, r28	; 61
    13b4:	78 2e       	mov	r7, r24
    13b6:	64 2e       	mov	r6, r20
	char buff[128] = {0};
    13b8:	8e 01       	movw	r16, r28
    13ba:	0f 5f       	subi	r16, 0xFF	; 255
    13bc:	1f 4f       	sbci	r17, 0xFF	; 255
    13be:	80 e8       	ldi	r24, 0x80	; 128
    13c0:	d8 01       	movw	r26, r16
    13c2:	1d 92       	st	X+, r1
    13c4:	8a 95       	dec	r24
    13c6:	e9 f7       	brne	.-6      	; 0x13c2 <erstelle_File+0x3c>
	char * ptr = buff;
	strcat(ptr, "Name:");
    13c8:	d8 01       	movw	r26, r16
    13ca:	0d 90       	ld	r0, X+
    13cc:	00 20       	and	r0, r0
    13ce:	e9 f7       	brne	.-6      	; 0x13ca <erstelle_File+0x44>
    13d0:	11 97       	sbiw	r26, 0x01	; 1
    13d2:	86 e0       	ldi	r24, 0x06	; 6
    13d4:	ed e8       	ldi	r30, 0x8D	; 141
    13d6:	f4 e0       	ldi	r31, 0x04	; 4
    13d8:	01 90       	ld	r0, Z+
    13da:	0d 92       	st	X+, r0
    13dc:	8a 95       	dec	r24
    13de:	e1 f7       	brne	.-8      	; 0x13d8 <erstelle_File+0x52>
	strcat(ptr, name);
    13e0:	c8 01       	movw	r24, r16
    13e2:	0e 94 42 34 	call	0x6884	; 0x6884 <strcat>

	strcat(ptr, "\rMengen:\r");
    13e6:	d8 01       	movw	r26, r16
    13e8:	0d 90       	ld	r0, X+
    13ea:	00 20       	and	r0, r0
    13ec:	e9 f7       	brne	.-6      	; 0x13e8 <erstelle_File+0x62>
    13ee:	11 97       	sbiw	r26, 0x01	; 1
    13f0:	8a e0       	ldi	r24, 0x0A	; 10
    13f2:	e3 e9       	ldi	r30, 0x93	; 147
    13f4:	f4 e0       	ldi	r31, 0x04	; 4
    13f6:	01 90       	ld	r0, Z+
    13f8:	0d 92       	st	X+, r0
    13fa:	8a 95       	dec	r24
    13fc:	e1 f7       	brne	.-8      	; 0x13f6 <erstelle_File+0x70>
	char buff2[5]  = {0};
    13fe:	fe 01       	movw	r30, r28
    1400:	ef 57       	subi	r30, 0x7F	; 127
    1402:	ff 4f       	sbci	r31, 0xFF	; 255
    1404:	85 e0       	ldi	r24, 0x05	; 5
    1406:	df 01       	movw	r26, r30
    1408:	1d 92       	st	X+, r1
    140a:	8a 95       	dec	r24
    140c:	e9 f7       	brne	.-6      	; 0x1408 <erstelle_File+0x82>
	
	aktuelleZutatInMaschine = tail_zut_in_Maschine;
    140e:	80 91 5f 0d 	lds	r24, 0x0D5F	; 0x800d5f <tail_zut_in_Maschine>
    1412:	90 91 60 0d 	lds	r25, 0x0D60	; 0x800d60 <tail_zut_in_Maschine+0x1>
    1416:	90 93 0a 08 	sts	0x080A, r25	; 0x80080a <aktuelleZutatInMaschine+0x1>
    141a:	80 93 09 08 	sts	0x0809, r24	; 0x800809 <aktuelleZutatInMaschine>
	do 
	{
		if (*(aktuellesGetraenk->mengen + aktuelleZutatInMaschine->position) > (uint8_t) 0)
		{
			strcat(ptr,aktuelleZutatInMaschine->name);
    141e:	68 01       	movw	r12, r16
			strcat(ptr, (const char *)":");
    1420:	0f 2e       	mov	r0, r31
    1422:	fa e3       	ldi	r31, 0x3A	; 58
    1424:	8f 2e       	mov	r8, r31
    1426:	91 2c       	mov	r9, r1
    1428:	f0 2d       	mov	r31, r0
			itoa(*(aktuellesGetraenk->mengen + aktuelleZutatInMaschine->position), (char *)buff2, 10);
			strcat(ptr, (const char *)buff2);
			strcat(ptr, (const char *)"\r");
    142a:	0f 2e       	mov	r0, r31
    142c:	fd e0       	ldi	r31, 0x0D	; 13
    142e:	af 2e       	mov	r10, r31
    1430:	b1 2c       	mov	r11, r1
    1432:	f0 2d       	mov	r31, r0
	char buff2[5]  = {0};
	
	aktuelleZutatInMaschine = tail_zut_in_Maschine;
	do 
	{
		if (*(aktuellesGetraenk->mengen + aktuelleZutatInMaschine->position) > (uint8_t) 0)
    1434:	e0 90 c4 10 	lds	r14, 0x10C4	; 0x8010c4 <aktuellesGetraenk>
    1438:	f0 90 c5 10 	lds	r15, 0x10C5	; 0x8010c5 <aktuellesGetraenk+0x1>
    143c:	00 91 09 08 	lds	r16, 0x0809	; 0x800809 <aktuelleZutatInMaschine>
    1440:	10 91 0a 08 	lds	r17, 0x080A	; 0x80080a <aktuelleZutatInMaschine+0x1>
    1444:	d8 01       	movw	r26, r16
    1446:	14 96       	adiw	r26, 0x04	; 4
    1448:	8c 91       	ld	r24, X
    144a:	d7 01       	movw	r26, r14
    144c:	13 96       	adiw	r26, 0x03	; 3
    144e:	ed 91       	ld	r30, X+
    1450:	fc 91       	ld	r31, X
    1452:	14 97       	sbiw	r26, 0x04	; 4
    1454:	e8 0f       	add	r30, r24
    1456:	f1 1d       	adc	r31, r1
    1458:	80 81       	ld	r24, Z
    145a:	88 23       	and	r24, r24
    145c:	61 f1       	breq	.+88     	; 0x14b6 <erstelle_File+0x130>
		{
			strcat(ptr,aktuelleZutatInMaschine->name);
    145e:	f8 01       	movw	r30, r16
    1460:	60 81       	ld	r22, Z
    1462:	71 81       	ldd	r23, Z+1	; 0x01
    1464:	c6 01       	movw	r24, r12
    1466:	0e 94 42 34 	call	0x6884	; 0x6884 <strcat>
			strcat(ptr, (const char *)":");
    146a:	f6 01       	movw	r30, r12
    146c:	01 90       	ld	r0, Z+
    146e:	00 20       	and	r0, r0
    1470:	e9 f7       	brne	.-6      	; 0x146c <erstelle_File+0xe6>
    1472:	31 97       	sbiw	r30, 0x01	; 1
    1474:	91 82       	std	Z+1, r9	; 0x01
    1476:	80 82       	st	Z, r8
			itoa(*(aktuellesGetraenk->mengen + aktuelleZutatInMaschine->position), (char *)buff2, 10);
    1478:	d8 01       	movw	r26, r16
    147a:	14 96       	adiw	r26, 0x04	; 4
    147c:	8c 91       	ld	r24, X
    147e:	d7 01       	movw	r26, r14
    1480:	13 96       	adiw	r26, 0x03	; 3
    1482:	ed 91       	ld	r30, X+
    1484:	fc 91       	ld	r31, X
    1486:	14 97       	sbiw	r26, 0x04	; 4
    1488:	e8 0f       	add	r30, r24
    148a:	f1 1d       	adc	r31, r1
    148c:	80 81       	ld	r24, Z
    148e:	4a e0       	ldi	r20, 0x0A	; 10
    1490:	be 01       	movw	r22, r28
    1492:	6f 57       	subi	r22, 0x7F	; 127
    1494:	7f 4f       	sbci	r23, 0xFF	; 255
    1496:	90 e0       	ldi	r25, 0x00	; 0
    1498:	0e 94 7b 34 	call	0x68f6	; 0x68f6 <__itoa_ncheck>
			strcat(ptr, (const char *)buff2);
    149c:	be 01       	movw	r22, r28
    149e:	6f 57       	subi	r22, 0x7F	; 127
    14a0:	7f 4f       	sbci	r23, 0xFF	; 255
    14a2:	c6 01       	movw	r24, r12
    14a4:	0e 94 42 34 	call	0x6884	; 0x6884 <strcat>
			strcat(ptr, (const char *)"\r");
    14a8:	f6 01       	movw	r30, r12
    14aa:	01 90       	ld	r0, Z+
    14ac:	00 20       	and	r0, r0
    14ae:	e9 f7       	brne	.-6      	; 0x14aa <erstelle_File+0x124>
    14b0:	31 97       	sbiw	r30, 0x01	; 1
    14b2:	b1 82       	std	Z+1, r11	; 0x01
    14b4:	a0 82       	st	Z, r10
		}
		aktuelleZutatInMaschine = aktuelleZutatInMaschine->prev;
    14b6:	e0 91 09 08 	lds	r30, 0x0809	; 0x800809 <aktuelleZutatInMaschine>
    14ba:	f0 91 0a 08 	lds	r31, 0x080A	; 0x80080a <aktuelleZutatInMaschine+0x1>
    14be:	87 81       	ldd	r24, Z+7	; 0x07
    14c0:	90 85       	ldd	r25, Z+8	; 0x08
    14c2:	90 93 0a 08 	sts	0x080A, r25	; 0x80080a <aktuelleZutatInMaschine+0x1>
    14c6:	80 93 09 08 	sts	0x0809, r24	; 0x800809 <aktuelleZutatInMaschine>
	} while (aktuelleZutatInMaschine != tail_zut_in_Maschine);
    14ca:	20 91 5f 0d 	lds	r18, 0x0D5F	; 0x800d5f <tail_zut_in_Maschine>
    14ce:	30 91 60 0d 	lds	r19, 0x0D60	; 0x800d60 <tail_zut_in_Maschine+0x1>
    14d2:	82 17       	cp	r24, r18
    14d4:	93 07       	cpc	r25, r19
    14d6:	09 f0       	breq	.+2      	; 0x14da <erstelle_File+0x154>
    14d8:	ad cf       	rjmp	.-166    	; 0x1434 <erstelle_File+0xae>
	
	strcat(ptr, ";\r");
    14da:	8e 01       	movw	r16, r28
    14dc:	0f 5f       	subi	r16, 0xFF	; 255
    14de:	1f 4f       	sbci	r17, 0xFF	; 255
    14e0:	f8 01       	movw	r30, r16
    14e2:	01 90       	ld	r0, Z+
    14e4:	00 20       	and	r0, r0
    14e6:	e9 f7       	brne	.-6      	; 0x14e2 <erstelle_File+0x15c>
    14e8:	31 97       	sbiw	r30, 0x01	; 1
    14ea:	8b e3       	ldi	r24, 0x3B	; 59
    14ec:	9d e0       	ldi	r25, 0x0D	; 13
    14ee:	91 83       	std	Z+1, r25	; 0x01
    14f0:	80 83       	st	Z, r24
    14f2:	12 82       	std	Z+2, r1	; 0x02
	strcat(ptr, "Alkohol:");
    14f4:	d8 01       	movw	r26, r16
    14f6:	0d 90       	ld	r0, X+
    14f8:	00 20       	and	r0, r0
    14fa:	e9 f7       	brne	.-6      	; 0x14f6 <erstelle_File+0x170>
    14fc:	11 97       	sbiw	r26, 0x01	; 1
    14fe:	89 e0       	ldi	r24, 0x09	; 9
    1500:	e5 ef       	ldi	r30, 0xF5	; 245
    1502:	f4 e0       	ldi	r31, 0x04	; 4
    1504:	01 90       	ld	r0, Z+
    1506:	0d 92       	st	X+, r0
    1508:	8a 95       	dec	r24
    150a:	e1 f7       	brne	.-8      	; 0x1504 <erstelle_File+0x17e>
    150c:	4a e0       	ldi	r20, 0x0A	; 10
    150e:	be 01       	movw	r22, r28
    1510:	6f 57       	subi	r22, 0x7F	; 127
    1512:	7f 4f       	sbci	r23, 0xFF	; 255
    1514:	86 2d       	mov	r24, r6
    1516:	90 e0       	ldi	r25, 0x00	; 0
    1518:	0e 94 7b 34 	call	0x68f6	; 0x68f6 <__itoa_ncheck>
	itoa(alkohol, (char *)buff2, 10);
	strcat(ptr, (char *)buff2);
    151c:	be 01       	movw	r22, r28
    151e:	6f 57       	subi	r22, 0x7F	; 127
    1520:	7f 4f       	sbci	r23, 0xFF	; 255
    1522:	c8 01       	movw	r24, r16
    1524:	0e 94 42 34 	call	0x6884	; 0x6884 <strcat>
	strcat(ptr, "\r");
    1528:	f8 01       	movw	r30, r16
    152a:	01 90       	ld	r0, Z+
    152c:	00 20       	and	r0, r0
    152e:	e9 f7       	brne	.-6      	; 0x152a <erstelle_File+0x1a4>
    1530:	31 97       	sbiw	r30, 0x01	; 1
    1532:	8d e0       	ldi	r24, 0x0D	; 13
    1534:	90 e0       	ldi	r25, 0x00	; 0
    1536:	91 83       	std	Z+1, r25	; 0x01
    1538:	80 83       	st	Z, r24

	strcat(ptr, "Bild:");
    153a:	d8 01       	movw	r26, r16
    153c:	0d 90       	ld	r0, X+
    153e:	00 20       	and	r0, r0
    1540:	e9 f7       	brne	.-6      	; 0x153c <erstelle_File+0x1b6>
    1542:	11 97       	sbiw	r26, 0x01	; 1
    1544:	86 e0       	ldi	r24, 0x06	; 6
    1546:	ed e9       	ldi	r30, 0x9D	; 157
    1548:	f4 e0       	ldi	r31, 0x04	; 4
    154a:	01 90       	ld	r0, Z+
    154c:	0d 92       	st	X+, r0
    154e:	8a 95       	dec	r24
    1550:	e1 f7       	brne	.-8      	; 0x154a <erstelle_File+0x1c4>
	if (aktuellesGetraenk->picture != 24)
    1552:	e0 91 c4 10 	lds	r30, 0x10C4	; 0x8010c4 <aktuellesGetraenk>
    1556:	f0 91 c5 10 	lds	r31, 0x10C5	; 0x8010c5 <aktuellesGetraenk+0x1>
    155a:	85 81       	ldd	r24, Z+5	; 0x05
    155c:	88 31       	cpi	r24, 0x18	; 24
    155e:	71 f0       	breq	.+28     	; 0x157c <erstelle_File+0x1f6>
    1560:	4a e0       	ldi	r20, 0x0A	; 10
    1562:	be 01       	movw	r22, r28
    1564:	6b 56       	subi	r22, 0x6B	; 107
    1566:	7f 4f       	sbci	r23, 0xFF	; 255
    1568:	90 e0       	ldi	r25, 0x00	; 0
    156a:	0e 94 7b 34 	call	0x68f6	; 0x68f6 <__itoa_ncheck>
	{
		char buff[5];
		itoa(aktuellesGetraenk->picture,(char *)buff, 10);
		strcat(ptr, (char *)buff);
    156e:	be 01       	movw	r22, r28
    1570:	6b 56       	subi	r22, 0x6B	; 107
    1572:	7f 4f       	sbci	r23, 0xFF	; 255
    1574:	c8 01       	movw	r24, r16
    1576:	0e 94 42 34 	call	0x6884	; 0x6884 <strcat>
    157a:	0b c0       	rjmp	.+22     	; 0x1592 <erstelle_File+0x20c>
	}
	else
	{
		strcat(ptr, "24");
    157c:	fe 01       	movw	r30, r28
    157e:	31 96       	adiw	r30, 0x01	; 1
    1580:	01 90       	ld	r0, Z+
    1582:	00 20       	and	r0, r0
    1584:	e9 f7       	brne	.-6      	; 0x1580 <erstelle_File+0x1fa>
    1586:	31 97       	sbiw	r30, 0x01	; 1
    1588:	82 e3       	ldi	r24, 0x32	; 50
    158a:	94 e3       	ldi	r25, 0x34	; 52
    158c:	91 83       	std	Z+1, r25	; 0x01
    158e:	80 83       	st	Z, r24
    1590:	12 82       	std	Z+2, r1	; 0x02
	}
	
	strcat(ptr, "~");
    1592:	fe 01       	movw	r30, r28
    1594:	31 96       	adiw	r30, 0x01	; 1
    1596:	7f 01       	movw	r14, r30
    1598:	01 90       	ld	r0, Z+
    159a:	00 20       	and	r0, r0
    159c:	e9 f7       	brne	.-6      	; 0x1598 <erstelle_File+0x212>
    159e:	31 97       	sbiw	r30, 0x01	; 1
    15a0:	8e e7       	ldi	r24, 0x7E	; 126
    15a2:	90 e0       	ldi	r25, 0x00	; 0
    15a4:	91 83       	std	Z+1, r25	; 0x01
    15a6:	80 83       	st	Z, r24

	char buff3[15] = {'\0'};
    15a8:	8e 01       	movw	r16, r28
    15aa:	0a 57       	subi	r16, 0x7A	; 122
    15ac:	1f 4f       	sbci	r17, 0xFF	; 255
    15ae:	8f e0       	ldi	r24, 0x0F	; 15
    15b0:	d8 01       	movw	r26, r16
    15b2:	1d 92       	st	X+, r1
    15b4:	8a 95       	dec	r24
    15b6:	e9 f7       	brne	.-6      	; 0x15b2 <erstelle_File+0x22c>
    15b8:	4a e0       	ldi	r20, 0x0A	; 10
    15ba:	b8 01       	movw	r22, r16
    15bc:	87 2d       	mov	r24, r7
    15be:	90 e0       	ldi	r25, 0x00	; 0
    15c0:	0e 94 7b 34 	call	0x68f6	; 0x68f6 <__itoa_ncheck>
	itoa(filename, (char *)buff3, 10);
	strcat((char *)buff3, (const char *)".txt");
    15c4:	d8 01       	movw	r26, r16
    15c6:	0d 90       	ld	r0, X+
    15c8:	00 20       	and	r0, r0
    15ca:	e9 f7       	brne	.-6      	; 0x15c6 <erstelle_File+0x240>
    15cc:	11 97       	sbiw	r26, 0x01	; 1
    15ce:	85 e0       	ldi	r24, 0x05	; 5
    15d0:	eb ec       	ldi	r30, 0xCB	; 203
    15d2:	f4 e0       	ldi	r31, 0x04	; 4
    15d4:	01 90       	ld	r0, Z+
    15d6:	0d 92       	st	X+, r0
    15d8:	8a 95       	dec	r24
    15da:	e1 f7       	brne	.-8      	; 0x15d4 <erstelle_File+0x24e>
	writeFile((unsigned char *)buff3,(unsigned char *)ptr);
    15dc:	b7 01       	movw	r22, r14
    15de:	c8 01       	movw	r24, r16
    15e0:	0e 94 b5 29 	call	0x536a	; 0x536a <writeFile>
}
    15e4:	c7 56       	subi	r28, 0x67	; 103
    15e6:	df 4f       	sbci	r29, 0xFF	; 255
    15e8:	0f b6       	in	r0, 0x3f	; 63
    15ea:	f8 94       	cli
    15ec:	de bf       	out	0x3e, r29	; 62
    15ee:	0f be       	out	0x3f, r0	; 63
    15f0:	cd bf       	out	0x3d, r28	; 61
    15f2:	df 91       	pop	r29
    15f4:	cf 91       	pop	r28
    15f6:	1f 91       	pop	r17
    15f8:	0f 91       	pop	r16
    15fa:	ff 90       	pop	r15
    15fc:	ef 90       	pop	r14
    15fe:	df 90       	pop	r13
    1600:	cf 90       	pop	r12
    1602:	bf 90       	pop	r11
    1604:	af 90       	pop	r10
    1606:	9f 90       	pop	r9
    1608:	8f 90       	pop	r8
    160a:	7f 90       	pop	r7
    160c:	6f 90       	pop	r6
    160e:	08 95       	ret

00001610 <loesche_FIle>:

void loesche_FIle(uint8_t filename)
{
    1610:	0f 93       	push	r16
    1612:	1f 93       	push	r17
    1614:	cf 93       	push	r28
    1616:	df 93       	push	r29
    1618:	cd b7       	in	r28, 0x3d	; 61
    161a:	de b7       	in	r29, 0x3e	; 62
    161c:	64 97       	sbiw	r28, 0x14	; 20
    161e:	0f b6       	in	r0, 0x3f	; 63
    1620:	f8 94       	cli
    1622:	de bf       	out	0x3e, r29	; 62
    1624:	0f be       	out	0x3f, r0	; 63
    1626:	cd bf       	out	0x3d, r28	; 61
	unsigned char buff[20] = {'\0'};
    1628:	8e 01       	movw	r16, r28
    162a:	0f 5f       	subi	r16, 0xFF	; 255
    162c:	1f 4f       	sbci	r17, 0xFF	; 255
    162e:	94 e1       	ldi	r25, 0x14	; 20
    1630:	f8 01       	movw	r30, r16
    1632:	11 92       	st	Z+, r1
    1634:	9a 95       	dec	r25
    1636:	e9 f7       	brne	.-6      	; 0x1632 <loesche_FIle+0x22>
    1638:	4a e0       	ldi	r20, 0x0A	; 10
    163a:	b8 01       	movw	r22, r16
    163c:	90 e0       	ldi	r25, 0x00	; 0
    163e:	0e 94 7b 34 	call	0x68f6	; 0x68f6 <__itoa_ncheck>
	itoa(filename, (char *)buff, 10);
	strcat((char *)buff,".txt");
    1642:	d8 01       	movw	r26, r16
    1644:	0d 90       	ld	r0, X+
    1646:	00 20       	and	r0, r0
    1648:	e9 f7       	brne	.-6      	; 0x1644 <loesche_FIle+0x34>
    164a:	11 97       	sbiw	r26, 0x01	; 1
    164c:	85 e0       	ldi	r24, 0x05	; 5
    164e:	eb ec       	ldi	r30, 0xCB	; 203
    1650:	f4 e0       	ldi	r31, 0x04	; 4
    1652:	01 90       	ld	r0, Z+
    1654:	0d 92       	st	X+, r0
    1656:	8a 95       	dec	r24
    1658:	e1 f7       	brne	.-8      	; 0x1652 <loesche_FIle+0x42>
	deleteFile((unsigned char *)buff);
    165a:	c8 01       	movw	r24, r16
    165c:	0e 94 a9 29 	call	0x5352	; 0x5352 <deleteFile>
	
}
    1660:	64 96       	adiw	r28, 0x14	; 20
    1662:	0f b6       	in	r0, 0x3f	; 63
    1664:	f8 94       	cli
    1666:	de bf       	out	0x3e, r29	; 62
    1668:	0f be       	out	0x3f, r0	; 63
    166a:	cd bf       	out	0x3d, r28	; 61
    166c:	df 91       	pop	r29
    166e:	cf 91       	pop	r28
    1670:	1f 91       	pop	r17
    1672:	0f 91       	pop	r16
    1674:	08 95       	ret

00001676 <lese_textfile_in_zutat>:
		_delay_ms(1);
	}
}

void lese_textfile_in_zutat(uint8_t file)
{
    1676:	ef 92       	push	r14
    1678:	ff 92       	push	r15
    167a:	0f 93       	push	r16
    167c:	1f 93       	push	r17
    167e:	cf 93       	push	r28
    1680:	df 93       	push	r29
    1682:	cd b7       	in	r28, 0x3d	; 61
    1684:	de b7       	in	r29, 0x3e	; 62
    1686:	a1 97       	sbiw	r28, 0x21	; 33
    1688:	0f b6       	in	r0, 0x3f	; 63
    168a:	f8 94       	cli
    168c:	de bf       	out	0x3e, r29	; 62
    168e:	0f be       	out	0x3f, r0	; 63
    1690:	cd bf       	out	0x3d, r28	; 61
	char buff_textfiles_zutat[21] = {'\0'};
    1692:	8e 01       	movw	r16, r28
    1694:	0f 5f       	subi	r16, 0xFF	; 255
    1696:	1f 4f       	sbci	r17, 0xFF	; 255
    1698:	95 e1       	ldi	r25, 0x15	; 21
    169a:	f8 01       	movw	r30, r16
    169c:	11 92       	st	Z+, r1
    169e:	9a 95       	dec	r25
    16a0:	e9 f7       	brne	.-6      	; 0x169c <lese_textfile_in_zutat+0x26>
	char buff2_textfiles_zutat[5] = {'\0'};
    16a2:	7e 01       	movw	r14, r28
    16a4:	f6 e1       	ldi	r31, 0x16	; 22
    16a6:	ef 0e       	add	r14, r31
    16a8:	f1 1c       	adc	r15, r1
    16aa:	95 e0       	ldi	r25, 0x05	; 5
    16ac:	f7 01       	movw	r30, r14
    16ae:	11 92       	st	Z+, r1
    16b0:	9a 95       	dec	r25
    16b2:	e9 f7       	brne	.-6      	; 0x16ae <lese_textfile_in_zutat+0x38>
	
	strcpy((char *)buff_textfiles_zutat, (const char *)"Z");
    16b4:	2a e5       	ldi	r18, 0x5A	; 90
    16b6:	30 e0       	ldi	r19, 0x00	; 0
    16b8:	3a 83       	std	Y+2, r19	; 0x02
    16ba:	29 83       	std	Y+1, r18	; 0x01
    16bc:	4a e0       	ldi	r20, 0x0A	; 10
    16be:	b7 01       	movw	r22, r14
    16c0:	90 e0       	ldi	r25, 0x00	; 0
    16c2:	0e 94 7b 34 	call	0x68f6	; 0x68f6 <__itoa_ncheck>
	itoa(file, (char *)buff2_textfiles_zutat, 10);
	strcat((char *)buff_textfiles_zutat, (const char *)buff2_textfiles_zutat);
    16c6:	b7 01       	movw	r22, r14
    16c8:	c8 01       	movw	r24, r16
    16ca:	0e 94 42 34 	call	0x6884	; 0x6884 <strcat>
	strcat((char *)buff_textfiles_zutat, (const char *)".txt");
    16ce:	d8 01       	movw	r26, r16
    16d0:	0d 90       	ld	r0, X+
    16d2:	00 20       	and	r0, r0
    16d4:	e9 f7       	brne	.-6      	; 0x16d0 <lese_textfile_in_zutat+0x5a>
    16d6:	11 97       	sbiw	r26, 0x01	; 1
    16d8:	85 e0       	ldi	r24, 0x05	; 5
    16da:	eb ec       	ldi	r30, 0xCB	; 203
    16dc:	f4 e0       	ldi	r31, 0x04	; 4
    16de:	01 90       	ld	r0, Z+
    16e0:	0d 92       	st	X+, r0
    16e2:	8a 95       	dec	r24
    16e4:	e1 f7       	brne	.-8      	; 0x16de <lese_textfile_in_zutat+0x68>
	
	readFile(READ, (unsigned char *)buff_textfiles_zutat);
    16e6:	b8 01       	movw	r22, r16
    16e8:	80 e0       	ldi	r24, 0x00	; 0
    16ea:	0e 94 db 28 	call	0x51b6	; 0x51b6 <readFile>
	
	// Trennungszeichen definieren, Pointer initialisiern f?r Abschnitte
	char delimiter[] = ":,{}\r\n";
    16ee:	87 e0       	ldi	r24, 0x07	; 7
    16f0:	e0 ef       	ldi	r30, 0xF0	; 240
    16f2:	f2 e0       	ldi	r31, 0x02	; 2
    16f4:	de 01       	movw	r26, r28
    16f6:	5b 96       	adiw	r26, 0x1b	; 27
    16f8:	01 90       	ld	r0, Z+
    16fa:	0d 92       	st	X+, r0
    16fc:	8a 95       	dec	r24
    16fe:	e1 f7       	brne	.-8      	; 0x16f8 <lese_textfile_in_zutat+0x82>
	char *ptr;
	
	// initialisieren und ersten Abschnitt erstellen (1. Kopf)
	ptr = strtok((char *)buffer, delimiter);
    1700:	be 01       	movw	r22, r28
    1702:	65 5e       	subi	r22, 0xE5	; 229
    1704:	7f 4f       	sbci	r23, 0xFF	; 255
    1706:	8e e4       	ldi	r24, 0x4E	; 78
    1708:	9a e0       	ldi	r25, 0x0A	; 10
    170a:	0e 94 38 34 	call	0x6870	; 0x6870 <strtok>
    170e:	8c 01       	movw	r16, r24
	*******************************************************************
	Name:Getraenk1
	Alkohol:1/0
*/	

	while(ptr != NULL) 
    1710:	89 2b       	or	r24, r25
    1712:	b1 f1       	breq	.+108    	; 0x1780 <lese_textfile_in_zutat+0x10a>
	{
		// Kopf pruefen und jeweilige Aktion ausfuehren
		if (pruefe_kopf(ptr, "Name"))
    1714:	67 ed       	ldi	r22, 0xD7	; 215
    1716:	72 e0       	ldi	r23, 0x02	; 2
    1718:	c8 01       	movw	r24, r16
    171a:	df da       	rcall	.-2626   	; 0xcda <pruefe_kopf>
    171c:	88 23       	and	r24, r24
    171e:	89 f0       	breq	.+34     	; 0x1742 <lese_textfile_in_zutat+0xcc>
		{
			ptr = strtok(NULL, delimiter);
    1720:	be 01       	movw	r22, r28
    1722:	65 5e       	subi	r22, 0xE5	; 229
    1724:	7f 4f       	sbci	r23, 0xFF	; 255
    1726:	80 e0       	ldi	r24, 0x00	; 0
    1728:	90 e0       	ldi	r25, 0x00	; 0
    172a:	0e 94 38 34 	call	0x6870	; 0x6870 <strtok>
    172e:	8c 01       	movw	r16, r24
			strcpy((char *)aktuelle_zutat->name,(const char *)ptr);
    1730:	e0 91 13 08 	lds	r30, 0x0813	; 0x800813 <aktuelle_zutat>
    1734:	f0 91 14 08 	lds	r31, 0x0814	; 0x800814 <aktuelle_zutat+0x1>
    1738:	bc 01       	movw	r22, r24
    173a:	80 81       	ld	r24, Z
    173c:	91 81       	ldd	r25, Z+1	; 0x01
    173e:	0e 94 4d 34 	call	0x689a	; 0x689a <strcpy>
		}
		if (pruefe_kopf(ptr, "Alkohol"))
    1742:	63 ee       	ldi	r22, 0xE3	; 227
    1744:	72 e0       	ldi	r23, 0x02	; 2
    1746:	c8 01       	movw	r24, r16
    1748:	c8 da       	rcall	.-2672   	; 0xcda <pruefe_kopf>
    174a:	88 23       	and	r24, r24
    174c:	79 f0       	breq	.+30     	; 0x176c <lese_textfile_in_zutat+0xf6>
		{
			ptr = strtok(NULL, delimiter);
    174e:	be 01       	movw	r22, r28
    1750:	65 5e       	subi	r22, 0xE5	; 229
    1752:	7f 4f       	sbci	r23, 0xFF	; 255
    1754:	80 e0       	ldi	r24, 0x00	; 0
    1756:	90 e0       	ldi	r25, 0x00	; 0
    1758:	0e 94 38 34 	call	0x6870	; 0x6870 <strtok>
			aktuelle_zutat->alkohol = atoi(ptr);
    175c:	00 91 13 08 	lds	r16, 0x0813	; 0x800813 <aktuelle_zutat>
    1760:	10 91 14 08 	lds	r17, 0x0814	; 0x800814 <aktuelle_zutat+0x1>
    1764:	0e 94 1b 34 	call	0x6836	; 0x6836 <atoi>
    1768:	f8 01       	movw	r30, r16
    176a:	82 83       	std	Z+2, r24	; 0x02
		}
			
		// Neuer Kopf suchen und ptr darauf zeigen lassen
		ptr = strtok(NULL, delimiter);
    176c:	be 01       	movw	r22, r28
    176e:	65 5e       	subi	r22, 0xE5	; 229
    1770:	7f 4f       	sbci	r23, 0xFF	; 255
    1772:	80 e0       	ldi	r24, 0x00	; 0
    1774:	90 e0       	ldi	r25, 0x00	; 0
    1776:	0e 94 38 34 	call	0x6870	; 0x6870 <strtok>
    177a:	8c 01       	movw	r16, r24
	*******************************************************************
	Name:Getraenk1
	Alkohol:1/0
*/	

	while(ptr != NULL) 
    177c:	89 2b       	or	r24, r25
    177e:	51 f6       	brne	.-108    	; 0x1714 <lese_textfile_in_zutat+0x9e>
		}
			
		// Neuer Kopf suchen und ptr darauf zeigen lassen
		ptr = strtok(NULL, delimiter);
	}
}
    1780:	a1 96       	adiw	r28, 0x21	; 33
    1782:	0f b6       	in	r0, 0x3f	; 63
    1784:	f8 94       	cli
    1786:	de bf       	out	0x3e, r29	; 62
    1788:	0f be       	out	0x3f, r0	; 63
    178a:	cd bf       	out	0x3d, r28	; 61
    178c:	df 91       	pop	r29
    178e:	cf 91       	pop	r28
    1790:	1f 91       	pop	r17
    1792:	0f 91       	pop	r16
    1794:	ff 90       	pop	r15
    1796:	ef 90       	pop	r14
    1798:	08 95       	ret

0000179a <erstelle_Liste_Zutat_Pos>:
	deleteFile((unsigned char *)buff);
	
}

void erstelle_Liste_Zutat_Pos(char * name_button)
{
    179a:	bf 92       	push	r11
    179c:	cf 92       	push	r12
    179e:	df 92       	push	r13
    17a0:	ef 92       	push	r14
    17a2:	ff 92       	push	r15
    17a4:	0f 93       	push	r16
    17a6:	1f 93       	push	r17
    17a8:	cf 93       	push	r28
    17aa:	df 93       	push	r29
    17ac:	cd b7       	in	r28, 0x3d	; 61
    17ae:	de b7       	in	r29, 0x3e	; 62
    17b0:	c9 56       	subi	r28, 0x69	; 105
    17b2:	d1 09       	sbc	r29, r1
    17b4:	0f b6       	in	r0, 0x3f	; 63
    17b6:	f8 94       	cli
    17b8:	de bf       	out	0x3e, r29	; 62
    17ba:	0f be       	out	0x3f, r0	; 63
    17bc:	cd bf       	out	0x3d, r28	; 61
    17be:	7c 01       	movw	r14, r24
	nextion_change_page(FLUESSANZEIGE1);
    17c0:	84 e1       	ldi	r24, 0x14	; 20
    17c2:	0e 94 ea 20 	call	0x41d4	; 0x41d4 <nextion_change_page>

	// Getrnkedurchwahr bei Tail starten.
	aktuelles_zutat_file = tail_zutat_file;
    17c6:	e0 91 15 08 	lds	r30, 0x0815	; 0x800815 <tail_zutat_file>
    17ca:	f0 91 16 08 	lds	r31, 0x0816	; 0x800816 <tail_zutat_file+0x1>
    17ce:	f0 93 7c 0d 	sts	0x0D7C, r31	; 0x800d7c <aktuelles_zutat_file+0x1>
    17d2:	e0 93 7b 0d 	sts	0x0D7B, r30	; 0x800d7b <aktuelles_zutat_file>

	// Shifte aktuelles Getrnk auf bestimmte Seite
	// (1. Seite: i_Liste = 0; 2. Seite: i_Liste = 8; ...)
	for (int i = 0 ; i < i_Liste ; i++)
    17d6:	20 91 8a 10 	lds	r18, 0x108A	; 0x80108a <i_Liste>
    17da:	30 e0       	ldi	r19, 0x00	; 0
    17dc:	12 16       	cp	r1, r18
    17de:	13 06       	cpc	r1, r19
    17e0:	6c f4       	brge	.+26     	; 0x17fc <erstelle_Liste_Zutat_Pos+0x62>
    17e2:	80 e0       	ldi	r24, 0x00	; 0
    17e4:	90 e0       	ldi	r25, 0x00	; 0
	{
		aktuelles_zutat_file = aktuelles_zutat_file->prev;
    17e6:	03 80       	ldd	r0, Z+3	; 0x03
    17e8:	f4 81       	ldd	r31, Z+4	; 0x04
    17ea:	e0 2d       	mov	r30, r0
	// Getrnkedurchwahr bei Tail starten.
	aktuelles_zutat_file = tail_zutat_file;

	// Shifte aktuelles Getrnk auf bestimmte Seite
	// (1. Seite: i_Liste = 0; 2. Seite: i_Liste = 8; ...)
	for (int i = 0 ; i < i_Liste ; i++)
    17ec:	01 96       	adiw	r24, 0x01	; 1
    17ee:	82 17       	cp	r24, r18
    17f0:	93 07       	cpc	r25, r19
    17f2:	c9 f7       	brne	.-14     	; 0x17e6 <erstelle_Liste_Zutat_Pos+0x4c>
    17f4:	f0 93 7c 0d 	sts	0x0D7C, r31	; 0x800d7c <aktuelles_zutat_file+0x1>
    17f8:	e0 93 7b 0d 	sts	0x0D7B, r30	; 0x800d7b <aktuelles_zutat_file>
		aktuelles_zutat_file = aktuelles_zutat_file->prev;
	}
	
	// Fr alle Buttons auf der Seite ...
	// Initialisierungen
	char button[50] = {'\0'};
    17fc:	82 e3       	ldi	r24, 0x32	; 50
    17fe:	fe 01       	movw	r30, r28
    1800:	31 96       	adiw	r30, 0x01	; 1
    1802:	df 01       	movw	r26, r30
    1804:	98 2f       	mov	r25, r24
    1806:	1d 92       	st	X+, r1
    1808:	9a 95       	dec	r25
    180a:	e9 f7       	brne	.-6      	; 0x1806 <erstelle_Liste_Zutat_Pos+0x6c>
	char buff[5] = {0};
    180c:	f2 96       	adiw	r30, 0x32	; 50
    180e:	95 e0       	ldi	r25, 0x05	; 5
    1810:	df 01       	movw	r26, r30
    1812:	1d 92       	st	X+, r1
    1814:	9a 95       	dec	r25
    1816:	e9 f7       	brne	.-6      	; 0x1812 <erstelle_Liste_Zutat_Pos+0x78>
	char buff10[50] = {'\0'};
    1818:	35 96       	adiw	r30, 0x05	; 5
    181a:	df 01       	movw	r26, r30
    181c:	1d 92       	st	X+, r1
    181e:	8a 95       	dec	r24
    1820:	e9 f7       	brne	.-6      	; 0x181c <erstelle_Liste_Zutat_Pos+0x82>

	for (int i = 0 ; i < 6 ; i++)
    1822:	00 e0       	ldi	r16, 0x00	; 0
    1824:	10 e0       	ldi	r17, 0x00	; 0
		
		// Falls das untere Ende der Liste erreicht wurde und liste noch nicht blockiert ist,
		// runterscrollen, blockieren und letzter Name einschreiben.
		if (aktuelles_zutat_file == head_zutat_file && !block_list_runter)
		{
			block_list_runter = 1;
    1826:	bb 24       	eor	r11, r11
    1828:	b3 94       	inc	r11
			block_list_hoch = 1;
		}
		
		if (compare_string((char *)aktuelleZutatInMaschine->name, (char *)aktuelle_zutat->name)==0)
		{
			strcpy((char *)buff10, (const char *)button);
    182a:	6f 01       	movw	r12, r30
	char buff10[50] = {'\0'};

	for (int i = 0 ; i < 6 ; i++)
	{
		// Schreibe Zahl und Name des Buttons in String
		itoa((i + 1),buff,10);
    182c:	0f 5f       	subi	r16, 0xFF	; 255
    182e:	1f 4f       	sbci	r17, 0xFF	; 255
    1830:	4a e0       	ldi	r20, 0x0A	; 10
    1832:	be 01       	movw	r22, r28
    1834:	6d 5c       	subi	r22, 0xCD	; 205
    1836:	7f 4f       	sbci	r23, 0xFF	; 255
    1838:	c8 01       	movw	r24, r16
    183a:	0e 94 7b 34 	call	0x68f6	; 0x68f6 <__itoa_ncheck>
		strcpy((char *)button, (const char *)name_button);
    183e:	b7 01       	movw	r22, r14
    1840:	ce 01       	movw	r24, r28
    1842:	01 96       	adiw	r24, 0x01	; 1
    1844:	0e 94 4d 34 	call	0x689a	; 0x689a <strcpy>
		strcat((char *)button, (const char *)buff);
    1848:	be 01       	movw	r22, r28
    184a:	6d 5c       	subi	r22, 0xCD	; 205
    184c:	7f 4f       	sbci	r23, 0xFF	; 255
    184e:	ce 01       	movw	r24, r28
    1850:	01 96       	adiw	r24, 0x01	; 1
    1852:	0e 94 42 34 	call	0x6884	; 0x6884 <strcat>
		
		// Falls das untere Ende der Liste erreicht wurde und liste noch nicht blockiert ist,
		// runterscrollen, blockieren und letzter Name einschreiben.
		if (aktuelles_zutat_file == head_zutat_file && !block_list_runter)
    1856:	e0 91 7b 0d 	lds	r30, 0x0D7B	; 0x800d7b <aktuelles_zutat_file>
    185a:	f0 91 7c 0d 	lds	r31, 0x0D7C	; 0x800d7c <aktuelles_zutat_file+0x1>
    185e:	80 91 ff 06 	lds	r24, 0x06FF	; 0x8006ff <head_zutat_file>
    1862:	90 91 00 07 	lds	r25, 0x0700	; 0x800700 <head_zutat_file+0x1>
    1866:	e8 17       	cp	r30, r24
    1868:	f9 07       	cpc	r31, r25
    186a:	99 f4       	brne	.+38     	; 0x1892 <erstelle_Liste_Zutat_Pos+0xf8>
    186c:	80 91 3f 08 	lds	r24, 0x083F	; 0x80083f <block_list_runter>
    1870:	81 11       	cpse	r24, r1
    1872:	13 c0       	rjmp	.+38     	; 0x189a <erstelle_Liste_Zutat_Pos+0x100>
		{
			block_list_runter = 1;
    1874:	b0 92 3f 08 	sts	0x083F, r11	; 0x80083f <block_list_runter>
			lese_textfile_in_zutat(aktuelles_zutat_file->file);
    1878:	80 81       	ld	r24, Z
    187a:	fd de       	rcall	.-518    	; 0x1676 <lese_textfile_in_zutat>
			nextion_setText(button,aktuelle_zutat->name);
    187c:	e0 91 13 08 	lds	r30, 0x0813	; 0x800813 <aktuelle_zutat>
    1880:	f0 91 14 08 	lds	r31, 0x0814	; 0x800814 <aktuelle_zutat+0x1>
    1884:	60 81       	ld	r22, Z
    1886:	71 81       	ldd	r23, Z+1	; 0x01
    1888:	ce 01       	movw	r24, r28
    188a:	01 96       	adiw	r24, 0x01	; 1
    188c:	0e 94 09 21 	call	0x4212	; 0x4212 <nextion_setText>
    1890:	21 c0       	rjmp	.+66     	; 0x18d4 <erstelle_Liste_Zutat_Pos+0x13a>
		}
		
		// Falls die Liste blockiert ist, Leeren String in das Feld schreiben und
		// die Buttons disablen
		else if (block_list_runter)
    1892:	80 91 3f 08 	lds	r24, 0x083F	; 0x80083f <block_list_runter>
    1896:	88 23       	and	r24, r24
    1898:	89 f0       	breq	.+34     	; 0x18bc <erstelle_Liste_Zutat_Pos+0x122>
		{
			// leerer String
			nextion_setText(button,"");
    189a:	6e e8       	ldi	r22, 0x8E	; 142
    189c:	75 e0       	ldi	r23, 0x05	; 5
    189e:	ce 01       	movw	r24, r28
    18a0:	01 96       	adiw	r24, 0x01	; 1
    18a2:	0e 94 09 21 	call	0x4212	; 0x4212 <nextion_setText>
    18a6:	8f e3       	ldi	r24, 0x3F	; 63
    18a8:	9c e9       	ldi	r25, 0x9C	; 156
    18aa:	01 97       	sbiw	r24, 0x01	; 1
    18ac:	f1 f7       	brne	.-4      	; 0x18aa <erstelle_Liste_Zutat_Pos+0x110>
    18ae:	00 c0       	rjmp	.+0      	; 0x18b0 <erstelle_Liste_Zutat_Pos+0x116>
    18b0:	00 00       	nop
			
			// Sicherheitsdelay, Programm strzt sonst ab
			_delay_ms(10);
			
			// Disable Button
			nextion_disableButton(button);
    18b2:	ce 01       	movw	r24, r28
    18b4:	01 96       	adiw	r24, 0x01	; 1
    18b6:	0e 94 a2 21 	call	0x4344	; 0x4344 <nextion_disableButton>
    18ba:	0c c0       	rjmp	.+24     	; 0x18d4 <erstelle_Liste_Zutat_Pos+0x13a>
		}
		
		//Falls Eintrag dazwischen, Name einschreiben (Normalbetrieb)
		else
		{
			lese_textfile_in_zutat(aktuelles_zutat_file->file);
    18bc:	80 81       	ld	r24, Z
    18be:	db de       	rcall	.-586    	; 0x1676 <lese_textfile_in_zutat>
			nextion_setText(button,aktuelle_zutat->name);
    18c0:	e0 91 13 08 	lds	r30, 0x0813	; 0x800813 <aktuelle_zutat>
    18c4:	f0 91 14 08 	lds	r31, 0x0814	; 0x800814 <aktuelle_zutat+0x1>
    18c8:	60 81       	ld	r22, Z
    18ca:	71 81       	ldd	r23, Z+1	; 0x01
    18cc:	ce 01       	movw	r24, r28
    18ce:	01 96       	adiw	r24, 0x01	; 1
    18d0:	0e 94 09 21 	call	0x4212	; 0x4212 <nextion_setText>
		
		// Falls das obere Ende der Liste erreicht wird, und das untere noch nicht erreicht wurde
		// (da aktuelles Getraenk auf Tail getraenk springt und sozusagen "berluft" und so beide
		// Richtungen blockiert werden, sobald das untere Ende erreicht wird), hochscrollen blockieren
		
		if(aktuelles_zutat_file == tail_zutat_file && !block_list_runter)
    18d4:	20 91 7b 0d 	lds	r18, 0x0D7B	; 0x800d7b <aktuelles_zutat_file>
    18d8:	30 91 7c 0d 	lds	r19, 0x0D7C	; 0x800d7c <aktuelles_zutat_file+0x1>
    18dc:	80 91 15 08 	lds	r24, 0x0815	; 0x800815 <tail_zutat_file>
    18e0:	90 91 16 08 	lds	r25, 0x0816	; 0x800816 <tail_zutat_file+0x1>
    18e4:	28 17       	cp	r18, r24
    18e6:	39 07       	cpc	r19, r25
    18e8:	31 f4       	brne	.+12     	; 0x18f6 <erstelle_Liste_Zutat_Pos+0x15c>
    18ea:	80 91 3f 08 	lds	r24, 0x083F	; 0x80083f <block_list_runter>
    18ee:	81 11       	cpse	r24, r1
    18f0:	02 c0       	rjmp	.+4      	; 0x18f6 <erstelle_Liste_Zutat_Pos+0x15c>
		{
			block_list_hoch = 1;
    18f2:	b0 92 53 0c 	sts	0x0C53, r11	; 0x800c53 <block_list_hoch>
		}
		
		if (compare_string((char *)aktuelleZutatInMaschine->name, (char *)aktuelle_zutat->name)==0)
    18f6:	e0 91 13 08 	lds	r30, 0x0813	; 0x800813 <aktuelle_zutat>
    18fa:	f0 91 14 08 	lds	r31, 0x0814	; 0x800814 <aktuelle_zutat+0x1>
    18fe:	60 81       	ld	r22, Z
    1900:	71 81       	ldd	r23, Z+1	; 0x01
    1902:	e0 91 09 08 	lds	r30, 0x0809	; 0x800809 <aktuelleZutatInMaschine>
    1906:	f0 91 0a 08 	lds	r31, 0x080A	; 0x80080a <aktuelleZutatInMaschine+0x1>
    190a:	80 81       	ld	r24, Z
    190c:	91 81       	ldd	r25, Z+1	; 0x01
    190e:	c5 d9       	rcall	.-3190   	; 0xc9a <compare_string>
    1910:	81 11       	cpse	r24, r1
    1912:	17 c0       	rjmp	.+46     	; 0x1942 <erstelle_Liste_Zutat_Pos+0x1a8>
		{
			strcpy((char *)buff10, (const char *)button);
    1914:	be 01       	movw	r22, r28
    1916:	6f 5f       	subi	r22, 0xFF	; 255
    1918:	7f 4f       	sbci	r23, 0xFF	; 255
    191a:	c6 01       	movw	r24, r12
    191c:	0e 94 4d 34 	call	0x689a	; 0x689a <strcpy>
			strcat((char *)buff10, (const char *)".pco=2016");
    1920:	d6 01       	movw	r26, r12
    1922:	0d 90       	ld	r0, X+
    1924:	00 20       	and	r0, r0
    1926:	e9 f7       	brne	.-6      	; 0x1922 <erstelle_Liste_Zutat_Pos+0x188>
    1928:	11 97       	sbiw	r26, 0x01	; 1
    192a:	8a e0       	ldi	r24, 0x0A	; 10
    192c:	e3 ea       	ldi	r30, 0xA3	; 163
    192e:	f4 e0       	ldi	r31, 0x04	; 4
    1930:	01 90       	ld	r0, Z+
    1932:	0d 92       	st	X+, r0
    1934:	8a 95       	dec	r24
    1936:	e1 f7       	brne	.-8      	; 0x1930 <erstelle_Liste_Zutat_Pos+0x196>
			Uart_Transmit_IT_Display((char *)buff10);
    1938:	c6 01       	movw	r24, r12
    193a:	0e 94 c9 30 	call	0x6192	; 0x6192 <Uart_Transmit_IT_Display>
			endConversation();
    193e:	0e 94 d4 20 	call	0x41a8	; 0x41a8 <endConversation>
		}	
		
		// Ein Getraenk weiter Scrollen.
		aktuelles_zutat_file = aktuelles_zutat_file->prev;
    1942:	e0 91 7b 0d 	lds	r30, 0x0D7B	; 0x800d7b <aktuelles_zutat_file>
    1946:	f0 91 7c 0d 	lds	r31, 0x0D7C	; 0x800d7c <aktuelles_zutat_file+0x1>
    194a:	83 81       	ldd	r24, Z+3	; 0x03
    194c:	94 81       	ldd	r25, Z+4	; 0x04
    194e:	90 93 7c 0d 	sts	0x0D7C, r25	; 0x800d7c <aktuelles_zutat_file+0x1>
    1952:	80 93 7b 0d 	sts	0x0D7B, r24	; 0x800d7b <aktuelles_zutat_file>
    1956:	af e9       	ldi	r26, 0x9F	; 159
    1958:	bf e0       	ldi	r27, 0x0F	; 15
    195a:	11 97       	sbiw	r26, 0x01	; 1
    195c:	f1 f7       	brne	.-4      	; 0x195a <erstelle_Liste_Zutat_Pos+0x1c0>
    195e:	00 c0       	rjmp	.+0      	; 0x1960 <erstelle_Liste_Zutat_Pos+0x1c6>
    1960:	00 00       	nop
	// Initialisierungen
	char button[50] = {'\0'};
	char buff[5] = {0};
	char buff10[50] = {'\0'};

	for (int i = 0 ; i < 6 ; i++)
    1962:	06 30       	cpi	r16, 0x06	; 6
    1964:	11 05       	cpc	r17, r1
    1966:	09 f0       	breq	.+2      	; 0x196a <erstelle_Liste_Zutat_Pos+0x1d0>
    1968:	61 cf       	rjmp	.-318    	; 0x182c <erstelle_Liste_Zutat_Pos+0x92>
		aktuelles_zutat_file = aktuelles_zutat_file->prev;
		
		// Sicherheitsdelay, Programm strzt sonst ab
		_delay_ms(1);
	}
}
    196a:	c7 59       	subi	r28, 0x97	; 151
    196c:	df 4f       	sbci	r29, 0xFF	; 255
    196e:	0f b6       	in	r0, 0x3f	; 63
    1970:	f8 94       	cli
    1972:	de bf       	out	0x3e, r29	; 62
    1974:	0f be       	out	0x3f, r0	; 63
    1976:	cd bf       	out	0x3d, r28	; 61
    1978:	df 91       	pop	r29
    197a:	cf 91       	pop	r28
    197c:	1f 91       	pop	r17
    197e:	0f 91       	pop	r16
    1980:	ff 90       	pop	r15
    1982:	ef 90       	pop	r14
    1984:	df 90       	pop	r13
    1986:	cf 90       	pop	r12
    1988:	bf 90       	pop	r11
    198a:	08 95       	ret

0000198c <setze_Posanzeige_Rot_Gruen>:
		ptr = strtok(NULL, delimiter);
	}
}

void setze_Posanzeige_Rot_Gruen(void)
{
    198c:	cf 92       	push	r12
    198e:	df 92       	push	r13
    1990:	ef 92       	push	r14
    1992:	ff 92       	push	r15
    1994:	0f 93       	push	r16
    1996:	1f 93       	push	r17
    1998:	cf 93       	push	r28
    199a:	df 93       	push	r29
    199c:	cd b7       	in	r28, 0x3d	; 61
    199e:	de b7       	in	r29, 0x3e	; 62
    19a0:	ec 97       	sbiw	r28, 0x3c	; 60
    19a2:	0f b6       	in	r0, 0x3f	; 63
    19a4:	f8 94       	cli
    19a6:	de bf       	out	0x3e, r29	; 62
    19a8:	0f be       	out	0x3f, r0	; 63
    19aa:	cd bf       	out	0x3d, r28	; 61
	aktuelleZutatInMaschine = tail_zut_in_Maschine;
    19ac:	80 91 5f 0d 	lds	r24, 0x0D5F	; 0x800d5f <tail_zut_in_Maschine>
    19b0:	90 91 60 0d 	lds	r25, 0x0D60	; 0x800d60 <tail_zut_in_Maschine+0x1>
    19b4:	90 93 0a 08 	sts	0x080A, r25	; 0x80080a <aktuelleZutatInMaschine+0x1>
    19b8:	80 93 09 08 	sts	0x0809, r24	; 0x800809 <aktuelleZutatInMaschine>
	char buff[50];
	char buff2[10];
	for (int i = 0 ; i <12 ; i++)
    19bc:	00 e0       	ldi	r16, 0x00	; 0
    19be:	10 e0       	ldi	r17, 0x00	; 0
	{
		strcpy((char *)buff, "b");
    19c0:	0f 2e       	mov	r0, r31
    19c2:	f2 e6       	ldi	r31, 0x62	; 98
    19c4:	cf 2e       	mov	r12, r31
    19c6:	d1 2c       	mov	r13, r1
    19c8:	f0 2d       	mov	r31, r0
		itoa(i,(char *) buff2, 10);
		strcat((char *)buff, (const char *)buff2);
    19ca:	ce 01       	movw	r24, r28
    19cc:	01 96       	adiw	r24, 0x01	; 1
    19ce:	7c 01       	movw	r14, r24
	aktuelleZutatInMaschine = tail_zut_in_Maschine;
	char buff[50];
	char buff2[10];
	for (int i = 0 ; i <12 ; i++)
	{
		strcpy((char *)buff, "b");
    19d0:	da 82       	std	Y+2, r13	; 0x02
    19d2:	c9 82       	std	Y+1, r12	; 0x01
    19d4:	4a e0       	ldi	r20, 0x0A	; 10
    19d6:	be 01       	movw	r22, r28
    19d8:	6d 5c       	subi	r22, 0xCD	; 205
    19da:	7f 4f       	sbci	r23, 0xFF	; 255
    19dc:	c8 01       	movw	r24, r16
    19de:	0e 94 7b 34 	call	0x68f6	; 0x68f6 <__itoa_ncheck>
		itoa(i,(char *) buff2, 10);
		strcat((char *)buff, (const char *)buff2);
    19e2:	be 01       	movw	r22, r28
    19e4:	6d 5c       	subi	r22, 0xCD	; 205
    19e6:	7f 4f       	sbci	r23, 0xFF	; 255
    19e8:	c7 01       	movw	r24, r14
    19ea:	0e 94 42 34 	call	0x6884	; 0x6884 <strcat>
		switch (aktuelleZutatInMaschine->status)
    19ee:	e0 91 09 08 	lds	r30, 0x0809	; 0x800809 <aktuelleZutatInMaschine>
    19f2:	f0 91 0a 08 	lds	r31, 0x080A	; 0x80080a <aktuelleZutatInMaschine+0x1>
    19f6:	82 81       	ldd	r24, Z+2	; 0x02
    19f8:	81 30       	cpi	r24, 0x01	; 1
    19fa:	89 f0       	breq	.+34     	; 0x1a1e <setze_Posanzeige_Rot_Gruen+0x92>
    19fc:	18 f0       	brcs	.+6      	; 0x1a04 <setze_Posanzeige_Rot_Gruen+0x78>
    19fe:	82 30       	cpi	r24, 0x02	; 2
    1a00:	d9 f0       	breq	.+54     	; 0x1a38 <setze_Posanzeige_Rot_Gruen+0xac>
    1a02:	26 c0       	rjmp	.+76     	; 0x1a50 <setze_Posanzeige_Rot_Gruen+0xc4>
		{
			case 0:
			strcat((char *)buff, ".pco=0");
    1a04:	d7 01       	movw	r26, r14
    1a06:	0d 90       	ld	r0, X+
    1a08:	00 20       	and	r0, r0
    1a0a:	e9 f7       	brne	.-6      	; 0x1a06 <setze_Posanzeige_Rot_Gruen+0x7a>
    1a0c:	11 97       	sbiw	r26, 0x01	; 1
    1a0e:	87 e0       	ldi	r24, 0x07	; 7
    1a10:	ed ea       	ldi	r30, 0xAD	; 173
    1a12:	f4 e0       	ldi	r31, 0x04	; 4
    1a14:	01 90       	ld	r0, Z+
    1a16:	0d 92       	st	X+, r0
    1a18:	8a 95       	dec	r24
    1a1a:	e1 f7       	brne	.-8      	; 0x1a14 <setze_Posanzeige_Rot_Gruen+0x88>
			break;
    1a1c:	19 c0       	rjmp	.+50     	; 0x1a50 <setze_Posanzeige_Rot_Gruen+0xc4>
			case 1:
			strcat((char *)buff, ".pco=2016");
    1a1e:	d7 01       	movw	r26, r14
    1a20:	0d 90       	ld	r0, X+
    1a22:	00 20       	and	r0, r0
    1a24:	e9 f7       	brne	.-6      	; 0x1a20 <setze_Posanzeige_Rot_Gruen+0x94>
    1a26:	11 97       	sbiw	r26, 0x01	; 1
    1a28:	8a e0       	ldi	r24, 0x0A	; 10
    1a2a:	e3 ea       	ldi	r30, 0xA3	; 163
    1a2c:	f4 e0       	ldi	r31, 0x04	; 4
    1a2e:	01 90       	ld	r0, Z+
    1a30:	0d 92       	st	X+, r0
    1a32:	8a 95       	dec	r24
    1a34:	e1 f7       	brne	.-8      	; 0x1a2e <setze_Posanzeige_Rot_Gruen+0xa2>
			break;
    1a36:	0c c0       	rjmp	.+24     	; 0x1a50 <setze_Posanzeige_Rot_Gruen+0xc4>
			case 2:
			strcat((char *)buff, ".pco=63488");
    1a38:	d7 01       	movw	r26, r14
    1a3a:	0d 90       	ld	r0, X+
    1a3c:	00 20       	and	r0, r0
    1a3e:	e9 f7       	brne	.-6      	; 0x1a3a <setze_Posanzeige_Rot_Gruen+0xae>
    1a40:	11 97       	sbiw	r26, 0x01	; 1
    1a42:	8b e0       	ldi	r24, 0x0B	; 11
    1a44:	e4 eb       	ldi	r30, 0xB4	; 180
    1a46:	f4 e0       	ldi	r31, 0x04	; 4
    1a48:	01 90       	ld	r0, Z+
    1a4a:	0d 92       	st	X+, r0
    1a4c:	8a 95       	dec	r24
    1a4e:	e1 f7       	brne	.-8      	; 0x1a48 <setze_Posanzeige_Rot_Gruen+0xbc>
			break;
		}
		Uart_Transmit_IT_Display((char *)buff);
    1a50:	c7 01       	movw	r24, r14
    1a52:	0e 94 c9 30 	call	0x6192	; 0x6192 <Uart_Transmit_IT_Display>
		endConversation();
    1a56:	0e 94 d4 20 	call	0x41a8	; 0x41a8 <endConversation>
		aktuelleZutatInMaschine = aktuelleZutatInMaschine->prev;
    1a5a:	e0 91 09 08 	lds	r30, 0x0809	; 0x800809 <aktuelleZutatInMaschine>
    1a5e:	f0 91 0a 08 	lds	r31, 0x080A	; 0x80080a <aktuelleZutatInMaschine+0x1>
    1a62:	87 81       	ldd	r24, Z+7	; 0x07
    1a64:	90 85       	ldd	r25, Z+8	; 0x08
    1a66:	90 93 0a 08 	sts	0x080A, r25	; 0x80080a <aktuelleZutatInMaschine+0x1>
    1a6a:	80 93 09 08 	sts	0x0809, r24	; 0x800809 <aktuelleZutatInMaschine>
void setze_Posanzeige_Rot_Gruen(void)
{
	aktuelleZutatInMaschine = tail_zut_in_Maschine;
	char buff[50];
	char buff2[10];
	for (int i = 0 ; i <12 ; i++)
    1a6e:	0f 5f       	subi	r16, 0xFF	; 255
    1a70:	1f 4f       	sbci	r17, 0xFF	; 255
    1a72:	0c 30       	cpi	r16, 0x0C	; 12
    1a74:	11 05       	cpc	r17, r1
    1a76:	09 f0       	breq	.+2      	; 0x1a7a <setze_Posanzeige_Rot_Gruen+0xee>
    1a78:	ab cf       	rjmp	.-170    	; 0x19d0 <setze_Posanzeige_Rot_Gruen+0x44>
		}
		Uart_Transmit_IT_Display((char *)buff);
		endConversation();
		aktuelleZutatInMaschine = aktuelleZutatInMaschine->prev;
	}
}
    1a7a:	ec 96       	adiw	r28, 0x3c	; 60
    1a7c:	0f b6       	in	r0, 0x3f	; 63
    1a7e:	f8 94       	cli
    1a80:	de bf       	out	0x3e, r29	; 62
    1a82:	0f be       	out	0x3f, r0	; 63
    1a84:	cd bf       	out	0x3d, r28	; 61
    1a86:	df 91       	pop	r29
    1a88:	cf 91       	pop	r28
    1a8a:	1f 91       	pop	r17
    1a8c:	0f 91       	pop	r16
    1a8e:	ff 90       	pop	r15
    1a90:	ef 90       	pop	r14
    1a92:	df 90       	pop	r13
    1a94:	cf 90       	pop	r12
    1a96:	08 95       	ret

00001a98 <setze_aktuelle_Zutat_in_Maschine_prev>:

void setze_aktuelle_Zutat_in_Maschine_prev(uint8_t nr)
{
	aktuelleZutatInMaschine = tail_zut_in_Maschine;
    1a98:	e0 91 5f 0d 	lds	r30, 0x0D5F	; 0x800d5f <tail_zut_in_Maschine>
    1a9c:	f0 91 60 0d 	lds	r31, 0x0D60	; 0x800d60 <tail_zut_in_Maschine+0x1>
    1aa0:	f0 93 0a 08 	sts	0x080A, r31	; 0x80080a <aktuelleZutatInMaschine+0x1>
    1aa4:	e0 93 09 08 	sts	0x0809, r30	; 0x800809 <aktuelleZutatInMaschine>
	for (int i = 0 ; i < nr; i++)
    1aa8:	90 e0       	ldi	r25, 0x00	; 0
    1aaa:	18 16       	cp	r1, r24
    1aac:	19 06       	cpc	r1, r25
    1aae:	74 f4       	brge	.+28     	; 0x1acc <setze_aktuelle_Zutat_in_Maschine_prev+0x34>
    1ab0:	20 e0       	ldi	r18, 0x00	; 0
    1ab2:	30 e0       	ldi	r19, 0x00	; 0
	{
		aktuelleZutatInMaschine = aktuelleZutatInMaschine->prev;
    1ab4:	07 80       	ldd	r0, Z+7	; 0x07
    1ab6:	f0 85       	ldd	r31, Z+8	; 0x08
    1ab8:	e0 2d       	mov	r30, r0
}

void setze_aktuelle_Zutat_in_Maschine_prev(uint8_t nr)
{
	aktuelleZutatInMaschine = tail_zut_in_Maschine;
	for (int i = 0 ; i < nr; i++)
    1aba:	2f 5f       	subi	r18, 0xFF	; 255
    1abc:	3f 4f       	sbci	r19, 0xFF	; 255
    1abe:	28 17       	cp	r18, r24
    1ac0:	39 07       	cpc	r19, r25
    1ac2:	c1 f7       	brne	.-16     	; 0x1ab4 <setze_aktuelle_Zutat_in_Maschine_prev+0x1c>
    1ac4:	f0 93 0a 08 	sts	0x080A, r31	; 0x80080a <aktuelleZutatInMaschine+0x1>
    1ac8:	e0 93 09 08 	sts	0x0809, r30	; 0x800809 <aktuelleZutatInMaschine>
    1acc:	08 95       	ret

00001ace <setze_Fluessgkeit_in_Position>:
		aktuelleZutatInMaschine = aktuelleZutatInMaschine->prev;
	}
}

void setze_Fluessgkeit_in_Position(uint8_t nr, uint8_t status)
{
    1ace:	8f 92       	push	r8
    1ad0:	9f 92       	push	r9
    1ad2:	af 92       	push	r10
    1ad4:	bf 92       	push	r11
    1ad6:	cf 92       	push	r12
    1ad8:	df 92       	push	r13
    1ada:	ef 92       	push	r14
    1adc:	ff 92       	push	r15
    1ade:	0f 93       	push	r16
    1ae0:	1f 93       	push	r17
    1ae2:	cf 93       	push	r28
    1ae4:	df 93       	push	r29
    1ae6:	cd b7       	in	r28, 0x3d	; 61
    1ae8:	de b7       	in	r29, 0x3e	; 62
    1aea:	c9 56       	subi	r28, 0x69	; 105
    1aec:	d2 40       	sbci	r29, 0x02	; 2
    1aee:	0f b6       	in	r0, 0x3f	; 63
    1af0:	f8 94       	cli
    1af2:	de bf       	out	0x3e, r29	; 62
    1af4:	0f be       	out	0x3f, r0	; 63
    1af6:	cd bf       	out	0x3d, r28	; 61
    1af8:	16 2f       	mov	r17, r22
	// Falls nr ausserhalb des Listenbereichs ==> Keine Flssigkeit
	if (nr > 5)
    1afa:	86 30       	cpi	r24, 0x06	; 6
    1afc:	90 f1       	brcs	.+100    	; 0x1b62 <setze_Fluessgkeit_in_Position+0x94>
	{
		// Schreibe Null-Terminator ber bestehenden Namen
		char * leer = "(keine)";
		char len1 = strlen((const char *)aktuelleZutatInMaschine->name);
    1afe:	e0 91 09 08 	lds	r30, 0x0809	; 0x800809 <aktuelleZutatInMaschine>
    1b02:	f0 91 0a 08 	lds	r31, 0x080A	; 0x80080a <aktuelleZutatInMaschine+0x1>
    1b06:	a0 81       	ld	r26, Z
    1b08:	b1 81       	ldd	r27, Z+1	; 0x01
    1b0a:	fd 01       	movw	r30, r26
    1b0c:	01 90       	ld	r0, Z+
    1b0e:	00 20       	and	r0, r0
    1b10:	e9 f7       	brne	.-6      	; 0x1b0c <setze_Fluessgkeit_in_Position+0x3e>
    1b12:	31 97       	sbiw	r30, 0x01	; 1
    1b14:	9f 01       	movw	r18, r30
    1b16:	2a 1b       	sub	r18, r26
    1b18:	3b 0b       	sbc	r19, r27
		char len2 = strlen((const char *)leer);
		for (int count = 0 ; count < (len1 + 1) ; count++)
    1b1a:	33 27       	eor	r19, r19
    1b1c:	2f 5f       	subi	r18, 0xFF	; 255
    1b1e:	3f 4f       	sbci	r19, 0xFF	; 255
    1b20:	80 e0       	ldi	r24, 0x00	; 0
    1b22:	90 e0       	ldi	r25, 0x00	; 0
		{
			*(aktuelleZutatInMaschine->name + count) = '\0';
    1b24:	e0 91 09 08 	lds	r30, 0x0809	; 0x800809 <aktuelleZutatInMaschine>
    1b28:	f0 91 0a 08 	lds	r31, 0x080A	; 0x80080a <aktuelleZutatInMaschine+0x1>
    1b2c:	01 90       	ld	r0, Z+
    1b2e:	f0 81       	ld	r31, Z
    1b30:	e0 2d       	mov	r30, r0
    1b32:	e8 0f       	add	r30, r24
    1b34:	f9 1f       	adc	r31, r25
    1b36:	10 82       	st	Z, r1
	{
		// Schreibe Null-Terminator ber bestehenden Namen
		char * leer = "(keine)";
		char len1 = strlen((const char *)aktuelleZutatInMaschine->name);
		char len2 = strlen((const char *)leer);
		for (int count = 0 ; count < (len1 + 1) ; count++)
    1b38:	01 96       	adiw	r24, 0x01	; 1
    1b3a:	82 17       	cp	r24, r18
    1b3c:	93 07       	cpc	r25, r19
    1b3e:	94 f3       	brlt	.-28     	; 0x1b24 <setze_Fluessgkeit_in_Position+0x56>
    1b40:	6f c1       	rjmp	.+734    	; 0x1e20 <setze_Fluessgkeit_in_Position+0x352>
		{
			*(aktuelleZutatInMaschine->name + count) = '\0';
		}
		for (int count = 0 ; count < (len2 + 1) ; count++)
		{
			*(aktuelleZutatInMaschine->name + count) = *(leer + count);
    1b42:	2d 91       	ld	r18, X+
    1b44:	e0 91 09 08 	lds	r30, 0x0809	; 0x800809 <aktuelleZutatInMaschine>
    1b48:	f0 91 0a 08 	lds	r31, 0x080A	; 0x80080a <aktuelleZutatInMaschine+0x1>
    1b4c:	01 90       	ld	r0, Z+
    1b4e:	f0 81       	ld	r31, Z
    1b50:	e0 2d       	mov	r30, r0
    1b52:	e8 0f       	add	r30, r24
    1b54:	f9 1f       	adc	r31, r25
    1b56:	20 83       	st	Z, r18
		char len2 = strlen((const char *)leer);
		for (int count = 0 ; count < (len1 + 1) ; count++)
		{
			*(aktuelleZutatInMaschine->name + count) = '\0';
		}
		for (int count = 0 ; count < (len2 + 1) ; count++)
    1b58:	01 96       	adiw	r24, 0x01	; 1
    1b5a:	88 30       	cpi	r24, 0x08	; 8
    1b5c:	91 05       	cpc	r25, r1
    1b5e:	89 f7       	brne	.-30     	; 0x1b42 <setze_Fluessgkeit_in_Position+0x74>
    1b60:	4f c0       	rjmp	.+158    	; 0x1c00 <setze_Fluessgkeit_in_Position+0x132>
	// Falls innerhalb des Listenbereichs ==> Flssigkeit aus File laden
	else
	{
		
	// Whle Zutaten-File, auf welches gedrckt wurde und lese es ein.
	aktuelles_zutat_file = tail_zutat_file;
    1b62:	e0 91 15 08 	lds	r30, 0x0815	; 0x800815 <tail_zutat_file>
    1b66:	f0 91 16 08 	lds	r31, 0x0816	; 0x800816 <tail_zutat_file+0x1>
    1b6a:	f0 93 7c 0d 	sts	0x0D7C, r31	; 0x800d7c <aktuelles_zutat_file+0x1>
    1b6e:	e0 93 7b 0d 	sts	0x0D7B, r30	; 0x800d7b <aktuelles_zutat_file>
	for (int i = 0 ; i < (i_Liste + nr) ; i++)
    1b72:	20 91 8a 10 	lds	r18, 0x108A	; 0x80108a <i_Liste>
    1b76:	90 e0       	ldi	r25, 0x00	; 0
    1b78:	82 0f       	add	r24, r18
    1b7a:	91 1d       	adc	r25, r1
    1b7c:	18 16       	cp	r1, r24
    1b7e:	19 06       	cpc	r1, r25
    1b80:	74 f4       	brge	.+28     	; 0x1b9e <setze_Fluessgkeit_in_Position+0xd0>
    1b82:	20 e0       	ldi	r18, 0x00	; 0
    1b84:	30 e0       	ldi	r19, 0x00	; 0
	{
		aktuelles_zutat_file = aktuelles_zutat_file->prev;
    1b86:	03 80       	ldd	r0, Z+3	; 0x03
    1b88:	f4 81       	ldd	r31, Z+4	; 0x04
    1b8a:	e0 2d       	mov	r30, r0
	else
	{
		
	// Whle Zutaten-File, auf welches gedrckt wurde und lese es ein.
	aktuelles_zutat_file = tail_zutat_file;
	for (int i = 0 ; i < (i_Liste + nr) ; i++)
    1b8c:	2f 5f       	subi	r18, 0xFF	; 255
    1b8e:	3f 4f       	sbci	r19, 0xFF	; 255
    1b90:	28 17       	cp	r18, r24
    1b92:	39 07       	cpc	r19, r25
    1b94:	c1 f7       	brne	.-16     	; 0x1b86 <setze_Fluessgkeit_in_Position+0xb8>
    1b96:	f0 93 7c 0d 	sts	0x0D7C, r31	; 0x800d7c <aktuelles_zutat_file+0x1>
    1b9a:	e0 93 7b 0d 	sts	0x0D7B, r30	; 0x800d7b <aktuelles_zutat_file>
	{
		aktuelles_zutat_file = aktuelles_zutat_file->prev;
	}
	lese_textfile_in_zutat(aktuelles_zutat_file->file);
    1b9e:	e0 91 7b 0d 	lds	r30, 0x0D7B	; 0x800d7b <aktuelles_zutat_file>
    1ba2:	f0 91 7c 0d 	lds	r31, 0x0D7C	; 0x800d7c <aktuelles_zutat_file+0x1>
    1ba6:	80 81       	ld	r24, Z
    1ba8:	66 dd       	rcall	.-1332   	; 0x1676 <lese_textfile_in_zutat>
	
	// Schreibe Name der gefundenen Zutat in die ausgewhlte Position.
	char len = strlen((const char *)aktuelle_zutat->name);
    1baa:	e0 91 13 08 	lds	r30, 0x0813	; 0x800813 <aktuelle_zutat>
    1bae:	f0 91 14 08 	lds	r31, 0x0814	; 0x800814 <aktuelle_zutat+0x1>
    1bb2:	a0 81       	ld	r26, Z
    1bb4:	b1 81       	ldd	r27, Z+1	; 0x01
    1bb6:	fd 01       	movw	r30, r26
    1bb8:	01 90       	ld	r0, Z+
    1bba:	00 20       	and	r0, r0
    1bbc:	e9 f7       	brne	.-6      	; 0x1bb8 <setze_Fluessgkeit_in_Position+0xea>
    1bbe:	31 97       	sbiw	r30, 0x01	; 1
    1bc0:	af 01       	movw	r20, r30
    1bc2:	4a 1b       	sub	r20, r26
    1bc4:	5b 0b       	sbc	r21, r27
	for (int count = 0 ; count < (len + 1) ; count++)
    1bc6:	55 27       	eor	r21, r21
    1bc8:	4f 5f       	subi	r20, 0xFF	; 255
    1bca:	5f 4f       	sbci	r21, 0xFF	; 255
    1bcc:	80 e0       	ldi	r24, 0x00	; 0
    1bce:	90 e0       	ldi	r25, 0x00	; 0
	{
		*(aktuelleZutatInMaschine->name + count) = *(aktuelle_zutat->name + count);
    1bd0:	e0 91 13 08 	lds	r30, 0x0813	; 0x800813 <aktuelle_zutat>
    1bd4:	f0 91 14 08 	lds	r31, 0x0814	; 0x800814 <aktuelle_zutat+0x1>
    1bd8:	01 90       	ld	r0, Z+
    1bda:	f0 81       	ld	r31, Z
    1bdc:	e0 2d       	mov	r30, r0
    1bde:	e8 0f       	add	r30, r24
    1be0:	f9 1f       	adc	r31, r25
    1be2:	20 81       	ld	r18, Z
    1be4:	e0 91 09 08 	lds	r30, 0x0809	; 0x800809 <aktuelleZutatInMaschine>
    1be8:	f0 91 0a 08 	lds	r31, 0x080A	; 0x80080a <aktuelleZutatInMaschine+0x1>
    1bec:	01 90       	ld	r0, Z+
    1bee:	f0 81       	ld	r31, Z
    1bf0:	e0 2d       	mov	r30, r0
    1bf2:	e8 0f       	add	r30, r24
    1bf4:	f9 1f       	adc	r31, r25
    1bf6:	20 83       	st	Z, r18
	}
	lese_textfile_in_zutat(aktuelles_zutat_file->file);
	
	// Schreibe Name der gefundenen Zutat in die ausgewhlte Position.
	char len = strlen((const char *)aktuelle_zutat->name);
	for (int count = 0 ; count < (len + 1) ; count++)
    1bf8:	01 96       	adiw	r24, 0x01	; 1
    1bfa:	84 17       	cp	r24, r20
    1bfc:	95 07       	cpc	r25, r21
    1bfe:	44 f3       	brlt	.-48     	; 0x1bd0 <setze_Fluessgkeit_in_Position+0x102>
		*(aktuelleZutatInMaschine->name + count) = *(aktuelle_zutat->name + count);
	}
	}
	
	// Definiere den Status des Getrnks
	aktuelleZutatInMaschine->status = status;
    1c00:	e0 91 09 08 	lds	r30, 0x0809	; 0x800809 <aktuelleZutatInMaschine>
    1c04:	f0 91 0a 08 	lds	r31, 0x080A	; 0x80080a <aktuelleZutatInMaschine+0x1>
    1c08:	12 83       	std	Z+2, r17	; 0x02
	
	// Zurck zur Positionsanzeige
	nextion_change_page(POSANZEIGE);
    1c0a:	83 e1       	ldi	r24, 0x13	; 19
    1c0c:	0e 94 ea 20 	call	0x41d4	; 0x41d4 <nextion_change_page>
	
	// Schreibe nderung in Titel der Positionsanzeige
	char buff[50] = {'\0'};
    1c10:	8e 01       	movw	r16, r28
    1c12:	0f 5f       	subi	r16, 0xFF	; 255
    1c14:	1f 4f       	sbci	r17, 0xFF	; 255
    1c16:	82 e3       	ldi	r24, 0x32	; 50
    1c18:	d8 01       	movw	r26, r16
    1c1a:	1d 92       	st	X+, r1
    1c1c:	8a 95       	dec	r24
    1c1e:	e9 f7       	brne	.-6      	; 0x1c1a <setze_Fluessgkeit_in_Position+0x14c>
	char buff2[5] = {'\0'};
    1c20:	7e 01       	movw	r14, r28
    1c22:	b3 e3       	ldi	r27, 0x33	; 51
    1c24:	eb 0e       	add	r14, r27
    1c26:	f1 1c       	adc	r15, r1
    1c28:	85 e0       	ldi	r24, 0x05	; 5
    1c2a:	f7 01       	movw	r30, r14
    1c2c:	11 92       	st	Z+, r1
    1c2e:	8a 95       	dec	r24
    1c30:	e9 f7       	brne	.-6      	; 0x1c2c <setze_Fluessgkeit_in_Position+0x15e>
	strcpy((char *)buff, "Nr.");
    1c32:	8e e4       	ldi	r24, 0x4E	; 78
    1c34:	92 e7       	ldi	r25, 0x72	; 114
    1c36:	9a 83       	std	Y+2, r25	; 0x02
    1c38:	89 83       	std	Y+1, r24	; 0x01
    1c3a:	8e e2       	ldi	r24, 0x2E	; 46
    1c3c:	90 e0       	ldi	r25, 0x00	; 0
    1c3e:	9c 83       	std	Y+4, r25	; 0x04
    1c40:	8b 83       	std	Y+3, r24	; 0x03
	itoa(aktuelleZutatInMaschine->position+1, buff2, 10);
    1c42:	e0 91 09 08 	lds	r30, 0x0809	; 0x800809 <aktuelleZutatInMaschine>
    1c46:	f0 91 0a 08 	lds	r31, 0x080A	; 0x80080a <aktuelleZutatInMaschine+0x1>
    1c4a:	84 81       	ldd	r24, Z+4	; 0x04
    1c4c:	90 e0       	ldi	r25, 0x00	; 0
    1c4e:	4a e0       	ldi	r20, 0x0A	; 10
    1c50:	b7 01       	movw	r22, r14
    1c52:	01 96       	adiw	r24, 0x01	; 1
    1c54:	0e 94 7b 34 	call	0x68f6	; 0x68f6 <__itoa_ncheck>
	strcat((char *)buff, (const char *)buff2);
    1c58:	b7 01       	movw	r22, r14
    1c5a:	c8 01       	movw	r24, r16
    1c5c:	0e 94 42 34 	call	0x6884	; 0x6884 <strcat>
	strcat((char *)buff, " = ");
    1c60:	f8 01       	movw	r30, r16
    1c62:	01 90       	ld	r0, Z+
    1c64:	00 20       	and	r0, r0
    1c66:	e9 f7       	brne	.-6      	; 0x1c62 <setze_Fluessgkeit_in_Position+0x194>
    1c68:	31 97       	sbiw	r30, 0x01	; 1
    1c6a:	80 e2       	ldi	r24, 0x20	; 32
    1c6c:	9d e3       	ldi	r25, 0x3D	; 61
    1c6e:	91 83       	std	Z+1, r25	; 0x01
    1c70:	80 83       	st	Z, r24
    1c72:	80 e2       	ldi	r24, 0x20	; 32
    1c74:	90 e0       	ldi	r25, 0x00	; 0
    1c76:	93 83       	std	Z+3, r25	; 0x03
    1c78:	82 83       	std	Z+2, r24	; 0x02
	strcat((char *)buff, aktuelleZutatInMaschine->name);
    1c7a:	e0 91 09 08 	lds	r30, 0x0809	; 0x800809 <aktuelleZutatInMaschine>
    1c7e:	f0 91 0a 08 	lds	r31, 0x080A	; 0x80080a <aktuelleZutatInMaschine+0x1>
    1c82:	60 81       	ld	r22, Z
    1c84:	71 81       	ldd	r23, Z+1	; 0x01
    1c86:	c8 01       	movw	r24, r16
    1c88:	0e 94 42 34 	call	0x6884	; 0x6884 <strcat>
	nextion_setText("zubabfrage",buff);
    1c8c:	b8 01       	movw	r22, r16
    1c8e:	8f eb       	ldi	r24, 0xBF	; 191
    1c90:	94 e0       	ldi	r25, 0x04	; 4
    1c92:	0e 94 09 21 	call	0x4212	; 0x4212 <nextion_setText>
	setze_Posanzeige_Rot_Gruen();
    1c96:	7a de       	rcall	.-780    	; 0x198c <setze_Posanzeige_Rot_Gruen>
	block_list_hoch = 0;
    1c98:	10 92 53 0c 	sts	0x0C53, r1	; 0x800c53 <block_list_hoch>
	block_list_runter = 0;
    1c9c:	10 92 3f 08 	sts	0x083F, r1	; 0x80083f <block_list_runter>
	i_Liste = 0;
    1ca0:	10 92 8a 10 	sts	0x108A, r1	; 0x80108a <i_Liste>

	char buff98[20] = {'\0'};
    1ca4:	ce 01       	movw	r24, r28
    1ca6:	c8 96       	adiw	r24, 0x38	; 56
    1ca8:	24 e1       	ldi	r18, 0x14	; 20
    1caa:	dc 01       	movw	r26, r24
    1cac:	1d 92       	st	X+, r1
    1cae:	2a 95       	dec	r18
    1cb0:	e9 f7       	brne	.-6      	; 0x1cac <setze_Fluessgkeit_in_Position+0x1de>
	strcpy((char *)buff98, (const char *)"M.txt");
    1cb2:	26 e0       	ldi	r18, 0x06	; 6
    1cb4:	ea ec       	ldi	r30, 0xCA	; 202
    1cb6:	f4 e0       	ldi	r31, 0x04	; 4
    1cb8:	dc 01       	movw	r26, r24
    1cba:	01 90       	ld	r0, Z+
    1cbc:	0d 92       	st	X+, r0
    1cbe:	2a 95       	dec	r18
    1cc0:	e1 f7       	brne	.-8      	; 0x1cba <setze_Fluessgkeit_in_Position+0x1ec>
	deleteFile((unsigned char *)buff98);
    1cc2:	0e 94 a9 29 	call	0x5352	; 0x5352 <deleteFile>

	char buff_file[512] = {'\0'};
    1cc6:	fe 01       	movw	r30, r28
    1cc8:	e4 5b       	subi	r30, 0xB4	; 180
    1cca:	ff 4f       	sbci	r31, 0xFF	; 255
    1ccc:	80 e0       	ldi	r24, 0x00	; 0
    1cce:	92 e0       	ldi	r25, 0x02	; 2
    1cd0:	df 01       	movw	r26, r30
    1cd2:	9c 01       	movw	r18, r24
    1cd4:	1d 92       	st	X+, r1
    1cd6:	21 50       	subi	r18, 0x01	; 1
    1cd8:	30 40       	sbci	r19, 0x00	; 0
    1cda:	e1 f7       	brne	.-8      	; 0x1cd4 <setze_Fluessgkeit_in_Position+0x206>
	char buff99[10];

	aktuelleZutatInMaschine = tail_zut_in_Maschine;
    1cdc:	80 91 5f 0d 	lds	r24, 0x0D5F	; 0x800d5f <tail_zut_in_Maschine>
    1ce0:	90 91 60 0d 	lds	r25, 0x0D60	; 0x800d60 <tail_zut_in_Maschine+0x1>
    1ce4:	90 93 0a 08 	sts	0x080A, r25	; 0x80080a <aktuelleZutatInMaschine+0x1>
    1ce8:	80 93 09 08 	sts	0x0809, r24	; 0x800809 <aktuelleZutatInMaschine>

	for (int count = 0 ; count < 12 ; count++)
    1cec:	e1 2c       	mov	r14, r1
    1cee:	f1 2c       	mov	r15, r1
		{
			strcat((char *)buff_file, (const char *)aktuelleZutatInMaschine->name);
		}
		else
		{
			strcpy((char *)buff_file, (const char *)aktuelleZutatInMaschine->name);
    1cf0:	8f 01       	movw	r16, r30
		}
	strcat((char *)buff_file, (const char *)",");
    1cf2:	0f 2e       	mov	r0, r31
    1cf4:	fc e2       	ldi	r31, 0x2C	; 44
    1cf6:	cf 2e       	mov	r12, r31
    1cf8:	d1 2c       	mov	r13, r1
    1cfa:	f0 2d       	mov	r31, r0
	{
		strcat((char *)buff_file, (const char *)"\r");
	}
	else
	{
		strcat(buff_file, "~");
    1cfc:	0f 2e       	mov	r0, r31
    1cfe:	fe e7       	ldi	r31, 0x7E	; 126
    1d00:	8f 2e       	mov	r8, r31
    1d02:	91 2c       	mov	r9, r1
    1d04:	f0 2d       	mov	r31, r0
	strcat((char *)buff_file, (const char *)",");
	itoa(aktuelleZutatInMaschine->alkohol, (char *)buff99, 10);
	strcat((char *)buff_file, (const char *)buff99);
	if (aktuelleZutatInMaschine != head_zut_in_Maschine)
	{
		strcat((char *)buff_file, (const char *)"\r");
    1d06:	0f 2e       	mov	r0, r31
    1d08:	fd e0       	ldi	r31, 0x0D	; 13
    1d0a:	af 2e       	mov	r10, r31
    1d0c:	b1 2c       	mov	r11, r1
    1d0e:	f0 2d       	mov	r31, r0

	aktuelleZutatInMaschine = tail_zut_in_Maschine;

	for (int count = 0 ; count < 12 ; count++)
	{
		if (count != 0)
    1d10:	e1 14       	cp	r14, r1
    1d12:	f1 04       	cpc	r15, r1
    1d14:	51 f0       	breq	.+20     	; 0x1d2a <setze_Fluessgkeit_in_Position+0x25c>
		{
			strcat((char *)buff_file, (const char *)aktuelleZutatInMaschine->name);
    1d16:	e0 91 09 08 	lds	r30, 0x0809	; 0x800809 <aktuelleZutatInMaschine>
    1d1a:	f0 91 0a 08 	lds	r31, 0x080A	; 0x80080a <aktuelleZutatInMaschine+0x1>
    1d1e:	60 81       	ld	r22, Z
    1d20:	71 81       	ldd	r23, Z+1	; 0x01
    1d22:	c8 01       	movw	r24, r16
    1d24:	0e 94 42 34 	call	0x6884	; 0x6884 <strcat>
    1d28:	09 c0       	rjmp	.+18     	; 0x1d3c <setze_Fluessgkeit_in_Position+0x26e>
		}
		else
		{
			strcpy((char *)buff_file, (const char *)aktuelleZutatInMaschine->name);
    1d2a:	e0 91 09 08 	lds	r30, 0x0809	; 0x800809 <aktuelleZutatInMaschine>
    1d2e:	f0 91 0a 08 	lds	r31, 0x080A	; 0x80080a <aktuelleZutatInMaschine+0x1>
    1d32:	60 81       	ld	r22, Z
    1d34:	71 81       	ldd	r23, Z+1	; 0x01
    1d36:	c8 01       	movw	r24, r16
    1d38:	0e 94 4d 34 	call	0x689a	; 0x689a <strcpy>
		}
	strcat((char *)buff_file, (const char *)",");
    1d3c:	f8 01       	movw	r30, r16
    1d3e:	01 90       	ld	r0, Z+
    1d40:	00 20       	and	r0, r0
    1d42:	e9 f7       	brne	.-6      	; 0x1d3e <setze_Fluessgkeit_in_Position+0x270>
    1d44:	31 97       	sbiw	r30, 0x01	; 1
    1d46:	d1 82       	std	Z+1, r13	; 0x01
    1d48:	c0 82       	st	Z, r12
	itoa(aktuelleZutatInMaschine->status, (char *)buff99, 10);
    1d4a:	e0 91 09 08 	lds	r30, 0x0809	; 0x800809 <aktuelleZutatInMaschine>
    1d4e:	f0 91 0a 08 	lds	r31, 0x080A	; 0x80080a <aktuelleZutatInMaschine+0x1>
    1d52:	82 81       	ldd	r24, Z+2	; 0x02
    1d54:	4a e0       	ldi	r20, 0x0A	; 10
    1d56:	be 01       	movw	r22, r28
    1d58:	64 5b       	subi	r22, 0xB4	; 180
    1d5a:	7d 4f       	sbci	r23, 0xFD	; 253
    1d5c:	90 e0       	ldi	r25, 0x00	; 0
    1d5e:	0e 94 7b 34 	call	0x68f6	; 0x68f6 <__itoa_ncheck>
	strcat((char *)buff_file, (const char *)buff99);
    1d62:	be 01       	movw	r22, r28
    1d64:	64 5b       	subi	r22, 0xB4	; 180
    1d66:	7d 4f       	sbci	r23, 0xFD	; 253
    1d68:	c8 01       	movw	r24, r16
    1d6a:	0e 94 42 34 	call	0x6884	; 0x6884 <strcat>
	strcat((char *)buff_file, (const char *)",");
    1d6e:	f8 01       	movw	r30, r16
    1d70:	01 90       	ld	r0, Z+
    1d72:	00 20       	and	r0, r0
    1d74:	e9 f7       	brne	.-6      	; 0x1d70 <setze_Fluessgkeit_in_Position+0x2a2>
    1d76:	31 97       	sbiw	r30, 0x01	; 1
    1d78:	d1 82       	std	Z+1, r13	; 0x01
    1d7a:	c0 82       	st	Z, r12
	itoa(aktuelleZutatInMaschine->alkohol, (char *)buff99, 10);
    1d7c:	e0 91 09 08 	lds	r30, 0x0809	; 0x800809 <aktuelleZutatInMaschine>
    1d80:	f0 91 0a 08 	lds	r31, 0x080A	; 0x80080a <aktuelleZutatInMaschine+0x1>
    1d84:	83 81       	ldd	r24, Z+3	; 0x03
    1d86:	4a e0       	ldi	r20, 0x0A	; 10
    1d88:	be 01       	movw	r22, r28
    1d8a:	64 5b       	subi	r22, 0xB4	; 180
    1d8c:	7d 4f       	sbci	r23, 0xFD	; 253
    1d8e:	90 e0       	ldi	r25, 0x00	; 0
    1d90:	0e 94 7b 34 	call	0x68f6	; 0x68f6 <__itoa_ncheck>
	strcat((char *)buff_file, (const char *)buff99);
    1d94:	be 01       	movw	r22, r28
    1d96:	64 5b       	subi	r22, 0xB4	; 180
    1d98:	7d 4f       	sbci	r23, 0xFD	; 253
    1d9a:	c8 01       	movw	r24, r16
    1d9c:	0e 94 42 34 	call	0x6884	; 0x6884 <strcat>
	if (aktuelleZutatInMaschine != head_zut_in_Maschine)
    1da0:	a0 91 09 08 	lds	r26, 0x0809	; 0x800809 <aktuelleZutatInMaschine>
    1da4:	b0 91 0a 08 	lds	r27, 0x080A	; 0x80080a <aktuelleZutatInMaschine+0x1>
    1da8:	80 91 04 08 	lds	r24, 0x0804	; 0x800804 <head_zut_in_Maschine>
    1dac:	90 91 05 08 	lds	r25, 0x0805	; 0x800805 <head_zut_in_Maschine+0x1>
    1db0:	a8 17       	cp	r26, r24
    1db2:	b9 07       	cpc	r27, r25
    1db4:	41 f0       	breq	.+16     	; 0x1dc6 <setze_Fluessgkeit_in_Position+0x2f8>
	{
		strcat((char *)buff_file, (const char *)"\r");
    1db6:	f8 01       	movw	r30, r16
    1db8:	01 90       	ld	r0, Z+
    1dba:	00 20       	and	r0, r0
    1dbc:	e9 f7       	brne	.-6      	; 0x1db8 <setze_Fluessgkeit_in_Position+0x2ea>
    1dbe:	31 97       	sbiw	r30, 0x01	; 1
    1dc0:	b1 82       	std	Z+1, r11	; 0x01
    1dc2:	a0 82       	st	Z, r10
    1dc4:	07 c0       	rjmp	.+14     	; 0x1dd4 <setze_Fluessgkeit_in_Position+0x306>
	}
	else
	{
		strcat(buff_file, "~");
    1dc6:	f8 01       	movw	r30, r16
    1dc8:	01 90       	ld	r0, Z+
    1dca:	00 20       	and	r0, r0
    1dcc:	e9 f7       	brne	.-6      	; 0x1dc8 <setze_Fluessgkeit_in_Position+0x2fa>
    1dce:	31 97       	sbiw	r30, 0x01	; 1
    1dd0:	91 82       	std	Z+1, r9	; 0x01
    1dd2:	80 82       	st	Z, r8
	}
	aktuelleZutatInMaschine = aktuelleZutatInMaschine->prev;
    1dd4:	17 96       	adiw	r26, 0x07	; 7
    1dd6:	8d 91       	ld	r24, X+
    1dd8:	9c 91       	ld	r25, X
    1dda:	18 97       	sbiw	r26, 0x08	; 8
    1ddc:	90 93 0a 08 	sts	0x080A, r25	; 0x80080a <aktuelleZutatInMaschine+0x1>
    1de0:	80 93 09 08 	sts	0x0809, r24	; 0x800809 <aktuelleZutatInMaschine>
	char buff_file[512] = {'\0'};
	char buff99[10];

	aktuelleZutatInMaschine = tail_zut_in_Maschine;

	for (int count = 0 ; count < 12 ; count++)
    1de4:	3f ef       	ldi	r19, 0xFF	; 255
    1de6:	e3 1a       	sub	r14, r19
    1de8:	f3 0a       	sbc	r15, r19
    1dea:	8c e0       	ldi	r24, 0x0C	; 12
    1dec:	e8 16       	cp	r14, r24
    1dee:	f1 04       	cpc	r15, r1
    1df0:	09 f0       	breq	.+2      	; 0x1df4 <setze_Fluessgkeit_in_Position+0x326>
    1df2:	8e cf       	rjmp	.-228    	; 0x1d10 <setze_Fluessgkeit_in_Position+0x242>
		strcat(buff_file, "~");
	}
	aktuelleZutatInMaschine = aktuelleZutatInMaschine->prev;
	}
	
	char buff97[20] = {'\0'};
    1df4:	ce 01       	movw	r24, r28
    1df6:	8a 5a       	subi	r24, 0xAA	; 170
    1df8:	9d 4f       	sbci	r25, 0xFD	; 253
    1dfa:	24 e1       	ldi	r18, 0x14	; 20
    1dfc:	dc 01       	movw	r26, r24
    1dfe:	1d 92       	st	X+, r1
    1e00:	2a 95       	dec	r18
    1e02:	e9 f7       	brne	.-6      	; 0x1dfe <setze_Fluessgkeit_in_Position+0x330>
	strcpy((char *)buff97, (const char *)"M.txt");	
    1e04:	26 e0       	ldi	r18, 0x06	; 6
    1e06:	ea ec       	ldi	r30, 0xCA	; 202
    1e08:	f4 e0       	ldi	r31, 0x04	; 4
    1e0a:	dc 01       	movw	r26, r24
    1e0c:	01 90       	ld	r0, Z+
    1e0e:	0d 92       	st	X+, r0
    1e10:	2a 95       	dec	r18
    1e12:	e1 f7       	brne	.-8      	; 0x1e0c <setze_Fluessgkeit_in_Position+0x33e>
	writeFile((unsigned char *)buff97, (unsigned char *)buff_file);
    1e14:	be 01       	movw	r22, r28
    1e16:	64 5b       	subi	r22, 0xB4	; 180
    1e18:	7f 4f       	sbci	r23, 0xFF	; 255
    1e1a:	0e 94 b5 29 	call	0x536a	; 0x536a <writeFile>
}
    1e1e:	05 c0       	rjmp	.+10     	; 0x1e2a <setze_Fluessgkeit_in_Position+0x35c>
    1e20:	a0 ed       	ldi	r26, 0xD0	; 208
    1e22:	b4 e0       	ldi	r27, 0x04	; 4
	{
		// Schreibe Null-Terminator ber bestehenden Namen
		char * leer = "(keine)";
		char len1 = strlen((const char *)aktuelleZutatInMaschine->name);
		char len2 = strlen((const char *)leer);
		for (int count = 0 ; count < (len1 + 1) ; count++)
    1e24:	80 e0       	ldi	r24, 0x00	; 0
    1e26:	90 e0       	ldi	r25, 0x00	; 0
    1e28:	8c ce       	rjmp	.-744    	; 0x1b42 <setze_Fluessgkeit_in_Position+0x74>
	}
	
	char buff97[20] = {'\0'};
	strcpy((char *)buff97, (const char *)"M.txt");	
	writeFile((unsigned char *)buff97, (unsigned char *)buff_file);
}
    1e2a:	c7 59       	subi	r28, 0x97	; 151
    1e2c:	dd 4f       	sbci	r29, 0xFD	; 253
    1e2e:	0f b6       	in	r0, 0x3f	; 63
    1e30:	f8 94       	cli
    1e32:	de bf       	out	0x3e, r29	; 62
    1e34:	0f be       	out	0x3f, r0	; 63
    1e36:	cd bf       	out	0x3d, r28	; 61
    1e38:	df 91       	pop	r29
    1e3a:	cf 91       	pop	r28
    1e3c:	1f 91       	pop	r17
    1e3e:	0f 91       	pop	r16
    1e40:	ff 90       	pop	r15
    1e42:	ef 90       	pop	r14
    1e44:	df 90       	pop	r13
    1e46:	cf 90       	pop	r12
    1e48:	bf 90       	pop	r11
    1e4a:	af 90       	pop	r10
    1e4c:	9f 90       	pop	r9
    1e4e:	8f 90       	pop	r8
    1e50:	08 95       	ret

00001e52 <check_startseite>:
		break;
	}
}

void check_fehleranzeige(uint8_t button)
{
    1e52:	90 e0       	ldi	r25, 0x00	; 0
    1e54:	fc 01       	movw	r30, r24
    1e56:	32 97       	sbiw	r30, 0x02	; 2
    1e58:	e8 30       	cpi	r30, 0x08	; 8
    1e5a:	f1 05       	cpc	r31, r1
    1e5c:	08 f0       	brcs	.+2      	; 0x1e60 <check_startseite+0xe>
    1e5e:	dd c0       	rjmp	.+442    	; 0x201a <check_startseite+0x1c8>
    1e60:	88 27       	eor	r24, r24
    1e62:	ea 56       	subi	r30, 0x6A	; 106
    1e64:	ff 4f       	sbci	r31, 0xFF	; 255
    1e66:	8f 4f       	sbci	r24, 0xFF	; 255
    1e68:	0c 94 bf 32 	jmp	0x657e	; 0x657e <__tablejump2__>
    1e6c:	82 e0       	ldi	r24, 0x02	; 2
    1e6e:	0e 94 ea 20 	call	0x41d4	; 0x41d4 <nextion_change_page>
    1e72:	e0 91 c4 10 	lds	r30, 0x10C4	; 0x8010c4 <aktuellesGetraenk>
    1e76:	f0 91 c5 10 	lds	r31, 0x10C5	; 0x8010c5 <aktuellesGetraenk+0x1>
    1e7a:	60 81       	ld	r22, Z
    1e7c:	71 81       	ldd	r23, Z+1	; 0x01
    1e7e:	82 e5       	ldi	r24, 0x52	; 82
    1e80:	92 e0       	ldi	r25, 0x02	; 2
    1e82:	0e 94 09 21 	call	0x4212	; 0x4212 <nextion_setText>
    1e86:	80 91 c4 10 	lds	r24, 0x10C4	; 0x8010c4 <aktuellesGetraenk>
    1e8a:	90 91 c5 10 	lds	r25, 0x10C5	; 0x8010c5 <aktuellesGetraenk+0x1>
    1e8e:	0c 94 79 05 	jmp	0xaf2	; 0xaf2 <erstelle_Zutatenliste>
    1e92:	08 95       	ret
    1e94:	80 91 08 08 	lds	r24, 0x0808	; 0x800808 <Liste>
    1e98:	81 30       	cpi	r24, 0x01	; 1
    1e9a:	31 f0       	breq	.+12     	; 0x1ea8 <check_startseite+0x56>
    1e9c:	18 f0       	brcs	.+6      	; 0x1ea4 <check_startseite+0x52>
    1e9e:	82 30       	cpi	r24, 0x02	; 2
    1ea0:	a1 f0       	breq	.+40     	; 0x1eca <check_startseite+0x78>
    1ea2:	23 c0       	rjmp	.+70     	; 0x1eea <check_startseite+0x98>
    1ea4:	7f d8       	rcall	.-3842   	; 0xfa4 <schiebe_file_next>
    1ea6:	21 c0       	rjmp	.+66     	; 0x1eea <check_startseite+0x98>
    1ea8:	7d d8       	rcall	.-3846   	; 0xfa4 <schiebe_file_next>
    1eaa:	e0 91 c4 10 	lds	r30, 0x10C4	; 0x8010c4 <aktuellesGetraenk>
    1eae:	f0 91 c5 10 	lds	r31, 0x10C5	; 0x8010c5 <aktuellesGetraenk+0x1>
    1eb2:	82 81       	ldd	r24, Z+2	; 0x02
    1eb4:	81 11       	cpse	r24, r1
    1eb6:	19 c0       	rjmp	.+50     	; 0x1eea <check_startseite+0x98>
    1eb8:	75 d8       	rcall	.-3862   	; 0xfa4 <schiebe_file_next>
    1eba:	e0 91 c4 10 	lds	r30, 0x10C4	; 0x8010c4 <aktuellesGetraenk>
    1ebe:	f0 91 c5 10 	lds	r31, 0x10C5	; 0x8010c5 <aktuellesGetraenk+0x1>
    1ec2:	82 81       	ldd	r24, Z+2	; 0x02
    1ec4:	88 23       	and	r24, r24
    1ec6:	c1 f3       	breq	.-16     	; 0x1eb8 <check_startseite+0x66>
    1ec8:	10 c0       	rjmp	.+32     	; 0x1eea <check_startseite+0x98>
    1eca:	6c d8       	rcall	.-3880   	; 0xfa4 <schiebe_file_next>
    1ecc:	e0 91 c4 10 	lds	r30, 0x10C4	; 0x8010c4 <aktuellesGetraenk>
    1ed0:	f0 91 c5 10 	lds	r31, 0x10C5	; 0x8010c5 <aktuellesGetraenk+0x1>
    1ed4:	82 81       	ldd	r24, Z+2	; 0x02
    1ed6:	81 30       	cpi	r24, 0x01	; 1
    1ed8:	41 f4       	brne	.+16     	; 0x1eea <check_startseite+0x98>
    1eda:	64 d8       	rcall	.-3896   	; 0xfa4 <schiebe_file_next>
    1edc:	e0 91 c4 10 	lds	r30, 0x10C4	; 0x8010c4 <aktuellesGetraenk>
    1ee0:	f0 91 c5 10 	lds	r31, 0x10C5	; 0x8010c5 <aktuellesGetraenk+0x1>
    1ee4:	82 81       	ldd	r24, Z+2	; 0x02
    1ee6:	81 30       	cpi	r24, 0x01	; 1
    1ee8:	c1 f3       	breq	.-16     	; 0x1eda <check_startseite+0x88>
    1eea:	80 91 c4 10 	lds	r24, 0x10C4	; 0x8010c4 <aktuellesGetraenk>
    1eee:	90 91 c5 10 	lds	r25, 0x10C5	; 0x8010c5 <aktuellesGetraenk+0x1>
    1ef2:	0c 94 f8 03 	jmp	0x7f0	; 0x7f0 <setze_startanzeige>
    1ef6:	08 95       	ret
    1ef8:	84 e0       	ldi	r24, 0x04	; 4
    1efa:	0e 94 ea 20 	call	0x41d4	; 0x41d4 <nextion_change_page>
    1efe:	e0 91 36 08 	lds	r30, 0x0836	; 0x800836 <aktuellesGetraenk_file>
    1f02:	f0 91 37 08 	lds	r31, 0x0837	; 0x800837 <aktuellesGetraenk_file+0x1>
    1f06:	80 81       	ld	r24, Z
    1f08:	0c 94 73 06 	jmp	0xce6	; 0xce6 <lese_textfile_in_getraenk>
    1f0c:	08 95       	ret
    1f0e:	80 91 08 08 	lds	r24, 0x0808	; 0x800808 <Liste>
    1f12:	81 30       	cpi	r24, 0x01	; 1
    1f14:	31 f0       	breq	.+12     	; 0x1f22 <check_startseite+0xd0>
    1f16:	18 f0       	brcs	.+6      	; 0x1f1e <check_startseite+0xcc>
    1f18:	82 30       	cpi	r24, 0x02	; 2
    1f1a:	a1 f0       	breq	.+40     	; 0x1f44 <check_startseite+0xf2>
    1f1c:	23 c0       	rjmp	.+70     	; 0x1f64 <check_startseite+0x112>
    1f1e:	50 d8       	rcall	.-3936   	; 0xfc0 <schiebe_file_prev>
    1f20:	21 c0       	rjmp	.+66     	; 0x1f64 <check_startseite+0x112>
    1f22:	4e d8       	rcall	.-3940   	; 0xfc0 <schiebe_file_prev>
    1f24:	e0 91 c4 10 	lds	r30, 0x10C4	; 0x8010c4 <aktuellesGetraenk>
    1f28:	f0 91 c5 10 	lds	r31, 0x10C5	; 0x8010c5 <aktuellesGetraenk+0x1>
    1f2c:	82 81       	ldd	r24, Z+2	; 0x02
    1f2e:	81 11       	cpse	r24, r1
    1f30:	19 c0       	rjmp	.+50     	; 0x1f64 <check_startseite+0x112>
    1f32:	46 d8       	rcall	.-3956   	; 0xfc0 <schiebe_file_prev>
    1f34:	e0 91 c4 10 	lds	r30, 0x10C4	; 0x8010c4 <aktuellesGetraenk>
    1f38:	f0 91 c5 10 	lds	r31, 0x10C5	; 0x8010c5 <aktuellesGetraenk+0x1>
    1f3c:	82 81       	ldd	r24, Z+2	; 0x02
    1f3e:	88 23       	and	r24, r24
    1f40:	c1 f3       	breq	.-16     	; 0x1f32 <check_startseite+0xe0>
    1f42:	10 c0       	rjmp	.+32     	; 0x1f64 <check_startseite+0x112>
    1f44:	3d d8       	rcall	.-3974   	; 0xfc0 <schiebe_file_prev>
    1f46:	e0 91 c4 10 	lds	r30, 0x10C4	; 0x8010c4 <aktuellesGetraenk>
    1f4a:	f0 91 c5 10 	lds	r31, 0x10C5	; 0x8010c5 <aktuellesGetraenk+0x1>
    1f4e:	82 81       	ldd	r24, Z+2	; 0x02
    1f50:	81 30       	cpi	r24, 0x01	; 1
    1f52:	41 f4       	brne	.+16     	; 0x1f64 <check_startseite+0x112>
    1f54:	35 d8       	rcall	.-3990   	; 0xfc0 <schiebe_file_prev>
    1f56:	e0 91 c4 10 	lds	r30, 0x10C4	; 0x8010c4 <aktuellesGetraenk>
    1f5a:	f0 91 c5 10 	lds	r31, 0x10C5	; 0x8010c5 <aktuellesGetraenk+0x1>
    1f5e:	82 81       	ldd	r24, Z+2	; 0x02
    1f60:	81 30       	cpi	r24, 0x01	; 1
    1f62:	c1 f3       	breq	.-16     	; 0x1f54 <check_startseite+0x102>
    1f64:	80 91 c4 10 	lds	r24, 0x10C4	; 0x8010c4 <aktuellesGetraenk>
    1f68:	90 91 c5 10 	lds	r25, 0x10C5	; 0x8010c5 <aktuellesGetraenk+0x1>
    1f6c:	0c 94 f8 03 	jmp	0x7f0	; 0x7f0 <setze_startanzeige>
    1f70:	08 95       	ret
    1f72:	83 e0       	ldi	r24, 0x03	; 3
    1f74:	0e 94 ea 20 	call	0x41d4	; 0x41d4 <nextion_change_page>
    1f78:	10 92 8a 10 	sts	0x108A, r1	; 0x80108a <i_Liste>
    1f7c:	82 e0       	ldi	r24, 0x02	; 2
    1f7e:	93 e0       	ldi	r25, 0x03	; 3
    1f80:	2d c8       	rjmp	.-4006   	; 0xfdc <erstelle_Liste_name>
    1f82:	08 95       	ret
    1f84:	87 e0       	ldi	r24, 0x07	; 7
    1f86:	0c 94 ea 20 	jmp	0x41d4	; 0x41d4 <nextion_change_page>
    1f8a:	08 95       	ret
    1f8c:	e0 91 02 08 	lds	r30, 0x0802	; 0x800802 <tail_getraenk_file>
    1f90:	f0 91 03 08 	lds	r31, 0x0803	; 0x800803 <tail_getraenk_file+0x1>
    1f94:	f0 93 37 08 	sts	0x0837, r31	; 0x800837 <aktuellesGetraenk_file+0x1>
    1f98:	e0 93 36 08 	sts	0x0836, r30	; 0x800836 <aktuellesGetraenk_file>
    1f9c:	80 81       	ld	r24, Z
    1f9e:	0e 94 73 06 	call	0xce6	; 0xce6 <lese_textfile_in_getraenk>
    1fa2:	80 91 08 08 	lds	r24, 0x0808	; 0x800808 <Liste>
    1fa6:	81 30       	cpi	r24, 0x01	; 1
    1fa8:	c1 f0       	breq	.+48     	; 0x1fda <check_startseite+0x188>
    1faa:	18 f0       	brcs	.+6      	; 0x1fb2 <check_startseite+0x160>
    1fac:	82 30       	cpi	r24, 0x02	; 2
    1fae:	49 f1       	breq	.+82     	; 0x2002 <check_startseite+0x1b0>
    1fb0:	2a c0       	rjmp	.+84     	; 0x2006 <check_startseite+0x1b4>
    1fb2:	81 e0       	ldi	r24, 0x01	; 1
    1fb4:	80 93 08 08 	sts	0x0808, r24	; 0x800808 <Liste>
    1fb8:	e0 91 c4 10 	lds	r30, 0x10C4	; 0x8010c4 <aktuellesGetraenk>
    1fbc:	f0 91 c5 10 	lds	r31, 0x10C5	; 0x8010c5 <aktuellesGetraenk+0x1>
    1fc0:	82 81       	ldd	r24, Z+2	; 0x02
    1fc2:	81 11       	cpse	r24, r1
    1fc4:	20 c0       	rjmp	.+64     	; 0x2006 <check_startseite+0x1b4>
    1fc6:	0e 94 e0 07 	call	0xfc0	; 0xfc0 <schiebe_file_prev>
    1fca:	e0 91 c4 10 	lds	r30, 0x10C4	; 0x8010c4 <aktuellesGetraenk>
    1fce:	f0 91 c5 10 	lds	r31, 0x10C5	; 0x8010c5 <aktuellesGetraenk+0x1>
    1fd2:	82 81       	ldd	r24, Z+2	; 0x02
    1fd4:	88 23       	and	r24, r24
    1fd6:	b9 f3       	breq	.-18     	; 0x1fc6 <check_startseite+0x174>
    1fd8:	16 c0       	rjmp	.+44     	; 0x2006 <check_startseite+0x1b4>
    1fda:	82 e0       	ldi	r24, 0x02	; 2
    1fdc:	80 93 08 08 	sts	0x0808, r24	; 0x800808 <Liste>
    1fe0:	e0 91 c4 10 	lds	r30, 0x10C4	; 0x8010c4 <aktuellesGetraenk>
    1fe4:	f0 91 c5 10 	lds	r31, 0x10C5	; 0x8010c5 <aktuellesGetraenk+0x1>
    1fe8:	82 81       	ldd	r24, Z+2	; 0x02
    1fea:	81 30       	cpi	r24, 0x01	; 1
    1fec:	61 f4       	brne	.+24     	; 0x2006 <check_startseite+0x1b4>
    1fee:	0e 94 e0 07 	call	0xfc0	; 0xfc0 <schiebe_file_prev>
    1ff2:	e0 91 c4 10 	lds	r30, 0x10C4	; 0x8010c4 <aktuellesGetraenk>
    1ff6:	f0 91 c5 10 	lds	r31, 0x10C5	; 0x8010c5 <aktuellesGetraenk+0x1>
    1ffa:	82 81       	ldd	r24, Z+2	; 0x02
    1ffc:	81 30       	cpi	r24, 0x01	; 1
    1ffe:	b9 f3       	breq	.-18     	; 0x1fee <check_startseite+0x19c>
    2000:	02 c0       	rjmp	.+4      	; 0x2006 <check_startseite+0x1b4>
    2002:	10 92 08 08 	sts	0x0808, r1	; 0x800808 <Liste>
    2006:	80 91 c4 10 	lds	r24, 0x10C4	; 0x8010c4 <aktuellesGetraenk>
    200a:	90 91 c5 10 	lds	r25, 0x10C5	; 0x8010c5 <aktuellesGetraenk+0x1>
    200e:	0c 94 f8 03 	jmp	0x7f0	; 0x7f0 <setze_startanzeige>
    2012:	08 95       	ret
    2014:	82 e1       	ldi	r24, 0x12	; 18
    2016:	0c 94 ea 20 	jmp	0x41d4	; 0x41d4 <nextion_change_page>
    201a:	08 95       	ret

0000201c <check_zutatenanzeige>:
    201c:	81 30       	cpi	r24, 0x01	; 1
    201e:	19 f0       	breq	.+6      	; 0x2026 <check_zutatenanzeige+0xa>
    2020:	82 30       	cpi	r24, 0x02	; 2
    2022:	41 f0       	breq	.+16     	; 0x2034 <check_zutatenanzeige+0x18>
    2024:	08 95       	ret
    2026:	80 91 c4 10 	lds	r24, 0x10C4	; 0x8010c4 <aktuellesGetraenk>
    202a:	90 91 c5 10 	lds	r25, 0x10C5	; 0x8010c5 <aktuellesGetraenk+0x1>
    202e:	0c 94 f8 03 	jmp	0x7f0	; 0x7f0 <setze_startanzeige>
    2032:	08 95       	ret
    2034:	80 91 c4 10 	lds	r24, 0x10C4	; 0x8010c4 <aktuellesGetraenk>
    2038:	90 91 c5 10 	lds	r25, 0x10C5	; 0x8010c5 <aktuellesGetraenk+0x1>
    203c:	0c 94 f8 03 	jmp	0x7f0	; 0x7f0 <setze_startanzeige>
    2040:	08 95       	ret

00002042 <check_listenanzeige>:
    2042:	90 e0       	ldi	r25, 0x00	; 0
    2044:	fc 01       	movw	r30, r24
    2046:	31 97       	sbiw	r30, 0x01	; 1
    2048:	ea 30       	cpi	r30, 0x0A	; 10
    204a:	f1 05       	cpc	r31, r1
    204c:	08 f0       	brcs	.+2      	; 0x2050 <check_listenanzeige+0xe>
    204e:	75 c0       	rjmp	.+234    	; 0x213a <check_listenanzeige+0xf8>
    2050:	88 27       	eor	r24, r24
    2052:	e2 56       	subi	r30, 0x62	; 98
    2054:	ff 4f       	sbci	r31, 0xFF	; 255
    2056:	8f 4f       	sbci	r24, 0xFF	; 255
    2058:	0c 94 bf 32 	jmp	0x657e	; 0x657e <__tablejump2__>
    205c:	80 e0       	ldi	r24, 0x00	; 0
    205e:	0e 94 91 07 	call	0xf22	; 0xf22 <choose_aktuellesGetraenk>
    2062:	80 91 c4 10 	lds	r24, 0x10C4	; 0x8010c4 <aktuellesGetraenk>
    2066:	90 91 c5 10 	lds	r25, 0x10C5	; 0x8010c5 <aktuellesGetraenk+0x1>
    206a:	0c 94 f8 03 	jmp	0x7f0	; 0x7f0 <setze_startanzeige>
    206e:	08 95       	ret
    2070:	81 e0       	ldi	r24, 0x01	; 1
    2072:	0e 94 91 07 	call	0xf22	; 0xf22 <choose_aktuellesGetraenk>
    2076:	80 91 c4 10 	lds	r24, 0x10C4	; 0x8010c4 <aktuellesGetraenk>
    207a:	90 91 c5 10 	lds	r25, 0x10C5	; 0x8010c5 <aktuellesGetraenk+0x1>
    207e:	0c 94 f8 03 	jmp	0x7f0	; 0x7f0 <setze_startanzeige>
    2082:	08 95       	ret
    2084:	82 e0       	ldi	r24, 0x02	; 2
    2086:	0e 94 91 07 	call	0xf22	; 0xf22 <choose_aktuellesGetraenk>
    208a:	80 91 c4 10 	lds	r24, 0x10C4	; 0x8010c4 <aktuellesGetraenk>
    208e:	90 91 c5 10 	lds	r25, 0x10C5	; 0x8010c5 <aktuellesGetraenk+0x1>
    2092:	0c 94 f8 03 	jmp	0x7f0	; 0x7f0 <setze_startanzeige>
    2096:	08 95       	ret
    2098:	83 e0       	ldi	r24, 0x03	; 3
    209a:	0e 94 91 07 	call	0xf22	; 0xf22 <choose_aktuellesGetraenk>
    209e:	80 91 c4 10 	lds	r24, 0x10C4	; 0x8010c4 <aktuellesGetraenk>
    20a2:	90 91 c5 10 	lds	r25, 0x10C5	; 0x8010c5 <aktuellesGetraenk+0x1>
    20a6:	0c 94 f8 03 	jmp	0x7f0	; 0x7f0 <setze_startanzeige>
    20aa:	08 95       	ret
    20ac:	84 e0       	ldi	r24, 0x04	; 4
    20ae:	0e 94 91 07 	call	0xf22	; 0xf22 <choose_aktuellesGetraenk>
    20b2:	80 91 c4 10 	lds	r24, 0x10C4	; 0x8010c4 <aktuellesGetraenk>
    20b6:	90 91 c5 10 	lds	r25, 0x10C5	; 0x8010c5 <aktuellesGetraenk+0x1>
    20ba:	0c 94 f8 03 	jmp	0x7f0	; 0x7f0 <setze_startanzeige>
    20be:	08 95       	ret
    20c0:	85 e0       	ldi	r24, 0x05	; 5
    20c2:	0e 94 91 07 	call	0xf22	; 0xf22 <choose_aktuellesGetraenk>
    20c6:	80 91 c4 10 	lds	r24, 0x10C4	; 0x8010c4 <aktuellesGetraenk>
    20ca:	90 91 c5 10 	lds	r25, 0x10C5	; 0x8010c5 <aktuellesGetraenk+0x1>
    20ce:	0c 94 f8 03 	jmp	0x7f0	; 0x7f0 <setze_startanzeige>
    20d2:	08 95       	ret
    20d4:	86 e0       	ldi	r24, 0x06	; 6
    20d6:	0e 94 91 07 	call	0xf22	; 0xf22 <choose_aktuellesGetraenk>
    20da:	80 91 c4 10 	lds	r24, 0x10C4	; 0x8010c4 <aktuellesGetraenk>
    20de:	90 91 c5 10 	lds	r25, 0x10C5	; 0x8010c5 <aktuellesGetraenk+0x1>
    20e2:	0c 94 f8 03 	jmp	0x7f0	; 0x7f0 <setze_startanzeige>
    20e6:	08 95       	ret
    20e8:	87 e0       	ldi	r24, 0x07	; 7
    20ea:	0e 94 91 07 	call	0xf22	; 0xf22 <choose_aktuellesGetraenk>
    20ee:	80 91 c4 10 	lds	r24, 0x10C4	; 0x8010c4 <aktuellesGetraenk>
    20f2:	90 91 c5 10 	lds	r25, 0x10C5	; 0x8010c5 <aktuellesGetraenk+0x1>
    20f6:	0c 94 f8 03 	jmp	0x7f0	; 0x7f0 <setze_startanzeige>
    20fa:	08 95       	ret
    20fc:	10 92 3f 08 	sts	0x083F, r1	; 0x80083f <block_list_runter>
    2100:	80 91 53 0c 	lds	r24, 0x0C53	; 0x800c53 <block_list_hoch>
    2104:	81 11       	cpse	r24, r1
    2106:	19 c0       	rjmp	.+50     	; 0x213a <check_listenanzeige+0xf8>
    2108:	80 91 8a 10 	lds	r24, 0x108A	; 0x80108a <i_Liste>
    210c:	88 50       	subi	r24, 0x08	; 8
    210e:	80 93 8a 10 	sts	0x108A, r24	; 0x80108a <i_Liste>
    2112:	82 e0       	ldi	r24, 0x02	; 2
    2114:	93 e0       	ldi	r25, 0x03	; 3
    2116:	0c 94 ee 07 	jmp	0xfdc	; 0xfdc <erstelle_Liste_name>
    211a:	08 95       	ret
    211c:	10 92 53 0c 	sts	0x0C53, r1	; 0x800c53 <block_list_hoch>
    2120:	80 91 3f 08 	lds	r24, 0x083F	; 0x80083f <block_list_runter>
    2124:	81 11       	cpse	r24, r1
    2126:	09 c0       	rjmp	.+18     	; 0x213a <check_listenanzeige+0xf8>
    2128:	80 91 8a 10 	lds	r24, 0x108A	; 0x80108a <i_Liste>
    212c:	88 5f       	subi	r24, 0xF8	; 248
    212e:	80 93 8a 10 	sts	0x108A, r24	; 0x80108a <i_Liste>
    2132:	82 e0       	ldi	r24, 0x02	; 2
    2134:	93 e0       	ldi	r25, 0x03	; 3
    2136:	0c 94 ee 07 	jmp	0xfdc	; 0xfdc <erstelle_Liste_name>
    213a:	08 95       	ret

0000213c <check_zubabfrage>:
    213c:	82 30       	cpi	r24, 0x02	; 2
    213e:	59 f0       	breq	.+22     	; 0x2156 <check_zubabfrage+0x1a>
    2140:	83 30       	cpi	r24, 0x03	; 3
    2142:	81 f0       	breq	.+32     	; 0x2164 <check_zubabfrage+0x28>
    2144:	81 30       	cpi	r24, 0x01	; 1
    2146:	a1 f4       	brne	.+40     	; 0x2170 <check_zubabfrage+0x34>
    2148:	63 e0       	ldi	r22, 0x03	; 3
    214a:	70 e0       	ldi	r23, 0x00	; 0
    214c:	80 e0       	ldi	r24, 0x00	; 0
    214e:	90 e0       	ldi	r25, 0x00	; 0
    2150:	0c 94 45 05 	jmp	0xa8a	; 0xa8a <zubereitung_getraenk>
    2154:	08 95       	ret
    2156:	65 e0       	ldi	r22, 0x05	; 5
    2158:	70 e0       	ldi	r23, 0x00	; 0
    215a:	80 e0       	ldi	r24, 0x00	; 0
    215c:	90 e0       	ldi	r25, 0x00	; 0
    215e:	0c 94 45 05 	jmp	0xa8a	; 0xa8a <zubereitung_getraenk>
    2162:	08 95       	ret
    2164:	80 91 c4 10 	lds	r24, 0x10C4	; 0x8010c4 <aktuellesGetraenk>
    2168:	90 91 c5 10 	lds	r25, 0x10C5	; 0x8010c5 <aktuellesGetraenk+0x1>
    216c:	0c 94 f8 03 	jmp	0x7f0	; 0x7f0 <setze_startanzeige>
    2170:	08 95       	ret

00002172 <check_zubbildschirm>:
    2172:	81 30       	cpi	r24, 0x01	; 1
    2174:	11 f4       	brne	.+4      	; 0x217a <check_zubbildschirm+0x8>
    2176:	80 93 be 10 	sts	0x10BE, r24	; 0x8010be <stop>
    217a:	08 95       	ret

0000217c <check_menuanzeige>:
    217c:	8f 92       	push	r8
    217e:	9f 92       	push	r9
    2180:	af 92       	push	r10
    2182:	bf 92       	push	r11
    2184:	cf 92       	push	r12
    2186:	df 92       	push	r13
    2188:	ef 92       	push	r14
    218a:	ff 92       	push	r15
    218c:	0f 93       	push	r16
    218e:	1f 93       	push	r17
    2190:	cf 93       	push	r28
    2192:	df 93       	push	r29
    2194:	cd b7       	in	r28, 0x3d	; 61
    2196:	de b7       	in	r29, 0x3e	; 62
    2198:	2f 97       	sbiw	r28, 0x0f	; 15
    219a:	0f b6       	in	r0, 0x3f	; 63
    219c:	f8 94       	cli
    219e:	de bf       	out	0x3e, r29	; 62
    21a0:	0f be       	out	0x3f, r0	; 63
    21a2:	cd bf       	out	0x3d, r28	; 61
    21a4:	90 e0       	ldi	r25, 0x00	; 0
    21a6:	fc 01       	movw	r30, r24
    21a8:	31 97       	sbiw	r30, 0x01	; 1
    21aa:	e7 30       	cpi	r30, 0x07	; 7
    21ac:	f1 05       	cpc	r31, r1
    21ae:	08 f0       	brcs	.+2      	; 0x21b2 <check_menuanzeige+0x36>
    21b0:	8a c0       	rjmp	.+276    	; 0x22c6 <__stack+0xc7>
    21b2:	88 27       	eor	r24, r24
    21b4:	e8 55       	subi	r30, 0x58	; 88
    21b6:	ff 4f       	sbci	r31, 0xFF	; 255
    21b8:	8f 4f       	sbci	r24, 0xFF	; 255
    21ba:	0c 94 bf 32 	jmp	0x657e	; 0x657e <__tablejump2__>
    21be:	88 e0       	ldi	r24, 0x08	; 8
    21c0:	0e 94 ea 20 	call	0x41d4	; 0x41d4 <nextion_change_page>
    21c4:	10 92 8a 10 	sts	0x108A, r1	; 0x80108a <i_Liste>
    21c8:	82 e0       	ldi	r24, 0x02	; 2
    21ca:	93 e0       	ldi	r25, 0x03	; 3
    21cc:	0e 94 ee 07 	call	0xfdc	; 0xfdc <erstelle_Liste_name>
    21d0:	7a c0       	rjmp	.+244    	; 0x22c6 <__stack+0xc7>
    21d2:	80 e1       	ldi	r24, 0x10	; 16
    21d4:	0e 94 ea 20 	call	0x41d4	; 0x41d4 <nextion_change_page>
    21d8:	81 e0       	ldi	r24, 0x01	; 1
    21da:	80 93 3a 08 	sts	0x083A, r24	; 0x80083a <Grossschreib>
    21de:	10 92 5a 0d 	sts	0x0D5A, r1	; 0x800d5a <counter>
    21e2:	e2 e6       	ldi	r30, 0x62	; 98
    21e4:	fd e0       	ldi	r31, 0x0D	; 13
    21e6:	01 90       	ld	r0, Z+
    21e8:	00 20       	and	r0, r0
    21ea:	e9 f7       	brne	.-6      	; 0x21e6 <check_menuanzeige+0x6a>
    21ec:	31 97       	sbiw	r30, 0x01	; 1
    21ee:	cf 01       	movw	r24, r30
    21f0:	82 56       	subi	r24, 0x62	; 98
    21f2:	9d 40       	sbci	r25, 0x0D	; 13
    21f4:	99 27       	eor	r25, r25
    21f6:	18 16       	cp	r1, r24
    21f8:	19 06       	cpc	r1, r25
    21fa:	0c f0       	brlt	.+2      	; 0x21fe <check_menuanzeige+0x82>
    21fc:	64 c0       	rjmp	.+200    	; 0x22c6 <__stack+0xc7>
    21fe:	e2 e6       	ldi	r30, 0x62	; 98
    2200:	fd e0       	ldi	r31, 0x0D	; 13
    2202:	8e 59       	subi	r24, 0x9E	; 158
    2204:	92 4f       	sbci	r25, 0xF2	; 242
    2206:	11 92       	st	Z+, r1
    2208:	8e 17       	cp	r24, r30
    220a:	9f 07       	cpc	r25, r31
    220c:	e1 f7       	brne	.-8      	; 0x2206 <__stack+0x7>
    220e:	5b c0       	rjmp	.+182    	; 0x22c6 <__stack+0xc7>
    2210:	8a e0       	ldi	r24, 0x0A	; 10
    2212:	0e 94 ea 20 	call	0x41d4	; 0x41d4 <nextion_change_page>
    2216:	57 c0       	rjmp	.+174    	; 0x22c6 <__stack+0xc7>
    2218:	8d e0       	ldi	r24, 0x0D	; 13
    221a:	0e 94 ea 20 	call	0x41d4	; 0x41d4 <nextion_change_page>
    221e:	53 c0       	rjmp	.+166    	; 0x22c6 <__stack+0xc7>
    2220:	80 91 c4 10 	lds	r24, 0x10C4	; 0x8010c4 <aktuellesGetraenk>
    2224:	90 91 c5 10 	lds	r25, 0x10C5	; 0x8010c5 <aktuellesGetraenk+0x1>
    2228:	0e 94 f8 03 	call	0x7f0	; 0x7f0 <setze_startanzeige>
    222c:	4c c0       	rjmp	.+152    	; 0x22c6 <__stack+0xc7>
    222e:	83 e1       	ldi	r24, 0x13	; 19
    2230:	0e 94 ea 20 	call	0x41d4	; 0x41d4 <nextion_change_page>
    2234:	ab db       	rcall	.-2218   	; 0x198c <setze_Posanzeige_Rot_Gruen>
    2236:	47 c0       	rjmp	.+142    	; 0x22c6 <__stack+0xc7>
    2238:	87 e1       	ldi	r24, 0x17	; 23
    223a:	0e 94 ea 20 	call	0x41d4	; 0x41d4 <nextion_change_page>
    223e:	00 e0       	ldi	r16, 0x00	; 0
    2240:	10 e0       	ldi	r17, 0x00	; 0
    2242:	0f 2e       	mov	r0, r31
    2244:	fa e0       	ldi	r31, 0x0A	; 10
    2246:	bf 2e       	mov	r11, r31
    2248:	f0 2d       	mov	r31, r0
    224a:	9e 01       	movw	r18, r28
    224c:	2f 5f       	subi	r18, 0xFF	; 255
    224e:	3f 4f       	sbci	r19, 0xFF	; 255
    2250:	69 01       	movw	r12, r18
    2252:	0f 2e       	mov	r0, r31
    2254:	f5 e0       	ldi	r31, 0x05	; 5
    2256:	af 2e       	mov	r10, r31
    2258:	f0 2d       	mov	r31, r0
    225a:	7e 01       	movw	r14, r28
    225c:	3b e0       	ldi	r19, 0x0B	; 11
    225e:	e3 0e       	add	r14, r19
    2260:	f1 1c       	adc	r15, r1
    2262:	f6 01       	movw	r30, r12
    2264:	2b 2d       	mov	r18, r11
    2266:	11 92       	st	Z+, r1
    2268:	2a 95       	dec	r18
    226a:	e9 f7       	brne	.-6      	; 0x2266 <__stack+0x67>
    226c:	f7 01       	movw	r30, r14
    226e:	2a 2d       	mov	r18, r10
    2270:	11 92       	st	Z+, r1
    2272:	2a 95       	dec	r18
    2274:	e9 f7       	brne	.-6      	; 0x2270 <__stack+0x71>
    2276:	85 e0       	ldi	r24, 0x05	; 5
    2278:	e8 ed       	ldi	r30, 0xD8	; 216
    227a:	f4 e0       	ldi	r31, 0x04	; 4
    227c:	d6 01       	movw	r26, r12
    227e:	01 90       	ld	r0, Z+
    2280:	0d 92       	st	X+, r0
    2282:	8a 95       	dec	r24
    2284:	e1 f7       	brne	.-8      	; 0x227e <__stack+0x7f>
    2286:	48 01       	movw	r8, r16
    2288:	3f ef       	ldi	r19, 0xFF	; 255
    228a:	83 1a       	sub	r8, r19
    228c:	93 0a       	sbc	r9, r19
    228e:	4b 2d       	mov	r20, r11
    2290:	b7 01       	movw	r22, r14
    2292:	c4 01       	movw	r24, r8
    2294:	0e 94 7b 34 	call	0x68f6	; 0x68f6 <__itoa_ncheck>
    2298:	b7 01       	movw	r22, r14
    229a:	c6 01       	movw	r24, r12
    229c:	0e 94 42 34 	call	0x6884	; 0x6884 <strcat>
    22a0:	80 91 8a 10 	lds	r24, 0x108A	; 0x80108a <i_Liste>
    22a4:	f8 01       	movw	r30, r16
    22a6:	e8 0f       	add	r30, r24
    22a8:	f1 1d       	adc	r31, r1
    22aa:	cf 01       	movw	r24, r30
    22ac:	4b 2d       	mov	r20, r11
    22ae:	b7 01       	movw	r22, r14
    22b0:	01 96       	adiw	r24, 0x01	; 1
    22b2:	0e 94 7b 34 	call	0x68f6	; 0x68f6 <__itoa_ncheck>
    22b6:	b7 01       	movw	r22, r14
    22b8:	c6 01       	movw	r24, r12
    22ba:	0e 94 09 21 	call	0x4212	; 0x4212 <nextion_setText>
    22be:	84 01       	movw	r16, r8
    22c0:	06 30       	cpi	r16, 0x06	; 6
    22c2:	11 05       	cpc	r17, r1
    22c4:	71 f6       	brne	.-100    	; 0x2262 <__stack+0x63>
    22c6:	2f 96       	adiw	r28, 0x0f	; 15
    22c8:	0f b6       	in	r0, 0x3f	; 63
    22ca:	f8 94       	cli
    22cc:	de bf       	out	0x3e, r29	; 62
    22ce:	0f be       	out	0x3f, r0	; 63
    22d0:	cd bf       	out	0x3d, r28	; 61
    22d2:	df 91       	pop	r29
    22d4:	cf 91       	pop	r28
    22d6:	1f 91       	pop	r17
    22d8:	0f 91       	pop	r16
    22da:	ff 90       	pop	r15
    22dc:	ef 90       	pop	r14
    22de:	df 90       	pop	r13
    22e0:	cf 90       	pop	r12
    22e2:	bf 90       	pop	r11
    22e4:	af 90       	pop	r10
    22e6:	9f 90       	pop	r9
    22e8:	8f 90       	pop	r8
    22ea:	08 95       	ret

000022ec <check_bearbeitungsanzeige>:
    22ec:	90 e0       	ldi	r25, 0x00	; 0
    22ee:	fc 01       	movw	r30, r24
    22f0:	31 97       	sbiw	r30, 0x01	; 1
    22f2:	ea 30       	cpi	r30, 0x0A	; 10
    22f4:	f1 05       	cpc	r31, r1
    22f6:	08 f0       	brcs	.+2      	; 0x22fa <check_bearbeitungsanzeige+0xe>
    22f8:	45 c0       	rjmp	.+138    	; 0x2384 <check_bearbeitungsanzeige+0x98>
    22fa:	88 27       	eor	r24, r24
    22fc:	e1 55       	subi	r30, 0x51	; 81
    22fe:	ff 4f       	sbci	r31, 0xFF	; 255
    2300:	8f 4f       	sbci	r24, 0xFF	; 255
    2302:	0c 94 bf 32 	jmp	0x657e	; 0x657e <__tablejump2__>
    2306:	80 e0       	ldi	r24, 0x00	; 0
    2308:	0c 94 c8 07 	jmp	0xf90	; 0xf90 <bearbeite_Cocktail>
    230c:	08 95       	ret
    230e:	81 e0       	ldi	r24, 0x01	; 1
    2310:	0c 94 c8 07 	jmp	0xf90	; 0xf90 <bearbeite_Cocktail>
    2314:	08 95       	ret
    2316:	82 e0       	ldi	r24, 0x02	; 2
    2318:	0c 94 c8 07 	jmp	0xf90	; 0xf90 <bearbeite_Cocktail>
    231c:	08 95       	ret
    231e:	83 e0       	ldi	r24, 0x03	; 3
    2320:	0c 94 c8 07 	jmp	0xf90	; 0xf90 <bearbeite_Cocktail>
    2324:	08 95       	ret
    2326:	84 e0       	ldi	r24, 0x04	; 4
    2328:	0c 94 c8 07 	jmp	0xf90	; 0xf90 <bearbeite_Cocktail>
    232c:	08 95       	ret
    232e:	85 e0       	ldi	r24, 0x05	; 5
    2330:	0c 94 c8 07 	jmp	0xf90	; 0xf90 <bearbeite_Cocktail>
    2334:	08 95       	ret
    2336:	86 e0       	ldi	r24, 0x06	; 6
    2338:	0c 94 c8 07 	jmp	0xf90	; 0xf90 <bearbeite_Cocktail>
    233c:	08 95       	ret
    233e:	87 e0       	ldi	r24, 0x07	; 7
    2340:	0c 94 c8 07 	jmp	0xf90	; 0xf90 <bearbeite_Cocktail>
    2344:	08 95       	ret
    2346:	10 92 3f 08 	sts	0x083F, r1	; 0x80083f <block_list_runter>
    234a:	80 91 53 0c 	lds	r24, 0x0C53	; 0x800c53 <block_list_hoch>
    234e:	81 11       	cpse	r24, r1
    2350:	19 c0       	rjmp	.+50     	; 0x2384 <check_bearbeitungsanzeige+0x98>
    2352:	80 91 8a 10 	lds	r24, 0x108A	; 0x80108a <i_Liste>
    2356:	88 50       	subi	r24, 0x08	; 8
    2358:	80 93 8a 10 	sts	0x108A, r24	; 0x80108a <i_Liste>
    235c:	82 e0       	ldi	r24, 0x02	; 2
    235e:	93 e0       	ldi	r25, 0x03	; 3
    2360:	0c 94 ee 07 	jmp	0xfdc	; 0xfdc <erstelle_Liste_name>
    2364:	08 95       	ret
    2366:	10 92 53 0c 	sts	0x0C53, r1	; 0x800c53 <block_list_hoch>
    236a:	80 91 3f 08 	lds	r24, 0x083F	; 0x80083f <block_list_runter>
    236e:	81 11       	cpse	r24, r1
    2370:	09 c0       	rjmp	.+18     	; 0x2384 <check_bearbeitungsanzeige+0x98>
    2372:	80 91 8a 10 	lds	r24, 0x108A	; 0x80108a <i_Liste>
    2376:	88 5f       	subi	r24, 0xF8	; 248
    2378:	80 93 8a 10 	sts	0x108A, r24	; 0x80108a <i_Liste>
    237c:	82 e0       	ldi	r24, 0x02	; 2
    237e:	93 e0       	ldi	r25, 0x03	; 3
    2380:	0c 94 ee 07 	jmp	0xfdc	; 0xfdc <erstelle_Liste_name>
    2384:	08 95       	ret

00002386 <check_ceinstanzeige>:
    2386:	90 e0       	ldi	r25, 0x00	; 0
    2388:	fc 01       	movw	r30, r24
    238a:	31 97       	sbiw	r30, 0x01	; 1
    238c:	e8 30       	cpi	r30, 0x08	; 8
    238e:	f1 05       	cpc	r31, r1
    2390:	08 f0       	brcs	.+2      	; 0x2394 <check_ceinstanzeige+0xe>
    2392:	5e c0       	rjmp	.+188    	; 0x2450 <check_ceinstanzeige+0xca>
    2394:	88 27       	eor	r24, r24
    2396:	e7 54       	subi	r30, 0x47	; 71
    2398:	ff 4f       	sbci	r31, 0xFF	; 255
    239a:	8f 4f       	sbci	r24, 0xFF	; 255
    239c:	0c 94 bf 32 	jmp	0x657e	; 0x657e <__tablejump2__>
    23a0:	10 92 3f 08 	sts	0x083F, r1	; 0x80083f <block_list_runter>
    23a4:	80 91 53 0c 	lds	r24, 0x0C53	; 0x800c53 <block_list_hoch>
    23a8:	81 11       	cpse	r24, r1
    23aa:	52 c0       	rjmp	.+164    	; 0x2450 <check_ceinstanzeige+0xca>
    23ac:	80 91 8a 10 	lds	r24, 0x108A	; 0x80108a <i_Liste>
    23b0:	84 50       	subi	r24, 0x04	; 4
    23b2:	80 93 8a 10 	sts	0x108A, r24	; 0x80108a <i_Liste>
    23b6:	87 ef       	ldi	r24, 0xF7	; 247
    23b8:	92 e0       	ldi	r25, 0x02	; 2
    23ba:	0c 94 cb 02 	jmp	0x596	; 0x596 <erstelle_Liste_zutat>
    23be:	08 95       	ret
    23c0:	10 92 53 0c 	sts	0x0C53, r1	; 0x800c53 <block_list_hoch>
    23c4:	80 91 3f 08 	lds	r24, 0x083F	; 0x80083f <block_list_runter>
    23c8:	81 11       	cpse	r24, r1
    23ca:	42 c0       	rjmp	.+132    	; 0x2450 <check_ceinstanzeige+0xca>
    23cc:	80 91 8a 10 	lds	r24, 0x108A	; 0x80108a <i_Liste>
    23d0:	8c 5f       	subi	r24, 0xFC	; 252
    23d2:	80 93 8a 10 	sts	0x108A, r24	; 0x80108a <i_Liste>
    23d6:	87 ef       	ldi	r24, 0xF7	; 247
    23d8:	92 e0       	ldi	r25, 0x02	; 2
    23da:	0c 94 cb 02 	jmp	0x596	; 0x596 <erstelle_Liste_zutat>
    23de:	08 95       	ret
    23e0:	10 92 53 0c 	sts	0x0C53, r1	; 0x800c53 <block_list_hoch>
    23e4:	10 92 3f 08 	sts	0x083F, r1	; 0x80083f <block_list_runter>
    23e8:	81 e0       	ldi	r24, 0x01	; 1
    23ea:	0c 94 ea 20 	jmp	0x41d4	; 0x41d4 <nextion_change_page>
    23ee:	08 95       	ret
    23f0:	10 92 53 0c 	sts	0x0C53, r1	; 0x800c53 <block_list_hoch>
    23f4:	10 92 3f 08 	sts	0x083F, r1	; 0x80083f <block_list_runter>
    23f8:	10 92 8a 10 	sts	0x108A, r1	; 0x80108a <i_Liste>
    23fc:	e0 91 36 08 	lds	r30, 0x0836	; 0x800836 <aktuellesGetraenk_file>
    2400:	f0 91 37 08 	lds	r31, 0x0837	; 0x800837 <aktuellesGetraenk_file+0x1>
    2404:	80 81       	ld	r24, Z
    2406:	04 d9       	rcall	.-3576   	; 0x1610 <loesche_FIle>
    2408:	e0 91 c4 10 	lds	r30, 0x10C4	; 0x8010c4 <aktuellesGetraenk>
    240c:	f0 91 c5 10 	lds	r31, 0x10C5	; 0x8010c5 <aktuellesGetraenk+0x1>
    2410:	60 81       	ld	r22, Z
    2412:	71 81       	ldd	r23, Z+1	; 0x01
    2414:	a0 91 36 08 	lds	r26, 0x0836	; 0x800836 <aktuellesGetraenk_file>
    2418:	b0 91 37 08 	lds	r27, 0x0837	; 0x800837 <aktuellesGetraenk_file+0x1>
    241c:	42 81       	ldd	r20, Z+2	; 0x02
    241e:	8c 91       	ld	r24, X
    2420:	0e 94 c3 09 	call	0x1386	; 0x1386 <erstelle_File>
    2424:	80 91 c4 10 	lds	r24, 0x10C4	; 0x8010c4 <aktuellesGetraenk>
    2428:	90 91 c5 10 	lds	r25, 0x10C5	; 0x8010c5 <aktuellesGetraenk+0x1>
    242c:	0c 94 f8 03 	jmp	0x7f0	; 0x7f0 <setze_startanzeige>
    2430:	08 95       	ret
    2432:	80 e0       	ldi	r24, 0x00	; 0
    2434:	0c 94 57 01 	jmp	0x2ae	; 0x2ae <schreibe_Menge_in_Getraenk>
    2438:	08 95       	ret
    243a:	81 e0       	ldi	r24, 0x01	; 1
    243c:	0c 94 57 01 	jmp	0x2ae	; 0x2ae <schreibe_Menge_in_Getraenk>
    2440:	08 95       	ret
    2442:	82 e0       	ldi	r24, 0x02	; 2
    2444:	0c 94 57 01 	jmp	0x2ae	; 0x2ae <schreibe_Menge_in_Getraenk>
    2448:	08 95       	ret
    244a:	83 e0       	ldi	r24, 0x03	; 3
    244c:	0c 94 57 01 	jmp	0x2ae	; 0x2ae <schreibe_Menge_in_Getraenk>
    2450:	08 95       	ret

00002452 <check_reinanzeige1>:
    2452:	81 30       	cpi	r24, 0x01	; 1
    2454:	19 f0       	breq	.+6      	; 0x245c <check_reinanzeige1+0xa>
    2456:	82 30       	cpi	r24, 0x02	; 2
    2458:	29 f0       	breq	.+10     	; 0x2464 <check_reinanzeige1+0x12>
    245a:	08 95       	ret
    245c:	87 e0       	ldi	r24, 0x07	; 7
    245e:	0c 94 ea 20 	jmp	0x41d4	; 0x41d4 <nextion_change_page>
    2462:	08 95       	ret
    2464:	8b e0       	ldi	r24, 0x0B	; 11
    2466:	0c 94 ea 20 	jmp	0x41d4	; 0x41d4 <nextion_change_page>
    246a:	08 95       	ret

0000246c <check_reinanzeige2>:
    246c:	1f 93       	push	r17
    246e:	cf 93       	push	r28
    2470:	df 93       	push	r29
    2472:	81 30       	cpi	r24, 0x01	; 1
    2474:	19 f0       	breq	.+6      	; 0x247c <check_reinanzeige2+0x10>
    2476:	82 30       	cpi	r24, 0x02	; 2
    2478:	29 f0       	breq	.+10     	; 0x2484 <check_reinanzeige2+0x18>
    247a:	3a c0       	rjmp	.+116    	; 0x24f0 <check_reinanzeige2+0x84>
    247c:	87 e0       	ldi	r24, 0x07	; 7
    247e:	0e 94 ea 20 	call	0x41d4	; 0x41d4 <nextion_change_page>
    2482:	36 c0       	rjmp	.+108    	; 0x24f0 <check_reinanzeige2+0x84>
    2484:	8c e0       	ldi	r24, 0x0C	; 12
    2486:	0e 94 ea 20 	call	0x41d4	; 0x41d4 <nextion_change_page>
    248a:	10 e0       	ldi	r17, 0x00	; 0
    248c:	80 91 be 10 	lds	r24, 0x10BE	; 0x8010be <stop>
    2490:	81 11       	cpse	r24, r1
    2492:	12 c0       	rjmp	.+36     	; 0x24b8 <check_reinanzeige2+0x4c>
    2494:	81 2f       	mov	r24, r17
    2496:	0e 94 23 02 	call	0x446	; 0x446 <schalte_pumpe_ein>
    249a:	c0 ed       	ldi	r28, 0xD0	; 208
    249c:	d7 e0       	ldi	r29, 0x07	; 7
    249e:	0e 94 b0 1f 	call	0x3f60	; 0x3f60 <check_Communication_Input_UART_1>
    24a2:	81 11       	cpse	r24, r1
    24a4:	0e 94 39 20 	call	0x4072	; 0x4072 <proceed_Communication_INPUT_UART_1>
    24a8:	8f e9       	ldi	r24, 0x9F	; 159
    24aa:	9f e0       	ldi	r25, 0x0F	; 15
    24ac:	01 97       	sbiw	r24, 0x01	; 1
    24ae:	f1 f7       	brne	.-4      	; 0x24ac <check_reinanzeige2+0x40>
    24b0:	00 c0       	rjmp	.+0      	; 0x24b2 <check_reinanzeige2+0x46>
    24b2:	00 00       	nop
    24b4:	21 97       	sbiw	r28, 0x01	; 1
    24b6:	99 f7       	brne	.-26     	; 0x249e <check_reinanzeige2+0x32>
    24b8:	81 2f       	mov	r24, r17
    24ba:	0e 94 5a 02 	call	0x4b4	; 0x4b4 <schalte_pumpe_aus>
    24be:	1f 5f       	subi	r17, 0xFF	; 255
    24c0:	1c 30       	cpi	r17, 0x0C	; 12
    24c2:	21 f7       	brne	.-56     	; 0x248c <check_reinanzeige2+0x20>
    24c4:	10 92 be 10 	sts	0x10BE, r1	; 0x8010be <stop>
    24c8:	81 e0       	ldi	r24, 0x01	; 1
    24ca:	0e 94 ea 20 	call	0x41d4	; 0x41d4 <nextion_change_page>
    24ce:	e0 91 02 08 	lds	r30, 0x0802	; 0x800802 <tail_getraenk_file>
    24d2:	f0 91 03 08 	lds	r31, 0x0803	; 0x800803 <tail_getraenk_file+0x1>
    24d6:	f0 93 37 08 	sts	0x0837, r31	; 0x800837 <aktuellesGetraenk_file+0x1>
    24da:	e0 93 36 08 	sts	0x0836, r30	; 0x800836 <aktuellesGetraenk_file>
    24de:	80 81       	ld	r24, Z
    24e0:	0e 94 73 06 	call	0xce6	; 0xce6 <lese_textfile_in_getraenk>
    24e4:	80 91 c4 10 	lds	r24, 0x10C4	; 0x8010c4 <aktuellesGetraenk>
    24e8:	90 91 c5 10 	lds	r25, 0x10C5	; 0x8010c5 <aktuellesGetraenk+0x1>
    24ec:	0e 94 f8 03 	call	0x7f0	; 0x7f0 <setze_startanzeige>
    24f0:	df 91       	pop	r29
    24f2:	cf 91       	pop	r28
    24f4:	1f 91       	pop	r17
    24f6:	08 95       	ret

000024f8 <check_reinanzeige3>:
    24f8:	81 30       	cpi	r24, 0x01	; 1
    24fa:	31 f4       	brne	.+12     	; 0x2508 <check_reinanzeige3+0x10>
    24fc:	87 e0       	ldi	r24, 0x07	; 7
    24fe:	0e 94 ea 20 	call	0x41d4	; 0x41d4 <nextion_change_page>
    2502:	81 e0       	ldi	r24, 0x01	; 1
    2504:	80 93 be 10 	sts	0x10BE, r24	; 0x8010be <stop>
    2508:	08 95       	ret

0000250a <check_infoanzeige>:
    250a:	81 30       	cpi	r24, 0x01	; 1
    250c:	19 f4       	brne	.+6      	; 0x2514 <check_infoanzeige+0xa>
    250e:	87 e0       	ldi	r24, 0x07	; 7
    2510:	0c 94 ea 20 	jmp	0x41d4	; 0x41d4 <nextion_change_page>
    2514:	08 95       	ret

00002516 <check_erstanzeige1>:
void check_erstanzeige1(uint8_t button)
{	
	// Initialisierung fr Gross-/Kleinschreib-Wechsel
	char wechsel = 0;
	
	switch (button)
    2516:	90 e0       	ldi	r25, 0x00	; 0
    2518:	fc 01       	movw	r30, r24
    251a:	31 97       	sbiw	r30, 0x01	; 1
    251c:	ef 31       	cpi	r30, 0x1F	; 31
    251e:	f1 05       	cpc	r31, r1
    2520:	08 f0       	brcs	.+2      	; 0x2524 <check_erstanzeige1+0xe>
    2522:	e0 c2       	rjmp	.+1472   	; 0x2ae4 <check_erstanzeige1+0x5ce>
    2524:	88 27       	eor	r24, r24
    2526:	ef 53       	subi	r30, 0x3F	; 63
    2528:	ff 4f       	sbci	r31, 0xFF	; 255
    252a:	8f 4f       	sbci	r24, 0xFF	; 255
    252c:	0c 94 bf 32 	jmp	0x657e	; 0x657e <__tablejump2__>
		case A:
/*		0x01 = 0b01
			- Buchstabe A gross/klein in buff_name[counter] schreiben
			- Counter inkrementieren fr nchste Buchstabenposition des Namens
*/
			if (Grossschreib == 1)
    2530:	80 91 3a 08 	lds	r24, 0x083A	; 0x80083a <Grossschreib>
    2534:	81 30       	cpi	r24, 0x01	; 1
    2536:	41 f4       	brne	.+16     	; 0x2548 <check_erstanzeige1+0x32>
			{
				buff_name[counter] = 'A';
    2538:	e0 91 5a 0d 	lds	r30, 0x0D5A	; 0x800d5a <counter>
    253c:	f0 e0       	ldi	r31, 0x00	; 0
    253e:	ee 59       	subi	r30, 0x9E	; 158
    2540:	f2 4f       	sbci	r31, 0xF2	; 242
    2542:	81 e4       	ldi	r24, 0x41	; 65
    2544:	80 83       	st	Z, r24
    2546:	07 c0       	rjmp	.+14     	; 0x2556 <check_erstanzeige1+0x40>
			}
			else
			{
				buff_name[counter] = 'a';
    2548:	e0 91 5a 0d 	lds	r30, 0x0D5A	; 0x800d5a <counter>
    254c:	f0 e0       	ldi	r31, 0x00	; 0
    254e:	ee 59       	subi	r30, 0x9E	; 158
    2550:	f2 4f       	sbci	r31, 0xF2	; 242
    2552:	81 e6       	ldi	r24, 0x61	; 97
    2554:	80 83       	st	Z, r24
			}
			counter++;
    2556:	80 91 5a 0d 	lds	r24, 0x0D5A	; 0x800d5a <counter>
    255a:	8f 5f       	subi	r24, 0xFF	; 255
    255c:	80 93 5a 0d 	sts	0x0D5A, r24	; 0x800d5a <counter>
		break;
    2560:	c1 c2       	rjmp	.+1410   	; 0x2ae4 <check_erstanzeige1+0x5ce>
		case B:
/*		0x02 = 0b02
			- Buchstabe B gross/klein in buff_name[counter] schreiben
			- Counter inkrementieren fr nchste Buchstabenposition des Namens
*/
			if (Grossschreib == 1)
    2562:	80 91 3a 08 	lds	r24, 0x083A	; 0x80083a <Grossschreib>
    2566:	81 30       	cpi	r24, 0x01	; 1
    2568:	41 f4       	brne	.+16     	; 0x257a <check_erstanzeige1+0x64>
			{
				buff_name[counter] = 'B';
    256a:	e0 91 5a 0d 	lds	r30, 0x0D5A	; 0x800d5a <counter>
    256e:	f0 e0       	ldi	r31, 0x00	; 0
    2570:	ee 59       	subi	r30, 0x9E	; 158
    2572:	f2 4f       	sbci	r31, 0xF2	; 242
    2574:	82 e4       	ldi	r24, 0x42	; 66
    2576:	80 83       	st	Z, r24
    2578:	07 c0       	rjmp	.+14     	; 0x2588 <check_erstanzeige1+0x72>
			}
			else
			{
				buff_name[counter] = 'b';
    257a:	e0 91 5a 0d 	lds	r30, 0x0D5A	; 0x800d5a <counter>
    257e:	f0 e0       	ldi	r31, 0x00	; 0
    2580:	ee 59       	subi	r30, 0x9E	; 158
    2582:	f2 4f       	sbci	r31, 0xF2	; 242
    2584:	82 e6       	ldi	r24, 0x62	; 98
    2586:	80 83       	st	Z, r24
			}
			counter++;
    2588:	80 91 5a 0d 	lds	r24, 0x0D5A	; 0x800d5a <counter>
    258c:	8f 5f       	subi	r24, 0xFF	; 255
    258e:	80 93 5a 0d 	sts	0x0D5A, r24	; 0x800d5a <counter>
		break;
    2592:	a8 c2       	rjmp	.+1360   	; 0x2ae4 <check_erstanzeige1+0x5ce>
		case C:
/*		0x03 = 0b03
			- Buchstabe C gross/klein in buff_name[counter] schreiben
			- Counter inkrementieren fr nchste Buchstabenposition des Namens
*/
			if (Grossschreib == 1)
    2594:	80 91 3a 08 	lds	r24, 0x083A	; 0x80083a <Grossschreib>
    2598:	81 30       	cpi	r24, 0x01	; 1
    259a:	41 f4       	brne	.+16     	; 0x25ac <check_erstanzeige1+0x96>
			{
				buff_name[counter] = 'C';
    259c:	e0 91 5a 0d 	lds	r30, 0x0D5A	; 0x800d5a <counter>
    25a0:	f0 e0       	ldi	r31, 0x00	; 0
    25a2:	ee 59       	subi	r30, 0x9E	; 158
    25a4:	f2 4f       	sbci	r31, 0xF2	; 242
    25a6:	83 e4       	ldi	r24, 0x43	; 67
    25a8:	80 83       	st	Z, r24
    25aa:	07 c0       	rjmp	.+14     	; 0x25ba <check_erstanzeige1+0xa4>
			}
			else
			{
				buff_name[counter] = 'C';
    25ac:	e0 91 5a 0d 	lds	r30, 0x0D5A	; 0x800d5a <counter>
    25b0:	f0 e0       	ldi	r31, 0x00	; 0
    25b2:	ee 59       	subi	r30, 0x9E	; 158
    25b4:	f2 4f       	sbci	r31, 0xF2	; 242
    25b6:	83 e4       	ldi	r24, 0x43	; 67
    25b8:	80 83       	st	Z, r24
			}
			counter++;
    25ba:	80 91 5a 0d 	lds	r24, 0x0D5A	; 0x800d5a <counter>
    25be:	8f 5f       	subi	r24, 0xFF	; 255
    25c0:	80 93 5a 0d 	sts	0x0D5A, r24	; 0x800d5a <counter>
		break;
    25c4:	8f c2       	rjmp	.+1310   	; 0x2ae4 <check_erstanzeige1+0x5ce>
		case D:
/*		0x04 = 0b04
			- Buchstabe D gross/klein in buff_name[counter] schreiben
			- Counter inkrementieren fr nchste Buchstabenposition des Namens
*/
			if (Grossschreib == 1)
    25c6:	80 91 3a 08 	lds	r24, 0x083A	; 0x80083a <Grossschreib>
    25ca:	81 30       	cpi	r24, 0x01	; 1
    25cc:	41 f4       	brne	.+16     	; 0x25de <check_erstanzeige1+0xc8>
			{
				buff_name[counter] = 'D';
    25ce:	e0 91 5a 0d 	lds	r30, 0x0D5A	; 0x800d5a <counter>
    25d2:	f0 e0       	ldi	r31, 0x00	; 0
    25d4:	ee 59       	subi	r30, 0x9E	; 158
    25d6:	f2 4f       	sbci	r31, 0xF2	; 242
    25d8:	84 e4       	ldi	r24, 0x44	; 68
    25da:	80 83       	st	Z, r24
    25dc:	07 c0       	rjmp	.+14     	; 0x25ec <check_erstanzeige1+0xd6>
			}
			else
			{
				buff_name[counter] = 'd';
    25de:	e0 91 5a 0d 	lds	r30, 0x0D5A	; 0x800d5a <counter>
    25e2:	f0 e0       	ldi	r31, 0x00	; 0
    25e4:	ee 59       	subi	r30, 0x9E	; 158
    25e6:	f2 4f       	sbci	r31, 0xF2	; 242
    25e8:	84 e6       	ldi	r24, 0x64	; 100
    25ea:	80 83       	st	Z, r24
			}
			counter++;
    25ec:	80 91 5a 0d 	lds	r24, 0x0D5A	; 0x800d5a <counter>
    25f0:	8f 5f       	subi	r24, 0xFF	; 255
    25f2:	80 93 5a 0d 	sts	0x0D5A, r24	; 0x800d5a <counter>
		break;
    25f6:	76 c2       	rjmp	.+1260   	; 0x2ae4 <check_erstanzeige1+0x5ce>
		case E:
/*		0x05 = 0b05
			- Buchstabe E gross/klein in buff_name[counter] schreiben
			- Counter inkrementieren fr nchste Buchstabenposition des Namens
*/
			if (Grossschreib == 1)
    25f8:	80 91 3a 08 	lds	r24, 0x083A	; 0x80083a <Grossschreib>
    25fc:	81 30       	cpi	r24, 0x01	; 1
    25fe:	41 f4       	brne	.+16     	; 0x2610 <check_erstanzeige1+0xfa>
			{
				buff_name[counter] = 'E';
    2600:	e0 91 5a 0d 	lds	r30, 0x0D5A	; 0x800d5a <counter>
    2604:	f0 e0       	ldi	r31, 0x00	; 0
    2606:	ee 59       	subi	r30, 0x9E	; 158
    2608:	f2 4f       	sbci	r31, 0xF2	; 242
    260a:	85 e4       	ldi	r24, 0x45	; 69
    260c:	80 83       	st	Z, r24
    260e:	07 c0       	rjmp	.+14     	; 0x261e <check_erstanzeige1+0x108>
			}
			else
			{
				buff_name[counter] = 'e';
    2610:	e0 91 5a 0d 	lds	r30, 0x0D5A	; 0x800d5a <counter>
    2614:	f0 e0       	ldi	r31, 0x00	; 0
    2616:	ee 59       	subi	r30, 0x9E	; 158
    2618:	f2 4f       	sbci	r31, 0xF2	; 242
    261a:	85 e6       	ldi	r24, 0x65	; 101
    261c:	80 83       	st	Z, r24
			}
			counter++;
    261e:	80 91 5a 0d 	lds	r24, 0x0D5A	; 0x800d5a <counter>
    2622:	8f 5f       	subi	r24, 0xFF	; 255
    2624:	80 93 5a 0d 	sts	0x0D5A, r24	; 0x800d5a <counter>
		break;
    2628:	5d c2       	rjmp	.+1210   	; 0x2ae4 <check_erstanzeige1+0x5ce>
		case F:
/*		0x06 = 0b06
			- Buchstabe F gross/klein in buff_name[counter] schreiben
			- Counter inkrementieren fr nchste Buchstabenposition des Namens
*/
			if (Grossschreib == 1)
    262a:	80 91 3a 08 	lds	r24, 0x083A	; 0x80083a <Grossschreib>
    262e:	81 30       	cpi	r24, 0x01	; 1
    2630:	41 f4       	brne	.+16     	; 0x2642 <check_erstanzeige1+0x12c>
			{
				buff_name[counter] = 'F';
    2632:	e0 91 5a 0d 	lds	r30, 0x0D5A	; 0x800d5a <counter>
    2636:	f0 e0       	ldi	r31, 0x00	; 0
    2638:	ee 59       	subi	r30, 0x9E	; 158
    263a:	f2 4f       	sbci	r31, 0xF2	; 242
    263c:	86 e4       	ldi	r24, 0x46	; 70
    263e:	80 83       	st	Z, r24
    2640:	07 c0       	rjmp	.+14     	; 0x2650 <check_erstanzeige1+0x13a>
			}
			else
			{
				buff_name[counter] = 'f';
    2642:	e0 91 5a 0d 	lds	r30, 0x0D5A	; 0x800d5a <counter>
    2646:	f0 e0       	ldi	r31, 0x00	; 0
    2648:	ee 59       	subi	r30, 0x9E	; 158
    264a:	f2 4f       	sbci	r31, 0xF2	; 242
    264c:	86 e6       	ldi	r24, 0x66	; 102
    264e:	80 83       	st	Z, r24
			}
			counter++;
    2650:	80 91 5a 0d 	lds	r24, 0x0D5A	; 0x800d5a <counter>
    2654:	8f 5f       	subi	r24, 0xFF	; 255
    2656:	80 93 5a 0d 	sts	0x0D5A, r24	; 0x800d5a <counter>
		break;
    265a:	44 c2       	rjmp	.+1160   	; 0x2ae4 <check_erstanzeige1+0x5ce>
		case G:
/*		0x07 = 0b07
			- Buchstabe G gross/klein in buff_name[counter] schreiben
			- Counter inkrementieren fr nchste Buchstabenposition des Namens
*/
			if (Grossschreib == 1)
    265c:	80 91 3a 08 	lds	r24, 0x083A	; 0x80083a <Grossschreib>
    2660:	81 30       	cpi	r24, 0x01	; 1
    2662:	41 f4       	brne	.+16     	; 0x2674 <check_erstanzeige1+0x15e>
			{
				buff_name[counter] = 'G';
    2664:	e0 91 5a 0d 	lds	r30, 0x0D5A	; 0x800d5a <counter>
    2668:	f0 e0       	ldi	r31, 0x00	; 0
    266a:	ee 59       	subi	r30, 0x9E	; 158
    266c:	f2 4f       	sbci	r31, 0xF2	; 242
    266e:	87 e4       	ldi	r24, 0x47	; 71
    2670:	80 83       	st	Z, r24
    2672:	07 c0       	rjmp	.+14     	; 0x2682 <check_erstanzeige1+0x16c>
			}
			else
			{
				buff_name[counter] = 'g';
    2674:	e0 91 5a 0d 	lds	r30, 0x0D5A	; 0x800d5a <counter>
    2678:	f0 e0       	ldi	r31, 0x00	; 0
    267a:	ee 59       	subi	r30, 0x9E	; 158
    267c:	f2 4f       	sbci	r31, 0xF2	; 242
    267e:	87 e6       	ldi	r24, 0x67	; 103
    2680:	80 83       	st	Z, r24
			}
			counter++;
    2682:	80 91 5a 0d 	lds	r24, 0x0D5A	; 0x800d5a <counter>
    2686:	8f 5f       	subi	r24, 0xFF	; 255
    2688:	80 93 5a 0d 	sts	0x0D5A, r24	; 0x800d5a <counter>
		break;
    268c:	2b c2       	rjmp	.+1110   	; 0x2ae4 <check_erstanzeige1+0x5ce>
		case H:
/*		0x08 = 0b08
			- Buchstabe H gross/klein in buff_name[counter] schreiben
			- Counter inkrementieren fr nchste Buchstabenposition des Namens
*/
			if (Grossschreib == 1)
    268e:	80 91 3a 08 	lds	r24, 0x083A	; 0x80083a <Grossschreib>
    2692:	81 30       	cpi	r24, 0x01	; 1
    2694:	41 f4       	brne	.+16     	; 0x26a6 <check_erstanzeige1+0x190>
			{
				buff_name[counter] = 'H';
    2696:	e0 91 5a 0d 	lds	r30, 0x0D5A	; 0x800d5a <counter>
    269a:	f0 e0       	ldi	r31, 0x00	; 0
    269c:	ee 59       	subi	r30, 0x9E	; 158
    269e:	f2 4f       	sbci	r31, 0xF2	; 242
    26a0:	88 e4       	ldi	r24, 0x48	; 72
    26a2:	80 83       	st	Z, r24
    26a4:	07 c0       	rjmp	.+14     	; 0x26b4 <check_erstanzeige1+0x19e>
			}
			else
			{
				buff_name[counter] = 'h';
    26a6:	e0 91 5a 0d 	lds	r30, 0x0D5A	; 0x800d5a <counter>
    26aa:	f0 e0       	ldi	r31, 0x00	; 0
    26ac:	ee 59       	subi	r30, 0x9E	; 158
    26ae:	f2 4f       	sbci	r31, 0xF2	; 242
    26b0:	88 e6       	ldi	r24, 0x68	; 104
    26b2:	80 83       	st	Z, r24
			}
			counter++;
    26b4:	80 91 5a 0d 	lds	r24, 0x0D5A	; 0x800d5a <counter>
    26b8:	8f 5f       	subi	r24, 0xFF	; 255
    26ba:	80 93 5a 0d 	sts	0x0D5A, r24	; 0x800d5a <counter>
		break;
    26be:	12 c2       	rjmp	.+1060   	; 0x2ae4 <check_erstanzeige1+0x5ce>
		case I:
/*		0x09 = 0b09
			- Buchstabe I gross/klein in buff_name[counter] schreiben
			- Counter inkrementieren fr nchste Buchstabenposition des Namens
*/
			if (Grossschreib == 1)
    26c0:	80 91 3a 08 	lds	r24, 0x083A	; 0x80083a <Grossschreib>
    26c4:	81 30       	cpi	r24, 0x01	; 1
    26c6:	41 f4       	brne	.+16     	; 0x26d8 <check_erstanzeige1+0x1c2>
			{
				buff_name[counter] = 'I';
    26c8:	e0 91 5a 0d 	lds	r30, 0x0D5A	; 0x800d5a <counter>
    26cc:	f0 e0       	ldi	r31, 0x00	; 0
    26ce:	ee 59       	subi	r30, 0x9E	; 158
    26d0:	f2 4f       	sbci	r31, 0xF2	; 242
    26d2:	89 e4       	ldi	r24, 0x49	; 73
    26d4:	80 83       	st	Z, r24
    26d6:	07 c0       	rjmp	.+14     	; 0x26e6 <check_erstanzeige1+0x1d0>
			}
			else
			{
				buff_name[counter] = 'i';
    26d8:	e0 91 5a 0d 	lds	r30, 0x0D5A	; 0x800d5a <counter>
    26dc:	f0 e0       	ldi	r31, 0x00	; 0
    26de:	ee 59       	subi	r30, 0x9E	; 158
    26e0:	f2 4f       	sbci	r31, 0xF2	; 242
    26e2:	89 e6       	ldi	r24, 0x69	; 105
    26e4:	80 83       	st	Z, r24
			}
		counter++;
    26e6:	80 91 5a 0d 	lds	r24, 0x0D5A	; 0x800d5a <counter>
    26ea:	8f 5f       	subi	r24, 0xFF	; 255
    26ec:	80 93 5a 0d 	sts	0x0D5A, r24	; 0x800d5a <counter>
		break;
    26f0:	f9 c1       	rjmp	.+1010   	; 0x2ae4 <check_erstanzeige1+0x5ce>
		case J:
/*		0x0A = 0b10
			- Buchstabe J gross/klein in buff_name[counter] schreiben
			- Counter inkrementieren fr nchste Buchstabenposition des Namens
*/
			if (Grossschreib == 1)
    26f2:	80 91 3a 08 	lds	r24, 0x083A	; 0x80083a <Grossschreib>
    26f6:	81 30       	cpi	r24, 0x01	; 1
    26f8:	41 f4       	brne	.+16     	; 0x270a <check_erstanzeige1+0x1f4>
			{
				buff_name[counter] = 'J';
    26fa:	e0 91 5a 0d 	lds	r30, 0x0D5A	; 0x800d5a <counter>
    26fe:	f0 e0       	ldi	r31, 0x00	; 0
    2700:	ee 59       	subi	r30, 0x9E	; 158
    2702:	f2 4f       	sbci	r31, 0xF2	; 242
    2704:	8a e4       	ldi	r24, 0x4A	; 74
    2706:	80 83       	st	Z, r24
    2708:	07 c0       	rjmp	.+14     	; 0x2718 <check_erstanzeige1+0x202>
			}
			else
			{
				buff_name[counter] = 'j';
    270a:	e0 91 5a 0d 	lds	r30, 0x0D5A	; 0x800d5a <counter>
    270e:	f0 e0       	ldi	r31, 0x00	; 0
    2710:	ee 59       	subi	r30, 0x9E	; 158
    2712:	f2 4f       	sbci	r31, 0xF2	; 242
    2714:	8a e6       	ldi	r24, 0x6A	; 106
    2716:	80 83       	st	Z, r24
			}
			counter++;
    2718:	80 91 5a 0d 	lds	r24, 0x0D5A	; 0x800d5a <counter>
    271c:	8f 5f       	subi	r24, 0xFF	; 255
    271e:	80 93 5a 0d 	sts	0x0D5A, r24	; 0x800d5a <counter>
		break;
    2722:	e0 c1       	rjmp	.+960    	; 0x2ae4 <check_erstanzeige1+0x5ce>
		case K:
/*		0x0B = 0b11
			- Buchstabe K gross/klein in buff_name[counter] schreiben
			- Counter inkrementieren fr nchste Buchstabenposition des Namens
*/
			if (Grossschreib == 1)
    2724:	80 91 3a 08 	lds	r24, 0x083A	; 0x80083a <Grossschreib>
    2728:	81 30       	cpi	r24, 0x01	; 1
    272a:	41 f4       	brne	.+16     	; 0x273c <check_erstanzeige1+0x226>
			{
				buff_name[counter] = 'K';
    272c:	e0 91 5a 0d 	lds	r30, 0x0D5A	; 0x800d5a <counter>
    2730:	f0 e0       	ldi	r31, 0x00	; 0
    2732:	ee 59       	subi	r30, 0x9E	; 158
    2734:	f2 4f       	sbci	r31, 0xF2	; 242
    2736:	8b e4       	ldi	r24, 0x4B	; 75
    2738:	80 83       	st	Z, r24
    273a:	07 c0       	rjmp	.+14     	; 0x274a <check_erstanzeige1+0x234>
			}
			else
			{
				buff_name[counter] = 'k';
    273c:	e0 91 5a 0d 	lds	r30, 0x0D5A	; 0x800d5a <counter>
    2740:	f0 e0       	ldi	r31, 0x00	; 0
    2742:	ee 59       	subi	r30, 0x9E	; 158
    2744:	f2 4f       	sbci	r31, 0xF2	; 242
    2746:	8b e6       	ldi	r24, 0x6B	; 107
    2748:	80 83       	st	Z, r24
			}
			counter++;
    274a:	80 91 5a 0d 	lds	r24, 0x0D5A	; 0x800d5a <counter>
    274e:	8f 5f       	subi	r24, 0xFF	; 255
    2750:	80 93 5a 0d 	sts	0x0D5A, r24	; 0x800d5a <counter>
		break;
    2754:	c7 c1       	rjmp	.+910    	; 0x2ae4 <check_erstanzeige1+0x5ce>
		case L:
/*		0x0C = 0b12
			- Buchstabe L gross/klein in buff_name[counter] schreiben
			- Counter inkrementieren fr nchste Buchstabenposition des Namens
*/
			if (Grossschreib == 1)
    2756:	80 91 3a 08 	lds	r24, 0x083A	; 0x80083a <Grossschreib>
    275a:	81 30       	cpi	r24, 0x01	; 1
    275c:	41 f4       	brne	.+16     	; 0x276e <check_erstanzeige1+0x258>
			{
				buff_name[counter] = 'L';
    275e:	e0 91 5a 0d 	lds	r30, 0x0D5A	; 0x800d5a <counter>
    2762:	f0 e0       	ldi	r31, 0x00	; 0
    2764:	ee 59       	subi	r30, 0x9E	; 158
    2766:	f2 4f       	sbci	r31, 0xF2	; 242
    2768:	8c e4       	ldi	r24, 0x4C	; 76
    276a:	80 83       	st	Z, r24
    276c:	07 c0       	rjmp	.+14     	; 0x277c <check_erstanzeige1+0x266>
			}
			else
			{
				buff_name[counter] = 'l';
    276e:	e0 91 5a 0d 	lds	r30, 0x0D5A	; 0x800d5a <counter>
    2772:	f0 e0       	ldi	r31, 0x00	; 0
    2774:	ee 59       	subi	r30, 0x9E	; 158
    2776:	f2 4f       	sbci	r31, 0xF2	; 242
    2778:	8c e6       	ldi	r24, 0x6C	; 108
    277a:	80 83       	st	Z, r24
			}
			counter++;
    277c:	80 91 5a 0d 	lds	r24, 0x0D5A	; 0x800d5a <counter>
    2780:	8f 5f       	subi	r24, 0xFF	; 255
    2782:	80 93 5a 0d 	sts	0x0D5A, r24	; 0x800d5a <counter>
		break;
    2786:	ae c1       	rjmp	.+860    	; 0x2ae4 <check_erstanzeige1+0x5ce>
		case M:
/*		0x0D = 0b13
			- Buchstabe M gross/klein in buff_name[counter] schreiben
			- Counter inkrementieren fr nchste Buchstabenposition des Namens
*/
			if (Grossschreib == 1)
    2788:	80 91 3a 08 	lds	r24, 0x083A	; 0x80083a <Grossschreib>
    278c:	81 30       	cpi	r24, 0x01	; 1
    278e:	41 f4       	brne	.+16     	; 0x27a0 <check_erstanzeige1+0x28a>
			{
				buff_name[counter] = 'M';
    2790:	e0 91 5a 0d 	lds	r30, 0x0D5A	; 0x800d5a <counter>
    2794:	f0 e0       	ldi	r31, 0x00	; 0
    2796:	ee 59       	subi	r30, 0x9E	; 158
    2798:	f2 4f       	sbci	r31, 0xF2	; 242
    279a:	8d e4       	ldi	r24, 0x4D	; 77
    279c:	80 83       	st	Z, r24
    279e:	07 c0       	rjmp	.+14     	; 0x27ae <check_erstanzeige1+0x298>
			}
			else
			{
				buff_name[counter] = 'm';
    27a0:	e0 91 5a 0d 	lds	r30, 0x0D5A	; 0x800d5a <counter>
    27a4:	f0 e0       	ldi	r31, 0x00	; 0
    27a6:	ee 59       	subi	r30, 0x9E	; 158
    27a8:	f2 4f       	sbci	r31, 0xF2	; 242
    27aa:	8d e6       	ldi	r24, 0x6D	; 109
    27ac:	80 83       	st	Z, r24
			}
			counter++;
    27ae:	80 91 5a 0d 	lds	r24, 0x0D5A	; 0x800d5a <counter>
    27b2:	8f 5f       	subi	r24, 0xFF	; 255
    27b4:	80 93 5a 0d 	sts	0x0D5A, r24	; 0x800d5a <counter>
		break;
    27b8:	95 c1       	rjmp	.+810    	; 0x2ae4 <check_erstanzeige1+0x5ce>
		case N:
/*		0x0E = 0b14
			- Buchstabe N gross/klein in buff_name[counter] schreiben
			- Counter inkrementieren fr nchste Buchstabenposition des Namens
*/
			if (Grossschreib == 1)
    27ba:	80 91 3a 08 	lds	r24, 0x083A	; 0x80083a <Grossschreib>
    27be:	81 30       	cpi	r24, 0x01	; 1
    27c0:	41 f4       	brne	.+16     	; 0x27d2 <check_erstanzeige1+0x2bc>
			{
				buff_name[counter] = 'N';
    27c2:	e0 91 5a 0d 	lds	r30, 0x0D5A	; 0x800d5a <counter>
    27c6:	f0 e0       	ldi	r31, 0x00	; 0
    27c8:	ee 59       	subi	r30, 0x9E	; 158
    27ca:	f2 4f       	sbci	r31, 0xF2	; 242
    27cc:	8e e4       	ldi	r24, 0x4E	; 78
    27ce:	80 83       	st	Z, r24
    27d0:	07 c0       	rjmp	.+14     	; 0x27e0 <check_erstanzeige1+0x2ca>
			}
			else
			{
				buff_name[counter] = 'n';
    27d2:	e0 91 5a 0d 	lds	r30, 0x0D5A	; 0x800d5a <counter>
    27d6:	f0 e0       	ldi	r31, 0x00	; 0
    27d8:	ee 59       	subi	r30, 0x9E	; 158
    27da:	f2 4f       	sbci	r31, 0xF2	; 242
    27dc:	8e e6       	ldi	r24, 0x6E	; 110
    27de:	80 83       	st	Z, r24
			}
			counter++;
    27e0:	80 91 5a 0d 	lds	r24, 0x0D5A	; 0x800d5a <counter>
    27e4:	8f 5f       	subi	r24, 0xFF	; 255
    27e6:	80 93 5a 0d 	sts	0x0D5A, r24	; 0x800d5a <counter>
		break;
    27ea:	7c c1       	rjmp	.+760    	; 0x2ae4 <check_erstanzeige1+0x5ce>
		case O:
/*		0x0F = 0b15
			- Buchstabe O gross/klein in buff_name[counter] schreiben
			- Counter inkrementieren fr nchste Buchstabenposition des Namens
*/
			if (Grossschreib == 1)
    27ec:	80 91 3a 08 	lds	r24, 0x083A	; 0x80083a <Grossschreib>
    27f0:	81 30       	cpi	r24, 0x01	; 1
    27f2:	41 f4       	brne	.+16     	; 0x2804 <check_erstanzeige1+0x2ee>
			{
				buff_name[counter] = 'O';
    27f4:	e0 91 5a 0d 	lds	r30, 0x0D5A	; 0x800d5a <counter>
    27f8:	f0 e0       	ldi	r31, 0x00	; 0
    27fa:	ee 59       	subi	r30, 0x9E	; 158
    27fc:	f2 4f       	sbci	r31, 0xF2	; 242
    27fe:	8f e4       	ldi	r24, 0x4F	; 79
    2800:	80 83       	st	Z, r24
    2802:	07 c0       	rjmp	.+14     	; 0x2812 <check_erstanzeige1+0x2fc>
			}
			else
			{
				buff_name[counter] = 'o';
    2804:	e0 91 5a 0d 	lds	r30, 0x0D5A	; 0x800d5a <counter>
    2808:	f0 e0       	ldi	r31, 0x00	; 0
    280a:	ee 59       	subi	r30, 0x9E	; 158
    280c:	f2 4f       	sbci	r31, 0xF2	; 242
    280e:	8f e6       	ldi	r24, 0x6F	; 111
    2810:	80 83       	st	Z, r24
			}
			counter++;
    2812:	80 91 5a 0d 	lds	r24, 0x0D5A	; 0x800d5a <counter>
    2816:	8f 5f       	subi	r24, 0xFF	; 255
    2818:	80 93 5a 0d 	sts	0x0D5A, r24	; 0x800d5a <counter>
		break;
    281c:	63 c1       	rjmp	.+710    	; 0x2ae4 <check_erstanzeige1+0x5ce>
		case P:
/*		0x10 = 0b16
			- Buchstabe P gross/klein in buff_name[counter] schreiben
			- Counter inkrementieren fr nchste Buchstabenposition des Namens
*/
			if (Grossschreib == 1)
    281e:	80 91 3a 08 	lds	r24, 0x083A	; 0x80083a <Grossschreib>
    2822:	81 30       	cpi	r24, 0x01	; 1
    2824:	41 f4       	brne	.+16     	; 0x2836 <check_erstanzeige1+0x320>
			{
				buff_name[counter] = 'P';
    2826:	e0 91 5a 0d 	lds	r30, 0x0D5A	; 0x800d5a <counter>
    282a:	f0 e0       	ldi	r31, 0x00	; 0
    282c:	ee 59       	subi	r30, 0x9E	; 158
    282e:	f2 4f       	sbci	r31, 0xF2	; 242
    2830:	80 e5       	ldi	r24, 0x50	; 80
    2832:	80 83       	st	Z, r24
    2834:	07 c0       	rjmp	.+14     	; 0x2844 <check_erstanzeige1+0x32e>
			}
			else
			{
				buff_name[counter] = 'p';
    2836:	e0 91 5a 0d 	lds	r30, 0x0D5A	; 0x800d5a <counter>
    283a:	f0 e0       	ldi	r31, 0x00	; 0
    283c:	ee 59       	subi	r30, 0x9E	; 158
    283e:	f2 4f       	sbci	r31, 0xF2	; 242
    2840:	80 e7       	ldi	r24, 0x70	; 112
    2842:	80 83       	st	Z, r24
			}
		counter++;
    2844:	80 91 5a 0d 	lds	r24, 0x0D5A	; 0x800d5a <counter>
    2848:	8f 5f       	subi	r24, 0xFF	; 255
    284a:	80 93 5a 0d 	sts	0x0D5A, r24	; 0x800d5a <counter>
		break;
    284e:	4a c1       	rjmp	.+660    	; 0x2ae4 <check_erstanzeige1+0x5ce>
		case Q:
/*		0x11 = 0b17
			- Buchstabe Q gross/klein in buff_name[counter] schreiben
			- Counter inkrementieren fr nchste Buchstabenposition des Namens
*/
			if (Grossschreib == 1)
    2850:	80 91 3a 08 	lds	r24, 0x083A	; 0x80083a <Grossschreib>
    2854:	81 30       	cpi	r24, 0x01	; 1
    2856:	41 f4       	brne	.+16     	; 0x2868 <check_erstanzeige1+0x352>
			{
				buff_name[counter] = 'Q';
    2858:	e0 91 5a 0d 	lds	r30, 0x0D5A	; 0x800d5a <counter>
    285c:	f0 e0       	ldi	r31, 0x00	; 0
    285e:	ee 59       	subi	r30, 0x9E	; 158
    2860:	f2 4f       	sbci	r31, 0xF2	; 242
    2862:	81 e5       	ldi	r24, 0x51	; 81
    2864:	80 83       	st	Z, r24
    2866:	07 c0       	rjmp	.+14     	; 0x2876 <check_erstanzeige1+0x360>
			}
			else
			{
				buff_name[counter] = 'q';
    2868:	e0 91 5a 0d 	lds	r30, 0x0D5A	; 0x800d5a <counter>
    286c:	f0 e0       	ldi	r31, 0x00	; 0
    286e:	ee 59       	subi	r30, 0x9E	; 158
    2870:	f2 4f       	sbci	r31, 0xF2	; 242
    2872:	81 e7       	ldi	r24, 0x71	; 113
    2874:	80 83       	st	Z, r24
			}
			counter++;
    2876:	80 91 5a 0d 	lds	r24, 0x0D5A	; 0x800d5a <counter>
    287a:	8f 5f       	subi	r24, 0xFF	; 255
    287c:	80 93 5a 0d 	sts	0x0D5A, r24	; 0x800d5a <counter>
		break;
    2880:	31 c1       	rjmp	.+610    	; 0x2ae4 <check_erstanzeige1+0x5ce>
		case R:
/*		0x12 = 0b18
			- Buchstabe R gross/klein in buff_name[counter] schreiben
			- Counter inkrementieren fr nchste Buchstabenposition des Namens
*/
			if (Grossschreib == 1)
    2882:	80 91 3a 08 	lds	r24, 0x083A	; 0x80083a <Grossschreib>
    2886:	81 30       	cpi	r24, 0x01	; 1
    2888:	41 f4       	brne	.+16     	; 0x289a <check_erstanzeige1+0x384>
			{
				buff_name[counter] = 'R';
    288a:	e0 91 5a 0d 	lds	r30, 0x0D5A	; 0x800d5a <counter>
    288e:	f0 e0       	ldi	r31, 0x00	; 0
    2890:	ee 59       	subi	r30, 0x9E	; 158
    2892:	f2 4f       	sbci	r31, 0xF2	; 242
    2894:	82 e5       	ldi	r24, 0x52	; 82
    2896:	80 83       	st	Z, r24
    2898:	07 c0       	rjmp	.+14     	; 0x28a8 <check_erstanzeige1+0x392>
			}
			else
			{
				buff_name[counter] = 'r';
    289a:	e0 91 5a 0d 	lds	r30, 0x0D5A	; 0x800d5a <counter>
    289e:	f0 e0       	ldi	r31, 0x00	; 0
    28a0:	ee 59       	subi	r30, 0x9E	; 158
    28a2:	f2 4f       	sbci	r31, 0xF2	; 242
    28a4:	82 e7       	ldi	r24, 0x72	; 114
    28a6:	80 83       	st	Z, r24
			}
			counter++;
    28a8:	80 91 5a 0d 	lds	r24, 0x0D5A	; 0x800d5a <counter>
    28ac:	8f 5f       	subi	r24, 0xFF	; 255
    28ae:	80 93 5a 0d 	sts	0x0D5A, r24	; 0x800d5a <counter>
		break;
    28b2:	18 c1       	rjmp	.+560    	; 0x2ae4 <check_erstanzeige1+0x5ce>
		case S:
/*		0x13 = 0b19
			- Buchstabe S gross/klein in buff_name[counter] schreiben
			- Counter inkrementieren fr nchste Buchstabenposition des Namens
*/
			if (Grossschreib == 1)
    28b4:	80 91 3a 08 	lds	r24, 0x083A	; 0x80083a <Grossschreib>
    28b8:	81 30       	cpi	r24, 0x01	; 1
    28ba:	41 f4       	brne	.+16     	; 0x28cc <check_erstanzeige1+0x3b6>
			{
				buff_name[counter] = 'S';
    28bc:	e0 91 5a 0d 	lds	r30, 0x0D5A	; 0x800d5a <counter>
    28c0:	f0 e0       	ldi	r31, 0x00	; 0
    28c2:	ee 59       	subi	r30, 0x9E	; 158
    28c4:	f2 4f       	sbci	r31, 0xF2	; 242
    28c6:	83 e5       	ldi	r24, 0x53	; 83
    28c8:	80 83       	st	Z, r24
    28ca:	07 c0       	rjmp	.+14     	; 0x28da <check_erstanzeige1+0x3c4>
			}
			else
			{
				buff_name[counter] = 's';
    28cc:	e0 91 5a 0d 	lds	r30, 0x0D5A	; 0x800d5a <counter>
    28d0:	f0 e0       	ldi	r31, 0x00	; 0
    28d2:	ee 59       	subi	r30, 0x9E	; 158
    28d4:	f2 4f       	sbci	r31, 0xF2	; 242
    28d6:	83 e7       	ldi	r24, 0x73	; 115
    28d8:	80 83       	st	Z, r24
			}
			counter++;
    28da:	80 91 5a 0d 	lds	r24, 0x0D5A	; 0x800d5a <counter>
    28de:	8f 5f       	subi	r24, 0xFF	; 255
    28e0:	80 93 5a 0d 	sts	0x0D5A, r24	; 0x800d5a <counter>
		break;
    28e4:	ff c0       	rjmp	.+510    	; 0x2ae4 <check_erstanzeige1+0x5ce>
		case T:
/*		0x14 = 0b20
			- Buchstabe T gross/klein in buff_name[counter] schreiben
			- Counter inkrementieren fr nchste Buchstabenposition des Namens
*/
			if (Grossschreib == 1)
    28e6:	80 91 3a 08 	lds	r24, 0x083A	; 0x80083a <Grossschreib>
    28ea:	81 30       	cpi	r24, 0x01	; 1
    28ec:	41 f4       	brne	.+16     	; 0x28fe <check_erstanzeige1+0x3e8>
			{
				buff_name[counter] = 'T';
    28ee:	e0 91 5a 0d 	lds	r30, 0x0D5A	; 0x800d5a <counter>
    28f2:	f0 e0       	ldi	r31, 0x00	; 0
    28f4:	ee 59       	subi	r30, 0x9E	; 158
    28f6:	f2 4f       	sbci	r31, 0xF2	; 242
    28f8:	84 e5       	ldi	r24, 0x54	; 84
    28fa:	80 83       	st	Z, r24
    28fc:	07 c0       	rjmp	.+14     	; 0x290c <check_erstanzeige1+0x3f6>
			}
			else
			{
				buff_name[counter] = 't';
    28fe:	e0 91 5a 0d 	lds	r30, 0x0D5A	; 0x800d5a <counter>
    2902:	f0 e0       	ldi	r31, 0x00	; 0
    2904:	ee 59       	subi	r30, 0x9E	; 158
    2906:	f2 4f       	sbci	r31, 0xF2	; 242
    2908:	84 e7       	ldi	r24, 0x74	; 116
    290a:	80 83       	st	Z, r24
			}
			counter++;
    290c:	80 91 5a 0d 	lds	r24, 0x0D5A	; 0x800d5a <counter>
    2910:	8f 5f       	subi	r24, 0xFF	; 255
    2912:	80 93 5a 0d 	sts	0x0D5A, r24	; 0x800d5a <counter>
		break;
    2916:	e6 c0       	rjmp	.+460    	; 0x2ae4 <check_erstanzeige1+0x5ce>
		case U:
/*		0x15 = 0b21
			- Buchstabe U gross/klein in buff_name[counter] schreiben
			- Counter inkrementieren fr nchste Buchstabenposition des Namens
*/
			if (Grossschreib == 1)
    2918:	80 91 3a 08 	lds	r24, 0x083A	; 0x80083a <Grossschreib>
    291c:	81 30       	cpi	r24, 0x01	; 1
    291e:	41 f4       	brne	.+16     	; 0x2930 <check_erstanzeige1+0x41a>
			{
				buff_name[counter] = 'U';
    2920:	e0 91 5a 0d 	lds	r30, 0x0D5A	; 0x800d5a <counter>
    2924:	f0 e0       	ldi	r31, 0x00	; 0
    2926:	ee 59       	subi	r30, 0x9E	; 158
    2928:	f2 4f       	sbci	r31, 0xF2	; 242
    292a:	85 e5       	ldi	r24, 0x55	; 85
    292c:	80 83       	st	Z, r24
    292e:	07 c0       	rjmp	.+14     	; 0x293e <check_erstanzeige1+0x428>
			}
			else
			{
				buff_name[counter] = 'u';
    2930:	e0 91 5a 0d 	lds	r30, 0x0D5A	; 0x800d5a <counter>
    2934:	f0 e0       	ldi	r31, 0x00	; 0
    2936:	ee 59       	subi	r30, 0x9E	; 158
    2938:	f2 4f       	sbci	r31, 0xF2	; 242
    293a:	85 e7       	ldi	r24, 0x75	; 117
    293c:	80 83       	st	Z, r24
			}
			counter++;
    293e:	80 91 5a 0d 	lds	r24, 0x0D5A	; 0x800d5a <counter>
    2942:	8f 5f       	subi	r24, 0xFF	; 255
    2944:	80 93 5a 0d 	sts	0x0D5A, r24	; 0x800d5a <counter>
		break;
    2948:	cd c0       	rjmp	.+410    	; 0x2ae4 <check_erstanzeige1+0x5ce>
		case V:
/*		0x16 = 0b22
			- Buchstabe V gross/klein in buff_name[counter] schreiben
			- Counter inkrementieren fr nchste Buchstabenposition des Namens
*/
			if (Grossschreib == 1)
    294a:	80 91 3a 08 	lds	r24, 0x083A	; 0x80083a <Grossschreib>
    294e:	81 30       	cpi	r24, 0x01	; 1
    2950:	41 f4       	brne	.+16     	; 0x2962 <check_erstanzeige1+0x44c>
			{
				buff_name[counter] = 'V';
    2952:	e0 91 5a 0d 	lds	r30, 0x0D5A	; 0x800d5a <counter>
    2956:	f0 e0       	ldi	r31, 0x00	; 0
    2958:	ee 59       	subi	r30, 0x9E	; 158
    295a:	f2 4f       	sbci	r31, 0xF2	; 242
    295c:	86 e5       	ldi	r24, 0x56	; 86
    295e:	80 83       	st	Z, r24
    2960:	07 c0       	rjmp	.+14     	; 0x2970 <check_erstanzeige1+0x45a>
			}
			else
			{
				buff_name[counter] = 'v';
    2962:	e0 91 5a 0d 	lds	r30, 0x0D5A	; 0x800d5a <counter>
    2966:	f0 e0       	ldi	r31, 0x00	; 0
    2968:	ee 59       	subi	r30, 0x9E	; 158
    296a:	f2 4f       	sbci	r31, 0xF2	; 242
    296c:	86 e7       	ldi	r24, 0x76	; 118
    296e:	80 83       	st	Z, r24
			}
			counter++;
    2970:	80 91 5a 0d 	lds	r24, 0x0D5A	; 0x800d5a <counter>
    2974:	8f 5f       	subi	r24, 0xFF	; 255
    2976:	80 93 5a 0d 	sts	0x0D5A, r24	; 0x800d5a <counter>
		break;
    297a:	b4 c0       	rjmp	.+360    	; 0x2ae4 <check_erstanzeige1+0x5ce>
		case W:
/*		0x17 = 0b23
			- Buchstabe W gross/klein in buff_name[counter] schreiben
			- Counter inkrementieren fr nchste Buchstabenposition des Namens
*/
			if (Grossschreib == 1)
    297c:	80 91 3a 08 	lds	r24, 0x083A	; 0x80083a <Grossschreib>
    2980:	81 30       	cpi	r24, 0x01	; 1
    2982:	41 f4       	brne	.+16     	; 0x2994 <check_erstanzeige1+0x47e>
			{
				buff_name[counter] = 'W';
    2984:	e0 91 5a 0d 	lds	r30, 0x0D5A	; 0x800d5a <counter>
    2988:	f0 e0       	ldi	r31, 0x00	; 0
    298a:	ee 59       	subi	r30, 0x9E	; 158
    298c:	f2 4f       	sbci	r31, 0xF2	; 242
    298e:	87 e5       	ldi	r24, 0x57	; 87
    2990:	80 83       	st	Z, r24
    2992:	07 c0       	rjmp	.+14     	; 0x29a2 <check_erstanzeige1+0x48c>
			}
			else
			{
				buff_name[counter] = 'w';
    2994:	e0 91 5a 0d 	lds	r30, 0x0D5A	; 0x800d5a <counter>
    2998:	f0 e0       	ldi	r31, 0x00	; 0
    299a:	ee 59       	subi	r30, 0x9E	; 158
    299c:	f2 4f       	sbci	r31, 0xF2	; 242
    299e:	87 e7       	ldi	r24, 0x77	; 119
    29a0:	80 83       	st	Z, r24
			}
			counter++;
    29a2:	80 91 5a 0d 	lds	r24, 0x0D5A	; 0x800d5a <counter>
    29a6:	8f 5f       	subi	r24, 0xFF	; 255
    29a8:	80 93 5a 0d 	sts	0x0D5A, r24	; 0x800d5a <counter>
		break;
    29ac:	9b c0       	rjmp	.+310    	; 0x2ae4 <check_erstanzeige1+0x5ce>
		case X:
/*		0x18 = 0b24
			- Buchstabe X gross/klein in buff_name[counter] schreiben
			- Counter inkrementieren fr nchste Buchstabenposition des Namens
*/
			if (Grossschreib == 1)
    29ae:	80 91 3a 08 	lds	r24, 0x083A	; 0x80083a <Grossschreib>
    29b2:	81 30       	cpi	r24, 0x01	; 1
    29b4:	41 f4       	brne	.+16     	; 0x29c6 <check_erstanzeige1+0x4b0>
			{
				buff_name[counter] = 'X';
    29b6:	e0 91 5a 0d 	lds	r30, 0x0D5A	; 0x800d5a <counter>
    29ba:	f0 e0       	ldi	r31, 0x00	; 0
    29bc:	ee 59       	subi	r30, 0x9E	; 158
    29be:	f2 4f       	sbci	r31, 0xF2	; 242
    29c0:	88 e5       	ldi	r24, 0x58	; 88
    29c2:	80 83       	st	Z, r24
    29c4:	07 c0       	rjmp	.+14     	; 0x29d4 <check_erstanzeige1+0x4be>
			}
			else
			{
				buff_name[counter] = 'x';
    29c6:	e0 91 5a 0d 	lds	r30, 0x0D5A	; 0x800d5a <counter>
    29ca:	f0 e0       	ldi	r31, 0x00	; 0
    29cc:	ee 59       	subi	r30, 0x9E	; 158
    29ce:	f2 4f       	sbci	r31, 0xF2	; 242
    29d0:	88 e7       	ldi	r24, 0x78	; 120
    29d2:	80 83       	st	Z, r24
			}
			counter++;
    29d4:	80 91 5a 0d 	lds	r24, 0x0D5A	; 0x800d5a <counter>
    29d8:	8f 5f       	subi	r24, 0xFF	; 255
    29da:	80 93 5a 0d 	sts	0x0D5A, r24	; 0x800d5a <counter>
		break;
    29de:	82 c0       	rjmp	.+260    	; 0x2ae4 <check_erstanzeige1+0x5ce>
		case Y:
/*		0x19 = 0b25
			- Buchstabe Y gross/klein in buff_name[counter] schreiben
			- Counter inkrementieren fr nchste Buchstabenposition des Namens
*/
			if (Grossschreib == 1)
    29e0:	80 91 3a 08 	lds	r24, 0x083A	; 0x80083a <Grossschreib>
    29e4:	81 30       	cpi	r24, 0x01	; 1
    29e6:	41 f4       	brne	.+16     	; 0x29f8 <check_erstanzeige1+0x4e2>
			{
				buff_name[counter] = 'Y';
    29e8:	e0 91 5a 0d 	lds	r30, 0x0D5A	; 0x800d5a <counter>
    29ec:	f0 e0       	ldi	r31, 0x00	; 0
    29ee:	ee 59       	subi	r30, 0x9E	; 158
    29f0:	f2 4f       	sbci	r31, 0xF2	; 242
    29f2:	89 e5       	ldi	r24, 0x59	; 89
    29f4:	80 83       	st	Z, r24
    29f6:	07 c0       	rjmp	.+14     	; 0x2a06 <check_erstanzeige1+0x4f0>
			}
			else
			{
				buff_name[counter] = 'y';
    29f8:	e0 91 5a 0d 	lds	r30, 0x0D5A	; 0x800d5a <counter>
    29fc:	f0 e0       	ldi	r31, 0x00	; 0
    29fe:	ee 59       	subi	r30, 0x9E	; 158
    2a00:	f2 4f       	sbci	r31, 0xF2	; 242
    2a02:	89 e7       	ldi	r24, 0x79	; 121
    2a04:	80 83       	st	Z, r24
			}
			counter++;
    2a06:	80 91 5a 0d 	lds	r24, 0x0D5A	; 0x800d5a <counter>
    2a0a:	8f 5f       	subi	r24, 0xFF	; 255
    2a0c:	80 93 5a 0d 	sts	0x0D5A, r24	; 0x800d5a <counter>
		break;
    2a10:	69 c0       	rjmp	.+210    	; 0x2ae4 <check_erstanzeige1+0x5ce>
		case Z:
/*		0x1A = 0b26
			- Buchstabe Z gross/klein in buff_name[counter] schreiben
			- Counter inkrementieren fr nchste Buchstabenposition des Namens
*/
			if (Grossschreib == 1)
    2a12:	80 91 3a 08 	lds	r24, 0x083A	; 0x80083a <Grossschreib>
    2a16:	81 30       	cpi	r24, 0x01	; 1
    2a18:	41 f4       	brne	.+16     	; 0x2a2a <check_erstanzeige1+0x514>
			{
				buff_name[counter] = 'Z';
    2a1a:	e0 91 5a 0d 	lds	r30, 0x0D5A	; 0x800d5a <counter>
    2a1e:	f0 e0       	ldi	r31, 0x00	; 0
    2a20:	ee 59       	subi	r30, 0x9E	; 158
    2a22:	f2 4f       	sbci	r31, 0xF2	; 242
    2a24:	8a e5       	ldi	r24, 0x5A	; 90
    2a26:	80 83       	st	Z, r24
    2a28:	07 c0       	rjmp	.+14     	; 0x2a38 <check_erstanzeige1+0x522>
			}
			else
			{
				buff_name[counter] = 'z';
    2a2a:	e0 91 5a 0d 	lds	r30, 0x0D5A	; 0x800d5a <counter>
    2a2e:	f0 e0       	ldi	r31, 0x00	; 0
    2a30:	ee 59       	subi	r30, 0x9E	; 158
    2a32:	f2 4f       	sbci	r31, 0xF2	; 242
    2a34:	8a e7       	ldi	r24, 0x7A	; 122
    2a36:	80 83       	st	Z, r24
			}
			counter++;
    2a38:	80 91 5a 0d 	lds	r24, 0x0D5A	; 0x800d5a <counter>
    2a3c:	8f 5f       	subi	r24, 0xFF	; 255
    2a3e:	80 93 5a 0d 	sts	0x0D5A, r24	; 0x800d5a <counter>
		break;
    2a42:	50 c0       	rjmp	.+160    	; 0x2ae4 <check_erstanzeige1+0x5ce>
		case DEL:
/*		0x1C = 0b28
			- Counter vorverschieben
			- String-Terminator setzen
*/
			counter--;
    2a44:	e0 91 5a 0d 	lds	r30, 0x0D5A	; 0x800d5a <counter>
    2a48:	e1 50       	subi	r30, 0x01	; 1
    2a4a:	e0 93 5a 0d 	sts	0x0D5A, r30	; 0x800d5a <counter>
			buff_name[counter] = '\0';
    2a4e:	f0 e0       	ldi	r31, 0x00	; 0
    2a50:	ee 59       	subi	r30, 0x9E	; 158
    2a52:	f2 4f       	sbci	r31, 0xF2	; 242
    2a54:	10 82       	st	Z, r1
		break;
    2a56:	46 c0       	rjmp	.+140    	; 0x2ae4 <check_erstanzeige1+0x5ce>
/*		0x1D = 0b29
			- Erstes File aus der Liste holen und in aktuellesGetraenk speichern
			- Buffer fr neuen Cocktail-Name rcksetzen
			- Startanzeige setzen
*/
			lese_textfile_in_getraenk(tail_getraenk_file->file);
    2a58:	e0 91 02 08 	lds	r30, 0x0802	; 0x800802 <tail_getraenk_file>
    2a5c:	f0 91 03 08 	lds	r31, 0x0803	; 0x800803 <tail_getraenk_file+0x1>
    2a60:	80 81       	ld	r24, Z
    2a62:	0e 94 73 06 	call	0xce6	; 0xce6 <lese_textfile_in_getraenk>
			counter = 0;
    2a66:	10 92 5a 0d 	sts	0x0D5A, r1	; 0x800d5a <counter>
    2a6a:	e2 e6       	ldi	r30, 0x62	; 98
    2a6c:	fd e0       	ldi	r31, 0x0D	; 13
    2a6e:	86 e7       	ldi	r24, 0x76	; 118
    2a70:	9d e0       	ldi	r25, 0x0D	; 13
			for (int i = 0 ; i <20 ; i ++)
			{
				buff_name[i] = '\0';
    2a72:	11 92       	st	Z+, r1
			- Buffer fr neuen Cocktail-Name rcksetzen
			- Startanzeige setzen
*/
			lese_textfile_in_getraenk(tail_getraenk_file->file);
			counter = 0;
			for (int i = 0 ; i <20 ; i ++)
    2a74:	e8 17       	cp	r30, r24
    2a76:	f9 07       	cpc	r31, r25
    2a78:	e1 f7       	brne	.-8      	; 0x2a72 <check_erstanzeige1+0x55c>
			{
				buff_name[i] = '\0';
			}
			setze_startanzeige(aktuellesGetraenk);
    2a7a:	80 91 c4 10 	lds	r24, 0x10C4	; 0x8010c4 <aktuellesGetraenk>
    2a7e:	90 91 c5 10 	lds	r25, 0x10C5	; 0x8010c5 <aktuellesGetraenk+0x1>
    2a82:	0e 94 f8 03 	call	0x7f0	; 0x7f0 <setze_startanzeige>
		break;
    2a86:	2e c0       	rjmp	.+92     	; 0x2ae4 <check_erstanzeige1+0x5ce>

		case LEERZEICHEN:
/*		0x1E = 0b30
			- Leerzeichen in buff_name[counter] schreiben
*/
			buff_name[counter]= ' ';
    2a88:	e0 91 5a 0d 	lds	r30, 0x0D5A	; 0x800d5a <counter>
    2a8c:	f0 e0       	ldi	r31, 0x00	; 0
    2a8e:	ee 59       	subi	r30, 0x9E	; 158
    2a90:	f2 4f       	sbci	r31, 0xF2	; 242
    2a92:	80 e2       	ldi	r24, 0x20	; 32
    2a94:	80 83       	st	Z, r24
		break;
    2a96:	26 c0       	rjmp	.+76     	; 0x2ae4 <check_erstanzeige1+0x5ce>
			- Mengen des neuen Getrnks auf 0 setzen
			- Counter fr Buchstaben auf 0 setzen
			- Listenabschnitt auf den Ersten setzen
			- Zutaten in Liste schreiben
*/
			nextion_change_page(ERSTANZEIGE2);
    2a98:	81 e1       	ldi	r24, 0x11	; 17
    2a9a:	0e 94 ea 20 	call	0x41d4	; 0x41d4 <nextion_change_page>
			for (int i = 0 ; i < 12 ; i++)
    2a9e:	80 e0       	ldi	r24, 0x00	; 0
    2aa0:	90 e0       	ldi	r25, 0x00	; 0
			{
				*(aktuellesGetraenk->mengen + i) = 0;
    2aa2:	e0 91 c4 10 	lds	r30, 0x10C4	; 0x8010c4 <aktuellesGetraenk>
    2aa6:	f0 91 c5 10 	lds	r31, 0x10C5	; 0x8010c5 <aktuellesGetraenk+0x1>
    2aaa:	03 80       	ldd	r0, Z+3	; 0x03
    2aac:	f4 81       	ldd	r31, Z+4	; 0x04
    2aae:	e0 2d       	mov	r30, r0
    2ab0:	e8 0f       	add	r30, r24
    2ab2:	f9 1f       	adc	r31, r25
    2ab4:	10 82       	st	Z, r1
			- Counter fr Buchstaben auf 0 setzen
			- Listenabschnitt auf den Ersten setzen
			- Zutaten in Liste schreiben
*/
			nextion_change_page(ERSTANZEIGE2);
			for (int i = 0 ; i < 12 ; i++)
    2ab6:	01 96       	adiw	r24, 0x01	; 1
    2ab8:	8c 30       	cpi	r24, 0x0C	; 12
    2aba:	91 05       	cpc	r25, r1
    2abc:	91 f7       	brne	.-28     	; 0x2aa2 <check_erstanzeige1+0x58c>
			{
				*(aktuellesGetraenk->mengen + i) = 0;
			}
			counter = 0;
    2abe:	10 92 5a 0d 	sts	0x0D5A, r1	; 0x800d5a <counter>
			i_Liste = 0;
    2ac2:	10 92 8a 10 	sts	0x108A, r1	; 0x80108a <i_Liste>
			erstelle_Liste_zutat("zutat");
    2ac6:	87 ef       	ldi	r24, 0xF7	; 247
    2ac8:	92 e0       	ldi	r25, 0x02	; 2
    2aca:	0e 94 cb 02 	call	0x596	; 0x596 <erstelle_Liste_zutat>
		break;
    2ace:	0a c0       	rjmp	.+20     	; 0x2ae4 <check_erstanzeige1+0x5ce>
			- Gesamter bisheriger name (buff_name) anzeigen
			- Enthlt der Name 20 Buchstaben, bleibt der counter, der letzte Buchstabe wird immer berschrieben vom nchsten
*/
	if (wechsel == 1)
		{
		if (Grossschreib == 1)
    2ad0:	80 91 3a 08 	lds	r24, 0x083A	; 0x80083a <Grossschreib>
    2ad4:	81 30       	cpi	r24, 0x01	; 1
    2ad6:	19 f4       	brne	.+6      	; 0x2ade <check_erstanzeige1+0x5c8>
		{
			Grossschreib = 0;
    2ad8:	10 92 3a 08 	sts	0x083A, r1	; 0x80083a <Grossschreib>
    2adc:	03 c0       	rjmp	.+6      	; 0x2ae4 <check_erstanzeige1+0x5ce>
		}
		else
		{
			Grossschreib = 1;
    2ade:	81 e0       	ldi	r24, 0x01	; 1
    2ae0:	80 93 3a 08 	sts	0x083A, r24	; 0x80083a <Grossschreib>
		}
	}
	
	nextion_setText("neuername",(char *)buff_name);
    2ae4:	62 e6       	ldi	r22, 0x62	; 98
    2ae6:	7d e0       	ldi	r23, 0x0D	; 13
    2ae8:	8d ed       	ldi	r24, 0xDD	; 221
    2aea:	94 e0       	ldi	r25, 0x04	; 4
    2aec:	0e 94 09 21 	call	0x4212	; 0x4212 <nextion_setText>
	
	if (counter >= 19)
    2af0:	80 91 5a 0d 	lds	r24, 0x0D5A	; 0x800d5a <counter>
    2af4:	83 31       	cpi	r24, 0x13	; 19
    2af6:	18 f0       	brcs	.+6      	; 0x2afe <check_erstanzeige1+0x5e8>
	{
		counter = 19;
    2af8:	83 e1       	ldi	r24, 0x13	; 19
    2afa:	80 93 5a 0d 	sts	0x0D5A, r24	; 0x800d5a <counter>
    2afe:	08 95       	ret

00002b00 <check_erstanzeige2>:
	}
}

void check_erstanzeige2(uint8_t button)
{
    2b00:	df 92       	push	r13
    2b02:	ef 92       	push	r14
    2b04:	ff 92       	push	r15
    2b06:	0f 93       	push	r16
    2b08:	1f 93       	push	r17
    2b0a:	cf 93       	push	r28
    2b0c:	df 93       	push	r29
    2b0e:	cd b7       	in	r28, 0x3d	; 61
    2b10:	de b7       	in	r29, 0x3e	; 62
    2b12:	2f 97       	sbiw	r28, 0x0f	; 15
    2b14:	0f b6       	in	r0, 0x3f	; 63
    2b16:	f8 94       	cli
    2b18:	de bf       	out	0x3e, r29	; 62
    2b1a:	0f be       	out	0x3f, r0	; 63
    2b1c:	cd bf       	out	0x3d, r28	; 61
	
	
	// Initialisierung fr Erstellung eines neuen Getrnkefiles
	getraenk_file_t * tmp2;
	
	switch (button)
    2b1e:	81 30       	cpi	r24, 0x01	; 1
    2b20:	19 f0       	breq	.+6      	; 0x2b28 <check_erstanzeige2+0x28>
    2b22:	82 30       	cpi	r24, 0x02	; 2
    2b24:	51 f0       	breq	.+20     	; 0x2b3a <check_erstanzeige2+0x3a>
    2b26:	98 c0       	rjmp	.+304    	; 0x2c58 <check_erstanzeige2+0x158>
		case ABBRECHEN5:
/*		0x01 = 0b01
			- Startanzeige setzen
			- Listenabschnitt auf 0 setzen
*/
			setze_startanzeige(aktuellesGetraenk);
    2b28:	80 91 c4 10 	lds	r24, 0x10C4	; 0x8010c4 <aktuellesGetraenk>
    2b2c:	90 91 c5 10 	lds	r25, 0x10C5	; 0x8010c5 <aktuellesGetraenk+0x1>
    2b30:	0e 94 f8 03 	call	0x7f0	; 0x7f0 <setze_startanzeige>
			i_Liste = 0;
    2b34:	10 92 8a 10 	sts	0x108A, r1	; 0x80108a <i_Liste>
		break;
    2b38:	8f c0       	rjmp	.+286    	; 0x2c58 <check_erstanzeige2+0x158>
			- Auf Startanzeige wechseln
			- counter fr buff_name auf 0 setzen
			- i_Liste fr Listenabschnitt auf 0 setzen
			- buff_name auf '\0' initialisieren fr nchstes Getrnk
*/
			strcpy(aktuellesGetraenk->name, (const char *)buff_name);
    2b3a:	e0 91 c4 10 	lds	r30, 0x10C4	; 0x8010c4 <aktuellesGetraenk>
    2b3e:	f0 91 c5 10 	lds	r31, 0x10C5	; 0x8010c5 <aktuellesGetraenk+0x1>
    2b42:	62 e6       	ldi	r22, 0x62	; 98
    2b44:	7d e0       	ldi	r23, 0x0D	; 13
    2b46:	80 81       	ld	r24, Z
    2b48:	91 81       	ldd	r25, Z+1	; 0x01
    2b4a:	0e 94 4d 34 	call	0x689a	; 0x689a <strcpy>
			aktuellesGetraenk->picture = 24;
    2b4e:	60 91 c4 10 	lds	r22, 0x10C4	; 0x8010c4 <aktuellesGetraenk>
    2b52:	70 91 c5 10 	lds	r23, 0x10C5	; 0x8010c5 <aktuellesGetraenk+0x1>
    2b56:	88 e1       	ldi	r24, 0x18	; 24
    2b58:	fb 01       	movw	r30, r22
    2b5a:	85 83       	std	Z+5, r24	; 0x05
			uint8_t alkohol = 0;
			aktuelleZutatInMaschine = tail_zut_in_Maschine;
    2b5c:	20 91 5f 0d 	lds	r18, 0x0D5F	; 0x800d5f <tail_zut_in_Maschine>
    2b60:	30 91 60 0d 	lds	r19, 0x0D60	; 0x800d60 <tail_zut_in_Maschine+0x1>
    2b64:	30 93 0a 08 	sts	0x080A, r19	; 0x80080a <aktuelleZutatInMaschine+0x1>
    2b68:	20 93 09 08 	sts	0x0809, r18	; 0x800809 <aktuelleZutatInMaschine>
			do 
			{
				if (*(aktuellesGetraenk->mengen + aktuelleZutatInMaschine->position) > 0)
    2b6c:	43 81       	ldd	r20, Z+3	; 0x03
    2b6e:	54 81       	ldd	r21, Z+4	; 0x04
			- i_Liste fr Listenabschnitt auf 0 setzen
			- buff_name auf '\0' initialisieren fr nchstes Getrnk
*/
			strcpy(aktuellesGetraenk->name, (const char *)buff_name);
			aktuellesGetraenk->picture = 24;
			uint8_t alkohol = 0;
    2b70:	10 e0       	ldi	r17, 0x00	; 0
			{
				if (*(aktuellesGetraenk->mengen + aktuelleZutatInMaschine->position) > 0)
				{
					if (aktuelleZutatInMaschine->alkohol == 1)
					{
						alkohol = 1;
    2b72:	01 e0       	ldi	r16, 0x01	; 1
			aktuellesGetraenk->picture = 24;
			uint8_t alkohol = 0;
			aktuelleZutatInMaschine = tail_zut_in_Maschine;
			do 
			{
				if (*(aktuellesGetraenk->mengen + aktuelleZutatInMaschine->position) > 0)
    2b74:	e0 91 09 08 	lds	r30, 0x0809	; 0x800809 <aktuelleZutatInMaschine>
    2b78:	f0 91 0a 08 	lds	r31, 0x080A	; 0x80080a <aktuelleZutatInMaschine+0x1>
    2b7c:	84 81       	ldd	r24, Z+4	; 0x04
    2b7e:	da 01       	movw	r26, r20
    2b80:	a8 0f       	add	r26, r24
    2b82:	b1 1d       	adc	r27, r1
    2b84:	8c 91       	ld	r24, X
    2b86:	88 23       	and	r24, r24
    2b88:	21 f0       	breq	.+8      	; 0x2b92 <check_erstanzeige2+0x92>
				{
					if (aktuelleZutatInMaschine->alkohol == 1)
    2b8a:	83 81       	ldd	r24, Z+3	; 0x03
    2b8c:	81 30       	cpi	r24, 0x01	; 1
    2b8e:	09 f4       	brne	.+2      	; 0x2b92 <check_erstanzeige2+0x92>
					{
						alkohol = 1;
    2b90:	10 2f       	mov	r17, r16
					}
				}
				aktuelleZutatInMaschine = aktuelleZutatInMaschine->prev;
    2b92:	87 81       	ldd	r24, Z+7	; 0x07
    2b94:	90 85       	ldd	r25, Z+8	; 0x08
    2b96:	90 93 0a 08 	sts	0x080A, r25	; 0x80080a <aktuelleZutatInMaschine+0x1>
    2b9a:	80 93 09 08 	sts	0x0809, r24	; 0x800809 <aktuelleZutatInMaschine>
			} while (aktuelleZutatInMaschine!= tail_zut_in_Maschine);
    2b9e:	28 17       	cp	r18, r24
    2ba0:	39 07       	cpc	r19, r25
    2ba2:	41 f7       	brne	.-48     	; 0x2b74 <check_erstanzeige2+0x74>
			aktuellesGetraenk->alkohol = alkohol;
    2ba4:	fb 01       	movw	r30, r22
    2ba6:	12 83       	std	Z+2, r17	; 0x02
    2ba8:	ee 24       	eor	r14, r14
    2baa:	e3 94       	inc	r14
    2bac:	f1 2c       	mov	r15, r1
		
			// Suche von 1 bis 100 durch die Files
			for (int8_t count = 1 ; count <= 100; count++){

			// Text erstellen, um File-Nr. zu suchen.
			char buff[15] = {'\0'};
    2bae:	0f 2e       	mov	r0, r31
    2bb0:	ff e0       	ldi	r31, 0x0F	; 15
    2bb2:	df 2e       	mov	r13, r31
    2bb4:	f0 2d       	mov	r31, r0
    2bb6:	8e 01       	movw	r16, r28
    2bb8:	0f 5f       	subi	r16, 0xFF	; 255
    2bba:	1f 4f       	sbci	r17, 0xFF	; 255
    2bbc:	f8 01       	movw	r30, r16
    2bbe:	8d 2d       	mov	r24, r13
    2bc0:	11 92       	st	Z+, r1
    2bc2:	8a 95       	dec	r24
    2bc4:	e9 f7       	brne	.-6      	; 0x2bc0 <check_erstanzeige2+0xc0>
    2bc6:	4a e0       	ldi	r20, 0x0A	; 10
    2bc8:	b8 01       	movw	r22, r16
    2bca:	c7 01       	movw	r24, r14
    2bcc:	0e 94 7b 34 	call	0x68f6	; 0x68f6 <__itoa_ncheck>
			itoa(count, (char *)buff,10);
			strcat((char *)buff, (const char *)".txt");
    2bd0:	d8 01       	movw	r26, r16
    2bd2:	0d 90       	ld	r0, X+
    2bd4:	00 20       	and	r0, r0
    2bd6:	e9 f7       	brne	.-6      	; 0x2bd2 <check_erstanzeige2+0xd2>
    2bd8:	11 97       	sbiw	r26, 0x01	; 1
    2bda:	85 e0       	ldi	r24, 0x05	; 5
    2bdc:	eb ec       	ldi	r30, 0xCB	; 203
    2bde:	f4 e0       	ldi	r31, 0x04	; 4
    2be0:	01 90       	ld	r0, Z+
    2be2:	0d 92       	st	X+, r0
    2be4:	8a 95       	dec	r24
    2be6:	e1 f7       	brne	.-8      	; 0x2be0 <check_erstanzeige2+0xe0>
				
			// Erstes nicht existierendes File suchen
			if(readFile(VERIFY, (unsigned char *)buff)!=1)
    2be8:	b8 01       	movw	r22, r16
    2bea:	81 e0       	ldi	r24, 0x01	; 1
    2bec:	0e 94 db 28 	call	0x51b6	; 0x51b6 <readFile>
    2bf0:	81 30       	cpi	r24, 0x01	; 1
    2bf2:	c9 f0       	breq	.+50     	; 0x2c26 <check_erstanzeige2+0x126>
			{
				// File speichern
				erstelle_File(count, buff_name, 1);
    2bf4:	41 e0       	ldi	r20, 0x01	; 1
    2bf6:	62 e6       	ldi	r22, 0x62	; 98
    2bf8:	7d e0       	ldi	r23, 0x0D	; 13
    2bfa:	8e 2d       	mov	r24, r14
    2bfc:	0e 94 c3 09 	call	0x1386	; 0x1386 <erstelle_File>
				tmp2 = create_new_getraenk_file(count);
    2c00:	8e 2d       	mov	r24, r14
    2c02:	e9 d6       	rcall	.+3538   	; 0x39d6 <create_new_getraenk_file>
				head_getraenk_file = insert_file_at_head(&head_getraenk_file, tmp2);
    2c04:	bc 01       	movw	r22, r24
    2c06:	88 e3       	ldi	r24, 0x38	; 56
    2c08:	98 e0       	ldi	r25, 0x08	; 8
    2c0a:	f1 d6       	rcall	.+3554   	; 0x39ee <insert_file_at_head>
    2c0c:	90 93 39 08 	sts	0x0839, r25	; 0x800839 <head_getraenk_file+0x1>
    2c10:	80 93 38 08 	sts	0x0838, r24	; 0x800838 <head_getraenk_file>
				count = 100;
				aktuellesGetraenk_file = head_getraenk_file;
    2c14:	90 93 37 08 	sts	0x0837, r25	; 0x800837 <aktuellesGetraenk_file+0x1>
    2c18:	80 93 36 08 	sts	0x0836, r24	; 0x800836 <aktuellesGetraenk_file>
				lese_textfile_in_getraenk(head_getraenk_file->file);
    2c1c:	fc 01       	movw	r30, r24
    2c1e:	80 81       	ld	r24, Z
    2c20:	0e 94 73 06 	call	0xce6	; 0xce6 <lese_textfile_in_getraenk>
    2c24:	07 c0       	rjmp	.+14     	; 0x2c34 <check_erstanzeige2+0x134>
    2c26:	ff ef       	ldi	r31, 0xFF	; 255
    2c28:	ef 1a       	sub	r14, r31
    2c2a:	ff 0a       	sbc	r15, r31
				aktuelleZutatInMaschine = aktuelleZutatInMaschine->prev;
			} while (aktuelleZutatInMaschine!= tail_zut_in_Maschine);
			aktuellesGetraenk->alkohol = alkohol;
		
			// Suche von 1 bis 100 durch die Files
			for (int8_t count = 1 ; count <= 100; count++){
    2c2c:	85 e6       	ldi	r24, 0x65	; 101
    2c2e:	e8 16       	cp	r14, r24
    2c30:	f1 04       	cpc	r15, r1
    2c32:	21 f6       	brne	.-120    	; 0x2bbc <check_erstanzeige2+0xbc>
				count = 100;
				aktuellesGetraenk_file = head_getraenk_file;
				lese_textfile_in_getraenk(head_getraenk_file->file);
			}
		}
		setze_startanzeige(aktuellesGetraenk);
    2c34:	80 91 c4 10 	lds	r24, 0x10C4	; 0x8010c4 <aktuellesGetraenk>
    2c38:	90 91 c5 10 	lds	r25, 0x10C5	; 0x8010c5 <aktuellesGetraenk+0x1>
    2c3c:	0e 94 f8 03 	call	0x7f0	; 0x7f0 <setze_startanzeige>
		counter = 0;
    2c40:	10 92 5a 0d 	sts	0x0D5A, r1	; 0x800d5a <counter>
		i_Liste = 0;
    2c44:	10 92 8a 10 	sts	0x108A, r1	; 0x80108a <i_Liste>
    2c48:	e2 e6       	ldi	r30, 0x62	; 98
    2c4a:	fd e0       	ldi	r31, 0x0D	; 13
    2c4c:	86 e7       	ldi	r24, 0x76	; 118
    2c4e:	9d e0       	ldi	r25, 0x0D	; 13
		for (int i = 0 ; i <20 ; i ++)
		{
			buff_name[i] = '\0';
    2c50:	11 92       	st	Z+, r1
			}
		}
		setze_startanzeige(aktuellesGetraenk);
		counter = 0;
		i_Liste = 0;
		for (int i = 0 ; i <20 ; i ++)
    2c52:	e8 17       	cp	r30, r24
    2c54:	f9 07       	cpc	r31, r25
    2c56:	e1 f7       	brne	.-8      	; 0x2c50 <check_erstanzeige2+0x150>
		{
			buff_name[i] = '\0';
		}
		break;
	}
}
    2c58:	2f 96       	adiw	r28, 0x0f	; 15
    2c5a:	0f b6       	in	r0, 0x3f	; 63
    2c5c:	f8 94       	cli
    2c5e:	de bf       	out	0x3e, r29	; 62
    2c60:	0f be       	out	0x3f, r0	; 63
    2c62:	cd bf       	out	0x3d, r28	; 61
    2c64:	df 91       	pop	r29
    2c66:	cf 91       	pop	r28
    2c68:	1f 91       	pop	r17
    2c6a:	0f 91       	pop	r16
    2c6c:	ff 90       	pop	r15
    2c6e:	ef 90       	pop	r14
    2c70:	df 90       	pop	r13
    2c72:	08 95       	ret

00002c74 <check_loeschanzeige>:

void check_loeschanzeige(uint8_t button)
{
    2c74:	0f 93       	push	r16
    2c76:	1f 93       	push	r17
    2c78:	cf 93       	push	r28
    2c7a:	df 93       	push	r29
    2c7c:	cd b7       	in	r28, 0x3d	; 61
    2c7e:	de b7       	in	r29, 0x3e	; 62
    2c80:	64 97       	sbiw	r28, 0x14	; 20
    2c82:	0f b6       	in	r0, 0x3f	; 63
    2c84:	f8 94       	cli
    2c86:	de bf       	out	0x3e, r29	; 62
    2c88:	0f be       	out	0x3f, r0	; 63
    2c8a:	cd bf       	out	0x3d, r28	; 61
	switch (button)
    2c8c:	81 30       	cpi	r24, 0x01	; 1
    2c8e:	21 f0       	breq	.+8      	; 0x2c98 <check_loeschanzeige+0x24>
    2c90:	82 30       	cpi	r24, 0x02	; 2
    2c92:	09 f4       	brne	.+2      	; 0x2c96 <check_loeschanzeige+0x22>
    2c94:	61 c0       	rjmp	.+194    	; 0x2d58 <check_loeschanzeige+0xe4>
    2c96:	66 c0       	rjmp	.+204    	; 0x2d64 <check_loeschanzeige+0xf0>
			- String fr zu lschendes File wird generiert
			- Das File wird gelscht
			- Das nchste Getrnk wird in das aktuelleGetraenk geladen
			- Startanzeige setzen
*/
			if (aktuellesGetraenk_file == tail_getraenk_file)
    2c98:	e0 91 36 08 	lds	r30, 0x0836	; 0x800836 <aktuellesGetraenk_file>
    2c9c:	f0 91 37 08 	lds	r31, 0x0837	; 0x800837 <aktuellesGetraenk_file+0x1>
    2ca0:	80 91 02 08 	lds	r24, 0x0802	; 0x800802 <tail_getraenk_file>
    2ca4:	90 91 03 08 	lds	r25, 0x0803	; 0x800803 <tail_getraenk_file+0x1>
    2ca8:	e8 17       	cp	r30, r24
    2caa:	f9 07       	cpc	r31, r25
    2cac:	39 f4       	brne	.+14     	; 0x2cbc <check_loeschanzeige+0x48>
			{
				tail_getraenk_file = aktuellesGetraenk_file->prev;
    2cae:	83 81       	ldd	r24, Z+3	; 0x03
    2cb0:	94 81       	ldd	r25, Z+4	; 0x04
    2cb2:	90 93 03 08 	sts	0x0803, r25	; 0x800803 <tail_getraenk_file+0x1>
    2cb6:	80 93 02 08 	sts	0x0802, r24	; 0x800802 <tail_getraenk_file>
    2cba:	0d c0       	rjmp	.+26     	; 0x2cd6 <check_loeschanzeige+0x62>
			}
			else if (aktuellesGetraenk_file == head_getraenk_file)
    2cbc:	80 91 38 08 	lds	r24, 0x0838	; 0x800838 <head_getraenk_file>
    2cc0:	90 91 39 08 	lds	r25, 0x0839	; 0x800839 <head_getraenk_file+0x1>
    2cc4:	e8 17       	cp	r30, r24
    2cc6:	f9 07       	cpc	r31, r25
    2cc8:	31 f4       	brne	.+12     	; 0x2cd6 <check_loeschanzeige+0x62>
			{
				head_getraenk_file = aktuellesGetraenk_file->next;	
    2cca:	81 81       	ldd	r24, Z+1	; 0x01
    2ccc:	92 81       	ldd	r25, Z+2	; 0x02
    2cce:	90 93 39 08 	sts	0x0839, r25	; 0x800839 <head_getraenk_file+0x1>
    2cd2:	80 93 38 08 	sts	0x0838, r24	; 0x800838 <head_getraenk_file>
			}
			(aktuellesGetraenk_file->prev)->next = aktuellesGetraenk_file->next;
    2cd6:	a3 81       	ldd	r26, Z+3	; 0x03
    2cd8:	b4 81       	ldd	r27, Z+4	; 0x04
    2cda:	81 81       	ldd	r24, Z+1	; 0x01
    2cdc:	92 81       	ldd	r25, Z+2	; 0x02
    2cde:	12 96       	adiw	r26, 0x02	; 2
    2ce0:	9c 93       	st	X, r25
    2ce2:	8e 93       	st	-X, r24
    2ce4:	11 97       	sbiw	r26, 0x01	; 1
			(aktuellesGetraenk_file->next)->prev = aktuellesGetraenk_file->prev;
    2ce6:	e0 91 36 08 	lds	r30, 0x0836	; 0x800836 <aktuellesGetraenk_file>
    2cea:	f0 91 37 08 	lds	r31, 0x0837	; 0x800837 <aktuellesGetraenk_file+0x1>
    2cee:	a1 81       	ldd	r26, Z+1	; 0x01
    2cf0:	b2 81       	ldd	r27, Z+2	; 0x02
    2cf2:	83 81       	ldd	r24, Z+3	; 0x03
    2cf4:	94 81       	ldd	r25, Z+4	; 0x04
    2cf6:	14 96       	adiw	r26, 0x04	; 4
    2cf8:	9c 93       	st	X, r25
    2cfa:	8e 93       	st	-X, r24
    2cfc:	13 97       	sbiw	r26, 0x03	; 3
    2cfe:	80 81       	ld	r24, Z
    2d00:	4a e0       	ldi	r20, 0x0A	; 10
    2d02:	8e 01       	movw	r16, r28
    2d04:	0f 5f       	subi	r16, 0xFF	; 255
    2d06:	1f 4f       	sbci	r17, 0xFF	; 255
    2d08:	b8 01       	movw	r22, r16
    2d0a:	90 e0       	ldi	r25, 0x00	; 0
    2d0c:	0e 94 7b 34 	call	0x68f6	; 0x68f6 <__itoa_ncheck>
			
			char buff[20];
			itoa(aktuellesGetraenk_file->file, (char *)buff, 10);
			strcat((char *) buff,(const char *)".txt");
    2d10:	d8 01       	movw	r26, r16
    2d12:	0d 90       	ld	r0, X+
    2d14:	00 20       	and	r0, r0
    2d16:	e9 f7       	brne	.-6      	; 0x2d12 <check_loeschanzeige+0x9e>
    2d18:	11 97       	sbiw	r26, 0x01	; 1
    2d1a:	85 e0       	ldi	r24, 0x05	; 5
    2d1c:	eb ec       	ldi	r30, 0xCB	; 203
    2d1e:	f4 e0       	ldi	r31, 0x04	; 4
    2d20:	01 90       	ld	r0, Z+
    2d22:	0d 92       	st	X+, r0
    2d24:	8a 95       	dec	r24
    2d26:	e1 f7       	brne	.-8      	; 0x2d20 <check_loeschanzeige+0xac>
			
			deleteFile((unsigned char *)buff);
    2d28:	c8 01       	movw	r24, r16
    2d2a:	0e 94 a9 29 	call	0x5352	; 0x5352 <deleteFile>
			
			aktuellesGetraenk_file = aktuellesGetraenk_file->next;
    2d2e:	e0 91 36 08 	lds	r30, 0x0836	; 0x800836 <aktuellesGetraenk_file>
    2d32:	f0 91 37 08 	lds	r31, 0x0837	; 0x800837 <aktuellesGetraenk_file+0x1>
    2d36:	01 80       	ldd	r0, Z+1	; 0x01
    2d38:	f2 81       	ldd	r31, Z+2	; 0x02
    2d3a:	e0 2d       	mov	r30, r0
    2d3c:	f0 93 37 08 	sts	0x0837, r31	; 0x800837 <aktuellesGetraenk_file+0x1>
    2d40:	e0 93 36 08 	sts	0x0836, r30	; 0x800836 <aktuellesGetraenk_file>
			lese_textfile_in_getraenk(aktuellesGetraenk_file->file);
    2d44:	80 81       	ld	r24, Z
    2d46:	0e 94 73 06 	call	0xce6	; 0xce6 <lese_textfile_in_getraenk>
			setze_startanzeige(aktuellesGetraenk);
    2d4a:	80 91 c4 10 	lds	r24, 0x10C4	; 0x8010c4 <aktuellesGetraenk>
    2d4e:	90 91 c5 10 	lds	r25, 0x10C5	; 0x8010c5 <aktuellesGetraenk+0x1>
    2d52:	0e 94 f8 03 	call	0x7f0	; 0x7f0 <setze_startanzeige>
		break;
    2d56:	06 c0       	rjmp	.+12     	; 0x2d64 <check_loeschanzeige+0xf0>
		
		case NEIN:
/*		0x02 = 0b02
			- Startanzeige setzen
*/
			setze_startanzeige(aktuellesGetraenk);
    2d58:	80 91 c4 10 	lds	r24, 0x10C4	; 0x8010c4 <aktuellesGetraenk>
    2d5c:	90 91 c5 10 	lds	r25, 0x10C5	; 0x8010c5 <aktuellesGetraenk+0x1>
    2d60:	0e 94 f8 03 	call	0x7f0	; 0x7f0 <setze_startanzeige>
		break;
	}	
}
    2d64:	64 96       	adiw	r28, 0x14	; 20
    2d66:	0f b6       	in	r0, 0x3f	; 63
    2d68:	f8 94       	cli
    2d6a:	de bf       	out	0x3e, r29	; 62
    2d6c:	0f be       	out	0x3f, r0	; 63
    2d6e:	cd bf       	out	0x3d, r28	; 61
    2d70:	df 91       	pop	r29
    2d72:	cf 91       	pop	r28
    2d74:	1f 91       	pop	r17
    2d76:	0f 91       	pop	r16
    2d78:	08 95       	ret

00002d7a <check_posanzeige>:

void check_posanzeige(uint8_t button)
{
	i_Liste = 0;
    2d7a:	10 92 8a 10 	sts	0x108A, r1	; 0x80108a <i_Liste>
	switch (button)
    2d7e:	90 e0       	ldi	r25, 0x00	; 0
    2d80:	fc 01       	movw	r30, r24
    2d82:	31 97       	sbiw	r30, 0x01	; 1
    2d84:	ed 30       	cpi	r30, 0x0D	; 13
    2d86:	f1 05       	cpc	r31, r1
    2d88:	08 f0       	brcs	.+2      	; 0x2d8c <check_posanzeige+0x12>
    2d8a:	8d c0       	rjmp	.+282    	; 0x2ea6 <check_posanzeige+0x12c>
    2d8c:	88 27       	eor	r24, r24
    2d8e:	e0 52       	subi	r30, 0x20	; 32
    2d90:	ff 4f       	sbci	r31, 0xFF	; 255
    2d92:	8f 4f       	sbci	r24, 0xFF	; 255
    2d94:	0c 94 bf 32 	jmp	0x657e	; 0x657e <__tablejump2__>
/*		0x01 = 0b01
			- Wechsle auf Flssigkeitsanzeige1
			- Auf ausgewhlte Position zeigen (Pos 0 in Liste), damit die Zutat darin abgelegt werden kann
			- Liste erstellen fr Zutatenauswahl, welche in die Maschine gestellt wird
*/
			nextion_change_page(FLUESSANZEIGE1);
    2d98:	84 e1       	ldi	r24, 0x14	; 20
    2d9a:	0e 94 ea 20 	call	0x41d4	; 0x41d4 <nextion_change_page>
			setze_aktuelle_Zutat_in_Maschine_prev(0);
    2d9e:	80 e0       	ldi	r24, 0x00	; 0
    2da0:	0e 94 4c 0d 	call	0x1a98	; 0x1a98 <setze_aktuelle_Zutat_in_Maschine_prev>
			erstelle_Liste_Zutat_Pos("fluessigkeit");
    2da4:	87 ee       	ldi	r24, 0xE7	; 231
    2da6:	94 e0       	ldi	r25, 0x04	; 4
    2da8:	0c 94 cd 0b 	jmp	0x179a	; 0x179a <erstelle_Liste_Zutat_Pos>
		break;
    2dac:	08 95       	ret
/*		0x02 = 0b02
			- Wechsle auf Flssigkeitsanzeige1
			- Auf ausgewhlte Position zeigen (Pos 1 in Liste), damit die Zutat darin abgelegt werden kann
			- Liste erstellen fr Zutatenauswahl, welche in die Maschine gestellt wird
*/
			nextion_change_page(FLUESSANZEIGE1);
    2dae:	84 e1       	ldi	r24, 0x14	; 20
    2db0:	0e 94 ea 20 	call	0x41d4	; 0x41d4 <nextion_change_page>
			setze_aktuelle_Zutat_in_Maschine_prev(1);
    2db4:	81 e0       	ldi	r24, 0x01	; 1
    2db6:	0e 94 4c 0d 	call	0x1a98	; 0x1a98 <setze_aktuelle_Zutat_in_Maschine_prev>
			erstelle_Liste_Zutat_Pos("fluessigkeit");
    2dba:	87 ee       	ldi	r24, 0xE7	; 231
    2dbc:	94 e0       	ldi	r25, 0x04	; 4
    2dbe:	0c 94 cd 0b 	jmp	0x179a	; 0x179a <erstelle_Liste_Zutat_Pos>
		break;
    2dc2:	08 95       	ret
/*		0x03 = 0b03
			- Wechsle auf Flssigkeitsanzeige1
			- Auf ausgewhlte Position zeigen (Pos 2 in Liste), damit die Zutat darin abgelegt werden kann
			- Liste erstellen fr Zutatenauswahl, welche in die Maschine gestellt wird
*/
			nextion_change_page(FLUESSANZEIGE1);
    2dc4:	84 e1       	ldi	r24, 0x14	; 20
    2dc6:	0e 94 ea 20 	call	0x41d4	; 0x41d4 <nextion_change_page>
			setze_aktuelle_Zutat_in_Maschine_prev(2);
    2dca:	82 e0       	ldi	r24, 0x02	; 2
    2dcc:	0e 94 4c 0d 	call	0x1a98	; 0x1a98 <setze_aktuelle_Zutat_in_Maschine_prev>
			erstelle_Liste_Zutat_Pos("fluessigkeit");
    2dd0:	87 ee       	ldi	r24, 0xE7	; 231
    2dd2:	94 e0       	ldi	r25, 0x04	; 4
    2dd4:	0c 94 cd 0b 	jmp	0x179a	; 0x179a <erstelle_Liste_Zutat_Pos>
		break;
    2dd8:	08 95       	ret
/*		0x04 = 0b04
			- Wechsle auf Flssigkeitsanzeige1
			- Auf ausgewhlte Position zeigen (Pos 3 in Liste), damit die Zutat darin abgelegt werden kann
			- Liste erstellen fr Zutatenauswahl, welche in die Maschine gestellt wird
*/
			nextion_change_page(FLUESSANZEIGE1);
    2dda:	84 e1       	ldi	r24, 0x14	; 20
    2ddc:	0e 94 ea 20 	call	0x41d4	; 0x41d4 <nextion_change_page>
			setze_aktuelle_Zutat_in_Maschine_prev(3);
    2de0:	83 e0       	ldi	r24, 0x03	; 3
    2de2:	0e 94 4c 0d 	call	0x1a98	; 0x1a98 <setze_aktuelle_Zutat_in_Maschine_prev>
			erstelle_Liste_Zutat_Pos("fluessigkeit");
    2de6:	87 ee       	ldi	r24, 0xE7	; 231
    2de8:	94 e0       	ldi	r25, 0x04	; 4
    2dea:	0c 94 cd 0b 	jmp	0x179a	; 0x179a <erstelle_Liste_Zutat_Pos>
		break;
    2dee:	08 95       	ret
/*		0x05 = 0b05
			- Wechsle auf Flssigkeitsanzeige1
			- Auf ausgewhlte Position zeigen (Pos 4 in Liste), damit die Zutat darin abgelegt werden kann
			- Liste erstellen fr Zutatenauswahl, welche in die Maschine gestellt wird
*/
			nextion_change_page(FLUESSANZEIGE1);
    2df0:	84 e1       	ldi	r24, 0x14	; 20
    2df2:	0e 94 ea 20 	call	0x41d4	; 0x41d4 <nextion_change_page>
			setze_aktuelle_Zutat_in_Maschine_prev(4);
    2df6:	84 e0       	ldi	r24, 0x04	; 4
    2df8:	0e 94 4c 0d 	call	0x1a98	; 0x1a98 <setze_aktuelle_Zutat_in_Maschine_prev>
			erstelle_Liste_Zutat_Pos("fluessigkeit");
    2dfc:	87 ee       	ldi	r24, 0xE7	; 231
    2dfe:	94 e0       	ldi	r25, 0x04	; 4
    2e00:	0c 94 cd 0b 	jmp	0x179a	; 0x179a <erstelle_Liste_Zutat_Pos>
		break;
    2e04:	08 95       	ret
/*		0x06 = 0b06
			- Wechsle auf Flssigkeitsanzeige1
			- Auf ausgewhlte Position zeigen (Pos 5 in Liste), damit die Zutat darin abgelegt werden kann
			- Liste erstellen fr Zutatenauswahl, welche in die Maschine gestellt wird
*/
			nextion_change_page(FLUESSANZEIGE1);
    2e06:	84 e1       	ldi	r24, 0x14	; 20
    2e08:	0e 94 ea 20 	call	0x41d4	; 0x41d4 <nextion_change_page>
			setze_aktuelle_Zutat_in_Maschine_prev(5);
    2e0c:	85 e0       	ldi	r24, 0x05	; 5
    2e0e:	0e 94 4c 0d 	call	0x1a98	; 0x1a98 <setze_aktuelle_Zutat_in_Maschine_prev>
			erstelle_Liste_Zutat_Pos("fluessigkeit");
    2e12:	87 ee       	ldi	r24, 0xE7	; 231
    2e14:	94 e0       	ldi	r25, 0x04	; 4
    2e16:	0c 94 cd 0b 	jmp	0x179a	; 0x179a <erstelle_Liste_Zutat_Pos>
		break;
    2e1a:	08 95       	ret
/*		0x07 = 0b07
			- Wechsle auf Flssigkeitsanzeige1
			- Auf ausgewhlte Position zeigen (Pos 6 in Liste), damit die Zutat darin abgelegt werden kann
			- Liste erstellen fr Zutatenauswahl, welche in die Maschine gestellt wird
*/
			nextion_change_page(FLUESSANZEIGE1);
    2e1c:	84 e1       	ldi	r24, 0x14	; 20
    2e1e:	0e 94 ea 20 	call	0x41d4	; 0x41d4 <nextion_change_page>
			setze_aktuelle_Zutat_in_Maschine_prev(6);
    2e22:	86 e0       	ldi	r24, 0x06	; 6
    2e24:	0e 94 4c 0d 	call	0x1a98	; 0x1a98 <setze_aktuelle_Zutat_in_Maschine_prev>
			erstelle_Liste_Zutat_Pos("fluessigkeit");
    2e28:	87 ee       	ldi	r24, 0xE7	; 231
    2e2a:	94 e0       	ldi	r25, 0x04	; 4
    2e2c:	0c 94 cd 0b 	jmp	0x179a	; 0x179a <erstelle_Liste_Zutat_Pos>
		break;
    2e30:	08 95       	ret
/*		0x08 = 0b08
			- Wechsle auf Flssigkeitsanzeige1
			- Auf ausgewhlte Position zeigen (Pos 7 in Liste), damit die Zutat darin abgelegt werden kann
			- Liste erstellen fr Zutatenauswahl, welche in die Maschine gestellt wird
*/
			nextion_change_page(FLUESSANZEIGE1);
    2e32:	84 e1       	ldi	r24, 0x14	; 20
    2e34:	0e 94 ea 20 	call	0x41d4	; 0x41d4 <nextion_change_page>
			setze_aktuelle_Zutat_in_Maschine_prev(7);
    2e38:	87 e0       	ldi	r24, 0x07	; 7
    2e3a:	0e 94 4c 0d 	call	0x1a98	; 0x1a98 <setze_aktuelle_Zutat_in_Maschine_prev>
			erstelle_Liste_Zutat_Pos("fluessigkeit");
    2e3e:	87 ee       	ldi	r24, 0xE7	; 231
    2e40:	94 e0       	ldi	r25, 0x04	; 4
    2e42:	0c 94 cd 0b 	jmp	0x179a	; 0x179a <erstelle_Liste_Zutat_Pos>
		break;
    2e46:	08 95       	ret
/*		0x09 = 0b09
			- Wechsle auf Flssigkeitsanzeige1
			- Auf ausgewhlte Position zeigen (Pos 8 in Liste), damit die Zutat darin abgelegt werden kann
			- Liste erstellen fr Zutatenauswahl, welche in die Maschine gestellt wird
*/
			nextion_change_page(FLUESSANZEIGE1);
    2e48:	84 e1       	ldi	r24, 0x14	; 20
    2e4a:	0e 94 ea 20 	call	0x41d4	; 0x41d4 <nextion_change_page>
			setze_aktuelle_Zutat_in_Maschine_prev(8);
    2e4e:	88 e0       	ldi	r24, 0x08	; 8
    2e50:	0e 94 4c 0d 	call	0x1a98	; 0x1a98 <setze_aktuelle_Zutat_in_Maschine_prev>
			erstelle_Liste_Zutat_Pos("fluessigkeit");
    2e54:	87 ee       	ldi	r24, 0xE7	; 231
    2e56:	94 e0       	ldi	r25, 0x04	; 4
    2e58:	0c 94 cd 0b 	jmp	0x179a	; 0x179a <erstelle_Liste_Zutat_Pos>
		break;
    2e5c:	08 95       	ret
/*		0x0A = 0b10
			- Wechsle auf Flssigkeitsanzeige1
			- Auf ausgewhlte Position zeigen (Pos 9 in Liste), damit die Zutat darin abgelegt werden kann
			- Liste erstellen fr Zutatenauswahl, welche in die Maschine gestellt wird
*/
			nextion_change_page(FLUESSANZEIGE1);
    2e5e:	84 e1       	ldi	r24, 0x14	; 20
    2e60:	0e 94 ea 20 	call	0x41d4	; 0x41d4 <nextion_change_page>
			setze_aktuelle_Zutat_in_Maschine_prev(9);
    2e64:	89 e0       	ldi	r24, 0x09	; 9
    2e66:	0e 94 4c 0d 	call	0x1a98	; 0x1a98 <setze_aktuelle_Zutat_in_Maschine_prev>
			erstelle_Liste_Zutat_Pos("fluessigkeit");
    2e6a:	87 ee       	ldi	r24, 0xE7	; 231
    2e6c:	94 e0       	ldi	r25, 0x04	; 4
    2e6e:	0c 94 cd 0b 	jmp	0x179a	; 0x179a <erstelle_Liste_Zutat_Pos>
		break;
    2e72:	08 95       	ret
/*		0x0B = 0b11
			- Wechsle auf Flssigkeitsanzeige1
			- Auf ausgewhlte Position zeigen (Pos 10 in Liste), damit die Zutat darin abgelegt werden kann
			- Liste erstellen fr Zutatenauswahl, welche in die Maschine gestellt wird
*/
			nextion_change_page(FLUESSANZEIGE1);
    2e74:	84 e1       	ldi	r24, 0x14	; 20
    2e76:	0e 94 ea 20 	call	0x41d4	; 0x41d4 <nextion_change_page>
			setze_aktuelle_Zutat_in_Maschine_prev(10);
    2e7a:	8a e0       	ldi	r24, 0x0A	; 10
    2e7c:	0e 94 4c 0d 	call	0x1a98	; 0x1a98 <setze_aktuelle_Zutat_in_Maschine_prev>
			erstelle_Liste_Zutat_Pos("fluessigkeit");
    2e80:	87 ee       	ldi	r24, 0xE7	; 231
    2e82:	94 e0       	ldi	r25, 0x04	; 4
    2e84:	0c 94 cd 0b 	jmp	0x179a	; 0x179a <erstelle_Liste_Zutat_Pos>
		break;
    2e88:	08 95       	ret
/*		0x0C = 0b12
			- Wechsle auf Flssigkeitsanzeige1
			- Auf ausgewhlte Position zeigen (Pos 11 in Liste), damit die Zutat darin abgelegt werden kann
			- Liste erstellen fr Zutatenauswahl, welche in die Maschine gestellt wird
*/
			nextion_change_page(FLUESSANZEIGE1);
    2e8a:	84 e1       	ldi	r24, 0x14	; 20
    2e8c:	0e 94 ea 20 	call	0x41d4	; 0x41d4 <nextion_change_page>
			setze_aktuelle_Zutat_in_Maschine_prev(11);
    2e90:	8b e0       	ldi	r24, 0x0B	; 11
    2e92:	0e 94 4c 0d 	call	0x1a98	; 0x1a98 <setze_aktuelle_Zutat_in_Maschine_prev>
			erstelle_Liste_Zutat_Pos("fluessigkeit");
    2e96:	87 ee       	ldi	r24, 0xE7	; 231
    2e98:	94 e0       	ldi	r25, 0x04	; 4
    2e9a:	0c 94 cd 0b 	jmp	0x179a	; 0x179a <erstelle_Liste_Zutat_Pos>
		break;
    2e9e:	08 95       	ret

		case ZURUECK3:
/*		0x0D = 0b13
			- Wechsle auf Menuanzeige
*/
			nextion_change_page(MENUANZEIGE);
    2ea0:	87 e0       	ldi	r24, 0x07	; 7
    2ea2:	0c 94 ea 20 	jmp	0x41d4	; 0x41d4 <nextion_change_page>
    2ea6:	08 95       	ret

00002ea8 <check_fluessanzeige1>:
	}
}

void check_fluessanzeige1(uint8_t button)
{
	switch (button)
    2ea8:	90 e0       	ldi	r25, 0x00	; 0
    2eaa:	fc 01       	movw	r30, r24
    2eac:	31 97       	sbiw	r30, 0x01	; 1
    2eae:	eb 30       	cpi	r30, 0x0B	; 11
    2eb0:	f1 05       	cpc	r31, r1
    2eb2:	08 f0       	brcs	.+2      	; 0x2eb6 <check_fluessanzeige1+0xe>
    2eb4:	56 c0       	rjmp	.+172    	; 0x2f62 <check_fluessanzeige1+0xba>
    2eb6:	88 27       	eor	r24, r24
    2eb8:	e3 51       	subi	r30, 0x13	; 19
    2eba:	ff 4f       	sbci	r31, 0xFF	; 255
    2ebc:	8f 4f       	sbci	r24, 0xFF	; 255
    2ebe:	0c 94 bf 32 	jmp	0x657e	; 0x657e <__tablejump2__>
	{
		case FLUESSIGKEIT1:
/*		0x01 = 0b01
			- Lese File an Stelle 0 der Liste und setze Status VOLL
*/
			setze_Fluessgkeit_in_Position(0, VOLL);
    2ec2:	61 e0       	ldi	r22, 0x01	; 1
    2ec4:	80 e0       	ldi	r24, 0x00	; 0
    2ec6:	0c 94 67 0d 	jmp	0x1ace	; 0x1ace <setze_Fluessgkeit_in_Position>
		break;
    2eca:	08 95       	ret
		
		case FLUESSIGKEIT2:
/*		0x02 = 0b02
			- Lese File an Stelle 1 der Liste und setze Status VOLL
*/		
			setze_Fluessgkeit_in_Position(1, VOLL);
    2ecc:	61 e0       	ldi	r22, 0x01	; 1
    2ece:	81 e0       	ldi	r24, 0x01	; 1
    2ed0:	0c 94 67 0d 	jmp	0x1ace	; 0x1ace <setze_Fluessgkeit_in_Position>
		break;
    2ed4:	08 95       	ret
		
		case FLUESSIGKEIT3:
/*		0x03 = 0b03
			- Lese File an Stelle 2 der Liste und setze Status VOLL
*/
			setze_Fluessgkeit_in_Position(2, VOLL);
    2ed6:	61 e0       	ldi	r22, 0x01	; 1
    2ed8:	82 e0       	ldi	r24, 0x02	; 2
    2eda:	0c 94 67 0d 	jmp	0x1ace	; 0x1ace <setze_Fluessgkeit_in_Position>
		break;
    2ede:	08 95       	ret
		
		case FLUESSIGKEIT4:
/*		0x04 = 0b04
			- Lese File an Stelle 3 der Liste und setze Status VOLL
*/
			setze_Fluessgkeit_in_Position(3, VOLL);
    2ee0:	61 e0       	ldi	r22, 0x01	; 1
    2ee2:	83 e0       	ldi	r24, 0x03	; 3
    2ee4:	0c 94 67 0d 	jmp	0x1ace	; 0x1ace <setze_Fluessgkeit_in_Position>
		break;
    2ee8:	08 95       	ret
		
		case FLUESSIGKEIT5:
/*		0x05 = 0b05
			- Lese File an Stelle 4 der Liste und setze Status VOLL
*/
			setze_Fluessgkeit_in_Position(4, VOLL);
    2eea:	61 e0       	ldi	r22, 0x01	; 1
    2eec:	84 e0       	ldi	r24, 0x04	; 4
    2eee:	0c 94 67 0d 	jmp	0x1ace	; 0x1ace <setze_Fluessgkeit_in_Position>
		break;
    2ef2:	08 95       	ret
		
		case FLUESSIGKEIT6:
/*		0x06 = 0b06
			- Lese File an Stelle 5 der Liste und setze Status VOLL
*/
			setze_Fluessgkeit_in_Position(5, VOLL);
    2ef4:	61 e0       	ldi	r22, 0x01	; 1
    2ef6:	85 e0       	ldi	r24, 0x05	; 5
    2ef8:	0c 94 67 0d 	jmp	0x1ace	; 0x1ace <setze_Fluessgkeit_in_Position>
		break;
    2efc:	08 95       	ret
		case RAUFLIST5:
/*		0x07 = 0b07
			- Untere Blockierung aufheben
			- Gehe Liste um 6 Getrnke hoch, falls nicht schon am oberen Ende
			- Schreibe Cocktailnamen in die Liste*/
			block_list_runter = 0;
    2efe:	10 92 3f 08 	sts	0x083F, r1	; 0x80083f <block_list_runter>
			if (!block_list_hoch)
    2f02:	80 91 53 0c 	lds	r24, 0x0C53	; 0x800c53 <block_list_hoch>
    2f06:	81 11       	cpse	r24, r1
    2f08:	2c c0       	rjmp	.+88     	; 0x2f62 <check_fluessanzeige1+0xba>
			{
				i_Liste -= 6;
    2f0a:	80 91 8a 10 	lds	r24, 0x108A	; 0x80108a <i_Liste>
    2f0e:	86 50       	subi	r24, 0x06	; 6
    2f10:	80 93 8a 10 	sts	0x108A, r24	; 0x80108a <i_Liste>
				erstelle_Liste_Zutat_Pos("fluessigkeit");
    2f14:	87 ee       	ldi	r24, 0xE7	; 231
    2f16:	94 e0       	ldi	r25, 0x04	; 4
    2f18:	0c 94 cd 0b 	jmp	0x179a	; 0x179a <erstelle_Liste_Zutat_Pos>
    2f1c:	08 95       	ret
/*		0x08 = 0b08
			- Obere Blockierung aufheben
			- Gehe Liste um 6 Getrnke runter, falls nicht schon am unteren Ende
			- Schreibe Cocktailnamen in die Liste
*/
			block_list_hoch = 0;
    2f1e:	10 92 53 0c 	sts	0x0C53, r1	; 0x800c53 <block_list_hoch>
			if (!block_list_runter)
    2f22:	80 91 3f 08 	lds	r24, 0x083F	; 0x80083f <block_list_runter>
    2f26:	81 11       	cpse	r24, r1
    2f28:	1c c0       	rjmp	.+56     	; 0x2f62 <check_fluessanzeige1+0xba>
			{
				i_Liste += 6;
    2f2a:	80 91 8a 10 	lds	r24, 0x108A	; 0x80108a <i_Liste>
    2f2e:	8a 5f       	subi	r24, 0xFA	; 250
    2f30:	80 93 8a 10 	sts	0x108A, r24	; 0x80108a <i_Liste>
				erstelle_Liste_Zutat_Pos("fluessigkeit");
    2f34:	87 ee       	ldi	r24, 0xE7	; 231
    2f36:	94 e0       	ldi	r25, 0x04	; 4
    2f38:	0c 94 cd 0b 	jmp	0x179a	; 0x179a <erstelle_Liste_Zutat_Pos>
    2f3c:	08 95       	ret
		case NEUEFLUESSIGKEIT:
/*		0x09 = 0b09
			- Fluessanzeige2 setzen
			- i_Liste fr Listenabschnitt auf 0 setzen
*/
			nextion_change_page(FLUESSANZEIGE2);
    2f3e:	85 e1       	ldi	r24, 0x15	; 21
    2f40:	0e 94 ea 20 	call	0x41d4	; 0x41d4 <nextion_change_page>
			i_Liste = 0;
    2f44:	10 92 8a 10 	sts	0x108A, r1	; 0x80108a <i_Liste>
		break;
    2f48:	08 95       	ret
		case KEINEFLUESSIGKEIT:
/*		0x0A = 0b10
			- Flssigkeit ausserhalb des Listenbereichs bedeutet keine Flssigkeit, deshalb 6
			- Der Status der Flssigkeit ist KEINGETRAENK
*/
			setze_Fluessgkeit_in_Position(6, KEINGETRAENK);
    2f4a:	60 e0       	ldi	r22, 0x00	; 0
    2f4c:	86 e0       	ldi	r24, 0x06	; 6
    2f4e:	0c 94 67 0d 	jmp	0x1ace	; 0x1ace <setze_Fluessgkeit_in_Position>
		break;
    2f52:	08 95       	ret
/*		0x0B = 0b11
			- Posanzeige setzen
			- Frbe die Nummern der Positionen gemss Status
			- i_Liste fr Listenabschnitt auf 0 setzen
*/
			i_Liste = 0;
    2f54:	10 92 8a 10 	sts	0x108A, r1	; 0x80108a <i_Liste>
			nextion_change_page(POSANZEIGE);
    2f58:	83 e1       	ldi	r24, 0x13	; 19
    2f5a:	0e 94 ea 20 	call	0x41d4	; 0x41d4 <nextion_change_page>
			setze_Posanzeige_Rot_Gruen();
    2f5e:	0c 94 c6 0c 	jmp	0x198c	; 0x198c <setze_Posanzeige_Rot_Gruen>
    2f62:	08 95       	ret

00002f64 <check_fluessanzeige2>:
	Seite Erstanzeige1. Bis auf den Weiter-Button haben alle die selbe
	Funktion. Deswegen werden auch die selben ID's gesendet, wie auf der
	Erstanzeige1-seite und somit auch diese schon geschriebenen
	Funktionen. Der Weiter-Button wird im folgenden aufgefhrt.
*/
	switch (button)
    2f64:	81 30       	cpi	r24, 0x01	; 1
    2f66:	21 f5       	brne	.+72     	; 0x2fb0 <check_fluessanzeige2+0x4c>
/*		0x01 = 0b01
			- FLUESSANZEIGE3 setzen
			- Name in aktuellesGetraenk schreiben
			- i_Liste fr Listenabschnitt auf 0 setzen
*/
			nextion_change_page(FLUESSANZEIGE3);
    2f68:	86 e1       	ldi	r24, 0x16	; 22
    2f6a:	0e 94 ea 20 	call	0x41d4	; 0x41d4 <nextion_change_page>
			uint8_t len = strlen((const char *)buff_name);
    2f6e:	e2 e6       	ldi	r30, 0x62	; 98
    2f70:	fd e0       	ldi	r31, 0x0D	; 13
    2f72:	01 90       	ld	r0, Z+
    2f74:	00 20       	and	r0, r0
    2f76:	e9 f7       	brne	.-6      	; 0x2f72 <check_fluessanzeige2+0xe>
    2f78:	31 97       	sbiw	r30, 0x01	; 1
    2f7a:	9f 01       	movw	r18, r30
    2f7c:	22 56       	subi	r18, 0x62	; 98
    2f7e:	3d 40       	sbci	r19, 0x0D	; 13
			for (int count = 0 ; count < len + 1; count++)
    2f80:	33 27       	eor	r19, r19
    2f82:	2f 5f       	subi	r18, 0xFF	; 255
    2f84:	3f 4f       	sbci	r19, 0xFF	; 255
    2f86:	a2 e6       	ldi	r26, 0x62	; 98
    2f88:	bd e0       	ldi	r27, 0x0D	; 13
    2f8a:	80 e0       	ldi	r24, 0x00	; 0
    2f8c:	90 e0       	ldi	r25, 0x00	; 0
			{
				*(aktuelle_zutat->name + count) = *(buff_name + count);
    2f8e:	4d 91       	ld	r20, X+
    2f90:	e0 91 13 08 	lds	r30, 0x0813	; 0x800813 <aktuelle_zutat>
    2f94:	f0 91 14 08 	lds	r31, 0x0814	; 0x800814 <aktuelle_zutat+0x1>
    2f98:	01 90       	ld	r0, Z+
    2f9a:	f0 81       	ld	r31, Z
    2f9c:	e0 2d       	mov	r30, r0
    2f9e:	e8 0f       	add	r30, r24
    2fa0:	f9 1f       	adc	r31, r25
    2fa2:	40 83       	st	Z, r20
			- Name in aktuellesGetraenk schreiben
			- i_Liste fr Listenabschnitt auf 0 setzen
*/
			nextion_change_page(FLUESSANZEIGE3);
			uint8_t len = strlen((const char *)buff_name);
			for (int count = 0 ; count < len + 1; count++)
    2fa4:	01 96       	adiw	r24, 0x01	; 1
    2fa6:	82 17       	cp	r24, r18
    2fa8:	93 07       	cpc	r25, r19
    2faa:	8c f3       	brlt	.-30     	; 0x2f8e <check_fluessanzeige2+0x2a>
			{
				*(aktuelle_zutat->name + count) = *(buff_name + count);
			}
			counter = 0;
    2fac:	10 92 5a 0d 	sts	0x0D5A, r1	; 0x800d5a <counter>
    2fb0:	08 95       	ret

00002fb2 <check_fluessanzeige3>:
		break;
	}
}

void check_fluessanzeige3(uint8_t button)
{
    2fb2:	bf 92       	push	r11
    2fb4:	cf 92       	push	r12
    2fb6:	df 92       	push	r13
    2fb8:	ef 92       	push	r14
    2fba:	ff 92       	push	r15
    2fbc:	0f 93       	push	r16
    2fbe:	1f 93       	push	r17
    2fc0:	cf 93       	push	r28
    2fc2:	df 93       	push	r29
    2fc4:	cd b7       	in	r28, 0x3d	; 61
    2fc6:	de b7       	in	r29, 0x3e	; 62
    2fc8:	c6 54       	subi	r28, 0x46	; 70
    2fca:	d1 09       	sbc	r29, r1
    2fcc:	0f b6       	in	r0, 0x3f	; 63
    2fce:	f8 94       	cli
    2fd0:	de bf       	out	0x3e, r29	; 62
    2fd2:	0f be       	out	0x3f, r0	; 63
    2fd4:	cd bf       	out	0x3d, r28	; 61
	char buff_filename[15] = {'\0'};
    2fd6:	fe 01       	movw	r30, r28
    2fd8:	31 96       	adiw	r30, 0x01	; 1
    2fda:	9f e0       	ldi	r25, 0x0F	; 15
    2fdc:	df 01       	movw	r26, r30
    2fde:	1d 92       	st	X+, r1
    2fe0:	9a 95       	dec	r25
    2fe2:	e9 f7       	brne	.-6      	; 0x2fde <check_fluessanzeige3+0x2c>
	char buff_string[50] = {'\0'};
    2fe4:	3f 96       	adiw	r30, 0x0f	; 15
    2fe6:	92 e3       	ldi	r25, 0x32	; 50
    2fe8:	df 01       	movw	r26, r30
    2fea:	1d 92       	st	X+, r1
    2fec:	9a 95       	dec	r25
    2fee:	e9 f7       	brne	.-6      	; 0x2fea <check_fluessanzeige3+0x38>
	char buff_itoa[5] = {'\0'};
    2ff0:	f2 96       	adiw	r30, 0x32	; 50
    2ff2:	95 e0       	ldi	r25, 0x05	; 5
    2ff4:	df 01       	movw	r26, r30
    2ff6:	1d 92       	st	X+, r1
    2ff8:	9a 95       	dec	r25
    2ffa:	e9 f7       	brne	.-6      	; 0x2ff6 <check_fluessanzeige3+0x44>
	char * ptr = buff_string;
	zutat_file_t * tmp;
	switch (button)
    2ffc:	81 30       	cpi	r24, 0x01	; 1
    2ffe:	08 f4       	brcc	.+2      	; 0x3002 <check_fluessanzeige3+0x50>
    3000:	d7 c0       	rjmp	.+430    	; 0x31b0 <check_fluessanzeige3+0x1fe>
    3002:	18 2f       	mov	r17, r24
    3004:	83 30       	cpi	r24, 0x03	; 3
    3006:	20 f0       	brcs	.+8      	; 0x3010 <check_fluessanzeige3+0x5e>
    3008:	83 30       	cpi	r24, 0x03	; 3
    300a:	09 f4       	brne	.+2      	; 0x300e <check_fluessanzeige3+0x5c>
    300c:	ce c0       	rjmp	.+412    	; 0x31aa <check_fluessanzeige3+0x1f8>
    300e:	d0 c0       	rjmp	.+416    	; 0x31b0 <check_fluessanzeige3+0x1fe>
			- Untere Blockierung aufheben
			- Obere Blockierung aufheben
			- Liste mit Zutaten erstellen
			- Name der aktuellen Zutat auf 0 initialisieren
*/
			strcpy(ptr, (const char *)"Name:");
    3010:	7e 01       	movw	r14, r28
    3012:	b0 e1       	ldi	r27, 0x10	; 16
    3014:	eb 0e       	add	r14, r27
    3016:	f1 1c       	adc	r15, r1
    3018:	86 e0       	ldi	r24, 0x06	; 6
    301a:	ed e8       	ldi	r30, 0x8D	; 141
    301c:	f4 e0       	ldi	r31, 0x04	; 4
    301e:	d7 01       	movw	r26, r14
    3020:	01 90       	ld	r0, Z+
    3022:	0d 92       	st	X+, r0
    3024:	8a 95       	dec	r24
    3026:	e1 f7       	brne	.-8      	; 0x3020 <check_fluessanzeige3+0x6e>
			strcat(ptr, (const char *)aktuelle_zutat->name);
    3028:	e0 91 13 08 	lds	r30, 0x0813	; 0x800813 <aktuelle_zutat>
    302c:	f0 91 14 08 	lds	r31, 0x0814	; 0x800814 <aktuelle_zutat+0x1>
    3030:	60 81       	ld	r22, Z
    3032:	71 81       	ldd	r23, Z+1	; 0x01
    3034:	c7 01       	movw	r24, r14
    3036:	0e 94 42 34 	call	0x6884	; 0x6884 <strcat>
			strcat(ptr, (const char *)"\rAlkohol:");
    303a:	d7 01       	movw	r26, r14
    303c:	0d 90       	ld	r0, X+
    303e:	00 20       	and	r0, r0
    3040:	e9 f7       	brne	.-6      	; 0x303c <check_fluessanzeige3+0x8a>
    3042:	11 97       	sbiw	r26, 0x01	; 1
    3044:	8a e0       	ldi	r24, 0x0A	; 10
    3046:	e4 ef       	ldi	r30, 0xF4	; 244
    3048:	f4 e0       	ldi	r31, 0x04	; 4
    304a:	01 90       	ld	r0, Z+
    304c:	0d 92       	st	X+, r0
    304e:	8a 95       	dec	r24
    3050:	e1 f7       	brne	.-8      	; 0x304a <check_fluessanzeige3+0x98>
			if (button == JA1)
    3052:	11 30       	cpi	r17, 0x01	; 1
    3054:	49 f4       	brne	.+18     	; 0x3068 <check_fluessanzeige3+0xb6>
    3056:	4a e0       	ldi	r20, 0x0A	; 10
    3058:	be 01       	movw	r22, r28
    305a:	6e 5b       	subi	r22, 0xBE	; 190
    305c:	7f 4f       	sbci	r23, 0xFF	; 255
    305e:	81 e0       	ldi	r24, 0x01	; 1
    3060:	90 e0       	ldi	r25, 0x00	; 0
    3062:	0e 94 7b 34 	call	0x68f6	; 0x68f6 <__itoa_ncheck>
    3066:	0a c0       	rjmp	.+20     	; 0x307c <check_fluessanzeige3+0xca>
			{
				itoa(1, (char *)buff_itoa, 10);
			}
			if (button == NEIN2)
    3068:	12 30       	cpi	r17, 0x02	; 2
    306a:	41 f4       	brne	.+16     	; 0x307c <check_fluessanzeige3+0xca>
    306c:	4a e0       	ldi	r20, 0x0A	; 10
    306e:	be 01       	movw	r22, r28
    3070:	6e 5b       	subi	r22, 0xBE	; 190
    3072:	7f 4f       	sbci	r23, 0xFF	; 255
    3074:	80 e0       	ldi	r24, 0x00	; 0
    3076:	90 e0       	ldi	r25, 0x00	; 0
    3078:	0e 94 7b 34 	call	0x68f6	; 0x68f6 <__itoa_ncheck>
			{
				itoa(0, (char *)buff_itoa, 10);
			}
			strcat(ptr, (const char *)buff_itoa);
    307c:	8e 01       	movw	r16, r28
    307e:	00 5f       	subi	r16, 0xF0	; 240
    3080:	1f 4f       	sbci	r17, 0xFF	; 255
    3082:	be 01       	movw	r22, r28
    3084:	6e 5b       	subi	r22, 0xBE	; 190
    3086:	7f 4f       	sbci	r23, 0xFF	; 255
    3088:	c8 01       	movw	r24, r16
    308a:	0e 94 42 34 	call	0x6884	; 0x6884 <strcat>
			strcat(ptr, (const char *)"~");
    308e:	f8 01       	movw	r30, r16
    3090:	01 90       	ld	r0, Z+
    3092:	00 20       	and	r0, r0
    3094:	e9 f7       	brne	.-6      	; 0x3090 <check_fluessanzeige3+0xde>
    3096:	31 97       	sbiw	r30, 0x01	; 1
    3098:	8e e7       	ldi	r24, 0x7E	; 126
    309a:	90 e0       	ldi	r25, 0x00	; 0
    309c:	91 83       	std	Z+1, r25	; 0x01
    309e:	80 83       	st	Z, r24
			
			uint8_t stop_suche = 0;
			uint8_t count = 1;
    30a0:	bb 24       	eor	r11, r11
    30a2:	b3 94       	inc	r11
			while (stop_suche == 0)
			{
				// String mit Name des Textfiles erstellen (Z0.txt bis Z199.txt)
				strcpy((char *)buff_filename, (const char *)"Z");
    30a4:	0f 2e       	mov	r0, r31
    30a6:	fa e5       	ldi	r31, 0x5A	; 90
    30a8:	cf 2e       	mov	r12, r31
    30aa:	d1 2c       	mov	r13, r1
    30ac:	f0 2d       	mov	r31, r0
				itoa(count, (char *)buff_itoa, 10);
				strcat((char *)buff_filename, (const char *)buff_itoa);
    30ae:	0f 50       	subi	r16, 0x0F	; 15
    30b0:	11 09       	sbc	r17, r1
			uint8_t stop_suche = 0;
			uint8_t count = 1;
			while (stop_suche == 0)
			{
				// String mit Name des Textfiles erstellen (Z0.txt bis Z199.txt)
				strcpy((char *)buff_filename, (const char *)"Z");
    30b2:	da 82       	std	Y+2, r13	; 0x02
    30b4:	c9 82       	std	Y+1, r12	; 0x01
				itoa(count, (char *)buff_itoa, 10);
    30b6:	eb 2c       	mov	r14, r11
    30b8:	f1 2c       	mov	r15, r1
    30ba:	4a e0       	ldi	r20, 0x0A	; 10
    30bc:	be 01       	movw	r22, r28
    30be:	6e 5b       	subi	r22, 0xBE	; 190
    30c0:	7f 4f       	sbci	r23, 0xFF	; 255
    30c2:	c7 01       	movw	r24, r14
    30c4:	0e 94 7b 34 	call	0x68f6	; 0x68f6 <__itoa_ncheck>
				strcat((char *)buff_filename, (const char *)buff_itoa);
    30c8:	be 01       	movw	r22, r28
    30ca:	6e 5b       	subi	r22, 0xBE	; 190
    30cc:	7f 4f       	sbci	r23, 0xFF	; 255
    30ce:	c8 01       	movw	r24, r16
    30d0:	0e 94 42 34 	call	0x6884	; 0x6884 <strcat>
				strcat((char *)buff_filename, (const char *)".txt");
    30d4:	d8 01       	movw	r26, r16
    30d6:	0d 90       	ld	r0, X+
    30d8:	00 20       	and	r0, r0
    30da:	e9 f7       	brne	.-6      	; 0x30d6 <check_fluessanzeige3+0x124>
    30dc:	11 97       	sbiw	r26, 0x01	; 1
    30de:	85 e0       	ldi	r24, 0x05	; 5
    30e0:	eb ec       	ldi	r30, 0xCB	; 203
    30e2:	f4 e0       	ldi	r31, 0x04	; 4
    30e4:	01 90       	ld	r0, Z+
    30e6:	0d 92       	st	X+, r0
    30e8:	8a 95       	dec	r24
    30ea:	e1 f7       	brne	.-8      	; 0x30e4 <check_fluessanzeige3+0x132>
				
				// Prfen ob File existiert
				if(readFile(VERIFY, (unsigned char *)buff_filename)!=1)
    30ec:	b8 01       	movw	r22, r16
    30ee:	81 e0       	ldi	r24, 0x01	; 1
    30f0:	0e 94 db 28 	call	0x51b6	; 0x51b6 <readFile>
    30f4:	81 30       	cpi	r24, 0x01	; 1
    30f6:	09 f4       	brne	.+2      	; 0x30fa <check_fluessanzeige3+0x148>
    30f8:	47 c0       	rjmp	.+142    	; 0x3188 <check_fluessanzeige3+0x1d6>
				{
					// Nummer des Existierenden Files in der Liste ablegen (head_zutat = letzt hinzugefgtes Getrnk)
					tmp = create_new_zutat_file(count);
    30fa:	8b 2d       	mov	r24, r11
    30fc:	96 d5       	rcall	.+2860   	; 0x3c2a <create_new_zutat_file>
					head_zutat_file = insert_zutat_file_at_head(&head_zutat_file, tmp);
    30fe:	bc 01       	movw	r22, r24
    3100:	8f ef       	ldi	r24, 0xFF	; 255
    3102:	96 e0       	ldi	r25, 0x06	; 6
    3104:	9e d5       	rcall	.+2876   	; 0x3c42 <insert_zutat_file_at_head>
    3106:	90 93 00 07 	sts	0x0700, r25	; 0x800700 <head_zutat_file+0x1>
    310a:	80 93 ff 06 	sts	0x06FF, r24	; 0x8006ff <head_zutat_file>
					stop_suche = 1;
					count--;
				}
				count++;
			}
			strcpy((char *)buff_filename, (const char *)"Z");
    310e:	8a e5       	ldi	r24, 0x5A	; 90
    3110:	90 e0       	ldi	r25, 0x00	; 0
    3112:	9a 83       	std	Y+2, r25	; 0x02
    3114:	89 83       	std	Y+1, r24	; 0x01
    3116:	4a e0       	ldi	r20, 0x0A	; 10
    3118:	be 01       	movw	r22, r28
    311a:	6e 5b       	subi	r22, 0xBE	; 190
    311c:	7f 4f       	sbci	r23, 0xFF	; 255
    311e:	c7 01       	movw	r24, r14
    3120:	0e 94 7b 34 	call	0x68f6	; 0x68f6 <__itoa_ncheck>
			itoa(count, (char *)buff_itoa, 10);
			strcat((char *)buff_filename, (const char *)buff_itoa);
    3124:	be 01       	movw	r22, r28
    3126:	6e 5b       	subi	r22, 0xBE	; 190
    3128:	7f 4f       	sbci	r23, 0xFF	; 255
    312a:	8e 01       	movw	r16, r28
    312c:	0f 5f       	subi	r16, 0xFF	; 255
    312e:	1f 4f       	sbci	r17, 0xFF	; 255
    3130:	c8 01       	movw	r24, r16
    3132:	0e 94 42 34 	call	0x6884	; 0x6884 <strcat>
			strcat((char *)buff_filename, (const char *)".txt");
    3136:	d8 01       	movw	r26, r16
    3138:	0d 90       	ld	r0, X+
    313a:	00 20       	and	r0, r0
    313c:	e9 f7       	brne	.-6      	; 0x3138 <check_fluessanzeige3+0x186>
    313e:	11 97       	sbiw	r26, 0x01	; 1
    3140:	85 e0       	ldi	r24, 0x05	; 5
    3142:	eb ec       	ldi	r30, 0xCB	; 203
    3144:	f4 e0       	ldi	r31, 0x04	; 4
    3146:	01 90       	ld	r0, Z+
    3148:	0d 92       	st	X+, r0
    314a:	8a 95       	dec	r24
    314c:	e1 f7       	brne	.-8      	; 0x3146 <check_fluessanzeige3+0x194>
			writeFile((unsigned char *)buff_filename, (unsigned char *)ptr);
    314e:	be 01       	movw	r22, r28
    3150:	60 5f       	subi	r22, 0xF0	; 240
    3152:	7f 4f       	sbci	r23, 0xFF	; 255
    3154:	c8 01       	movw	r24, r16
    3156:	0e 94 b5 29 	call	0x536a	; 0x536a <writeFile>
			
// 			nextion_change_page(FLUESSANZEIGE1);
			i_Liste = 0;
    315a:	10 92 8a 10 	sts	0x108A, r1	; 0x80108a <i_Liste>
			block_list_runter = 0;
    315e:	10 92 3f 08 	sts	0x083F, r1	; 0x80083f <block_list_runter>
			block_list_hoch = 0;
    3162:	10 92 53 0c 	sts	0x0C53, r1	; 0x800c53 <block_list_hoch>
			erstelle_Liste_Zutat_Pos("fluessigkeit");
    3166:	87 ee       	ldi	r24, 0xE7	; 231
    3168:	94 e0       	ldi	r25, 0x04	; 4
    316a:	0e 94 cd 0b 	call	0x179a	; 0x179a <erstelle_Liste_Zutat_Pos>
			uint8_t len = strlen((const char *)buff_name);
    316e:	e2 e6       	ldi	r30, 0x62	; 98
    3170:	fd e0       	ldi	r31, 0x0D	; 13
    3172:	01 90       	ld	r0, Z+
    3174:	00 20       	and	r0, r0
    3176:	e9 f7       	brne	.-6      	; 0x3172 <check_fluessanzeige3+0x1c0>
    3178:	31 97       	sbiw	r30, 0x01	; 1
    317a:	e2 56       	subi	r30, 0x62	; 98
    317c:	fd 40       	sbci	r31, 0x0D	; 13
			for (int count = 0 ; count < len + 1; count++)
    317e:	ff 27       	eor	r31, r31
    3180:	31 96       	adiw	r30, 0x01	; 1
    3182:	80 e0       	ldi	r24, 0x00	; 0
    3184:	90 e0       	ldi	r25, 0x00	; 0
    3186:	02 c0       	rjmp	.+4      	; 0x318c <check_fluessanzeige3+0x1da>
					tmp = create_new_zutat_file(count);
					head_zutat_file = insert_zutat_file_at_head(&head_zutat_file, tmp);
					stop_suche = 1;
					count--;
				}
				count++;
    3188:	b3 94       	inc	r11
    318a:	93 cf       	rjmp	.-218    	; 0x30b2 <check_fluessanzeige3+0x100>
			block_list_hoch = 0;
			erstelle_Liste_Zutat_Pos("fluessigkeit");
			uint8_t len = strlen((const char *)buff_name);
			for (int count = 0 ; count < len + 1; count++)
			{
				*(aktuelle_zutat->name + count) = '\0';
    318c:	a0 91 13 08 	lds	r26, 0x0813	; 0x800813 <aktuelle_zutat>
    3190:	b0 91 14 08 	lds	r27, 0x0814	; 0x800814 <aktuelle_zutat+0x1>
    3194:	0d 90       	ld	r0, X+
    3196:	bc 91       	ld	r27, X
    3198:	a0 2d       	mov	r26, r0
    319a:	a8 0f       	add	r26, r24
    319c:	b9 1f       	adc	r27, r25
    319e:	1c 92       	st	X, r1
			i_Liste = 0;
			block_list_runter = 0;
			block_list_hoch = 0;
			erstelle_Liste_Zutat_Pos("fluessigkeit");
			uint8_t len = strlen((const char *)buff_name);
			for (int count = 0 ; count < len + 1; count++)
    31a0:	01 96       	adiw	r24, 0x01	; 1
    31a2:	8e 17       	cp	r24, r30
    31a4:	9f 07       	cpc	r25, r31
    31a6:	94 f3       	brlt	.-28     	; 0x318c <check_fluessanzeige3+0x1da>
    31a8:	03 c0       	rjmp	.+6      	; 0x31b0 <check_fluessanzeige3+0x1fe>
		
		case ZURUECK7:
/*		0x0A = 0b10
			- FLUESSANZEIGE2 setzen
*/
			nextion_change_page(FLUESSANZEIGE2);
    31aa:	85 e1       	ldi	r24, 0x15	; 21
    31ac:	0e 94 ea 20 	call	0x41d4	; 0x41d4 <nextion_change_page>
		break;
	}
}
    31b0:	ca 5b       	subi	r28, 0xBA	; 186
    31b2:	df 4f       	sbci	r29, 0xFF	; 255
    31b4:	0f b6       	in	r0, 0x3f	; 63
    31b6:	f8 94       	cli
    31b8:	de bf       	out	0x3e, r29	; 62
    31ba:	0f be       	out	0x3f, r0	; 63
    31bc:	cd bf       	out	0x3d, r28	; 61
    31be:	df 91       	pop	r29
    31c0:	cf 91       	pop	r28
    31c2:	1f 91       	pop	r17
    31c4:	0f 91       	pop	r16
    31c6:	ff 90       	pop	r15
    31c8:	ef 90       	pop	r14
    31ca:	df 90       	pop	r13
    31cc:	cf 90       	pop	r12
    31ce:	bf 90       	pop	r11
    31d0:	08 95       	ret

000031d2 <check_RFIDAnzeige1>:

void check_RFIDAnzeige1(uint8_t button)
{
    31d2:	7f 92       	push	r7
    31d4:	8f 92       	push	r8
    31d6:	9f 92       	push	r9
    31d8:	af 92       	push	r10
    31da:	bf 92       	push	r11
    31dc:	cf 92       	push	r12
    31de:	df 92       	push	r13
    31e0:	ef 92       	push	r14
    31e2:	ff 92       	push	r15
    31e4:	0f 93       	push	r16
    31e6:	1f 93       	push	r17
    31e8:	cf 93       	push	r28
    31ea:	df 93       	push	r29
    31ec:	cd b7       	in	r28, 0x3d	; 61
    31ee:	de b7       	in	r29, 0x3e	; 62
    31f0:	2f 97       	sbiw	r28, 0x0f	; 15
    31f2:	0f b6       	in	r0, 0x3f	; 63
    31f4:	f8 94       	cli
    31f6:	de bf       	out	0x3e, r29	; 62
    31f8:	0f be       	out	0x3f, r0	; 63
    31fa:	cd bf       	out	0x3d, r28	; 61
	switch (button)
    31fc:	90 e0       	ldi	r25, 0x00	; 0
    31fe:	fc 01       	movw	r30, r24
    3200:	31 97       	sbiw	r30, 0x01	; 1
    3202:	e9 30       	cpi	r30, 0x09	; 9
    3204:	f1 05       	cpc	r31, r1
    3206:	08 f0       	brcs	.+2      	; 0x320a <check_RFIDAnzeige1+0x38>
    3208:	ad c1       	rjmp	.+858    	; 0x3564 <check_RFIDAnzeige1+0x392>
    320a:	88 27       	eor	r24, r24
    320c:	e8 50       	subi	r30, 0x08	; 8
    320e:	ff 4f       	sbci	r31, 0xFF	; 255
    3210:	8f 4f       	sbci	r24, 0xFF	; 255
    3212:	0c 94 bf 32 	jmp	0x657e	; 0x657e <__tablejump2__>
		case RFID1:
/*		0x01 = 0b01
			- Wechsle auf Zutatenanzeige
			-
*/
			aktueller_tag = tail_tag;
    3216:	e0 91 4c 0a 	lds	r30, 0x0A4C	; 0x800a4c <tail_tag>
    321a:	f0 91 4d 0a 	lds	r31, 0x0A4D	; 0x800a4d <tail_tag+0x1>
    321e:	f0 93 46 09 	sts	0x0946, r31	; 0x800946 <aktueller_tag+0x1>
    3222:	e0 93 45 09 	sts	0x0945, r30	; 0x800945 <aktueller_tag>
			for (int i = 0 ; i < i_Liste + 0 ; i++)
    3226:	20 91 8a 10 	lds	r18, 0x108A	; 0x80108a <i_Liste>
    322a:	30 e0       	ldi	r19, 0x00	; 0
    322c:	12 16       	cp	r1, r18
    322e:	13 06       	cpc	r1, r19
    3230:	6c f4       	brge	.+26     	; 0x324c <check_RFIDAnzeige1+0x7a>
    3232:	80 e0       	ldi	r24, 0x00	; 0
    3234:	90 e0       	ldi	r25, 0x00	; 0
			{
				aktueller_tag = aktueller_tag->prev;
    3236:	06 80       	ldd	r0, Z+6	; 0x06
    3238:	f7 81       	ldd	r31, Z+7	; 0x07
    323a:	e0 2d       	mov	r30, r0
/*		0x01 = 0b01
			- Wechsle auf Zutatenanzeige
			-
*/
			aktueller_tag = tail_tag;
			for (int i = 0 ; i < i_Liste + 0 ; i++)
    323c:	01 96       	adiw	r24, 0x01	; 1
    323e:	82 17       	cp	r24, r18
    3240:	93 07       	cpc	r25, r19
    3242:	c9 f7       	brne	.-14     	; 0x3236 <check_RFIDAnzeige1+0x64>
    3244:	f0 93 46 09 	sts	0x0946, r31	; 0x800946 <aktueller_tag+0x1>
    3248:	e0 93 45 09 	sts	0x0945, r30	; 0x800945 <aktueller_tag>
			{
				aktueller_tag = aktueller_tag->prev;
			}
			nextion_change_page(RFIDANZEIGE2);
    324c:	88 e1       	ldi	r24, 0x18	; 24
    324e:	c2 d7       	rcall	.+3972   	; 0x41d4 <nextion_change_page>
			i_Liste = 0;
    3250:	10 92 8a 10 	sts	0x108A, r1	; 0x80108a <i_Liste>
			block_list_hoch = 0;
    3254:	10 92 53 0c 	sts	0x0C53, r1	; 0x800c53 <block_list_hoch>
			block_list_runter = 0;
    3258:	10 92 3f 08 	sts	0x083F, r1	; 0x80083f <block_list_runter>
			erstelle_Liste_name("cocktail");
    325c:	82 e0       	ldi	r24, 0x02	; 2
    325e:	93 e0       	ldi	r25, 0x03	; 3
    3260:	0e 94 ee 07 	call	0xfdc	; 0xfdc <erstelle_Liste_name>
		break;
    3264:	7f c1       	rjmp	.+766    	; 0x3564 <check_RFIDAnzeige1+0x392>
		case RFID2:
/*		0x02 = 0b02
			- Wechsle auf Zutatenanzeige
			-
*/
			aktueller_tag = tail_tag;
    3266:	e0 91 4c 0a 	lds	r30, 0x0A4C	; 0x800a4c <tail_tag>
    326a:	f0 91 4d 0a 	lds	r31, 0x0A4D	; 0x800a4d <tail_tag+0x1>
    326e:	f0 93 46 09 	sts	0x0946, r31	; 0x800946 <aktueller_tag+0x1>
    3272:	e0 93 45 09 	sts	0x0945, r30	; 0x800945 <aktueller_tag>
			for (int i = 0 ; i < i_Liste + 1 ; i++)
    3276:	20 91 8a 10 	lds	r18, 0x108A	; 0x80108a <i_Liste>
    327a:	30 e0       	ldi	r19, 0x00	; 0
    327c:	2f 5f       	subi	r18, 0xFF	; 255
    327e:	3f 4f       	sbci	r19, 0xFF	; 255
    3280:	80 e0       	ldi	r24, 0x00	; 0
    3282:	90 e0       	ldi	r25, 0x00	; 0
			{
				aktueller_tag = aktueller_tag->prev;
    3284:	06 80       	ldd	r0, Z+6	; 0x06
    3286:	f7 81       	ldd	r31, Z+7	; 0x07
    3288:	e0 2d       	mov	r30, r0
/*		0x02 = 0b02
			- Wechsle auf Zutatenanzeige
			-
*/
			aktueller_tag = tail_tag;
			for (int i = 0 ; i < i_Liste + 1 ; i++)
    328a:	01 96       	adiw	r24, 0x01	; 1
    328c:	82 17       	cp	r24, r18
    328e:	93 07       	cpc	r25, r19
    3290:	cc f3       	brlt	.-14     	; 0x3284 <check_RFIDAnzeige1+0xb2>
    3292:	f0 93 46 09 	sts	0x0946, r31	; 0x800946 <aktueller_tag+0x1>
    3296:	e0 93 45 09 	sts	0x0945, r30	; 0x800945 <aktueller_tag>
			{
				aktueller_tag = aktueller_tag->prev;
			}
			nextion_change_page(RFIDANZEIGE2);
    329a:	88 e1       	ldi	r24, 0x18	; 24
    329c:	9b d7       	rcall	.+3894   	; 0x41d4 <nextion_change_page>
			i_Liste = 0;
    329e:	10 92 8a 10 	sts	0x108A, r1	; 0x80108a <i_Liste>
			block_list_hoch = 0;
    32a2:	10 92 53 0c 	sts	0x0C53, r1	; 0x800c53 <block_list_hoch>
			block_list_runter = 0;
    32a6:	10 92 3f 08 	sts	0x083F, r1	; 0x80083f <block_list_runter>
			erstelle_Liste_name("cocktail");
    32aa:	82 e0       	ldi	r24, 0x02	; 2
    32ac:	93 e0       	ldi	r25, 0x03	; 3
    32ae:	0e 94 ee 07 	call	0xfdc	; 0xfdc <erstelle_Liste_name>
		break;
    32b2:	58 c1       	rjmp	.+688    	; 0x3564 <check_RFIDAnzeige1+0x392>
		case RFID3:
/*		0x03 = 0b03
			- Wechsle auf Zutatenanzeige
			-
*/
			aktueller_tag = tail_tag;
    32b4:	e0 91 4c 0a 	lds	r30, 0x0A4C	; 0x800a4c <tail_tag>
    32b8:	f0 91 4d 0a 	lds	r31, 0x0A4D	; 0x800a4d <tail_tag+0x1>
    32bc:	f0 93 46 09 	sts	0x0946, r31	; 0x800946 <aktueller_tag+0x1>
    32c0:	e0 93 45 09 	sts	0x0945, r30	; 0x800945 <aktueller_tag>
			for (int i = 0 ; i < i_Liste + 2 ; i++)
    32c4:	20 91 8a 10 	lds	r18, 0x108A	; 0x80108a <i_Liste>
    32c8:	30 e0       	ldi	r19, 0x00	; 0
    32ca:	2e 5f       	subi	r18, 0xFE	; 254
    32cc:	3f 4f       	sbci	r19, 0xFF	; 255
    32ce:	80 e0       	ldi	r24, 0x00	; 0
    32d0:	90 e0       	ldi	r25, 0x00	; 0
			{
				aktueller_tag = aktueller_tag->prev;
    32d2:	06 80       	ldd	r0, Z+6	; 0x06
    32d4:	f7 81       	ldd	r31, Z+7	; 0x07
    32d6:	e0 2d       	mov	r30, r0
/*		0x03 = 0b03
			- Wechsle auf Zutatenanzeige
			-
*/
			aktueller_tag = tail_tag;
			for (int i = 0 ; i < i_Liste + 2 ; i++)
    32d8:	01 96       	adiw	r24, 0x01	; 1
    32da:	82 17       	cp	r24, r18
    32dc:	93 07       	cpc	r25, r19
    32de:	cc f3       	brlt	.-14     	; 0x32d2 <check_RFIDAnzeige1+0x100>
    32e0:	f0 93 46 09 	sts	0x0946, r31	; 0x800946 <aktueller_tag+0x1>
    32e4:	e0 93 45 09 	sts	0x0945, r30	; 0x800945 <aktueller_tag>
			{
				aktueller_tag = aktueller_tag->prev;
			}
			nextion_change_page(RFIDANZEIGE2);
    32e8:	88 e1       	ldi	r24, 0x18	; 24
    32ea:	74 d7       	rcall	.+3816   	; 0x41d4 <nextion_change_page>
			i_Liste = 0;
    32ec:	10 92 8a 10 	sts	0x108A, r1	; 0x80108a <i_Liste>
			block_list_hoch = 0;
    32f0:	10 92 53 0c 	sts	0x0C53, r1	; 0x800c53 <block_list_hoch>
			block_list_runter = 0;
    32f4:	10 92 3f 08 	sts	0x083F, r1	; 0x80083f <block_list_runter>
			erstelle_Liste_name("cocktail");
    32f8:	82 e0       	ldi	r24, 0x02	; 2
    32fa:	93 e0       	ldi	r25, 0x03	; 3
    32fc:	0e 94 ee 07 	call	0xfdc	; 0xfdc <erstelle_Liste_name>
		break;
    3300:	31 c1       	rjmp	.+610    	; 0x3564 <check_RFIDAnzeige1+0x392>
		case RFID4:
/*		0x04 = 0b04
			- Wechsle auf Zutatenanzeige
			-
*/
			aktueller_tag = tail_tag;
    3302:	e0 91 4c 0a 	lds	r30, 0x0A4C	; 0x800a4c <tail_tag>
    3306:	f0 91 4d 0a 	lds	r31, 0x0A4D	; 0x800a4d <tail_tag+0x1>
    330a:	f0 93 46 09 	sts	0x0946, r31	; 0x800946 <aktueller_tag+0x1>
    330e:	e0 93 45 09 	sts	0x0945, r30	; 0x800945 <aktueller_tag>
			for (int i = 0 ; i < i_Liste + 3 ; i++)
    3312:	20 91 8a 10 	lds	r18, 0x108A	; 0x80108a <i_Liste>
    3316:	30 e0       	ldi	r19, 0x00	; 0
    3318:	2d 5f       	subi	r18, 0xFD	; 253
    331a:	3f 4f       	sbci	r19, 0xFF	; 255
    331c:	80 e0       	ldi	r24, 0x00	; 0
    331e:	90 e0       	ldi	r25, 0x00	; 0
			{
				aktueller_tag = aktueller_tag->prev;
    3320:	06 80       	ldd	r0, Z+6	; 0x06
    3322:	f7 81       	ldd	r31, Z+7	; 0x07
    3324:	e0 2d       	mov	r30, r0
/*		0x04 = 0b04
			- Wechsle auf Zutatenanzeige
			-
*/
			aktueller_tag = tail_tag;
			for (int i = 0 ; i < i_Liste + 3 ; i++)
    3326:	01 96       	adiw	r24, 0x01	; 1
    3328:	82 17       	cp	r24, r18
    332a:	93 07       	cpc	r25, r19
    332c:	cc f3       	brlt	.-14     	; 0x3320 <check_RFIDAnzeige1+0x14e>
    332e:	f0 93 46 09 	sts	0x0946, r31	; 0x800946 <aktueller_tag+0x1>
    3332:	e0 93 45 09 	sts	0x0945, r30	; 0x800945 <aktueller_tag>
			{
				aktueller_tag = aktueller_tag->prev;
			}
			nextion_change_page(RFIDANZEIGE2);
    3336:	88 e1       	ldi	r24, 0x18	; 24
    3338:	4d d7       	rcall	.+3738   	; 0x41d4 <nextion_change_page>
			i_Liste = 0;
    333a:	10 92 8a 10 	sts	0x108A, r1	; 0x80108a <i_Liste>
			block_list_hoch = 0;
    333e:	10 92 53 0c 	sts	0x0C53, r1	; 0x800c53 <block_list_hoch>
			block_list_runter = 0;
    3342:	10 92 3f 08 	sts	0x083F, r1	; 0x80083f <block_list_runter>
			erstelle_Liste_name("cocktail");
    3346:	82 e0       	ldi	r24, 0x02	; 2
    3348:	93 e0       	ldi	r25, 0x03	; 3
    334a:	0e 94 ee 07 	call	0xfdc	; 0xfdc <erstelle_Liste_name>
		break;
    334e:	0a c1       	rjmp	.+532    	; 0x3564 <check_RFIDAnzeige1+0x392>
		case RFID5:
/*		0x05 = 0b05
			- Wechsle auf Zutatenanzeige
			-
*/
			aktueller_tag = tail_tag;
    3350:	e0 91 4c 0a 	lds	r30, 0x0A4C	; 0x800a4c <tail_tag>
    3354:	f0 91 4d 0a 	lds	r31, 0x0A4D	; 0x800a4d <tail_tag+0x1>
    3358:	f0 93 46 09 	sts	0x0946, r31	; 0x800946 <aktueller_tag+0x1>
    335c:	e0 93 45 09 	sts	0x0945, r30	; 0x800945 <aktueller_tag>
			for (int i = 0 ; i < i_Liste + 4 ; i++)
    3360:	20 91 8a 10 	lds	r18, 0x108A	; 0x80108a <i_Liste>
    3364:	30 e0       	ldi	r19, 0x00	; 0
    3366:	2c 5f       	subi	r18, 0xFC	; 252
    3368:	3f 4f       	sbci	r19, 0xFF	; 255
    336a:	80 e0       	ldi	r24, 0x00	; 0
    336c:	90 e0       	ldi	r25, 0x00	; 0
			{
				aktueller_tag = aktueller_tag->prev;
    336e:	06 80       	ldd	r0, Z+6	; 0x06
    3370:	f7 81       	ldd	r31, Z+7	; 0x07
    3372:	e0 2d       	mov	r30, r0
/*		0x05 = 0b05
			- Wechsle auf Zutatenanzeige
			-
*/
			aktueller_tag = tail_tag;
			for (int i = 0 ; i < i_Liste + 4 ; i++)
    3374:	01 96       	adiw	r24, 0x01	; 1
    3376:	82 17       	cp	r24, r18
    3378:	93 07       	cpc	r25, r19
    337a:	cc f3       	brlt	.-14     	; 0x336e <check_RFIDAnzeige1+0x19c>
    337c:	f0 93 46 09 	sts	0x0946, r31	; 0x800946 <aktueller_tag+0x1>
    3380:	e0 93 45 09 	sts	0x0945, r30	; 0x800945 <aktueller_tag>
			{
				aktueller_tag = aktueller_tag->prev;
			}
			nextion_change_page(RFIDANZEIGE2);
    3384:	88 e1       	ldi	r24, 0x18	; 24
    3386:	26 d7       	rcall	.+3660   	; 0x41d4 <nextion_change_page>
			i_Liste = 0;
    3388:	10 92 8a 10 	sts	0x108A, r1	; 0x80108a <i_Liste>
			block_list_hoch = 0;
    338c:	10 92 53 0c 	sts	0x0C53, r1	; 0x800c53 <block_list_hoch>
			block_list_runter = 0;
    3390:	10 92 3f 08 	sts	0x083F, r1	; 0x80083f <block_list_runter>
			erstelle_Liste_name("cocktail");
    3394:	82 e0       	ldi	r24, 0x02	; 2
    3396:	93 e0       	ldi	r25, 0x03	; 3
    3398:	0e 94 ee 07 	call	0xfdc	; 0xfdc <erstelle_Liste_name>
		break;
    339c:	e3 c0       	rjmp	.+454    	; 0x3564 <check_RFIDAnzeige1+0x392>
		case RFID6:
/*		0x06 = 0b06
			- Wechsle auf Zutatenanzeige
			-
*/
			aktueller_tag = tail_tag;
    339e:	e0 91 4c 0a 	lds	r30, 0x0A4C	; 0x800a4c <tail_tag>
    33a2:	f0 91 4d 0a 	lds	r31, 0x0A4D	; 0x800a4d <tail_tag+0x1>
    33a6:	f0 93 46 09 	sts	0x0946, r31	; 0x800946 <aktueller_tag+0x1>
    33aa:	e0 93 45 09 	sts	0x0945, r30	; 0x800945 <aktueller_tag>
			for (int i = 0 ; i < i_Liste + 5 ; i++)
    33ae:	20 91 8a 10 	lds	r18, 0x108A	; 0x80108a <i_Liste>
    33b2:	30 e0       	ldi	r19, 0x00	; 0
    33b4:	2b 5f       	subi	r18, 0xFB	; 251
    33b6:	3f 4f       	sbci	r19, 0xFF	; 255
    33b8:	80 e0       	ldi	r24, 0x00	; 0
    33ba:	90 e0       	ldi	r25, 0x00	; 0
			{
				aktueller_tag = aktueller_tag->prev;
    33bc:	06 80       	ldd	r0, Z+6	; 0x06
    33be:	f7 81       	ldd	r31, Z+7	; 0x07
    33c0:	e0 2d       	mov	r30, r0
/*		0x06 = 0b06
			- Wechsle auf Zutatenanzeige
			-
*/
			aktueller_tag = tail_tag;
			for (int i = 0 ; i < i_Liste + 5 ; i++)
    33c2:	01 96       	adiw	r24, 0x01	; 1
    33c4:	82 17       	cp	r24, r18
    33c6:	93 07       	cpc	r25, r19
    33c8:	cc f3       	brlt	.-14     	; 0x33bc <check_RFIDAnzeige1+0x1ea>
    33ca:	f0 93 46 09 	sts	0x0946, r31	; 0x800946 <aktueller_tag+0x1>
    33ce:	e0 93 45 09 	sts	0x0945, r30	; 0x800945 <aktueller_tag>
			{
				aktueller_tag = aktueller_tag->prev;
			}
			nextion_change_page(RFIDANZEIGE2);
    33d2:	88 e1       	ldi	r24, 0x18	; 24
    33d4:	ff d6       	rcall	.+3582   	; 0x41d4 <nextion_change_page>
			i_Liste = 0;
    33d6:	10 92 8a 10 	sts	0x108A, r1	; 0x80108a <i_Liste>
			block_list_hoch = 0;
    33da:	10 92 53 0c 	sts	0x0C53, r1	; 0x800c53 <block_list_hoch>
			block_list_runter = 0;
    33de:	10 92 3f 08 	sts	0x083F, r1	; 0x80083f <block_list_runter>
			erstelle_Liste_name("cocktail");
    33e2:	82 e0       	ldi	r24, 0x02	; 2
    33e4:	93 e0       	ldi	r25, 0x03	; 3
    33e6:	0e 94 ee 07 	call	0xfdc	; 0xfdc <erstelle_Liste_name>
		break;
    33ea:	bc c0       	rjmp	.+376    	; 0x3564 <check_RFIDAnzeige1+0x392>
		case RAUFLIST6:
/*		0x07 = 0b07
			- Wechsle auf Zutatenanzeige
			-
*/
			block_list_runter = 0;
    33ec:	10 92 3f 08 	sts	0x083F, r1	; 0x80083f <block_list_runter>
			if (!block_list_hoch)
    33f0:	80 91 53 0c 	lds	r24, 0x0C53	; 0x800c53 <block_list_hoch>
    33f4:	81 11       	cpse	r24, r1
    33f6:	b6 c0       	rjmp	.+364    	; 0x3564 <check_RFIDAnzeige1+0x392>
			{
				i_Liste -=6;
    33f8:	80 91 8a 10 	lds	r24, 0x108A	; 0x80108a <i_Liste>
    33fc:	86 50       	subi	r24, 0x06	; 6
    33fe:	80 93 8a 10 	sts	0x108A, r24	; 0x80108a <i_Liste>
				for(int count = 0 ; count < 6 ; count++)
    3402:	00 e0       	ldi	r16, 0x00	; 0
    3404:	10 e0       	ldi	r17, 0x00	; 0
				{
					char string[10] = {'\0'};
    3406:	0f 2e       	mov	r0, r31
    3408:	fa e0       	ldi	r31, 0x0A	; 10
    340a:	bf 2e       	mov	r11, r31
    340c:	f0 2d       	mov	r31, r0
    340e:	9e 01       	movw	r18, r28
    3410:	2f 5f       	subi	r18, 0xFF	; 255
    3412:	3f 4f       	sbci	r19, 0xFF	; 255
    3414:	69 01       	movw	r12, r18
					char buff[5] = {'\0'};
    3416:	0f 2e       	mov	r0, r31
    3418:	f5 e0       	ldi	r31, 0x05	; 5
    341a:	af 2e       	mov	r10, r31
    341c:	f0 2d       	mov	r31, r0
    341e:	7e 01       	movw	r14, r28
    3420:	3b e0       	ldi	r19, 0x0B	; 11
    3422:	e3 0e       	add	r14, r19
    3424:	f1 1c       	adc	r15, r1
					strcat((char *)string, buff);
					itoa((count + i_Liste + 1), (char *)buff, 10);
					nextion_setText((char *)string, (char *)buff);
					if(count + i_Liste + 1 == 0)
					{
						block_list_hoch = 1;
    3426:	77 24       	eor	r7, r7
    3428:	73 94       	inc	r7
			if (!block_list_hoch)
			{
				i_Liste -=6;
				for(int count = 0 ; count < 6 ; count++)
				{
					char string[10] = {'\0'};
    342a:	f6 01       	movw	r30, r12
    342c:	2b 2d       	mov	r18, r11
    342e:	11 92       	st	Z+, r1
    3430:	2a 95       	dec	r18
    3432:	e9 f7       	brne	.-6      	; 0x342e <check_RFIDAnzeige1+0x25c>
					char buff[5] = {'\0'};
    3434:	f7 01       	movw	r30, r14
    3436:	2a 2d       	mov	r18, r10
    3438:	11 92       	st	Z+, r1
    343a:	2a 95       	dec	r18
    343c:	e9 f7       	brne	.-6      	; 0x3438 <check_RFIDAnzeige1+0x266>
					strcpy((char *)string, (const char *) "rfid");
    343e:	85 e0       	ldi	r24, 0x05	; 5
    3440:	e8 ed       	ldi	r30, 0xD8	; 216
    3442:	f4 e0       	ldi	r31, 0x04	; 4
    3444:	d6 01       	movw	r26, r12
    3446:	01 90       	ld	r0, Z+
    3448:	0d 92       	st	X+, r0
    344a:	8a 95       	dec	r24
    344c:	e1 f7       	brne	.-8      	; 0x3446 <check_RFIDAnzeige1+0x274>
					itoa((count+1), (char *)buff, 10);
    344e:	48 01       	movw	r8, r16
    3450:	3f ef       	ldi	r19, 0xFF	; 255
    3452:	83 1a       	sub	r8, r19
    3454:	93 0a       	sbc	r9, r19
    3456:	4b 2d       	mov	r20, r11
    3458:	b7 01       	movw	r22, r14
    345a:	c4 01       	movw	r24, r8
    345c:	0e 94 7b 34 	call	0x68f6	; 0x68f6 <__itoa_ncheck>
					strcat((char *)string, buff);
    3460:	b7 01       	movw	r22, r14
    3462:	c6 01       	movw	r24, r12
    3464:	0e 94 42 34 	call	0x6884	; 0x6884 <strcat>
    3468:	80 91 8a 10 	lds	r24, 0x108A	; 0x80108a <i_Liste>
    346c:	f8 01       	movw	r30, r16
    346e:	e8 0f       	add	r30, r24
    3470:	f1 1d       	adc	r31, r1
    3472:	cf 01       	movw	r24, r30
    3474:	4b 2d       	mov	r20, r11
    3476:	b7 01       	movw	r22, r14
    3478:	01 96       	adiw	r24, 0x01	; 1
    347a:	0e 94 7b 34 	call	0x68f6	; 0x68f6 <__itoa_ncheck>
					itoa((count + i_Liste + 1), (char *)buff, 10);
					nextion_setText((char *)string, (char *)buff);
    347e:	b7 01       	movw	r22, r14
    3480:	c6 01       	movw	r24, r12
    3482:	c7 d6       	rcall	.+3470   	; 0x4212 <nextion_setText>
					if(count + i_Liste + 1 == 0)
    3484:	80 91 8a 10 	lds	r24, 0x108A	; 0x80108a <i_Liste>
    3488:	08 0f       	add	r16, r24
    348a:	11 1d       	adc	r17, r1
    348c:	0f 3f       	cpi	r16, 0xFF	; 255
    348e:	1f 4f       	sbci	r17, 0xFF	; 255
    3490:	11 f4       	brne	.+4      	; 0x3496 <check_RFIDAnzeige1+0x2c4>
					{
						block_list_hoch = 1;
    3492:	70 92 53 0c 	sts	0x0C53, r7	; 0x800c53 <block_list_hoch>
*/
			block_list_runter = 0;
			if (!block_list_hoch)
			{
				i_Liste -=6;
				for(int count = 0 ; count < 6 ; count++)
    3496:	84 01       	movw	r16, r8
    3498:	06 30       	cpi	r16, 0x06	; 6
    349a:	11 05       	cpc	r17, r1
    349c:	31 f6       	brne	.-116    	; 0x342a <check_RFIDAnzeige1+0x258>
    349e:	62 c0       	rjmp	.+196    	; 0x3564 <check_RFIDAnzeige1+0x392>
		case RUNTERLIST6:
/*		0x08 = 0b08
			- Wechsle auf Zutatenanzeige
			-
*/
			block_list_hoch = 0;
    34a0:	10 92 53 0c 	sts	0x0C53, r1	; 0x800c53 <block_list_hoch>
			if (!block_list_runter)
    34a4:	80 91 3f 08 	lds	r24, 0x083F	; 0x80083f <block_list_runter>
    34a8:	81 11       	cpse	r24, r1
    34aa:	5c c0       	rjmp	.+184    	; 0x3564 <check_RFIDAnzeige1+0x392>
			{
				i_Liste += 6;
    34ac:	80 91 8a 10 	lds	r24, 0x108A	; 0x80108a <i_Liste>
    34b0:	8a 5f       	subi	r24, 0xFA	; 250
    34b2:	80 93 8a 10 	sts	0x108A, r24	; 0x80108a <i_Liste>
				
				for(int count = 0 ; count < 6 ; count++)
    34b6:	00 e0       	ldi	r16, 0x00	; 0
    34b8:	10 e0       	ldi	r17, 0x00	; 0
				{
					char string[10] = {'\0'};
    34ba:	0f 2e       	mov	r0, r31
    34bc:	fa e0       	ldi	r31, 0x0A	; 10
    34be:	bf 2e       	mov	r11, r31
    34c0:	f0 2d       	mov	r31, r0
    34c2:	9e 01       	movw	r18, r28
    34c4:	2f 5f       	subi	r18, 0xFF	; 255
    34c6:	3f 4f       	sbci	r19, 0xFF	; 255
    34c8:	69 01       	movw	r12, r18
					char buff[5] = {'\0'};
    34ca:	0f 2e       	mov	r0, r31
    34cc:	f5 e0       	ldi	r31, 0x05	; 5
    34ce:	af 2e       	mov	r10, r31
    34d0:	f0 2d       	mov	r31, r0
    34d2:	7e 01       	movw	r14, r28
    34d4:	3b e0       	ldi	r19, 0x0B	; 11
    34d6:	e3 0e       	add	r14, r19
    34d8:	f1 1c       	adc	r15, r1
					strcat((char *)string, buff);
					itoa((count + i_Liste + 1), (char *)buff, 10);
					nextion_setText((char *)string, (char *)buff);
					if(count + i_Liste + 1 == 12)
					{
						block_list_runter = 1;
    34da:	77 24       	eor	r7, r7
    34dc:	73 94       	inc	r7
			{
				i_Liste += 6;
				
				for(int count = 0 ; count < 6 ; count++)
				{
					char string[10] = {'\0'};
    34de:	f6 01       	movw	r30, r12
    34e0:	2b 2d       	mov	r18, r11
    34e2:	11 92       	st	Z+, r1
    34e4:	2a 95       	dec	r18
    34e6:	e9 f7       	brne	.-6      	; 0x34e2 <check_RFIDAnzeige1+0x310>
					char buff[5] = {'\0'};
    34e8:	f7 01       	movw	r30, r14
    34ea:	2a 2d       	mov	r18, r10
    34ec:	11 92       	st	Z+, r1
    34ee:	2a 95       	dec	r18
    34f0:	e9 f7       	brne	.-6      	; 0x34ec <check_RFIDAnzeige1+0x31a>
					strcpy((char *)string, (const char *) "rfid");
    34f2:	85 e0       	ldi	r24, 0x05	; 5
    34f4:	e8 ed       	ldi	r30, 0xD8	; 216
    34f6:	f4 e0       	ldi	r31, 0x04	; 4
    34f8:	d6 01       	movw	r26, r12
    34fa:	01 90       	ld	r0, Z+
    34fc:	0d 92       	st	X+, r0
    34fe:	8a 95       	dec	r24
    3500:	e1 f7       	brne	.-8      	; 0x34fa <check_RFIDAnzeige1+0x328>
					itoa((count+1), (char *)buff, 10);
    3502:	48 01       	movw	r8, r16
    3504:	3f ef       	ldi	r19, 0xFF	; 255
    3506:	83 1a       	sub	r8, r19
    3508:	93 0a       	sbc	r9, r19
    350a:	4b 2d       	mov	r20, r11
    350c:	b7 01       	movw	r22, r14
    350e:	c4 01       	movw	r24, r8
    3510:	0e 94 7b 34 	call	0x68f6	; 0x68f6 <__itoa_ncheck>
					strcat((char *)string, buff);
    3514:	b7 01       	movw	r22, r14
    3516:	c6 01       	movw	r24, r12
    3518:	0e 94 42 34 	call	0x6884	; 0x6884 <strcat>
    351c:	80 91 8a 10 	lds	r24, 0x108A	; 0x80108a <i_Liste>
    3520:	f8 01       	movw	r30, r16
    3522:	e8 0f       	add	r30, r24
    3524:	f1 1d       	adc	r31, r1
    3526:	cf 01       	movw	r24, r30
    3528:	4b 2d       	mov	r20, r11
    352a:	b7 01       	movw	r22, r14
    352c:	01 96       	adiw	r24, 0x01	; 1
    352e:	0e 94 7b 34 	call	0x68f6	; 0x68f6 <__itoa_ncheck>
					itoa((count + i_Liste + 1), (char *)buff, 10);
					nextion_setText((char *)string, (char *)buff);
    3532:	b7 01       	movw	r22, r14
    3534:	c6 01       	movw	r24, r12
    3536:	6d d6       	rcall	.+3290   	; 0x4212 <nextion_setText>
					if(count + i_Liste + 1 == 12)
    3538:	80 91 8a 10 	lds	r24, 0x108A	; 0x80108a <i_Liste>
    353c:	08 0f       	add	r16, r24
    353e:	11 1d       	adc	r17, r1
    3540:	0b 30       	cpi	r16, 0x0B	; 11
    3542:	11 05       	cpc	r17, r1
    3544:	11 f4       	brne	.+4      	; 0x354a <check_RFIDAnzeige1+0x378>
					{
						block_list_runter = 1;
    3546:	70 92 3f 08 	sts	0x083F, r7	; 0x80083f <block_list_runter>
			block_list_hoch = 0;
			if (!block_list_runter)
			{
				i_Liste += 6;
				
				for(int count = 0 ; count < 6 ; count++)
    354a:	84 01       	movw	r16, r8
    354c:	06 30       	cpi	r16, 0x06	; 6
    354e:	11 05       	cpc	r17, r1
    3550:	31 f6       	brne	.-116    	; 0x34de <check_RFIDAnzeige1+0x30c>
    3552:	08 c0       	rjmp	.+16     	; 0x3564 <check_RFIDAnzeige1+0x392>
		case ZURUECK5:
/*		0x09 = 0b09
			- Wechsle auf Zutatenanzeige
			-
*/
			setze_startanzeige(aktuellesGetraenk);
    3554:	80 91 c4 10 	lds	r24, 0x10C4	; 0x8010c4 <aktuellesGetraenk>
    3558:	90 91 c5 10 	lds	r25, 0x10C5	; 0x8010c5 <aktuellesGetraenk+0x1>
    355c:	0e 94 f8 03 	call	0x7f0	; 0x7f0 <setze_startanzeige>
			i_Liste = 0;
    3560:	10 92 8a 10 	sts	0x108A, r1	; 0x80108a <i_Liste>
		break;
	}
}
    3564:	2f 96       	adiw	r28, 0x0f	; 15
    3566:	0f b6       	in	r0, 0x3f	; 63
    3568:	f8 94       	cli
    356a:	de bf       	out	0x3e, r29	; 62
    356c:	0f be       	out	0x3f, r0	; 63
    356e:	cd bf       	out	0x3d, r28	; 61
    3570:	df 91       	pop	r29
    3572:	cf 91       	pop	r28
    3574:	1f 91       	pop	r17
    3576:	0f 91       	pop	r16
    3578:	ff 90       	pop	r15
    357a:	ef 90       	pop	r14
    357c:	df 90       	pop	r13
    357e:	cf 90       	pop	r12
    3580:	bf 90       	pop	r11
    3582:	af 90       	pop	r10
    3584:	9f 90       	pop	r9
    3586:	8f 90       	pop	r8
    3588:	7f 90       	pop	r7
    358a:	08 95       	ret

0000358c <schreibe_Getraenk_in_tag>:

void schreibe_Getraenk_in_tag(uint8_t nr)
{			
	aktuellesGetraenk_file = tail_getraenk_file;
    358c:	e0 91 02 08 	lds	r30, 0x0802	; 0x800802 <tail_getraenk_file>
    3590:	f0 91 03 08 	lds	r31, 0x0803	; 0x800803 <tail_getraenk_file+0x1>
    3594:	f0 93 37 08 	sts	0x0837, r31	; 0x800837 <aktuellesGetraenk_file+0x1>
    3598:	e0 93 36 08 	sts	0x0836, r30	; 0x800836 <aktuellesGetraenk_file>
	for(int count = 0 ; count < (i_Liste + nr) ; count++)
    359c:	20 91 8a 10 	lds	r18, 0x108A	; 0x80108a <i_Liste>
    35a0:	90 e0       	ldi	r25, 0x00	; 0
    35a2:	82 0f       	add	r24, r18
    35a4:	91 1d       	adc	r25, r1
    35a6:	18 16       	cp	r1, r24
    35a8:	19 06       	cpc	r1, r25
    35aa:	74 f4       	brge	.+28     	; 0x35c8 <schreibe_Getraenk_in_tag+0x3c>
    35ac:	20 e0       	ldi	r18, 0x00	; 0
    35ae:	30 e0       	ldi	r19, 0x00	; 0
	{
		aktuellesGetraenk_file = aktuellesGetraenk_file->prev;
    35b0:	03 80       	ldd	r0, Z+3	; 0x03
    35b2:	f4 81       	ldd	r31, Z+4	; 0x04
    35b4:	e0 2d       	mov	r30, r0
}

void schreibe_Getraenk_in_tag(uint8_t nr)
{			
	aktuellesGetraenk_file = tail_getraenk_file;
	for(int count = 0 ; count < (i_Liste + nr) ; count++)
    35b6:	2f 5f       	subi	r18, 0xFF	; 255
    35b8:	3f 4f       	sbci	r19, 0xFF	; 255
    35ba:	28 17       	cp	r18, r24
    35bc:	39 07       	cpc	r19, r25
    35be:	c1 f7       	brne	.-16     	; 0x35b0 <schreibe_Getraenk_in_tag+0x24>
    35c0:	f0 93 37 08 	sts	0x0837, r31	; 0x800837 <aktuellesGetraenk_file+0x1>
    35c4:	e0 93 36 08 	sts	0x0836, r30	; 0x800836 <aktuellesGetraenk_file>
	{
		aktuellesGetraenk_file = aktuellesGetraenk_file->prev;
	}
	lese_textfile_in_getraenk(aktuellesGetraenk_file->file);
    35c8:	e0 91 36 08 	lds	r30, 0x0836	; 0x800836 <aktuellesGetraenk_file>
    35cc:	f0 91 37 08 	lds	r31, 0x0837	; 0x800837 <aktuellesGetraenk_file+0x1>
    35d0:	80 81       	ld	r24, Z
    35d2:	0e 94 73 06 	call	0xce6	; 0xce6 <lese_textfile_in_getraenk>
	strcpy((char *)aktueller_tag->cocktail_name, (const char *)aktuellesGetraenk->name);
    35d6:	e0 91 c4 10 	lds	r30, 0x10C4	; 0x8010c4 <aktuellesGetraenk>
    35da:	f0 91 c5 10 	lds	r31, 0x10C5	; 0x8010c5 <aktuellesGetraenk+0x1>
    35de:	60 81       	ld	r22, Z
    35e0:	71 81       	ldd	r23, Z+1	; 0x01
    35e2:	e0 91 45 09 	lds	r30, 0x0945	; 0x800945 <aktueller_tag>
    35e6:	f0 91 46 09 	lds	r31, 0x0946	; 0x800946 <aktueller_tag+0x1>
    35ea:	80 81       	ld	r24, Z
    35ec:	91 81       	ldd	r25, Z+1	; 0x01
    35ee:	0e 94 4d 34 	call	0x689a	; 0x689a <strcpy>
	setze_startanzeige(aktuellesGetraenk);
    35f2:	80 91 c4 10 	lds	r24, 0x10C4	; 0x8010c4 <aktuellesGetraenk>
    35f6:	90 91 c5 10 	lds	r25, 0x10C5	; 0x8010c5 <aktuellesGetraenk+0x1>
    35fa:	0c 94 f8 03 	jmp	0x7f0	; 0x7f0 <setze_startanzeige>
    35fe:	08 95       	ret

00003600 <check_RFIDAnzeige2>:
// 			nextion_setText("fluessbfrage",buff);
}

void check_RFIDAnzeige2(uint8_t button)
{
	switch (button)
    3600:	90 e0       	ldi	r25, 0x00	; 0
    3602:	fc 01       	movw	r30, r24
    3604:	31 97       	sbiw	r30, 0x01	; 1
    3606:	ea 30       	cpi	r30, 0x0A	; 10
    3608:	f1 05       	cpc	r31, r1
    360a:	08 f0       	brcs	.+2      	; 0x360e <check_RFIDAnzeige2+0xe>
    360c:	3d c0       	rjmp	.+122    	; 0x3688 <check_RFIDAnzeige2+0x88>
    360e:	88 27       	eor	r24, r24
    3610:	ef 5f       	subi	r30, 0xFF	; 255
    3612:	fe 4f       	sbci	r31, 0xFE	; 254
    3614:	8f 4f       	sbci	r24, 0xFF	; 255
    3616:	0c 94 bf 32 	jmp	0x657e	; 0x657e <__tablejump2__>
	{
/*		0x01 bis 0x08 = 0b01 bis 0b08
			- Whle x-ten Cocktail des aktuellen Listenabschnitts
*/
		case COCKTAIL1:
			schreibe_Getraenk_in_tag(0);
    361a:	80 e0       	ldi	r24, 0x00	; 0
    361c:	b7 cf       	rjmp	.-146    	; 0x358c <schreibe_Getraenk_in_tag>
		break;
    361e:	08 95       	ret
		
		case COCKTAIL2:
			schreibe_Getraenk_in_tag(1);
    3620:	81 e0       	ldi	r24, 0x01	; 1
    3622:	b4 cf       	rjmp	.-152    	; 0x358c <schreibe_Getraenk_in_tag>
		break;
		
		case COCKTAIL3:
			schreibe_Getraenk_in_tag(2);
    3624:	08 95       	ret
    3626:	82 e0       	ldi	r24, 0x02	; 2
		break;
    3628:	b1 cf       	rjmp	.-158    	; 0x358c <schreibe_Getraenk_in_tag>
		
		case COCKTAIL4:
			schreibe_Getraenk_in_tag(3);
    362a:	08 95       	ret
    362c:	83 e0       	ldi	r24, 0x03	; 3
		break;
    362e:	ae cf       	rjmp	.-164    	; 0x358c <schreibe_Getraenk_in_tag>
		
		case COCKTAIL5:
			schreibe_Getraenk_in_tag(4);
    3630:	08 95       	ret
    3632:	84 e0       	ldi	r24, 0x04	; 4
		break;
		
		case COCKTAIL6:
			schreibe_Getraenk_in_tag(5);
    3634:	ab cf       	rjmp	.-170    	; 0x358c <schreibe_Getraenk_in_tag>
    3636:	08 95       	ret
		break;
    3638:	85 e0       	ldi	r24, 0x05	; 5
		
		case COCKTAIL7:
			schreibe_Getraenk_in_tag(6);
    363a:	a8 cf       	rjmp	.-176    	; 0x358c <schreibe_Getraenk_in_tag>
    363c:	08 95       	ret
    363e:	86 e0       	ldi	r24, 0x06	; 6
		break;
    3640:	a5 cf       	rjmp	.-182    	; 0x358c <schreibe_Getraenk_in_tag>
		
		case COCKTAIL8:
			schreibe_Getraenk_in_tag(7);
    3642:	08 95       	ret
    3644:	87 e0       	ldi	r24, 0x07	; 7
    3646:	a2 cf       	rjmp	.-188    	; 0x358c <schreibe_Getraenk_in_tag>
		break;
    3648:	08 95       	ret
/*		0x09 = 0b09
			- Untere Blockierung aufheben
			- Gehe Liste um 8 Getrnke hoch, falls nicht schon am oberen Ende
			- Schreibe Cocktailnamen in die Liste
*/
			block_list_runter = 0;
    364a:	10 92 3f 08 	sts	0x083F, r1	; 0x80083f <block_list_runter>
			if (!block_list_hoch)
    364e:	80 91 53 0c 	lds	r24, 0x0C53	; 0x800c53 <block_list_hoch>
    3652:	81 11       	cpse	r24, r1
    3654:	19 c0       	rjmp	.+50     	; 0x3688 <check_RFIDAnzeige2+0x88>
			{
				i_Liste -= 8;
    3656:	80 91 8a 10 	lds	r24, 0x108A	; 0x80108a <i_Liste>
    365a:	88 50       	subi	r24, 0x08	; 8
    365c:	80 93 8a 10 	sts	0x108A, r24	; 0x80108a <i_Liste>
				erstelle_Liste_name("cocktail");
    3660:	82 e0       	ldi	r24, 0x02	; 2
    3662:	93 e0       	ldi	r25, 0x03	; 3
    3664:	0c 94 ee 07 	jmp	0xfdc	; 0xfdc <erstelle_Liste_name>
    3668:	08 95       	ret
/*		0x0A = 0b10
			- Obere Blockierung aufheben
			- Gehe Liste um 8 Getrnke runter, falls nicht schon am unteren Ende
			- Schreibe Cocktailnamen in die Liste
*/
			block_list_hoch = 0;
    366a:	10 92 53 0c 	sts	0x0C53, r1	; 0x800c53 <block_list_hoch>
			if (!block_list_runter)
    366e:	80 91 3f 08 	lds	r24, 0x083F	; 0x80083f <block_list_runter>
    3672:	81 11       	cpse	r24, r1
    3674:	09 c0       	rjmp	.+18     	; 0x3688 <check_RFIDAnzeige2+0x88>
			{
				i_Liste += 8;
    3676:	80 91 8a 10 	lds	r24, 0x108A	; 0x80108a <i_Liste>
    367a:	88 5f       	subi	r24, 0xF8	; 248
    367c:	80 93 8a 10 	sts	0x108A, r24	; 0x80108a <i_Liste>
				erstelle_Liste_name("cocktail");
    3680:	82 e0       	ldi	r24, 0x02	; 2
    3682:	93 e0       	ldi	r25, 0x03	; 3
    3684:	0c 94 ee 07 	jmp	0xfdc	; 0xfdc <erstelle_Liste_name>
    3688:	08 95       	ret

0000368a <check_RFIDFehler>:
	}
}

void check_RFIDFehler(uint8_t button)
{
	switch (button)
    368a:	81 30       	cpi	r24, 0x01	; 1
    368c:	31 f4       	brne	.+12     	; 0x369a <check_RFIDFehler+0x10>
	{
		case 1:
			setze_startanzeige(aktuellesGetraenk);
    368e:	80 91 c4 10 	lds	r24, 0x10C4	; 0x8010c4 <aktuellesGetraenk>
    3692:	90 91 c5 10 	lds	r25, 0x10C5	; 0x8010c5 <aktuellesGetraenk+0x1>
    3696:	0c 94 f8 03 	jmp	0x7f0	; 0x7f0 <setze_startanzeige>
    369a:	08 95       	ret

0000369c <cocktail_check_command>:
void cocktail_check_command(int8_t page, int8_t button)
{
/*
	Diese Funktion checkt, von welcher Seiter der Befehl kommt
*/
	switch (page)
    369c:	08 2e       	mov	r0, r24
    369e:	00 0c       	add	r0, r0
    36a0:	99 0b       	sbc	r25, r25
    36a2:	aa 0b       	sbc	r26, r26
    36a4:	bb 0b       	sbc	r27, r27
    36a6:	fc 01       	movw	r30, r24
    36a8:	31 97       	sbiw	r30, 0x01	; 1
    36aa:	e9 31       	cpi	r30, 0x19	; 25
    36ac:	f1 05       	cpc	r31, r1
    36ae:	08 f0       	brcs	.+2      	; 0x36b2 <cocktail_check_command+0x16>
    36b0:	54 c0       	rjmp	.+168    	; 0x375a <cocktail_check_command+0xbe>
    36b2:	88 27       	eor	r24, r24
    36b4:	e5 5f       	subi	r30, 0xF5	; 245
    36b6:	fe 4f       	sbci	r31, 0xFE	; 254
    36b8:	8f 4f       	sbci	r24, 0xFF	; 255
    36ba:	0c 94 bf 32 	jmp	0x657e	; 0x657e <__tablejump2__>
	{
		/*0x01 = 0d01*/
	case STARTANZEIGE:
		check_startseite(button);	
    36be:	86 2f       	mov	r24, r22
    36c0:	0c 94 29 0f 	jmp	0x1e52	; 0x1e52 <check_startseite>
	break;
    36c4:	08 95       	ret
		
		/*0x02 = 0d02*/
	case ZUTATENANZEIGE:
		check_zutatenanzeige(button);		
    36c6:	86 2f       	mov	r24, r22
    36c8:	0c 94 0e 10 	jmp	0x201c	; 0x201c <check_zutatenanzeige>
	break;
    36cc:	08 95       	ret
		
		/*0x03 = 0d03*/
	case LISTENANZEIGE:
		check_listenanzeige(button);
    36ce:	86 2f       	mov	r24, r22
    36d0:	0c 94 21 10 	jmp	0x2042	; 0x2042 <check_listenanzeige>
	break;
    36d4:	08 95       	ret
	
		/*0x04 = 0d04*/
	case ZUBABFRAGE:
		check_zubabfrage(button);	
    36d6:	86 2f       	mov	r24, r22
    36d8:	0c 94 9e 10 	jmp	0x213c	; 0x213c <check_zubabfrage>
	break;
    36dc:	08 95       	ret
	
		/*0x05 = 0d05*/
	case ZUBBILDSCHIRM:
		check_zubbildschirm(button);	
    36de:	86 2f       	mov	r24, r22
    36e0:	0c 94 b9 10 	jmp	0x2172	; 0x2172 <check_zubbildschirm>
	break;
    36e4:	08 95       	ret
		
		/*0x07 = 0d07*/
	case MENUANZEIGE:
		check_menuanzeige(button);
    36e6:	86 2f       	mov	r24, r22
    36e8:	0c 94 be 10 	jmp	0x217c	; 0x217c <check_menuanzeige>
	break;
    36ec:	08 95       	ret
	
		/*0x08 = 0d08*/
	case BEARBEITUNGSANZEIGE:
		check_bearbeitungsanzeige(button);
    36ee:	86 2f       	mov	r24, r22
    36f0:	0c 94 76 11 	jmp	0x22ec	; 0x22ec <check_bearbeitungsanzeige>
	break;
    36f4:	08 95       	ret
	
		/*0x09 0d09*/
	case CEINSTANZEIGE:
		check_ceinstanzeige(button);
    36f6:	86 2f       	mov	r24, r22
    36f8:	0c 94 c3 11 	jmp	0x2386	; 0x2386 <check_ceinstanzeige>
	break;
    36fc:	08 95       	ret
	
		/*0x0A = 0d10*/
	case REINANZEIGE1:
		check_reinanzeige1(button);	
    36fe:	86 2f       	mov	r24, r22
    3700:	0c 94 29 12 	jmp	0x2452	; 0x2452 <check_reinanzeige1>
	break;
    3704:	08 95       	ret
		
		/*0x0B = 0d11*/
	case REINANZEIGE2:
		check_reinanzeige2(button);	
    3706:	86 2f       	mov	r24, r22
    3708:	0c 94 36 12 	jmp	0x246c	; 0x246c <check_reinanzeige2>
	break;
    370c:	08 95       	ret
	
		/*0x0C = 0d12*/
	case REINANZEIGE3:
		check_reinanzeige3(button);
    370e:	86 2f       	mov	r24, r22
    3710:	0c 94 7c 12 	jmp	0x24f8	; 0x24f8 <check_reinanzeige3>
	break;
    3714:	08 95       	ret
		/*0x0D = 0d13*/
	case INFOANZEIGE:
		check_infoanzeige(button);
    3716:	86 2f       	mov	r24, r22
    3718:	0c 94 85 12 	jmp	0x250a	; 0x250a <check_infoanzeige>
	break;
    371c:	08 95       	ret
		check_fehleranzeige(button);
	break;
	
		/*0x10 = 0d16*/
	case ERSTANZEIGE1:
		check_erstanzeige1(button);
    371e:	86 2f       	mov	r24, r22
    3720:	0c 94 8b 12 	jmp	0x2516	; 0x2516 <check_erstanzeige1>
	break;
    3724:	08 95       	ret
	
		/*0x11 = 0d17*/
		case ERSTANZEIGE2:
		check_erstanzeige2(button);
    3726:	86 2f       	mov	r24, r22
    3728:	eb c9       	rjmp	.-3114   	; 0x2b00 <check_erstanzeige2>
	break;
    372a:	08 95       	ret
		
		/*0x12 = 0d18*/
	case LOESCHABFRAGE:
	check_loeschanzeige(button);
    372c:	86 2f       	mov	r24, r22
    372e:	a2 ca       	rjmp	.-2748   	; 0x2c74 <check_loeschanzeige>
	break;
	
		/*0x13 = 0d19*/
	case POSANZEIGE:
	check_posanzeige(button);
    3730:	08 95       	ret
    3732:	86 2f       	mov	r24, r22
	break;
    3734:	22 cb       	rjmp	.-2492   	; 0x2d7a <check_posanzeige>
	
	/*0x14 = 0d20*/
	case FLUESSANZEIGE1:
	check_fluessanzeige1(button);
    3736:	08 95       	ret
    3738:	86 2f       	mov	r24, r22
	break;
    373a:	b6 cb       	rjmp	.-2196   	; 0x2ea8 <check_fluessanzeige1>
	
	/*0x15 = 0d21*/
	case FLUESSANZEIGE2:
	check_fluessanzeige2(button);
    373c:	08 95       	ret
    373e:	86 2f       	mov	r24, r22
	break;
	
	/*0x16 = 0d22*/
	case FLUESSANZEIGE3:
	check_fluessanzeige3(button);
    3740:	11 cc       	rjmp	.-2014   	; 0x2f64 <check_fluessanzeige2>
    3742:	08 95       	ret
	break;
    3744:	86 2f       	mov	r24, r22
	
	/*0x17 = 0d23*/
	case RFIDANZEIGE1:
	check_RFIDAnzeige1(button);
    3746:	35 cc       	rjmp	.-1942   	; 0x2fb2 <check_fluessanzeige3>
    3748:	08 95       	ret
	break;
    374a:	86 2f       	mov	r24, r22
	
	/*0x18 = 0d24*/
	case RFIDANZEIGE2:
	check_RFIDAnzeige2(button);
    374c:	42 cd       	rjmp	.-1404   	; 0x31d2 <check_RFIDAnzeige1>
    374e:	08 95       	ret
    3750:	86 2f       	mov	r24, r22
	break;
    3752:	56 cf       	rjmp	.-340    	; 0x3600 <check_RFIDAnzeige2>
	
	/*0x19 = 0d25*/
	case RFIDFEHLER:
	check_RFIDFehler(button);
    3754:	08 95       	ret
    3756:	86 2f       	mov	r24, r22
    3758:	98 cf       	rjmp	.-208    	; 0x368a <check_RFIDFehler>
    375a:	08 95       	ret

0000375c <check_existence>:
{
	for(int i = 0 ; i<4059 ; i++)
	{
		eeprom_write_byte(add+i,'\0');
	}
}
    375c:	af 92       	push	r10
    375e:	bf 92       	push	r11
    3760:	cf 92       	push	r12
    3762:	df 92       	push	r13
    3764:	ef 92       	push	r14
    3766:	ff 92       	push	r15
    3768:	0f 93       	push	r16
    376a:	1f 93       	push	r17
    376c:	cf 93       	push	r28
    376e:	df 93       	push	r29
    3770:	cd b7       	in	r28, 0x3d	; 61
    3772:	de b7       	in	r29, 0x3e	; 62
    3774:	6b 97       	sbiw	r28, 0x1b	; 27
    3776:	0f b6       	in	r0, 0x3f	; 63
    3778:	f8 94       	cli
    377a:	de bf       	out	0x3e, r29	; 62
    377c:	0f be       	out	0x3f, r0	; 63
    377e:	cd bf       	out	0x3d, r28	; 61
    3780:	4a e0       	ldi	r20, 0x0A	; 10
    3782:	8e 01       	movw	r16, r28
    3784:	0f 5f       	subi	r16, 0xFF	; 255
    3786:	1f 4f       	sbci	r17, 0xFF	; 255
    3788:	b8 01       	movw	r22, r16
    378a:	90 e0       	ldi	r25, 0x00	; 0
    378c:	0e 94 7b 34 	call	0x68f6	; 0x68f6 <__itoa_ncheck>
    3790:	d8 01       	movw	r26, r16
    3792:	0d 90       	ld	r0, X+
    3794:	00 20       	and	r0, r0
    3796:	e9 f7       	brne	.-6      	; 0x3792 <check_existence+0x36>
    3798:	11 97       	sbiw	r26, 0x01	; 1
    379a:	85 e0       	ldi	r24, 0x05	; 5
    379c:	eb ec       	ldi	r30, 0xCB	; 203
    379e:	f4 e0       	ldi	r31, 0x04	; 4
    37a0:	01 90       	ld	r0, Z+
    37a2:	0d 92       	st	X+, r0
    37a4:	8a 95       	dec	r24
    37a6:	e1 f7       	brne	.-8      	; 0x37a0 <check_existence+0x44>
    37a8:	b8 01       	movw	r22, r16
    37aa:	80 e0       	ldi	r24, 0x00	; 0
    37ac:	0e 94 db 28 	call	0x51b6	; 0x51b6 <readFile>
    37b0:	87 e0       	ldi	r24, 0x07	; 7
    37b2:	e0 ef       	ldi	r30, 0xF0	; 240
    37b4:	f2 e0       	ldi	r31, 0x02	; 2
    37b6:	de 01       	movw	r26, r28
    37b8:	55 96       	adiw	r26, 0x15	; 21
    37ba:	01 90       	ld	r0, Z+
    37bc:	0d 92       	st	X+, r0
    37be:	8a 95       	dec	r24
    37c0:	e1 f7       	brne	.-8      	; 0x37ba <check_existence+0x5e>
    37c2:	be 01       	movw	r22, r28
    37c4:	6b 5e       	subi	r22, 0xEB	; 235
    37c6:	7f 4f       	sbci	r23, 0xFF	; 255
    37c8:	8e e4       	ldi	r24, 0x4E	; 78
    37ca:	9a e0       	ldi	r25, 0x0A	; 10
    37cc:	0e 94 38 34 	call	0x6870	; 0x6870 <strtok>
    37d0:	00 97       	sbiw	r24, 0x00	; 0
    37d2:	09 f4       	brne	.+2      	; 0x37d6 <check_existence+0x7a>
    37d4:	67 c0       	rjmp	.+206    	; 0x38a4 <check_existence+0x148>
    37d6:	aa 24       	eor	r10, r10
    37d8:	a3 94       	inc	r10
    37da:	bb 24       	eor	r11, r11
    37dc:	b3 94       	inc	r11
    37de:	d1 2c       	mov	r13, r1
    37e0:	6c ed       	ldi	r22, 0xDC	; 220
    37e2:	72 e0       	ldi	r23, 0x02	; 2
    37e4:	0e 94 6d 06 	call	0xcda	; 0xcda <pruefe_kopf>
    37e8:	88 23       	and	r24, r24
    37ea:	09 f4       	brne	.+2      	; 0x37ee <check_existence+0x92>
    37ec:	50 c0       	rjmp	.+160    	; 0x388e <check_existence+0x132>
    37ee:	be 01       	movw	r22, r28
    37f0:	6b 5e       	subi	r22, 0xEB	; 235
    37f2:	7f 4f       	sbci	r23, 0xFF	; 255
    37f4:	80 e0       	ldi	r24, 0x00	; 0
    37f6:	90 e0       	ldi	r25, 0x00	; 0
    37f8:	0e 94 38 34 	call	0x6870	; 0x6870 <strtok>
    37fc:	7c 01       	movw	r14, r24
    37fe:	fc 01       	movw	r30, r24
    3800:	80 81       	ld	r24, Z
    3802:	8b 33       	cpi	r24, 0x3B	; 59
    3804:	09 f4       	brne	.+2      	; 0x3808 <check_existence+0xac>
    3806:	43 c0       	rjmp	.+134    	; 0x388e <check_existence+0x132>
    3808:	0f 2e       	mov	r0, r31
    380a:	fd e0       	ldi	r31, 0x0D	; 13
    380c:	cf 2e       	mov	r12, r31
    380e:	f0 2d       	mov	r31, r0
    3810:	80 91 5f 0d 	lds	r24, 0x0D5F	; 0x800d5f <tail_zut_in_Maschine>
    3814:	90 91 60 0d 	lds	r25, 0x0D60	; 0x800d60 <tail_zut_in_Maschine+0x1>
    3818:	90 93 0a 08 	sts	0x080A, r25	; 0x80080a <aktuelleZutatInMaschine+0x1>
    381c:	80 93 09 08 	sts	0x0809, r24	; 0x800809 <aktuelleZutatInMaschine>
    3820:	1d e0       	ldi	r17, 0x0D	; 13
    3822:	0b 2d       	mov	r16, r11
    3824:	01 c0       	rjmp	.+2      	; 0x3828 <check_existence+0xcc>
    3826:	08 2f       	mov	r16, r24
    3828:	e0 91 09 08 	lds	r30, 0x0809	; 0x800809 <aktuelleZutatInMaschine>
    382c:	f0 91 0a 08 	lds	r31, 0x080A	; 0x80080a <aktuelleZutatInMaschine+0x1>
    3830:	60 81       	ld	r22, Z
    3832:	71 81       	ldd	r23, Z+1	; 0x01
    3834:	c7 01       	movw	r24, r14
    3836:	0e 94 4d 06 	call	0xc9a	; 0xc9a <compare_string>
    383a:	81 11       	cpse	r24, r1
    383c:	0a c0       	rjmp	.+20     	; 0x3852 <check_existence+0xf6>
    383e:	be 01       	movw	r22, r28
    3840:	6b 5e       	subi	r22, 0xEB	; 235
    3842:	7f 4f       	sbci	r23, 0xFF	; 255
    3844:	80 e0       	ldi	r24, 0x00	; 0
    3846:	90 e0       	ldi	r25, 0x00	; 0
    3848:	0e 94 38 34 	call	0x6870	; 0x6870 <strtok>
    384c:	11 30       	cpi	r17, 0x01	; 1
    384e:	69 f1       	breq	.+90     	; 0x38aa <check_existence+0x14e>
    3850:	38 c0       	rjmp	.+112    	; 0x38c2 <check_existence+0x166>
    3852:	80 2f       	mov	r24, r16
    3854:	11 50       	subi	r17, 0x01	; 1
    3856:	49 f1       	breq	.+82     	; 0x38aa <check_existence+0x14e>
    3858:	e0 91 09 08 	lds	r30, 0x0809	; 0x800809 <aktuelleZutatInMaschine>
    385c:	f0 91 0a 08 	lds	r31, 0x080A	; 0x80080a <aktuelleZutatInMaschine+0x1>
    3860:	27 81       	ldd	r18, Z+7	; 0x07
    3862:	30 85       	ldd	r19, Z+8	; 0x08
    3864:	30 93 0a 08 	sts	0x080A, r19	; 0x80080a <aktuelleZutatInMaschine+0x1>
    3868:	20 93 09 08 	sts	0x0809, r18	; 0x800809 <aktuelleZutatInMaschine>
    386c:	01 11       	cpse	r16, r1
    386e:	db cf       	rjmp	.-74     	; 0x3826 <check_existence+0xca>
    3870:	be 01       	movw	r22, r28
    3872:	6b 5e       	subi	r22, 0xEB	; 235
    3874:	7f 4f       	sbci	r23, 0xFF	; 255
    3876:	80 e0       	ldi	r24, 0x00	; 0
    3878:	90 e0       	ldi	r25, 0x00	; 0
    387a:	0e 94 38 34 	call	0x6870	; 0x6870 <strtok>
    387e:	7c 01       	movw	r14, r24
    3880:	fc 01       	movw	r30, r24
    3882:	80 81       	ld	r24, Z
    3884:	8b 33       	cpi	r24, 0x3B	; 59
    3886:	19 f0       	breq	.+6      	; 0x388e <check_existence+0x132>
    3888:	ca 94       	dec	r12
    388a:	c1 10       	cpse	r12, r1
    388c:	c1 cf       	rjmp	.-126    	; 0x3810 <check_existence+0xb4>
    388e:	be 01       	movw	r22, r28
    3890:	6b 5e       	subi	r22, 0xEB	; 235
    3892:	7f 4f       	sbci	r23, 0xFF	; 255
    3894:	80 e0       	ldi	r24, 0x00	; 0
    3896:	90 e0       	ldi	r25, 0x00	; 0
    3898:	0e 94 38 34 	call	0x6870	; 0x6870 <strtok>
    389c:	00 97       	sbiw	r24, 0x00	; 0
    389e:	09 f0       	breq	.+2      	; 0x38a2 <check_existence+0x146>
    38a0:	9f cf       	rjmp	.-194    	; 0x37e0 <check_existence+0x84>
    38a2:	1a c0       	rjmp	.+52     	; 0x38d8 <check_existence+0x17c>
    38a4:	aa 24       	eor	r10, r10
    38a6:	a3 94       	inc	r10
    38a8:	17 c0       	rjmp	.+46     	; 0x38d8 <check_existence+0x17c>
    38aa:	e0 91 09 08 	lds	r30, 0x0809	; 0x800809 <aktuelleZutatInMaschine>
    38ae:	f0 91 0a 08 	lds	r31, 0x080A	; 0x80080a <aktuelleZutatInMaschine+0x1>
    38b2:	87 81       	ldd	r24, Z+7	; 0x07
    38b4:	90 85       	ldd	r25, Z+8	; 0x08
    38b6:	90 93 0a 08 	sts	0x080A, r25	; 0x80080a <aktuelleZutatInMaschine+0x1>
    38ba:	80 93 09 08 	sts	0x0809, r24	; 0x800809 <aktuelleZutatInMaschine>
    38be:	ad 2c       	mov	r10, r13
    38c0:	d7 cf       	rjmp	.-82     	; 0x3870 <check_existence+0x114>
    38c2:	e0 91 09 08 	lds	r30, 0x0809	; 0x800809 <aktuelleZutatInMaschine>
    38c6:	f0 91 0a 08 	lds	r31, 0x080A	; 0x80080a <aktuelleZutatInMaschine+0x1>
    38ca:	87 81       	ldd	r24, Z+7	; 0x07
    38cc:	90 85       	ldd	r25, Z+8	; 0x08
    38ce:	90 93 0a 08 	sts	0x080A, r25	; 0x80080a <aktuelleZutatInMaschine+0x1>
    38d2:	80 93 09 08 	sts	0x0809, r24	; 0x800809 <aktuelleZutatInMaschine>
    38d6:	cc cf       	rjmp	.-104    	; 0x3870 <check_existence+0x114>
    38d8:	8a 2d       	mov	r24, r10
    38da:	6b 96       	adiw	r28, 0x1b	; 27
    38dc:	0f b6       	in	r0, 0x3f	; 63
    38de:	f8 94       	cli
    38e0:	de bf       	out	0x3e, r29	; 62
    38e2:	0f be       	out	0x3f, r0	; 63
    38e4:	cd bf       	out	0x3d, r28	; 61
    38e6:	df 91       	pop	r29
    38e8:	cf 91       	pop	r28
    38ea:	1f 91       	pop	r17
    38ec:	0f 91       	pop	r16
    38ee:	ff 90       	pop	r15
    38f0:	ef 90       	pop	r14
    38f2:	df 90       	pop	r13
    38f4:	cf 90       	pop	r12
    38f6:	bf 90       	pop	r11
    38f8:	af 90       	pop	r10
    38fa:	08 95       	ret

000038fc <create_new_getraenk>:
    38fc:	af 92       	push	r10
    38fe:	bf 92       	push	r11
    3900:	cf 92       	push	r12
    3902:	df 92       	push	r13
    3904:	ef 92       	push	r14
    3906:	ff 92       	push	r15
    3908:	0f 93       	push	r16
    390a:	1f 93       	push	r17
    390c:	cf 93       	push	r28
    390e:	df 93       	push	r29
    3910:	7c 01       	movw	r14, r24
    3912:	c6 2e       	mov	r12, r22
    3914:	d7 2e       	mov	r13, r23
    3916:	a4 2e       	mov	r10, r20
    3918:	b2 2e       	mov	r11, r18
    391a:	66 e0       	ldi	r22, 0x06	; 6
    391c:	70 e0       	ldi	r23, 0x00	; 0
    391e:	81 e0       	ldi	r24, 0x01	; 1
    3920:	90 e0       	ldi	r25, 0x00	; 0
    3922:	0e 94 e0 32 	call	0x65c0	; 0x65c0 <calloc>
    3926:	ec 01       	movw	r28, r24
    3928:	f7 01       	movw	r30, r14
    392a:	01 90       	ld	r0, Z+
    392c:	00 20       	and	r0, r0
    392e:	e9 f7       	brne	.-6      	; 0x392a <create_new_getraenk+0x2e>
    3930:	31 97       	sbiw	r30, 0x01	; 1
    3932:	8f 01       	movw	r16, r30
    3934:	0e 19       	sub	r16, r14
    3936:	1f 09       	sbc	r17, r15
    3938:	61 e0       	ldi	r22, 0x01	; 1
    393a:	70 e0       	ldi	r23, 0x00	; 0
    393c:	c8 01       	movw	r24, r16
    393e:	01 96       	adiw	r24, 0x01	; 1
    3940:	0e 94 e0 32 	call	0x65c0	; 0x65c0 <calloc>
    3944:	99 83       	std	Y+1, r25	; 0x01
    3946:	88 83       	st	Y, r24
    3948:	61 e0       	ldi	r22, 0x01	; 1
    394a:	70 e0       	ldi	r23, 0x00	; 0
    394c:	8d e0       	ldi	r24, 0x0D	; 13
    394e:	90 e0       	ldi	r25, 0x00	; 0
    3950:	0e 94 e0 32 	call	0x65c0	; 0x65c0 <calloc>
    3954:	9c 83       	std	Y+4, r25	; 0x04
    3956:	8b 83       	std	Y+3, r24	; 0x03
    3958:	aa 82       	std	Y+2, r10	; 0x02
    395a:	bd 82       	std	Y+5, r11	; 0x05
    395c:	01 15       	cp	r16, r1
    395e:	11 05       	cpc	r17, r1
    3960:	d1 f0       	breq	.+52     	; 0x3996 <create_new_getraenk+0x9a>
    3962:	d7 01       	movw	r26, r14
    3964:	a8 01       	movw	r20, r16
    3966:	80 e0       	ldi	r24, 0x00	; 0
    3968:	90 e0       	ldi	r25, 0x00	; 0
    396a:	2d 91       	ld	r18, X+
    396c:	e8 81       	ld	r30, Y
    396e:	f9 81       	ldd	r31, Y+1	; 0x01
    3970:	e8 0f       	add	r30, r24
    3972:	f9 1f       	adc	r31, r25
    3974:	20 83       	st	Z, r18
    3976:	01 96       	adiw	r24, 0x01	; 1
    3978:	84 17       	cp	r24, r20
    397a:	95 07       	cpc	r25, r21
    397c:	b1 f7       	brne	.-20     	; 0x396a <create_new_getraenk+0x6e>
    397e:	0b c0       	rjmp	.+22     	; 0x3996 <create_new_getraenk+0x9a>
    3980:	2d 91       	ld	r18, X+
    3982:	eb 81       	ldd	r30, Y+3	; 0x03
    3984:	fc 81       	ldd	r31, Y+4	; 0x04
    3986:	e8 0f       	add	r30, r24
    3988:	f9 1f       	adc	r31, r25
    398a:	20 83       	st	Z, r18
    398c:	01 96       	adiw	r24, 0x01	; 1
    398e:	8c 30       	cpi	r24, 0x0C	; 12
    3990:	91 05       	cpc	r25, r1
    3992:	b1 f7       	brne	.-20     	; 0x3980 <create_new_getraenk+0x84>
    3994:	11 c0       	rjmp	.+34     	; 0x39b8 <create_new_getraenk+0xbc>
    3996:	0f 5f       	subi	r16, 0xFF	; 255
    3998:	1f 4f       	sbci	r17, 0xFF	; 255
    399a:	f7 01       	movw	r30, r14
    399c:	e0 0f       	add	r30, r16
    399e:	f1 1f       	adc	r31, r17
    39a0:	80 81       	ld	r24, Z
    39a2:	28 81       	ld	r18, Y
    39a4:	39 81       	ldd	r19, Y+1	; 0x01
    39a6:	f9 01       	movw	r30, r18
    39a8:	e0 0f       	add	r30, r16
    39aa:	f1 1f       	adc	r31, r17
    39ac:	80 83       	st	Z, r24
    39ae:	ac 2d       	mov	r26, r12
    39b0:	bd 2d       	mov	r27, r13
    39b2:	80 e0       	ldi	r24, 0x00	; 0
    39b4:	90 e0       	ldi	r25, 0x00	; 0
    39b6:	e4 cf       	rjmp	.-56     	; 0x3980 <create_new_getraenk+0x84>
    39b8:	eb 81       	ldd	r30, Y+3	; 0x03
    39ba:	fc 81       	ldd	r31, Y+4	; 0x04
    39bc:	15 86       	std	Z+13, r1	; 0x0d
    39be:	ce 01       	movw	r24, r28
    39c0:	df 91       	pop	r29
    39c2:	cf 91       	pop	r28
    39c4:	1f 91       	pop	r17
    39c6:	0f 91       	pop	r16
    39c8:	ff 90       	pop	r15
    39ca:	ef 90       	pop	r14
    39cc:	df 90       	pop	r13
    39ce:	cf 90       	pop	r12
    39d0:	bf 90       	pop	r11
    39d2:	af 90       	pop	r10
    39d4:	08 95       	ret

000039d6 <create_new_getraenk_file>:

getraenk_file_t *create_new_getraenk_file(uint8_t file_to_create)
{
    39d6:	cf 93       	push	r28
    39d8:	c8 2f       	mov	r28, r24
	getraenk_file_t *newFile = calloc(1,sizeof(getraenk_file_t));
    39da:	65 e0       	ldi	r22, 0x05	; 5
    39dc:	70 e0       	ldi	r23, 0x00	; 0
    39de:	81 e0       	ldi	r24, 0x01	; 1
    39e0:	90 e0       	ldi	r25, 0x00	; 0
    39e2:	0e 94 e0 32 	call	0x65c0	; 0x65c0 <calloc>
	newFile->file = file_to_create;
    39e6:	fc 01       	movw	r30, r24
    39e8:	c0 83       	st	Z, r28
	return newFile;
}
    39ea:	cf 91       	pop	r28
    39ec:	08 95       	ret

000039ee <insert_file_at_head>:

getraenk_file_t *insert_file_at_head(getraenk_file_t **head, getraenk_file_t *file_to_insert)
{	
    39ee:	cf 93       	push	r28
    39f0:	df 93       	push	r29
    39f2:	dc 01       	movw	r26, r24
    39f4:	fb 01       	movw	r30, r22
		file_to_insert->next = *head;
    39f6:	8d 91       	ld	r24, X+
    39f8:	9c 91       	ld	r25, X
    39fa:	11 97       	sbiw	r26, 0x01	; 1
    39fc:	92 83       	std	Z+2, r25	; 0x02
    39fe:	81 83       	std	Z+1, r24	; 0x01
		file_to_insert->prev = NULL;
    3a00:	14 82       	std	Z+4, r1	; 0x04
    3a02:	13 82       	std	Z+3, r1	; 0x03
		
		if((*head) == NULL)
    3a04:	cd 91       	ld	r28, X+
    3a06:	dc 91       	ld	r29, X
    3a08:	11 97       	sbiw	r26, 0x01	; 1
    3a0a:	20 97       	sbiw	r28, 0x00	; 0
    3a0c:	29 f4       	brne	.+10     	; 0x3a18 <insert_file_at_head+0x2a>
		{
			tail_getraenk_file = file_to_insert;
    3a0e:	70 93 03 08 	sts	0x0803, r23	; 0x800803 <tail_getraenk_file+0x1>
    3a12:	60 93 02 08 	sts	0x0802, r22	; 0x800802 <tail_getraenk_file>
    3a16:	08 c0       	rjmp	.+16     	; 0x3a28 <insert_file_at_head+0x3a>
		} else
		{
			(*head)->prev = file_to_insert;
    3a18:	7c 83       	std	Y+4, r23	; 0x04
    3a1a:	6b 83       	std	Y+3, r22	; 0x03
			file_to_insert->prev = tail_getraenk_file;
    3a1c:	80 91 02 08 	lds	r24, 0x0802	; 0x800802 <tail_getraenk_file>
    3a20:	90 91 03 08 	lds	r25, 0x0803	; 0x800803 <tail_getraenk_file+0x1>
    3a24:	94 83       	std	Z+4, r25	; 0x04
    3a26:	83 83       	std	Z+3, r24	; 0x03
		}
		*head = file_to_insert;
    3a28:	ed 93       	st	X+, r30
    3a2a:	fc 93       	st	X, r31
		tail_getraenk_file->next = *head;
    3a2c:	a0 91 02 08 	lds	r26, 0x0802	; 0x800802 <tail_getraenk_file>
    3a30:	b0 91 03 08 	lds	r27, 0x0803	; 0x800803 <tail_getraenk_file+0x1>
    3a34:	12 96       	adiw	r26, 0x02	; 2
    3a36:	fc 93       	st	X, r31
    3a38:	ee 93       	st	-X, r30
    3a3a:	11 97       	sbiw	r26, 0x01	; 1
		return file_to_insert;
    3a3c:	cf 01       	movw	r24, r30
    3a3e:	df 91       	pop	r29
    3a40:	cf 91       	pop	r28
    3a42:	08 95       	ret

00003a44 <cocktails_init>:
	return exists;
}


void cocktails_init(void)
{
    3a44:	df 92       	push	r13
    3a46:	ef 92       	push	r14
    3a48:	ff 92       	push	r15
    3a4a:	0f 93       	push	r16
    3a4c:	1f 93       	push	r17
    3a4e:	cf 93       	push	r28
    3a50:	df 93       	push	r29
    3a52:	cd b7       	in	r28, 0x3d	; 61
    3a54:	de b7       	in	r29, 0x3e	; 62
    3a56:	2f 97       	sbiw	r28, 0x0f	; 15
    3a58:	0f b6       	in	r0, 0x3f	; 63
    3a5a:	f8 94       	cli
    3a5c:	de bf       	out	0x3e, r29	; 62
    3a5e:	0f be       	out	0x3f, r0	; 63
    3a60:	cd bf       	out	0x3d, r28	; 61
	Liste = ALLE;
    3a62:	10 92 08 08 	sts	0x0808, r1	; 0x800808 <Liste>

			- Initialisierungen

**************************************************************************************************************/

	head_getraenk_file = NULL;
    3a66:	10 92 39 08 	sts	0x0839, r1	; 0x800839 <head_getraenk_file+0x1>
    3a6a:	10 92 38 08 	sts	0x0838, r1	; 0x800838 <head_getraenk_file>
    3a6e:	00 e0       	ldi	r16, 0x00	; 0
    3a70:	10 e0       	ldi	r17, 0x00	; 0
			- Im Eintrag ist der Name des Files gespeichert, und ermglicht einen spteren Aufruf.

**************************************************************************************************************/
	for ( int8_t count = 0 ; count <= 100; count++)
	{
		char buff[15] = {'\0'};
    3a72:	0f 2e       	mov	r0, r31
    3a74:	ff e0       	ldi	r31, 0x0F	; 15
    3a76:	df 2e       	mov	r13, r31
    3a78:	f0 2d       	mov	r31, r0
    3a7a:	ce 01       	movw	r24, r28
    3a7c:	01 96       	adiw	r24, 0x01	; 1
    3a7e:	7c 01       	movw	r14, r24
    3a80:	f7 01       	movw	r30, r14
    3a82:	8d 2d       	mov	r24, r13
    3a84:	11 92       	st	Z+, r1
    3a86:	8a 95       	dec	r24
    3a88:	e9 f7       	brne	.-6      	; 0x3a84 <cocktails_init+0x40>
    3a8a:	4a e0       	ldi	r20, 0x0A	; 10
    3a8c:	b7 01       	movw	r22, r14
    3a8e:	c8 01       	movw	r24, r16
    3a90:	0e 94 7b 34 	call	0x68f6	; 0x68f6 <__itoa_ncheck>
		itoa(count, (char *)buff,10);
		strcat((char *)buff, (const char *)".txt");
    3a94:	d7 01       	movw	r26, r14
    3a96:	0d 90       	ld	r0, X+
    3a98:	00 20       	and	r0, r0
    3a9a:	e9 f7       	brne	.-6      	; 0x3a96 <cocktails_init+0x52>
    3a9c:	11 97       	sbiw	r26, 0x01	; 1
    3a9e:	85 e0       	ldi	r24, 0x05	; 5
    3aa0:	eb ec       	ldi	r30, 0xCB	; 203
    3aa2:	f4 e0       	ldi	r31, 0x04	; 4
    3aa4:	01 90       	ld	r0, Z+
    3aa6:	0d 92       	st	X+, r0
    3aa8:	8a 95       	dec	r24
    3aaa:	e1 f7       	brne	.-8      	; 0x3aa4 <cocktails_init+0x60>
		if(readFile(VERIFY, (unsigned char *)buff)==1)
    3aac:	b7 01       	movw	r22, r14
    3aae:	81 e0       	ldi	r24, 0x01	; 1
    3ab0:	0e 94 db 28 	call	0x51b6	; 0x51b6 <readFile>
    3ab4:	81 30       	cpi	r24, 0x01	; 1
    3ab6:	71 f4       	brne	.+28     	; 0x3ad4 <cocktails_init+0x90>
		{
			if(check_existence(count))
    3ab8:	80 2f       	mov	r24, r16
    3aba:	50 de       	rcall	.-864    	; 0x375c <check_existence>
    3abc:	88 23       	and	r24, r24
    3abe:	51 f0       	breq	.+20     	; 0x3ad4 <cocktails_init+0x90>
			{
				tmp2 = create_new_getraenk_file(count);
    3ac0:	80 2f       	mov	r24, r16
    3ac2:	89 df       	rcall	.-238    	; 0x39d6 <create_new_getraenk_file>
				head_getraenk_file = insert_file_at_head(&head_getraenk_file, tmp2);
    3ac4:	bc 01       	movw	r22, r24
    3ac6:	88 e3       	ldi	r24, 0x38	; 56
    3ac8:	98 e0       	ldi	r25, 0x08	; 8
    3aca:	91 df       	rcall	.-222    	; 0x39ee <insert_file_at_head>
    3acc:	90 93 39 08 	sts	0x0839, r25	; 0x800839 <head_getraenk_file+0x1>
    3ad0:	80 93 38 08 	sts	0x0838, r24	; 0x800838 <head_getraenk_file>
    3ad4:	0f 5f       	subi	r16, 0xFF	; 255
    3ad6:	1f 4f       	sbci	r17, 0xFF	; 255
			- Ab hier werden die Getrnke gesucht, welche sich auf der SD-Karte befinden. (0.txt bis 100.txt)
			- Fr jedes gefundene File wird ein dynamisch gelinkter Eintrag in einer Liste generiert.
			- Im Eintrag ist der Name des Files gespeichert, und ermglicht einen spteren Aufruf.

**************************************************************************************************************/
	for ( int8_t count = 0 ; count <= 100; count++)
    3ad8:	05 36       	cpi	r16, 0x65	; 101
    3ada:	11 05       	cpc	r17, r1
    3adc:	89 f6       	brne	.-94     	; 0x3a80 <cocktails_init+0x3c>
			- Werden Daten bentigt, wird zuerst ein File in diese eine Getrnke-Struktur eingelesen
			  und erst dann verarbeitet.

**************************************************************************************************************/

	aktuellesGetraenk = create_new_getraenk("12345678901234567890",0,0,0);
    3ade:	20 e0       	ldi	r18, 0x00	; 0
    3ae0:	40 e0       	ldi	r20, 0x00	; 0
    3ae2:	60 e0       	ldi	r22, 0x00	; 0
    3ae4:	70 e0       	ldi	r23, 0x00	; 0
    3ae6:	8e ef       	ldi	r24, 0xFE	; 254
    3ae8:	94 e0       	ldi	r25, 0x04	; 4
    3aea:	08 df       	rcall	.-496    	; 0x38fc <create_new_getraenk>
    3aec:	90 93 c5 10 	sts	0x10C5, r25	; 0x8010c5 <aktuellesGetraenk+0x1>
    3af0:	80 93 c4 10 	sts	0x10C4, r24	; 0x8010c4 <aktuellesGetraenk>
			- Hier wird der aktuelle Pointer auf den Listeneintrag gesetzt und das aktuelle File in die
			  Struktur des Type getraenk_t geladen.

**************************************************************************************************************/

	aktuellesGetraenk_file = tail_getraenk_file;
    3af4:	e0 91 02 08 	lds	r30, 0x0802	; 0x800802 <tail_getraenk_file>
    3af8:	f0 91 03 08 	lds	r31, 0x0803	; 0x800803 <tail_getraenk_file+0x1>
    3afc:	f0 93 37 08 	sts	0x0837, r31	; 0x800837 <aktuellesGetraenk_file+0x1>
    3b00:	e0 93 36 08 	sts	0x0836, r30	; 0x800836 <aktuellesGetraenk_file>
	lese_textfile_in_getraenk(aktuellesGetraenk_file->file);
    3b04:	80 81       	ld	r24, Z
    3b06:	0e 94 73 06 	call	0xce6	; 0xce6 <lese_textfile_in_getraenk>
}
    3b0a:	2f 96       	adiw	r28, 0x0f	; 15
    3b0c:	0f b6       	in	r0, 0x3f	; 63
    3b0e:	f8 94       	cli
    3b10:	de bf       	out	0x3e, r29	; 62
    3b12:	0f be       	out	0x3f, r0	; 63
    3b14:	cd bf       	out	0x3d, r28	; 61
    3b16:	df 91       	pop	r29
    3b18:	cf 91       	pop	r28
    3b1a:	1f 91       	pop	r17
    3b1c:	0f 91       	pop	r16
    3b1e:	ff 90       	pop	r15
    3b20:	ef 90       	pop	r14
    3b22:	df 90       	pop	r13
    3b24:	08 95       	ret

00003b26 <create_zutat>:
}



zutat_t *create_zutat()
{
    3b26:	cf 93       	push	r28
    3b28:	df 93       	push	r29
	// Alloziiere Speicher fr die Struct-Variabeln gemss Struct zutat_t
	zutat_t *newZutat = calloc(1,sizeof(zutat_t));
    3b2a:	63 e0       	ldi	r22, 0x03	; 3
    3b2c:	70 e0       	ldi	r23, 0x00	; 0
    3b2e:	81 e0       	ldi	r24, 0x01	; 1
    3b30:	90 e0       	ldi	r25, 0x00	; 0
    3b32:	0e 94 e0 32 	call	0x65c0	; 0x65c0 <calloc>
    3b36:	ec 01       	movw	r28, r24

	// Alloziiere Speicher fr den Namen und setze den Struct-Pointer name darauf
	newZutat->name = calloc(21,sizeof(char));
    3b38:	61 e0       	ldi	r22, 0x01	; 1
    3b3a:	70 e0       	ldi	r23, 0x00	; 0
    3b3c:	85 e1       	ldi	r24, 0x15	; 21
    3b3e:	90 e0       	ldi	r25, 0x00	; 0
    3b40:	0e 94 e0 32 	call	0x65c0	; 0x65c0 <calloc>
    3b44:	99 83       	std	Y+1, r25	; 0x01
    3b46:	88 83       	st	Y, r24
	
	// Schreibe 0 in die alloziierte Struct-Variable alkohol
	newZutat->alkohol = 0;
    3b48:	1a 82       	std	Y+2, r1	; 0x02

	// Initialisiere den Speicher, auf den der Pointer zeigt mit '\0'
	for (int i=0; i<(21); i++)
    3b4a:	80 e0       	ldi	r24, 0x00	; 0
    3b4c:	90 e0       	ldi	r25, 0x00	; 0
	{
		*(char *)(newZutat->name + i) = '\0';
    3b4e:	e8 81       	ld	r30, Y
    3b50:	f9 81       	ldd	r31, Y+1	; 0x01
    3b52:	e8 0f       	add	r30, r24
    3b54:	f9 1f       	adc	r31, r25
    3b56:	10 82       	st	Z, r1
	
	// Schreibe 0 in die alloziierte Struct-Variable alkohol
	newZutat->alkohol = 0;

	// Initialisiere den Speicher, auf den der Pointer zeigt mit '\0'
	for (int i=0; i<(21); i++)
    3b58:	01 96       	adiw	r24, 0x01	; 1
    3b5a:	85 31       	cpi	r24, 0x15	; 21
    3b5c:	91 05       	cpc	r25, r1
    3b5e:	b9 f7       	brne	.-18     	; 0x3b4e <create_zutat+0x28>
	{
		*(char *)(newZutat->name + i) = '\0';
	}
	
	return newZutat;
}
    3b60:	ce 01       	movw	r24, r28
    3b62:	df 91       	pop	r29
    3b64:	cf 91       	pop	r28
    3b66:	08 95       	ret

00003b68 <create_neue_zutat_Maschine>:



zutatMaschine_t *create_neue_zutat_Maschine(char * name, char status, uint8_t alkohol, uint8_t k)
{
    3b68:	df 92       	push	r13
    3b6a:	ef 92       	push	r14
    3b6c:	ff 92       	push	r15
    3b6e:	0f 93       	push	r16
    3b70:	1f 93       	push	r17
    3b72:	cf 93       	push	r28
    3b74:	df 93       	push	r29
    3b76:	08 2f       	mov	r16, r24
    3b78:	19 2f       	mov	r17, r25
    3b7a:	d6 2e       	mov	r13, r22
    3b7c:	f4 2e       	mov	r15, r20
    3b7e:	e2 2e       	mov	r14, r18
	// Alloziiere Speicher fr die Struct-Variabeln gemss Struct zutatMaschine_t
	zutatMaschine_t *newZutat = calloc(1,sizeof(zutatMaschine_t));
    3b80:	69 e0       	ldi	r22, 0x09	; 9
    3b82:	70 e0       	ldi	r23, 0x00	; 0
    3b84:	81 e0       	ldi	r24, 0x01	; 1
    3b86:	90 e0       	ldi	r25, 0x00	; 0
    3b88:	0e 94 e0 32 	call	0x65c0	; 0x65c0 <calloc>
    3b8c:	ec 01       	movw	r28, r24
	
	// Alloziiere Speicher fr den Namen und setze den Struct-Pointer name darauf
	newZutat->name = calloc(21,sizeof(char));
    3b8e:	61 e0       	ldi	r22, 0x01	; 1
    3b90:	70 e0       	ldi	r23, 0x00	; 0
    3b92:	85 e1       	ldi	r24, 0x15	; 21
    3b94:	90 e0       	ldi	r25, 0x00	; 0
    3b96:	0e 94 e0 32 	call	0x65c0	; 0x65c0 <calloc>
    3b9a:	99 83       	std	Y+1, r25	; 0x01
    3b9c:	88 83       	st	Y, r24
	
	// Schreibe die Werte in entsprechende Variabeln des Structs
	newZutat->status = status;
    3b9e:	da 82       	std	Y+2, r13	; 0x02
	newZutat->position = k;
    3ba0:	ec 82       	std	Y+4, r14	; 0x04
	newZutat->alkohol = alkohol;
    3ba2:	fb 82       	std	Y+3, r15	; 0x03
	newZutat->prev = NULL;
    3ba4:	18 86       	std	Y+8, r1	; 0x08
    3ba6:	1f 82       	std	Y+7, r1	; 0x07
	newZutat->next = NULL;
    3ba8:	1e 82       	std	Y+6, r1	; 0x06
    3baa:	1d 82       	std	Y+5, r1	; 0x05
    3bac:	a0 2f       	mov	r26, r16
    3bae:	b1 2f       	mov	r27, r17
	
	// Initialisiere den Speicher, auf den der Pointer zeigt mit '\0'
	for (int i=0; i<21; i++)
    3bb0:	80 e0       	ldi	r24, 0x00	; 0
    3bb2:	90 e0       	ldi	r25, 0x00	; 0
	{
		*(char *)(newZutat->name + i) = *(char *)(name + i);
    3bb4:	2d 91       	ld	r18, X+
    3bb6:	e8 81       	ld	r30, Y
    3bb8:	f9 81       	ldd	r31, Y+1	; 0x01
    3bba:	e8 0f       	add	r30, r24
    3bbc:	f9 1f       	adc	r31, r25
    3bbe:	20 83       	st	Z, r18
	newZutat->alkohol = alkohol;
	newZutat->prev = NULL;
	newZutat->next = NULL;
	
	// Initialisiere den Speicher, auf den der Pointer zeigt mit '\0'
	for (int i=0; i<21; i++)
    3bc0:	01 96       	adiw	r24, 0x01	; 1
    3bc2:	85 31       	cpi	r24, 0x15	; 21
    3bc4:	91 05       	cpc	r25, r1
    3bc6:	b1 f7       	brne	.-20     	; 0x3bb4 <create_neue_zutat_Maschine+0x4c>
	{
		*(char *)(newZutat->name + i) = *(char *)(name + i);
	}

	return newZutat;
}
    3bc8:	ce 01       	movw	r24, r28
    3bca:	df 91       	pop	r29
    3bcc:	cf 91       	pop	r28
    3bce:	1f 91       	pop	r17
    3bd0:	0f 91       	pop	r16
    3bd2:	ff 90       	pop	r15
    3bd4:	ef 90       	pop	r14
    3bd6:	df 90       	pop	r13
    3bd8:	08 95       	ret

00003bda <insert_zutat_Maschine_at_head>:



zutatMaschine_t *insert_zutat_Maschine_at_head(zutatMaschine_t **head_zutat, zutatMaschine_t ** tail_zutat, zutatMaschine_t *zutat_to_insert)
{
    3bda:	cf 93       	push	r28
    3bdc:	df 93       	push	r29
    3bde:	dc 01       	movw	r26, r24
    3be0:	fa 01       	movw	r30, r20
**             **   *   *   *   *   *| |*   *   *   *   *   **              **
**<==**prev******<==*<==*<==*<==*<==*| |*<==*<==*<==*<==*<==*******prev**<==**
******************************************************************************/

	// Setze die vorhergehende und nachkommende Zutat der einzufgenden Zutat
	zutat_to_insert->next = (*head_zutat);				// (1. Zutat = NULL)
    3be2:	8d 91       	ld	r24, X+
    3be4:	9c 91       	ld	r25, X
    3be6:	11 97       	sbiw	r26, 0x01	; 1
    3be8:	96 83       	std	Z+6, r25	; 0x06
    3bea:	85 83       	std	Z+5, r24	; 0x05
	zutat_to_insert->prev = NULL;
    3bec:	10 86       	std	Z+8, r1	; 0x08
    3bee:	17 82       	std	Z+7, r1	; 0x07
	
	// Falls keine head-Zutat besteht, ist die einzufgende Zutat die tail-Zutat
	if((*head_zutat) == NULL)
    3bf0:	cd 91       	ld	r28, X+
    3bf2:	dc 91       	ld	r29, X
    3bf4:	11 97       	sbiw	r26, 0x01	; 1
    3bf6:	20 97       	sbiw	r28, 0x00	; 0
    3bf8:	21 f4       	brne	.+8      	; 0x3c02 <insert_zutat_Maschine_at_head+0x28>
	{
		(*tail_zutat) = zutat_to_insert;
    3bfa:	eb 01       	movw	r28, r22
    3bfc:	59 83       	std	Y+1, r21	; 0x01
    3bfe:	48 83       	st	Y, r20
    3c00:	07 c0       	rjmp	.+14     	; 0x3c10 <insert_zutat_Maschine_at_head+0x36>
	
	// Besteht eine head-Zutat, ist deren zuvorkommende Zutat die einzufgende Zutat
	// und die zuvorkommende Zutat der einzufgenden Zutat ist die tail-Zutat
	else
	{
		(*head_zutat)->prev = zutat_to_insert;
    3c02:	58 87       	std	Y+8, r21	; 0x08
    3c04:	4f 83       	std	Y+7, r20	; 0x07
		zutat_to_insert->prev = (*tail_zutat);
    3c06:	eb 01       	movw	r28, r22
    3c08:	88 81       	ld	r24, Y
    3c0a:	99 81       	ldd	r25, Y+1	; 0x01
    3c0c:	90 87       	std	Z+8, r25	; 0x08
    3c0e:	87 83       	std	Z+7, r24	; 0x07
	}
	
	// head-Zutat ist jetzt die einzufgende Zutat
	// Das nachkommende File der tail-Zutat ist jetzt die neue head-Zutat
	(*head_zutat) = zutat_to_insert;
    3c10:	ed 93       	st	X+, r30
    3c12:	fc 93       	st	X, r31
	(*tail_zutat)->next = (*head_zutat);
    3c14:	eb 01       	movw	r28, r22
    3c16:	a8 81       	ld	r26, Y
    3c18:	b9 81       	ldd	r27, Y+1	; 0x01
    3c1a:	16 96       	adiw	r26, 0x06	; 6
    3c1c:	fc 93       	st	X, r31
    3c1e:	ee 93       	st	-X, r30
    3c20:	15 97       	sbiw	r26, 0x05	; 5
	
	return zutat_to_insert;
}
    3c22:	cf 01       	movw	r24, r30
    3c24:	df 91       	pop	r29
    3c26:	cf 91       	pop	r28
    3c28:	08 95       	ret

00003c2a <create_new_zutat_file>:



zutat_file_t *create_new_zutat_file(uint8_t file_to_create)
{
    3c2a:	cf 93       	push	r28
    3c2c:	c8 2f       	mov	r28, r24
	// Alloziiere Speicher fr die Struct-Variabeln gemss Struct zutat_file_t
	zutat_file_t *newFile = calloc(1,sizeof(zutat_file_t));
    3c2e:	65 e0       	ldi	r22, 0x05	; 5
    3c30:	70 e0       	ldi	r23, 0x00	; 0
    3c32:	81 e0       	ldi	r24, 0x01	; 1
    3c34:	90 e0       	ldi	r25, 0x00	; 0
    3c36:	0e 94 e0 32 	call	0x65c0	; 0x65c0 <calloc>
	
	// Schreibe die Nummer des Files in entsprechende Variabeln des Structs
	newFile->file = file_to_create;
    3c3a:	fc 01       	movw	r30, r24
    3c3c:	c0 83       	st	Z, r28
	
	return newFile;
}
    3c3e:	cf 91       	pop	r28
    3c40:	08 95       	ret

00003c42 <insert_zutat_file_at_head>:



zutat_file_t *insert_zutat_file_at_head(zutat_file_t **head, zutat_file_t *file_to_insert)
{
    3c42:	cf 93       	push	r28
    3c44:	df 93       	push	r29
    3c46:	dc 01       	movw	r26, r24
    3c48:	fb 01       	movw	r30, r22
**             **   *   *   *   *   *| |*   *   *   *   *   **              **
**<==**prev******<==*<==*<==*<==*<==*| |*<==*<==*<==*<==*<==*******prev**<==**
******************************************************************************/

	// Setze das vorhergehende und nachkommende File des einzufgenden Files
	file_to_insert->next = *head;
    3c4a:	8d 91       	ld	r24, X+
    3c4c:	9c 91       	ld	r25, X
    3c4e:	11 97       	sbiw	r26, 0x01	; 1
    3c50:	92 83       	std	Z+2, r25	; 0x02
    3c52:	81 83       	std	Z+1, r24	; 0x01
	file_to_insert->prev = NULL;
    3c54:	14 82       	std	Z+4, r1	; 0x04
    3c56:	13 82       	std	Z+3, r1	; 0x03
	
	// Falls keine head-Zutat besteht, ist die einzufgende Zutat die tail-Zutat
	if((*head) == NULL)
    3c58:	cd 91       	ld	r28, X+
    3c5a:	dc 91       	ld	r29, X
    3c5c:	11 97       	sbiw	r26, 0x01	; 1
    3c5e:	20 97       	sbiw	r28, 0x00	; 0
    3c60:	29 f4       	brne	.+10     	; 0x3c6c <insert_zutat_file_at_head+0x2a>
	{
		tail_zutat_file = file_to_insert;
    3c62:	70 93 16 08 	sts	0x0816, r23	; 0x800816 <tail_zutat_file+0x1>
    3c66:	60 93 15 08 	sts	0x0815, r22	; 0x800815 <tail_zutat_file>
    3c6a:	08 c0       	rjmp	.+16     	; 0x3c7c <insert_zutat_file_at_head+0x3a>
	
	// Besteht ein head-File, ist dessen zuvorkommends File das einzufgende File
	// und das zuvorkommende File des einzufgenden Files ist das tail-File
	else
	{
		(*head)->prev = file_to_insert;
    3c6c:	7c 83       	std	Y+4, r23	; 0x04
    3c6e:	6b 83       	std	Y+3, r22	; 0x03
		file_to_insert->prev = tail_zutat_file;
    3c70:	80 91 15 08 	lds	r24, 0x0815	; 0x800815 <tail_zutat_file>
    3c74:	90 91 16 08 	lds	r25, 0x0816	; 0x800816 <tail_zutat_file+0x1>
    3c78:	94 83       	std	Z+4, r25	; 0x04
    3c7a:	83 83       	std	Z+3, r24	; 0x03
	}
	
	// head-File ist jetzt das einzufgende File
	// Das nachkommende File des tail-Files ist jetzt das neue head-File
	*head = file_to_insert;
    3c7c:	ed 93       	st	X+, r30
    3c7e:	fc 93       	st	X, r31
	tail_zutat_file->next = *head;
    3c80:	a0 91 15 08 	lds	r26, 0x0815	; 0x800815 <tail_zutat_file>
    3c84:	b0 91 16 08 	lds	r27, 0x0816	; 0x800816 <tail_zutat_file+0x1>
    3c88:	12 96       	adiw	r26, 0x02	; 2
    3c8a:	fc 93       	st	X, r31
    3c8c:	ee 93       	st	-X, r30
    3c8e:	11 97       	sbiw	r26, 0x01	; 1
	
	return file_to_insert;
    3c90:	cf 01       	movw	r24, r30
    3c92:	df 91       	pop	r29
    3c94:	cf 91       	pop	r28
    3c96:	08 95       	ret

00003c98 <zutaten_init>:

#include "Zutaten.h"


void zutaten_init(void)
{
    3c98:	cf 92       	push	r12
    3c9a:	df 92       	push	r13
    3c9c:	ef 92       	push	r14
    3c9e:	ff 92       	push	r15
    3ca0:	0f 93       	push	r16
    3ca2:	1f 93       	push	r17
    3ca4:	cf 93       	push	r28
    3ca6:	df 93       	push	r29
    3ca8:	cd b7       	in	r28, 0x3d	; 61
    3caa:	de b7       	in	r29, 0x3e	; 62
    3cac:	c7 54       	subi	r28, 0x47	; 71
    3cae:	d1 09       	sbc	r29, r1
    3cb0:	0f b6       	in	r0, 0x3f	; 63
    3cb2:	f8 94       	cli
    3cb4:	de bf       	out	0x3e, r29	; 62
    3cb6:	0f be       	out	0x3f, r0	; 63
    3cb8:	cd bf       	out	0x3d, r28	; 61
// eventualle nderungen der in der Maschine befindenden Zutaten im File anzupassen.

// Die Standardeinstellungen werden im EEPROM abgelegt. Bei einer Werkseinstellung werden die Files auf der
// SD-Karte gelscht und neue Files gemss den im EEPROM vorhandenen Getrnke und Zutaten wiederhergestellt.
	
	address_Standardwiederherstellung  = (uint8_t *)0;
    3cba:	10 92 4a 09 	sts	0x094A, r1	; 0x80094a <address_Standardwiederherstellung+0x1>
    3cbe:	10 92 49 09 	sts	0x0949, r1	; 0x800949 <address_Standardwiederherstellung>
**	                                       ************************************************************************
*******************************************************************************************************************
*******************************************************************************************************************
Diese werden von der/auf die SD-Karte geladen, damit Sie nach einem Neustart wieder gleich sind wie davor.		 */

	head_zutat_file = NULL;								// Erstes hinzugefgtes File auf NULL
    3cc2:	10 92 00 07 	sts	0x0700, r1	; 0x800700 <head_zutat_file+0x1>
    3cc6:	10 92 ff 06 	sts	0x06FF, r1	; 0x8006ff <head_zutat_file>
	tail_zutat_file = NULL;								// Letztes hinzugefgtes File auf NULL
    3cca:	10 92 16 08 	sts	0x0816, r1	; 0x800816 <tail_zutat_file+0x1>
    3cce:	10 92 15 08 	sts	0x0815, r1	; 0x800815 <tail_zutat_file>
	
	zutat_file_t * tmp;									// Temporrer Zutaten-File-Pointer fr Hinzufgen der Zutat
	
	// Buffer
	char buff_init_textfiles_zutat[21] = {'\0'};		// Buffer fr Filename
    3cd2:	fe 01       	movw	r30, r28
    3cd4:	31 96       	adiw	r30, 0x01	; 1
    3cd6:	85 e1       	ldi	r24, 0x15	; 21
    3cd8:	df 01       	movw	r26, r30
    3cda:	1d 92       	st	X+, r1
    3cdc:	8a 95       	dec	r24
    3cde:	e9 f7       	brne	.-6      	; 0x3cda <zutaten_init+0x42>
	char buff2_init_textfiles_zutat[5] = {'\0'};		// Buffer fr Integer to ASCI umwandlung
    3ce0:	75 96       	adiw	r30, 0x15	; 21
    3ce2:	85 e0       	ldi	r24, 0x05	; 5
    3ce4:	df 01       	movw	r26, r30
    3ce6:	1d 92       	st	X+, r1
    3ce8:	8a 95       	dec	r24
    3cea:	e9 f7       	brne	.-6      	; 0x3ce6 <zutaten_init+0x4e>
    3cec:	00 e0       	ldi	r16, 0x00	; 0
    3cee:	10 e0       	ldi	r17, 0x00	; 0
******************************************************************************************************************/
		
	for (int8_t count = 0 ; count <= 100; count++)
	{
		// String mit Name des Textfiles erstellen (Z0.txt bis Z199.txt)
		strcpy((char *)buff_init_textfiles_zutat, (const char *)"Z");
    3cf0:	0f 2e       	mov	r0, r31
    3cf2:	fa e5       	ldi	r31, 0x5A	; 90
    3cf4:	cf 2e       	mov	r12, r31
    3cf6:	d1 2c       	mov	r13, r1
    3cf8:	f0 2d       	mov	r31, r0
		itoa(count, (char *)buff2_init_textfiles_zutat, 10);
		strcat((char *)buff_init_textfiles_zutat, (const char *)buff2_init_textfiles_zutat);
    3cfa:	75 97       	sbiw	r30, 0x15	; 21
    3cfc:	7f 01       	movw	r14, r30
******************************************************************************************************************/
		
	for (int8_t count = 0 ; count <= 100; count++)
	{
		// String mit Name des Textfiles erstellen (Z0.txt bis Z199.txt)
		strcpy((char *)buff_init_textfiles_zutat, (const char *)"Z");
    3cfe:	da 82       	std	Y+2, r13	; 0x02
    3d00:	c9 82       	std	Y+1, r12	; 0x01
    3d02:	4a e0       	ldi	r20, 0x0A	; 10
    3d04:	be 01       	movw	r22, r28
    3d06:	6a 5e       	subi	r22, 0xEA	; 234
    3d08:	7f 4f       	sbci	r23, 0xFF	; 255
    3d0a:	c8 01       	movw	r24, r16
    3d0c:	0e 94 7b 34 	call	0x68f6	; 0x68f6 <__itoa_ncheck>
		itoa(count, (char *)buff2_init_textfiles_zutat, 10);
		strcat((char *)buff_init_textfiles_zutat, (const char *)buff2_init_textfiles_zutat);
    3d10:	be 01       	movw	r22, r28
    3d12:	6a 5e       	subi	r22, 0xEA	; 234
    3d14:	7f 4f       	sbci	r23, 0xFF	; 255
    3d16:	c7 01       	movw	r24, r14
    3d18:	0e 94 42 34 	call	0x6884	; 0x6884 <strcat>
		strcat((char *)buff_init_textfiles_zutat, (const char *)".txt");
    3d1c:	d7 01       	movw	r26, r14
    3d1e:	0d 90       	ld	r0, X+
    3d20:	00 20       	and	r0, r0
    3d22:	e9 f7       	brne	.-6      	; 0x3d1e <zutaten_init+0x86>
    3d24:	11 97       	sbiw	r26, 0x01	; 1
    3d26:	85 e0       	ldi	r24, 0x05	; 5
    3d28:	eb ec       	ldi	r30, 0xCB	; 203
    3d2a:	f4 e0       	ldi	r31, 0x04	; 4
    3d2c:	01 90       	ld	r0, Z+
    3d2e:	0d 92       	st	X+, r0
    3d30:	8a 95       	dec	r24
    3d32:	e1 f7       	brne	.-8      	; 0x3d2c <zutaten_init+0x94>
		
		// Prfen ob File existiert
		if(readFile(VERIFY, (unsigned char *)buff_init_textfiles_zutat)==1)
    3d34:	b7 01       	movw	r22, r14
    3d36:	81 e0       	ldi	r24, 0x01	; 1
    3d38:	0e 94 db 28 	call	0x51b6	; 0x51b6 <readFile>
    3d3c:	81 30       	cpi	r24, 0x01	; 1
    3d3e:	51 f4       	brne	.+20     	; 0x3d54 <zutaten_init+0xbc>
		{
			// Nummer des Existierenden Files in der Liste ablegen (head_zutat = letzt hinzugefgtes Getrnk)
			tmp = create_new_zutat_file(count);
    3d40:	80 2f       	mov	r24, r16
    3d42:	73 df       	rcall	.-282    	; 0x3c2a <create_new_zutat_file>
			head_zutat_file = insert_zutat_file_at_head(&head_zutat_file, tmp);
    3d44:	bc 01       	movw	r22, r24
    3d46:	8f ef       	ldi	r24, 0xFF	; 255
    3d48:	96 e0       	ldi	r25, 0x06	; 6
    3d4a:	7b df       	rcall	.-266    	; 0x3c42 <insert_zutat_file_at_head>
    3d4c:	90 93 00 07 	sts	0x0700, r25	; 0x800700 <head_zutat_file+0x1>
    3d50:	80 93 ff 06 	sts	0x06FF, r24	; 0x8006ff <head_zutat_file>
    3d54:	0f 5f       	subi	r16, 0xFF	; 255
    3d56:	1f 4f       	sbci	r17, 0xFF	; 255
	- Fr jedes gefundene File wird ein dynamisch gelinkter Eintrag in einer Liste generiert.
	- Im Eintrag ist der Name des Files gespeichert, und ermglicht einen spteren Aufruf.

******************************************************************************************************************/
		
	for (int8_t count = 0 ; count <= 100; count++)
    3d58:	05 36       	cpi	r16, 0x65	; 101
    3d5a:	11 05       	cpc	r17, r1
	  eingelesen. Die bentigten Infos werden daraus extrahiert und im Speicher abgelegt.
	- Damit die aktuelle Zutat auf das File1 zeigt, zeigt es auf den Tail der Liste (Erstes hinzugefgt).

******************************************************************************************************************/

	aktuelle_zutat = create_zutat();
    3d5c:	81 f6       	brne	.-96     	; 0x3cfe <zutaten_init+0x66>
    3d5e:	e3 de       	rcall	.-570    	; 0x3b26 <create_zutat>
    3d60:	90 93 14 08 	sts	0x0814, r25	; 0x800814 <aktuelle_zutat+0x1>
    3d64:	80 93 13 08 	sts	0x0813, r24	; 0x800813 <aktuelle_zutat>
	aktuelles_zutat_file = tail_zutat_file;
    3d68:	80 91 15 08 	lds	r24, 0x0815	; 0x800815 <tail_zutat_file>
    3d6c:	90 91 16 08 	lds	r25, 0x0816	; 0x800816 <tail_zutat_file+0x1>
    3d70:	90 93 7c 0d 	sts	0x0D7C, r25	; 0x800d7c <aktuelles_zutat_file+0x1>
    3d74:	80 93 7b 0d 	sts	0x0D7B, r24	; 0x800d7b <aktuelles_zutat_file>
**																	  *********************************************
*******************************************************************************************************************
*******************************************************************************************************************
Diese werden von der/auf die SD-Karte geladen, damit Sie nach einem Neustart wieder gleich sind wie davor.		 */

	head_zut_in_Maschine = NULL;						// Erste hinzugefgte Zutat auf NULL
    3d78:	10 92 05 08 	sts	0x0805, r1	; 0x800805 <head_zut_in_Maschine+0x1>
    3d7c:	10 92 04 08 	sts	0x0804, r1	; 0x800804 <head_zut_in_Maschine>
	tail_zut_in_Maschine = NULL;						// Letzte hinzugefgte Zutat auf NULL
    3d80:	10 92 60 0d 	sts	0x0D60, r1	; 0x800d60 <tail_zut_in_Maschine+0x1>
    3d84:	10 92 5f 0d 	sts	0x0D5F, r1	; 0x800d5f <tail_zut_in_Maschine>
	
	zutatMaschine_t * tmp_zutat_Maschine;				// Temporrer Zutaten-File-Pointer fr Hinzufgen der Zutat
	
	char delimiter[] = ",\r\n";							// Trennungszeichen definieren				(strtok)
    3d88:	8c e2       	ldi	r24, 0x2C	; 44
    3d8a:	9d e0       	ldi	r25, 0x0D	; 13
    3d8c:	9c 8f       	std	Y+28, r25	; 0x1c
    3d8e:	8b 8f       	std	Y+27, r24	; 0x1b
    3d90:	8a e0       	ldi	r24, 0x0A	; 10
    3d92:	90 e0       	ldi	r25, 0x00	; 0
    3d94:	9e 8f       	std	Y+30, r25	; 0x1e
    3d96:	8d 8f       	std	Y+29, r24	; 0x1d
	char *ptr;											// Pointer fr Abschnitte initialisieren	(strtok)
	
	char buff1[21] = {'\0'};							// Buffer fr Name der Zutat
    3d98:	8e 01       	movw	r16, r28
    3d9a:	01 5e       	subi	r16, 0xE1	; 225
    3d9c:	1f 4f       	sbci	r17, 0xFF	; 255
    3d9e:	85 e1       	ldi	r24, 0x15	; 21
    3da0:	d8 01       	movw	r26, r16
    3da2:	1d 92       	st	X+, r1
    3da4:	8a 95       	dec	r24
    3da6:	e9 f7       	brne	.-6      	; 0x3da2 <zutaten_init+0x10a>
	uint8_t buff2;										// Buffer fr Status der Zutat
	uint8_t buff3;										// Buffer fr Alkohol Ja/Nein der Zutat
	
	char buff4[20] = {'\0'};							// Buffer fr Filename "M.txt"
    3da8:	be 01       	movw	r22, r28
    3daa:	6c 5c       	subi	r22, 0xCC	; 204
    3dac:	7f 4f       	sbci	r23, 0xFF	; 255
    3dae:	84 e1       	ldi	r24, 0x14	; 20
    3db0:	fb 01       	movw	r30, r22
    3db2:	11 92       	st	Z+, r1
    3db4:	8a 95       	dec	r24
    3db6:	e9 f7       	brne	.-6      	; 0x3db2 <zutaten_init+0x11a>
	...
	(Getraenkename12),Status12,(Alkohol ja=1, nein=0)

******************************************************************************************************************/

	strcpy((char *)buff4, (const char *)"M.txt");
    3db8:	86 e0       	ldi	r24, 0x06	; 6
    3dba:	ea ec       	ldi	r30, 0xCA	; 202
    3dbc:	f4 e0       	ldi	r31, 0x04	; 4
    3dbe:	db 01       	movw	r26, r22
    3dc0:	01 90       	ld	r0, Z+
    3dc2:	0d 92       	st	X+, r0
    3dc4:	8a 95       	dec	r24
    3dc6:	e1 f7       	brne	.-8      	; 0x3dc0 <zutaten_init+0x128>
	readFile(READ, (unsigned char *)buff4);
    3dc8:	80 e0       	ldi	r24, 0x00	; 0
    3dca:	0e 94 db 28 	call	0x51b6	; 0x51b6 <readFile>
	- Damit die aktuelle Zutat auf das File1 zeigt, zeigt es auf den Tail der Liste (Erstes hinzugefgt).

******************************************************************************************************************/
	
	// Extrahiere erstes Maschinen-Zutat aus File "M.txt"
	ptr = strtok((char *)buffer, delimiter);							// Abschnitt Name Zutat
    3dce:	be 01       	movw	r22, r28
    3dd0:	65 5e       	subi	r22, 0xE5	; 229
    3dd2:	7f 4f       	sbci	r23, 0xFF	; 255
    3dd4:	8e e4       	ldi	r24, 0x4E	; 78
    3dd6:	9a e0       	ldi	r25, 0x0A	; 10
    3dd8:	0e 94 38 34 	call	0x6870	; 0x6870 <strtok>
	strcpy((char *)buff1,ptr);											// Kopiere Name in Buffer
    3ddc:	bc 01       	movw	r22, r24
    3dde:	c8 01       	movw	r24, r16
    3de0:	0e 94 4d 34 	call	0x689a	; 0x689a <strcpy>
	ptr = strtok(NULL, delimiter);										// Abschnitt Status
    3de4:	be 01       	movw	r22, r28
    3de6:	65 5e       	subi	r22, 0xE5	; 229
    3de8:	7f 4f       	sbci	r23, 0xFF	; 255
    3dea:	80 e0       	ldi	r24, 0x00	; 0
    3dec:	90 e0       	ldi	r25, 0x00	; 0
    3dee:	0e 94 38 34 	call	0x6870	; 0x6870 <strtok>
	buff2 = atoi(ptr);													// Schreibe ASCI-Status in Integer-Buffer
    3df2:	0e 94 1b 34 	call	0x6836	; 0x6836 <atoi>
    3df6:	d8 2e       	mov	r13, r24
	ptr = strtok(NULL, delimiter);										// Abschnitt Alkohol Ja/Nein
    3df8:	be 01       	movw	r22, r28
    3dfa:	65 5e       	subi	r22, 0xE5	; 229
    3dfc:	7f 4f       	sbci	r23, 0xFF	; 255
    3dfe:	80 e0       	ldi	r24, 0x00	; 0
    3e00:	90 e0       	ldi	r25, 0x00	; 0
    3e02:	0e 94 38 34 	call	0x6870	; 0x6870 <strtok>
    3e06:	7c 01       	movw	r14, r24
	buff3 = atoi(ptr);													// Schreibe ASCI-JA//Nein in Integer-Buffer
    3e08:	0e 94 1b 34 	call	0x6836	; 0x6836 <atoi>
	
	// Speicher alloziieren
	tmp_zutat_Maschine = create_neue_zutat_Maschine((char *)buff1,buff2, buff3, position);
    3e0c:	20 e0       	ldi	r18, 0x00	; 0
    3e0e:	48 2f       	mov	r20, r24
    3e10:	6d 2d       	mov	r22, r13
    3e12:	c8 01       	movw	r24, r16
    3e14:	a9 de       	rcall	.-686    	; 0x3b68 <create_neue_zutat_Maschine>
	
	// Zutat in der Liste ablegen (head_zutat = letzt hinzugefgtes Getrnk)
	head_zut_in_Maschine = insert_zutat_Maschine_at_head(&head_zut_in_Maschine,&tail_zut_in_Maschine, tmp_zutat_Maschine);
    3e16:	ac 01       	movw	r20, r24
    3e18:	6f e5       	ldi	r22, 0x5F	; 95
    3e1a:	7d e0       	ldi	r23, 0x0D	; 13
    3e1c:	84 e0       	ldi	r24, 0x04	; 4
    3e1e:	98 e0       	ldi	r25, 0x08	; 8
    3e20:	dc de       	rcall	.-584    	; 0x3bda <insert_zutat_Maschine_at_head>
    3e22:	90 93 05 08 	sts	0x0805, r25	; 0x800805 <head_zut_in_Maschine+0x1>
    3e26:	80 93 04 08 	sts	0x0804, r24	; 0x800804 <head_zut_in_Maschine>

	// Position inkrementieren
	position++;

	while(ptr != NULL)
    3e2a:	ef 28       	or	r14, r15
    3e2c:	c1 f1       	breq	.+112    	; 0x3e9e <zutaten_init+0x206>
    3e2e:	ee 24       	eor	r14, r14
    3e30:	e3 94       	inc	r14
	{
		ptr = strtok(NULL, delimiter);									// Abschnitt Name Zutat
    3e32:	be 01       	movw	r22, r28
    3e34:	65 5e       	subi	r22, 0xE5	; 229
    3e36:	7f 4f       	sbci	r23, 0xFF	; 255
    3e38:	80 e0       	ldi	r24, 0x00	; 0
    3e3a:	90 e0       	ldi	r25, 0x00	; 0
    3e3c:	0e 94 38 34 	call	0x6870	; 0x6870 <strtok>
		strcpy((char *)buff1,ptr);										// Kopiere Name in Buffer
    3e40:	bc 01       	movw	r22, r24
    3e42:	ce 01       	movw	r24, r28
    3e44:	4f 96       	adiw	r24, 0x1f	; 31
    3e46:	0e 94 4d 34 	call	0x689a	; 0x689a <strcpy>
		ptr = strtok(NULL, delimiter);									// Abschnitt Status
    3e4a:	be 01       	movw	r22, r28
    3e4c:	65 5e       	subi	r22, 0xE5	; 229
    3e4e:	7f 4f       	sbci	r23, 0xFF	; 255
    3e50:	80 e0       	ldi	r24, 0x00	; 0
    3e52:	90 e0       	ldi	r25, 0x00	; 0
    3e54:	0e 94 38 34 	call	0x6870	; 0x6870 <strtok>
		buff2 = atoi(ptr);												// Schreibe ASCI-Status in Integer-Buffer
    3e58:	0e 94 1b 34 	call	0x6836	; 0x6836 <atoi>
    3e5c:	f8 2e       	mov	r15, r24
		ptr = strtok(NULL, delimiter);									// Abschnitt Alkohol Ja/Nein
    3e5e:	be 01       	movw	r22, r28
    3e60:	65 5e       	subi	r22, 0xE5	; 229
    3e62:	7f 4f       	sbci	r23, 0xFF	; 255
    3e64:	80 e0       	ldi	r24, 0x00	; 0
    3e66:	90 e0       	ldi	r25, 0x00	; 0
    3e68:	0e 94 38 34 	call	0x6870	; 0x6870 <strtok>
    3e6c:	8c 01       	movw	r16, r24
		buff3 = atoi(ptr);												// Schreibe ASCI-JA//Nein in Integer-Buffer
    3e6e:	0e 94 1b 34 	call	0x6836	; 0x6836 <atoi>
		
		// Falls der Name des Getrnkes >=1 ist, erstelle neue Zutat in Maschine
		if (strlen((const char *)buff1)>=1)
    3e72:	9f 8d       	ldd	r25, Y+31	; 0x1f
    3e74:	99 23       	and	r25, r25
    3e76:	89 f0       	breq	.+34     	; 0x3e9a <zutaten_init+0x202>
		{
			// Speicher alloziieren
			tmp_zutat_Maschine = create_neue_zutat_Maschine((char *)buff1,buff2, buff3, position);
    3e78:	2e 2d       	mov	r18, r14
    3e7a:	48 2f       	mov	r20, r24
    3e7c:	6f 2d       	mov	r22, r15
    3e7e:	ce 01       	movw	r24, r28
    3e80:	4f 96       	adiw	r24, 0x1f	; 31
    3e82:	72 de       	rcall	.-796    	; 0x3b68 <create_neue_zutat_Maschine>
			
			// Zutat in der Liste ablegen (head_zutat = letzt hinzugefgtes Getrnk)
			head_zut_in_Maschine = insert_zutat_Maschine_at_head(&head_zut_in_Maschine,&tail_zut_in_Maschine, tmp_zutat_Maschine);
    3e84:	ac 01       	movw	r20, r24
    3e86:	6f e5       	ldi	r22, 0x5F	; 95
    3e88:	7d e0       	ldi	r23, 0x0D	; 13
    3e8a:	84 e0       	ldi	r24, 0x04	; 4
    3e8c:	98 e0       	ldi	r25, 0x08	; 8
    3e8e:	a5 de       	rcall	.-694    	; 0x3bda <insert_zutat_Maschine_at_head>
    3e90:	90 93 05 08 	sts	0x0805, r25	; 0x800805 <head_zut_in_Maschine+0x1>
    3e94:	80 93 04 08 	sts	0x0804, r24	; 0x800804 <head_zut_in_Maschine>
    3e98:	e3 94       	inc	r14

			// Position inkrementieren
			position++;
    3e9a:	01 2b       	or	r16, r17
	head_zut_in_Maschine = insert_zutat_Maschine_at_head(&head_zut_in_Maschine,&tail_zut_in_Maschine, tmp_zutat_Maschine);

	// Position inkrementieren
	position++;

	while(ptr != NULL)
    3e9c:	51 f6       	brne	.-108    	; 0x3e32 <zutaten_init+0x19a>
    3e9e:	80 91 5f 0d 	lds	r24, 0x0D5F	; 0x800d5f <tail_zut_in_Maschine>
			position++;
		}
	}
	
	// Aktuelle Zutat auf Tail zeigen lassen (Erstes hinzugefgt)
	aktuelleZutatInMaschine = tail_zut_in_Maschine;
    3ea2:	90 91 60 0d 	lds	r25, 0x0D60	; 0x800d60 <tail_zut_in_Maschine+0x1>
    3ea6:	90 93 0a 08 	sts	0x080A, r25	; 0x80080a <aktuelleZutatInMaschine+0x1>
    3eaa:	80 93 09 08 	sts	0x0809, r24	; 0x800809 <aktuelleZutatInMaschine>
    3eae:	c9 5b       	subi	r28, 0xB9	; 185
}
    3eb0:	df 4f       	sbci	r29, 0xFF	; 255
    3eb2:	0f b6       	in	r0, 0x3f	; 63
    3eb4:	f8 94       	cli
    3eb6:	de bf       	out	0x3e, r29	; 62
    3eb8:	0f be       	out	0x3f, r0	; 63
    3eba:	cd bf       	out	0x3d, r28	; 61
    3ebc:	df 91       	pop	r29
    3ebe:	cf 91       	pop	r28
    3ec0:	1f 91       	pop	r17
    3ec2:	0f 91       	pop	r16
    3ec4:	ff 90       	pop	r15
    3ec6:	ef 90       	pop	r14
    3ec8:	df 90       	pop	r13
    3eca:	cf 90       	pop	r12
    3ecc:	08 95       	ret

00003ece <IO_init>:
    3ece:	88 e7       	ldi	r24, 0x78	; 120
    3ed0:	80 bb       	out	0x10, r24	; 16
    3ed2:	87 e8       	ldi	r24, 0x87	; 135
    3ed4:	84 b9       	out	0x04, r24	; 4
    3ed6:	88 e6       	ldi	r24, 0x68	; 104
    3ed8:	80 93 01 01 	sts	0x0101, r24	; 0x800101 <__TEXT_REGION_LENGTH__+0x700101>
    3edc:	8c ef       	ldi	r24, 0xFC	; 252
    3ede:	81 b9       	out	0x01, r24	; 1
    3ee0:	84 e2       	ldi	r24, 0x24	; 36
    3ee2:	83 bb       	out	0x13, r24	; 19
    3ee4:	8c e7       	ldi	r24, 0x7C	; 124
    3ee6:	80 93 04 01 	sts	0x0104, r24	; 0x800104 <__TEXT_REGION_LENGTH__+0x700104>
    3eea:	80 e2       	ldi	r24, 0x20	; 32
    3eec:	87 b9       	out	0x07, r24	; 7
    3eee:	10 92 07 01 	sts	0x0107, r1	; 0x800107 <__TEXT_REGION_LENGTH__+0x700107>
    3ef2:	93 b1       	in	r25, 0x03	; 3
    3ef4:	85 b1       	in	r24, 0x05	; 5
    3ef6:	89 2b       	or	r24, r25
    3ef8:	85 b9       	out	0x05, r24	; 5
    3efa:	08 95       	ret

00003efc <check_Communication_Input_UART_0>:
{
		LED_PORT = LED_PORT ^ (LEDR_BIT|LEDG_BIT|LEDB_BIT|LEDW_BIT);
}

char check_Communication_Input_UART_0(void)
{
    3efc:	1f 93       	push	r17
    3efe:	cf 93       	push	r28
    3f00:	df 93       	push	r29
	char ret = 0;
    3f02:	d0 e0       	ldi	r29, 0x00	; 0
		}
		else
		{
			INPUT_UART_0[cntr_UART_0]=ch;
			cntr_UART_0++;
			ret = 0;
    3f04:	c0 e0       	ldi	r28, 0x00	; 0
		if (ch == 13)
		{
			INPUT_UART_0[cntr_UART_0] = 0;
			cntr_UART_0 = 0;
			cntr_End_UART_0 = 0;
			ret = 1;
    3f06:	11 e0       	ldi	r17, 0x01	; 1

char check_Communication_Input_UART_0(void)
{
	char ret = 0;
	// Check Buffer auf Einkommende Daten
	while(RB_length(&rb_rx_PC)>0)
    3f08:	1c c0       	rjmp	.+56     	; 0x3f42 <check_Communication_Input_UART_0+0x46>
	{
		unsigned char ch = RB_readByte(&rb_rx_PC);
    3f0a:	8d e7       	ldi	r24, 0x7D	; 125
    3f0c:	9d e0       	ldi	r25, 0x0D	; 13
    3f0e:	16 d3       	rcall	.+1580   	; 0x453c <RB_readByte>
		if (ch == 13)
    3f10:	8d 30       	cpi	r24, 0x0D	; 13
    3f12:	61 f4       	brne	.+24     	; 0x3f2c <check_Communication_Input_UART_0+0x30>
		{
			INPUT_UART_0[cntr_UART_0] = 0;
    3f14:	e0 91 fe 06 	lds	r30, 0x06FE	; 0x8006fe <cntr_UART_0>
    3f18:	f0 e0       	ldi	r31, 0x00	; 0
    3f1a:	e7 53       	subi	r30, 0x37	; 55
    3f1c:	ff 4e       	sbci	r31, 0xEF	; 239
    3f1e:	10 82       	st	Z, r1
			cntr_UART_0 = 0;
    3f20:	c0 93 fe 06 	sts	0x06FE, r28	; 0x8006fe <cntr_UART_0>
			cntr_End_UART_0 = 0;
    3f24:	c0 93 fd 06 	sts	0x06FD, r28	; 0x8006fd <cntr_End_UART_0>
			ret = 1;
    3f28:	d1 2f       	mov	r29, r17
    3f2a:	0b c0       	rjmp	.+22     	; 0x3f42 <check_Communication_Input_UART_0+0x46>
		}
		else
		{
			INPUT_UART_0[cntr_UART_0]=ch;
    3f2c:	90 91 fe 06 	lds	r25, 0x06FE	; 0x8006fe <cntr_UART_0>
    3f30:	e9 2f       	mov	r30, r25
    3f32:	f0 e0       	ldi	r31, 0x00	; 0
    3f34:	e7 53       	subi	r30, 0x37	; 55
    3f36:	ff 4e       	sbci	r31, 0xEF	; 239
    3f38:	80 83       	st	Z, r24
			cntr_UART_0++;
    3f3a:	9f 5f       	subi	r25, 0xFF	; 255
    3f3c:	90 93 fe 06 	sts	0x06FE, r25	; 0x8006fe <cntr_UART_0>
			ret = 0;
    3f40:	dc 2f       	mov	r29, r28

char check_Communication_Input_UART_0(void)
{
	char ret = 0;
	// Check Buffer auf Einkommende Daten
	while(RB_length(&rb_rx_PC)>0)
    3f42:	8d e7       	ldi	r24, 0x7D	; 125
    3f44:	9d e0       	ldi	r25, 0x0D	; 13
    3f46:	ee d2       	rcall	.+1500   	; 0x4524 <RB_length>
    3f48:	81 11       	cpse	r24, r1
    3f4a:	df cf       	rjmp	.-66     	; 0x3f0a <check_Communication_Input_UART_0+0xe>
			cntr_UART_0++;
			ret = 0;
		}
	}
	return ret;
}
    3f4c:	8d 2f       	mov	r24, r29
    3f4e:	df 91       	pop	r29
    3f50:	cf 91       	pop	r28
    3f52:	1f 91       	pop	r17
    3f54:	08 95       	ret

00003f56 <proceed_Communication_Input_UART_0>:

void proceed_Communication_Input_UART_0(void)
{
// 	char * ch = "Proceed UART 0: \n\r";
// 	Uart_Transmit_IT_PC(ch);
	cocktail_test_command(INPUT_UART_0);
    3f56:	89 ec       	ldi	r24, 0xC9	; 201
    3f58:	90 e1       	ldi	r25, 0x10	; 16
    3f5a:	0c 94 46 01 	jmp	0x28c	; 0x28c <cocktail_test_command>
    3f5e:	08 95       	ret

00003f60 <check_Communication_Input_UART_1>:
}

char check_Communication_Input_UART_1(void)
{
    3f60:	df 92       	push	r13
    3f62:	ef 92       	push	r14
    3f64:	ff 92       	push	r15
    3f66:	0f 93       	push	r16
    3f68:	1f 93       	push	r17
    3f6a:	cf 93       	push	r28
    3f6c:	df 93       	push	r29
	char ret = 0;
    3f6e:	d1 2c       	mov	r13, r1
		}
		else
		{
			INPUT_UART_1[cntr_UART_1]=ch;
			cntr_UART_1++;
			ret = 0;
    3f70:	10 e0       	ldi	r17, 0x00	; 0
			INPUT_UART_1[cntr_UART_1] = 0;
			INPUT_UART_1[cntr_UART_1-1]=0;
			INPUT_UART_1[cntr_UART_1-2]=0;
			cntr_UART_1 = 0;
			cntr_End_UART_1 = 0;
			ret = 1;
    3f72:	01 e0       	ldi	r16, 0x01	; 1
			else if (cntr_End_UART_1==2 && ((INPUT_UART_1[cntr_UART_1-1] != 0xFF) || (INPUT_UART_1[cntr_UART_1-2] != 0xFF)))
			{
				cntr_End_UART_1 = 0;
			}
		}
		if (INPUT_UART_1[0] == 'q' && strlen((const char *)INPUT_UART_1) >=4)
    3f74:	c9 ec       	ldi	r28, 0xC9	; 201
    3f76:	d2 e1       	ldi	r29, 0x12	; 18
		{
			INPUT_UART_1[0] = 255;
    3f78:	ff 24       	eor	r15, r15
    3f7a:	fa 94       	dec	r15
			{
				cntr_End_UART_1++;
			}
			else if (cntr_End_UART_1==1 && (INPUT_UART_1[cntr_UART_1-1] == 0xFF))
			{
				cntr_End_UART_1++;
    3f7c:	68 94       	set
    3f7e:	ee 24       	eor	r14, r14
    3f80:	e1 f8       	bld	r14, 1
}

char check_Communication_Input_UART_1(void)
{
	char ret = 0;
	while(RB_length(&rb_rx_Display)>0)					// UART_1
    3f82:	61 c0       	rjmp	.+194    	; 0x4046 <check_Communication_Input_UART_1+0xe6>
	{

		unsigned char ch = RB_readByte(&rb_rx_Display);
    3f84:	8b e4       	ldi	r24, 0x4B	; 75
    3f86:	99 e0       	ldi	r25, 0x09	; 9
    3f88:	d9 d2       	rcall	.+1458   	; 0x453c <RB_readByte>

		if (ch == 0xFF && INPUT_UART_1[0] != 'q')
    3f8a:	8f 3f       	cpi	r24, 0xFF	; 255
    3f8c:	79 f5       	brne	.+94     	; 0x3fec <check_Communication_Input_UART_1+0x8c>
    3f8e:	98 81       	ld	r25, Y
    3f90:	91 37       	cpi	r25, 0x71	; 113
    3f92:	79 f1       	breq	.+94     	; 0x3ff2 <check_Communication_Input_UART_1+0x92>
		{
			if (cntr_End_UART_1==0)
    3f94:	90 91 fb 06 	lds	r25, 0x06FB	; 0x8006fb <cntr_End_UART_1>
    3f98:	91 11       	cpse	r25, r1
    3f9a:	03 c0       	rjmp	.+6      	; 0x3fa2 <check_Communication_Input_UART_1+0x42>
			{
				cntr_End_UART_1++;
    3f9c:	00 93 fb 06 	sts	0x06FB, r16	; 0x8006fb <cntr_End_UART_1>
    3fa0:	47 c0       	rjmp	.+142    	; 0x4030 <check_Communication_Input_UART_1+0xd0>
			}
			else if (cntr_End_UART_1==1 && (INPUT_UART_1[cntr_UART_1-1] == 0xFF))
    3fa2:	91 30       	cpi	r25, 0x01	; 1
    3fa4:	71 f4       	brne	.+28     	; 0x3fc2 <check_Communication_Input_UART_1+0x62>
    3fa6:	e0 91 fc 06 	lds	r30, 0x06FC	; 0x8006fc <cntr_UART_1>
    3faa:	f0 e0       	ldi	r31, 0x00	; 0
    3fac:	e8 53       	subi	r30, 0x38	; 56
    3fae:	fd 4e       	sbci	r31, 0xED	; 237
    3fb0:	90 81       	ld	r25, Z
    3fb2:	9f 3f       	cpi	r25, 0xFF	; 255
    3fb4:	19 f4       	brne	.+6      	; 0x3fbc <check_Communication_Input_UART_1+0x5c>
			{
				cntr_End_UART_1++;
    3fb6:	e0 92 fb 06 	sts	0x06FB, r14	; 0x8006fb <cntr_End_UART_1>
    3fba:	3a c0       	rjmp	.+116    	; 0x4030 <check_Communication_Input_UART_1+0xd0>
			}
			else if (cntr_End_UART_1==1 && (INPUT_UART_1[cntr_UART_1-1] != 0xFF))
			{
				cntr_End_UART_1=0;
    3fbc:	10 93 fb 06 	sts	0x06FB, r17	; 0x8006fb <cntr_End_UART_1>
    3fc0:	37 c0       	rjmp	.+110    	; 0x4030 <check_Communication_Input_UART_1+0xd0>
			}
			else if (cntr_End_UART_1==2 && (INPUT_UART_1[cntr_UART_1-1] == 0xFF) && (INPUT_UART_1[cntr_UART_1-2] == 0xFF))
    3fc2:	92 30       	cpi	r25, 0x02	; 2
    3fc4:	01 f5       	brne	.+64     	; 0x4006 <check_Communication_Input_UART_1+0xa6>
    3fc6:	20 91 fc 06 	lds	r18, 0x06FC	; 0x8006fc <cntr_UART_1>
    3fca:	30 e0       	ldi	r19, 0x00	; 0
    3fcc:	f9 01       	movw	r30, r18
    3fce:	e8 53       	subi	r30, 0x38	; 56
    3fd0:	fd 4e       	sbci	r31, 0xED	; 237
    3fd2:	90 81       	ld	r25, Z
    3fd4:	9f 3f       	cpi	r25, 0xFF	; 255
    3fd6:	39 f4       	brne	.+14     	; 0x3fe6 <check_Communication_Input_UART_1+0x86>
    3fd8:	f9 01       	movw	r30, r18
    3fda:	e9 53       	subi	r30, 0x39	; 57
    3fdc:	fd 4e       	sbci	r31, 0xED	; 237
    3fde:	90 81       	ld	r25, Z
    3fe0:	9f 3f       	cpi	r25, 0xFF	; 255
    3fe2:	b9 f5       	brne	.+110    	; 0x4052 <check_Communication_Input_UART_1+0xf2>
    3fe4:	14 c0       	rjmp	.+40     	; 0x400e <check_Communication_Input_UART_1+0xae>
			{
				cntr_End_UART_1++;
			}
			else if (cntr_End_UART_1==2 && ((INPUT_UART_1[cntr_UART_1-1] != 0xFF) || (INPUT_UART_1[cntr_UART_1-2] != 0xFF)))
			{
				cntr_End_UART_1 = 0;
    3fe6:	10 93 fb 06 	sts	0x06FB, r17	; 0x8006fb <cntr_End_UART_1>
    3fea:	22 c0       	rjmp	.+68     	; 0x4030 <check_Communication_Input_UART_1+0xd0>
			}
		}
		if (INPUT_UART_1[0] == 'q' && strlen((const char *)INPUT_UART_1) >=4)
    3fec:	98 81       	ld	r25, Y
    3fee:	91 37       	cpi	r25, 0x71	; 113
    3ff0:	51 f4       	brne	.+20     	; 0x4006 <check_Communication_Input_UART_1+0xa6>
    3ff2:	fe 01       	movw	r30, r28
    3ff4:	01 90       	ld	r0, Z+
    3ff6:	00 20       	and	r0, r0
    3ff8:	e9 f7       	brne	.-6      	; 0x3ff4 <check_Communication_Input_UART_1+0x94>
    3ffa:	31 97       	sbiw	r30, 0x01	; 1
    3ffc:	e9 5c       	subi	r30, 0xC9	; 201
    3ffe:	f2 41       	sbci	r31, 0x12	; 18
    4000:	34 97       	sbiw	r30, 0x04	; 4
    4002:	08 f0       	brcs	.+2      	; 0x4006 <check_Communication_Input_UART_1+0xa6>
		{
			INPUT_UART_1[0] = 255;
    4004:	f8 82       	st	Y, r15
		}
		if (cntr_End_UART_1 == 3)
    4006:	90 91 fb 06 	lds	r25, 0x06FB	; 0x8006fb <cntr_End_UART_1>
    400a:	93 30       	cpi	r25, 0x03	; 3
    400c:	89 f4       	brne	.+34     	; 0x4030 <check_Communication_Input_UART_1+0xd0>
		{
			INPUT_UART_1[cntr_UART_1] = 0;
    400e:	e0 91 fc 06 	lds	r30, 0x06FC	; 0x8006fc <cntr_UART_1>
    4012:	f0 e0       	ldi	r31, 0x00	; 0
    4014:	e7 53       	subi	r30, 0x37	; 55
    4016:	fd 4e       	sbci	r31, 0xED	; 237
    4018:	10 82       	st	Z, r1
			INPUT_UART_1[cntr_UART_1-1]=0;
    401a:	df 01       	movw	r26, r30
    401c:	11 97       	sbiw	r26, 0x01	; 1
    401e:	1c 92       	st	X, r1
			INPUT_UART_1[cntr_UART_1-2]=0;
    4020:	32 97       	sbiw	r30, 0x02	; 2
    4022:	10 82       	st	Z, r1
			cntr_UART_1 = 0;
    4024:	10 93 fc 06 	sts	0x06FC, r17	; 0x8006fc <cntr_UART_1>
			cntr_End_UART_1 = 0;
    4028:	10 93 fb 06 	sts	0x06FB, r17	; 0x8006fb <cntr_End_UART_1>
			ret = 1;
    402c:	d0 2e       	mov	r13, r16
    402e:	0b c0       	rjmp	.+22     	; 0x4046 <check_Communication_Input_UART_1+0xe6>
		}
		else
		{
			INPUT_UART_1[cntr_UART_1]=ch;
    4030:	90 91 fc 06 	lds	r25, 0x06FC	; 0x8006fc <cntr_UART_1>
    4034:	e9 2f       	mov	r30, r25
    4036:	f0 e0       	ldi	r31, 0x00	; 0
    4038:	e7 53       	subi	r30, 0x37	; 55
    403a:	fd 4e       	sbci	r31, 0xED	; 237
    403c:	80 83       	st	Z, r24
			cntr_UART_1++;
    403e:	9f 5f       	subi	r25, 0xFF	; 255
    4040:	90 93 fc 06 	sts	0x06FC, r25	; 0x8006fc <cntr_UART_1>
			ret = 0;
    4044:	d1 2e       	mov	r13, r17
}

char check_Communication_Input_UART_1(void)
{
	char ret = 0;
	while(RB_length(&rb_rx_Display)>0)					// UART_1
    4046:	8b e4       	ldi	r24, 0x4B	; 75
    4048:	99 e0       	ldi	r25, 0x09	; 9
    404a:	6c d2       	rcall	.+1240   	; 0x4524 <RB_length>
    404c:	81 11       	cpse	r24, r1
    404e:	9a cf       	rjmp	.-204    	; 0x3f84 <check_Communication_Input_UART_1+0x24>
    4050:	07 c0       	rjmp	.+14     	; 0x4060 <check_Communication_Input_UART_1+0x100>
			}
			else if (cntr_End_UART_1==2 && (INPUT_UART_1[cntr_UART_1-1] == 0xFF) && (INPUT_UART_1[cntr_UART_1-2] == 0xFF))
			{
				cntr_End_UART_1++;
			}
			else if (cntr_End_UART_1==2 && ((INPUT_UART_1[cntr_UART_1-1] != 0xFF) || (INPUT_UART_1[cntr_UART_1-2] != 0xFF)))
    4052:	f9 01       	movw	r30, r18
    4054:	e9 53       	subi	r30, 0x39	; 57
    4056:	fd 4e       	sbci	r31, 0xED	; 237
    4058:	90 81       	ld	r25, Z
    405a:	9f 3f       	cpi	r25, 0xFF	; 255
    405c:	21 f6       	brne	.-120    	; 0x3fe6 <check_Communication_Input_UART_1+0x86>
    405e:	e8 cf       	rjmp	.-48     	; 0x4030 <check_Communication_Input_UART_1+0xd0>
			cntr_UART_1++;
			ret = 0;
		}
	}
	return ret;
}
    4060:	8d 2d       	mov	r24, r13
    4062:	df 91       	pop	r29
    4064:	cf 91       	pop	r28
    4066:	1f 91       	pop	r17
    4068:	0f 91       	pop	r16
    406a:	ff 90       	pop	r15
    406c:	ef 90       	pop	r14
    406e:	df 90       	pop	r13
    4070:	08 95       	ret

00004072 <proceed_Communication_INPUT_UART_1>:

void proceed_Communication_INPUT_UART_1(void)
{
	Uart_Transmit_IT_PC("Proceed UART 1: ");
    4072:	83 e1       	ldi	r24, 0x13	; 19
    4074:	95 e0       	ldi	r25, 0x05	; 5
    4076:	0e 94 b6 30 	call	0x616c	; 0x616c <Uart_Transmit_IT_PC>
	Uart_Transmit_IT_PC((char *)INPUT_UART_1);
    407a:	89 ec       	ldi	r24, 0xC9	; 201
    407c:	92 e1       	ldi	r25, 0x12	; 18
    407e:	0e 94 b6 30 	call	0x616c	; 0x616c <Uart_Transmit_IT_PC>
	Uart_Transmit_IT_PC("\r");
    4082:	88 e0       	ldi	r24, 0x08	; 8
    4084:	96 e0       	ldi	r25, 0x06	; 6
    4086:	0e 94 b6 30 	call	0x616c	; 0x616c <Uart_Transmit_IT_PC>
	
	cocktail_check_command(INPUT_UART_1[0], INPUT_UART_1[1]);
    408a:	e9 ec       	ldi	r30, 0xC9	; 201
    408c:	f2 e1       	ldi	r31, 0x12	; 18
    408e:	61 81       	ldd	r22, Z+1	; 0x01
    4090:	80 81       	ld	r24, Z
    4092:	04 cb       	rjmp	.-2552   	; 0x369c <cocktail_check_command>
    4094:	08 95       	ret

00004096 <check_Communication_Input_UART_2>:
}

char check_Communication_Input_UART_2(void)
{
    4096:	0f 93       	push	r16
    4098:	1f 93       	push	r17
    409a:	cf 93       	push	r28
    409c:	df 93       	push	r29
	char ret = 0;
    409e:	00 e0       	ldi	r16, 0x00	; 0
		}
		else
		{
			INPUT_UART_2[cntr_UART_2]=ch;
			cntr_UART_2++;
			ret = 0;
    40a0:	c0 e0       	ldi	r28, 0x00	; 0
			INPUT_UART_2[cntr_UART_2] = 0;
			INPUT_UART_2[cntr_UART_2-1]=0;
			INPUT_UART_2[cntr_UART_2-2]=0;
			cntr_UART_2 = 0;
			cntr_End_UART_2 = 0;
			ret = 1;
    40a2:	d1 e0       	ldi	r29, 0x01	; 1
			{
				cntr_End_UART_2++;
			}
			if (cntr_End_UART_2==1 && (INPUT_UART_2[cntr_UART_2-1] == 0xFF))
			{
				cntr_End_UART_2++;
    40a4:	12 e0       	ldi	r17, 0x02	; 2
}

char check_Communication_Input_UART_2(void)
{
	char ret = 0;
	while(RB_length(&rb_rx_ESP)>0)					// UART_2
    40a6:	49 c0       	rjmp	.+146    	; 0x413a <check_Communication_Input_UART_2+0xa4>
	{
		unsigned char ch = RB_readByte(&rb_rx_ESP);
    40a8:	80 e4       	ldi	r24, 0x40	; 64
    40aa:	98 e0       	ldi	r25, 0x08	; 8
    40ac:	47 d2       	rcall	.+1166   	; 0x453c <RB_readByte>
		// Verbesserung oder Verschlimmbesserung: Falls cntr_UART_1 >=2 dann schauen ob die letzten drei bertragungen [cntr_UART_1], [cntr_UART_1-1], [cntr_UART_1-2] 0xFF sind
		if (ch == 0xFF)
    40ae:	8f 3f       	cpi	r24, 0xFF	; 255
    40b0:	21 f5       	brne	.+72     	; 0x40fa <check_Communication_Input_UART_2+0x64>
		{
			if (cntr_End_UART_2==0)
    40b2:	90 91 f9 06 	lds	r25, 0x06F9	; 0x8006f9 <cntr_End_UART_2>
    40b6:	99 23       	and	r25, r25
    40b8:	19 f0       	breq	.+6      	; 0x40c0 <check_Communication_Input_UART_2+0x2a>
			{
				cntr_End_UART_2++;
			}
			if (cntr_End_UART_2==1 && (INPUT_UART_2[cntr_UART_2-1] == 0xFF))
    40ba:	91 30       	cpi	r25, 0x01	; 1
    40bc:	09 f0       	breq	.+2      	; 0x40c0 <check_Communication_Input_UART_2+0x2a>
    40be:	46 c0       	rjmp	.+140    	; 0x414c <check_Communication_Input_UART_2+0xb6>
    40c0:	e0 91 fa 06 	lds	r30, 0x06FA	; 0x8006fa <cntr_UART_2>
    40c4:	f0 e0       	ldi	r31, 0x00	; 0
    40c6:	e6 53       	subi	r30, 0x36	; 54
    40c8:	fc 4e       	sbci	r31, 0xEC	; 236
    40ca:	90 81       	ld	r25, Z
    40cc:	9f 3f       	cpi	r25, 0xFF	; 255
    40ce:	d9 f5       	brne	.+118    	; 0x4146 <check_Communication_Input_UART_2+0xb0>
			{
				cntr_End_UART_2++;
    40d0:	10 93 f9 06 	sts	0x06F9, r17	; 0x8006f9 <cntr_End_UART_2>
			}
			if (cntr_End_UART_2==1 && (INPUT_UART_2[cntr_UART_2-1] != 0xFF))
			{
				cntr_End_UART_2=0;
			}
			if (cntr_End_UART_2==2 && (INPUT_UART_2[cntr_UART_2-1] == 0xFF) && (INPUT_UART_2[cntr_UART_2-2] == 0xFF))
    40d4:	20 91 fa 06 	lds	r18, 0x06FA	; 0x8006fa <cntr_UART_2>
    40d8:	30 e0       	ldi	r19, 0x00	; 0
    40da:	f9 01       	movw	r30, r18
    40dc:	e6 53       	subi	r30, 0x36	; 54
    40de:	fc 4e       	sbci	r31, 0xEC	; 236
    40e0:	90 81       	ld	r25, Z
    40e2:	9f 3f       	cpi	r25, 0xFF	; 255
    40e4:	39 f4       	brne	.+14     	; 0x40f4 <check_Communication_Input_UART_2+0x5e>
    40e6:	f9 01       	movw	r30, r18
    40e8:	e7 53       	subi	r30, 0x37	; 55
    40ea:	fc 4e       	sbci	r31, 0xEC	; 236
    40ec:	90 81       	ld	r25, Z
    40ee:	9f 3f       	cpi	r25, 0xFF	; 255
    40f0:	91 f5       	brne	.+100    	; 0x4156 <check_Communication_Input_UART_2+0xc0>
    40f2:	07 c0       	rjmp	.+14     	; 0x4102 <check_Communication_Input_UART_2+0x6c>
			{
				cntr_End_UART_2++;
			}
			if (cntr_End_UART_2==2 && ((INPUT_UART_2[cntr_UART_2-1] != 0xFF) || (INPUT_UART_2[cntr_UART_2-2] != 0xFF)))
			{
				cntr_End_UART_2 = 0;
    40f4:	c0 93 f9 06 	sts	0x06F9, r28	; 0x8006f9 <cntr_End_UART_2>
    40f8:	15 c0       	rjmp	.+42     	; 0x4124 <check_Communication_Input_UART_2+0x8e>
			}
		}
		if (cntr_End_UART_2 == 3)
    40fa:	90 91 f9 06 	lds	r25, 0x06F9	; 0x8006f9 <cntr_End_UART_2>
    40fe:	93 30       	cpi	r25, 0x03	; 3
    4100:	89 f4       	brne	.+34     	; 0x4124 <check_Communication_Input_UART_2+0x8e>
		{
			INPUT_UART_2[cntr_UART_2] = 0;
    4102:	e0 91 fa 06 	lds	r30, 0x06FA	; 0x8006fa <cntr_UART_2>
    4106:	f0 e0       	ldi	r31, 0x00	; 0
    4108:	e5 53       	subi	r30, 0x35	; 53
    410a:	fc 4e       	sbci	r31, 0xEC	; 236
    410c:	10 82       	st	Z, r1
			INPUT_UART_2[cntr_UART_2-1]=0;
    410e:	df 01       	movw	r26, r30
    4110:	11 97       	sbiw	r26, 0x01	; 1
    4112:	1c 92       	st	X, r1
			INPUT_UART_2[cntr_UART_2-2]=0;
    4114:	32 97       	sbiw	r30, 0x02	; 2
    4116:	10 82       	st	Z, r1
			cntr_UART_2 = 0;
    4118:	c0 93 fa 06 	sts	0x06FA, r28	; 0x8006fa <cntr_UART_2>
			cntr_End_UART_2 = 0;
    411c:	c0 93 f9 06 	sts	0x06F9, r28	; 0x8006f9 <cntr_End_UART_2>
			ret = 1;
    4120:	0d 2f       	mov	r16, r29
    4122:	0b c0       	rjmp	.+22     	; 0x413a <check_Communication_Input_UART_2+0xa4>
		}
		else
		{
			INPUT_UART_2[cntr_UART_2]=ch;
    4124:	90 91 fa 06 	lds	r25, 0x06FA	; 0x8006fa <cntr_UART_2>
    4128:	e9 2f       	mov	r30, r25
    412a:	f0 e0       	ldi	r31, 0x00	; 0
    412c:	e5 53       	subi	r30, 0x35	; 53
    412e:	fc 4e       	sbci	r31, 0xEC	; 236
    4130:	80 83       	st	Z, r24
			cntr_UART_2++;
    4132:	9f 5f       	subi	r25, 0xFF	; 255
    4134:	90 93 fa 06 	sts	0x06FA, r25	; 0x8006fa <cntr_UART_2>
			ret = 0;
    4138:	0c 2f       	mov	r16, r28
}

char check_Communication_Input_UART_2(void)
{
	char ret = 0;
	while(RB_length(&rb_rx_ESP)>0)					// UART_2
    413a:	80 e4       	ldi	r24, 0x40	; 64
    413c:	98 e0       	ldi	r25, 0x08	; 8
    413e:	f2 d1       	rcall	.+996    	; 0x4524 <RB_length>
    4140:	81 11       	cpse	r24, r1
    4142:	b2 cf       	rjmp	.-156    	; 0x40a8 <check_Communication_Input_UART_2+0x12>
    4144:	11 c0       	rjmp	.+34     	; 0x4168 <check_Communication_Input_UART_2+0xd2>
			{
				cntr_End_UART_2++;
			}
			if (cntr_End_UART_2==1 && (INPUT_UART_2[cntr_UART_2-1] != 0xFF))
			{
				cntr_End_UART_2=0;
    4146:	c0 93 f9 06 	sts	0x06F9, r28	; 0x8006f9 <cntr_End_UART_2>
    414a:	d7 cf       	rjmp	.-82     	; 0x40fa <check_Communication_Input_UART_2+0x64>
			}
			if (cntr_End_UART_2==2 && (INPUT_UART_2[cntr_UART_2-1] == 0xFF) && (INPUT_UART_2[cntr_UART_2-2] == 0xFF))
    414c:	90 91 f9 06 	lds	r25, 0x06F9	; 0x8006f9 <cntr_End_UART_2>
    4150:	92 30       	cpi	r25, 0x02	; 2
    4152:	99 f6       	brne	.-90     	; 0x40fa <check_Communication_Input_UART_2+0x64>
    4154:	bf cf       	rjmp	.-130    	; 0x40d4 <check_Communication_Input_UART_2+0x3e>
			{
				cntr_End_UART_2++;
			}
			if (cntr_End_UART_2==2 && ((INPUT_UART_2[cntr_UART_2-1] != 0xFF) || (INPUT_UART_2[cntr_UART_2-2] != 0xFF)))
    4156:	e0 91 fa 06 	lds	r30, 0x06FA	; 0x8006fa <cntr_UART_2>
    415a:	f0 e0       	ldi	r31, 0x00	; 0
    415c:	e7 53       	subi	r30, 0x37	; 55
    415e:	fc 4e       	sbci	r31, 0xEC	; 236
    4160:	90 81       	ld	r25, Z
    4162:	9f 3f       	cpi	r25, 0xFF	; 255
    4164:	39 f6       	brne	.-114    	; 0x40f4 <check_Communication_Input_UART_2+0x5e>
    4166:	de cf       	rjmp	.-68     	; 0x4124 <check_Communication_Input_UART_2+0x8e>
			ret = 0;
			
		}
	}
	return ret;
}
    4168:	80 2f       	mov	r24, r16
    416a:	df 91       	pop	r29
    416c:	cf 91       	pop	r28
    416e:	1f 91       	pop	r17
    4170:	0f 91       	pop	r16
    4172:	08 95       	ret

00004174 <proceed_Communication_Input_UART_2>:

void proceed_Communication_Input_UART_2(void)
{
	Uart_Transmit_IT_PC("Proceed UART 2: ");
    4174:	84 e2       	ldi	r24, 0x24	; 36
    4176:	95 e0       	ldi	r25, 0x05	; 5
    4178:	0e 94 b6 30 	call	0x616c	; 0x616c <Uart_Transmit_IT_PC>
	Uart_Transmit_IT_PC((char *)INPUT_UART_2);
    417c:	8b ec       	ldi	r24, 0xCB	; 203
    417e:	93 e1       	ldi	r25, 0x13	; 19
    4180:	0e 94 b6 30 	call	0x616c	; 0x616c <Uart_Transmit_IT_PC>
	Uart_Transmit_IT_PC("\r\n");
    4184:	8c e8       	ldi	r24, 0x8C	; 140
    4186:	95 e0       	ldi	r25, 0x05	; 5
    4188:	0e 94 b6 30 	call	0x616c	; 0x616c <Uart_Transmit_IT_PC>
	
	cocktail_check_command(4,1);
    418c:	61 e0       	ldi	r22, 0x01	; 1
    418e:	84 e0       	ldi	r24, 0x04	; 4
    4190:	85 ca       	rjmp	.-2806   	; 0x369c <cocktail_check_command>
    4192:	08 95       	ret

00004194 <check_Communication_Input_UART>:
// 	cocktail_check_command(INPUT_UART_3[0],INPUT_UART_3[1]);
// }

void check_Communication_Input_UART(void)
{
	if (check_Communication_Input_UART_0())				// Check UART_0 (USB), ob vollstndige bertragung stattgefunden hat (Ende = "\r")
    4194:	b3 de       	rcall	.-666    	; 0x3efc <check_Communication_Input_UART_0>
    4196:	81 11       	cpse	r24, r1
	{
		proceed_Communication_Input_UART_0();				// Vollstndige bertragung des USB verarbeiten
    4198:	de de       	rcall	.-580    	; 0x3f56 <proceed_Communication_Input_UART_0>
	}
	if (check_Communication_Input_UART_1())				// Check UART_1 (Nextion-Display), ob vollstndige bertragung stattgefunden hat (Ende = "0xFF 0xFF 0xFF")
    419a:	e2 de       	rcall	.-572    	; 0x3f60 <check_Communication_Input_UART_1>
	{
		proceed_Communication_INPUT_UART_1();				// Vollstndige bertragung des Displays verarbeiten
    419c:	81 11       	cpse	r24, r1
	}
	if (check_Communication_Input_UART_2())				// Check UART_2 (ESP), ob vollstndige bertragung stattgefunden hat (Ende = "0xFF 0xFF 0xFF")
    419e:	69 df       	rcall	.-302    	; 0x4072 <proceed_Communication_INPUT_UART_1>
    41a0:	7a df       	rcall	.-268    	; 0x4096 <check_Communication_Input_UART_2>
    41a2:	81 11       	cpse	r24, r1
	{
		proceed_Communication_Input_UART_2();				// Vollstndige bertragung des ESP's verarbeiten
    41a4:	e7 cf       	rjmp	.-50     	; 0x4174 <proceed_Communication_Input_UART_2>
    41a6:	08 95       	ret

000041a8 <endConversation>:
    41a8:	cf 93       	push	r28
	endConversation();
}


void endConversation(void)
{
    41aa:	df 93       	push	r29
    41ac:	00 d0       	rcall	.+0      	; 0x41ae <endConversation+0x6>
    41ae:	1f 92       	push	r1
    41b0:	cd b7       	in	r28, 0x3d	; 61
    41b2:	de b7       	in	r29, 0x3e	; 62
	unsigned char end [4]= {255,255,255,'\0'};
    41b4:	8f ef       	ldi	r24, 0xFF	; 255
    41b6:	89 83       	std	Y+1, r24	; 0x01
    41b8:	8a 83       	std	Y+2, r24	; 0x02
    41ba:	8b 83       	std	Y+3, r24	; 0x03
    41bc:	1c 82       	std	Y+4, r1	; 0x04
	Uart_Transmit_IT_Display(( char *)end);
    41be:	ce 01       	movw	r24, r28
    41c0:	01 96       	adiw	r24, 0x01	; 1
    41c2:	0e 94 c9 30 	call	0x6192	; 0x6192 <Uart_Transmit_IT_Display>
	{
		Uart_Transmit_IT_PC((char *)end);
		Uart_Transmit_IT_PC("\r\n");
		_delay_ms(20);
	}
    41c6:	0f 90       	pop	r0
    41c8:	0f 90       	pop	r0
    41ca:	0f 90       	pop	r0
    41cc:	0f 90       	pop	r0
    41ce:	df 91       	pop	r29
    41d0:	cf 91       	pop	r28
    41d2:	08 95       	ret

000041d4 <nextion_change_page>:
 */ 

#include "Nextion_Display.h"

void nextion_change_page(char page)
{
    41d4:	cf 93       	push	r28
    41d6:	df 93       	push	r29
    41d8:	00 d0       	rcall	.+0      	; 0x41da <nextion_change_page+0x6>
    41da:	cd b7       	in	r28, 0x3d	; 61
    41dc:	de b7       	in	r29, 0x3e	; 62
	char * pge = "page ";
 	char buff[3] = {0};
    41de:	19 82       	std	Y+1, r1	; 0x01
    41e0:	1a 82       	std	Y+2, r1	; 0x02
    41e2:	1b 82       	std	Y+3, r1	; 0x03
    41e4:	90 e0       	ldi	r25, 0x00	; 0
    41e6:	4a e0       	ldi	r20, 0x0A	; 10
    41e8:	be 01       	movw	r22, r28
    41ea:	6f 5f       	subi	r22, 0xFF	; 255
    41ec:	7f 4f       	sbci	r23, 0xFF	; 255
    41ee:	01 97       	sbiw	r24, 0x01	; 1
    41f0:	0e 94 7b 34 	call	0x68f6	; 0x68f6 <__itoa_ncheck>
	itoa((page-1),(char *)buff,10);
	Uart_Transmit_IT_Display(pge);
    41f4:	85 e3       	ldi	r24, 0x35	; 53
    41f6:	95 e0       	ldi	r25, 0x05	; 5
    41f8:	0e 94 c9 30 	call	0x6192	; 0x6192 <Uart_Transmit_IT_Display>
	Uart_Transmit_IT_Display((char *)buff);
    41fc:	ce 01       	movw	r24, r28
    41fe:	01 96       	adiw	r24, 0x01	; 1
    4200:	0e 94 c9 30 	call	0x6192	; 0x6192 <Uart_Transmit_IT_Display>
	if (DEBUG_DISPLAY)
	{
		Uart_Transmit_IT_PC(pge);
		Uart_Transmit_IT_PC((char *)buff);
	}
	endConversation();
    4204:	d1 df       	rcall	.-94     	; 0x41a8 <endConversation>
}
    4206:	0f 90       	pop	r0
    4208:	0f 90       	pop	r0
    420a:	0f 90       	pop	r0
    420c:	df 91       	pop	r29
    420e:	cf 91       	pop	r28
    4210:	08 95       	ret

00004212 <nextion_setText>:

void nextion_setText(char * object, char * text)
{
    4212:	cf 93       	push	r28
    4214:	df 93       	push	r29
    4216:	eb 01       	movw	r28, r22
	char * txt = ".txt=";
	char * slash = "\"";
	Uart_Transmit_IT_Display(object);
    4218:	0e 94 c9 30 	call	0x6192	; 0x6192 <Uart_Transmit_IT_Display>
	Uart_Transmit_IT_Display(txt);
    421c:	8b e3       	ldi	r24, 0x3B	; 59
    421e:	95 e0       	ldi	r25, 0x05	; 5
    4220:	0e 94 c9 30 	call	0x6192	; 0x6192 <Uart_Transmit_IT_Display>
	Uart_Transmit_IT_Display(slash);
    4224:	81 e4       	ldi	r24, 0x41	; 65
    4226:	95 e0       	ldi	r25, 0x05	; 5
    4228:	0e 94 c9 30 	call	0x6192	; 0x6192 <Uart_Transmit_IT_Display>
	Uart_Transmit_IT_Display(text);
    422c:	ce 01       	movw	r24, r28
    422e:	0e 94 c9 30 	call	0x6192	; 0x6192 <Uart_Transmit_IT_Display>
	Uart_Transmit_IT_Display(slash);
    4232:	81 e4       	ldi	r24, 0x41	; 65
    4234:	95 e0       	ldi	r25, 0x05	; 5
    4236:	0e 94 c9 30 	call	0x6192	; 0x6192 <Uart_Transmit_IT_Display>
		Uart_Transmit_IT_PC(slash);
		Uart_Transmit_IT_PC(text);
		Uart_Transmit_IT_PC(slash);
	}
	
	endConversation();
    423a:	b6 df       	rcall	.-148    	; 0x41a8 <endConversation>
}
    423c:	df 91       	pop	r29
    423e:	cf 91       	pop	r28
    4240:	08 95       	ret

00004242 <nextion_setValue>:

void nextion_setValue( char * object,  char * value)
{
    4242:	cf 93       	push	r28
    4244:	df 93       	push	r29
    4246:	eb 01       	movw	r28, r22
	 char * val = ".val=";
	Uart_Transmit_IT_Display(object);
    4248:	0e 94 c9 30 	call	0x6192	; 0x6192 <Uart_Transmit_IT_Display>
	Uart_Transmit_IT_Display(val);
    424c:	83 e4       	ldi	r24, 0x43	; 67
    424e:	95 e0       	ldi	r25, 0x05	; 5
    4250:	0e 94 c9 30 	call	0x6192	; 0x6192 <Uart_Transmit_IT_Display>
	Uart_Transmit_IT_Display(value);
    4254:	ce 01       	movw	r24, r28
    4256:	0e 94 c9 30 	call	0x6192	; 0x6192 <Uart_Transmit_IT_Display>
	{
		Uart_Transmit_IT_PC(object);
		Uart_Transmit_IT_PC(val);
		Uart_Transmit_IT_PC(value);
	}
	endConversation();
    425a:	a6 df       	rcall	.-180    	; 0x41a8 <endConversation>
}
    425c:	df 91       	pop	r29
    425e:	cf 91       	pop	r28
    4260:	08 95       	ret

00004262 <nextion_setPicture>:

void nextion_setPicture( char * x,  char * y,  char * picture)
{
    4262:	ef 92       	push	r14
    4264:	ff 92       	push	r15
    4266:	0f 93       	push	r16
    4268:	1f 93       	push	r17
    426a:	cf 93       	push	r28
    426c:	df 93       	push	r29
    426e:	7c 01       	movw	r14, r24
    4270:	8b 01       	movw	r16, r22
    4272:	ea 01       	movw	r28, r20
	 char * pic = "pic ";
	 char * komma = ",";
	Uart_Transmit_IT_Display(pic);
    4274:	89 e4       	ldi	r24, 0x49	; 73
    4276:	95 e0       	ldi	r25, 0x05	; 5
    4278:	0e 94 c9 30 	call	0x6192	; 0x6192 <Uart_Transmit_IT_Display>
	Uart_Transmit_IT_Display(x);
    427c:	c7 01       	movw	r24, r14
    427e:	0e 94 c9 30 	call	0x6192	; 0x6192 <Uart_Transmit_IT_Display>
	Uart_Transmit_IT_Display(komma);
    4282:	8e e4       	ldi	r24, 0x4E	; 78
    4284:	95 e0       	ldi	r25, 0x05	; 5
    4286:	0e 94 c9 30 	call	0x6192	; 0x6192 <Uart_Transmit_IT_Display>
	Uart_Transmit_IT_Display(y);
    428a:	c8 01       	movw	r24, r16
    428c:	0e 94 c9 30 	call	0x6192	; 0x6192 <Uart_Transmit_IT_Display>
	Uart_Transmit_IT_Display(komma);
    4290:	8e e4       	ldi	r24, 0x4E	; 78
    4292:	95 e0       	ldi	r25, 0x05	; 5
    4294:	0e 94 c9 30 	call	0x6192	; 0x6192 <Uart_Transmit_IT_Display>
	Uart_Transmit_IT_Display(picture);
    4298:	ce 01       	movw	r24, r28
    429a:	0e 94 c9 30 	call	0x6192	; 0x6192 <Uart_Transmit_IT_Display>
		Uart_Transmit_IT_PC((char *)komma);
		Uart_Transmit_IT_PC((char *)y);
		Uart_Transmit_IT_PC((char *)komma);
		Uart_Transmit_IT_PC((char *)picture);
	}
		endConversation();
    429e:	84 df       	rcall	.-248    	; 0x41a8 <endConversation>
}
    42a0:	df 91       	pop	r29
    42a2:	cf 91       	pop	r28
    42a4:	1f 91       	pop	r17
    42a6:	0f 91       	pop	r16
    42a8:	ff 90       	pop	r15
    42aa:	ef 90       	pop	r14
    42ac:	08 95       	ret

000042ae <nextion_getSliderValue>:

uint8_t nextion_getSliderValue(char * object, unsigned char * INPUT)
{
    42ae:	0f 93       	push	r16
    42b0:	1f 93       	push	r17
    42b2:	cf 93       	push	r28
    42b4:	df 93       	push	r29
    42b6:	cd b7       	in	r28, 0x3d	; 61
    42b8:	de b7       	in	r29, 0x3e	; 62
    42ba:	64 97       	sbiw	r28, 0x14	; 20
    42bc:	0f b6       	in	r0, 0x3f	; 63
    42be:	f8 94       	cli
    42c0:	de bf       	out	0x3e, r29	; 62
    42c2:	0f be       	out	0x3f, r0	; 63
    42c4:	cd bf       	out	0x3d, r28	; 61
    42c6:	bc 01       	movw	r22, r24
	uint8_t ret = 0;
	
	char buff[20] = {0};
    42c8:	8e 01       	movw	r16, r28
    42ca:	0f 5f       	subi	r16, 0xFF	; 255
    42cc:	1f 4f       	sbci	r17, 0xFF	; 255
    42ce:	84 e1       	ldi	r24, 0x14	; 20
    42d0:	f8 01       	movw	r30, r16
    42d2:	11 92       	st	Z+, r1
    42d4:	8a 95       	dec	r24
    42d6:	e9 f7       	brne	.-6      	; 0x42d2 <nextion_getSliderValue+0x24>
	char * get_slider = "get ";
	char * val = ".val";
	
	strcat((char *)buff, (const char *)get_slider);
    42d8:	d8 01       	movw	r26, r16
    42da:	0d 90       	ld	r0, X+
    42dc:	00 20       	and	r0, r0
    42de:	e9 f7       	brne	.-6      	; 0x42da <nextion_getSliderValue+0x2c>
    42e0:	11 97       	sbiw	r26, 0x01	; 1
    42e2:	95 e0       	ldi	r25, 0x05	; 5
    42e4:	e0 e5       	ldi	r30, 0x50	; 80
    42e6:	f5 e0       	ldi	r31, 0x05	; 5
    42e8:	01 90       	ld	r0, Z+
    42ea:	0d 92       	st	X+, r0
    42ec:	9a 95       	dec	r25
    42ee:	e1 f7       	brne	.-8      	; 0x42e8 <nextion_getSliderValue+0x3a>
	strcat((char *)buff, (const char *)object);
    42f0:	c8 01       	movw	r24, r16
    42f2:	0e 94 42 34 	call	0x6884	; 0x6884 <strcat>
	strcat((char *)buff, (const char *)val);
    42f6:	d8 01       	movw	r26, r16
    42f8:	0d 90       	ld	r0, X+
    42fa:	00 20       	and	r0, r0
    42fc:	e9 f7       	brne	.-6      	; 0x42f8 <nextion_getSliderValue+0x4a>
    42fe:	11 97       	sbiw	r26, 0x01	; 1
    4300:	85 e0       	ldi	r24, 0x05	; 5
    4302:	e5 e5       	ldi	r30, 0x55	; 85
    4304:	f5 e0       	ldi	r31, 0x05	; 5
    4306:	01 90       	ld	r0, Z+
    4308:	0d 92       	st	X+, r0
    430a:	8a 95       	dec	r24
    430c:	e1 f7       	brne	.-8      	; 0x4306 <nextion_getSliderValue+0x58>
	Uart_Transmit_IT_Display((char *) buff);
    430e:	c8 01       	movw	r24, r16
    4310:	0e 94 c9 30 	call	0x6192	; 0x6192 <Uart_Transmit_IT_Display>
	Uart_Transmit_IT_PC((char *) buff);
    4314:	c8 01       	movw	r24, r16
    4316:	0e 94 b6 30 	call	0x616c	; 0x616c <Uart_Transmit_IT_PC>
	endConversation();
    431a:	46 df       	rcall	.-372    	; 0x41a8 <endConversation>
	
	while (check_Communication_Input_UART_1()==0)
    431c:	21 de       	rcall	.-958    	; 0x3f60 <check_Communication_Input_UART_1>
    431e:	88 23       	and	r24, r24
    4320:	e9 f3       	breq	.-6      	; 0x431c <nextion_getSliderValue+0x6e>
	;
	proceed_Communication_INPUT_UART_1();
    4322:	a7 de       	rcall	.-690    	; 0x4072 <proceed_Communication_INPUT_UART_1>
    4324:	80 91 ca 12 	lds	r24, 0x12CA	; 0x8012ca <INPUT_UART_1+0x1>
	
	if (INPUT_UART_1[1]==255)
    4328:	8f 3f       	cpi	r24, 0xFF	; 255
    432a:	09 f4       	brne	.+2      	; 0x432e <nextion_getSliderValue+0x80>
    432c:	80 e0       	ldi	r24, 0x00	; 0
	{
		ret = 0;
    432e:	64 96       	adiw	r28, 0x14	; 20
	else
	{
		ret = INPUT_UART_1[1];
	}
	return ret;
}
    4330:	0f b6       	in	r0, 0x3f	; 63
    4332:	f8 94       	cli
    4334:	de bf       	out	0x3e, r29	; 62
    4336:	0f be       	out	0x3f, r0	; 63
    4338:	cd bf       	out	0x3d, r28	; 61
    433a:	df 91       	pop	r29
    433c:	cf 91       	pop	r28
    433e:	1f 91       	pop	r17
    4340:	0f 91       	pop	r16
    4342:	08 95       	ret

00004344 <nextion_disableButton>:
    4344:	0f 93       	push	r16

void nextion_disableButton(char * object)
{
    4346:	1f 93       	push	r17
    4348:	cf 93       	push	r28
    434a:	df 93       	push	r29
    434c:	cd b7       	in	r28, 0x3d	; 61
    434e:	de b7       	in	r29, 0x3e	; 62
    4350:	64 97       	sbiw	r28, 0x14	; 20
    4352:	0f b6       	in	r0, 0x3f	; 63
    4354:	f8 94       	cli
    4356:	de bf       	out	0x3e, r29	; 62
    4358:	0f be       	out	0x3f, r0	; 63
    435a:	cd bf       	out	0x3d, r28	; 61
    435c:	bc 01       	movw	r22, r24
	char buff10[20] = {'\0'};
    435e:	8e 01       	movw	r16, r28
    4360:	0f 5f       	subi	r16, 0xFF	; 255
    4362:	1f 4f       	sbci	r17, 0xFF	; 255
    4364:	84 e1       	ldi	r24, 0x14	; 20
    4366:	f8 01       	movw	r30, r16
    4368:	11 92       	st	Z+, r1
    436a:	8a 95       	dec	r24
    436c:	e9 f7       	brne	.-6      	; 0x4368 <nextion_disableButton+0x24>
	strcpy((char *)buff10, (const char *)"tsw ");
    436e:	95 e0       	ldi	r25, 0x05	; 5
    4370:	ea e5       	ldi	r30, 0x5A	; 90
    4372:	f5 e0       	ldi	r31, 0x05	; 5
    4374:	d8 01       	movw	r26, r16
    4376:	01 90       	ld	r0, Z+
    4378:	0d 92       	st	X+, r0
    437a:	9a 95       	dec	r25
    437c:	e1 f7       	brne	.-8      	; 0x4376 <nextion_disableButton+0x32>
	strcat((char *)buff10, (const char *)object);
    437e:	c8 01       	movw	r24, r16
    4380:	0e 94 42 34 	call	0x6884	; 0x6884 <strcat>
	strcat((char *)buff10, (const char *)",0");
    4384:	f8 01       	movw	r30, r16
    4386:	01 90       	ld	r0, Z+
    4388:	00 20       	and	r0, r0
    438a:	e9 f7       	brne	.-6      	; 0x4386 <nextion_disableButton+0x42>
    438c:	31 97       	sbiw	r30, 0x01	; 1
    438e:	8c e2       	ldi	r24, 0x2C	; 44
    4390:	90 e3       	ldi	r25, 0x30	; 48
    4392:	91 83       	std	Z+1, r25	; 0x01
    4394:	80 83       	st	Z, r24
    4396:	12 82       	std	Z+2, r1	; 0x02
	
	Uart_Transmit_IT_Display((char *)buff10);
    4398:	c8 01       	movw	r24, r16
    439a:	0e 94 c9 30 	call	0x6192	; 0x6192 <Uart_Transmit_IT_Display>
	
	endConversation();
    439e:	04 df       	rcall	.-504    	; 0x41a8 <endConversation>
}
    43a0:	64 96       	adiw	r28, 0x14	; 20
    43a2:	0f b6       	in	r0, 0x3f	; 63
    43a4:	f8 94       	cli
    43a6:	de bf       	out	0x3e, r29	; 62
    43a8:	0f be       	out	0x3f, r0	; 63
    43aa:	cd bf       	out	0x3d, r28	; 61
    43ac:	df 91       	pop	r29
    43ae:	cf 91       	pop	r28
    43b0:	1f 91       	pop	r17
    43b2:	0f 91       	pop	r16
    43b4:	08 95       	ret

000043b6 <mfrc522_write>:
		Uart_Transmit_IT_PC("No reader found \r\n");
	}
}

void mfrc522_write(uint8_t reg, uint8_t data)
{
    43b6:	cf 93       	push	r28
    43b8:	df 93       	push	r29
    43ba:	c8 2f       	mov	r28, r24
    43bc:	d6 2f       	mov	r29, r22
	enable_Slave(MFRC522);
    43be:	82 e0       	ldi	r24, 0x02	; 2
    43c0:	0e 94 05 2f 	call	0x5e0a	; 0x5e0a <enable_Slave>
	spi_transmit((reg<<1)&0x7E);
    43c4:	8c 2f       	mov	r24, r28
    43c6:	88 0f       	add	r24, r24
    43c8:	8e 77       	andi	r24, 0x7E	; 126
    43ca:	0e 94 f8 2e 	call	0x5df0	; 0x5df0 <spi_transmit>
	spi_transmit(data);
    43ce:	8d 2f       	mov	r24, r29
    43d0:	0e 94 f8 2e 	call	0x5df0	; 0x5df0 <spi_transmit>
	disable_Slave(MFRC522);
    43d4:	82 e0       	ldi	r24, 0x02	; 2
    43d6:	0e 94 1d 2f 	call	0x5e3a	; 0x5e3a <disable_Slave>
}
    43da:	df 91       	pop	r29
    43dc:	cf 91       	pop	r28
    43de:	08 95       	ret

000043e0 <mfrc522_read>:

uint8_t mfrc522_read(uint8_t reg)
{
    43e0:	1f 93       	push	r17
    43e2:	cf 93       	push	r28
    43e4:	df 93       	push	r29
    43e6:	00 d0       	rcall	.+0      	; 0x43e8 <mfrc522_read+0x8>
    43e8:	1f 92       	push	r1
    43ea:	1f 92       	push	r1
    43ec:	cd b7       	in	r28, 0x3d	; 61
    43ee:	de b7       	in	r29, 0x3e	; 62
    43f0:	18 2f       	mov	r17, r24
	uint8_t data;
	enable_Slave(MFRC522);
    43f2:	82 e0       	ldi	r24, 0x02	; 2
    43f4:	0e 94 05 2f 	call	0x5e0a	; 0x5e0a <enable_Slave>
	spi_transmit(((reg<<1)&0x7E)|0x80);
    43f8:	81 2f       	mov	r24, r17
    43fa:	88 0f       	add	r24, r24
    43fc:	8e 77       	andi	r24, 0x7E	; 126
    43fe:	80 68       	ori	r24, 0x80	; 128
    4400:	0e 94 f8 2e 	call	0x5df0	; 0x5df0 <spi_transmit>
	data = spi_transmit(0x00);
    4404:	80 e0       	ldi	r24, 0x00	; 0
    4406:	0e 94 f8 2e 	call	0x5df0	; 0x5df0 <spi_transmit>
    440a:	18 2f       	mov	r17, r24
	disable_Slave(MFRC522);
    440c:	82 e0       	ldi	r24, 0x02	; 2
    440e:	0e 94 1d 2f 	call	0x5e3a	; 0x5e3a <disable_Slave>
    4412:	4a e0       	ldi	r20, 0x0A	; 10
    4414:	be 01       	movw	r22, r28
    4416:	6f 5f       	subi	r22, 0xFF	; 255
    4418:	7f 4f       	sbci	r23, 0xFF	; 255
    441a:	81 2f       	mov	r24, r17
    441c:	90 e0       	ldi	r25, 0x00	; 0
    441e:	0e 94 7b 34 	call	0x68f6	; 0x68f6 <__itoa_ncheck>
	char buff[5];
	itoa(data, (char *)buff, 10);
	Uart_Transmit_IT_PC((char *)buff);
    4422:	ce 01       	movw	r24, r28
    4424:	01 96       	adiw	r24, 0x01	; 1
    4426:	0e 94 b6 30 	call	0x616c	; 0x616c <Uart_Transmit_IT_PC>
	Uart_Transmit_IT_PC("\r");
    442a:	88 e0       	ldi	r24, 0x08	; 8
    442c:	96 e0       	ldi	r25, 0x06	; 6
    442e:	0e 94 b6 30 	call	0x616c	; 0x616c <Uart_Transmit_IT_PC>
	return data;
}
    4432:	81 2f       	mov	r24, r17
    4434:	0f 90       	pop	r0
    4436:	0f 90       	pop	r0
    4438:	0f 90       	pop	r0
    443a:	0f 90       	pop	r0
    443c:	0f 90       	pop	r0
    443e:	df 91       	pop	r29
    4440:	cf 91       	pop	r28
    4442:	1f 91       	pop	r17
    4444:	08 95       	ret

00004446 <mfrc522_reset>:

void mfrc522_reset()
{
	mfrc522_write(CommandReg,SoftReset_CMD);
    4446:	6f e0       	ldi	r22, 0x0F	; 15
    4448:	81 e0       	ldi	r24, 0x01	; 1
    444a:	b5 cf       	rjmp	.-150    	; 0x43b6 <mfrc522_write>
    444c:	08 95       	ret

0000444e <mfrc522_init>:
 */
#include "mfrc522.h"

void 
mfrc522_init()
{
    444e:	1f 93       	push	r17
    4450:	cf 93       	push	r28
    4452:	df 93       	push	r29
    4454:	cd b7       	in	r28, 0x3d	; 61
    4456:	de b7       	in	r29, 0x3e	; 62
    4458:	2a 97       	sbiw	r28, 0x0a	; 10
    445a:	0f b6       	in	r0, 0x3f	; 63
    445c:	f8 94       	cli
    445e:	de bf       	out	0x3e, r29	; 62
    4460:	0f be       	out	0x3f, r0	; 63
    4462:	cd bf       	out	0x3d, r28	; 61
	uint8_t byte;
	mfrc522_reset();
    4464:	f0 df       	rcall	.-32     	; 0x4446 <mfrc522_reset>

	mfrc522_write(TModeReg, 0x8D);
    4466:	6d e8       	ldi	r22, 0x8D	; 141
    4468:	8a e2       	ldi	r24, 0x2A	; 42
    446a:	a5 df       	rcall	.-182    	; 0x43b6 <mfrc522_write>
    mfrc522_write(TPrescalerReg, 0x3E);
    446c:	6e e3       	ldi	r22, 0x3E	; 62
    446e:	8b e2       	ldi	r24, 0x2B	; 43
    4470:	a2 df       	rcall	.-188    	; 0x43b6 <mfrc522_write>
    mfrc522_write(TReloadReg_1, 30);   
    4472:	6e e1       	ldi	r22, 0x1E	; 30
    4474:	8c e2       	ldi	r24, 0x2C	; 44
    4476:	9f df       	rcall	.-194    	; 0x43b6 <mfrc522_write>
    mfrc522_write(TReloadReg_2, 0);	
    4478:	60 e0       	ldi	r22, 0x00	; 0
    447a:	8d e2       	ldi	r24, 0x2D	; 45
    447c:	9c df       	rcall	.-200    	; 0x43b6 <mfrc522_write>
	mfrc522_write(TxASKReg, 0x40);	
    447e:	60 e4       	ldi	r22, 0x40	; 64
    4480:	85 e1       	ldi	r24, 0x15	; 21
	mfrc522_write(ModeReg, 0x3D);
    4482:	99 df       	rcall	.-206    	; 0x43b6 <mfrc522_write>
    4484:	6d e3       	ldi	r22, 0x3D	; 61
    4486:	81 e1       	ldi	r24, 0x11	; 17
    4488:	96 df       	rcall	.-212    	; 0x43b6 <mfrc522_write>
	
	byte = mfrc522_read(TxControlReg);
    448a:	84 e1       	ldi	r24, 0x14	; 20
    448c:	a9 df       	rcall	.-174    	; 0x43e0 <mfrc522_read>
	if(!(byte&0x03))
    448e:	98 2f       	mov	r25, r24
    4490:	93 70       	andi	r25, 0x03	; 3
	{
		mfrc522_write(TxControlReg,byte|0x03);
    4492:	21 f4       	brne	.+8      	; 0x449c <mfrc522_init+0x4e>
    4494:	68 2f       	mov	r22, r24
    4496:	63 60       	ori	r22, 0x03	; 3
    4498:	84 e1       	ldi	r24, 0x14	; 20
    449a:	8d df       	rcall	.-230    	; 0x43b6 <mfrc522_write>
	}
	
	byte = mfrc522_read(VersionReg);
    449c:	87 e3       	ldi	r24, 0x37	; 55
    449e:	a0 df       	rcall	.-192    	; 0x43e0 <mfrc522_read>
    44a0:	18 2f       	mov	r17, r24
    44a2:	be 01       	movw	r22, r28
	
	char buff[10] = {'\0'};
    44a4:	6f 5f       	subi	r22, 0xFF	; 255
    44a6:	7f 4f       	sbci	r23, 0xFF	; 255
    44a8:	8a e0       	ldi	r24, 0x0A	; 10
    44aa:	fb 01       	movw	r30, r22
    44ac:	11 92       	st	Z+, r1
    44ae:	8a 95       	dec	r24
    44b0:	e9 f7       	brne	.-6      	; 0x44ac <mfrc522_init+0x5e>
    44b2:	4a e0       	ldi	r20, 0x0A	; 10
    44b4:	81 2f       	mov	r24, r17
    44b6:	90 e0       	ldi	r25, 0x00	; 0
    44b8:	0e 94 7b 34 	call	0x68f6	; 0x68f6 <__itoa_ncheck>
    44bc:	12 39       	cpi	r17, 0x92	; 146
	itoa(byte, (char *)buff, 10);
	
	if(byte == 0x92)
    44be:	49 f4       	brne	.+18     	; 0x44d2 <mfrc522_init+0x84>
    44c0:	8f e5       	ldi	r24, 0x5F	; 95
	{
		Uart_Transmit_IT_PC("MIFARE RC522v2 \r\n");
    44c2:	95 e0       	ldi	r25, 0x05	; 5
    44c4:	0e 94 b6 30 	call	0x616c	; 0x616c <Uart_Transmit_IT_PC>
    44c8:	81 e7       	ldi	r24, 0x71	; 113
		Uart_Transmit_IT_PC("Detected \r\n");
    44ca:	95 e0       	ldi	r25, 0x05	; 5
    44cc:	0e 94 b6 30 	call	0x616c	; 0x616c <Uart_Transmit_IT_PC>
    44d0:	10 c0       	rjmp	.+32     	; 0x44f2 <mfrc522_init+0xa4>
    44d2:	10 59       	subi	r17, 0x90	; 144
		
	}
	else if(byte == 0x91 || byte==0x90)
    44d4:	12 30       	cpi	r17, 0x02	; 2
    44d6:	48 f4       	brcc	.+18     	; 0x44ea <mfrc522_init+0x9c>
    44d8:	8d e7       	ldi	r24, 0x7D	; 125
	{
		Uart_Transmit_IT_PC("MIFARE RC522v1 \r\n");
    44da:	95 e0       	ldi	r25, 0x05	; 5
    44dc:	0e 94 b6 30 	call	0x616c	; 0x616c <Uart_Transmit_IT_PC>
    44e0:	81 e7       	ldi	r24, 0x71	; 113
		Uart_Transmit_IT_PC("Detected \r\n");
    44e2:	95 e0       	ldi	r25, 0x05	; 5
    44e4:	0e 94 b6 30 	call	0x616c	; 0x616c <Uart_Transmit_IT_PC>
    44e8:	04 c0       	rjmp	.+8      	; 0x44f2 <mfrc522_init+0xa4>
    44ea:	8f e8       	ldi	r24, 0x8F	; 143
	}
	else
	{
		Uart_Transmit_IT_PC("No reader found \r\n");
    44ec:	95 e0       	ldi	r25, 0x05	; 5
    44ee:	0e 94 b6 30 	call	0x616c	; 0x616c <Uart_Transmit_IT_PC>
    44f2:	2a 96       	adiw	r28, 0x0a	; 10
	}
}
    44f4:	0f b6       	in	r0, 0x3f	; 63
    44f6:	f8 94       	cli
    44f8:	de bf       	out	0x3e, r29	; 62
    44fa:	0f be       	out	0x3f, r0	; 63
    44fc:	cd bf       	out	0x3d, r28	; 61
    44fe:	df 91       	pop	r29
    4500:	cf 91       	pop	r28
    4502:	1f 91       	pop	r17
    4504:	08 95       	ret

00004506 <RB_init>:
    4506:	fc 01       	movw	r30, r24
		}
	}
	rb->tail = tail;
	
	return 1;
}
    4508:	11 82       	std	Z+1, r1	; 0x01
    450a:	10 82       	st	Z, r1
    450c:	08 95       	ret

0000450e <RB_free>:
    450e:	fc 01       	movw	r30, r24
    4510:	90 81       	ld	r25, Z
    4512:	81 81       	ldd	r24, Z+1	; 0x01
    4514:	98 17       	cp	r25, r24
    4516:	20 f0       	brcs	.+8      	; 0x4520 <RB_free+0x12>
    4518:	98 1b       	sub	r25, r24
    451a:	89 2f       	mov	r24, r25
    451c:	80 95       	com	r24
    451e:	08 95       	ret
    4520:	89 1b       	sub	r24, r25
    4522:	08 95       	ret

00004524 <RB_length>:
    4524:	fc 01       	movw	r30, r24
    4526:	20 81       	ld	r18, Z
    4528:	91 81       	ldd	r25, Z+1	; 0x01
    452a:	29 17       	cp	r18, r25
    452c:	18 f0       	brcs	.+6      	; 0x4534 <RB_length+0x10>
    452e:	82 2f       	mov	r24, r18
    4530:	89 1b       	sub	r24, r25
    4532:	08 95       	ret
    4534:	89 2f       	mov	r24, r25
    4536:	82 1b       	sub	r24, r18
    4538:	80 95       	com	r24
    453a:	08 95       	ret

0000453c <RB_readByte>:
    453c:	cf 93       	push	r28
    453e:	df 93       	push	r29
    4540:	ec 01       	movw	r28, r24
    4542:	f0 df       	rcall	.-32     	; 0x4524 <RB_length>
    4544:	88 23       	and	r24, r24
    4546:	59 f0       	breq	.+22     	; 0x455e <RB_readByte+0x22>
    4548:	89 81       	ldd	r24, Y+1	; 0x01
    454a:	91 e0       	ldi	r25, 0x01	; 1
    454c:	98 0f       	add	r25, r24
    454e:	fe 01       	movw	r30, r28
    4550:	e8 0f       	add	r30, r24
    4552:	f1 1d       	adc	r31, r1
    4554:	82 81       	ldd	r24, Z+2	; 0x02
    4556:	9f 3f       	cpi	r25, 0xFF	; 255
    4558:	09 f4       	brne	.+2      	; 0x455c <RB_readByte+0x20>
    455a:	90 e0       	ldi	r25, 0x00	; 0
    455c:	99 83       	std	Y+1, r25	; 0x01
    455e:	df 91       	pop	r29
    4560:	cf 91       	pop	r28
    4562:	08 95       	ret

00004564 <RB_writeByte>:
    4564:	0f 93       	push	r16
    4566:	1f 93       	push	r17
    4568:	cf 93       	push	r28
    456a:	df 93       	push	r29
    456c:	ec 01       	movw	r28, r24
    456e:	16 2f       	mov	r17, r22
    4570:	08 81       	ld	r16, Y
    4572:	cd df       	rcall	.-102    	; 0x450e <RB_free>
    4574:	88 23       	and	r24, r24
    4576:	f1 f3       	breq	.-4      	; 0x4574 <RB_writeByte+0x10>
    4578:	11 11       	cpse	r17, r1
    457a:	01 c0       	rjmp	.+2      	; 0x457e <RB_writeByte+0x1a>
    457c:	1f ef       	ldi	r17, 0xFF	; 255
    457e:	81 e0       	ldi	r24, 0x01	; 1
    4580:	80 0f       	add	r24, r16
    4582:	fe 01       	movw	r30, r28
    4584:	e0 0f       	add	r30, r16
    4586:	f1 1d       	adc	r31, r1
    4588:	12 83       	std	Z+2, r17	; 0x02
    458a:	8f 3f       	cpi	r24, 0xFF	; 255
    458c:	09 f4       	brne	.+2      	; 0x4590 <RB_writeByte+0x2c>
    458e:	80 e0       	ldi	r24, 0x00	; 0
    4590:	88 83       	st	Y, r24
    4592:	81 e0       	ldi	r24, 0x01	; 1
    4594:	df 91       	pop	r29
    4596:	cf 91       	pop	r28
    4598:	1f 91       	pop	r17
    459a:	0f 91       	pop	r16
    459c:	08 95       	ret

0000459e <RB_write>:

unsigned char RB_write( ring_buffer_t *rb, char *data, unsigned char datal )
{
    459e:	ff 92       	push	r15
    45a0:	0f 93       	push	r16
    45a2:	1f 93       	push	r17
    45a4:	cf 93       	push	r28
    45a6:	df 93       	push	r29
	unsigned char head;
	
	head = rb->head;
	
	if (datal == 0)
    45a8:	44 23       	and	r20, r20
    45aa:	d9 f0       	breq	.+54     	; 0x45e2 <RB_write+0x44>
    45ac:	c4 2f       	mov	r28, r20
    45ae:	d7 2f       	mov	r29, r23
    45b0:	f6 2e       	mov	r15, r22
    45b2:	8c 01       	movw	r16, r24
	{
		return  0;
	}
	
	while(RB_free(rb) < datal);
    45b4:	ac df       	rcall	.-168    	; 0x450e <RB_free>
    45b6:	8c 17       	cp	r24, r28
    45b8:	f0 f3       	brcs	.-4      	; 0x45b6 <RB_write+0x18>
    45ba:	15 c0       	rjmp	.+42     	; 0x45e6 <RB_write+0x48>
	
	while(datal--)
	{
		rb->data[head++] = *data++;
    45bc:	21 e0       	ldi	r18, 0x01	; 1
    45be:	29 0f       	add	r18, r25
    45c0:	31 91       	ld	r19, Z+
    45c2:	d8 01       	movw	r26, r16
    45c4:	a9 0f       	add	r26, r25
    45c6:	b1 1d       	adc	r27, r1
    45c8:	12 96       	adiw	r26, 0x02	; 2
    45ca:	3c 93       	st	X, r19
		if (head >= RING_BUFFER_SIZE)
    45cc:	2f 3f       	cpi	r18, 0xFF	; 255
    45ce:	11 f4       	brne	.+4      	; 0x45d4 <RB_write+0x36>
		{
			head = 0;
    45d0:	98 2f       	mov	r25, r24
    45d2:	01 c0       	rjmp	.+2      	; 0x45d6 <RB_write+0x38>
	
	while(RB_free(rb) < datal);
	
	while(datal--)
	{
		rb->data[head++] = *data++;
    45d4:	92 2f       	mov	r25, r18
		return  0;
	}
	
	while(RB_free(rb) < datal);
	
	while(datal--)
    45d6:	41 50       	subi	r20, 0x01	; 1
    45d8:	88 f7       	brcc	.-30     	; 0x45bc <RB_write+0x1e>
		{
			head = 0;
		}
	}
	
	rb->head = head;
    45da:	f8 01       	movw	r30, r16
    45dc:	90 83       	st	Z, r25
	
	return 1;
    45de:	81 e0       	ldi	r24, 0x01	; 1
    45e0:	0a c0       	rjmp	.+20     	; 0x45f6 <RB_write+0x58>
	
	head = rb->head;
	
	if (datal == 0)
	{
		return  0;
    45e2:	80 e0       	ldi	r24, 0x00	; 0
    45e4:	08 c0       	rjmp	.+16     	; 0x45f6 <RB_write+0x58>

unsigned char RB_write( ring_buffer_t *rb, char *data, unsigned char datal )
{
	unsigned char head;
	
	head = rb->head;
    45e6:	f8 01       	movw	r30, r16
    45e8:	90 81       	ld	r25, Z
		return  0;
	}
	
	while(RB_free(rb) < datal);
	
	while(datal--)
    45ea:	4f ef       	ldi	r20, 0xFF	; 255
    45ec:	4c 0f       	add	r20, r28
    45ee:	ef 2d       	mov	r30, r15
    45f0:	fd 2f       	mov	r31, r29
	{
		rb->data[head++] = *data++;
		if (head >= RING_BUFFER_SIZE)
		{
			head = 0;
    45f2:	80 e0       	ldi	r24, 0x00	; 0
    45f4:	e3 cf       	rjmp	.-58     	; 0x45bc <RB_write+0x1e>
	}
	
	rb->head = head;
	
	return 1;
}
    45f6:	df 91       	pop	r29
    45f8:	cf 91       	pop	r28
    45fa:	1f 91       	pop	r17
    45fc:	0f 91       	pop	r16
    45fe:	ff 90       	pop	r15
    4600:	08 95       	ret

00004602 <getFirstSector>:
freeMemory *= bytesPerSector ;
asm("nop");
Uart_Transmit_IT_PC((char*)("\r Free Memory: \r"));
displayMemory (HIGH, freeMemory);
asm("nop");
}
    4602:	cf 92       	push	r12
    4604:	df 92       	push	r13
    4606:	ef 92       	push	r14
    4608:	ff 92       	push	r15
    460a:	a0 91 4f 0c 	lds	r26, 0x0C4F	; 0x800c4f <sectorPerCluster>
    460e:	b0 91 50 0c 	lds	r27, 0x0C50	; 0x800c50 <sectorPerCluster+0x1>
    4612:	c0 90 24 08 	lds	r12, 0x0824	; 0x800824 <firstDataSector>
    4616:	d0 90 25 08 	lds	r13, 0x0825	; 0x800825 <firstDataSector+0x1>
    461a:	e0 90 26 08 	lds	r14, 0x0826	; 0x800826 <firstDataSector+0x2>
    461e:	f0 90 27 08 	lds	r15, 0x0827	; 0x800827 <firstDataSector+0x3>
    4622:	9b 01       	movw	r18, r22
    4624:	ac 01       	movw	r20, r24
    4626:	22 50       	subi	r18, 0x02	; 2
    4628:	31 09       	sbc	r19, r1
    462a:	41 09       	sbc	r20, r1
    462c:	51 09       	sbc	r21, r1
    462e:	0e 94 d6 32 	call	0x65ac	; 0x65ac <__muluhisi3>
    4632:	6c 0d       	add	r22, r12
    4634:	7d 1d       	adc	r23, r13
    4636:	8e 1d       	adc	r24, r14
    4638:	9f 1d       	adc	r25, r15
    463a:	ff 90       	pop	r15
    463c:	ef 90       	pop	r14
    463e:	df 90       	pop	r13
    4640:	cf 90       	pop	r12
    4642:	08 95       	ret

00004644 <getSetNextCluster>:
    4644:	4f 92       	push	r4
    4646:	5f 92       	push	r5
    4648:	6f 92       	push	r6
    464a:	7f 92       	push	r7
    464c:	8f 92       	push	r8
    464e:	9f 92       	push	r9
    4650:	af 92       	push	r10
    4652:	bf 92       	push	r11
    4654:	cf 92       	push	r12
    4656:	df 92       	push	r13
    4658:	ef 92       	push	r14
    465a:	ff 92       	push	r15
    465c:	0f 93       	push	r16
    465e:	1f 93       	push	r17
    4660:	cf 93       	push	r28
    4662:	df 93       	push	r29
    4664:	d4 2f       	mov	r29, r20
    4666:	28 01       	movw	r4, r16
    4668:	39 01       	movw	r6, r18
    466a:	40 91 77 0d 	lds	r20, 0x0D77	; 0x800d77 <reservedSectorCount>
    466e:	50 91 78 0d 	lds	r21, 0x0D78	; 0x800d78 <reservedSectorCount+0x1>
    4672:	4b 01       	movw	r8, r22
    4674:	5c 01       	movw	r10, r24
    4676:	88 0c       	add	r8, r8
    4678:	99 1c       	adc	r9, r9
    467a:	aa 1c       	adc	r10, r10
    467c:	bb 1c       	adc	r11, r11
    467e:	88 0c       	add	r8, r8
    4680:	99 1c       	adc	r9, r9
    4682:	aa 1c       	adc	r10, r10
    4684:	bb 1c       	adc	r11, r11
    4686:	20 91 2e 08 	lds	r18, 0x082E	; 0x80082e <bytesPerSector>
    468a:	30 91 2f 08 	lds	r19, 0x082F	; 0x80082f <bytesPerSector+0x1>
    468e:	c0 90 54 0c 	lds	r12, 0x0C54	; 0x800c54 <unusedSectors>
    4692:	d0 90 55 0c 	lds	r13, 0x0C55	; 0x800c55 <unusedSectors+0x1>
    4696:	e0 90 56 0c 	lds	r14, 0x0C56	; 0x800c56 <unusedSectors+0x2>
    469a:	f0 90 57 0c 	lds	r15, 0x0C57	; 0x800c57 <unusedSectors+0x3>
    469e:	c4 0e       	add	r12, r20
    46a0:	d5 1e       	adc	r13, r21
    46a2:	e1 1c       	adc	r14, r1
    46a4:	f1 1c       	adc	r15, r1
    46a6:	40 e0       	ldi	r20, 0x00	; 0
    46a8:	50 e0       	ldi	r21, 0x00	; 0
    46aa:	c5 01       	movw	r24, r10
    46ac:	b4 01       	movw	r22, r8
    46ae:	0e 94 9d 32 	call	0x653a	; 0x653a <__udivmodsi4>
    46b2:	c2 0e       	add	r12, r18
    46b4:	d3 1e       	adc	r13, r19
    46b6:	e4 1e       	adc	r14, r20
    46b8:	f5 1e       	adc	r15, r21
    46ba:	20 91 2e 08 	lds	r18, 0x082E	; 0x80082e <bytesPerSector>
    46be:	30 91 2f 08 	lds	r19, 0x082F	; 0x80082f <bytesPerSector+0x1>
    46c2:	40 e0       	ldi	r20, 0x00	; 0
    46c4:	50 e0       	ldi	r21, 0x00	; 0
    46c6:	c5 01       	movw	r24, r10
    46c8:	b4 01       	movw	r22, r8
    46ca:	0e 94 9d 32 	call	0x653a	; 0x653a <__udivmodsi4>
    46ce:	4b 01       	movw	r8, r22
    46d0:	5c 01       	movw	r10, r24
    46d2:	ca e0       	ldi	r28, 0x0A	; 10
    46d4:	c7 01       	movw	r24, r14
    46d6:	b6 01       	movw	r22, r12
    46d8:	0e 94 8f 2e 	call	0x5d1e	; 0x5d1e <SD_readSingleBlock>
    46dc:	88 23       	and	r24, r24
    46de:	11 f0       	breq	.+4      	; 0x46e4 <getSetNextCluster+0xa0>
    46e0:	c1 50       	subi	r28, 0x01	; 1
    46e2:	c1 f7       	brne	.-16     	; 0x46d4 <getSetNextCluster+0x90>
    46e4:	f4 01       	movw	r30, r8
    46e6:	e2 5b       	subi	r30, 0xB2	; 178
    46e8:	f5 4f       	sbci	r31, 0xF5	; 245
    46ea:	d1 11       	cpse	r29, r1
    46ec:	08 c0       	rjmp	.+16     	; 0x46fe <getSetNextCluster+0xba>
    46ee:	80 81       	ld	r24, Z
    46f0:	91 81       	ldd	r25, Z+1	; 0x01
    46f2:	a2 81       	ldd	r26, Z+2	; 0x02
    46f4:	b3 81       	ldd	r27, Z+3	; 0x03
    46f6:	bc 01       	movw	r22, r24
    46f8:	cd 01       	movw	r24, r26
    46fa:	9f 70       	andi	r25, 0x0F	; 15
    46fc:	0b c0       	rjmp	.+22     	; 0x4714 <getSetNextCluster+0xd0>
    46fe:	40 82       	st	Z, r4
    4700:	51 82       	std	Z+1, r5	; 0x01
    4702:	62 82       	std	Z+2, r6	; 0x02
    4704:	73 82       	std	Z+3, r7	; 0x03
    4706:	c7 01       	movw	r24, r14
    4708:	b6 01       	movw	r22, r12
    470a:	0e 94 b7 2e 	call	0x5d6e	; 0x5d6e <SD_writeSingleBlock>
    470e:	60 e0       	ldi	r22, 0x00	; 0
    4710:	70 e0       	ldi	r23, 0x00	; 0
    4712:	cb 01       	movw	r24, r22
    4714:	df 91       	pop	r29
    4716:	cf 91       	pop	r28
    4718:	1f 91       	pop	r17
    471a:	0f 91       	pop	r16
    471c:	ff 90       	pop	r15
    471e:	ef 90       	pop	r14
    4720:	df 90       	pop	r13
    4722:	cf 90       	pop	r12
    4724:	bf 90       	pop	r11
    4726:	af 90       	pop	r10
    4728:	9f 90       	pop	r9
    472a:	8f 90       	pop	r8
    472c:	7f 90       	pop	r7
    472e:	6f 90       	pop	r6
    4730:	5f 90       	pop	r5
    4732:	4f 90       	pop	r4
    4734:	08 95       	ret

00004736 <getSetFreeCluster>:
    4736:	cf 92       	push	r12
    4738:	df 92       	push	r13
    473a:	ef 92       	push	r14
    473c:	ff 92       	push	r15
    473e:	cf 93       	push	r28
    4740:	df 93       	push	r29
    4742:	d8 2f       	mov	r29, r24
    4744:	c6 2f       	mov	r28, r22
    4746:	69 01       	movw	r12, r18
    4748:	7a 01       	movw	r14, r20
    474a:	80 91 54 0c 	lds	r24, 0x0C54	; 0x800c54 <unusedSectors>
    474e:	90 91 55 0c 	lds	r25, 0x0C55	; 0x800c55 <unusedSectors+0x1>
    4752:	a0 91 56 0c 	lds	r26, 0x0C56	; 0x800c56 <unusedSectors+0x2>
    4756:	b0 91 57 0c 	lds	r27, 0x0C57	; 0x800c57 <unusedSectors+0x3>
    475a:	bc 01       	movw	r22, r24
    475c:	cd 01       	movw	r24, r26
    475e:	6f 5f       	subi	r22, 0xFF	; 255
    4760:	7f 4f       	sbci	r23, 0xFF	; 255
    4762:	8f 4f       	sbci	r24, 0xFF	; 255
    4764:	9f 4f       	sbci	r25, 0xFF	; 255
    4766:	0e 94 8f 2e 	call	0x5d1e	; 0x5d1e <SD_readSingleBlock>
    476a:	80 91 4e 0a 	lds	r24, 0x0A4E	; 0x800a4e <buffer>
    476e:	90 91 4f 0a 	lds	r25, 0x0A4F	; 0x800a4f <buffer+0x1>
    4772:	a0 91 50 0a 	lds	r26, 0x0A50	; 0x800a50 <buffer+0x2>
    4776:	b0 91 51 0a 	lds	r27, 0x0A51	; 0x800a51 <buffer+0x3>
    477a:	82 35       	cpi	r24, 0x52	; 82
    477c:	92 45       	sbci	r25, 0x52	; 82
    477e:	a1 46       	sbci	r26, 0x61	; 97
    4780:	b1 44       	sbci	r27, 0x41	; 65
    4782:	09 f0       	breq	.+2      	; 0x4786 <getSetFreeCluster+0x50>
    4784:	58 c0       	rjmp	.+176    	; 0x4836 <getSetFreeCluster+0x100>
    4786:	80 91 32 0c 	lds	r24, 0x0C32	; 0x800c32 <buffer+0x1e4>
    478a:	90 91 33 0c 	lds	r25, 0x0C33	; 0x800c33 <buffer+0x1e5>
    478e:	a0 91 34 0c 	lds	r26, 0x0C34	; 0x800c34 <buffer+0x1e6>
    4792:	b0 91 35 0c 	lds	r27, 0x0C35	; 0x800c35 <buffer+0x1e7>
    4796:	82 37       	cpi	r24, 0x72	; 114
    4798:	92 47       	sbci	r25, 0x72	; 114
    479a:	a1 44       	sbci	r26, 0x41	; 65
    479c:	b1 46       	sbci	r27, 0x61	; 97
    479e:	09 f0       	breq	.+2      	; 0x47a2 <getSetFreeCluster+0x6c>
    47a0:	4e c0       	rjmp	.+156    	; 0x483e <getSetFreeCluster+0x108>
    47a2:	80 91 4a 0c 	lds	r24, 0x0C4A	; 0x800c4a <buffer+0x1fc>
    47a6:	90 91 4b 0c 	lds	r25, 0x0C4B	; 0x800c4b <buffer+0x1fd>
    47aa:	a0 91 4c 0c 	lds	r26, 0x0C4C	; 0x800c4c <buffer+0x1fe>
    47ae:	b0 91 4d 0c 	lds	r27, 0x0C4D	; 0x800c4d <buffer+0x1ff>
    47b2:	00 97       	sbiw	r24, 0x00	; 0
    47b4:	a5 45       	sbci	r26, 0x55	; 85
    47b6:	ba 4a       	sbci	r27, 0xAA	; 170
    47b8:	09 f0       	breq	.+2      	; 0x47bc <getSetFreeCluster+0x86>
    47ba:	45 c0       	rjmp	.+138    	; 0x4846 <getSetFreeCluster+0x110>
    47bc:	c1 11       	cpse	r28, r1
    47be:	14 c0       	rjmp	.+40     	; 0x47e8 <getSetFreeCluster+0xb2>
    47c0:	d1 30       	cpi	r29, 0x01	; 1
    47c2:	49 f4       	brne	.+18     	; 0x47d6 <getSetFreeCluster+0xa0>
    47c4:	60 91 36 0c 	lds	r22, 0x0C36	; 0x800c36 <buffer+0x1e8>
    47c8:	70 91 37 0c 	lds	r23, 0x0C37	; 0x800c37 <buffer+0x1e9>
    47cc:	80 91 38 0c 	lds	r24, 0x0C38	; 0x800c38 <buffer+0x1ea>
    47d0:	90 91 39 0c 	lds	r25, 0x0C39	; 0x800c39 <buffer+0x1eb>
    47d4:	3b c0       	rjmp	.+118    	; 0x484c <getSetFreeCluster+0x116>
    47d6:	60 91 3a 0c 	lds	r22, 0x0C3A	; 0x800c3a <buffer+0x1ec>
    47da:	70 91 3b 0c 	lds	r23, 0x0C3B	; 0x800c3b <buffer+0x1ed>
    47de:	80 91 3c 0c 	lds	r24, 0x0C3C	; 0x800c3c <buffer+0x1ee>
    47e2:	90 91 3d 0c 	lds	r25, 0x0C3D	; 0x800c3d <buffer+0x1ef>
    47e6:	32 c0       	rjmp	.+100    	; 0x484c <getSetFreeCluster+0x116>
    47e8:	d1 30       	cpi	r29, 0x01	; 1
    47ea:	49 f4       	brne	.+18     	; 0x47fe <getSetFreeCluster+0xc8>
    47ec:	c0 92 36 0c 	sts	0x0C36, r12	; 0x800c36 <buffer+0x1e8>
    47f0:	d0 92 37 0c 	sts	0x0C37, r13	; 0x800c37 <buffer+0x1e9>
    47f4:	e0 92 38 0c 	sts	0x0C38, r14	; 0x800c38 <buffer+0x1ea>
    47f8:	f0 92 39 0c 	sts	0x0C39, r15	; 0x800c39 <buffer+0x1eb>
    47fc:	08 c0       	rjmp	.+16     	; 0x480e <getSetFreeCluster+0xd8>
    47fe:	c0 92 3a 0c 	sts	0x0C3A, r12	; 0x800c3a <buffer+0x1ec>
    4802:	d0 92 3b 0c 	sts	0x0C3B, r13	; 0x800c3b <buffer+0x1ed>
    4806:	e0 92 3c 0c 	sts	0x0C3C, r14	; 0x800c3c <buffer+0x1ee>
    480a:	f0 92 3d 0c 	sts	0x0C3D, r15	; 0x800c3d <buffer+0x1ef>
    480e:	80 91 54 0c 	lds	r24, 0x0C54	; 0x800c54 <unusedSectors>
    4812:	90 91 55 0c 	lds	r25, 0x0C55	; 0x800c55 <unusedSectors+0x1>
    4816:	a0 91 56 0c 	lds	r26, 0x0C56	; 0x800c56 <unusedSectors+0x2>
    481a:	b0 91 57 0c 	lds	r27, 0x0C57	; 0x800c57 <unusedSectors+0x3>
    481e:	bc 01       	movw	r22, r24
    4820:	cd 01       	movw	r24, r26
    4822:	6f 5f       	subi	r22, 0xFF	; 255
    4824:	7f 4f       	sbci	r23, 0xFF	; 255
    4826:	8f 4f       	sbci	r24, 0xFF	; 255
    4828:	9f 4f       	sbci	r25, 0xFF	; 255
    482a:	0e 94 b7 2e 	call	0x5d6e	; 0x5d6e <SD_writeSingleBlock>
    482e:	6f ef       	ldi	r22, 0xFF	; 255
    4830:	7f ef       	ldi	r23, 0xFF	; 255
    4832:	cb 01       	movw	r24, r22
    4834:	0b c0       	rjmp	.+22     	; 0x484c <getSetFreeCluster+0x116>
    4836:	6f ef       	ldi	r22, 0xFF	; 255
    4838:	7f ef       	ldi	r23, 0xFF	; 255
    483a:	cb 01       	movw	r24, r22
    483c:	07 c0       	rjmp	.+14     	; 0x484c <getSetFreeCluster+0x116>
    483e:	6f ef       	ldi	r22, 0xFF	; 255
    4840:	7f ef       	ldi	r23, 0xFF	; 255
    4842:	cb 01       	movw	r24, r22
    4844:	03 c0       	rjmp	.+6      	; 0x484c <getSetFreeCluster+0x116>
    4846:	6f ef       	ldi	r22, 0xFF	; 255
    4848:	7f ef       	ldi	r23, 0xFF	; 255
    484a:	cb 01       	movw	r24, r22
    484c:	df 91       	pop	r29
    484e:	cf 91       	pop	r28
    4850:	ff 90       	pop	r15
    4852:	ef 90       	pop	r14
    4854:	df 90       	pop	r13
    4856:	cf 90       	pop	r12
    4858:	08 95       	ret

0000485a <getBootSectorData>:
    485a:	ef 92       	push	r14
    485c:	ff 92       	push	r15
    485e:	0f 93       	push	r16
    4860:	1f 93       	push	r17
    4862:	cf 93       	push	r28
    4864:	df 93       	push	r29
    4866:	10 92 54 0c 	sts	0x0C54, r1	; 0x800c54 <unusedSectors>
    486a:	10 92 55 0c 	sts	0x0C55, r1	; 0x800c55 <unusedSectors+0x1>
    486e:	10 92 56 0c 	sts	0x0C56, r1	; 0x800c56 <unusedSectors+0x2>
    4872:	10 92 57 0c 	sts	0x0C57, r1	; 0x800c57 <unusedSectors+0x3>
    4876:	60 e0       	ldi	r22, 0x00	; 0
    4878:	70 e0       	ldi	r23, 0x00	; 0
    487a:	cb 01       	movw	r24, r22
    487c:	0e 94 8f 2e 	call	0x5d1e	; 0x5d1e <SD_readSingleBlock>
    4880:	80 91 4e 0a 	lds	r24, 0x0A4E	; 0x800a4e <buffer>
    4884:	8d 7f       	andi	r24, 0xFD	; 253
    4886:	89 3e       	cpi	r24, 0xE9	; 233
    4888:	01 f1       	breq	.+64     	; 0x48ca <getBootSectorData+0x70>
    488a:	80 91 4c 0c 	lds	r24, 0x0C4C	; 0x800c4c <buffer+0x1fe>
    488e:	90 91 4d 0c 	lds	r25, 0x0C4D	; 0x800c4d <buffer+0x1ff>
    4892:	85 35       	cpi	r24, 0x55	; 85
    4894:	9a 4a       	sbci	r25, 0xAA	; 170
    4896:	09 f0       	breq	.+2      	; 0x489a <getBootSectorData+0x40>
    4898:	96 c0       	rjmp	.+300    	; 0x49c6 <getBootSectorData+0x16c>
    489a:	60 91 14 0c 	lds	r22, 0x0C14	; 0x800c14 <buffer+0x1c6>
    489e:	70 91 15 0c 	lds	r23, 0x0C15	; 0x800c15 <buffer+0x1c7>
    48a2:	80 91 16 0c 	lds	r24, 0x0C16	; 0x800c16 <buffer+0x1c8>
    48a6:	90 91 17 0c 	lds	r25, 0x0C17	; 0x800c17 <buffer+0x1c9>
    48aa:	60 93 54 0c 	sts	0x0C54, r22	; 0x800c54 <unusedSectors>
    48ae:	70 93 55 0c 	sts	0x0C55, r23	; 0x800c55 <unusedSectors+0x1>
    48b2:	80 93 56 0c 	sts	0x0C56, r24	; 0x800c56 <unusedSectors+0x2>
    48b6:	90 93 57 0c 	sts	0x0C57, r25	; 0x800c57 <unusedSectors+0x3>
    48ba:	0e 94 8f 2e 	call	0x5d1e	; 0x5d1e <SD_readSingleBlock>
    48be:	80 91 4e 0a 	lds	r24, 0x0A4E	; 0x800a4e <buffer>
    48c2:	8d 7f       	andi	r24, 0xFD	; 253
    48c4:	89 3e       	cpi	r24, 0xE9	; 233
    48c6:	09 f0       	breq	.+2      	; 0x48ca <getBootSectorData+0x70>
    48c8:	80 c0       	rjmp	.+256    	; 0x49ca <getBootSectorData+0x170>
    48ca:	ee e4       	ldi	r30, 0x4E	; 78
    48cc:	fa e0       	ldi	r31, 0x0A	; 10
    48ce:	83 85       	ldd	r24, Z+11	; 0x0b
    48d0:	94 85       	ldd	r25, Z+12	; 0x0c
    48d2:	90 93 2f 08 	sts	0x082F, r25	; 0x80082f <bytesPerSector+0x1>
    48d6:	80 93 2e 08 	sts	0x082E, r24	; 0x80082e <bytesPerSector>
    48da:	85 85       	ldd	r24, Z+13	; 0x0d
    48dc:	90 e0       	ldi	r25, 0x00	; 0
    48de:	90 93 50 0c 	sts	0x0C50, r25	; 0x800c50 <sectorPerCluster+0x1>
    48e2:	80 93 4f 0c 	sts	0x0C4F, r24	; 0x800c4f <sectorPerCluster>
    48e6:	c6 85       	ldd	r28, Z+14	; 0x0e
    48e8:	d7 85       	ldd	r29, Z+15	; 0x0f
    48ea:	d0 93 78 0d 	sts	0x0D78, r29	; 0x800d78 <reservedSectorCount+0x1>
    48ee:	c0 93 77 0d 	sts	0x0D77, r28	; 0x800d77 <reservedSectorCount>
    48f2:	84 a5       	ldd	r24, Z+44	; 0x2c
    48f4:	95 a5       	ldd	r25, Z+45	; 0x2d
    48f6:	a6 a5       	ldd	r26, Z+46	; 0x2e
    48f8:	b7 a5       	ldd	r27, Z+47	; 0x2f
    48fa:	80 93 3b 08 	sts	0x083B, r24	; 0x80083b <rootCluster>
    48fe:	90 93 3c 08 	sts	0x083C, r25	; 0x80083c <rootCluster+0x1>
    4902:	a0 93 3d 08 	sts	0x083D, r26	; 0x80083d <rootCluster+0x2>
    4906:	b0 93 3e 08 	sts	0x083E, r27	; 0x80083e <rootCluster+0x3>
    490a:	00 91 77 0d 	lds	r16, 0x0D77	; 0x800d77 <reservedSectorCount>
    490e:	10 91 78 0d 	lds	r17, 0x0D78	; 0x800d78 <reservedSectorCount+0x1>
    4912:	a0 89       	ldd	r26, Z+16	; 0x10
    4914:	24 a1       	ldd	r18, Z+36	; 0x24
    4916:	35 a1       	ldd	r19, Z+37	; 0x25
    4918:	46 a1       	ldd	r20, Z+38	; 0x26
    491a:	57 a1       	ldd	r21, Z+39	; 0x27
    491c:	b0 e0       	ldi	r27, 0x00	; 0
    491e:	0e 94 d6 32 	call	0x65ac	; 0x65ac <__muluhisi3>
    4922:	ab 01       	movw	r20, r22
    4924:	bc 01       	movw	r22, r24
    4926:	84 8d       	ldd	r24, Z+28	; 0x1c
    4928:	95 8d       	ldd	r25, Z+29	; 0x1d
    492a:	a6 8d       	ldd	r26, Z+30	; 0x1e
    492c:	b7 8d       	ldd	r27, Z+31	; 0x1f
    492e:	80 0f       	add	r24, r16
    4930:	91 1f       	adc	r25, r17
    4932:	a1 1d       	adc	r26, r1
    4934:	b1 1d       	adc	r27, r1
    4936:	84 0f       	add	r24, r20
    4938:	95 1f       	adc	r25, r21
    493a:	a6 1f       	adc	r26, r22
    493c:	b7 1f       	adc	r27, r23
    493e:	80 93 24 08 	sts	0x0824, r24	; 0x800824 <firstDataSector>
    4942:	90 93 25 08 	sts	0x0825, r25	; 0x800825 <firstDataSector+0x1>
    4946:	a0 93 26 08 	sts	0x0826, r26	; 0x800826 <firstDataSector+0x2>
    494a:	b0 93 27 08 	sts	0x0827, r27	; 0x800827 <firstDataSector+0x3>
    494e:	20 91 4f 0c 	lds	r18, 0x0C4F	; 0x800c4f <sectorPerCluster>
    4952:	30 91 50 0c 	lds	r19, 0x0C50	; 0x800c50 <sectorPerCluster+0x1>
    4956:	80 a1       	ldd	r24, Z+32	; 0x20
    4958:	91 a1       	ldd	r25, Z+33	; 0x21
    495a:	a2 a1       	ldd	r26, Z+34	; 0x22
    495c:	b3 a1       	ldd	r27, Z+35	; 0x23
    495e:	8c 1b       	sub	r24, r28
    4960:	9d 0b       	sbc	r25, r29
    4962:	a1 09       	sbc	r26, r1
    4964:	b1 09       	sbc	r27, r1
    4966:	7c 01       	movw	r14, r24
    4968:	8d 01       	movw	r16, r26
    496a:	e4 1a       	sub	r14, r20
    496c:	f5 0a       	sbc	r15, r21
    496e:	06 0b       	sbc	r16, r22
    4970:	17 0b       	sbc	r17, r23
    4972:	c8 01       	movw	r24, r16
    4974:	b7 01       	movw	r22, r14
    4976:	40 e0       	ldi	r20, 0x00	; 0
    4978:	50 e0       	ldi	r21, 0x00	; 0
    497a:	0e 94 9d 32 	call	0x653a	; 0x653a <__udivmodsi4>
    497e:	20 93 31 08 	sts	0x0831, r18	; 0x800831 <totalClusters>
    4982:	30 93 32 08 	sts	0x0832, r19	; 0x800832 <totalClusters+0x1>
    4986:	40 93 33 08 	sts	0x0833, r20	; 0x800833 <totalClusters+0x2>
    498a:	50 93 34 08 	sts	0x0834, r21	; 0x800834 <totalClusters+0x3>
    498e:	20 e0       	ldi	r18, 0x00	; 0
    4990:	30 e0       	ldi	r19, 0x00	; 0
    4992:	a9 01       	movw	r20, r18
    4994:	60 e0       	ldi	r22, 0x00	; 0
    4996:	81 e0       	ldi	r24, 0x01	; 1
    4998:	ce de       	rcall	.-612    	; 0x4736 <getSetFreeCluster>
    499a:	00 91 31 08 	lds	r16, 0x0831	; 0x800831 <totalClusters>
    499e:	10 91 32 08 	lds	r17, 0x0832	; 0x800832 <totalClusters+0x1>
    49a2:	20 91 33 08 	lds	r18, 0x0833	; 0x800833 <totalClusters+0x2>
    49a6:	30 91 34 08 	lds	r19, 0x0834	; 0x800834 <totalClusters+0x3>
    49aa:	06 17       	cp	r16, r22
    49ac:	17 07       	cpc	r17, r23
    49ae:	28 07       	cpc	r18, r24
    49b0:	39 07       	cpc	r19, r25
    49b2:	20 f4       	brcc	.+8      	; 0x49bc <getBootSectorData+0x162>
    49b4:	10 92 bd 10 	sts	0x10BD, r1	; 0x8010bd <freeClusterCountUpdated>
    49b8:	80 e0       	ldi	r24, 0x00	; 0
    49ba:	08 c0       	rjmp	.+16     	; 0x49cc <getBootSectorData+0x172>
    49bc:	81 e0       	ldi	r24, 0x01	; 1
    49be:	80 93 bd 10 	sts	0x10BD, r24	; 0x8010bd <freeClusterCountUpdated>
    49c2:	80 e0       	ldi	r24, 0x00	; 0
    49c4:	03 c0       	rjmp	.+6      	; 0x49cc <getBootSectorData+0x172>
    49c6:	81 e0       	ldi	r24, 0x01	; 1
    49c8:	01 c0       	rjmp	.+2      	; 0x49cc <getBootSectorData+0x172>
    49ca:	81 e0       	ldi	r24, 0x01	; 1
    49cc:	df 91       	pop	r29
    49ce:	cf 91       	pop	r28
    49d0:	1f 91       	pop	r17
    49d2:	0f 91       	pop	r16
    49d4:	ff 90       	pop	r15
    49d6:	ef 90       	pop	r14
    49d8:	08 95       	ret

000049da <convertFileName>:
    49da:	cf 93       	push	r28
    49dc:	df 93       	push	r29
    49de:	cd b7       	in	r28, 0x3d	; 61
    49e0:	de b7       	in	r29, 0x3e	; 62
    49e2:	2b 97       	sbiw	r28, 0x0b	; 11
    49e4:	0f b6       	in	r0, 0x3f	; 63
    49e6:	f8 94       	cli
    49e8:	de bf       	out	0x3e, r29	; 62
    49ea:	0f be       	out	0x3f, r0	; 63
    49ec:	cd bf       	out	0x3d, r28	; 61
    49ee:	bc 01       	movw	r22, r24
    49f0:	dc 01       	movw	r26, r24
    49f2:	8c 91       	ld	r24, X
    49f4:	8e 32       	cpi	r24, 0x2E	; 46
    49f6:	61 f1       	breq	.+88     	; 0x4a50 <convertFileName+0x76>
    49f8:	fb 01       	movw	r30, r22
    49fa:	31 96       	adiw	r30, 0x01	; 1
    49fc:	91 e0       	ldi	r25, 0x01	; 1
    49fe:	81 91       	ld	r24, Z+
    4a00:	8e 32       	cpi	r24, 0x2E	; 46
    4a02:	21 f0       	breq	.+8      	; 0x4a0c <convertFileName+0x32>
    4a04:	9f 5f       	subi	r25, 0xFF	; 255
    4a06:	9c 30       	cpi	r25, 0x0C	; 12
    4a08:	d1 f7       	brne	.-12     	; 0x49fe <convertFileName+0x24>
    4a0a:	06 c0       	rjmp	.+12     	; 0x4a18 <convertFileName+0x3e>
    4a0c:	99 30       	cpi	r25, 0x09	; 9
    4a0e:	20 f4       	brcc	.+8      	; 0x4a18 <convertFileName+0x3e>
    4a10:	91 11       	cpse	r25, r1
    4a12:	08 c0       	rjmp	.+16     	; 0x4a24 <convertFileName+0x4a>
    4a14:	29 2f       	mov	r18, r25
    4a16:	1e c0       	rjmp	.+60     	; 0x4a54 <convertFileName+0x7a>
    4a18:	81 ec       	ldi	r24, 0xC1	; 193
    4a1a:	95 e0       	ldi	r25, 0x05	; 5
    4a1c:	0e 94 b6 30 	call	0x616c	; 0x616c <Uart_Transmit_IT_PC>
    4a20:	81 e0       	ldi	r24, 0x01	; 1
    4a22:	62 c0       	rjmp	.+196    	; 0x4ae8 <convertFileName+0x10e>
    4a24:	fb 01       	movw	r30, r22
    4a26:	9e 01       	movw	r18, r28
    4a28:	2f 5f       	subi	r18, 0xFF	; 255
    4a2a:	3f 4f       	sbci	r19, 0xFF	; 255
    4a2c:	4f ef       	ldi	r20, 0xFF	; 255
    4a2e:	49 0f       	add	r20, r25
    4a30:	50 e0       	ldi	r21, 0x00	; 0
    4a32:	4f 5f       	subi	r20, 0xFF	; 255
    4a34:	5f 4f       	sbci	r21, 0xFF	; 255
    4a36:	46 0f       	add	r20, r22
    4a38:	57 1f       	adc	r21, r23
    4a3a:	81 91       	ld	r24, Z+
    4a3c:	d9 01       	movw	r26, r18
    4a3e:	8d 93       	st	X+, r24
    4a40:	9d 01       	movw	r18, r26
    4a42:	4e 17       	cp	r20, r30
    4a44:	5f 07       	cpc	r21, r31
    4a46:	c9 f7       	brne	.-14     	; 0x4a3a <convertFileName+0x60>
    4a48:	98 30       	cpi	r25, 0x08	; 8
    4a4a:	78 f4       	brcc	.+30     	; 0x4a6a <convertFileName+0x90>
    4a4c:	29 2f       	mov	r18, r25
    4a4e:	02 c0       	rjmp	.+4      	; 0x4a54 <convertFileName+0x7a>
    4a50:	90 e0       	ldi	r25, 0x00	; 0
    4a52:	20 e0       	ldi	r18, 0x00	; 0
    4a54:	80 e2       	ldi	r24, 0x20	; 32
    4a56:	e1 e0       	ldi	r30, 0x01	; 1
    4a58:	f0 e0       	ldi	r31, 0x00	; 0
    4a5a:	ec 0f       	add	r30, r28
    4a5c:	fd 1f       	adc	r31, r29
    4a5e:	e2 0f       	add	r30, r18
    4a60:	f1 1d       	adc	r31, r1
    4a62:	80 83       	st	Z, r24
    4a64:	2f 5f       	subi	r18, 0xFF	; 255
    4a66:	28 30       	cpi	r18, 0x08	; 8
    4a68:	b0 f3       	brcs	.-20     	; 0x4a56 <convertFileName+0x7c>
    4a6a:	21 e0       	ldi	r18, 0x01	; 1
    4a6c:	29 0f       	add	r18, r25
    4a6e:	98 e0       	ldi	r25, 0x08	; 8
    4a70:	fb 01       	movw	r30, r22
    4a72:	e2 0f       	add	r30, r18
    4a74:	f1 1d       	adc	r31, r1
    4a76:	80 81       	ld	r24, Z
    4a78:	81 11       	cpse	r24, r1
    4a7a:	03 c0       	rjmp	.+6      	; 0x4a82 <convertFileName+0xa8>
    4a7c:	9b 30       	cpi	r25, 0x0B	; 11
    4a7e:	50 f0       	brcs	.+20     	; 0x4a94 <convertFileName+0xba>
    4a80:	15 c0       	rjmp	.+42     	; 0x4aac <convertFileName+0xd2>
    4a82:	2f 5f       	subi	r18, 0xFF	; 255
    4a84:	e1 e0       	ldi	r30, 0x01	; 1
    4a86:	f0 e0       	ldi	r31, 0x00	; 0
    4a88:	ec 0f       	add	r30, r28
    4a8a:	fd 1f       	adc	r31, r29
    4a8c:	e9 0f       	add	r30, r25
    4a8e:	f1 1d       	adc	r31, r1
    4a90:	80 83       	st	Z, r24
    4a92:	0c c0       	rjmp	.+24     	; 0x4aac <convertFileName+0xd2>
    4a94:	20 e2       	ldi	r18, 0x20	; 32
    4a96:	e1 e0       	ldi	r30, 0x01	; 1
    4a98:	f0 e0       	ldi	r31, 0x00	; 0
    4a9a:	ec 0f       	add	r30, r28
    4a9c:	fd 1f       	adc	r31, r29
    4a9e:	e9 0f       	add	r30, r25
    4aa0:	f1 1d       	adc	r31, r1
    4aa2:	20 83       	st	Z, r18
    4aa4:	9f 5f       	subi	r25, 0xFF	; 255
    4aa6:	9b 30       	cpi	r25, 0x0B	; 11
    4aa8:	b1 f7       	brne	.-20     	; 0x4a96 <convertFileName+0xbc>
    4aaa:	03 c0       	rjmp	.+6      	; 0x4ab2 <convertFileName+0xd8>
    4aac:	9f 5f       	subi	r25, 0xFF	; 255
    4aae:	9b 30       	cpi	r25, 0x0B	; 11
    4ab0:	f8 f2       	brcs	.-66     	; 0x4a70 <convertFileName+0x96>
    4ab2:	9e 01       	movw	r18, r28
    4ab4:	2f 5f       	subi	r18, 0xFF	; 255
    4ab6:	3f 4f       	sbci	r19, 0xFF	; 255
    4ab8:	ae 01       	movw	r20, r28
    4aba:	44 5f       	subi	r20, 0xF4	; 244
    4abc:	5f 4f       	sbci	r21, 0xFF	; 255
    4abe:	f9 01       	movw	r30, r18
    4ac0:	80 81       	ld	r24, Z
    4ac2:	9f e9       	ldi	r25, 0x9F	; 159
    4ac4:	98 0f       	add	r25, r24
    4ac6:	9a 31       	cpi	r25, 0x1A	; 26
    4ac8:	10 f4       	brcc	.+4      	; 0x4ace <convertFileName+0xf4>
    4aca:	80 52       	subi	r24, 0x20	; 32
    4acc:	80 83       	st	Z, r24
    4ace:	31 96       	adiw	r30, 0x01	; 1
    4ad0:	4e 17       	cp	r20, r30
    4ad2:	5f 07       	cpc	r21, r31
    4ad4:	a9 f7       	brne	.-22     	; 0x4ac0 <convertFileName+0xe6>
    4ad6:	fb 01       	movw	r30, r22
    4ad8:	d9 01       	movw	r26, r18
    4ada:	8d 91       	ld	r24, X+
    4adc:	9d 01       	movw	r18, r26
    4ade:	81 93       	st	Z+, r24
    4ae0:	a4 17       	cp	r26, r20
    4ae2:	b5 07       	cpc	r27, r21
    4ae4:	c9 f7       	brne	.-14     	; 0x4ad8 <convertFileName+0xfe>
    4ae6:	80 e0       	ldi	r24, 0x00	; 0
    4ae8:	2b 96       	adiw	r28, 0x0b	; 11
    4aea:	0f b6       	in	r0, 0x3f	; 63
    4aec:	f8 94       	cli
    4aee:	de bf       	out	0x3e, r29	; 62
    4af0:	0f be       	out	0x3f, r0	; 63
    4af2:	cd bf       	out	0x3d, r28	; 61
    4af4:	df 91       	pop	r29
    4af6:	cf 91       	pop	r28
    4af8:	08 95       	ret

00004afa <searchNextFreeCluster>:
    4afa:	4f 92       	push	r4
    4afc:	5f 92       	push	r5
    4afe:	6f 92       	push	r6
    4b00:	7f 92       	push	r7
    4b02:	8f 92       	push	r8
    4b04:	9f 92       	push	r9
    4b06:	af 92       	push	r10
    4b08:	bf 92       	push	r11
    4b0a:	cf 92       	push	r12
    4b0c:	df 92       	push	r13
    4b0e:	ef 92       	push	r14
    4b10:	ff 92       	push	r15
    4b12:	cf 93       	push	r28
    4b14:	df 93       	push	r29
    4b16:	6b 01       	movw	r12, r22
    4b18:	7c 01       	movw	r14, r24
    4b1a:	20 e8       	ldi	r18, 0x80	; 128
    4b1c:	c2 22       	and	r12, r18
    4b1e:	80 91 31 08 	lds	r24, 0x0831	; 0x800831 <totalClusters>
    4b22:	90 91 32 08 	lds	r25, 0x0832	; 0x800832 <totalClusters+0x1>
    4b26:	a0 91 33 08 	lds	r26, 0x0833	; 0x800833 <totalClusters+0x2>
    4b2a:	b0 91 34 08 	lds	r27, 0x0834	; 0x800834 <totalClusters+0x3>
    4b2e:	c8 16       	cp	r12, r24
    4b30:	d9 06       	cpc	r13, r25
    4b32:	ea 06       	cpc	r14, r26
    4b34:	fb 06       	cpc	r15, r27
    4b36:	08 f0       	brcs	.+2      	; 0x4b3a <searchNextFreeCluster+0x40>
    4b38:	70 c0       	rjmp	.+224    	; 0x4c1a <searchNextFreeCluster+0x120>
    4b3a:	46 01       	movw	r8, r12
    4b3c:	57 01       	movw	r10, r14
    4b3e:	88 0c       	add	r8, r8
    4b40:	99 1c       	adc	r9, r9
    4b42:	aa 1c       	adc	r10, r10
    4b44:	bb 1c       	adc	r11, r11
    4b46:	88 0c       	add	r8, r8
    4b48:	99 1c       	adc	r9, r9
    4b4a:	aa 1c       	adc	r10, r10
    4b4c:	bb 1c       	adc	r11, r11
    4b4e:	ce e4       	ldi	r28, 0x4E	; 78
    4b50:	da e0       	ldi	r29, 0x0A	; 10
    4b52:	40 91 77 0d 	lds	r20, 0x0D77	; 0x800d77 <reservedSectorCount>
    4b56:	50 91 78 0d 	lds	r21, 0x0D78	; 0x800d78 <reservedSectorCount+0x1>
    4b5a:	80 91 2e 08 	lds	r24, 0x082E	; 0x80082e <bytesPerSector>
    4b5e:	90 91 2f 08 	lds	r25, 0x082F	; 0x80082f <bytesPerSector+0x1>
    4b62:	40 90 54 0c 	lds	r4, 0x0C54	; 0x800c54 <unusedSectors>
    4b66:	50 90 55 0c 	lds	r5, 0x0C55	; 0x800c55 <unusedSectors+0x1>
    4b6a:	60 90 56 0c 	lds	r6, 0x0C56	; 0x800c56 <unusedSectors+0x2>
    4b6e:	70 90 57 0c 	lds	r7, 0x0C57	; 0x800c57 <unusedSectors+0x3>
    4b72:	44 0e       	add	r4, r20
    4b74:	55 1e       	adc	r5, r21
    4b76:	61 1c       	adc	r6, r1
    4b78:	71 1c       	adc	r7, r1
    4b7a:	9c 01       	movw	r18, r24
    4b7c:	40 e0       	ldi	r20, 0x00	; 0
    4b7e:	50 e0       	ldi	r21, 0x00	; 0
    4b80:	c5 01       	movw	r24, r10
    4b82:	b4 01       	movw	r22, r8
    4b84:	0e 94 9d 32 	call	0x653a	; 0x653a <__udivmodsi4>
    4b88:	c3 01       	movw	r24, r6
    4b8a:	b2 01       	movw	r22, r4
    4b8c:	62 0f       	add	r22, r18
    4b8e:	73 1f       	adc	r23, r19
    4b90:	84 1f       	adc	r24, r20
    4b92:	95 1f       	adc	r25, r21
    4b94:	0e 94 8f 2e 	call	0x5d1e	; 0x5d1e <SD_readSingleBlock>
    4b98:	88 81       	ld	r24, Y
    4b9a:	99 81       	ldd	r25, Y+1	; 0x01
    4b9c:	aa 81       	ldd	r26, Y+2	; 0x02
    4b9e:	bb 81       	ldd	r27, Y+3	; 0x03
    4ba0:	bf 70       	andi	r27, 0x0F	; 15
    4ba2:	89 2b       	or	r24, r25
    4ba4:	8a 2b       	or	r24, r26
    4ba6:	8b 2b       	or	r24, r27
    4ba8:	99 f0       	breq	.+38     	; 0x4bd0 <searchNextFreeCluster+0xd6>
    4baa:	21 e0       	ldi	r18, 0x01	; 1
    4bac:	e2 2f       	mov	r30, r18
    4bae:	f0 e0       	ldi	r31, 0x00	; 0
    4bb0:	ee 0f       	add	r30, r30
    4bb2:	ff 1f       	adc	r31, r31
    4bb4:	ee 0f       	add	r30, r30
    4bb6:	ff 1f       	adc	r31, r31
    4bb8:	e2 5b       	subi	r30, 0xB2	; 178
    4bba:	f5 4f       	sbci	r31, 0xF5	; 245
    4bbc:	80 81       	ld	r24, Z
    4bbe:	91 81       	ldd	r25, Z+1	; 0x01
    4bc0:	a2 81       	ldd	r26, Z+2	; 0x02
    4bc2:	b3 81       	ldd	r27, Z+3	; 0x03
    4bc4:	bf 70       	andi	r27, 0x0F	; 15
    4bc6:	89 2b       	or	r24, r25
    4bc8:	8a 2b       	or	r24, r26
    4bca:	8b 2b       	or	r24, r27
    4bcc:	49 f4       	brne	.+18     	; 0x4be0 <searchNextFreeCluster+0xe6>
    4bce:	01 c0       	rjmp	.+2      	; 0x4bd2 <searchNextFreeCluster+0xd8>
    4bd0:	20 e0       	ldi	r18, 0x00	; 0
    4bd2:	c7 01       	movw	r24, r14
    4bd4:	b6 01       	movw	r22, r12
    4bd6:	62 0f       	add	r22, r18
    4bd8:	71 1d       	adc	r23, r1
    4bda:	81 1d       	adc	r24, r1
    4bdc:	91 1d       	adc	r25, r1
    4bde:	20 c0       	rjmp	.+64     	; 0x4c20 <searchNextFreeCluster+0x126>
    4be0:	2f 5f       	subi	r18, 0xFF	; 255
    4be2:	22 f7       	brpl	.-56     	; 0x4bac <searchNextFreeCluster+0xb2>
    4be4:	80 e8       	ldi	r24, 0x80	; 128
    4be6:	c8 0e       	add	r12, r24
    4be8:	d1 1c       	adc	r13, r1
    4bea:	e1 1c       	adc	r14, r1
    4bec:	f1 1c       	adc	r15, r1
    4bee:	80 91 31 08 	lds	r24, 0x0831	; 0x800831 <totalClusters>
    4bf2:	90 91 32 08 	lds	r25, 0x0832	; 0x800832 <totalClusters+0x1>
    4bf6:	a0 91 33 08 	lds	r26, 0x0833	; 0x800833 <totalClusters+0x2>
    4bfa:	b0 91 34 08 	lds	r27, 0x0834	; 0x800834 <totalClusters+0x3>
    4bfe:	22 e0       	ldi	r18, 0x02	; 2
    4c00:	92 0e       	add	r9, r18
    4c02:	a1 1c       	adc	r10, r1
    4c04:	b1 1c       	adc	r11, r1
    4c06:	c8 16       	cp	r12, r24
    4c08:	d9 06       	cpc	r13, r25
    4c0a:	ea 06       	cpc	r14, r26
    4c0c:	fb 06       	cpc	r15, r27
    4c0e:	08 f4       	brcc	.+2      	; 0x4c12 <searchNextFreeCluster+0x118>
    4c10:	a0 cf       	rjmp	.-192    	; 0x4b52 <searchNextFreeCluster+0x58>
    4c12:	60 e0       	ldi	r22, 0x00	; 0
    4c14:	70 e0       	ldi	r23, 0x00	; 0
    4c16:	cb 01       	movw	r24, r22
    4c18:	03 c0       	rjmp	.+6      	; 0x4c20 <searchNextFreeCluster+0x126>
    4c1a:	60 e0       	ldi	r22, 0x00	; 0
    4c1c:	70 e0       	ldi	r23, 0x00	; 0
    4c1e:	cb 01       	movw	r24, r22
    4c20:	df 91       	pop	r29
    4c22:	cf 91       	pop	r28
    4c24:	ff 90       	pop	r15
    4c26:	ef 90       	pop	r14
    4c28:	df 90       	pop	r13
    4c2a:	cf 90       	pop	r12
    4c2c:	bf 90       	pop	r11
    4c2e:	af 90       	pop	r10
    4c30:	9f 90       	pop	r9
    4c32:	8f 90       	pop	r8
    4c34:	7f 90       	pop	r7
    4c36:	6f 90       	pop	r6
    4c38:	5f 90       	pop	r5
    4c3a:	4f 90       	pop	r4
    4c3c:	08 95       	ret

00004c3e <displayMemory>:
    4c3e:	8f 92       	push	r8
    4c40:	9f 92       	push	r9
    4c42:	af 92       	push	r10
    4c44:	bf 92       	push	r11
    4c46:	df 92       	push	r13
    4c48:	ef 92       	push	r14
    4c4a:	ff 92       	push	r15
    4c4c:	0f 93       	push	r16
    4c4e:	1f 93       	push	r17
    4c50:	cf 93       	push	r28
    4c52:	df 93       	push	r29
    4c54:	cd b7       	in	r28, 0x3d	; 61
    4c56:	de b7       	in	r29, 0x3e	; 62
    4c58:	64 97       	sbiw	r28, 0x14	; 20
    4c5a:	0f b6       	in	r0, 0x3f	; 63
    4c5c:	f8 94       	cli
    4c5e:	de bf       	out	0x3e, r29	; 62
    4c60:	0f be       	out	0x3f, r0	; 63
    4c62:	cd bf       	out	0x3d, r28	; 61
    4c64:	d8 2e       	mov	r13, r24
    4c66:	cb 01       	movw	r24, r22
    4c68:	ba 01       	movw	r22, r20
    4c6a:	24 e1       	ldi	r18, 0x14	; 20
    4c6c:	e4 ed       	ldi	r30, 0xD4	; 212
    4c6e:	f5 e0       	ldi	r31, 0x05	; 5
    4c70:	de 01       	movw	r26, r28
    4c72:	11 96       	adiw	r26, 0x01	; 1
    4c74:	01 90       	ld	r0, Z+
    4c76:	0d 92       	st	X+, r0
    4c78:	2a 95       	dec	r18
    4c7a:	e1 f7       	brne	.-8      	; 0x4c74 <displayMemory+0x36>
    4c7c:	1c e0       	ldi	r17, 0x0C	; 12
    4c7e:	0c e2       	ldi	r16, 0x2C	; 44
    4c80:	0f 2e       	mov	r0, r31
    4c82:	fa e0       	ldi	r31, 0x0A	; 10
    4c84:	8f 2e       	mov	r8, r31
    4c86:	91 2c       	mov	r9, r1
    4c88:	a1 2c       	mov	r10, r1
    4c8a:	b1 2c       	mov	r11, r1
    4c8c:	f0 2d       	mov	r31, r0
    4c8e:	15 30       	cpi	r17, 0x05	; 5
    4c90:	11 f0       	breq	.+4      	; 0x4c96 <displayMemory+0x58>
    4c92:	19 30       	cpi	r17, 0x09	; 9
    4c94:	29 f4       	brne	.+10     	; 0x4ca0 <displayMemory+0x62>
    4c96:	fe 01       	movw	r30, r28
    4c98:	e1 0f       	add	r30, r17
    4c9a:	f1 1d       	adc	r31, r1
    4c9c:	00 83       	st	Z, r16
    4c9e:	11 50       	subi	r17, 0x01	; 1
    4ca0:	7e 01       	movw	r14, r28
    4ca2:	e1 0e       	add	r14, r17
    4ca4:	f1 1c       	adc	r15, r1
    4ca6:	a5 01       	movw	r20, r10
    4ca8:	94 01       	movw	r18, r8
    4caa:	0e 94 9d 32 	call	0x653a	; 0x653a <__udivmodsi4>
    4cae:	60 63       	ori	r22, 0x30	; 48
    4cb0:	f7 01       	movw	r30, r14
    4cb2:	60 83       	st	Z, r22
    4cb4:	62 2f       	mov	r22, r18
    4cb6:	73 2f       	mov	r23, r19
    4cb8:	84 2f       	mov	r24, r20
    4cba:	95 2f       	mov	r25, r21
    4cbc:	61 15       	cp	r22, r1
    4cbe:	71 05       	cpc	r23, r1
    4cc0:	81 05       	cpc	r24, r1
    4cc2:	91 05       	cpc	r25, r1
    4cc4:	11 f0       	breq	.+4      	; 0x4cca <displayMemory+0x8c>
    4cc6:	11 50       	subi	r17, 0x01	; 1
    4cc8:	11 f7       	brne	.-60     	; 0x4c8e <displayMemory+0x50>
    4cca:	f1 e0       	ldi	r31, 0x01	; 1
    4ccc:	df 12       	cpse	r13, r31
    4cce:	02 c0       	rjmp	.+4      	; 0x4cd4 <displayMemory+0x96>
    4cd0:	8b e4       	ldi	r24, 0x4B	; 75
    4cd2:	8e 87       	std	Y+14, r24	; 0x0e
    4cd4:	ce 01       	movw	r24, r28
    4cd6:	01 96       	adiw	r24, 0x01	; 1
    4cd8:	0e 94 54 32 	call	0x64a8	; 0x64a8 <transmitString>
    4cdc:	64 96       	adiw	r28, 0x14	; 20
    4cde:	0f b6       	in	r0, 0x3f	; 63
    4ce0:	f8 94       	cli
    4ce2:	de bf       	out	0x3e, r29	; 62
    4ce4:	0f be       	out	0x3f, r0	; 63
    4ce6:	cd bf       	out	0x3d, r28	; 61
    4ce8:	df 91       	pop	r29
    4cea:	cf 91       	pop	r28
    4cec:	1f 91       	pop	r17
    4cee:	0f 91       	pop	r16
    4cf0:	ff 90       	pop	r15
    4cf2:	ef 90       	pop	r14
    4cf4:	df 90       	pop	r13
    4cf6:	bf 90       	pop	r11
    4cf8:	af 90       	pop	r10
    4cfa:	9f 90       	pop	r9
    4cfc:	8f 90       	pop	r8
    4cfe:	08 95       	ret

00004d00 <freeMemoryUpdate>:
//			to ADD or REMOVE clusters occupied by the file
//Arguments: #1.flag ADD or REMOVE #2.file size in Bytes
//return: none
//********************************************************************
void freeMemoryUpdate (unsigned char flag, unsigned long size)
{
    4d00:	cf 92       	push	r12
    4d02:	df 92       	push	r13
    4d04:	ef 92       	push	r14
    4d06:	ff 92       	push	r15
    4d08:	cf 93       	push	r28
  unsigned long freeClusters;
  //convert file size into number of clusters occupied
  if((size % 512) == 0) size = size / 512;
    4d0a:	6a 01       	movw	r12, r20
    4d0c:	7b 01       	movw	r14, r22
    4d0e:	91 e0       	ldi	r25, 0x01	; 1
    4d10:	d9 22       	and	r13, r25
    4d12:	ee 24       	eor	r14, r14
    4d14:	ff 24       	eor	r15, r15
    4d16:	cd 28       	or	r12, r13
    4d18:	ce 28       	or	r12, r14
    4d1a:	cf 28       	or	r12, r15
    4d1c:	51 f4       	brne	.+20     	; 0x4d32 <freeMemoryUpdate+0x32>
    4d1e:	03 2e       	mov	r0, r19
    4d20:	39 e0       	ldi	r19, 0x09	; 9
    4d22:	76 95       	lsr	r23
    4d24:	67 95       	ror	r22
    4d26:	57 95       	ror	r21
    4d28:	47 95       	ror	r20
    4d2a:	3a 95       	dec	r19
    4d2c:	d1 f7       	brne	.-12     	; 0x4d22 <freeMemoryUpdate+0x22>
    4d2e:	30 2d       	mov	r19, r0
    4d30:	0d c0       	rjmp	.+26     	; 0x4d4c <freeMemoryUpdate+0x4c>
  else size = (size / 512) +1;
    4d32:	03 2e       	mov	r0, r19
    4d34:	39 e0       	ldi	r19, 0x09	; 9
    4d36:	76 95       	lsr	r23
    4d38:	67 95       	ror	r22
    4d3a:	57 95       	ror	r21
    4d3c:	47 95       	ror	r20
    4d3e:	3a 95       	dec	r19
    4d40:	d1 f7       	brne	.-12     	; 0x4d36 <freeMemoryUpdate+0x36>
    4d42:	30 2d       	mov	r19, r0
    4d44:	4f 5f       	subi	r20, 0xFF	; 255
    4d46:	5f 4f       	sbci	r21, 0xFF	; 255
    4d48:	6f 4f       	sbci	r22, 0xFF	; 255
    4d4a:	7f 4f       	sbci	r23, 0xFF	; 255
  if((size % 8) == 0) size = size / 8;
    4d4c:	6a 01       	movw	r12, r20
    4d4e:	7b 01       	movw	r14, r22
    4d50:	97 e0       	ldi	r25, 0x07	; 7
    4d52:	c9 22       	and	r12, r25
    4d54:	dd 24       	eor	r13, r13
    4d56:	ee 24       	eor	r14, r14
    4d58:	ff 24       	eor	r15, r15
    4d5a:	cd 28       	or	r12, r13
    4d5c:	ce 28       	or	r12, r14
    4d5e:	cf 28       	or	r12, r15
    4d60:	59 f4       	brne	.+22     	; 0x4d78 <freeMemoryUpdate+0x78>
    4d62:	6a 01       	movw	r12, r20
    4d64:	7b 01       	movw	r14, r22
    4d66:	68 94       	set
    4d68:	12 f8       	bld	r1, 2
    4d6a:	f6 94       	lsr	r15
    4d6c:	e7 94       	ror	r14
    4d6e:	d7 94       	ror	r13
    4d70:	c7 94       	ror	r12
    4d72:	16 94       	lsr	r1
    4d74:	d1 f7       	brne	.-12     	; 0x4d6a <freeMemoryUpdate+0x6a>
    4d76:	0f c0       	rjmp	.+30     	; 0x4d96 <freeMemoryUpdate+0x96>
  else size = (size / 8) +1;
    4d78:	68 94       	set
    4d7a:	12 f8       	bld	r1, 2
    4d7c:	76 95       	lsr	r23
    4d7e:	67 95       	ror	r22
    4d80:	57 95       	ror	r21
    4d82:	47 95       	ror	r20
    4d84:	16 94       	lsr	r1
    4d86:	d1 f7       	brne	.-12     	; 0x4d7c <freeMemoryUpdate+0x7c>
    4d88:	6a 01       	movw	r12, r20
    4d8a:	7b 01       	movw	r14, r22
    4d8c:	9f ef       	ldi	r25, 0xFF	; 255
    4d8e:	c9 1a       	sub	r12, r25
    4d90:	d9 0a       	sbc	r13, r25
    4d92:	e9 0a       	sbc	r14, r25
    4d94:	f9 0a       	sbc	r15, r25

  if(freeClusterCountUpdated)
    4d96:	90 91 bd 10 	lds	r25, 0x10BD	; 0x8010bd <freeClusterCountUpdated>
    4d9a:	99 23       	and	r25, r25
    4d9c:	c9 f0       	breq	.+50     	; 0x4dd0 <freeMemoryUpdate+0xd0>
    4d9e:	c8 2f       	mov	r28, r24
  {
	freeClusters = getSetFreeCluster (TOTAL_FREE, GET, 0);
    4da0:	20 e0       	ldi	r18, 0x00	; 0
    4da2:	30 e0       	ldi	r19, 0x00	; 0
    4da4:	a9 01       	movw	r20, r18
    4da6:	60 e0       	ldi	r22, 0x00	; 0
    4da8:	81 e0       	ldi	r24, 0x01	; 1
    4daa:	c5 dc       	rcall	.-1654   	; 0x4736 <getSetFreeCluster>
	if(flag == ADD)
    4dac:	c1 11       	cpse	r28, r1
    4dae:	07 c0       	rjmp	.+14     	; 0x4dbe <freeMemoryUpdate+0xbe>
  	   freeClusters = freeClusters + size;
    4db0:	a7 01       	movw	r20, r14
    4db2:	96 01       	movw	r18, r12
    4db4:	26 0f       	add	r18, r22
    4db6:	37 1f       	adc	r19, r23
    4db8:	48 1f       	adc	r20, r24
    4dba:	59 1f       	adc	r21, r25
    4dbc:	06 c0       	rjmp	.+12     	; 0x4dca <freeMemoryUpdate+0xca>
	else  //when flag = REMOVE
	   freeClusters = freeClusters - size;
    4dbe:	9b 01       	movw	r18, r22
    4dc0:	ac 01       	movw	r20, r24
    4dc2:	2c 19       	sub	r18, r12
    4dc4:	3d 09       	sbc	r19, r13
    4dc6:	4e 09       	sbc	r20, r14
    4dc8:	5f 09       	sbc	r21, r15
	getSetFreeCluster (TOTAL_FREE, SET, freeClusters);
    4dca:	61 e0       	ldi	r22, 0x01	; 1
    4dcc:	81 e0       	ldi	r24, 0x01	; 1
    4dce:	b3 dc       	rcall	.-1690   	; 0x4736 <getSetFreeCluster>
  }
}
    4dd0:	cf 91       	pop	r28
    4dd2:	ff 90       	pop	r15
    4dd4:	ef 90       	pop	r14
    4dd6:	df 90       	pop	r13
    4dd8:	cf 90       	pop	r12
    4dda:	08 95       	ret

00004ddc <findFiles>:
//return: first cluster of the file, if flag = GET_FILE
//        print file/dir list of the root directory, if flag = GET_LIST
//		  Delete the file mentioned in arg#2, if flag = DELETE
//****************************************************************************
struct dir_Structure* findFiles (unsigned char flag, unsigned char *fileName)
{
    4ddc:	2f 92       	push	r2
    4dde:	3f 92       	push	r3
    4de0:	4f 92       	push	r4
    4de2:	5f 92       	push	r5
    4de4:	6f 92       	push	r6
    4de6:	7f 92       	push	r7
    4de8:	8f 92       	push	r8
    4dea:	9f 92       	push	r9
    4dec:	af 92       	push	r10
    4dee:	bf 92       	push	r11
    4df0:	cf 92       	push	r12
    4df2:	df 92       	push	r13
    4df4:	ef 92       	push	r14
    4df6:	ff 92       	push	r15
    4df8:	0f 93       	push	r16
    4dfa:	1f 93       	push	r17
    4dfc:	cf 93       	push	r28
    4dfe:	df 93       	push	r29
    4e00:	cd b7       	in	r28, 0x3d	; 61
    4e02:	de b7       	in	r29, 0x3e	; 62
    4e04:	2c 97       	sbiw	r28, 0x0c	; 12
    4e06:	0f b6       	in	r0, 0x3f	; 63
    4e08:	f8 94       	cli
    4e0a:	de bf       	out	0x3e, r29	; 62
    4e0c:	0f be       	out	0x3f, r0	; 63
    4e0e:	cd bf       	out	0x3d, r28	; 61
    4e10:	8e 83       	std	Y+6, r24	; 0x06
    4e12:	1b 01       	movw	r2, r22
unsigned long cluster, sector, firstSector, firstCluster, nextCluster;
struct dir_Structure *dir;
unsigned int i;
unsigned char j;

cluster = rootCluster; //root cluster
    4e14:	80 91 3b 08 	lds	r24, 0x083B	; 0x80083b <rootCluster>
    4e18:	90 91 3c 08 	lds	r25, 0x083C	; 0x80083c <rootCluster+0x1>
    4e1c:	a0 91 3d 08 	lds	r26, 0x083D	; 0x80083d <rootCluster+0x2>
    4e20:	b0 91 3e 08 	lds	r27, 0x083E	; 0x80083e <rootCluster+0x3>
    4e24:	8f 83       	std	Y+7, r24	; 0x07
    4e26:	98 87       	std	Y+8, r25	; 0x08
    4e28:	a9 87       	std	Y+9, r26	; 0x09
    4e2a:	ba 87       	std	Y+10, r27	; 0x0a
		      Uart_Transmit_IT_PC((char*)("N/F\r"));
		  return 0;   
		}
		if((dir->name[0] != DELETED) && (dir->attrib != ATTR_LONG_NAME))
        {
          if((flag == GET_FILE) || (flag == DELETE))
    4e2c:	9e 81       	ldd	r25, Y+6	; 0x06
    4e2e:	91 50       	subi	r25, 0x01	; 1
    4e30:	99 83       	std	Y+1, r25	; 0x01
			     Uart_Transmit_IT_PC ((char*)("FILE" ));
		         Uart_Transmit_IT_PC ((char*)("   "));
			     displayMemory (LOW, dir->fileSize);
			 }
			 else
			   Uart_Transmit_IT_PC ((char*)((dir->attrib == 0x10)? ("DIR") : ("ROOT")));
    4e32:	0f 2e       	mov	r0, r31
    4e34:	fe e0       	ldi	r31, 0x0E	; 14
    4e36:	cf 2e       	mov	r12, r31
    4e38:	f6 e0       	ldi	r31, 0x06	; 6
    4e3a:	df 2e       	mov	r13, r31
    4e3c:	f0 2d       	mov	r31, r0

cluster = rootCluster; //root cluster

while(1)
{
   firstSector = getFirstSector (cluster);
    4e3e:	6f 81       	ldd	r22, Y+7	; 0x07
    4e40:	78 85       	ldd	r23, Y+8	; 0x08
    4e42:	89 85       	ldd	r24, Y+9	; 0x09
    4e44:	9a 85       	ldd	r25, Y+10	; 0x0a
    4e46:	dd db       	rcall	.-2118   	; 0x4602 <getFirstSector>
    4e48:	4b 01       	movw	r8, r22
    4e4a:	5c 01       	movw	r10, r24

   for(sector = 0; sector < sectorPerCluster; sector++)
    4e4c:	80 91 4f 0c 	lds	r24, 0x0C4F	; 0x800c4f <sectorPerCluster>
    4e50:	90 91 50 0c 	lds	r25, 0x0C50	; 0x800c50 <sectorPerCluster+0x1>
    4e54:	89 2b       	or	r24, r25
    4e56:	09 f4       	brne	.+2      	; 0x4e5a <findFiles+0x7e>
    4e58:	71 c1       	rjmp	.+738    	; 0x513c <findFiles+0x360>
    4e5a:	41 2c       	mov	r4, r1
    4e5c:	51 2c       	mov	r5, r1
    4e5e:	32 01       	movw	r6, r4
   {
     SD_readSingleBlock (firstSector + sector);
    4e60:	d5 01       	movw	r26, r10
    4e62:	c4 01       	movw	r24, r8
    4e64:	84 0d       	add	r24, r4
    4e66:	95 1d       	adc	r25, r5
    4e68:	a6 1d       	adc	r26, r6
    4e6a:	b7 1d       	adc	r27, r7
    4e6c:	8a 83       	std	Y+2, r24	; 0x02
    4e6e:	9b 83       	std	Y+3, r25	; 0x03
    4e70:	ac 83       	std	Y+4, r26	; 0x04
    4e72:	bd 83       	std	Y+5, r27	; 0x05
    4e74:	bc 01       	movw	r22, r24
    4e76:	cd 01       	movw	r24, r26
    4e78:	52 d7       	rcall	.+3748   	; 0x5d1e <SD_readSingleBlock>
	

     for(i=0; i<bytesPerSector; i+=32)
    4e7a:	80 91 2e 08 	lds	r24, 0x082E	; 0x80082e <bytesPerSector>
    4e7e:	90 91 2f 08 	lds	r25, 0x082F	; 0x80082f <bytesPerSector+0x1>
    4e82:	89 2b       	or	r24, r25
    4e84:	09 f4       	brne	.+2      	; 0x4e88 <findFiles+0xac>
    4e86:	49 c1       	rjmp	.+658    	; 0x511a <findFiles+0x33e>
     {
	    dir = (struct dir_Structure *) &buffer[i];

        if(dir->name[0] == EMPTY) //indicates end of the file list of the directory
    4e88:	ae e4       	ldi	r26, 0x4E	; 78
    4e8a:	ba e0       	ldi	r27, 0x0A	; 10
    4e8c:	8c 91       	ld	r24, X
    4e8e:	88 23       	and	r24, r24
    4e90:	51 f0       	breq	.+20     	; 0x4ea6 <findFiles+0xca>
    4e92:	8d 01       	movw	r16, r26
    4e94:	e1 2c       	mov	r14, r1
    4e96:	f1 2c       	mov	r15, r1
    4e98:	12 c0       	rjmp	.+36     	; 0x4ebe <findFiles+0xe2>
    4e9a:	00 5e       	subi	r16, 0xE0	; 224
    4e9c:	1f 4f       	sbci	r17, 0xFF	; 255
    4e9e:	f8 01       	movw	r30, r16
    4ea0:	80 81       	ld	r24, Z
    4ea2:	81 11       	cpse	r24, r1
    4ea4:	0c c0       	rjmp	.+24     	; 0x4ebe <findFiles+0xe2>
		{
		  if((flag == GET_FILE) || (flag == DELETE))
    4ea6:	8e 81       	ldd	r24, Y+6	; 0x06
    4ea8:	81 50       	subi	r24, 0x01	; 1
    4eaa:	82 30       	cpi	r24, 0x02	; 2
    4eac:	08 f0       	brcs	.+2      	; 0x4eb0 <findFiles+0xd4>
    4eae:	65 c1       	rjmp	.+714    	; 0x517a <findFiles+0x39e>
// 		      Uart_Transmit_IT_PC((char*)("File does not exist!"));
		      Uart_Transmit_IT_PC((char*)("N/F\r"));
    4eb0:	83 e1       	ldi	r24, 0x13	; 19
    4eb2:	96 e0       	ldi	r25, 0x06	; 6
    4eb4:	0e 94 b6 30 	call	0x616c	; 0x616c <Uart_Transmit_IT_PC>
		  return 0;   
    4eb8:	80 e0       	ldi	r24, 0x00	; 0
    4eba:	90 e0       	ldi	r25, 0x00	; 0
    4ebc:	63 c1       	rjmp	.+710    	; 0x5184 <findFiles+0x3a8>
		}
		if((dir->name[0] != DELETED) && (dir->attrib != ATTR_LONG_NAME))
    4ebe:	85 3e       	cpi	r24, 0xE5	; 229
    4ec0:	09 f4       	brne	.+2      	; 0x4ec4 <findFiles+0xe8>
    4ec2:	20 c1       	rjmp	.+576    	; 0x5104 <findFiles+0x328>
    4ec4:	d8 01       	movw	r26, r16
    4ec6:	1b 96       	adiw	r26, 0x0b	; 11
    4ec8:	8c 91       	ld	r24, X
    4eca:	8f 30       	cpi	r24, 0x0F	; 15
    4ecc:	09 f4       	brne	.+2      	; 0x4ed0 <findFiles+0xf4>
    4ece:	1a c1       	rjmp	.+564    	; 0x5104 <findFiles+0x328>
        {
          if((flag == GET_FILE) || (flag == DELETE))
    4ed0:	b9 81       	ldd	r27, Y+1	; 0x01
    4ed2:	b2 30       	cpi	r27, 0x02	; 2
    4ed4:	08 f0       	brcs	.+2      	; 0x4ed8 <findFiles+0xfc>
    4ed6:	c9 c0       	rjmp	.+402    	; 0x506a <findFiles+0x28e>
          {
            for(j=0; j<11; j++)
            if(dir->name[j] != fileName[j]) break;
    4ed8:	f8 01       	movw	r30, r16
    4eda:	90 81       	ld	r25, Z
    4edc:	d1 01       	movw	r26, r2
    4ede:	8c 91       	ld	r24, X
    4ee0:	98 13       	cpse	r25, r24
    4ee2:	10 c1       	rjmp	.+544    	; 0x5104 <findFiles+0x328>
    4ee4:	d8 01       	movw	r26, r16
    4ee6:	11 96       	adiw	r26, 0x01	; 1
    4ee8:	f1 01       	movw	r30, r2
    4eea:	31 96       	adiw	r30, 0x01	; 1
		}
		if((dir->name[0] != DELETED) && (dir->attrib != ATTR_LONG_NAME))
        {
          if((flag == GET_FILE) || (flag == DELETE))
          {
            for(j=0; j<11; j++)
    4eec:	81 e0       	ldi	r24, 0x01	; 1
            if(dir->name[j] != fileName[j]) break;
    4eee:	2d 91       	ld	r18, X+
    4ef0:	91 91       	ld	r25, Z+
    4ef2:	29 13       	cpse	r18, r25
    4ef4:	04 c0       	rjmp	.+8      	; 0x4efe <findFiles+0x122>
		}
		if((dir->name[0] != DELETED) && (dir->attrib != ATTR_LONG_NAME))
        {
          if((flag == GET_FILE) || (flag == DELETE))
          {
            for(j=0; j<11; j++)
    4ef6:	8f 5f       	subi	r24, 0xFF	; 255
    4ef8:	8b 30       	cpi	r24, 0x0B	; 11
    4efa:	c9 f7       	brne	.-14     	; 0x4eee <findFiles+0x112>
    4efc:	03 c0       	rjmp	.+6      	; 0x4f04 <findFiles+0x128>
            if(dir->name[j] != fileName[j]) break;
            if(j == 11)
    4efe:	8b 30       	cpi	r24, 0x0B	; 11
    4f00:	09 f0       	breq	.+2      	; 0x4f04 <findFiles+0x128>
    4f02:	00 c1       	rjmp	.+512    	; 0x5104 <findFiles+0x328>
			{
			  if(flag == GET_FILE)
    4f04:	be 81       	ldd	r27, Y+6	; 0x06
    4f06:	b1 30       	cpi	r27, 0x01	; 1
    4f08:	09 f0       	breq	.+2      	; 0x4f0c <findFiles+0x130>
    4f0a:	41 c0       	rjmp	.+130    	; 0x4f8e <findFiles+0x1b2>
              {
			    appendFileSector = firstSector + sector;
    4f0c:	8a 81       	ldd	r24, Y+2	; 0x02
    4f0e:	9b 81       	ldd	r25, Y+3	; 0x03
    4f10:	ac 81       	ldd	r26, Y+4	; 0x04
    4f12:	bd 81       	ldd	r27, Y+5	; 0x05
    4f14:	80 93 c0 10 	sts	0x10C0, r24	; 0x8010c0 <appendFileSector>
    4f18:	90 93 c1 10 	sts	0x10C1, r25	; 0x8010c1 <appendFileSector+0x1>
    4f1c:	a0 93 c2 10 	sts	0x10C2, r26	; 0x8010c2 <appendFileSector+0x2>
    4f20:	b0 93 c3 10 	sts	0x10C3, r27	; 0x8010c3 <appendFileSector+0x3>
				appendFileLocation = i;
    4f24:	c7 01       	movw	r24, r14
    4f26:	a0 e0       	ldi	r26, 0x00	; 0
    4f28:	b0 e0       	ldi	r27, 0x00	; 0
    4f2a:	80 93 0f 08 	sts	0x080F, r24	; 0x80080f <appendFileLocation>
    4f2e:	90 93 10 08 	sts	0x0810, r25	; 0x800810 <appendFileLocation+0x1>
    4f32:	a0 93 11 08 	sts	0x0811, r26	; 0x800811 <appendFileLocation+0x2>
    4f36:	b0 93 12 08 	sts	0x0812, r27	; 0x800812 <appendFileLocation+0x3>
				appendStartCluster = (((unsigned long) dir->firstClusterHI) << 16) | dir->firstClusterLO;
    4f3a:	d8 01       	movw	r26, r16
    4f3c:	54 96       	adiw	r26, 0x14	; 20
    4f3e:	8d 91       	ld	r24, X+
    4f40:	9c 91       	ld	r25, X
    4f42:	55 97       	sbiw	r26, 0x15	; 21
    4f44:	a0 e0       	ldi	r26, 0x00	; 0
    4f46:	b0 e0       	ldi	r27, 0x00	; 0
    4f48:	dc 01       	movw	r26, r24
    4f4a:	99 27       	eor	r25, r25
    4f4c:	88 27       	eor	r24, r24
    4f4e:	f8 01       	movw	r30, r16
    4f50:	42 8d       	ldd	r20, Z+26	; 0x1a
    4f52:	53 8d       	ldd	r21, Z+27	; 0x1b
    4f54:	60 e0       	ldi	r22, 0x00	; 0
    4f56:	70 e0       	ldi	r23, 0x00	; 0
    4f58:	84 2b       	or	r24, r20
    4f5a:	95 2b       	or	r25, r21
    4f5c:	a6 2b       	or	r26, r22
    4f5e:	b7 2b       	or	r27, r23
    4f60:	80 93 81 0f 	sts	0x0F81, r24	; 0x800f81 <appendStartCluster>
    4f64:	90 93 82 0f 	sts	0x0F82, r25	; 0x800f82 <appendStartCluster+0x1>
    4f68:	a0 93 83 0f 	sts	0x0F83, r26	; 0x800f83 <appendStartCluster+0x2>
    4f6c:	b0 93 84 0f 	sts	0x0F84, r27	; 0x800f84 <appendStartCluster+0x3>
				fileSize = dir->fileSize;
    4f70:	84 8d       	ldd	r24, Z+28	; 0x1c
    4f72:	95 8d       	ldd	r25, Z+29	; 0x1d
    4f74:	a6 8d       	ldd	r26, Z+30	; 0x1e
    4f76:	b7 8d       	ldd	r27, Z+31	; 0x1f
    4f78:	80 93 2a 08 	sts	0x082A, r24	; 0x80082a <fileSize>
    4f7c:	90 93 2b 08 	sts	0x082B, r25	; 0x80082b <fileSize+0x1>
    4f80:	a0 93 2c 08 	sts	0x082C, r26	; 0x80082c <fileSize+0x2>
    4f84:	b0 93 2d 08 	sts	0x082D, r27	; 0x80082d <fileSize+0x3>
			    return (dir);
    4f88:	80 2f       	mov	r24, r16
    4f8a:	91 2f       	mov	r25, r17
    4f8c:	fb c0       	rjmp	.+502    	; 0x5184 <findFiles+0x3a8>
			  }	
			  else    //when flag = DELETE
			  {
			     TX_NEWLINE;
    4f8e:	8d e0       	ldi	r24, 0x0D	; 13
    4f90:	0e 94 4c 32 	call	0x6498	; 0x6498 <transmitByte>
    4f94:	8a e0       	ldi	r24, 0x0A	; 10
    4f96:	0e 94 4c 32 	call	0x6498	; 0x6498 <transmitByte>
				 Uart_Transmit_IT_PC((char*)("Deleting.."));
    4f9a:	88 e1       	ldi	r24, 0x18	; 24
    4f9c:	96 e0       	ldi	r25, 0x06	; 6
    4f9e:	0e 94 b6 30 	call	0x616c	; 0x616c <Uart_Transmit_IT_PC>
				 TX_NEWLINE;
    4fa2:	8d e0       	ldi	r24, 0x0D	; 13
    4fa4:	0e 94 4c 32 	call	0x6498	; 0x6498 <transmitByte>
    4fa8:	8a e0       	ldi	r24, 0x0A	; 10
    4faa:	0e 94 4c 32 	call	0x6498	; 0x6498 <transmitByte>
				 TX_NEWLINE;
    4fae:	8d e0       	ldi	r24, 0x0D	; 13
    4fb0:	0e 94 4c 32 	call	0x6498	; 0x6498 <transmitByte>
    4fb4:	8a e0       	ldi	r24, 0x0A	; 10
    4fb6:	0e 94 4c 32 	call	0x6498	; 0x6498 <transmitByte>
				 firstCluster = (((unsigned long) dir->firstClusterHI) << 16) | dir->firstClusterLO;
    4fba:	d8 01       	movw	r26, r16
    4fbc:	54 96       	adiw	r26, 0x14	; 20
    4fbe:	cd 90       	ld	r12, X+
    4fc0:	dc 90       	ld	r13, X
    4fc2:	55 97       	sbiw	r26, 0x15	; 21
    4fc4:	e1 2c       	mov	r14, r1
    4fc6:	f1 2c       	mov	r15, r1
    4fc8:	d6 01       	movw	r26, r12
    4fca:	99 27       	eor	r25, r25
    4fcc:	88 27       	eor	r24, r24
    4fce:	f8 01       	movw	r30, r16
    4fd0:	c2 8c       	ldd	r12, Z+26	; 0x1a
    4fd2:	d3 8c       	ldd	r13, Z+27	; 0x1b
    4fd4:	e1 2c       	mov	r14, r1
    4fd6:	f1 2c       	mov	r15, r1
    4fd8:	c8 2a       	or	r12, r24
    4fda:	d9 2a       	or	r13, r25
    4fdc:	ea 2a       	or	r14, r26
    4fde:	fb 2a       	or	r15, r27
                
				 //mark file as 'deleted' in FAT table
				 dir->name[0] = DELETED;    
    4fe0:	85 ee       	ldi	r24, 0xE5	; 229
    4fe2:	80 83       	st	Z, r24
				 SD_writeSingleBlock (firstSector+sector);
    4fe4:	6a 81       	ldd	r22, Y+2	; 0x02
    4fe6:	7b 81       	ldd	r23, Y+3	; 0x03
    4fe8:	8c 81       	ldd	r24, Y+4	; 0x04
    4fea:	9d 81       	ldd	r25, Y+5	; 0x05
    4fec:	c0 d6       	rcall	.+3456   	; 0x5d6e <SD_writeSingleBlock>
				 			 
				 freeMemoryUpdate (ADD, dir->fileSize);
    4fee:	d8 01       	movw	r26, r16
    4ff0:	5c 96       	adiw	r26, 0x1c	; 28
    4ff2:	4d 91       	ld	r20, X+
    4ff4:	5d 91       	ld	r21, X+
    4ff6:	6d 91       	ld	r22, X+
    4ff8:	7c 91       	ld	r23, X
    4ffa:	5f 97       	sbiw	r26, 0x1f	; 31
    4ffc:	80 e0       	ldi	r24, 0x00	; 0
    4ffe:	80 de       	rcall	.-768    	; 0x4d00 <freeMemoryUpdate>

				 //update next free cluster entry in FSinfo sector
				 cluster = getSetFreeCluster (NEXT_FREE, GET, 0); 
    5000:	20 e0       	ldi	r18, 0x00	; 0
    5002:	30 e0       	ldi	r19, 0x00	; 0
    5004:	a9 01       	movw	r20, r18
    5006:	60 e0       	ldi	r22, 0x00	; 0
    5008:	82 e0       	ldi	r24, 0x02	; 2
    500a:	95 db       	rcall	.-2262   	; 0x4736 <getSetFreeCluster>
				 if(firstCluster < cluster)
    500c:	c6 16       	cp	r12, r22
    500e:	d7 06       	cpc	r13, r23
    5010:	e8 06       	cpc	r14, r24
    5012:	f9 06       	cpc	r15, r25
				     getSetFreeCluster (NEXT_FREE, SET, firstCluster);
    5014:	28 f4       	brcc	.+10     	; 0x5020 <findFiles+0x244>
    5016:	a7 01       	movw	r20, r14
    5018:	96 01       	movw	r18, r12
    501a:	61 e0       	ldi	r22, 0x01	; 1
    501c:	82 e0       	ldi	r24, 0x02	; 2
    501e:	8b db       	rcall	.-2282   	; 0x4736 <getSetFreeCluster>

				 //mark all the clusters allocated to the file as 'free'
			     while(1)  
			     {
			        nextCluster = getSetNextCluster (firstCluster, GET, 0);
    5020:	00 e0       	ldi	r16, 0x00	; 0
    5022:	10 e0       	ldi	r17, 0x00	; 0
    5024:	98 01       	movw	r18, r16
    5026:	40 e0       	ldi	r20, 0x00	; 0
    5028:	c7 01       	movw	r24, r14
    502a:	b6 01       	movw	r22, r12
    502c:	0b db       	rcall	.-2538   	; 0x4644 <getSetNextCluster>
    502e:	a6 2e       	mov	r10, r22
    5030:	b7 2e       	mov	r11, r23
    5032:	8a 83       	std	Y+2, r24	; 0x02
    5034:	99 83       	std	Y+1, r25	; 0x01
					getSetNextCluster (firstCluster, SET, 0);
    5036:	00 e0       	ldi	r16, 0x00	; 0
    5038:	10 e0       	ldi	r17, 0x00	; 0
    503a:	98 01       	movw	r18, r16
    503c:	41 e0       	ldi	r20, 0x01	; 1
    503e:	c7 01       	movw	r24, r14
    5040:	b6 01       	movw	r22, r12
    5042:	00 db       	rcall	.-2560   	; 0x4644 <getSetNextCluster>
    5044:	ca 2c       	mov	r12, r10
					if(nextCluster > 0x0ffffff6) 
					   {Uart_Transmit_IT_PC((char*)("File deleted!"));return 0;}
					firstCluster = nextCluster;
    5046:	db 2c       	mov	r13, r11
    5048:	ea 80       	ldd	r14, Y+2	; 0x02
    504a:	f9 80       	ldd	r15, Y+1	; 0x01
    504c:	b7 ef       	ldi	r27, 0xF7	; 247
				 //mark all the clusters allocated to the file as 'free'
			     while(1)  
			     {
			        nextCluster = getSetNextCluster (firstCluster, GET, 0);
					getSetNextCluster (firstCluster, SET, 0);
					if(nextCluster > 0x0ffffff6) 
    504e:	cb 16       	cp	r12, r27
    5050:	bf ef       	ldi	r27, 0xFF	; 255
    5052:	db 06       	cpc	r13, r27
    5054:	eb 06       	cpc	r14, r27
    5056:	bf e0       	ldi	r27, 0x0F	; 15
    5058:	fb 06       	cpc	r15, r27
    505a:	10 f3       	brcs	.-60     	; 0x5020 <findFiles+0x244>
    505c:	83 e2       	ldi	r24, 0x23	; 35
					   {Uart_Transmit_IT_PC((char*)("File deleted!"));return 0;}
    505e:	96 e0       	ldi	r25, 0x06	; 6
    5060:	0e 94 b6 30 	call	0x616c	; 0x616c <Uart_Transmit_IT_PC>
    5064:	80 e0       	ldi	r24, 0x00	; 0
    5066:	90 e0       	ldi	r25, 0x00	; 0
    5068:	8d c0       	rjmp	.+282    	; 0x5184 <findFiles+0x3a8>
    506a:	8d e0       	ldi	r24, 0x0D	; 13
			  }
            }
          }
          else  //when flag = GET_LIST
		  {
		     TX_NEWLINE;
    506c:	0e 94 4c 32 	call	0x6498	; 0x6498 <transmitByte>
    5070:	8a e0       	ldi	r24, 0x0A	; 10
    5072:	0e 94 4c 32 	call	0x6498	; 0x6498 <transmitByte>
    5076:	e1 e0       	ldi	r30, 0x01	; 1
    5078:	1b 86       	std	Y+11, r1	; 0x0b
    507a:	ec 87       	std	Y+12, r30	; 0x0c
    507c:	06 c0       	rjmp	.+12     	; 0x508a <findFiles+0x2ae>
    507e:	2b 85       	ldd	r18, Y+11	; 0x0b
    5080:	2f 5f       	subi	r18, 0xFF	; 255
    5082:	2b 87       	std	Y+11, r18	; 0x0b
    5084:	3c 85       	ldd	r19, Y+12	; 0x0c
    5086:	3f 5f       	subi	r19, 0xFF	; 255
    5088:	3c 87       	std	Y+12, r19	; 0x0c
    508a:	8b 85       	ldd	r24, Y+11	; 0x0b
			 for(j=0; j<11; j++)
		     {
			   if(j == 8) transmitByte(' ');
    508c:	88 30       	cpi	r24, 0x08	; 8
    508e:	59 f4       	brne	.+22     	; 0x50a6 <findFiles+0x2ca>
    5090:	80 e2       	ldi	r24, 0x20	; 32
    5092:	0e 94 4c 32 	call	0x6498	; 0x6498 <transmitByte>
    5096:	f8 01       	movw	r30, r16
			   transmitByte (dir->name[j]);
    5098:	9b 85       	ldd	r25, Y+11	; 0x0b
    509a:	e9 0f       	add	r30, r25
    509c:	f1 1d       	adc	r31, r1
    509e:	80 81       	ld	r24, Z
    50a0:	0e 94 4c 32 	call	0x6498	; 0x6498 <transmitByte>
    50a4:	ec cf       	rjmp	.-40     	; 0x507e <findFiles+0x2a2>
    50a6:	f8 01       	movw	r30, r16
    50a8:	ab 85       	ldd	r26, Y+11	; 0x0b
    50aa:	ea 0f       	add	r30, r26
    50ac:	f1 1d       	adc	r31, r1
    50ae:	80 81       	ld	r24, Z
    50b0:	0e 94 4c 32 	call	0x6498	; 0x6498 <transmitByte>
    50b4:	bc 85       	ldd	r27, Y+12	; 0x0c
            }
          }
          else  //when flag = GET_LIST
		  {
		     TX_NEWLINE;
			 for(j=0; j<11; j++)
    50b6:	bb 30       	cpi	r27, 0x0B	; 11
    50b8:	10 f3       	brcs	.-60     	; 0x507e <findFiles+0x2a2>
    50ba:	81 e3       	ldi	r24, 0x31	; 49
		     {
			   if(j == 8) transmitByte(' ');
			   transmitByte (dir->name[j]);
			 }
		     Uart_Transmit_IT_PC ((char*)("   "));
    50bc:	96 e0       	ldi	r25, 0x06	; 6
    50be:	0e 94 b6 30 	call	0x616c	; 0x616c <Uart_Transmit_IT_PC>
    50c2:	f8 01       	movw	r30, r16
		     if((dir->attrib != 0x10) && (dir->attrib != 0x08))
    50c4:	83 85       	ldd	r24, Z+11	; 0x0b
    50c6:	80 31       	cpi	r24, 0x10	; 16
    50c8:	a1 f0       	breq	.+40     	; 0x50f2 <findFiles+0x316>
    50ca:	88 30       	cpi	r24, 0x08	; 8
    50cc:	b9 f0       	breq	.+46     	; 0x50fc <findFiles+0x320>
    50ce:	85 e3       	ldi	r24, 0x35	; 53
			 {
			     Uart_Transmit_IT_PC ((char*)("FILE" ));
    50d0:	96 e0       	ldi	r25, 0x06	; 6
    50d2:	0e 94 b6 30 	call	0x616c	; 0x616c <Uart_Transmit_IT_PC>
    50d6:	81 e3       	ldi	r24, 0x31	; 49
		         Uart_Transmit_IT_PC ((char*)("   "));
    50d8:	96 e0       	ldi	r25, 0x06	; 6
    50da:	0e 94 b6 30 	call	0x616c	; 0x616c <Uart_Transmit_IT_PC>
    50de:	d8 01       	movw	r26, r16
			     displayMemory (LOW, dir->fileSize);
    50e0:	5c 96       	adiw	r26, 0x1c	; 28
    50e2:	4d 91       	ld	r20, X+
    50e4:	5d 91       	ld	r21, X+
    50e6:	6d 91       	ld	r22, X+
    50e8:	7c 91       	ld	r23, X
    50ea:	5f 97       	sbiw	r26, 0x1f	; 31
    50ec:	80 e0       	ldi	r24, 0x00	; 0
    50ee:	a7 dd       	rcall	.-1202   	; 0x4c3e <displayMemory>
    50f0:	09 c0       	rjmp	.+18     	; 0x5104 <findFiles+0x328>
    50f2:	ea e0       	ldi	r30, 0x0A	; 10
			 }
			 else
			   Uart_Transmit_IT_PC ((char*)((dir->attrib == 0x10)? ("DIR") : ("ROOT")));
    50f4:	f6 e0       	ldi	r31, 0x06	; 6
    50f6:	8e 2f       	mov	r24, r30
    50f8:	9f 2f       	mov	r25, r31
    50fa:	02 c0       	rjmp	.+4      	; 0x5100 <findFiles+0x324>
    50fc:	8c 2d       	mov	r24, r12
    50fe:	9d 2d       	mov	r25, r13
    5100:	0e 94 b6 30 	call	0x616c	; 0x616c <Uart_Transmit_IT_PC>
    5104:	f0 e2       	ldi	r31, 0x20	; 32
   for(sector = 0; sector < sectorPerCluster; sector++)
   {
     SD_readSingleBlock (firstSector + sector);
	

     for(i=0; i<bytesPerSector; i+=32)
    5106:	ef 0e       	add	r14, r31
    5108:	f1 1c       	adc	r15, r1
    510a:	80 91 2e 08 	lds	r24, 0x082E	; 0x80082e <bytesPerSector>
    510e:	90 91 2f 08 	lds	r25, 0x082F	; 0x80082f <bytesPerSector+0x1>
    5112:	e8 16       	cp	r14, r24
    5114:	f9 06       	cpc	r15, r25
    5116:	08 f4       	brcc	.+2      	; 0x511a <findFiles+0x33e>
    5118:	c0 ce       	rjmp	.-640    	; 0x4e9a <findFiles+0xbe>
    511a:	2f ef       	ldi	r18, 0xFF	; 255

while(1)
{
   firstSector = getFirstSector (cluster);

   for(sector = 0; sector < sectorPerCluster; sector++)
    511c:	42 1a       	sub	r4, r18
    511e:	52 0a       	sbc	r5, r18
    5120:	62 0a       	sbc	r6, r18
    5122:	72 0a       	sbc	r7, r18
    5124:	80 91 4f 0c 	lds	r24, 0x0C4F	; 0x800c4f <sectorPerCluster>
    5128:	90 91 50 0c 	lds	r25, 0x0C50	; 0x800c50 <sectorPerCluster+0x1>
    512c:	a0 e0       	ldi	r26, 0x00	; 0
    512e:	b0 e0       	ldi	r27, 0x00	; 0
    5130:	48 16       	cp	r4, r24
    5132:	59 06       	cpc	r5, r25
    5134:	6a 06       	cpc	r6, r26
    5136:	7b 06       	cpc	r7, r27
    5138:	08 f4       	brcc	.+2      	; 0x513c <findFiles+0x360>
    513a:	92 ce       	rjmp	.-732    	; 0x4e60 <findFiles+0x84>
		  }
       }
     }
   }

   cluster = (getSetNextCluster (cluster, GET, 0));
    513c:	00 e0       	ldi	r16, 0x00	; 0
    513e:	10 e0       	ldi	r17, 0x00	; 0
    5140:	98 01       	movw	r18, r16
    5142:	40 e0       	ldi	r20, 0x00	; 0
    5144:	6f 81       	ldd	r22, Y+7	; 0x07
    5146:	78 85       	ldd	r23, Y+8	; 0x08
    5148:	89 85       	ldd	r24, Y+9	; 0x09
    514a:	9a 85       	ldd	r25, Y+10	; 0x0a
    514c:	7b da       	rcall	.-2826   	; 0x4644 <getSetNextCluster>
    514e:	6f 83       	std	Y+7, r22	; 0x07
    5150:	78 87       	std	Y+8, r23	; 0x08
    5152:	89 87       	std	Y+9, r24	; 0x09
    5154:	9a 87       	std	Y+10, r25	; 0x0a
    5156:	67 3f       	cpi	r22, 0xF7	; 247

   if(cluster > 0x0ffffff6)
    5158:	3f ef       	ldi	r19, 0xFF	; 255
    515a:	73 07       	cpc	r23, r19
    515c:	83 07       	cpc	r24, r19
    515e:	3f e0       	ldi	r19, 0x0F	; 15
    5160:	93 07       	cpc	r25, r19
    5162:	70 f4       	brcc	.+28     	; 0x5180 <findFiles+0x3a4>
   	 return 0;
   if(cluster == 0) 
    5164:	67 2b       	or	r22, r23
    5166:	68 2b       	or	r22, r24
    5168:	69 2b       	or	r22, r25
    516a:	09 f0       	breq	.+2      	; 0x516e <findFiles+0x392>
    516c:	68 ce       	rjmp	.-816    	; 0x4e3e <findFiles+0x62>
   {Uart_Transmit_IT_PC((char*)("Error in getting cluster"));  return 0;}
    516e:	8a e3       	ldi	r24, 0x3A	; 58
    5170:	96 e0       	ldi	r25, 0x06	; 6
    5172:	fc d7       	rcall	.+4088   	; 0x616c <Uart_Transmit_IT_PC>
    5174:	80 e0       	ldi	r24, 0x00	; 0
    5176:	90 e0       	ldi	r25, 0x00	; 0
    5178:	05 c0       	rjmp	.+10     	; 0x5184 <findFiles+0x3a8>
    517a:	80 e0       	ldi	r24, 0x00	; 0
        if(dir->name[0] == EMPTY) //indicates end of the file list of the directory
		{
		  if((flag == GET_FILE) || (flag == DELETE))
// 		      Uart_Transmit_IT_PC((char*)("File does not exist!"));
		      Uart_Transmit_IT_PC((char*)("N/F\r"));
		  return 0;   
    517c:	90 e0       	ldi	r25, 0x00	; 0
    517e:	02 c0       	rjmp	.+4      	; 0x5184 <findFiles+0x3a8>
    5180:	80 e0       	ldi	r24, 0x00	; 0
   }

   cluster = (getSetNextCluster (cluster, GET, 0));

   if(cluster > 0x0ffffff6)
   	 return 0;
    5182:	90 e0       	ldi	r25, 0x00	; 0
    5184:	2c 96       	adiw	r28, 0x0c	; 12
   if(cluster == 0) 
   {Uart_Transmit_IT_PC((char*)("Error in getting cluster"));  return 0;}
 }
return 0;
}
    5186:	0f b6       	in	r0, 0x3f	; 63
    5188:	f8 94       	cli
    518a:	de bf       	out	0x3e, r29	; 62
    518c:	0f be       	out	0x3f, r0	; 63
    518e:	cd bf       	out	0x3d, r28	; 61
    5190:	df 91       	pop	r29
    5192:	cf 91       	pop	r28
    5194:	1f 91       	pop	r17
    5196:	0f 91       	pop	r16
    5198:	ff 90       	pop	r15
    519a:	ef 90       	pop	r14
    519c:	df 90       	pop	r13
    519e:	cf 90       	pop	r12
    51a0:	bf 90       	pop	r11
    51a2:	af 90       	pop	r10
    51a4:	9f 90       	pop	r9
    51a6:	8f 90       	pop	r8
    51a8:	7f 90       	pop	r7
    51aa:	6f 90       	pop	r6
    51ac:	5f 90       	pop	r5
    51ae:	4f 90       	pop	r4
    51b0:	3f 90       	pop	r3
    51b2:	2f 90       	pop	r2
    51b4:	08 95       	ret

000051b6 <readFile>:
    51b6:	4f 92       	push	r4
//return: 0, if normal operation or flag is READ
//	      1, if file is already existing and flag = VERIFY
//		  2, if file name is incompatible
//***************************************************************************
unsigned char readFile (unsigned char flag, unsigned char *fileName)
{
    51b8:	5f 92       	push	r5
    51ba:	6f 92       	push	r6
    51bc:	7f 92       	push	r7
    51be:	8f 92       	push	r8
    51c0:	9f 92       	push	r9
    51c2:	af 92       	push	r10
    51c4:	bf 92       	push	r11
    51c6:	cf 92       	push	r12
    51c8:	df 92       	push	r13
    51ca:	ef 92       	push	r14
    51cc:	ff 92       	push	r15
    51ce:	0f 93       	push	r16
    51d0:	1f 93       	push	r17
    51d2:	cf 93       	push	r28
    51d4:	df 93       	push	r29
    51d6:	cd b7       	in	r28, 0x3d	; 61
    51d8:	de b7       	in	r29, 0x3e	; 62
    51da:	29 97       	sbiw	r28, 0x09	; 9
    51dc:	0f b6       	in	r0, 0x3f	; 63
    51de:	f8 94       	cli
    51e0:	de bf       	out	0x3e, r29	; 62
    51e2:	0f be       	out	0x3f, r0	; 63
    51e4:	cd bf       	out	0x3d, r28	; 61
    51e6:	89 83       	std	Y+1, r24	; 0x01
    51e8:	7b 01       	movw	r14, r22
struct dir_Structure *dir;
unsigned long cluster, byteCounter = 0, fileSize, firstSector;
unsigned int k;
unsigned char j, error;

error = convertFileName (fileName); //convert fileName into FAT format
    51ea:	cb 01       	movw	r24, r22
    51ec:	f6 db       	rcall	.-2068   	; 0x49da <convertFileName>
if(error) return 2;
    51ee:	81 11       	cpse	r24, r1
    51f0:	90 c0       	rjmp	.+288    	; 0x5312 <readFile+0x15c>

dir = findFiles (GET_FILE, fileName); //get the file location
    51f2:	b7 01       	movw	r22, r14
    51f4:	81 e0       	ldi	r24, 0x01	; 1
    51f6:	f2 dd       	rcall	.-1052   	; 0x4ddc <findFiles>
    51f8:	fc 01       	movw	r30, r24
if(dir == 0) 
    51fa:	89 2b       	or	r24, r25
    51fc:	09 f4       	brne	.+2      	; 0x5200 <readFile+0x4a>
    51fe:	8b c0       	rjmp	.+278    	; 0x5316 <readFile+0x160>
  return (0);

if(flag == VERIFY) return (1);	//specified file name is already existing
    5200:	09 81       	ldd	r16, Y+1	; 0x01
    5202:	01 30       	cpi	r16, 0x01	; 1
    5204:	09 f4       	brne	.+2      	; 0x5208 <readFile+0x52>
    5206:	89 c0       	rjmp	.+274    	; 0x531a <readFile+0x164>

cluster = (((unsigned long) dir->firstClusterHI) << 16) | dir->firstClusterLO;
    5208:	44 89       	ldd	r20, Z+20	; 0x14
    520a:	55 89       	ldd	r21, Z+21	; 0x15
    520c:	60 e0       	ldi	r22, 0x00	; 0
    520e:	70 e0       	ldi	r23, 0x00	; 0
    5210:	ba 01       	movw	r22, r20
    5212:	55 27       	eor	r21, r21
    5214:	44 27       	eor	r20, r20
    5216:	82 8d       	ldd	r24, Z+26	; 0x1a
    5218:	93 8d       	ldd	r25, Z+27	; 0x1b
    521a:	a0 e0       	ldi	r26, 0x00	; 0
    521c:	b0 e0       	ldi	r27, 0x00	; 0
    521e:	8a 01       	movw	r16, r20
    5220:	9b 01       	movw	r18, r22
    5222:	08 2b       	or	r16, r24
    5224:	19 2b       	or	r17, r25
    5226:	2a 2b       	or	r18, r26
    5228:	3b 2b       	or	r19, r27
    522a:	0d 83       	std	Y+5, r16	; 0x05
    522c:	1e 83       	std	Y+6, r17	; 0x06
    522e:	2f 83       	std	Y+7, r18	; 0x07
    5230:	38 87       	std	Y+8, r19	; 0x08

fileSize = dir->fileSize;
    5232:	44 8c       	ldd	r4, Z+28	; 0x1c
    5234:	55 8c       	ldd	r5, Z+29	; 0x1d
    5236:	66 8c       	ldd	r6, Z+30	; 0x1e
    5238:	77 8c       	ldd	r7, Z+31	; 0x1f
asm("nop");
    523a:	00 00       	nop
asm("nop");
    523c:	00 00       	nop
//		  2, if file name is incompatible
//***************************************************************************
unsigned char readFile (unsigned char flag, unsigned char *fileName)
{
struct dir_Structure *dir;
unsigned long cluster, byteCounter = 0, fileSize, firstSector;
    523e:	c1 2c       	mov	r12, r1
    5240:	d1 2c       	mov	r13, r1
    5242:	76 01       	movw	r14, r12
    5244:	53 01       	movw	r10, r6
    5246:	42 01       	movw	r8, r4
    5248:	1f ef       	ldi	r17, 0xFF	; 255
    524a:	81 1a       	sub	r8, r17
    524c:	91 0a       	sbc	r9, r17
    524e:	a1 0a       	sbc	r10, r17
    5250:	b1 0a       	sbc	r11, r17
asm("nop");
asm("nop");

while(1)
{
  firstSector = getFirstSector (cluster);
    5252:	6d 81       	ldd	r22, Y+5	; 0x05
    5254:	7e 81       	ldd	r23, Y+6	; 0x06
    5256:	8f 81       	ldd	r24, Y+7	; 0x07
    5258:	98 85       	ldd	r25, Y+8	; 0x08
    525a:	d3 d9       	rcall	.-3162   	; 0x4602 <getFirstSector>
    525c:	69 83       	std	Y+1, r22	; 0x01
    525e:	7a 83       	std	Y+2, r23	; 0x02
    5260:	8b 83       	std	Y+3, r24	; 0x03
    5262:	9c 83       	std	Y+4, r25	; 0x04

  for(j=0; j<sectorPerCluster; j++)
    5264:	80 91 4f 0c 	lds	r24, 0x0C4F	; 0x800c4f <sectorPerCluster>
    5268:	90 91 50 0c 	lds	r25, 0x0C50	; 0x800c50 <sectorPerCluster+0x1>
    526c:	89 2b       	or	r24, r25
    526e:	d1 f1       	breq	.+116    	; 0x52e4 <readFile+0x12e>
    5270:	19 86       	std	Y+9, r1	; 0x09
  {
	  //liest Block von 512 Bytes aus mit SPI und schreibt Werte in buffer[]
    SD_readSingleBlock(firstSector + j);
    5272:	69 81       	ldd	r22, Y+1	; 0x01
    5274:	7a 81       	ldd	r23, Y+2	; 0x02
    5276:	8b 81       	ldd	r24, Y+3	; 0x03
    5278:	9c 81       	ldd	r25, Y+4	; 0x04
    527a:	09 85       	ldd	r16, Y+9	; 0x09
    527c:	60 0f       	add	r22, r16
    527e:	71 1d       	adc	r23, r1
    5280:	81 1d       	adc	r24, r1
    5282:	91 1d       	adc	r25, r1
    5284:	4c d5       	rcall	.+2712   	; 0x5d1e <SD_readSingleBlock>
    
	for(k=0; k<512; k++)
    {
//       transmitByte(buffer[k]);
      if ((byteCounter++) >= fileSize ) return 0;
    5286:	c4 14       	cp	r12, r4
    5288:	d5 04       	cpc	r13, r5
    528a:	e6 04       	cpc	r14, r6
    528c:	f7 04       	cpc	r15, r7
    528e:	08 f0       	brcs	.+2      	; 0x5292 <readFile+0xdc>
    5290:	46 c0       	rjmp	.+140    	; 0x531e <readFile+0x168>
    5292:	b7 01       	movw	r22, r14
    5294:	a6 01       	movw	r20, r12
    5296:	4f 5f       	subi	r20, 0xFF	; 255
    5298:	5d 4f       	sbci	r21, 0xFD	; 253
    529a:	6f 4f       	sbci	r22, 0xFF	; 255
    529c:	7f 4f       	sbci	r23, 0xFF	; 255
    529e:	12 e0       	ldi	r17, 0x02	; 2
    52a0:	c1 0e       	add	r12, r17
    52a2:	d1 1c       	adc	r13, r1
    52a4:	e1 1c       	adc	r14, r1
    52a6:	f1 1c       	adc	r15, r1
    52a8:	02 c0       	rjmp	.+4      	; 0x52ae <readFile+0xf8>
    52aa:	6c 01       	movw	r12, r24
    52ac:	7d 01       	movw	r14, r26
    52ae:	8c 14       	cp	r8, r12
    52b0:	9d 04       	cpc	r9, r13
    52b2:	ae 04       	cpc	r10, r14
    52b4:	bf 04       	cpc	r11, r15
    52b6:	a9 f1       	breq	.+106    	; 0x5322 <readFile+0x16c>
    52b8:	d7 01       	movw	r26, r14
    52ba:	c6 01       	movw	r24, r12
    52bc:	01 96       	adiw	r24, 0x01	; 1
    52be:	a1 1d       	adc	r26, r1
    52c0:	b1 1d       	adc	r27, r1
  for(j=0; j<sectorPerCluster; j++)
  {
	  //liest Block von 512 Bytes aus mit SPI und schreibt Werte in buffer[]
    SD_readSingleBlock(firstSector + j);
    
	for(k=0; k<512; k++)
    52c2:	48 17       	cp	r20, r24
    52c4:	59 07       	cpc	r21, r25
    52c6:	6a 07       	cpc	r22, r26
    52c8:	7b 07       	cpc	r23, r27
    52ca:	79 f7       	brne	.-34     	; 0x52aa <readFile+0xf4>

while(1)
{
  firstSector = getFirstSector (cluster);

  for(j=0; j<sectorPerCluster; j++)
    52cc:	09 85       	ldd	r16, Y+9	; 0x09
    52ce:	0f 5f       	subi	r16, 0xFF	; 255
    52d0:	09 87       	std	Y+9, r16	; 0x09
    52d2:	80 91 4f 0c 	lds	r24, 0x0C4F	; 0x800c4f <sectorPerCluster>
    52d6:	90 91 50 0c 	lds	r25, 0x0C50	; 0x800c50 <sectorPerCluster+0x1>
    52da:	20 2f       	mov	r18, r16
    52dc:	30 e0       	ldi	r19, 0x00	; 0
    52de:	28 17       	cp	r18, r24
    52e0:	39 07       	cpc	r19, r25
    52e2:	38 f2       	brcs	.-114    	; 0x5272 <readFile+0xbc>
    {
//       transmitByte(buffer[k]);
      if ((byteCounter++) >= fileSize ) return 0;
    }
  }
  cluster = getSetNextCluster (cluster, GET, 0);
    52e4:	00 e0       	ldi	r16, 0x00	; 0
    52e6:	10 e0       	ldi	r17, 0x00	; 0
    52e8:	98 01       	movw	r18, r16
    52ea:	40 e0       	ldi	r20, 0x00	; 0
    52ec:	6d 81       	ldd	r22, Y+5	; 0x05
    52ee:	7e 81       	ldd	r23, Y+6	; 0x06
    52f0:	8f 81       	ldd	r24, Y+7	; 0x07
    52f2:	98 85       	ldd	r25, Y+8	; 0x08
    52f4:	a7 d9       	rcall	.-3250   	; 0x4644 <getSetNextCluster>
    52f6:	6d 83       	std	Y+5, r22	; 0x05
    52f8:	7e 83       	std	Y+6, r23	; 0x06
    52fa:	8f 83       	std	Y+7, r24	; 0x07
    52fc:	98 87       	std	Y+8, r25	; 0x08
  if(cluster == 0) {Uart_Transmit_IT_PC((char*)("Error in getting cluster")); return 0;}
    52fe:	67 2b       	or	r22, r23
    5300:	68 2b       	or	r22, r24
    5302:	69 2b       	or	r22, r25
    5304:	09 f0       	breq	.+2      	; 0x5308 <readFile+0x152>
    5306:	a5 cf       	rjmp	.-182    	; 0x5252 <readFile+0x9c>
    5308:	8a e3       	ldi	r24, 0x3A	; 58
    530a:	96 e0       	ldi	r25, 0x06	; 6
    530c:	2f d7       	rcall	.+3678   	; 0x616c <Uart_Transmit_IT_PC>
    530e:	80 e0       	ldi	r24, 0x00	; 0
    5310:	09 c0       	rjmp	.+18     	; 0x5324 <readFile+0x16e>
unsigned long cluster, byteCounter = 0, fileSize, firstSector;
unsigned int k;
unsigned char j, error;

error = convertFileName (fileName); //convert fileName into FAT format
if(error) return 2;
    5312:	82 e0       	ldi	r24, 0x02	; 2
    5314:	07 c0       	rjmp	.+14     	; 0x5324 <readFile+0x16e>

dir = findFiles (GET_FILE, fileName); //get the file location
if(dir == 0) 
  return (0);
    5316:	80 e0       	ldi	r24, 0x00	; 0
    5318:	05 c0       	rjmp	.+10     	; 0x5324 <readFile+0x16e>

if(flag == VERIFY) return (1);	//specified file name is already existing
    531a:	81 e0       	ldi	r24, 0x01	; 1
    531c:	03 c0       	rjmp	.+6      	; 0x5324 <readFile+0x16e>
    SD_readSingleBlock(firstSector + j);
    
	for(k=0; k<512; k++)
    {
//       transmitByte(buffer[k]);
      if ((byteCounter++) >= fileSize ) return 0;
    531e:	80 e0       	ldi	r24, 0x00	; 0
    5320:	01 c0       	rjmp	.+2      	; 0x5324 <readFile+0x16e>
    5322:	80 e0       	ldi	r24, 0x00	; 0
  }
  cluster = getSetNextCluster (cluster, GET, 0);
  if(cluster == 0) {Uart_Transmit_IT_PC((char*)("Error in getting cluster")); return 0;}
}
return 0;
}
    5324:	29 96       	adiw	r28, 0x09	; 9
    5326:	0f b6       	in	r0, 0x3f	; 63
    5328:	f8 94       	cli
    532a:	de bf       	out	0x3e, r29	; 62
    532c:	0f be       	out	0x3f, r0	; 63
    532e:	cd bf       	out	0x3d, r28	; 61
    5330:	df 91       	pop	r29
    5332:	cf 91       	pop	r28
    5334:	1f 91       	pop	r17
    5336:	0f 91       	pop	r16
    5338:	ff 90       	pop	r15
    533a:	ef 90       	pop	r14
    533c:	df 90       	pop	r13
    533e:	cf 90       	pop	r12
    5340:	bf 90       	pop	r11
    5342:	af 90       	pop	r10
    5344:	9f 90       	pop	r9
    5346:	8f 90       	pop	r8
    5348:	7f 90       	pop	r7
    534a:	6f 90       	pop	r6
    534c:	5f 90       	pop	r5
    534e:	4f 90       	pop	r4
    5350:	08 95       	ret

00005352 <deleteFile>:
//Function: to delete a specified file from the root directory
//Arguments: pointer to the file name
//return: none
//********************************************************************
void deleteFile (unsigned char *fileName)
{
    5352:	cf 93       	push	r28
    5354:	df 93       	push	r29
    5356:	ec 01       	movw	r28, r24
  unsigned char error;

  error = convertFileName (fileName);
    5358:	40 db       	rcall	.-2432   	; 0x49da <convertFileName>
  if(error) return;
    535a:	81 11       	cpse	r24, r1
    535c:	03 c0       	rjmp	.+6      	; 0x5364 <deleteFile+0x12>

  findFiles (DELETE, fileName);
    535e:	be 01       	movw	r22, r28
    5360:	82 e0       	ldi	r24, 0x02	; 2
    5362:	3c dd       	rcall	.-1416   	; 0x4ddc <findFiles>
}
    5364:	df 91       	pop	r29
    5366:	cf 91       	pop	r28
    5368:	08 95       	ret

0000536a <writeFile>:
//			file name does not exist; if the file already exists then append the data
//Arguments: pointer to the file name
//return: none
//************************************************************************************
void writeFile (unsigned char *fileName, unsigned char * INPUT)
{
    536a:	2f 92       	push	r2
    536c:	3f 92       	push	r3
    536e:	4f 92       	push	r4
    5370:	5f 92       	push	r5
    5372:	6f 92       	push	r6
    5374:	7f 92       	push	r7
    5376:	8f 92       	push	r8
    5378:	9f 92       	push	r9
    537a:	af 92       	push	r10
    537c:	bf 92       	push	r11
    537e:	cf 92       	push	r12
    5380:	df 92       	push	r13
    5382:	ef 92       	push	r14
    5384:	ff 92       	push	r15
    5386:	0f 93       	push	r16
    5388:	1f 93       	push	r17
    538a:	cf 93       	push	r28
    538c:	df 93       	push	r29
    538e:	cd b7       	in	r28, 0x3d	; 61
    5390:	de b7       	in	r29, 0x3e	; 62
    5392:	67 97       	sbiw	r28, 0x17	; 23
    5394:	0f b6       	in	r0, 0x3f	; 63
    5396:	f8 94       	cli
    5398:	de bf       	out	0x3e, r29	; 62
    539a:	0f be       	out	0x3f, r0	; 63
    539c:	cd bf       	out	0x3d, r28	; 61
    539e:	98 87       	std	Y+8, r25	; 0x08
    53a0:	8f 83       	std	Y+7, r24	; 0x07
    53a2:	5b 01       	movw	r10, r22
unsigned char j, data, error, fileCreatedFlag = 0, start = 0, appendFile = 0, sectorEndFlag = 0, sector;
unsigned int i, firstClusterHigh, firstClusterLow;
struct dir_Structure *dir;
unsigned long cluster, nextCluster, prevCluster, firstSector, clusterCount, extraMemory;

j = readFile (VERIFY, fileName);
    53a4:	bc 01       	movw	r22, r24
    53a6:	81 e0       	ldi	r24, 0x01	; 1
    53a8:	06 df       	rcall	.-500    	; 0x51b6 <readFile>

if(j == 1) 
    53aa:	81 30       	cpi	r24, 0x01	; 1
    53ac:	09 f0       	breq	.+2      	; 0x53b0 <writeFile+0x46>
    53ae:	51 c0       	rjmp	.+162    	; 0x5452 <writeFile+0xe8>
{
  Uart_Transmit_IT_PC((char*)("  File already existing, appending data..")); 
    53b0:	83 e5       	ldi	r24, 0x53	; 83
    53b2:	96 e0       	ldi	r25, 0x06	; 6
    53b4:	db d6       	rcall	.+3510   	; 0x616c <Uart_Transmit_IT_PC>
  appendFile = 1;
  cluster = appendStartCluster;
    53b6:	40 90 81 0f 	lds	r4, 0x0F81	; 0x800f81 <appendStartCluster>
    53ba:	50 90 82 0f 	lds	r5, 0x0F82	; 0x800f82 <appendStartCluster+0x1>
    53be:	60 90 83 0f 	lds	r6, 0x0F83	; 0x800f83 <appendStartCluster+0x2>
    53c2:	70 90 84 0f 	lds	r7, 0x0F84	; 0x800f84 <appendStartCluster+0x3>
  clusterCount=0;
    53c6:	c1 2c       	mov	r12, r1
    53c8:	d1 2c       	mov	r13, r1
    53ca:	76 01       	movw	r14, r12
  while(1)
  {
    nextCluster = getSetNextCluster (cluster, GET, 0);
    53cc:	00 e0       	ldi	r16, 0x00	; 0
    53ce:	10 e0       	ldi	r17, 0x00	; 0
    53d0:	98 01       	movw	r18, r16
    53d2:	40 e0       	ldi	r20, 0x00	; 0
    53d4:	c3 01       	movw	r24, r6
    53d6:	b2 01       	movw	r22, r4
    53d8:	35 d9       	rcall	.-3478   	; 0x4644 <getSetNextCluster>
    if(nextCluster == EOF) break;
    53da:	6f 3f       	cpi	r22, 0xFF	; 255
    53dc:	2f ef       	ldi	r18, 0xFF	; 255
    53de:	72 07       	cpc	r23, r18
    53e0:	82 07       	cpc	r24, r18
    53e2:	2f e0       	ldi	r18, 0x0F	; 15
    53e4:	92 07       	cpc	r25, r18
    53e6:	41 f0       	breq	.+16     	; 0x53f8 <writeFile+0x8e>
	cluster = nextCluster;
	clusterCount++;
    53e8:	3f ef       	ldi	r19, 0xFF	; 255
    53ea:	c3 1a       	sub	r12, r19
    53ec:	d3 0a       	sbc	r13, r19
    53ee:	e3 0a       	sbc	r14, r19
    53f0:	f3 0a       	sbc	r15, r19
  clusterCount=0;
  while(1)
  {
    nextCluster = getSetNextCluster (cluster, GET, 0);
    if(nextCluster == EOF) break;
	cluster = nextCluster;
    53f2:	2b 01       	movw	r4, r22
    53f4:	3c 01       	movw	r6, r24
	clusterCount++;
  }
    53f6:	ea cf       	rjmp	.-44     	; 0x53cc <writeFile+0x62>

  sector = (fileSize - (clusterCount * sectorPerCluster * bytesPerSector)) / bytesPerSector; //last sector number of the last cluster of the file
    53f8:	20 91 4f 0c 	lds	r18, 0x0C4F	; 0x800c4f <sectorPerCluster>
    53fc:	30 91 50 0c 	lds	r19, 0x0C50	; 0x800c50 <sectorPerCluster+0x1>
    5400:	a0 91 2e 08 	lds	r26, 0x082E	; 0x80082e <bytesPerSector>
    5404:	b0 91 2f 08 	lds	r27, 0x082F	; 0x80082f <bytesPerSector+0x1>
    5408:	e0 91 2e 08 	lds	r30, 0x082E	; 0x80082e <bytesPerSector>
    540c:	f0 91 2f 08 	lds	r31, 0x082F	; 0x80082f <bytesPerSector+0x1>
    5410:	0e 94 c7 32 	call	0x658e	; 0x658e <__umulhisi3>
    5414:	9b 01       	movw	r18, r22
    5416:	ac 01       	movw	r20, r24
    5418:	c7 01       	movw	r24, r14
    541a:	b6 01       	movw	r22, r12
    541c:	0e 94 8e 32 	call	0x651c	; 0x651c <__mulsi3>
    5420:	00 91 2a 08 	lds	r16, 0x082A	; 0x80082a <fileSize>
    5424:	10 91 2b 08 	lds	r17, 0x082B	; 0x80082b <fileSize+0x1>
    5428:	20 91 2c 08 	lds	r18, 0x082C	; 0x80082c <fileSize+0x2>
    542c:	30 91 2d 08 	lds	r19, 0x082D	; 0x80082d <fileSize+0x3>
    5430:	68 01       	movw	r12, r16
    5432:	79 01       	movw	r14, r18
    5434:	c6 1a       	sub	r12, r22
    5436:	d7 0a       	sbc	r13, r23
    5438:	e8 0a       	sbc	r14, r24
    543a:	f9 0a       	sbc	r15, r25
    543c:	c7 01       	movw	r24, r14
    543e:	b6 01       	movw	r22, r12
    5440:	9f 01       	movw	r18, r30
    5442:	40 e0       	ldi	r20, 0x00	; 0
    5444:	50 e0       	ldi	r21, 0x00	; 0
    5446:	0e 94 9d 32 	call	0x653a	; 0x653a <__udivmodsi4>
    544a:	29 87       	std	Y+9, r18	; 0x09
  start = 1;
    544c:	21 e0       	ldi	r18, 0x01	; 1
    544e:	29 8b       	std	Y+17, r18	; 0x11
    5450:	4a c0       	rjmp	.+148    	; 0x54e6 <writeFile+0x17c>
//  appendFile();
//  return;
}
else if(j == 2) 
    5452:	82 30       	cpi	r24, 0x02	; 2
    5454:	09 f4       	brne	.+2      	; 0x5458 <writeFile+0xee>
    5456:	67 c3       	rjmp	.+1742   	; 0x5b26 <writeFile+0x7bc>
   return; //invalid file name
else
{
  TX_NEWLINE;
    5458:	8d e0       	ldi	r24, 0x0D	; 13
    545a:	0e 94 4c 32 	call	0x6498	; 0x6498 <transmitByte>
    545e:	8a e0       	ldi	r24, 0x0A	; 10
    5460:	0e 94 4c 32 	call	0x6498	; 0x6498 <transmitByte>
  Uart_Transmit_IT_PC((char*)(" Creating File.."));
    5464:	8d e7       	ldi	r24, 0x7D	; 125
    5466:	96 e0       	ldi	r25, 0x06	; 6
    5468:	81 d6       	rcall	.+3330   	; 0x616c <Uart_Transmit_IT_PC>

  cluster = getSetFreeCluster (NEXT_FREE, GET, 0);
    546a:	20 e0       	ldi	r18, 0x00	; 0
    546c:	30 e0       	ldi	r19, 0x00	; 0
    546e:	a9 01       	movw	r20, r18
    5470:	60 e0       	ldi	r22, 0x00	; 0
    5472:	82 e0       	ldi	r24, 0x02	; 2
    5474:	60 d9       	rcall	.-3392   	; 0x4736 <getSetFreeCluster>
  if(cluster > totalClusters)
    5476:	00 91 31 08 	lds	r16, 0x0831	; 0x800831 <totalClusters>
    547a:	10 91 32 08 	lds	r17, 0x0832	; 0x800832 <totalClusters+0x1>
    547e:	20 91 33 08 	lds	r18, 0x0833	; 0x800833 <totalClusters+0x2>
    5482:	30 91 34 08 	lds	r19, 0x0834	; 0x800834 <totalClusters+0x3>
    5486:	06 17       	cp	r16, r22
    5488:	17 07       	cpc	r17, r23
    548a:	28 07       	cpc	r18, r24
    548c:	39 07       	cpc	r19, r25
    548e:	40 f4       	brcc	.+16     	; 0x54a0 <writeFile+0x136>
     cluster = rootCluster;
    5490:	60 91 3b 08 	lds	r22, 0x083B	; 0x80083b <rootCluster>
    5494:	70 91 3c 08 	lds	r23, 0x083C	; 0x80083c <rootCluster+0x1>
    5498:	80 91 3d 08 	lds	r24, 0x083D	; 0x80083d <rootCluster+0x2>
    549c:	90 91 3e 08 	lds	r25, 0x083E	; 0x80083e <rootCluster+0x3>

  cluster = searchNextFreeCluster(cluster);
    54a0:	2c db       	rcall	.-2472   	; 0x4afa <searchNextFreeCluster>
    54a2:	2b 01       	movw	r4, r22
    54a4:	3c 01       	movw	r6, r24
   if(cluster == 0)
    54a6:	61 15       	cp	r22, r1
    54a8:	71 05       	cpc	r23, r1
    54aa:	81 05       	cpc	r24, r1
   {
      TX_NEWLINE;
    54ac:	91 05       	cpc	r25, r1
    54ae:	41 f4       	brne	.+16     	; 0x54c0 <writeFile+0x156>
    54b0:	8d e0       	ldi	r24, 0x0D	; 13
    54b2:	f2 d7       	rcall	.+4068   	; 0x6498 <transmitByte>
    54b4:	8a e0       	ldi	r24, 0x0A	; 10
      Uart_Transmit_IT_PC((char*)(" No free cluster!"));
    54b6:	f0 d7       	rcall	.+4064   	; 0x6498 <transmitByte>
    54b8:	8e e8       	ldi	r24, 0x8E	; 142
    54ba:	96 e0       	ldi	r25, 0x06	; 6
	  return;
    54bc:	57 d6       	rcall	.+3246   	; 0x616c <Uart_Transmit_IT_PC>
   }
  getSetNextCluster(cluster, SET, EOF);   //last cluster of the file, marked EOF
    54be:	33 c3       	rjmp	.+1638   	; 0x5b26 <writeFile+0x7bc>
    54c0:	0f ef       	ldi	r16, 0xFF	; 255
    54c2:	1f ef       	ldi	r17, 0xFF	; 255
    54c4:	2f ef       	ldi	r18, 0xFF	; 255
    54c6:	3f e0       	ldi	r19, 0x0F	; 15
    54c8:	41 e0       	ldi	r20, 0x01	; 1
    54ca:	bc d8       	rcall	.-3720   	; 0x4644 <getSetNextCluster>
   
  firstClusterHigh = (unsigned int) ((cluster & 0xffff0000) >> 16 );
    54cc:	7b 8a       	std	Y+19, r7	; 0x13
    54ce:	6a 8a       	std	Y+18, r6	; 0x12
  firstClusterLow = (unsigned int) ( cluster & 0x0000ffff);
    54d0:	5d 8a       	std	Y+21, r5	; 0x15
    54d2:	4c 8a       	std	Y+20, r4	; 0x14
  fileSize = 0;
    54d4:	10 92 2a 08 	sts	0x082A, r1	; 0x80082a <fileSize>
    54d8:	10 92 2b 08 	sts	0x082B, r1	; 0x80082b <fileSize+0x1>
    54dc:	10 92 2c 08 	sts	0x082C, r1	; 0x80082c <fileSize+0x2>
    54e0:	10 92 2d 08 	sts	0x082D, r1	; 0x80082d <fileSize+0x3>
//Arguments: pointer to the file name
//return: none
//************************************************************************************
void writeFile (unsigned char *fileName, unsigned char * INPUT)
{
unsigned char j, data, error, fileCreatedFlag = 0, start = 0, appendFile = 0, sectorEndFlag = 0, sector;
    54e4:	19 8a       	std	Y+17, r1	; 0x11
    54e6:	89 89       	ldd	r24, Y+17	; 0x11
    54e8:	21 2c       	mov	r2, r1
while(1)
{
   if(start)
   {
      start = 0;
	  startBlock = getFirstSector (cluster) + sector;
    54ea:	d9 84       	ldd	r13, Y+9	; 0x09
    54ec:	cd 2c       	mov	r12, r13
    54ee:	d1 2c       	mov	r13, r1
    54f0:	e1 2c       	mov	r14, r1
    54f2:	f1 2c       	mov	r15, r1
    54f4:	cd 86       	std	Y+13, r12	; 0x0d
    54f6:	de 86       	std	Y+14, r13	; 0x0e
    54f8:	ef 86       	std	Y+15, r14	; 0x0f
   }
   else
   {
      startBlock = getFirstSector (cluster);
	  i=0;
	  j=0;
    54fa:	f8 8a       	std	Y+16, r15	; 0x10
     buffer[i++] = data;
	 fileSize++;
     if(data == '\r')  //'Carriege Return (CR)' character
     {
        if(i == 512)
		   sectorEndFlag = 1;  //flag to indicate that the appended '\n' char should be put in the next sector
    54fc:	31 2c       	mov	r3, r1
    54fe:	21 e0       	ldi	r18, 0x01	; 1
    5500:	2b 83       	std	Y+3, r18	; 0x03
    5502:	ba 82       	std	Y+2, r11	; 0x02



while(1)
{
   if(start)
    5504:	a9 82       	std	Y+1, r10	; 0x01
    5506:	88 23       	and	r24, r24
   {
      start = 0;
	  startBlock = getFirstSector (cluster) + sector;
    5508:	79 f1       	breq	.+94     	; 0x5568 <writeFile+0x1fe>
    550a:	c3 01       	movw	r24, r6
    550c:	b2 01       	movw	r22, r4
    550e:	79 d8       	rcall	.-3854   	; 0x4602 <getFirstSector>
    5510:	cd 84       	ldd	r12, Y+13	; 0x0d
    5512:	de 84       	ldd	r13, Y+14	; 0x0e
    5514:	ef 84       	ldd	r14, Y+15	; 0x0f
    5516:	f8 88       	ldd	r15, Y+16	; 0x10
    5518:	c6 0e       	add	r12, r22
    551a:	d7 1e       	adc	r13, r23
    551c:	e8 1e       	adc	r14, r24
    551e:	f9 1e       	adc	r15, r25
    5520:	c0 92 41 09 	sts	0x0941, r12	; 0x800941 <startBlock>
    5524:	d0 92 42 09 	sts	0x0942, r13	; 0x800942 <startBlock+0x1>
    5528:	e0 92 43 09 	sts	0x0943, r14	; 0x800943 <startBlock+0x2>
    552c:	f0 92 44 09 	sts	0x0944, r15	; 0x800944 <startBlock+0x3>
	  SD_readSingleBlock (startBlock);
    5530:	60 91 41 09 	lds	r22, 0x0941	; 0x800941 <startBlock>
    5534:	70 91 42 09 	lds	r23, 0x0942	; 0x800942 <startBlock+0x1>
    5538:	80 91 43 09 	lds	r24, 0x0943	; 0x800943 <startBlock+0x2>
    553c:	90 91 44 09 	lds	r25, 0x0944	; 0x800944 <startBlock+0x3>
    5540:	ee d3       	rcall	.+2012   	; 0x5d1e <SD_readSingleBlock>
	  i = fileSize % bytesPerSector;
    5542:	20 91 2e 08 	lds	r18, 0x082E	; 0x80082e <bytesPerSector>
    5546:	30 91 2f 08 	lds	r19, 0x082F	; 0x80082f <bytesPerSector+0x1>
    554a:	40 e0       	ldi	r20, 0x00	; 0
    554c:	50 e0       	ldi	r21, 0x00	; 0
    554e:	60 91 2a 08 	lds	r22, 0x082A	; 0x80082a <fileSize>
    5552:	70 91 2b 08 	lds	r23, 0x082B	; 0x80082b <fileSize+0x1>
    5556:	80 91 2c 08 	lds	r24, 0x082C	; 0x80082c <fileSize+0x2>
    555a:	90 91 2d 08 	lds	r25, 0x082D	; 0x80082d <fileSize+0x3>
    555e:	ed d7       	rcall	.+4058   	; 0x653a <__udivmodsi4>
    5560:	7f 8b       	std	Y+23, r23	; 0x17
	  j = sector;
    5562:	6e 8b       	std	Y+22, r22	; 0x16
    5564:	09 85       	ldd	r16, Y+9	; 0x09
   }
   else
   {
      startBlock = getFirstSector (cluster);
    5566:	0e c0       	rjmp	.+28     	; 0x5584 <writeFile+0x21a>
    5568:	c3 01       	movw	r24, r6
    556a:	b2 01       	movw	r22, r4
    556c:	4a d8       	rcall	.-3948   	; 0x4602 <getFirstSector>
    556e:	60 93 41 09 	sts	0x0941, r22	; 0x800941 <startBlock>
    5572:	70 93 42 09 	sts	0x0942, r23	; 0x800942 <startBlock+0x1>
    5576:	80 93 43 09 	sts	0x0943, r24	; 0x800943 <startBlock+0x2>
    557a:	90 93 44 09 	sts	0x0944, r25	; 0x800944 <startBlock+0x3>
	  i=0;
	  j=0;
    557e:	1f 8a       	std	Y+23, r1	; 0x17
   }
   

   TX_NEWLINE;
    5580:	1e 8a       	std	Y+22, r1	; 0x16
    5582:	00 e0       	ldi	r16, 0x00	; 0
    5584:	8d e0       	ldi	r24, 0x0D	; 13
    5586:	88 d7       	rcall	.+3856   	; 0x6498 <transmitByte>
    5588:	8a e0       	ldi	r24, 0x0A	; 10
   Uart_Transmit_IT_PC((char*)(" Enter text (end with ~):"));
    558a:	86 d7       	rcall	.+3852   	; 0x6498 <transmitByte>
    558c:	80 ea       	ldi	r24, 0xA0	; 160
    558e:	96 e0       	ldi	r25, 0x06	; 6
   uint32_t counter = 0;
    5590:	ed d5       	rcall	.+3034   	; 0x616c <Uart_Transmit_IT_PC>
    5592:	81 2c       	mov	r8, r1
    5594:	91 2c       	mov	r9, r1
   do
   {
     if(sectorEndFlag == 1) //special case when the last character in previous sector was '\r'
    5596:	54 01       	movw	r10, r8
    5598:	ff 24       	eor	r15, r15
    559a:	f3 94       	inc	r15
    559c:	2f 10       	cpse	r2, r15
	 {
	 	transmitByte ('\n');
    559e:	21 c0       	rjmp	.+66     	; 0x55e2 <writeFile+0x278>
    55a0:	8a e0       	ldi	r24, 0x0A	; 10
    55a2:	7a d7       	rcall	.+3828   	; 0x6498 <transmitByte>
        buffer[i++] = '\n'; //appending 'Line Feed (LF)' character
    55a4:	ee 89       	ldd	r30, Y+22	; 0x16
    55a6:	ff 89       	ldd	r31, Y+23	; 0x17
    55a8:	e2 5b       	subi	r30, 0xB2	; 178
    55aa:	f5 4f       	sbci	r31, 0xF5	; 245
    55ac:	8a e0       	ldi	r24, 0x0A	; 10
    55ae:	80 83       	st	Z, r24
		fileSize++;
    55b0:	80 91 2a 08 	lds	r24, 0x082A	; 0x80082a <fileSize>
    55b4:	90 91 2b 08 	lds	r25, 0x082B	; 0x80082b <fileSize+0x1>
    55b8:	a0 91 2c 08 	lds	r26, 0x082C	; 0x80082c <fileSize+0x2>
    55bc:	b0 91 2d 08 	lds	r27, 0x082D	; 0x80082d <fileSize+0x3>
    55c0:	01 96       	adiw	r24, 0x01	; 1
    55c2:	a1 1d       	adc	r26, r1
    55c4:	b1 1d       	adc	r27, r1
    55c6:	80 93 2a 08 	sts	0x082A, r24	; 0x80082a <fileSize>
    55ca:	90 93 2b 08 	sts	0x082B, r25	; 0x80082b <fileSize+0x1>
    55ce:	a0 93 2c 08 	sts	0x082C, r26	; 0x80082c <fileSize+0x2>
    55d2:	b0 93 2d 08 	sts	0x082D, r27	; 0x80082d <fileSize+0x3>
   do
   {
     if(sectorEndFlag == 1) //special case when the last character in previous sector was '\r'
	 {
	 	transmitByte ('\n');
        buffer[i++] = '\n'; //appending 'Line Feed (LF)' character
    55d6:	2e 89       	ldd	r18, Y+22	; 0x16
    55d8:	3f 89       	ldd	r19, Y+23	; 0x17
    55da:	2f 5f       	subi	r18, 0xFF	; 255
    55dc:	3f 4f       	sbci	r19, 0xFF	; 255
    55de:	3f 8b       	std	Y+23, r19	; 0x17
    55e0:	2e 8b       	std	Y+22, r18	; 0x16
		fileSize++;
	 }

	sectorEndFlag = 0;

	 data = *(INPUT + counter);
    55e2:	e9 81       	ldd	r30, Y+1	; 0x01
    55e4:	fa 81       	ldd	r31, Y+2	; 0x02
    55e6:	e8 0d       	add	r30, r8
    55e8:	f9 1d       	adc	r31, r9
	 if(data == 0x08)	//'Back Space' key pressed
    55ea:	10 81       	ld	r17, Z
	 { 
	   if(i != 0)
    55ec:	18 30       	cpi	r17, 0x08	; 8
    55ee:	29 f5       	brne	.+74     	; 0x563a <writeFile+0x2d0>
    55f0:	ce 88       	ldd	r12, Y+22	; 0x16
    55f2:	df 88       	ldd	r13, Y+23	; 0x17
    55f4:	c1 14       	cp	r12, r1
	   { 
	     transmitByte(data);
    55f6:	d1 04       	cpc	r13, r1
    55f8:	09 f4       	brne	.+2      	; 0x55fc <writeFile+0x292>
    55fa:	74 c2       	rjmp	.+1256   	; 0x5ae4 <writeFile+0x77a>
		 transmitByte(' '); 
    55fc:	88 e0       	ldi	r24, 0x08	; 8
    55fe:	4c d7       	rcall	.+3736   	; 0x6498 <transmitByte>
    5600:	80 e2       	ldi	r24, 0x20	; 32
	     transmitByte(data); 
    5602:	4a d7       	rcall	.+3732   	; 0x6498 <transmitByte>
    5604:	88 e0       	ldi	r24, 0x08	; 8
    5606:	48 d7       	rcall	.+3728   	; 0x6498 <transmitByte>
	     i--; 
    5608:	96 01       	movw	r18, r12
    560a:	21 50       	subi	r18, 0x01	; 1
    560c:	31 09       	sbc	r19, r1
    560e:	3f 8b       	std	Y+23, r19	; 0x17
    5610:	2e 8b       	std	Y+22, r18	; 0x16
		 fileSize--;
    5612:	80 91 2a 08 	lds	r24, 0x082A	; 0x80082a <fileSize>
    5616:	90 91 2b 08 	lds	r25, 0x082B	; 0x80082b <fileSize+0x1>
    561a:	a0 91 2c 08 	lds	r26, 0x082C	; 0x80082c <fileSize+0x2>
    561e:	b0 91 2d 08 	lds	r27, 0x082D	; 0x80082d <fileSize+0x3>
    5622:	01 97       	sbiw	r24, 0x01	; 1
    5624:	a1 09       	sbc	r26, r1
    5626:	b1 09       	sbc	r27, r1
    5628:	80 93 2a 08 	sts	0x082A, r24	; 0x80082a <fileSize>
    562c:	90 93 2b 08 	sts	0x082B, r25	; 0x80082b <fileSize+0x1>
    5630:	a0 93 2c 08 	sts	0x082C, r26	; 0x80082c <fileSize+0x2>
    5634:	b0 93 2d 08 	sts	0x082D, r27	; 0x80082d <fileSize+0x3>
	   } 
	   continue;     
	 }
	 transmitByte(data);
    5638:	55 c2       	rjmp	.+1194   	; 0x5ae4 <writeFile+0x77a>
    563a:	81 2f       	mov	r24, r17
    563c:	2d d7       	rcall	.+3674   	; 0x6498 <transmitByte>
     buffer[i++] = data;
    563e:	ee 88       	ldd	r14, Y+22	; 0x16
    5640:	ff 88       	ldd	r15, Y+23	; 0x17
    5642:	3f ef       	ldi	r19, 0xFF	; 255
    5644:	e3 1a       	sub	r14, r19
    5646:	f3 0a       	sbc	r15, r19
    5648:	ee 89       	ldd	r30, Y+22	; 0x16
    564a:	ff 89       	ldd	r31, Y+23	; 0x17
    564c:	e2 5b       	subi	r30, 0xB2	; 178
    564e:	f5 4f       	sbci	r31, 0xF5	; 245
    5650:	10 83       	st	Z, r17
	 fileSize++;
    5652:	80 91 2a 08 	lds	r24, 0x082A	; 0x80082a <fileSize>
    5656:	90 91 2b 08 	lds	r25, 0x082B	; 0x80082b <fileSize+0x1>
    565a:	a0 91 2c 08 	lds	r26, 0x082C	; 0x80082c <fileSize+0x2>
    565e:	b0 91 2d 08 	lds	r27, 0x082D	; 0x80082d <fileSize+0x3>
    5662:	01 96       	adiw	r24, 0x01	; 1
    5664:	a1 1d       	adc	r26, r1
    5666:	b1 1d       	adc	r27, r1
    5668:	80 93 2a 08 	sts	0x082A, r24	; 0x80082a <fileSize>
    566c:	90 93 2b 08 	sts	0x082B, r25	; 0x80082b <fileSize+0x1>
    5670:	a0 93 2c 08 	sts	0x082C, r26	; 0x80082c <fileSize+0x2>
    5674:	b0 93 2d 08 	sts	0x082D, r27	; 0x80082d <fileSize+0x3>
     if(data == '\r')  //'Carriege Return (CR)' character
    5678:	1d 30       	cpi	r17, 0x0D	; 13
     {
        if(i == 512)
    567a:	59 f5       	brne	.+86     	; 0x56d2 <writeFile+0x368>
    567c:	e1 14       	cp	r14, r1
    567e:	42 e0       	ldi	r20, 0x02	; 2
    5680:	f4 06       	cpc	r15, r20
		   sectorEndFlag = 1;  //flag to indicate that the appended '\n' char should be put in the next sector
	    else
		{ 
		   transmitByte ('\n');
    5682:	69 f1       	breq	.+90     	; 0x56de <writeFile+0x374>
    5684:	8a e0       	ldi	r24, 0x0A	; 10
    5686:	08 d7       	rcall	.+3600   	; 0x6498 <transmitByte>
           buffer[i++] = '\n'; //appending 'Line Feed (LF)' character
    5688:	8e 89       	ldd	r24, Y+22	; 0x16
    568a:	9f 89       	ldd	r25, Y+23	; 0x17
    568c:	02 96       	adiw	r24, 0x02	; 2
    568e:	9f 8b       	std	Y+23, r25	; 0x17
    5690:	8e 8b       	std	Y+22, r24	; 0x16
    5692:	f7 01       	movw	r30, r14
    5694:	e2 5b       	subi	r30, 0xB2	; 178
    5696:	f5 4f       	sbci	r31, 0xF5	; 245
    5698:	8a e0       	ldi	r24, 0x0A	; 10
    569a:	80 83       	st	Z, r24
		   fileSize++;
    569c:	80 91 2a 08 	lds	r24, 0x082A	; 0x80082a <fileSize>
    56a0:	90 91 2b 08 	lds	r25, 0x082B	; 0x80082b <fileSize+0x1>
    56a4:	a0 91 2c 08 	lds	r26, 0x082C	; 0x80082c <fileSize+0x2>
    56a8:	b0 91 2d 08 	lds	r27, 0x082D	; 0x80082d <fileSize+0x3>
    56ac:	01 96       	adiw	r24, 0x01	; 1
    56ae:	a1 1d       	adc	r26, r1
    56b0:	b1 1d       	adc	r27, r1
    56b2:	80 93 2a 08 	sts	0x082A, r24	; 0x80082a <fileSize>
    56b6:	90 93 2b 08 	sts	0x082B, r25	; 0x80082b <fileSize+0x1>
    56ba:	a0 93 2c 08 	sts	0x082C, r26	; 0x80082c <fileSize+0x2>
    56be:	b0 93 2d 08 	sts	0x082D, r27	; 0x80082d <fileSize+0x3>
	    }
     }
	 
     if(i >= 512)   //though 'i' will never become greater than 512, it's kept here to avoid 
    56c2:	ce 88       	ldd	r12, Y+22	; 0x16
    56c4:	df 88       	ldd	r13, Y+23	; 0x17
    56c6:	c1 14       	cp	r12, r1
    56c8:	22 e0       	ldi	r18, 0x02	; 2
    56ca:	d2 06       	cpc	r13, r18
    56cc:	08 f4       	brcc	.+2      	; 0x56d0 <writeFile+0x366>
    56ce:	10 c2       	rjmp	.+1056   	; 0x5af0 <writeFile+0x786>
    56d0:	08 c0       	rjmp	.+16     	; 0x56e2 <writeFile+0x378>
    56d2:	e1 14       	cp	r14, r1
    56d4:	32 e0       	ldi	r19, 0x02	; 2
    56d6:	f3 06       	cpc	r15, r19
    56d8:	70 f1       	brcs	.+92     	; 0x5736 <writeFile+0x3cc>
    56da:	23 2c       	mov	r2, r3
     buffer[i++] = data;
	 fileSize++;
     if(data == '\r')  //'Carriege Return (CR)' character
     {
        if(i == 512)
		   sectorEndFlag = 1;  //flag to indicate that the appended '\n' char should be put in the next sector
    56dc:	03 c0       	rjmp	.+6      	; 0x56e4 <writeFile+0x37a>
    56de:	2b 80       	ldd	r2, Y+3	; 0x03
           buffer[i++] = '\n'; //appending 'Line Feed (LF)' character
		   fileSize++;
	    }
     }
	 
     if(i >= 512)   //though 'i' will never become greater than 512, it's kept here to avoid 
    56e0:	01 c0       	rjmp	.+2      	; 0x56e4 <writeFile+0x37a>
	 {				//infinite loop in case it happens to be greater than 512 due to some data corruption
	   i=0;
	   error = SD_writeSingleBlock (startBlock);
    56e2:	23 2c       	mov	r2, r3
    56e4:	60 91 41 09 	lds	r22, 0x0941	; 0x800941 <startBlock>
    56e8:	70 91 42 09 	lds	r23, 0x0942	; 0x800942 <startBlock+0x1>
    56ec:	80 91 43 09 	lds	r24, 0x0943	; 0x800943 <startBlock+0x2>
    56f0:	90 91 44 09 	lds	r25, 0x0944	; 0x800944 <startBlock+0x3>
    56f4:	3c d3       	rcall	.+1656   	; 0x5d6e <SD_writeSingleBlock>
       j++;
    56f6:	0f 5f       	subi	r16, 0xFF	; 255
	   if(j == sectorPerCluster) {j = 0; break;}
    56f8:	80 91 4f 0c 	lds	r24, 0x0C4F	; 0x800c4f <sectorPerCluster>
    56fc:	90 91 50 0c 	lds	r25, 0x0C50	; 0x800c50 <sectorPerCluster+0x1>
    5700:	20 2f       	mov	r18, r16
    5702:	30 e0       	ldi	r19, 0x00	; 0
    5704:	28 17       	cp	r18, r24
    5706:	39 07       	cpc	r19, r25
    5708:	11 f1       	breq	.+68     	; 0x574e <writeFile+0x3e4>
	   startBlock++; 
    570a:	80 91 41 09 	lds	r24, 0x0941	; 0x800941 <startBlock>
    570e:	90 91 42 09 	lds	r25, 0x0942	; 0x800942 <startBlock+0x1>
    5712:	a0 91 43 09 	lds	r26, 0x0943	; 0x800943 <startBlock+0x2>
    5716:	b0 91 44 09 	lds	r27, 0x0944	; 0x800944 <startBlock+0x3>
    571a:	01 96       	adiw	r24, 0x01	; 1
    571c:	a1 1d       	adc	r26, r1
    571e:	b1 1d       	adc	r27, r1
    5720:	80 93 41 09 	sts	0x0941, r24	; 0x800941 <startBlock>
    5724:	90 93 42 09 	sts	0x0942, r25	; 0x800942 <startBlock+0x1>
    5728:	a0 93 43 09 	sts	0x0943, r26	; 0x800943 <startBlock+0x2>
    572c:	b0 93 44 09 	sts	0x0944, r27	; 0x800944 <startBlock+0x3>
	    }
     }
	 
     if(i >= 512)   //though 'i' will never become greater than 512, it's kept here to avoid 
	 {				//infinite loop in case it happens to be greater than 512 due to some data corruption
	   i=0;
    5730:	1f 8a       	std	Y+23, r1	; 0x17
    5732:	1e 8a       	std	Y+22, r1	; 0x16
    5734:	03 c0       	rjmp	.+6      	; 0x573c <writeFile+0x3d2>
		 fileSize--;
	   } 
	   continue;     
	 }
	 transmitByte(data);
     buffer[i++] = data;
    5736:	ff 8a       	std	Y+23, r15	; 0x17
    5738:	ee 8a       	std	Y+22, r14	; 0x16
    573a:	23 2c       	mov	r2, r3
	   error = SD_writeSingleBlock (startBlock);
       j++;
	   if(j == sectorPerCluster) {j = 0; break;}
	   startBlock++; 
     }
	 counter ++;
    573c:	4f ef       	ldi	r20, 0xFF	; 255
    573e:	84 1a       	sub	r8, r20
    5740:	94 0a       	sbc	r9, r20
    5742:	a4 0a       	sbc	r10, r20
    5744:	b4 0a       	sbc	r11, r20
	}while (data != '~');
    5746:	1e 37       	cpi	r17, 0x7E	; 126
    5748:	09 f0       	breq	.+2      	; 0x574c <writeFile+0x3e2>
    574a:	26 cf       	rjmp	.-436    	; 0x5598 <writeFile+0x22e>
    574c:	04 c0       	rjmp	.+8      	; 0x5756 <writeFile+0x3ec>

   if(data == '~') 
    574e:	1e 37       	cpi	r17, 0x7E	; 126
    5750:	09 f0       	breq	.+2      	; 0x5754 <writeFile+0x3ea>
    5752:	3f c0       	rjmp	.+126    	; 0x57d2 <writeFile+0x468>
    5754:	d4 c1       	rjmp	.+936    	; 0x5afe <writeFile+0x794>
    5756:	ce 88       	ldd	r12, Y+22	; 0x16
    5758:	df 88       	ldd	r13, Y+23	; 0x17
   {
      fileSize--;	//to remove the last entered '~' character
    575a:	80 91 2a 08 	lds	r24, 0x082A	; 0x80082a <fileSize>
    575e:	90 91 2b 08 	lds	r25, 0x082B	; 0x80082b <fileSize+0x1>
    5762:	a0 91 2c 08 	lds	r26, 0x082C	; 0x80082c <fileSize+0x2>
    5766:	b0 91 2d 08 	lds	r27, 0x082D	; 0x80082d <fileSize+0x3>
    576a:	01 97       	sbiw	r24, 0x01	; 1
    576c:	a1 09       	sbc	r26, r1
    576e:	b1 09       	sbc	r27, r1
    5770:	80 93 2a 08 	sts	0x082A, r24	; 0x80082a <fileSize>
    5774:	90 93 2b 08 	sts	0x082B, r25	; 0x80082b <fileSize+0x1>
    5778:	a0 93 2c 08 	sts	0x082C, r26	; 0x80082c <fileSize+0x2>
    577c:	b0 93 2d 08 	sts	0x082D, r27	; 0x80082d <fileSize+0x3>
	  i--;
    5780:	96 01       	movw	r18, r12
    5782:	21 50       	subi	r18, 0x01	; 1
    5784:	31 09       	sbc	r19, r1
    5786:	3a 83       	std	Y+2, r19	; 0x02
    5788:	29 83       	std	Y+1, r18	; 0x01
	  for(;i<512;i++)  //fill the rest of the buffer with 0x00
    578a:	21 15       	cp	r18, r1
    578c:	32 40       	sbci	r19, 0x02	; 2
    578e:	68 f4       	brcc	.+26     	; 0x57aa <writeFile+0x440>
        buffer[i]= 0x00;
    5790:	e9 81       	ldd	r30, Y+1	; 0x01
    5792:	fa 81       	ldd	r31, Y+2	; 0x02
    5794:	e2 5b       	subi	r30, 0xB2	; 178
    5796:	f5 4f       	sbci	r31, 0xF5	; 245
    5798:	10 82       	st	Z, r1

   if(data == '~') 
   {
      fileSize--;	//to remove the last entered '~' character
	  i--;
	  for(;i<512;i++)  //fill the rest of the buffer with 0x00
    579a:	89 81       	ldd	r24, Y+1	; 0x01
    579c:	9a 81       	ldd	r25, Y+2	; 0x02
    579e:	01 96       	adiw	r24, 0x01	; 1
    57a0:	9a 83       	std	Y+2, r25	; 0x02
    57a2:	89 83       	std	Y+1, r24	; 0x01
    57a4:	81 15       	cp	r24, r1
        buffer[i]= 0x00;
   	  error = SD_writeSingleBlock (startBlock);
    57a6:	92 40       	sbci	r25, 0x02	; 2
    57a8:	99 f7       	brne	.-26     	; 0x5790 <writeFile+0x426>
    57aa:	60 91 41 09 	lds	r22, 0x0941	; 0x800941 <startBlock>
    57ae:	70 91 42 09 	lds	r23, 0x0942	; 0x800942 <startBlock+0x1>
    57b2:	80 91 43 09 	lds	r24, 0x0943	; 0x800943 <startBlock+0x2>
    57b6:	90 91 44 09 	lds	r25, 0x0944	; 0x800944 <startBlock+0x3>

   getSetNextCluster(prevCluster, SET, cluster);
   getSetNextCluster(cluster, SET, EOF);   //last cluster of the file, marked EOF
}        

getSetFreeCluster (NEXT_FREE, SET, cluster); //update FSinfo next free cluster entry
    57ba:	d9 d2       	rcall	.+1458   	; 0x5d6e <SD_writeSingleBlock>
    57bc:	a3 01       	movw	r20, r6
    57be:	92 01       	movw	r18, r4
    57c0:	61 e0       	ldi	r22, 0x01	; 1
    57c2:	82 e0       	ldi	r24, 0x02	; 2
    57c4:	0e 94 9b 23 	call	0x4736	; 0x4736 <getSetFreeCluster>

if(appendFile)  //executes this loop if file is to be appended
    57c8:	c9 88       	ldd	r12, Y+17	; 0x11
    57ca:	cc 20       	and	r12, r12
      break;
   } 
	  
   prevCluster = cluster;

   cluster = searchNextFreeCluster(prevCluster); //look for a free cluster starting from the current cluster
    57cc:	09 f4       	brne	.+2      	; 0x57d0 <writeFile+0x466>
    57ce:	65 c0       	rjmp	.+202    	; 0x589a <writeFile+0x530>
    57d0:	26 c0       	rjmp	.+76     	; 0x581e <writeFile+0x4b4>
    57d2:	c3 01       	movw	r24, r6
    57d4:	b2 01       	movw	r22, r4

   if(cluster == 0)
    57d6:	91 d9       	rcall	.-3294   	; 0x4afa <searchNextFreeCluster>
    57d8:	6b 01       	movw	r12, r22
    57da:	7c 01       	movw	r14, r24
    57dc:	61 15       	cp	r22, r1
    57de:	71 05       	cpc	r23, r1
   {
      TX_NEWLINE;
    57e0:	81 05       	cpc	r24, r1
    57e2:	91 05       	cpc	r25, r1
    57e4:	41 f4       	brne	.+16     	; 0x57f6 <writeFile+0x48c>
    57e6:	8d e0       	ldi	r24, 0x0D	; 13
    57e8:	57 d6       	rcall	.+3246   	; 0x6498 <transmitByte>
    57ea:	8a e0       	ldi	r24, 0x0A	; 10
      Uart_Transmit_IT_PC((char*)(" No free cluster!"));
    57ec:	55 d6       	rcall	.+3242   	; 0x6498 <transmitByte>
    57ee:	8e e8       	ldi	r24, 0x8E	; 142
    57f0:	96 e0       	ldi	r25, 0x06	; 6
    57f2:	bc d4       	rcall	.+2424   	; 0x616c <Uart_Transmit_IT_PC>
	  return;
    57f4:	98 c1       	rjmp	.+816    	; 0x5b26 <writeFile+0x7bc>
   }

   getSetNextCluster(prevCluster, SET, cluster);
    57f6:	8b 01       	movw	r16, r22
    57f8:	9c 01       	movw	r18, r24
    57fa:	41 e0       	ldi	r20, 0x01	; 1
    57fc:	c3 01       	movw	r24, r6
    57fe:	b2 01       	movw	r22, r4
    5800:	0e 94 22 23 	call	0x4644	; 0x4644 <getSetNextCluster>
   getSetNextCluster(cluster, SET, EOF);   //last cluster of the file, marked EOF
    5804:	0f ef       	ldi	r16, 0xFF	; 255
    5806:	1f ef       	ldi	r17, 0xFF	; 255
    5808:	2f ef       	ldi	r18, 0xFF	; 255
    580a:	3f e0       	ldi	r19, 0x0F	; 15
    580c:	41 e0       	ldi	r20, 0x01	; 1
    580e:	c7 01       	movw	r24, r14
    5810:	b6 01       	movw	r22, r12
    5812:	0e 94 22 23 	call	0x4644	; 0x4644 <getSetNextCluster>
      break;
   } 
	  
   prevCluster = cluster;

   cluster = searchNextFreeCluster(prevCluster); //look for a free cluster starting from the current cluster
    5816:	80 e0       	ldi	r24, 0x00	; 0
    5818:	26 01       	movw	r4, r12
	  return;
   }

   getSetNextCluster(prevCluster, SET, cluster);
   getSetNextCluster(cluster, SET, EOF);   //last cluster of the file, marked EOF
}        
    581a:	37 01       	movw	r6, r14

getSetFreeCluster (NEXT_FREE, SET, cluster); //update FSinfo next free cluster entry

if(appendFile)  //executes this loop if file is to be appended
{
  SD_readSingleBlock (appendFileSector);    
    581c:	74 ce       	rjmp	.-792    	; 0x5506 <writeFile+0x19c>
    581e:	60 91 c0 10 	lds	r22, 0x10C0	; 0x8010c0 <appendFileSector>
    5822:	70 91 c1 10 	lds	r23, 0x10C1	; 0x8010c1 <appendFileSector+0x1>
    5826:	80 91 c2 10 	lds	r24, 0x10C2	; 0x8010c2 <appendFileSector+0x2>
    582a:	90 91 c3 10 	lds	r25, 0x10C3	; 0x8010c3 <appendFileSector+0x3>
    582e:	77 d2       	rcall	.+1262   	; 0x5d1e <SD_readSingleBlock>
  dir = (struct dir_Structure *) &buffer[appendFileLocation]; 
    5830:	e0 91 0f 08 	lds	r30, 0x080F	; 0x80080f <appendFileLocation>
    5834:	f0 91 10 08 	lds	r31, 0x0810	; 0x800810 <appendFileLocation+0x1>
    5838:	e2 5b       	subi	r30, 0xB2	; 178
    583a:	f5 4f       	sbci	r31, 0xF5	; 245
  extraMemory = fileSize - dir->fileSize;
    583c:	80 91 2a 08 	lds	r24, 0x082A	; 0x80082a <fileSize>
    5840:	90 91 2b 08 	lds	r25, 0x082B	; 0x80082b <fileSize+0x1>
    5844:	a0 91 2c 08 	lds	r26, 0x082C	; 0x80082c <fileSize+0x2>
    5848:	b0 91 2d 08 	lds	r27, 0x082D	; 0x80082d <fileSize+0x3>
    584c:	44 8d       	ldd	r20, Z+28	; 0x1c
    584e:	55 8d       	ldd	r21, Z+29	; 0x1d
    5850:	66 8d       	ldd	r22, Z+30	; 0x1e
    5852:	77 8d       	ldd	r23, Z+31	; 0x1f
    5854:	6c 01       	movw	r12, r24
    5856:	7d 01       	movw	r14, r26
    5858:	c4 1a       	sub	r12, r20
  dir->fileSize = fileSize;
    585a:	d5 0a       	sbc	r13, r21
    585c:	e6 0a       	sbc	r14, r22
    585e:	f7 0a       	sbc	r15, r23
  SD_writeSingleBlock (appendFileSector);
    5860:	84 8f       	std	Z+28, r24	; 0x1c
    5862:	95 8f       	std	Z+29, r25	; 0x1d
    5864:	a6 8f       	std	Z+30, r26	; 0x1e
    5866:	b7 8f       	std	Z+31, r27	; 0x1f
    5868:	60 91 c0 10 	lds	r22, 0x10C0	; 0x8010c0 <appendFileSector>
    586c:	70 91 c1 10 	lds	r23, 0x10C1	; 0x8010c1 <appendFileSector+0x1>
  freeMemoryUpdate (REMOVE, extraMemory); //updating free memory count in FSinfo sector;
    5870:	80 91 c2 10 	lds	r24, 0x10C2	; 0x8010c2 <appendFileSector+0x2>
    5874:	90 91 c3 10 	lds	r25, 0x10C3	; 0x8010c3 <appendFileSector+0x3>
    5878:	7a d2       	rcall	.+1268   	; 0x5d6e <SD_writeSingleBlock>

  
  TX_NEWLINE;
    587a:	b7 01       	movw	r22, r14
    587c:	a6 01       	movw	r20, r12
    587e:	81 e0       	ldi	r24, 0x01	; 1
    5880:	3f da       	rcall	.-2946   	; 0x4d00 <freeMemoryUpdate>
    5882:	8d e0       	ldi	r24, 0x0D	; 13
    5884:	09 d6       	rcall	.+3090   	; 0x6498 <transmitByte>
  Uart_Transmit_IT_PC((char*)(" File appended!"));
    5886:	8a e0       	ldi	r24, 0x0A	; 10
    5888:	07 d6       	rcall	.+3086   	; 0x6498 <transmitByte>
    588a:	8a eb       	ldi	r24, 0xBA	; 186
    588c:	96 e0       	ldi	r25, 0x06	; 6
  TX_NEWLINE;
    588e:	6e d4       	rcall	.+2268   	; 0x616c <Uart_Transmit_IT_PC>
    5890:	8d e0       	ldi	r24, 0x0D	; 13
    5892:	02 d6       	rcall	.+3076   	; 0x6498 <transmitByte>
    5894:	8a e0       	ldi	r24, 0x0A	; 10
    5896:	00 d6       	rcall	.+3072   	; 0x6498 <transmitByte>
    5898:	46 c1       	rjmp	.+652    	; 0x5b26 <writeFile+0x7bc>
  return;
    589a:	c0 90 3b 08 	lds	r12, 0x083B	; 0x80083b <rootCluster>
}

//executes following portion when new file is created

prevCluster = rootCluster; //root cluster
    589e:	d0 90 3c 08 	lds	r13, 0x083C	; 0x80083c <rootCluster+0x1>
    58a2:	e0 90 3d 08 	lds	r14, 0x083D	; 0x80083d <rootCluster+0x2>
    58a6:	f0 90 3e 08 	lds	r15, 0x083E	; 0x80083e <rootCluster+0x3>
    58aa:	cb 82       	std	Y+3, r12	; 0x03
    58ac:	dc 82       	std	Y+4, r13	; 0x04
    58ae:	ed 82       	std	Y+5, r14	; 0x05
    58b0:	fe 82       	std	Y+6, r15	; 0x06
    58b2:	19 82       	std	Y+1, r1	; 0x01
//Arguments: pointer to the file name
//return: none
//************************************************************************************
void writeFile (unsigned char *fileName, unsigned char * INPUT)
{
unsigned char j, data, error, fileCreatedFlag = 0, start = 0, appendFile = 0, sectorEndFlag = 0, sector;
    58b4:	2f 81       	ldd	r18, Y+7	; 0x07
    58b6:	38 85       	ldd	r19, Y+8	; 0x08
    58b8:	25 5f       	subi	r18, 0xF5	; 245
    58ba:	3f 4f       	sbci	r19, 0xFF	; 255
    58bc:	68 94       	set

        if((dir->name[0] == EMPTY) || (dir->name[0] == DELETED))  //looking for an empty slot to enter file info
		{
		  for(j=0; j<11; j++)
  			dir->name[j] = fileName[j];
		  dir->attrib = ATTR_ARCHIVE;	//settting file attribute as 'archive'
    58be:	66 24       	eor	r6, r6
    58c0:	65 f8       	bld	r6, 5
    58c2:	0f 2e       	mov	r0, r31
		  dir->NTreserved = 0;			//always set to 0
		  dir->timeTenth = 0;			//always set to 0
		  dir->createTime = 0x9684;		//fixed time of creation
    58c4:	f4 e8       	ldi	r31, 0x84	; 132
    58c6:	2f 2e       	mov	r2, r31
    58c8:	f6 e9       	ldi	r31, 0x96	; 150
    58ca:	3f 2e       	mov	r3, r31
    58cc:	f0 2d       	mov	r31, r0
    58ce:	0f 2e       	mov	r0, r31
		  dir->createDate = 0x3a37;		//fixed date of creation
    58d0:	f7 e3       	ldi	r31, 0x37	; 55
    58d2:	4f 2e       	mov	r4, r31
    58d4:	fa e3       	ldi	r31, 0x3A	; 58
    58d6:	5f 2e       	mov	r5, r31
    58d8:	f0 2d       	mov	r31, r0
    58da:	ea 88       	ldd	r14, Y+18	; 0x12
    58dc:	fb 88       	ldd	r15, Y+19	; 0x13
    58de:	cc 88       	ldd	r12, Y+20	; 0x14
    58e0:	dd 88       	ldd	r13, Y+21	; 0x15
    58e2:	3e 87       	std	Y+14, r19	; 0x0e
    58e4:	2d 87       	std	Y+13, r18	; 0x0d
    58e6:	6b 81       	ldd	r22, Y+3	; 0x03

prevCluster = rootCluster; //root cluster

while(1)
{
   firstSector = getFirstSector (prevCluster);
    58e8:	7c 81       	ldd	r23, Y+4	; 0x04
    58ea:	8d 81       	ldd	r24, Y+5	; 0x05
    58ec:	9e 81       	ldd	r25, Y+6	; 0x06
    58ee:	0e 94 01 23 	call	0x4602	; 0x4602 <getFirstSector>
    58f2:	69 87       	std	Y+9, r22	; 0x09
    58f4:	7a 87       	std	Y+10, r23	; 0x0a
    58f6:	8b 87       	std	Y+11, r24	; 0x0b
    58f8:	9c 87       	std	Y+12, r25	; 0x0c

   for(sector = 0; sector < sectorPerCluster; sector++)
    58fa:	80 91 4f 0c 	lds	r24, 0x0C4F	; 0x800c4f <sectorPerCluster>
    58fe:	90 91 50 0c 	lds	r25, 0x0C50	; 0x800c50 <sectorPerCluster+0x1>
    5902:	89 2b       	or	r24, r25
    5904:	09 f4       	brne	.+2      	; 0x5908 <writeFile+0x59e>
    5906:	9f c0       	rjmp	.+318    	; 0x5a46 <writeFile+0x6dc>
    5908:	71 2c       	mov	r7, r1
   {
     SD_readSingleBlock (firstSector + sector);
    590a:	89 84       	ldd	r8, Y+9	; 0x09
    590c:	9a 84       	ldd	r9, Y+10	; 0x0a
    590e:	ab 84       	ldd	r10, Y+11	; 0x0b
    5910:	bc 84       	ldd	r11, Y+12	; 0x0c
    5912:	87 0c       	add	r8, r7
    5914:	91 1c       	adc	r9, r1
    5916:	a1 1c       	adc	r10, r1
    5918:	b1 1c       	adc	r11, r1
    591a:	c5 01       	movw	r24, r10
    591c:	b4 01       	movw	r22, r8
    591e:	ff d1       	rcall	.+1022   	; 0x5d1e <SD_readSingleBlock>
    5920:	80 91 2e 08 	lds	r24, 0x082E	; 0x80082e <bytesPerSector>
	

     for(i=0; i<bytesPerSector; i+=32)
    5924:	90 91 2f 08 	lds	r25, 0x082F	; 0x80082f <bytesPerSector+0x1>
    5928:	89 2b       	or	r24, r25
    592a:	09 f4       	brne	.+2      	; 0x592e <writeFile+0x5c4>
    592c:	81 c0       	rjmp	.+258    	; 0x5a30 <writeFile+0x6c6>
    592e:	59 81       	ldd	r21, Y+1	; 0x01
     {
	    dir = (struct dir_Structure *) &buffer[i];

		if(fileCreatedFlag)   //to mark last directory entry with 0x00 (empty) mark
    5930:	51 11       	cpse	r21, r1
    5932:	07 c0       	rjmp	.+14     	; 0x5942 <writeFile+0x5d8>
    5934:	8e e4       	ldi	r24, 0x4E	; 78
    5936:	9a e0       	ldi	r25, 0x0A	; 10
    5938:	00 e0       	ldi	r16, 0x00	; 0
    593a:	10 e0       	ldi	r17, 0x00	; 0
    593c:	06 c0       	rjmp	.+12     	; 0x594a <writeFile+0x5e0>
    593e:	80 96       	adiw	r24, 0x20	; 32
    5940:	04 c0       	rjmp	.+8      	; 0x594a <writeFile+0x5e0>
    5942:	ee e4       	ldi	r30, 0x4E	; 78
     SD_readSingleBlock (firstSector + sector);
	

     for(i=0; i<bytesPerSector; i+=32)
     {
	    dir = (struct dir_Structure *) &buffer[i];
    5944:	fa e0       	ldi	r31, 0x0A	; 10
    5946:	10 82       	st	Z, r1

		if(fileCreatedFlag)   //to mark last directory entry with 0x00 (empty) mark
		 { 					  //indicating end of the directory file list
		   dir->name[0] = 0x00;
    5948:	ee c0       	rjmp	.+476    	; 0x5b26 <writeFile+0x7bc>
           return;
    594a:	fc 01       	movw	r30, r24
         }

        if((dir->name[0] == EMPTY) || (dir->name[0] == DELETED))  //looking for an empty slot to enter file info
    594c:	20 81       	ld	r18, Z
    594e:	22 23       	and	r18, r18
    5950:	19 f0       	breq	.+6      	; 0x5958 <writeFile+0x5ee>
    5952:	25 3e       	cpi	r18, 0xE5	; 229
    5954:	09 f0       	breq	.+2      	; 0x5958 <writeFile+0x5ee>
    5956:	62 c0       	rjmp	.+196    	; 0x5a1c <writeFile+0x6b2>
    5958:	ef 81       	ldd	r30, Y+7	; 0x07
    595a:	f8 85       	ldd	r31, Y+8	; 0x08
    595c:	dc 01       	movw	r26, r24
    595e:	21 91       	ld	r18, Z+
		{
		  for(j=0; j<11; j++)
  			dir->name[j] = fileName[j];
    5960:	2d 93       	st	X+, r18
    5962:	4d 85       	ldd	r20, Y+13	; 0x0d
           return;
         }

        if((dir->name[0] == EMPTY) || (dir->name[0] == DELETED))  //looking for an empty slot to enter file info
		{
		  for(j=0; j<11; j++)
    5964:	5e 85       	ldd	r21, Y+14	; 0x0e
    5966:	4e 17       	cp	r20, r30
    5968:	5f 07       	cpc	r21, r31
    596a:	c9 f7       	brne	.-14     	; 0x595e <writeFile+0x5f4>
    596c:	dc 01       	movw	r26, r24
  			dir->name[j] = fileName[j];
		  dir->attrib = ATTR_ARCHIVE;	//settting file attribute as 'archive'
    596e:	1b 96       	adiw	r26, 0x0b	; 11
    5970:	6c 92       	st	X, r6
    5972:	1b 97       	sbiw	r26, 0x0b	; 11
    5974:	1c 96       	adiw	r26, 0x0c	; 12
		  dir->NTreserved = 0;			//always set to 0
    5976:	1c 92       	st	X, r1
    5978:	1c 97       	sbiw	r26, 0x0c	; 12
    597a:	1d 96       	adiw	r26, 0x0d	; 13
		  dir->timeTenth = 0;			//always set to 0
    597c:	1c 92       	st	X, r1
    597e:	1d 97       	sbiw	r26, 0x0d	; 13
    5980:	1f 96       	adiw	r26, 0x0f	; 15
		  dir->createTime = 0x9684;		//fixed time of creation
    5982:	3c 92       	st	X, r3
    5984:	2e 92       	st	-X, r2
    5986:	1e 97       	sbiw	r26, 0x0e	; 14
    5988:	51 96       	adiw	r26, 0x11	; 17
		  dir->createDate = 0x3a37;		//fixed date of creation
    598a:	5c 92       	st	X, r5
    598c:	4e 92       	st	-X, r4
    598e:	50 97       	sbiw	r26, 0x10	; 16
    5990:	53 96       	adiw	r26, 0x13	; 19
		  dir->lastAccessDate = 0x3a37;	//fixed date of last access
    5992:	5c 92       	st	X, r5
    5994:	4e 92       	st	-X, r4
    5996:	52 97       	sbiw	r26, 0x12	; 18
    5998:	57 96       	adiw	r26, 0x17	; 23
		  dir->writeTime = 0x9684;		//fixed time of last write
    599a:	3c 92       	st	X, r3
    599c:	2e 92       	st	-X, r2
    599e:	56 97       	sbiw	r26, 0x16	; 22
		  dir->writeDate = 0x3a37;		//fixed date of last write
    59a0:	59 96       	adiw	r26, 0x19	; 25
    59a2:	5c 92       	st	X, r5
		  dir->firstClusterHI = firstClusterHigh;
    59a4:	4e 92       	st	-X, r4
    59a6:	58 97       	sbiw	r26, 0x18	; 24
		  dir->firstClusterLO = firstClusterLow;
    59a8:	55 96       	adiw	r26, 0x15	; 21
    59aa:	fc 92       	st	X, r15
		  dir->fileSize = fileSize;
    59ac:	ee 92       	st	-X, r14
    59ae:	54 97       	sbiw	r26, 0x14	; 20
    59b0:	5b 96       	adiw	r26, 0x1b	; 27
    59b2:	dc 92       	st	X, r13
    59b4:	ce 92       	st	-X, r12
    59b6:	5a 97       	sbiw	r26, 0x1a	; 26
    59b8:	40 91 2a 08 	lds	r20, 0x082A	; 0x80082a <fileSize>
    59bc:	50 91 2b 08 	lds	r21, 0x082B	; 0x80082b <fileSize+0x1>
    59c0:	60 91 2c 08 	lds	r22, 0x082C	; 0x80082c <fileSize+0x2>
    59c4:	70 91 2d 08 	lds	r23, 0x082D	; 0x80082d <fileSize+0x3>

		  SD_writeSingleBlock (firstSector + sector);
    59c8:	fc 01       	movw	r30, r24
    59ca:	44 8f       	std	Z+28, r20	; 0x1c
    59cc:	55 8f       	std	Z+29, r21	; 0x1d
		  fileCreatedFlag = 1;

		  TX_NEWLINE;
    59ce:	66 8f       	std	Z+30, r22	; 0x1e
    59d0:	77 8f       	std	Z+31, r23	; 0x1f
    59d2:	c5 01       	movw	r24, r10
    59d4:	b4 01       	movw	r22, r8
    59d6:	cb d1       	rcall	.+918    	; 0x5d6e <SD_writeSingleBlock>
    59d8:	8d e0       	ldi	r24, 0x0D	; 13
		  TX_NEWLINE;
    59da:	5e d5       	rcall	.+2748   	; 0x6498 <transmitByte>
    59dc:	8a e0       	ldi	r24, 0x0A	; 10
    59de:	5c d5       	rcall	.+2744   	; 0x6498 <transmitByte>
    59e0:	8d e0       	ldi	r24, 0x0D	; 13
    59e2:	5a d5       	rcall	.+2740   	; 0x6498 <transmitByte>
    59e4:	8a e0       	ldi	r24, 0x0A	; 10
		  Uart_Transmit_IT_PC((char*)(" File Created!"));
    59e6:	58 d5       	rcall	.+2736   	; 0x6498 <transmitByte>
    59e8:	8a ec       	ldi	r24, 0xCA	; 202
    59ea:	96 e0       	ldi	r25, 0x06	; 6
    59ec:	bf d3       	rcall	.+1918   	; 0x616c <Uart_Transmit_IT_PC>

		  freeMemoryUpdate (REMOVE, fileSize); //updating free memory count in FSinfo sector
    59ee:	40 91 2a 08 	lds	r20, 0x082A	; 0x80082a <fileSize>
    59f2:	50 91 2b 08 	lds	r21, 0x082B	; 0x80082b <fileSize+0x1>
    59f6:	60 91 2c 08 	lds	r22, 0x082C	; 0x80082c <fileSize+0x2>
    59fa:	70 91 2d 08 	lds	r23, 0x082D	; 0x80082d <fileSize+0x3>
    59fe:	81 e0       	ldi	r24, 0x01	; 1
    5a00:	7f d9       	rcall	.-3330   	; 0x4d00 <freeMemoryUpdate>
    5a02:	00 5e       	subi	r16, 0xE0	; 224
   for(sector = 0; sector < sectorPerCluster; sector++)
   {
     SD_readSingleBlock (firstSector + sector);
	

     for(i=0; i<bytesPerSector; i+=32)
    5a04:	1f 4f       	sbci	r17, 0xFF	; 255
    5a06:	80 91 2e 08 	lds	r24, 0x082E	; 0x80082e <bytesPerSector>
    5a0a:	90 91 2f 08 	lds	r25, 0x082F	; 0x80082f <bytesPerSector+0x1>
    5a0e:	08 17       	cp	r16, r24
    5a10:	19 07       	cpc	r17, r25
    5a12:	08 f4       	brcc	.+2      	; 0x5a16 <writeFile+0x6ac>
    5a14:	69 c0       	rjmp	.+210    	; 0x5ae8 <writeFile+0x77e>
    5a16:	f1 e0       	ldi	r31, 0x01	; 1
		  dir->firstClusterHI = firstClusterHigh;
		  dir->firstClusterLO = firstClusterLow;
		  dir->fileSize = fileSize;

		  SD_writeSingleBlock (firstSector + sector);
		  fileCreatedFlag = 1;
    5a18:	f9 83       	std	Y+1, r31	; 0x01
    5a1a:	0a c0       	rjmp	.+20     	; 0x5a30 <writeFile+0x6c6>
    5a1c:	00 5e       	subi	r16, 0xE0	; 224
   for(sector = 0; sector < sectorPerCluster; sector++)
   {
     SD_readSingleBlock (firstSector + sector);
	

     for(i=0; i<bytesPerSector; i+=32)
    5a1e:	1f 4f       	sbci	r17, 0xFF	; 255
    5a20:	20 91 2e 08 	lds	r18, 0x082E	; 0x80082e <bytesPerSector>
    5a24:	30 91 2f 08 	lds	r19, 0x082F	; 0x80082f <bytesPerSector+0x1>
    5a28:	02 17       	cp	r16, r18
    5a2a:	13 07       	cpc	r17, r19
    5a2c:	08 f4       	brcc	.+2      	; 0x5a30 <writeFile+0x6c6>
    5a2e:	87 cf       	rjmp	.-242    	; 0x593e <writeFile+0x5d4>

while(1)
{
   firstSector = getFirstSector (prevCluster);

   for(sector = 0; sector < sectorPerCluster; sector++)
    5a30:	73 94       	inc	r7
    5a32:	80 91 4f 0c 	lds	r24, 0x0C4F	; 0x800c4f <sectorPerCluster>
    5a36:	90 91 50 0c 	lds	r25, 0x0C50	; 0x800c50 <sectorPerCluster+0x1>
    5a3a:	27 2d       	mov	r18, r7
    5a3c:	30 e0       	ldi	r19, 0x00	; 0
    5a3e:	28 17       	cp	r18, r24
    5a40:	39 07       	cpc	r19, r25
    5a42:	08 f4       	brcc	.+2      	; 0x5a46 <writeFile+0x6dc>
    5a44:	62 cf       	rjmp	.-316    	; 0x590a <writeFile+0x5a0>
	     
        }
     }
   }

   cluster = getSetNextCluster (prevCluster, GET, 0);
    5a46:	00 e0       	ldi	r16, 0x00	; 0
    5a48:	10 e0       	ldi	r17, 0x00	; 0
    5a4a:	98 01       	movw	r18, r16
    5a4c:	40 e0       	ldi	r20, 0x00	; 0
    5a4e:	6b 81       	ldd	r22, Y+3	; 0x03
    5a50:	7c 81       	ldd	r23, Y+4	; 0x04
    5a52:	8d 81       	ldd	r24, Y+5	; 0x05
    5a54:	9e 81       	ldd	r25, Y+6	; 0x06
    5a56:	0e 94 22 23 	call	0x4644	; 0x4644 <getSetNextCluster>

   if(cluster > 0x0ffffff6)
    5a5a:	67 3f       	cpi	r22, 0xF7	; 247
    5a5c:	5f ef       	ldi	r21, 0xFF	; 255
    5a5e:	75 07       	cpc	r23, r21
    5a60:	85 07       	cpc	r24, r21
    5a62:	5f e0       	ldi	r21, 0x0F	; 15
    5a64:	95 07       	cpc	r25, r21
    5a66:	68 f1       	brcs	.+90     	; 0x5ac2 <writeFile+0x758>
   {
      if(cluster == EOF)   //this situation will come when total files in root is multiple of (32*sectorPerCluster)
    5a68:	6f 3f       	cpi	r22, 0xFF	; 255
    5a6a:	7f 4f       	sbci	r23, 0xFF	; 255
    5a6c:	8f 4f       	sbci	r24, 0xFF	; 255
    5a6e:	9f 40       	sbci	r25, 0x0F	; 15
    5a70:	21 f5       	brne	.+72     	; 0x5aba <writeFile+0x750>
	  {  
		cluster = searchNextFreeCluster(prevCluster); //find next cluster for root directory entries
    5a72:	6b 81       	ldd	r22, Y+3	; 0x03
    5a74:	7c 81       	ldd	r23, Y+4	; 0x04
    5a76:	8d 81       	ldd	r24, Y+5	; 0x05
    5a78:	9e 81       	ldd	r25, Y+6	; 0x06
    5a7a:	3f d8       	rcall	.-3970   	; 0x4afa <searchNextFreeCluster>
    5a7c:	86 2e       	mov	r8, r22
    5a7e:	97 2e       	mov	r9, r23
    5a80:	a8 2e       	mov	r10, r24
    5a82:	b9 2e       	mov	r11, r25
		getSetNextCluster(prevCluster, SET, cluster); //link the new cluster of root to the previous cluster
    5a84:	06 2f       	mov	r16, r22
    5a86:	17 2f       	mov	r17, r23
    5a88:	28 2f       	mov	r18, r24
    5a8a:	39 2f       	mov	r19, r25
    5a8c:	41 e0       	ldi	r20, 0x01	; 1
    5a8e:	6b 81       	ldd	r22, Y+3	; 0x03
    5a90:	7c 81       	ldd	r23, Y+4	; 0x04
    5a92:	8d 81       	ldd	r24, Y+5	; 0x05
    5a94:	9e 81       	ldd	r25, Y+6	; 0x06
    5a96:	0e 94 22 23 	call	0x4644	; 0x4644 <getSetNextCluster>
		getSetNextCluster(cluster, SET, EOF);  //set the new cluster as end of the root directory
    5a9a:	0f ef       	ldi	r16, 0xFF	; 255
    5a9c:	1f ef       	ldi	r17, 0xFF	; 255
    5a9e:	2f ef       	ldi	r18, 0xFF	; 255
    5aa0:	3f e0       	ldi	r19, 0x0F	; 15
    5aa2:	41 e0       	ldi	r20, 0x01	; 1
    5aa4:	68 2d       	mov	r22, r8
    5aa6:	79 2d       	mov	r23, r9
    5aa8:	8a 2d       	mov	r24, r10
    5aaa:	9b 2d       	mov	r25, r11
    5aac:	0e 94 22 23 	call	0x4644	; 0x4644 <getSetNextCluster>

   if(cluster > 0x0ffffff6)
   {
      if(cluster == EOF)   //this situation will come when total files in root is multiple of (32*sectorPerCluster)
	  {  
		cluster = searchNextFreeCluster(prevCluster); //find next cluster for root directory entries
    5ab0:	8b 82       	std	Y+3, r8	; 0x03
    5ab2:	9c 82       	std	Y+4, r9	; 0x04
    5ab4:	ad 82       	std	Y+5, r10	; 0x05
    5ab6:	be 82       	std	Y+6, r11	; 0x06
		getSetNextCluster(cluster, SET, EOF);  //set the new cluster as end of the root directory
      } 

      else
      {	
	    Uart_Transmit_IT_PC((char*)("End of Cluster Chain")); 
    5ab8:	08 c0       	rjmp	.+16     	; 0x5aca <writeFile+0x760>
    5aba:	89 ed       	ldi	r24, 0xD9	; 217
    5abc:	96 e0       	ldi	r25, 0x06	; 6
    5abe:	56 d3       	rcall	.+1708   	; 0x616c <Uart_Transmit_IT_PC>
	    return;
    5ac0:	32 c0       	rjmp	.+100    	; 0x5b26 <writeFile+0x7bc>
	     
        }
     }
   }

   cluster = getSetNextCluster (prevCluster, GET, 0);
    5ac2:	6b 83       	std	Y+3, r22	; 0x03
    5ac4:	7c 83       	std	Y+4, r23	; 0x04
    5ac6:	8d 83       	std	Y+5, r24	; 0x05
    5ac8:	9e 83       	std	Y+6, r25	; 0x06
      {	
	    Uart_Transmit_IT_PC((char*)("End of Cluster Chain")); 
	    return;
      }
   }
   if(cluster == 0) {Uart_Transmit_IT_PC((char*)("Error in getting cluster")); return;}
    5aca:	2b 81       	ldd	r18, Y+3	; 0x03
    5acc:	3c 81       	ldd	r19, Y+4	; 0x04
    5ace:	4d 81       	ldd	r20, Y+5	; 0x05
    5ad0:	5e 81       	ldd	r21, Y+6	; 0x06
    5ad2:	23 2b       	or	r18, r19
    5ad4:	24 2b       	or	r18, r20
    5ad6:	25 2b       	or	r18, r21
    5ad8:	09 f0       	breq	.+2      	; 0x5adc <writeFile+0x772>
    5ada:	05 cf       	rjmp	.-502    	; 0x58e6 <writeFile+0x57c>
    5adc:	8a e3       	ldi	r24, 0x3A	; 58
    5ade:	96 e0       	ldi	r25, 0x06	; 6
    5ae0:	45 d3       	rcall	.+1674   	; 0x616c <Uart_Transmit_IT_PC>
    5ae2:	21 c0       	rjmp	.+66     	; 0x5b26 <writeFile+0x7bc>
    5ae4:	23 2c       	mov	r2, r3
   }
   else
   {
      startBlock = getFirstSector (cluster);
	  i=0;
	  j=0;
    5ae6:	58 cd       	rjmp	.-1360   	; 0x5598 <writeFile+0x22e>
    5ae8:	f8 01       	movw	r30, r16
     SD_readSingleBlock (firstSector + sector);
	

     for(i=0; i<bytesPerSector; i+=32)
     {
	    dir = (struct dir_Structure *) &buffer[i];
    5aea:	e2 5b       	subi	r30, 0xB2	; 178
    5aec:	f5 4f       	sbci	r31, 0xF5	; 245
    5aee:	2b cf       	rjmp	.-426    	; 0x5946 <writeFile+0x5dc>
    5af0:	3f ef       	ldi	r19, 0xFF	; 255
	   error = SD_writeSingleBlock (startBlock);
       j++;
	   if(j == sectorPerCluster) {j = 0; break;}
	   startBlock++; 
     }
	 counter ++;
    5af2:	83 1a       	sub	r8, r19
    5af4:	93 0a       	sbc	r9, r19
    5af6:	a3 0a       	sbc	r10, r19
    5af8:	b3 0a       	sbc	r11, r19
    5afa:	23 2c       	mov	r2, r3
    5afc:	4d cd       	rjmp	.-1382   	; 0x5598 <writeFile+0x22e>
    5afe:	80 91 2a 08 	lds	r24, 0x082A	; 0x80082a <fileSize>
	}while (data != '~');

   if(data == '~') 
   {
      fileSize--;	//to remove the last entered '~' character
    5b02:	90 91 2b 08 	lds	r25, 0x082B	; 0x80082b <fileSize+0x1>
    5b06:	a0 91 2c 08 	lds	r26, 0x082C	; 0x80082c <fileSize+0x2>
    5b0a:	b0 91 2d 08 	lds	r27, 0x082D	; 0x80082d <fileSize+0x3>
    5b0e:	01 97       	sbiw	r24, 0x01	; 1
    5b10:	a1 09       	sbc	r26, r1
    5b12:	b1 09       	sbc	r27, r1
    5b14:	80 93 2a 08 	sts	0x082A, r24	; 0x80082a <fileSize>
    5b18:	90 93 2b 08 	sts	0x082B, r25	; 0x80082b <fileSize+0x1>
    5b1c:	a0 93 2c 08 	sts	0x082C, r26	; 0x80082c <fileSize+0x2>
    5b20:	b0 93 2d 08 	sts	0x082D, r27	; 0x80082d <fileSize+0x3>
    5b24:	42 ce       	rjmp	.-892    	; 0x57aa <writeFile+0x440>
    5b26:	67 96       	adiw	r28, 0x17	; 23
   
   prevCluster = cluster;
 }
 
 return;
}
    5b28:	0f b6       	in	r0, 0x3f	; 63
    5b2a:	f8 94       	cli
    5b2c:	de bf       	out	0x3e, r29	; 62
    5b2e:	0f be       	out	0x3f, r0	; 63
    5b30:	cd bf       	out	0x3d, r28	; 61
    5b32:	df 91       	pop	r29
    5b34:	cf 91       	pop	r28
    5b36:	1f 91       	pop	r17
    5b38:	0f 91       	pop	r16
    5b3a:	ff 90       	pop	r15
    5b3c:	ef 90       	pop	r14
    5b3e:	df 90       	pop	r13
    5b40:	cf 90       	pop	r12
    5b42:	bf 90       	pop	r11
    5b44:	af 90       	pop	r10
    5b46:	9f 90       	pop	r9
    5b48:	8f 90       	pop	r8
    5b4a:	7f 90       	pop	r7
    5b4c:	6f 90       	pop	r6
    5b4e:	5f 90       	pop	r5
    5b50:	4f 90       	pop	r4
    5b52:	3f 90       	pop	r3
    5b54:	2f 90       	pop	r2
    5b56:	08 95       	ret

00005b58 <SD_sendCommand>:
    5b58:	cf 92       	push	r12
response = SD_sendCommand(ERASE_SELECTED_BLOCKS, 0); //erase all selected blocks
if(response != 0x00)
  return response;

return 0; //normal return
}
    5b5a:	df 92       	push	r13
    5b5c:	ef 92       	push	r14
    5b5e:	ff 92       	push	r15
    5b60:	1f 93       	push	r17
    5b62:	cf 93       	push	r28
    5b64:	df 93       	push	r29
    5b66:	18 2f       	mov	r17, r24
    5b68:	6a 01       	movw	r12, r20
    5b6a:	7b 01       	movw	r14, r22
    5b6c:	80 91 59 0d 	lds	r24, 0x0D59	; 0x800d59 <SDHC_flag>
    5b70:	81 11       	cpse	r24, r1
    5b72:	15 c0       	rjmp	.+42     	; 0x5b9e <SD_sendCommand+0x46>
    5b74:	8f ee       	ldi	r24, 0xEF	; 239
    5b76:	81 0f       	add	r24, r17
    5b78:	82 30       	cpi	r24, 0x02	; 2
    5b7a:	40 f0       	brcs	.+16     	; 0x5b8c <SD_sendCommand+0x34>
    5b7c:	88 ee       	ldi	r24, 0xE8	; 232
    5b7e:	81 0f       	add	r24, r17
    5b80:	82 30       	cpi	r24, 0x02	; 2
    5b82:	20 f0       	brcs	.+8      	; 0x5b8c <SD_sendCommand+0x34>
    5b84:	80 ee       	ldi	r24, 0xE0	; 224
    5b86:	81 0f       	add	r24, r17
    5b88:	82 30       	cpi	r24, 0x02	; 2
    5b8a:	48 f4       	brcc	.+18     	; 0x5b9e <SD_sendCommand+0x46>
    5b8c:	0b 2e       	mov	r0, r27
    5b8e:	b9 e0       	ldi	r27, 0x09	; 9
    5b90:	cc 0c       	add	r12, r12
    5b92:	dd 1c       	adc	r13, r13
    5b94:	ee 1c       	adc	r14, r14
    5b96:	ff 1c       	adc	r15, r15
    5b98:	ba 95       	dec	r27
    5b9a:	d1 f7       	brne	.-12     	; 0x5b90 <SD_sendCommand+0x38>
    5b9c:	b0 2d       	mov	r27, r0
    5b9e:	a5 98       	cbi	0x14, 5	; 20
    5ba0:	81 2f       	mov	r24, r17
    5ba2:	80 64       	ori	r24, 0x40	; 64
    5ba4:	25 d1       	rcall	.+586    	; 0x5df0 <spi_transmit>
    5ba6:	8f 2d       	mov	r24, r15
    5ba8:	23 d1       	rcall	.+582    	; 0x5df0 <spi_transmit>
    5baa:	8e 2d       	mov	r24, r14
    5bac:	21 d1       	rcall	.+578    	; 0x5df0 <spi_transmit>
    5bae:	8d 2d       	mov	r24, r13
    5bb0:	1f d1       	rcall	.+574    	; 0x5df0 <spi_transmit>
    5bb2:	8c 2d       	mov	r24, r12
    5bb4:	1d d1       	rcall	.+570    	; 0x5df0 <spi_transmit>
    5bb6:	18 30       	cpi	r17, 0x08	; 8
    5bb8:	19 f4       	brne	.+6      	; 0x5bc0 <SD_sendCommand+0x68>
    5bba:	87 e8       	ldi	r24, 0x87	; 135
    5bbc:	19 d1       	rcall	.+562    	; 0x5df0 <spi_transmit>
    5bbe:	06 c0       	rjmp	.+12     	; 0x5bcc <SD_sendCommand+0x74>
    5bc0:	85 e9       	ldi	r24, 0x95	; 149
    5bc2:	16 d1       	rcall	.+556    	; 0x5df0 <spi_transmit>
    5bc4:	03 c0       	rjmp	.+6      	; 0x5bcc <SD_sendCommand+0x74>
    5bc6:	c1 50       	subi	r28, 0x01	; 1
    5bc8:	11 f4       	brne	.+4      	; 0x5bce <SD_sendCommand+0x76>
    5bca:	15 c0       	rjmp	.+42     	; 0x5bf6 <SD_sendCommand+0x9e>
    5bcc:	c0 e0       	ldi	r28, 0x00	; 0
    5bce:	16 d1       	rcall	.+556    	; 0x5dfc <spi_receive>
    5bd0:	d8 2f       	mov	r29, r24
    5bd2:	8f 3f       	cpi	r24, 0xFF	; 255
    5bd4:	c1 f3       	breq	.-16     	; 0x5bc6 <SD_sendCommand+0x6e>
    5bd6:	81 11       	cpse	r24, r1
    5bd8:	0e c0       	rjmp	.+28     	; 0x5bf6 <SD_sendCommand+0x9e>
    5bda:	1a 33       	cpi	r17, 0x3A	; 58
    5bdc:	61 f4       	brne	.+24     	; 0x5bf6 <SD_sendCommand+0x9e>
    5bde:	0e d1       	rcall	.+540    	; 0x5dfc <spi_receive>
    5be0:	86 ff       	sbrs	r24, 6
    5be2:	04 c0       	rjmp	.+8      	; 0x5bec <SD_sendCommand+0x94>
    5be4:	81 e0       	ldi	r24, 0x01	; 1
    5be6:	80 93 59 0d 	sts	0x0D59, r24	; 0x800d59 <SDHC_flag>
    5bea:	02 c0       	rjmp	.+4      	; 0x5bf0 <SD_sendCommand+0x98>
    5bec:	10 92 59 0d 	sts	0x0D59, r1	; 0x800d59 <SDHC_flag>
    5bf0:	05 d1       	rcall	.+522    	; 0x5dfc <spi_receive>
    5bf2:	04 d1       	rcall	.+520    	; 0x5dfc <spi_receive>
    5bf4:	03 d1       	rcall	.+518    	; 0x5dfc <spi_receive>
    5bf6:	02 d1       	rcall	.+516    	; 0x5dfc <spi_receive>
    5bf8:	a5 9a       	sbi	0x14, 5	; 20
    5bfa:	8d 2f       	mov	r24, r29
    5bfc:	df 91       	pop	r29
    5bfe:	cf 91       	pop	r28
    5c00:	1f 91       	pop	r17
    5c02:	ff 90       	pop	r15
    5c04:	ef 90       	pop	r14
    5c06:	df 90       	pop	r13
    5c08:	cf 90       	pop	r12
    5c0a:	08 95       	ret

00005c0c <SD_init>:
    5c0c:	0f 93       	push	r16
    5c0e:	1f 93       	push	r17
    5c10:	cf 93       	push	r28
    5c12:	df 93       	push	r29
    5c14:	1a e0       	ldi	r17, 0x0A	; 10
    5c16:	8f ef       	ldi	r24, 0xFF	; 255
    5c18:	eb d0       	rcall	.+470    	; 0x5df0 <spi_transmit>
    5c1a:	11 50       	subi	r17, 0x01	; 1
    5c1c:	e1 f7       	brne	.-8      	; 0x5c16 <SD_init+0xa>
    5c1e:	a5 98       	cbi	0x14, 5	; 20
    5c20:	40 e0       	ldi	r20, 0x00	; 0
    5c22:	50 e0       	ldi	r21, 0x00	; 0
    5c24:	ba 01       	movw	r22, r20
    5c26:	80 e0       	ldi	r24, 0x00	; 0
    5c28:	97 df       	rcall	.-210    	; 0x5b58 <SD_sendCommand>
    5c2a:	c0 e2       	ldi	r28, 0x20	; 32
    5c2c:	d0 e0       	ldi	r29, 0x00	; 0
    5c2e:	08 c0       	rjmp	.+16     	; 0x5c40 <SD_init+0x34>
    5c30:	40 e0       	ldi	r20, 0x00	; 0
    5c32:	50 e0       	ldi	r21, 0x00	; 0
    5c34:	ba 01       	movw	r22, r20
    5c36:	80 e0       	ldi	r24, 0x00	; 0
    5c38:	8f df       	rcall	.-226    	; 0x5b58 <SD_sendCommand>
    5c3a:	21 97       	sbiw	r28, 0x01	; 1
    5c3c:	09 f4       	brne	.+2      	; 0x5c40 <SD_init+0x34>
    5c3e:	5f c0       	rjmp	.+190    	; 0x5cfe <SD_init+0xf2>
    5c40:	81 30       	cpi	r24, 0x01	; 1
    5c42:	b1 f7       	brne	.-20     	; 0x5c30 <SD_init+0x24>
    5c44:	a5 9a       	sbi	0x14, 5	; 20
    5c46:	8f ef       	ldi	r24, 0xFF	; 255
    5c48:	d3 d0       	rcall	.+422    	; 0x5df0 <spi_transmit>
    5c4a:	8f ef       	ldi	r24, 0xFF	; 255
    5c4c:	d1 d0       	rcall	.+418    	; 0x5df0 <spi_transmit>
    5c4e:	4a ea       	ldi	r20, 0xAA	; 170
    5c50:	51 e0       	ldi	r21, 0x01	; 1
    5c52:	60 e0       	ldi	r22, 0x00	; 0
    5c54:	70 e0       	ldi	r23, 0x00	; 0
    5c56:	88 e0       	ldi	r24, 0x08	; 8
    5c58:	7f df       	rcall	.-258    	; 0x5b58 <SD_sendCommand>
    5c5a:	ce ef       	ldi	r28, 0xFE	; 254
    5c5c:	d0 e0       	ldi	r29, 0x00	; 0
    5c5e:	0e c0       	rjmp	.+28     	; 0x5c7c <SD_init+0x70>
    5c60:	4a ea       	ldi	r20, 0xAA	; 170
    5c62:	51 e0       	ldi	r21, 0x01	; 1
    5c64:	60 e0       	ldi	r22, 0x00	; 0
    5c66:	70 e0       	ldi	r23, 0x00	; 0
    5c68:	88 e0       	ldi	r24, 0x08	; 8
    5c6a:	76 df       	rcall	.-276    	; 0x5b58 <SD_sendCommand>
    5c6c:	21 97       	sbiw	r28, 0x01	; 1
    5c6e:	31 f4       	brne	.+12     	; 0x5c7c <SD_init+0x70>
    5c70:	00 00       	nop
    5c72:	81 e0       	ldi	r24, 0x01	; 1
    5c74:	80 93 86 0f 	sts	0x0F86, r24	; 0x800f86 <cardType>
    5c78:	01 e0       	ldi	r16, 0x01	; 1
    5c7a:	03 c0       	rjmp	.+6      	; 0x5c82 <SD_init+0x76>
    5c7c:	81 30       	cpi	r24, 0x01	; 1
    5c7e:	81 f7       	brne	.-32     	; 0x5c60 <SD_init+0x54>
    5c80:	02 e0       	ldi	r16, 0x02	; 2
    5c82:	40 e0       	ldi	r20, 0x00	; 0
    5c84:	50 e0       	ldi	r21, 0x00	; 0
    5c86:	ba 01       	movw	r22, r20
    5c88:	87 e3       	ldi	r24, 0x37	; 55
    5c8a:	66 df       	rcall	.-308    	; 0x5b58 <SD_sendCommand>
    5c8c:	40 e0       	ldi	r20, 0x00	; 0
    5c8e:	50 e0       	ldi	r21, 0x00	; 0
    5c90:	60 e0       	ldi	r22, 0x00	; 0
    5c92:	70 e4       	ldi	r23, 0x40	; 64
    5c94:	89 e2       	ldi	r24, 0x29	; 41
    5c96:	60 df       	rcall	.-320    	; 0x5b58 <SD_sendCommand>
    5c98:	ce ef       	ldi	r28, 0xFE	; 254
    5c9a:	d0 e0       	ldi	r29, 0x00	; 0
    5c9c:	10 c0       	rjmp	.+32     	; 0x5cbe <SD_init+0xb2>
    5c9e:	40 e0       	ldi	r20, 0x00	; 0
    5ca0:	50 e0       	ldi	r21, 0x00	; 0
    5ca2:	ba 01       	movw	r22, r20
    5ca4:	87 e3       	ldi	r24, 0x37	; 55
    5ca6:	58 df       	rcall	.-336    	; 0x5b58 <SD_sendCommand>
    5ca8:	40 e0       	ldi	r20, 0x00	; 0
    5caa:	50 e0       	ldi	r21, 0x00	; 0
    5cac:	60 e0       	ldi	r22, 0x00	; 0
    5cae:	70 e4       	ldi	r23, 0x40	; 64
    5cb0:	89 e2       	ldi	r24, 0x29	; 41
    5cb2:	52 df       	rcall	.-348    	; 0x5b58 <SD_sendCommand>
    5cb4:	21 97       	sbiw	r28, 0x01	; 1
    5cb6:	19 f4       	brne	.+6      	; 0x5cbe <SD_init+0xb2>
    5cb8:	00 00       	nop
    5cba:	12 e0       	ldi	r17, 0x02	; 2
    5cbc:	2a c0       	rjmp	.+84     	; 0x5d12 <SD_init+0x106>
    5cbe:	81 11       	cpse	r24, r1
    5cc0:	ee cf       	rjmp	.-36     	; 0x5c9e <SD_init+0x92>
    5cc2:	10 92 59 0d 	sts	0x0D59, r1	; 0x800d59 <SDHC_flag>
    5cc6:	02 30       	cpi	r16, 0x02	; 2
    5cc8:	21 f5       	brne	.+72     	; 0x5d12 <SD_init+0x106>
    5cca:	1b c0       	rjmp	.+54     	; 0x5d02 <SD_init+0xf6>
    5ccc:	40 e0       	ldi	r20, 0x00	; 0
    5cce:	50 e0       	ldi	r21, 0x00	; 0
    5cd0:	ba 01       	movw	r22, r20
    5cd2:	8a e3       	ldi	r24, 0x3A	; 58
    5cd4:	41 df       	rcall	.-382    	; 0x5b58 <SD_sendCommand>
    5cd6:	21 97       	sbiw	r28, 0x01	; 1
    5cd8:	21 f4       	brne	.+8      	; 0x5ce2 <SD_init+0xd6>
    5cda:	00 00       	nop
    5cdc:	10 92 86 0f 	sts	0x0F86, r1	; 0x800f86 <cardType>
    5ce0:	02 c0       	rjmp	.+4      	; 0x5ce6 <SD_init+0xda>
    5ce2:	81 11       	cpse	r24, r1
    5ce4:	f3 cf       	rjmp	.-26     	; 0x5ccc <SD_init+0xc0>
    5ce6:	80 91 59 0d 	lds	r24, 0x0D59	; 0x800d59 <SDHC_flag>
    5cea:	81 30       	cpi	r24, 0x01	; 1
    5cec:	21 f4       	brne	.+8      	; 0x5cf6 <SD_init+0xea>
    5cee:	82 e0       	ldi	r24, 0x02	; 2
    5cf0:	80 93 86 0f 	sts	0x0F86, r24	; 0x800f86 <cardType>
    5cf4:	0e c0       	rjmp	.+28     	; 0x5d12 <SD_init+0x106>
    5cf6:	83 e0       	ldi	r24, 0x03	; 3
    5cf8:	80 93 86 0f 	sts	0x0F86, r24	; 0x800f86 <cardType>
    5cfc:	0a c0       	rjmp	.+20     	; 0x5d12 <SD_init+0x106>
    5cfe:	11 e0       	ldi	r17, 0x01	; 1
    5d00:	08 c0       	rjmp	.+16     	; 0x5d12 <SD_init+0x106>
    5d02:	40 e0       	ldi	r20, 0x00	; 0
    5d04:	50 e0       	ldi	r21, 0x00	; 0
    5d06:	ba 01       	movw	r22, r20
    5d08:	8a e3       	ldi	r24, 0x3A	; 58
    5d0a:	26 df       	rcall	.-436    	; 0x5b58 <SD_sendCommand>
    5d0c:	ce ef       	ldi	r28, 0xFE	; 254
    5d0e:	d0 e0       	ldi	r29, 0x00	; 0
    5d10:	e8 cf       	rjmp	.-48     	; 0x5ce2 <SD_init+0xd6>
    5d12:	81 2f       	mov	r24, r17
    5d14:	df 91       	pop	r29
    5d16:	cf 91       	pop	r28
    5d18:	1f 91       	pop	r17
    5d1a:	0f 91       	pop	r16
    5d1c:	08 95       	ret

00005d1e <SD_readSingleBlock>:
//Arguments	: none
//return	: unsigned char; will be 0 if no error,
// 			  otherwise the response byte will be sent
//******************************************************************
unsigned char SD_readSingleBlock(unsigned long startBlock)
{
    5d1e:	cf 93       	push	r28
    5d20:	df 93       	push	r29
    5d22:	ab 01       	movw	r20, r22
    5d24:	bc 01       	movw	r22, r24
unsigned char response;
unsigned int i, retry=0;

 response = SD_sendCommand(READ_SINGLE_BLOCK, startBlock); //read a Block command
    5d26:	81 e1       	ldi	r24, 0x11	; 17
    5d28:	17 df       	rcall	.-466    	; 0x5b58 <SD_sendCommand>
 
 if(response != 0x00) return response; //check for SD status: 0x00 - OK (No flags set)
    5d2a:	81 11       	cpse	r24, r1
    5d2c:	1d c0       	rjmp	.+58     	; 0x5d68 <SD_readSingleBlock+0x4a>

SD_CS_ASSERT;
    5d2e:	a5 98       	cbi	0x14, 5	; 20

retry = 0;
while(spi_receive() != 0xfe) //wait for start block token 0xfe (0x11111110)
    5d30:	c0 e0       	ldi	r28, 0x00	; 0
    5d32:	d0 e0       	ldi	r29, 0x00	; 0
    5d34:	05 c0       	rjmp	.+10     	; 0x5d40 <SD_readSingleBlock+0x22>
    5d36:	21 97       	sbiw	r28, 0x01	; 1
  if(retry++ > 0xfffe){SD_CS_DEASSERT; return 1;} //return if time-out
    5d38:	19 f4       	brne	.+6      	; 0x5d40 <SD_readSingleBlock+0x22>
    5d3a:	a5 9a       	sbi	0x14, 5	; 20
    5d3c:	81 e0       	ldi	r24, 0x01	; 1
 if(response != 0x00) return response; //check for SD status: 0x00 - OK (No flags set)

SD_CS_ASSERT;

retry = 0;
while(spi_receive() != 0xfe) //wait for start block token 0xfe (0x11111110)
    5d3e:	14 c0       	rjmp	.+40     	; 0x5d68 <SD_readSingleBlock+0x4a>
    5d40:	5d d0       	rcall	.+186    	; 0x5dfc <spi_receive>
    5d42:	8e 3f       	cpi	r24, 0xFE	; 254
    5d44:	c1 f7       	brne	.-16     	; 0x5d36 <SD_readSingleBlock+0x18>
    5d46:	c0 e0       	ldi	r28, 0x00	; 0
  if(retry++ > 0xfffe){SD_CS_DEASSERT; return 1;} //return if time-out

for(i=0; i<512; i++) //read 512 bytes
  buffer[i] = spi_receive();
    5d48:	d0 e0       	ldi	r29, 0x00	; 0
    5d4a:	58 d0       	rcall	.+176    	; 0x5dfc <spi_receive>
    5d4c:	fe 01       	movw	r30, r28
    5d4e:	e2 5b       	subi	r30, 0xB2	; 178
    5d50:	f5 4f       	sbci	r31, 0xF5	; 245
    5d52:	80 83       	st	Z, r24

retry = 0;
while(spi_receive() != 0xfe) //wait for start block token 0xfe (0x11111110)
  if(retry++ > 0xfffe){SD_CS_DEASSERT; return 1;} //return if time-out

for(i=0; i<512; i++) //read 512 bytes
    5d54:	21 96       	adiw	r28, 0x01	; 1
    5d56:	c1 15       	cp	r28, r1
    5d58:	82 e0       	ldi	r24, 0x02	; 2
  buffer[i] = spi_receive();

spi_receive(); //receive incoming CRC (16-bit), CRC is ignored here
    5d5a:	d8 07       	cpc	r29, r24
    5d5c:	b1 f7       	brne	.-20     	; 0x5d4a <SD_readSingleBlock+0x2c>
spi_receive();
    5d5e:	4e d0       	rcall	.+156    	; 0x5dfc <spi_receive>
    5d60:	4d d0       	rcall	.+154    	; 0x5dfc <spi_receive>

spi_receive(); //extra 8 clock pulses
    5d62:	4c d0       	rcall	.+152    	; 0x5dfc <spi_receive>
    5d64:	a5 9a       	sbi	0x14, 5	; 20
SD_CS_DEASSERT;
    5d66:	80 e0       	ldi	r24, 0x00	; 0

return 0;
    5d68:	df 91       	pop	r29
}
    5d6a:	cf 91       	pop	r28
    5d6c:	08 95       	ret

00005d6e <SD_writeSingleBlock>:
    5d6e:	cf 93       	push	r28
//Arguments	: none
//return	: unsigned char; will be 0 if no error,
// 			  otherwise the response byte will be sent
//******************************************************************
unsigned char SD_writeSingleBlock(unsigned long startBlock)
{
    5d70:	df 93       	push	r29
    5d72:	ab 01       	movw	r20, r22
    5d74:	bc 01       	movw	r22, r24
unsigned char response;
unsigned int i, retry=0;

 response = SD_sendCommand(WRITE_SINGLE_BLOCK, startBlock); //write a Block command
    5d76:	88 e1       	ldi	r24, 0x18	; 24
    5d78:	ef de       	rcall	.-546    	; 0x5b58 <SD_sendCommand>
  
 if(response != 0x00) return response; //check for SD status: 0x00 - OK (No flags set)
    5d7a:	81 11       	cpse	r24, r1
    5d7c:	36 c0       	rjmp	.+108    	; 0x5dea <SD_writeSingleBlock+0x7c>

SD_CS_ASSERT;
    5d7e:	a5 98       	cbi	0x14, 5	; 20

spi_transmit(0xfe);     //Send start block token 0xfe (0x11111110)
    5d80:	8e ef       	ldi	r24, 0xFE	; 254
    5d82:	36 d0       	rcall	.+108    	; 0x5df0 <spi_transmit>

for(i=0; i<512; i++)    //send 512 bytes data
    5d84:	c0 e0       	ldi	r28, 0x00	; 0
    5d86:	d0 e0       	ldi	r29, 0x00	; 0
  spi_transmit(buffer[i]);
    5d88:	fe 01       	movw	r30, r28
    5d8a:	e2 5b       	subi	r30, 0xB2	; 178
    5d8c:	f5 4f       	sbci	r31, 0xF5	; 245
    5d8e:	80 81       	ld	r24, Z
    5d90:	2f d0       	rcall	.+94     	; 0x5df0 <spi_transmit>

SD_CS_ASSERT;

spi_transmit(0xfe);     //Send start block token 0xfe (0x11111110)

for(i=0; i<512; i++)    //send 512 bytes data
    5d92:	21 96       	adiw	r28, 0x01	; 1
    5d94:	c1 15       	cp	r28, r1
    5d96:	22 e0       	ldi	r18, 0x02	; 2
    5d98:	d2 07       	cpc	r29, r18
  spi_transmit(buffer[i]);

spi_transmit(0xff);     //transmit dummy CRC (16-bit), CRC is ignored here
    5d9a:	b1 f7       	brne	.-20     	; 0x5d88 <SD_writeSingleBlock+0x1a>
spi_transmit(0xff);
    5d9c:	8f ef       	ldi	r24, 0xFF	; 255
    5d9e:	28 d0       	rcall	.+80     	; 0x5df0 <spi_transmit>
    5da0:	8f ef       	ldi	r24, 0xFF	; 255

response = spi_receive();
    5da2:	26 d0       	rcall	.+76     	; 0x5df0 <spi_transmit>
    5da4:	2b d0       	rcall	.+86     	; 0x5dfc <spi_receive>

if( (response & 0x1f) != 0x05) //response= 0xXXX0AAA1 ; AAA='010' - data accepted
    5da6:	98 2f       	mov	r25, r24
    5da8:	9f 71       	andi	r25, 0x1F	; 31
    5daa:	95 30       	cpi	r25, 0x05	; 5
    5dac:	39 f0       	breq	.+14     	; 0x5dbc <SD_writeSingleBlock+0x4e>
{                              //AAA='101'-data rejected due to CRC error
  SD_CS_DEASSERT;              //AAA='110'-data rejected due to write error
    5dae:	a5 9a       	sbi	0x14, 5	; 20
  return response;
    5db0:	1c c0       	rjmp	.+56     	; 0x5dea <SD_writeSingleBlock+0x7c>
}

while(!spi_receive()) //wait for SD card to complete writing and get idle
if(retry++ > 0xfffe){SD_CS_DEASSERT; return 1;}
    5db2:	21 96       	adiw	r28, 0x01	; 1
    5db4:	29 f4       	brne	.+10     	; 0x5dc0 <SD_writeSingleBlock+0x52>
    5db6:	a5 9a       	sbi	0x14, 5	; 20
    5db8:	81 e0       	ldi	r24, 0x01	; 1
    5dba:	17 c0       	rjmp	.+46     	; 0x5dea <SD_writeSingleBlock+0x7c>
{                              //AAA='101'-data rejected due to CRC error
  SD_CS_DEASSERT;              //AAA='110'-data rejected due to write error
  return response;
}

while(!spi_receive()) //wait for SD card to complete writing and get idle
    5dbc:	c0 e0       	ldi	r28, 0x00	; 0
    5dbe:	d0 e0       	ldi	r29, 0x00	; 0
    5dc0:	1d d0       	rcall	.+58     	; 0x5dfc <spi_receive>
    5dc2:	88 23       	and	r24, r24
if(retry++ > 0xfffe){SD_CS_DEASSERT; return 1;}

SD_CS_DEASSERT;
    5dc4:	b1 f3       	breq	.-20     	; 0x5db2 <SD_writeSingleBlock+0x44>
spi_transmit(0xff);   //just spend 8 clock cycle delay before reasserting the CS line
    5dc6:	a5 9a       	sbi	0x14, 5	; 20
    5dc8:	8f ef       	ldi	r24, 0xFF	; 255
    5dca:	12 d0       	rcall	.+36     	; 0x5df0 <spi_transmit>
SD_CS_ASSERT;         //re-asserting the CS line to verify if card is still busy
    5dcc:	a5 98       	cbi	0x14, 5	; 20

while(!spi_receive()) //wait for SD card to complete writing and get idle
    5dce:	08 c0       	rjmp	.+16     	; 0x5de0 <SD_writeSingleBlock+0x72>
   if(retry++ > 0xfffe){SD_CS_DEASSERT; return 1;}
    5dd0:	ce 01       	movw	r24, r28
    5dd2:	01 96       	adiw	r24, 0x01	; 1
    5dd4:	21 96       	adiw	r28, 0x01	; 1
    5dd6:	19 f4       	brne	.+6      	; 0x5dde <SD_writeSingleBlock+0x70>
    5dd8:	a5 9a       	sbi	0x14, 5	; 20
    5dda:	81 e0       	ldi	r24, 0x01	; 1
    5ddc:	06 c0       	rjmp	.+12     	; 0x5dea <SD_writeSingleBlock+0x7c>

SD_CS_DEASSERT;
spi_transmit(0xff);   //just spend 8 clock cycle delay before reasserting the CS line
SD_CS_ASSERT;         //re-asserting the CS line to verify if card is still busy

while(!spi_receive()) //wait for SD card to complete writing and get idle
    5dde:	ec 01       	movw	r28, r24
    5de0:	0d d0       	rcall	.+26     	; 0x5dfc <spi_receive>
    5de2:	88 23       	and	r24, r24
    5de4:	a9 f3       	breq	.-22     	; 0x5dd0 <SD_writeSingleBlock+0x62>
   if(retry++ > 0xfffe){SD_CS_DEASSERT; return 1;}
SD_CS_DEASSERT;
    5de6:	a5 9a       	sbi	0x14, 5	; 20

return 0;
    5de8:	80 e0       	ldi	r24, 0x00	; 0
}
    5dea:	df 91       	pop	r29
    5dec:	cf 91       	pop	r28
    5dee:	08 95       	ret

00005df0 <spi_transmit>:
	}
}

uint8_t spi_transmit(uint8_t data)
{
	SPDR = data;
    5df0:	8e bd       	out	0x2e, r24	; 46
	while(!(SPSR & (1<<SPIF)));
    5df2:	0d b4       	in	r0, 0x2d	; 45
    5df4:	07 fe       	sbrs	r0, 7
    5df6:	fd cf       	rjmp	.-6      	; 0x5df2 <spi_transmit+0x2>
	return SPDR;
    5df8:	8e b5       	in	r24, 0x2e	; 46
}
    5dfa:	08 95       	ret

00005dfc <spi_receive>:
unsigned char spi_receive(void)
{
	unsigned char data;
	// Wait for reception complete

	SPDR = 0xff;
    5dfc:	8f ef       	ldi	r24, 0xFF	; 255
    5dfe:	8e bd       	out	0x2e, r24	; 46
	while(!(SPSR & (1<<SPIF)));
    5e00:	0d b4       	in	r0, 0x2d	; 45
    5e02:	07 fe       	sbrs	r0, 7
    5e04:	fd cf       	rjmp	.-6      	; 0x5e00 <spi_receive+0x4>
	data = SPDR;
    5e06:	8e b5       	in	r24, 0x2e	; 46

	// Return data register
	return data;
}
    5e08:	08 95       	ret

00005e0a <enable_Slave>:

void enable_Slave(uint8_t Slave)
{
	switch (Slave)
    5e0a:	81 30       	cpi	r24, 0x01	; 1
    5e0c:	41 f0       	breq	.+16     	; 0x5e1e <enable_Slave+0x14>
    5e0e:	28 f0       	brcs	.+10     	; 0x5e1a <enable_Slave+0x10>
    5e10:	82 30       	cpi	r24, 0x02	; 2
    5e12:	59 f0       	breq	.+22     	; 0x5e2a <enable_Slave+0x20>
    5e14:	83 30       	cpi	r24, 0x03	; 3
    5e16:	79 f0       	breq	.+30     	; 0x5e36 <enable_Slave+0x2c>
    5e18:	08 95       	ret
	{
		case TMC4671:
		SPI_CS_TMC4671_PORT &= ~SPI_CS_TMC4671_BIT;
    5e1a:	28 98       	cbi	0x05, 0	; 5
		break;
    5e1c:	08 95       	ret
		
		case TMC6200:
		SPI_CS_TMC6200_PORT &= ~SPI_CS_TMC6200_BIT;
    5e1e:	e2 e0       	ldi	r30, 0x02	; 2
    5e20:	f1 e0       	ldi	r31, 0x01	; 1
    5e22:	80 81       	ld	r24, Z
    5e24:	8f 7b       	andi	r24, 0xBF	; 191
    5e26:	80 83       	st	Z, r24
		break;
    5e28:	08 95       	ret
		
		case MFRC522:
		SPI_CS_RC522_PORT &= ~SPI_CS_RC522_BIT;
    5e2a:	e2 e0       	ldi	r30, 0x02	; 2
    5e2c:	f1 e0       	ldi	r31, 0x01	; 1
    5e2e:	80 81       	ld	r24, Z
    5e30:	8f 7d       	andi	r24, 0xDF	; 223
    5e32:	80 83       	st	Z, r24
		break;
    5e34:	08 95       	ret
		
		case SDCARD:
		SPI_CS_SD_CARD_PORT &= ~SPI_CS_SD_CARD_BIT;
    5e36:	a5 98       	cbi	0x14, 5	; 20
    5e38:	08 95       	ret

00005e3a <disable_Slave>:
	}
}

void disable_Slave(uint8_t Slave)
{
	switch (Slave)
    5e3a:	81 30       	cpi	r24, 0x01	; 1
    5e3c:	41 f0       	breq	.+16     	; 0x5e4e <disable_Slave+0x14>
    5e3e:	28 f0       	brcs	.+10     	; 0x5e4a <disable_Slave+0x10>
    5e40:	82 30       	cpi	r24, 0x02	; 2
    5e42:	59 f0       	breq	.+22     	; 0x5e5a <disable_Slave+0x20>
    5e44:	83 30       	cpi	r24, 0x03	; 3
    5e46:	79 f0       	breq	.+30     	; 0x5e66 <disable_Slave+0x2c>
    5e48:	08 95       	ret
	{
		case TMC4671:
		SPI_CS_TMC4671_PORT |= SPI_CS_TMC4671_BIT;
    5e4a:	28 9a       	sbi	0x05, 0	; 5
		break;
    5e4c:	08 95       	ret
		
		case TMC6200:
		SPI_CS_TMC6200_PORT |= SPI_CS_TMC6200_BIT;
    5e4e:	e2 e0       	ldi	r30, 0x02	; 2
    5e50:	f1 e0       	ldi	r31, 0x01	; 1
    5e52:	80 81       	ld	r24, Z
    5e54:	80 64       	ori	r24, 0x40	; 64
    5e56:	80 83       	st	Z, r24
		break;
    5e58:	08 95       	ret
		
		case MFRC522:
		SPI_CS_RC522_PORT |= SPI_CS_RC522_BIT;
    5e5a:	e2 e0       	ldi	r30, 0x02	; 2
    5e5c:	f1 e0       	ldi	r31, 0x01	; 1
    5e5e:	80 81       	ld	r24, Z
    5e60:	80 62       	ori	r24, 0x20	; 32
    5e62:	80 83       	st	Z, r24
		break;
    5e64:	08 95       	ret
		
		case SDCARD:
		SPI_CS_SD_CARD_PORT |= SPI_CS_SD_CARD_BIT;
    5e66:	a5 9a       	sbi	0x14, 5	; 20
    5e68:	08 95       	ret

00005e6a <SPI_init>:

void SPI_init(void)
{
	// Einstellungen fr TMC4671: CLK = 1MHz, SPI-Mode = 3, MSB first)

	SPCR = ((1<<SPE)|       // SPI Enable					(1 = Enable, 0 = Disable)					Datasheet S. 197 (Kapitel 21.2.1)
    5e6a:	83 e5       	ldi	r24, 0x53	; 83
    5e6c:	8c bd       	out	0x2c, r24	; 44
	(1<<MSTR)|              // Master/Slave select			(0 = Slave, 1 = Master)						Datasheet S. 197 (Kapitel 21.2.1)
	(1<<SPR1)|(1<<SPR0)|    // SPI Clock Rate				(Divider Systemclock 16MHz)					Datasheet S. 198 (Kapitel 21.2.1)
	(0<<CPOL)|              // Clock Polarity when idle		(0 = low, 1 = SCK high)						Datasheet S. 197 (Kapitel 21.2.1)
	(0<<CPHA));             // Clock Phase edge sampling	(0 = leading, 1 = trailing edge sampling)	Datasheet S. 197 (Kapitel 21.2.1)

	SPSR = (0<<SPI2X);      // Double Clock Rate			(0 = Disable, 1 = Enable)					Datasheet S. 198 (Kapitel 21.2.1)
    5e6e:	1d bc       	out	0x2d, r1	; 45

	disable_Slave(TMC4671);
    5e70:	80 e0       	ldi	r24, 0x00	; 0
    5e72:	e3 df       	rcall	.-58     	; 0x5e3a <disable_Slave>
	disable_Slave(TMC6200);
    5e74:	81 e0       	ldi	r24, 0x01	; 1
    5e76:	e1 df       	rcall	.-62     	; 0x5e3a <disable_Slave>
	disable_Slave(MFRC522);
    5e78:	82 e0       	ldi	r24, 0x02	; 2
    5e7a:	df cf       	rjmp	.-66     	; 0x5e3a <disable_Slave>
    5e7c:	08 95       	ret

00005e7e <create_new_tag>:
    5e7e:	ef 92       	push	r14
		head_tag = insert_tag_at_head(&head_tag, tmp);
 	}
}

rfid_tag_t *create_new_tag(char * cocktail_name, uint8_t tag_nummer, uint8_t tag_ID)
{
    5e80:	ff 92       	push	r15
    5e82:	0f 93       	push	r16
    5e84:	1f 93       	push	r17
    5e86:	cf 93       	push	r28
    5e88:	df 93       	push	r29
    5e8a:	8c 01       	movw	r16, r24
    5e8c:	e6 2e       	mov	r14, r22
    5e8e:	f4 2e       	mov	r15, r20
	// Alloziiere Speicher fr die Struct-Variabeln gemss Struct zutatMaschine_t
	rfid_tag_t *newTag = calloc(1,sizeof(rfid_tag_t));
    5e90:	68 e0       	ldi	r22, 0x08	; 8
    5e92:	70 e0       	ldi	r23, 0x00	; 0
    5e94:	81 e0       	ldi	r24, 0x01	; 1
    5e96:	90 e0       	ldi	r25, 0x00	; 0
    5e98:	93 d3       	rcall	.+1830   	; 0x65c0 <calloc>
    5e9a:	ec 01       	movw	r28, r24
	
	// Alloziiere Speicher fr den Namen und setze den Struct-Pointer name darauf
	newTag->cocktail_name = calloc(21,sizeof(char));
    5e9c:	61 e0       	ldi	r22, 0x01	; 1
    5e9e:	70 e0       	ldi	r23, 0x00	; 0
    5ea0:	85 e1       	ldi	r24, 0x15	; 21
    5ea2:	90 e0       	ldi	r25, 0x00	; 0
    5ea4:	8d d3       	rcall	.+1818   	; 0x65c0 <calloc>
    5ea6:	99 83       	std	Y+1, r25	; 0x01
    5ea8:	88 83       	st	Y, r24
	
	// Schreibe die Werte in entsprechende Variabeln des Structs
	newTag->tag_nummer = tag_nummer;
    5eaa:	ea 82       	std	Y+2, r14	; 0x02
	newTag->tag_ID = tag_ID;
    5eac:	fb 82       	std	Y+3, r15	; 0x03
	newTag->prev = NULL;
    5eae:	1f 82       	std	Y+7, r1	; 0x07
    5eb0:	1e 82       	std	Y+6, r1	; 0x06
	newTag->next = NULL;
    5eb2:	1d 82       	std	Y+5, r1	; 0x05
	
	strcpy((char *)newTag->cocktail_name,(const char *)cocktail_name);
    5eb4:	1c 82       	std	Y+4, r1	; 0x04
    5eb6:	b8 01       	movw	r22, r16
    5eb8:	f0 d4       	rcall	.+2528   	; 0x689a <strcpy>

	return newTag;
}
    5eba:	ce 01       	movw	r24, r28
    5ebc:	df 91       	pop	r29
    5ebe:	cf 91       	pop	r28
    5ec0:	1f 91       	pop	r17
    5ec2:	0f 91       	pop	r16
    5ec4:	ff 90       	pop	r15
    5ec6:	ef 90       	pop	r14
    5ec8:	08 95       	ret

00005eca <insert_tag_at_head>:



rfid_tag_t *insert_tag_at_head(rfid_tag_t **head_tag, rfid_tag_t *tag_to_insert)
{
    5eca:	cf 93       	push	r28
    5ecc:	df 93       	push	r29
    5ece:	dc 01       	movw	r26, r24
    5ed0:	fb 01       	movw	r30, r22
	**             **   *   *   *   *   *| |*   *   *   *   *   **              **
	**<==**prev******<==*<==*<==*<==*<==*| |*<==*<==*<==*<==*<==*******prev**<==**
	******************************************************************************/

	// Setze die vorhergehende und nachkommende Zutat der einzufgenden Zutat
	tag_to_insert->next = (*head_tag);				// (1. Zutat = NULL)
    5ed2:	8d 91       	ld	r24, X+
    5ed4:	9c 91       	ld	r25, X
    5ed6:	11 97       	sbiw	r26, 0x01	; 1
    5ed8:	95 83       	std	Z+5, r25	; 0x05
    5eda:	84 83       	std	Z+4, r24	; 0x04
	tag_to_insert->prev = NULL;
    5edc:	17 82       	std	Z+7, r1	; 0x07
    5ede:	16 82       	std	Z+6, r1	; 0x06
	
	// Falls keine head-Zutat besteht, ist die einzufgende Zutat die tail-Zutat
	if((*head_tag) == NULL)
    5ee0:	cd 91       	ld	r28, X+
    5ee2:	dc 91       	ld	r29, X
    5ee4:	11 97       	sbiw	r26, 0x01	; 1
    5ee6:	20 97       	sbiw	r28, 0x00	; 0
    5ee8:	29 f4       	brne	.+10     	; 0x5ef4 <insert_tag_at_head+0x2a>
	{
		(tail_tag) = tag_to_insert;
    5eea:	70 93 4d 0a 	sts	0x0A4D, r23	; 0x800a4d <tail_tag+0x1>
    5eee:	60 93 4c 0a 	sts	0x0A4C, r22	; 0x800a4c <tail_tag>
    5ef2:	08 c0       	rjmp	.+16     	; 0x5f04 <insert_tag_at_head+0x3a>
	
	// Besteht eine head-Zutat, ist deren zuvorkommende Zutat die einzufgende Zutat
	// und die zuvorkommende Zutat der einzufgenden Zutat ist die tail-Zutat
	else
	{
		(*head_tag)->prev = tag_to_insert;
    5ef4:	7f 83       	std	Y+7, r23	; 0x07
    5ef6:	6e 83       	std	Y+6, r22	; 0x06
		tag_to_insert->prev = (tail_tag);
    5ef8:	80 91 4c 0a 	lds	r24, 0x0A4C	; 0x800a4c <tail_tag>
    5efc:	90 91 4d 0a 	lds	r25, 0x0A4D	; 0x800a4d <tail_tag+0x1>
    5f00:	97 83       	std	Z+7, r25	; 0x07
    5f02:	86 83       	std	Z+6, r24	; 0x06
	}
	
	// head-Zutat ist jetzt die einzufgende Zutat
	// Das nachkommende File der tail-Zutat ist jetzt die neue head-Zutat
	(*head_tag) = tag_to_insert;
    5f04:	ed 93       	st	X+, r30
    5f06:	fc 93       	st	X, r31
	(tail_tag)->next = (*head_tag);
    5f08:	a0 91 4c 0a 	lds	r26, 0x0A4C	; 0x800a4c <tail_tag>
    5f0c:	b0 91 4d 0a 	lds	r27, 0x0A4D	; 0x800a4d <tail_tag+0x1>
    5f10:	15 96       	adiw	r26, 0x05	; 5
    5f12:	fc 93       	st	X, r31
    5f14:	ee 93       	st	-X, r30
    5f16:	14 97       	sbiw	r26, 0x04	; 4
	
	return tag_to_insert;
}
    5f18:	cf 01       	movw	r24, r30
    5f1a:	df 91       	pop	r29
    5f1c:	cf 91       	pop	r28
    5f1e:	08 95       	ret

00005f20 <RFID_init>:
 */ 

#include "TAGS.h"

void RFID_init(void)
{
    5f20:	cf 93       	push	r28
**	                                       ************************************************************************
*******************************************************************************************************************
*******************************************************************************************************************
Diese werden von der/auf die SD-Karte geladen, damit Sie nach einem Neustart wieder gleich sind wie davor.		 */

	head_tag = NULL;									// Erster Tag auf NULL
    5f22:	10 92 0c 08 	sts	0x080C, r1	; 0x80080c <head_tag+0x1>
    5f26:	10 92 0b 08 	sts	0x080B, r1	; 0x80080b <head_tag>
	tail_tag = NULL;									// Letzter Tag auf NULL
    5f2a:	10 92 4d 0a 	sts	0x0A4D, r1	; 0x800a4d <tail_tag+0x1>
    5f2e:	10 92 4c 0a 	sts	0x0A4C, r1	; 0x800a4c <tail_tag>
	- Fr jedes gefundene File wird ein dynamisch gelinkter Eintrag in einer Liste generiert.
	- Im Eintrag ist der Name des Files gespeichert, und ermglicht einen spteren Aufruf.

******************************************************************************************************************/
		
	for (int8_t count = 0 ; count <= 12; count++)
    5f32:	c0 e0       	ldi	r28, 0x00	; 0
	{
	// String mit Name des Textfiles erstellen (Z0.txt bis Z199.txt)
		// Nummer des Existierenden Files in der Liste ablegen (head_zutat = letzt hinzugefgtes Getrnk)
		tmp = create_new_tag("Hoi", count+100, count);
    5f34:	64 e6       	ldi	r22, 0x64	; 100
    5f36:	6c 0f       	add	r22, r28
    5f38:	4c 2f       	mov	r20, r28
    5f3a:	8e ee       	ldi	r24, 0xEE	; 238
    5f3c:	96 e0       	ldi	r25, 0x06	; 6
    5f3e:	9f df       	rcall	.-194    	; 0x5e7e <create_new_tag>
		head_tag = insert_tag_at_head(&head_tag, tmp);
    5f40:	bc 01       	movw	r22, r24
    5f42:	8b e0       	ldi	r24, 0x0B	; 11
    5f44:	98 e0       	ldi	r25, 0x08	; 8
    5f46:	c1 df       	rcall	.-126    	; 0x5eca <insert_tag_at_head>
    5f48:	90 93 0c 08 	sts	0x080C, r25	; 0x80080c <head_tag+0x1>
    5f4c:	80 93 0b 08 	sts	0x080B, r24	; 0x80080b <head_tag>
    5f50:	cf 5f       	subi	r28, 0xFF	; 255
	- Fr jedes gefundene File wird ein dynamisch gelinkter Eintrag in einer Liste generiert.
	- Im Eintrag ist der Name des Files gespeichert, und ermglicht einen spteren Aufruf.

******************************************************************************************************************/
		
	for (int8_t count = 0 ; count <= 12; count++)
    5f52:	cd 30       	cpi	r28, 0x0D	; 13
    5f54:	79 f7       	brne	.-34     	; 0x5f34 <RFID_init+0x14>
	// String mit Name des Textfiles erstellen (Z0.txt bis Z199.txt)
		// Nummer des Existierenden Files in der Liste ablegen (head_zutat = letzt hinzugefgtes Getrnk)
		tmp = create_new_tag("Hoi", count+100, count);
		head_tag = insert_tag_at_head(&head_tag, tmp);
 	}
}
    5f56:	cf 91       	pop	r28
    5f58:	08 95       	ret

00005f5a <tmc40bit_writeInt>:

int tmc4671_readInt(unsigned int motor, unsigned char address)
{
	tmc40bit_readInt(motor, address);
	return tmc40bit_readInt(motor, address);
}
    5f5a:	ff 92       	push	r15
    5f5c:	0f 93       	push	r16
    5f5e:	1f 93       	push	r17
    5f60:	cf 93       	push	r28
    5f62:	df 93       	push	r29
    5f64:	f6 2e       	mov	r15, r22
    5f66:	c2 2f       	mov	r28, r18
    5f68:	d3 2f       	mov	r29, r19
    5f6a:	14 2f       	mov	r17, r20
    5f6c:	05 2f       	mov	r16, r21
    5f6e:	80 e0       	ldi	r24, 0x00	; 0
    5f70:	4c df       	rcall	.-360    	; 0x5e0a <enable_Slave>
    5f72:	8f 2d       	mov	r24, r15
    5f74:	80 68       	ori	r24, 0x80	; 128
    5f76:	3c df       	rcall	.-392    	; 0x5df0 <spi_transmit>
    5f78:	80 2f       	mov	r24, r16
    5f7a:	3a df       	rcall	.-396    	; 0x5df0 <spi_transmit>
    5f7c:	81 2f       	mov	r24, r17
    5f7e:	38 df       	rcall	.-400    	; 0x5df0 <spi_transmit>
    5f80:	8d 2f       	mov	r24, r29
    5f82:	36 df       	rcall	.-404    	; 0x5df0 <spi_transmit>
    5f84:	8c 2f       	mov	r24, r28
    5f86:	34 df       	rcall	.-408    	; 0x5df0 <spi_transmit>
    5f88:	80 e0       	ldi	r24, 0x00	; 0
    5f8a:	57 df       	rcall	.-338    	; 0x5e3a <disable_Slave>
    5f8c:	df 91       	pop	r29
    5f8e:	cf 91       	pop	r28
    5f90:	1f 91       	pop	r17
    5f92:	0f 91       	pop	r16
    5f94:	ff 90       	pop	r15
    5f96:	08 95       	ret

00005f98 <TMC4671_init>:
	tmc40bit_writeInt(motor, address, value);
}

void tmc4671_writeInt(unsigned int motor, unsigned char address, unsigned long value)
{
	tmc40bit_writeInt(motor, address, value);
    5f98:	21 e0       	ldi	r18, 0x01	; 1
    5f9a:	30 e0       	ldi	r19, 0x00	; 0
    5f9c:	43 e0       	ldi	r20, 0x03	; 3
    5f9e:	50 e0       	ldi	r21, 0x00	; 0
    5fa0:	6b e1       	ldi	r22, 0x1B	; 27
    5fa2:	80 e0       	ldi	r24, 0x00	; 0
    5fa4:	90 e0       	ldi	r25, 0x00	; 0
    5fa6:	d9 df       	rcall	.-78     	; 0x5f5a <tmc40bit_writeInt>
    5fa8:	20 e0       	ldi	r18, 0x00	; 0
    5faa:	30 e0       	ldi	r19, 0x00	; 0
    5fac:	a9 01       	movw	r20, r18
    5fae:	67 e1       	ldi	r22, 0x17	; 23
    5fb0:	80 e0       	ldi	r24, 0x00	; 0
    5fb2:	90 e0       	ldi	r25, 0x00	; 0
    5fb4:	d2 df       	rcall	.-92     	; 0x5f5a <tmc40bit_writeInt>
    5fb6:	2f e9       	ldi	r18, 0x9F	; 159
    5fb8:	3f e0       	ldi	r19, 0x0F	; 15
    5fba:	40 e0       	ldi	r20, 0x00	; 0
    5fbc:	50 e0       	ldi	r21, 0x00	; 0
    5fbe:	68 e1       	ldi	r22, 0x18	; 24
    5fc0:	80 e0       	ldi	r24, 0x00	; 0
    5fc2:	90 e0       	ldi	r25, 0x00	; 0
    5fc4:	ca df       	rcall	.-108    	; 0x5f5a <tmc40bit_writeInt>
    5fc6:	29 e1       	ldi	r18, 0x19	; 25
    5fc8:	39 e1       	ldi	r19, 0x19	; 25
    5fca:	40 e0       	ldi	r20, 0x00	; 0
    5fcc:	50 e0       	ldi	r21, 0x00	; 0
    5fce:	69 e1       	ldi	r22, 0x19	; 25
    5fd0:	80 e0       	ldi	r24, 0x00	; 0
    5fd2:	90 e0       	ldi	r25, 0x00	; 0
    5fd4:	c2 df       	rcall	.-124    	; 0x5f5a <tmc40bit_writeInt>
    5fd6:	27 e0       	ldi	r18, 0x07	; 7
    5fd8:	30 e0       	ldi	r19, 0x00	; 0
    5fda:	40 e0       	ldi	r20, 0x00	; 0
    5fdc:	50 e0       	ldi	r21, 0x00	; 0
    5fde:	6a e1       	ldi	r22, 0x1A	; 26
    5fe0:	80 e0       	ldi	r24, 0x00	; 0
    5fe2:	90 e0       	ldi	r25, 0x00	; 0
    5fe4:	ba df       	rcall	.-140    	; 0x5f5a <tmc40bit_writeInt>
    5fe6:	20 e0       	ldi	r18, 0x00	; 0
    5fe8:	30 e0       	ldi	r19, 0x00	; 0
    5fea:	a9 01       	movw	r20, r18
    5fec:	6f e1       	ldi	r22, 0x1F	; 31
    5fee:	80 e0       	ldi	r24, 0x00	; 0
    5ff0:	90 e0       	ldi	r25, 0x00	; 0
    5ff2:	b3 df       	rcall	.-154    	; 0x5f5a <tmc40bit_writeInt>
    5ff4:	2c e3       	ldi	r18, 0x3C	; 60
    5ff6:	30 e0       	ldi	r19, 0x00	; 0
    5ff8:	40 e0       	ldi	r20, 0x00	; 0
    5ffa:	50 e0       	ldi	r21, 0x00	; 0
    5ffc:	60 e2       	ldi	r22, 0x20	; 32
    5ffe:	80 e0       	ldi	r24, 0x00	; 0
    6000:	90 e0       	ldi	r25, 0x00	; 0
    6002:	ab df       	rcall	.-170    	; 0x5f5a <tmc40bit_writeInt>
    6004:	2e e1       	ldi	r18, 0x1E	; 30
    6006:	30 e0       	ldi	r19, 0x00	; 0
    6008:	40 e0       	ldi	r20, 0x00	; 0
    600a:	50 e0       	ldi	r21, 0x00	; 0
    600c:	61 e2       	ldi	r22, 0x21	; 33
    600e:	80 e0       	ldi	r24, 0x00	; 0
    6010:	90 e0       	ldi	r25, 0x00	; 0
    6012:	a3 df       	rcall	.-186    	; 0x5f5a <tmc40bit_writeInt>
    6014:	22 e0       	ldi	r18, 0x02	; 2
    6016:	30 e0       	ldi	r19, 0x00	; 0
    6018:	40 e0       	ldi	r20, 0x00	; 0
    601a:	50 e0       	ldi	r21, 0x00	; 0
    601c:	62 e5       	ldi	r22, 0x52	; 82
    601e:	80 e0       	ldi	r24, 0x00	; 0
    6020:	90 e0       	ldi	r25, 0x00	; 0
    6022:	9b df       	rcall	.-202    	; 0x5f5a <tmc40bit_writeInt>
    6024:	20 ea       	ldi	r18, 0xA0	; 160
    6026:	3f e0       	ldi	r19, 0x0F	; 15
    6028:	40 e0       	ldi	r20, 0x00	; 0
    602a:	50 e0       	ldi	r21, 0x00	; 0
    602c:	64 e2       	ldi	r22, 0x24	; 36
    602e:	80 e0       	ldi	r24, 0x00	; 0
    6030:	90 e0       	ldi	r25, 0x00	; 0
    6032:	93 df       	rcall	.-218    	; 0x5f5a <tmc40bit_writeInt>
    6034:	28 e0       	ldi	r18, 0x08	; 8
    6036:	30 e0       	ldi	r19, 0x00	; 0
    6038:	40 e0       	ldi	r20, 0x00	; 0
    603a:	50 e0       	ldi	r21, 0x00	; 0
    603c:	63 e6       	ldi	r22, 0x63	; 99
    603e:	80 e0       	ldi	r24, 0x00	; 0
    6040:	90 e0       	ldi	r25, 0x00	; 0
    6042:	8b df       	rcall	.-234    	; 0x5f5a <tmc40bit_writeInt>
    6044:	2c e3       	ldi	r18, 0x3C	; 60
    6046:	30 e0       	ldi	r19, 0x00	; 0
    6048:	40 e0       	ldi	r20, 0x00	; 0
    604a:	50 e0       	ldi	r21, 0x00	; 0
    604c:	61 e2       	ldi	r22, 0x21	; 33
    604e:	80 e0       	ldi	r24, 0x00	; 0
    6050:	90 e0       	ldi	r25, 0x00	; 0
    6052:	83 df       	rcall	.-250    	; 0x5f5a <tmc40bit_writeInt>
    6054:	2f ef       	ldi	r18, 0xFF	; 255
    6056:	87 ea       	ldi	r24, 0xA7	; 167
    6058:	91 e6       	ldi	r25, 0x61	; 97
    605a:	21 50       	subi	r18, 0x01	; 1
    605c:	80 40       	sbci	r24, 0x00	; 0
    605e:	90 40       	sbci	r25, 0x00	; 0
    6060:	e1 f7       	brne	.-8      	; 0x605a <TMC4671_init+0xc2>
    6062:	00 c0       	rjmp	.+0      	; 0x6064 <TMC4671_init+0xcc>
    6064:	00 00       	nop
    6066:	08 95       	ret

00006068 <tx_completed>:
	while(RB_length(&rb_rx_PC)==0); 	// Wait for incomming data
	
	data = RB_readByte(&rb_rx_PC);
	
	return(data);
}
    6068:	00 00       	nop
    606a:	00 00       	nop
    606c:	08 95       	ret

0000606e <UART_init>:
    606e:	cf 92       	push	r12
    6070:	df 92       	push	r13
    6072:	ef 92       	push	r14
    6074:	ff 92       	push	r15
    6076:	0f 93       	push	r16
    6078:	1f 93       	push	r17
    607a:	cf 93       	push	r28
    607c:	df 93       	push	r29
    607e:	10 92 c5 00 	sts	0x00C5, r1	; 0x8000c5 <__TEXT_REGION_LENGTH__+0x7000c5>
    6082:	27 e6       	ldi	r18, 0x67	; 103
    6084:	20 93 c4 00 	sts	0x00C4, r18	; 0x8000c4 <__TEXT_REGION_LENGTH__+0x7000c4>
    6088:	0f 2e       	mov	r0, r31
    608a:	f1 ec       	ldi	r31, 0xC1	; 193
    608c:	cf 2e       	mov	r12, r31
    608e:	d1 2c       	mov	r13, r1
    6090:	f0 2d       	mov	r31, r0
    6092:	98 e1       	ldi	r25, 0x18	; 24
    6094:	f6 01       	movw	r30, r12
    6096:	90 83       	st	Z, r25
    6098:	86 e0       	ldi	r24, 0x06	; 6
    609a:	80 93 c2 00 	sts	0x00C2, r24	; 0x8000c2 <__TEXT_REGION_LENGTH__+0x7000c2>
    609e:	10 92 cd 00 	sts	0x00CD, r1	; 0x8000cd <__TEXT_REGION_LENGTH__+0x7000cd>
    60a2:	20 93 cc 00 	sts	0x00CC, r18	; 0x8000cc <__TEXT_REGION_LENGTH__+0x7000cc>
    60a6:	0f 2e       	mov	r0, r31
    60a8:	f9 ec       	ldi	r31, 0xC9	; 201
    60aa:	ef 2e       	mov	r14, r31
    60ac:	f1 2c       	mov	r15, r1
    60ae:	f0 2d       	mov	r31, r0
    60b0:	f7 01       	movw	r30, r14
    60b2:	90 83       	st	Z, r25
    60b4:	80 93 ca 00 	sts	0x00CA, r24	; 0x8000ca <__TEXT_REGION_LENGTH__+0x7000ca>
    60b8:	10 92 d5 00 	sts	0x00D5, r1	; 0x8000d5 <__TEXT_REGION_LENGTH__+0x7000d5>
    60bc:	20 93 d4 00 	sts	0x00D4, r18	; 0x8000d4 <__TEXT_REGION_LENGTH__+0x7000d4>
    60c0:	01 ed       	ldi	r16, 0xD1	; 209
    60c2:	10 e0       	ldi	r17, 0x00	; 0
    60c4:	f8 01       	movw	r30, r16
    60c6:	90 83       	st	Z, r25
    60c8:	80 93 d2 00 	sts	0x00D2, r24	; 0x8000d2 <__TEXT_REGION_LENGTH__+0x7000d2>
    60cc:	10 92 35 01 	sts	0x0135, r1	; 0x800135 <__TEXT_REGION_LENGTH__+0x700135>
    60d0:	20 93 34 01 	sts	0x0134, r18	; 0x800134 <__TEXT_REGION_LENGTH__+0x700134>
    60d4:	c1 e3       	ldi	r28, 0x31	; 49
    60d6:	d1 e0       	ldi	r29, 0x01	; 1
    60d8:	98 83       	st	Y, r25
    60da:	80 93 32 01 	sts	0x0132, r24	; 0x800132 <__TEXT_REGION_LENGTH__+0x700132>
    60de:	81 e0       	ldi	r24, 0x01	; 1
    60e0:	97 e0       	ldi	r25, 0x07	; 7
    60e2:	0e 94 83 22 	call	0x4506	; 0x4506 <RB_init>
    60e6:	8d e7       	ldi	r24, 0x7D	; 125
    60e8:	9d e0       	ldi	r25, 0x0D	; 13
    60ea:	0e 94 83 22 	call	0x4506	; 0x4506 <RB_init>
    60ee:	8b e4       	ldi	r24, 0x4B	; 75
    60f0:	99 e0       	ldi	r25, 0x09	; 9
    60f2:	0e 94 83 22 	call	0x4506	; 0x4506 <RB_init>
    60f6:	8e e7       	ldi	r24, 0x7E	; 126
    60f8:	9e e0       	ldi	r25, 0x0E	; 14
    60fa:	0e 94 83 22 	call	0x4506	; 0x4506 <RB_init>
    60fe:	80 e4       	ldi	r24, 0x40	; 64
    6100:	98 e0       	ldi	r25, 0x08	; 8
    6102:	0e 94 83 22 	call	0x4506	; 0x4506 <RB_init>
    6106:	88 e5       	ldi	r24, 0x58	; 88
    6108:	9c e0       	ldi	r25, 0x0C	; 12
    610a:	0e 94 83 22 	call	0x4506	; 0x4506 <RB_init>
    610e:	88 e8       	ldi	r24, 0x88	; 136
    6110:	9f e0       	ldi	r25, 0x0F	; 15
    6112:	0e 94 83 22 	call	0x4506	; 0x4506 <RB_init>
    6116:	f6 01       	movw	r30, r12
    6118:	80 81       	ld	r24, Z
    611a:	80 68       	ori	r24, 0x80	; 128
    611c:	80 83       	st	Z, r24
    611e:	f7 01       	movw	r30, r14
    6120:	80 81       	ld	r24, Z
    6122:	80 68       	ori	r24, 0x80	; 128
    6124:	80 83       	st	Z, r24
    6126:	f8 01       	movw	r30, r16
    6128:	80 81       	ld	r24, Z
    612a:	80 68       	ori	r24, 0x80	; 128
    612c:	80 83       	st	Z, r24
    612e:	88 81       	ld	r24, Y
    6130:	80 68       	ori	r24, 0x80	; 128
    6132:	88 83       	st	Y, r24
    6134:	78 94       	sei
    6136:	84 e3       	ldi	r24, 0x34	; 52
    6138:	90 e3       	ldi	r25, 0x30	; 48
    613a:	90 93 c7 10 	sts	0x10C7, r25	; 0x8010c7 <ptr_tx_completed_0+0x1>
    613e:	80 93 c6 10 	sts	0x10C6, r24	; 0x8010c6 <ptr_tx_completed_0>
    6142:	90 93 29 08 	sts	0x0829, r25	; 0x800829 <ptr_tx_completed_1+0x1>
    6146:	80 93 28 08 	sts	0x0828, r24	; 0x800828 <ptr_tx_completed_1>
    614a:	90 93 52 0c 	sts	0x0C52, r25	; 0x800c52 <ptr_tx_completed_2+0x1>
    614e:	80 93 51 0c 	sts	0x0C51, r24	; 0x800c51 <ptr_tx_completed_2>
    6152:	90 93 7a 0d 	sts	0x0D7A, r25	; 0x800d7a <ptr_tx_completed_3+0x1>
    6156:	80 93 79 0d 	sts	0x0D79, r24	; 0x800d79 <ptr_tx_completed_3>
    615a:	df 91       	pop	r29
    615c:	cf 91       	pop	r28
    615e:	1f 91       	pop	r17
    6160:	0f 91       	pop	r16
    6162:	ff 90       	pop	r15
    6164:	ef 90       	pop	r14
    6166:	df 90       	pop	r13
    6168:	cf 90       	pop	r12
    616a:	08 95       	ret

0000616c <Uart_Transmit_IT_PC>:
    616c:	fc 01       	movw	r30, r24
    616e:	01 90       	ld	r0, Z+
    6170:	00 20       	and	r0, r0
    6172:	e9 f7       	brne	.-6      	; 0x616e <Uart_Transmit_IT_PC+0x2>
    6174:	31 97       	sbiw	r30, 0x01	; 1
    6176:	af 01       	movw	r20, r30
    6178:	48 1b       	sub	r20, r24
    617a:	59 0b       	sbc	r21, r25
    617c:	bc 01       	movw	r22, r24
    617e:	81 e0       	ldi	r24, 0x01	; 1
    6180:	97 e0       	ldi	r25, 0x07	; 7
    6182:	0e 94 cf 22 	call	0x459e	; 0x459e <RB_write>
    6186:	e1 ec       	ldi	r30, 0xC1	; 193
    6188:	f0 e0       	ldi	r31, 0x00	; 0
    618a:	80 81       	ld	r24, Z
    618c:	80 62       	ori	r24, 0x20	; 32
    618e:	80 83       	st	Z, r24
    6190:	08 95       	ret

00006192 <Uart_Transmit_IT_Display>:
    6192:	cf 93       	push	r28
    6194:	df 93       	push	r29
    6196:	fc 01       	movw	r30, r24
    6198:	20 81       	ld	r18, Z
    619a:	22 23       	and	r18, r18
    619c:	69 f0       	breq	.+26     	; 0x61b8 <Uart_Transmit_IT_Display+0x26>
    619e:	dc 01       	movw	r26, r24
    61a0:	11 96       	adiw	r26, 0x01	; 1
    61a2:	e8 ec       	ldi	r30, 0xC8	; 200
    61a4:	f0 e0       	ldi	r31, 0x00	; 0
    61a6:	ce ec       	ldi	r28, 0xCE	; 206
    61a8:	d0 e0       	ldi	r29, 0x00	; 0
    61aa:	90 81       	ld	r25, Z
    61ac:	95 ff       	sbrs	r25, 5
    61ae:	fd cf       	rjmp	.-6      	; 0x61aa <Uart_Transmit_IT_Display+0x18>
    61b0:	28 83       	st	Y, r18
    61b2:	2d 91       	ld	r18, X+
    61b4:	21 11       	cpse	r18, r1
    61b6:	f9 cf       	rjmp	.-14     	; 0x61aa <Uart_Transmit_IT_Display+0x18>
    61b8:	df 91       	pop	r29
    61ba:	cf 91       	pop	r28
    61bc:	08 95       	ret

000061be <__vector_26>:
    61be:	1f 92       	push	r1
    61c0:	0f 92       	push	r0
    61c2:	0f b6       	in	r0, 0x3f	; 63
    61c4:	0f 92       	push	r0
    61c6:	11 24       	eor	r1, r1
    61c8:	0b b6       	in	r0, 0x3b	; 59
    61ca:	0f 92       	push	r0
    61cc:	2f 93       	push	r18
    61ce:	3f 93       	push	r19
    61d0:	4f 93       	push	r20
    61d2:	5f 93       	push	r21
    61d4:	6f 93       	push	r22
    61d6:	7f 93       	push	r23
    61d8:	8f 93       	push	r24
    61da:	9f 93       	push	r25
    61dc:	af 93       	push	r26
    61de:	bf 93       	push	r27
    61e0:	ef 93       	push	r30
    61e2:	ff 93       	push	r31
    61e4:	81 e0       	ldi	r24, 0x01	; 1
    61e6:	97 e0       	ldi	r25, 0x07	; 7
    61e8:	0e 94 92 22 	call	0x4524	; 0x4524 <RB_length>
    61ec:	88 23       	and	r24, r24
    61ee:	39 f0       	breq	.+14     	; 0x61fe <__vector_26+0x40>
    61f0:	81 e0       	ldi	r24, 0x01	; 1
    61f2:	97 e0       	ldi	r25, 0x07	; 7
    61f4:	0e 94 9e 22 	call	0x453c	; 0x453c <RB_readByte>
    61f8:	80 93 c6 00 	sts	0x00C6, r24	; 0x8000c6 <__TEXT_REGION_LENGTH__+0x7000c6>
    61fc:	0c c0       	rjmp	.+24     	; 0x6216 <__vector_26+0x58>
    61fe:	e1 ec       	ldi	r30, 0xC1	; 193
    6200:	f0 e0       	ldi	r31, 0x00	; 0
    6202:	80 81       	ld	r24, Z
    6204:	8f 7d       	andi	r24, 0xDF	; 223
    6206:	80 83       	st	Z, r24
    6208:	e0 91 c6 10 	lds	r30, 0x10C6	; 0x8010c6 <ptr_tx_completed_0>
    620c:	f0 91 c7 10 	lds	r31, 0x10C7	; 0x8010c7 <ptr_tx_completed_0+0x1>
    6210:	30 97       	sbiw	r30, 0x00	; 0
    6212:	09 f0       	breq	.+2      	; 0x6216 <__vector_26+0x58>
    6214:	19 95       	eicall
    6216:	ff 91       	pop	r31
    6218:	ef 91       	pop	r30
    621a:	bf 91       	pop	r27
    621c:	af 91       	pop	r26
    621e:	9f 91       	pop	r25
    6220:	8f 91       	pop	r24
    6222:	7f 91       	pop	r23
    6224:	6f 91       	pop	r22
    6226:	5f 91       	pop	r21
    6228:	4f 91       	pop	r20
    622a:	3f 91       	pop	r19
    622c:	2f 91       	pop	r18
    622e:	0f 90       	pop	r0
    6230:	0b be       	out	0x3b, r0	; 59
    6232:	0f 90       	pop	r0
    6234:	0f be       	out	0x3f, r0	; 63
    6236:	0f 90       	pop	r0
    6238:	1f 90       	pop	r1
    623a:	18 95       	reti

0000623c <__vector_25>:
    623c:	1f 92       	push	r1
    623e:	0f 92       	push	r0
    6240:	0f b6       	in	r0, 0x3f	; 63
    6242:	0f 92       	push	r0
    6244:	11 24       	eor	r1, r1
    6246:	0b b6       	in	r0, 0x3b	; 59
    6248:	0f 92       	push	r0
    624a:	2f 93       	push	r18
    624c:	3f 93       	push	r19
    624e:	4f 93       	push	r20
    6250:	5f 93       	push	r21
    6252:	6f 93       	push	r22
    6254:	7f 93       	push	r23
    6256:	8f 93       	push	r24
    6258:	9f 93       	push	r25
    625a:	af 93       	push	r26
    625c:	bf 93       	push	r27
    625e:	ef 93       	push	r30
    6260:	ff 93       	push	r31
    6262:	60 91 c6 00 	lds	r22, 0x00C6	; 0x8000c6 <__TEXT_REGION_LENGTH__+0x7000c6>
    6266:	8d e7       	ldi	r24, 0x7D	; 125
    6268:	9d e0       	ldi	r25, 0x0D	; 13
    626a:	0e 94 b2 22 	call	0x4564	; 0x4564 <RB_writeByte>
    626e:	ff 91       	pop	r31
    6270:	ef 91       	pop	r30
    6272:	bf 91       	pop	r27
    6274:	af 91       	pop	r26
    6276:	9f 91       	pop	r25
    6278:	8f 91       	pop	r24
    627a:	7f 91       	pop	r23
    627c:	6f 91       	pop	r22
    627e:	5f 91       	pop	r21
    6280:	4f 91       	pop	r20
    6282:	3f 91       	pop	r19
    6284:	2f 91       	pop	r18
    6286:	0f 90       	pop	r0
    6288:	0b be       	out	0x3b, r0	; 59
    628a:	0f 90       	pop	r0
    628c:	0f be       	out	0x3f, r0	; 63
    628e:	0f 90       	pop	r0
    6290:	1f 90       	pop	r1
    6292:	18 95       	reti

00006294 <__vector_36>:
    6294:	1f 92       	push	r1
    6296:	0f 92       	push	r0
    6298:	0f b6       	in	r0, 0x3f	; 63
    629a:	0f 92       	push	r0
    629c:	11 24       	eor	r1, r1
    629e:	0b b6       	in	r0, 0x3b	; 59
    62a0:	0f 92       	push	r0
    62a2:	2f 93       	push	r18
    62a4:	3f 93       	push	r19
    62a6:	4f 93       	push	r20
    62a8:	5f 93       	push	r21
    62aa:	6f 93       	push	r22
    62ac:	7f 93       	push	r23
    62ae:	8f 93       	push	r24
    62b0:	9f 93       	push	r25
    62b2:	af 93       	push	r26
    62b4:	bf 93       	push	r27
    62b6:	ef 93       	push	r30
    62b8:	ff 93       	push	r31
    62ba:	60 91 ce 00 	lds	r22, 0x00CE	; 0x8000ce <__TEXT_REGION_LENGTH__+0x7000ce>
    62be:	8b e4       	ldi	r24, 0x4B	; 75
    62c0:	99 e0       	ldi	r25, 0x09	; 9
    62c2:	0e 94 b2 22 	call	0x4564	; 0x4564 <RB_writeByte>
    62c6:	ff 91       	pop	r31
    62c8:	ef 91       	pop	r30
    62ca:	bf 91       	pop	r27
    62cc:	af 91       	pop	r26
    62ce:	9f 91       	pop	r25
    62d0:	8f 91       	pop	r24
    62d2:	7f 91       	pop	r23
    62d4:	6f 91       	pop	r22
    62d6:	5f 91       	pop	r21
    62d8:	4f 91       	pop	r20
    62da:	3f 91       	pop	r19
    62dc:	2f 91       	pop	r18
    62de:	0f 90       	pop	r0
    62e0:	0b be       	out	0x3b, r0	; 59
    62e2:	0f 90       	pop	r0
    62e4:	0f be       	out	0x3f, r0	; 63
    62e6:	0f 90       	pop	r0
    62e8:	1f 90       	pop	r1
    62ea:	18 95       	reti

000062ec <__vector_52>:
    62ec:	1f 92       	push	r1
    62ee:	0f 92       	push	r0
    62f0:	0f b6       	in	r0, 0x3f	; 63
    62f2:	0f 92       	push	r0
    62f4:	11 24       	eor	r1, r1
    62f6:	0b b6       	in	r0, 0x3b	; 59
    62f8:	0f 92       	push	r0
    62fa:	2f 93       	push	r18
    62fc:	3f 93       	push	r19
    62fe:	4f 93       	push	r20
    6300:	5f 93       	push	r21
    6302:	6f 93       	push	r22
    6304:	7f 93       	push	r23
    6306:	8f 93       	push	r24
    6308:	9f 93       	push	r25
    630a:	af 93       	push	r26
    630c:	bf 93       	push	r27
    630e:	ef 93       	push	r30
    6310:	ff 93       	push	r31
    6312:	8e e7       	ldi	r24, 0x7E	; 126
    6314:	9e e0       	ldi	r25, 0x0E	; 14
    6316:	0e 94 92 22 	call	0x4524	; 0x4524 <RB_length>
    631a:	88 23       	and	r24, r24
    631c:	39 f0       	breq	.+14     	; 0x632c <__vector_52+0x40>
    631e:	8e e7       	ldi	r24, 0x7E	; 126
    6320:	9e e0       	ldi	r25, 0x0E	; 14
    6322:	0e 94 9e 22 	call	0x453c	; 0x453c <RB_readByte>
    6326:	80 93 d6 00 	sts	0x00D6, r24	; 0x8000d6 <__TEXT_REGION_LENGTH__+0x7000d6>
    632a:	0c c0       	rjmp	.+24     	; 0x6344 <__vector_52+0x58>
    632c:	e1 ed       	ldi	r30, 0xD1	; 209
    632e:	f0 e0       	ldi	r31, 0x00	; 0
    6330:	80 81       	ld	r24, Z
    6332:	8f 7d       	andi	r24, 0xDF	; 223
    6334:	80 83       	st	Z, r24
    6336:	e0 91 51 0c 	lds	r30, 0x0C51	; 0x800c51 <ptr_tx_completed_2>
    633a:	f0 91 52 0c 	lds	r31, 0x0C52	; 0x800c52 <ptr_tx_completed_2+0x1>
    633e:	30 97       	sbiw	r30, 0x00	; 0
    6340:	09 f0       	breq	.+2      	; 0x6344 <__vector_52+0x58>
    6342:	19 95       	eicall
    6344:	ff 91       	pop	r31
    6346:	ef 91       	pop	r30
    6348:	bf 91       	pop	r27
    634a:	af 91       	pop	r26
    634c:	9f 91       	pop	r25
    634e:	8f 91       	pop	r24
    6350:	7f 91       	pop	r23
    6352:	6f 91       	pop	r22
    6354:	5f 91       	pop	r21
    6356:	4f 91       	pop	r20
    6358:	3f 91       	pop	r19
    635a:	2f 91       	pop	r18
    635c:	0f 90       	pop	r0
    635e:	0b be       	out	0x3b, r0	; 59
    6360:	0f 90       	pop	r0
    6362:	0f be       	out	0x3f, r0	; 63
    6364:	0f 90       	pop	r0
    6366:	1f 90       	pop	r1
    6368:	18 95       	reti

0000636a <__vector_51>:
    636a:	1f 92       	push	r1
    636c:	0f 92       	push	r0
    636e:	0f b6       	in	r0, 0x3f	; 63
    6370:	0f 92       	push	r0
    6372:	11 24       	eor	r1, r1
    6374:	0b b6       	in	r0, 0x3b	; 59
    6376:	0f 92       	push	r0
    6378:	2f 93       	push	r18
    637a:	3f 93       	push	r19
    637c:	4f 93       	push	r20
    637e:	5f 93       	push	r21
    6380:	6f 93       	push	r22
    6382:	7f 93       	push	r23
    6384:	8f 93       	push	r24
    6386:	9f 93       	push	r25
    6388:	af 93       	push	r26
    638a:	bf 93       	push	r27
    638c:	ef 93       	push	r30
    638e:	ff 93       	push	r31
    6390:	60 91 d6 00 	lds	r22, 0x00D6	; 0x8000d6 <__TEXT_REGION_LENGTH__+0x7000d6>
    6394:	80 e4       	ldi	r24, 0x40	; 64
    6396:	98 e0       	ldi	r25, 0x08	; 8
    6398:	0e 94 b2 22 	call	0x4564	; 0x4564 <RB_writeByte>
    639c:	ff 91       	pop	r31
    639e:	ef 91       	pop	r30
    63a0:	bf 91       	pop	r27
    63a2:	af 91       	pop	r26
    63a4:	9f 91       	pop	r25
    63a6:	8f 91       	pop	r24
    63a8:	7f 91       	pop	r23
    63aa:	6f 91       	pop	r22
    63ac:	5f 91       	pop	r21
    63ae:	4f 91       	pop	r20
    63b0:	3f 91       	pop	r19
    63b2:	2f 91       	pop	r18
    63b4:	0f 90       	pop	r0
    63b6:	0b be       	out	0x3b, r0	; 59
    63b8:	0f 90       	pop	r0
    63ba:	0f be       	out	0x3f, r0	; 63
    63bc:	0f 90       	pop	r0
    63be:	1f 90       	pop	r1
    63c0:	18 95       	reti

000063c2 <__vector_55>:
    63c2:	1f 92       	push	r1
    63c4:	0f 92       	push	r0
    63c6:	0f b6       	in	r0, 0x3f	; 63
    63c8:	0f 92       	push	r0
    63ca:	11 24       	eor	r1, r1
    63cc:	0b b6       	in	r0, 0x3b	; 59
    63ce:	0f 92       	push	r0
    63d0:	2f 93       	push	r18
    63d2:	3f 93       	push	r19
    63d4:	4f 93       	push	r20
    63d6:	5f 93       	push	r21
    63d8:	6f 93       	push	r22
    63da:	7f 93       	push	r23
    63dc:	8f 93       	push	r24
    63de:	9f 93       	push	r25
    63e0:	af 93       	push	r26
    63e2:	bf 93       	push	r27
    63e4:	ef 93       	push	r30
    63e6:	ff 93       	push	r31
    63e8:	88 e5       	ldi	r24, 0x58	; 88
    63ea:	9c e0       	ldi	r25, 0x0C	; 12
    63ec:	0e 94 92 22 	call	0x4524	; 0x4524 <RB_length>
    63f0:	88 23       	and	r24, r24
    63f2:	39 f0       	breq	.+14     	; 0x6402 <__vector_55+0x40>
    63f4:	88 e5       	ldi	r24, 0x58	; 88
    63f6:	9c e0       	ldi	r25, 0x0C	; 12
    63f8:	0e 94 9e 22 	call	0x453c	; 0x453c <RB_readByte>
    63fc:	80 93 36 01 	sts	0x0136, r24	; 0x800136 <__TEXT_REGION_LENGTH__+0x700136>
    6400:	0c c0       	rjmp	.+24     	; 0x641a <__vector_55+0x58>
    6402:	e1 e3       	ldi	r30, 0x31	; 49
    6404:	f1 e0       	ldi	r31, 0x01	; 1
    6406:	80 81       	ld	r24, Z
    6408:	8f 7d       	andi	r24, 0xDF	; 223
    640a:	80 83       	st	Z, r24
    640c:	e0 91 79 0d 	lds	r30, 0x0D79	; 0x800d79 <ptr_tx_completed_3>
    6410:	f0 91 7a 0d 	lds	r31, 0x0D7A	; 0x800d7a <ptr_tx_completed_3+0x1>
    6414:	30 97       	sbiw	r30, 0x00	; 0
    6416:	09 f0       	breq	.+2      	; 0x641a <__vector_55+0x58>
    6418:	19 95       	eicall
    641a:	ff 91       	pop	r31
    641c:	ef 91       	pop	r30
    641e:	bf 91       	pop	r27
    6420:	af 91       	pop	r26
    6422:	9f 91       	pop	r25
    6424:	8f 91       	pop	r24
    6426:	7f 91       	pop	r23
    6428:	6f 91       	pop	r22
    642a:	5f 91       	pop	r21
    642c:	4f 91       	pop	r20
    642e:	3f 91       	pop	r19
    6430:	2f 91       	pop	r18
    6432:	0f 90       	pop	r0
    6434:	0b be       	out	0x3b, r0	; 59
    6436:	0f 90       	pop	r0
    6438:	0f be       	out	0x3f, r0	; 63
    643a:	0f 90       	pop	r0
    643c:	1f 90       	pop	r1
    643e:	18 95       	reti

00006440 <__vector_54>:
    6440:	1f 92       	push	r1
    6442:	0f 92       	push	r0
    6444:	0f b6       	in	r0, 0x3f	; 63
    6446:	0f 92       	push	r0
    6448:	11 24       	eor	r1, r1
    644a:	0b b6       	in	r0, 0x3b	; 59
    644c:	0f 92       	push	r0
    644e:	2f 93       	push	r18
    6450:	3f 93       	push	r19
    6452:	4f 93       	push	r20
    6454:	5f 93       	push	r21
    6456:	6f 93       	push	r22
    6458:	7f 93       	push	r23
    645a:	8f 93       	push	r24
    645c:	9f 93       	push	r25
    645e:	af 93       	push	r26
    6460:	bf 93       	push	r27
    6462:	ef 93       	push	r30
    6464:	ff 93       	push	r31
    6466:	60 91 36 01 	lds	r22, 0x0136	; 0x800136 <__TEXT_REGION_LENGTH__+0x700136>
    646a:	88 e8       	ldi	r24, 0x88	; 136
    646c:	9f e0       	ldi	r25, 0x0F	; 15
    646e:	0e 94 b2 22 	call	0x4564	; 0x4564 <RB_writeByte>
    6472:	ff 91       	pop	r31
    6474:	ef 91       	pop	r30
    6476:	bf 91       	pop	r27
    6478:	af 91       	pop	r26
    647a:	9f 91       	pop	r25
    647c:	8f 91       	pop	r24
    647e:	7f 91       	pop	r23
    6480:	6f 91       	pop	r22
    6482:	5f 91       	pop	r21
    6484:	4f 91       	pop	r20
    6486:	3f 91       	pop	r19
    6488:	2f 91       	pop	r18
    648a:	0f 90       	pop	r0
    648c:	0b be       	out	0x3b, r0	; 59
    648e:	0f 90       	pop	r0
    6490:	0f be       	out	0x3f, r0	; 63
    6492:	0f 90       	pop	r0
    6494:	1f 90       	pop	r1
    6496:	18 95       	reti

00006498 <transmitByte>:
//***************************************************
//Function to transmit a single byte
//***************************************************
void transmitByte( unsigned char data )
{
	while ( !(UCSR0A & (1<<UDRE0)) )
    6498:	e0 ec       	ldi	r30, 0xC0	; 192
    649a:	f0 e0       	ldi	r31, 0x00	; 0
    649c:	90 81       	ld	r25, Z
    649e:	95 ff       	sbrs	r25, 5
    64a0:	fd cf       	rjmp	.-6      	; 0x649c <transmitByte+0x4>
		; 			                /* Wait for empty transmit buffer */
	UDR0 = data; 			        /* Start transmition */
    64a2:	80 93 c6 00 	sts	0x00C6, r24	; 0x8000c6 <__TEXT_REGION_LENGTH__+0x7000c6>
    64a6:	08 95       	ret

000064a8 <transmitString>:

//***************************************************
//Function to transmit a string in RAM
//***************************************************
void transmitString(unsigned char* string)
{
    64a8:	cf 93       	push	r28
    64aa:	df 93       	push	r29
    64ac:	ec 01       	movw	r28, r24
  while (*string)
    64ae:	88 81       	ld	r24, Y
    64b0:	88 23       	and	r24, r24
    64b2:	29 f0       	breq	.+10     	; 0x64be <transmitString+0x16>
    64b4:	21 96       	adiw	r28, 0x01	; 1
   transmitByte(*string++);
    64b6:	f0 df       	rcall	.-32     	; 0x6498 <transmitByte>
//***************************************************
//Function to transmit a string in RAM
//***************************************************
void transmitString(unsigned char* string)
{
  while (*string)
    64b8:	89 91       	ld	r24, Y+
    64ba:	81 11       	cpse	r24, r1
    64bc:	fc cf       	rjmp	.-8      	; 0x64b6 <transmitString+0xe>
   transmitByte(*string++);
}
    64be:	df 91       	pop	r29
    64c0:	cf 91       	pop	r28
    64c2:	08 95       	ret

000064c4 <main>:

// MainLoop
int main(void)
{
	// Gate Treiber disable (active high)
 	EN_TMC6200_PORT &= ~EN_TMC6200_BIT;						// Disable TMC6200 (Active High)
    64c4:	e2 e0       	ldi	r30, 0x02	; 2
    64c6:	f1 e0       	ldi	r31, 0x01	; 1
    64c8:	80 81       	ld	r24, Z
    64ca:	87 7f       	andi	r24, 0xF7	; 247
    64cc:	80 83       	st	Z, r24
 	EN_TMC6200_PORT |= EN_TMC6200_BIT;						// Disable TMC6200 (Active High)
    64ce:	80 81       	ld	r24, Z
    64d0:	88 60       	ori	r24, 0x08	; 8
    64d2:	80 83       	st	Z, r24
	
// Initialisierungen Interfaces
	IO_init();												// Ein-/Ausgangspins initialisieren
    64d4:	0e 94 67 1f 	call	0x3ece	; 0x3ece <IO_init>
	SPI_init();												// SPI-Schnittstelle initialisieren
    64d8:	c8 dc       	rcall	.-1648   	; 0x5e6a <SPI_init>
	UART_init();											// UART-Schnittstelle initialisieren
    64da:	c9 dd       	rcall	.-1134   	; 0x606e <UART_init>
    64dc:	0e 94 56 09 	call	0x12ac	; 0x12ac <SD_startup>
	SD_startup();											// SD-Karte initialisieren
// 	initTMC6200();											// Gate-Treiber initialisieren
	TMC4671_init();											// FOC-Treiber initialisieren
    64e0:	5b dd       	rcall	.-1354   	; 0x5f98 <TMC4671_init>
    64e2:	0e 94 27 22 	call	0x444e	; 0x444e <mfrc522_init>
// 	initTMC4671_Openloop();									// FOC-Treiber im Openloop laufen lassen
	mfrc522_init();											// RFID initialisieren
    64e6:	0e 94 4c 1e 	call	0x3c98	; 0x3c98 <zutaten_init>

// Initialisierungen Speicher
	zutaten_init();											// Zutaten initialisieren
	cocktails_init();										// Cocktails initialisieren
    64ea:	0e 94 22 1d 	call	0x3a44	; 0x3a44 <cocktails_init>
	RFID_init();
    64ee:	18 dd       	rcall	.-1488   	; 0x5f20 <RFID_init>
    64f0:	80 91 c4 10 	lds	r24, 0x10C4	; 0x8010c4 <aktuellesGetraenk>

// Initialisierungen Display
	setze_startanzeige(aktuellesGetraenk);					// Startanzeige des Displays setzen
    64f4:	90 91 c5 10 	lds	r25, 0x10C5	; 0x8010c5 <aktuellesGetraenk+0x1>
    64f8:	0e 94 f8 03 	call	0x7f0	; 0x7f0 <setze_startanzeige>
    64fc:	81 e0       	ldi	r24, 0x01	; 1
	Grossschreib = 1;										// Initialisiere Grossschreibung Display mit gross (gibt kein Display init();)
    64fe:	80 93 3a 08 	sts	0x083A, r24	; 0x80083a <Grossschreib>
    6502:	10 92 8a 10 	sts	0x108A, r1	; 0x80108a <i_Liste>
	i_Liste = 0;											// Listenabschnitt auf 0 vordefinieren
    6506:	10 92 30 08 	sts	0x0830, r1	; 0x800830 <i_Liste_test_cnt>
	i_Liste_test_cnt = 0;
    650a:	10 92 8b 10 	sts	0x108B, r1	; 0x80108b <i_Liste_test>
	i_Liste_test[i_Liste_test_cnt] = 0;
    650e:	10 92 53 0c 	sts	0x0C53, r1	; 0x800c53 <block_list_hoch>
	block_list_hoch = 0;									// Blockierung der Listen aufheben
    6512:	10 92 3f 08 	sts	0x083F, r1	; 0x80083f <block_list_runter>
	block_list_runter = 0;									// Blockierung der Listen aufheben
    6516:	0e 94 ca 20 	call	0x4194	; 0x4194 <check_Communication_Input_UART>
		
// Mainroutine
	while (1)
	{
// 		check_Communication_Input_MFRC522();				// Prfen, ob ein RFID-Tag erkannt wurde
		check_Communication_Input_UART();					// Prfen. ob ber UART einen Befehl geesendet wurde
    651a:	fd cf       	rjmp	.-6      	; 0x6516 <main+0x52>

0000651c <__mulsi3>:
    651c:	db 01       	movw	r26, r22
    651e:	8f 93       	push	r24
    6520:	9f 93       	push	r25
    6522:	44 d0       	rcall	.+136    	; 0x65ac <__muluhisi3>
    6524:	bf 91       	pop	r27
    6526:	af 91       	pop	r26
    6528:	a2 9f       	mul	r26, r18
    652a:	80 0d       	add	r24, r0
    652c:	91 1d       	adc	r25, r1
    652e:	a3 9f       	mul	r26, r19
    6530:	90 0d       	add	r25, r0
    6532:	b2 9f       	mul	r27, r18
    6534:	90 0d       	add	r25, r0
    6536:	11 24       	eor	r1, r1
    6538:	08 95       	ret

0000653a <__udivmodsi4>:
    653a:	a1 e2       	ldi	r26, 0x21	; 33
    653c:	1a 2e       	mov	r1, r26
    653e:	aa 1b       	sub	r26, r26
    6540:	bb 1b       	sub	r27, r27
    6542:	fd 01       	movw	r30, r26
    6544:	0d c0       	rjmp	.+26     	; 0x6560 <__udivmodsi4_ep>

00006546 <__udivmodsi4_loop>:
    6546:	aa 1f       	adc	r26, r26
    6548:	bb 1f       	adc	r27, r27
    654a:	ee 1f       	adc	r30, r30
    654c:	ff 1f       	adc	r31, r31
    654e:	a2 17       	cp	r26, r18
    6550:	b3 07       	cpc	r27, r19
    6552:	e4 07       	cpc	r30, r20
    6554:	f5 07       	cpc	r31, r21
    6556:	20 f0       	brcs	.+8      	; 0x6560 <__udivmodsi4_ep>
    6558:	a2 1b       	sub	r26, r18
    655a:	b3 0b       	sbc	r27, r19
    655c:	e4 0b       	sbc	r30, r20
    655e:	f5 0b       	sbc	r31, r21

00006560 <__udivmodsi4_ep>:
    6560:	66 1f       	adc	r22, r22
    6562:	77 1f       	adc	r23, r23
    6564:	88 1f       	adc	r24, r24
    6566:	99 1f       	adc	r25, r25
    6568:	1a 94       	dec	r1
    656a:	69 f7       	brne	.-38     	; 0x6546 <__udivmodsi4_loop>
    656c:	60 95       	com	r22
    656e:	70 95       	com	r23
    6570:	80 95       	com	r24
    6572:	90 95       	com	r25
    6574:	9b 01       	movw	r18, r22
    6576:	ac 01       	movw	r20, r24
    6578:	bd 01       	movw	r22, r26
    657a:	cf 01       	movw	r24, r30
    657c:	08 95       	ret

0000657e <__tablejump2__>:
    657e:	ee 0f       	add	r30, r30
    6580:	ff 1f       	adc	r31, r31
    6582:	88 1f       	adc	r24, r24
    6584:	8b bf       	out	0x3b, r24	; 59
    6586:	07 90       	elpm	r0, Z+
    6588:	f6 91       	elpm	r31, Z
    658a:	e0 2d       	mov	r30, r0
    658c:	19 94       	eijmp

0000658e <__umulhisi3>:
    658e:	a2 9f       	mul	r26, r18
    6590:	b0 01       	movw	r22, r0
    6592:	b3 9f       	mul	r27, r19
    6594:	c0 01       	movw	r24, r0
    6596:	a3 9f       	mul	r26, r19
    6598:	70 0d       	add	r23, r0
    659a:	81 1d       	adc	r24, r1
    659c:	11 24       	eor	r1, r1
    659e:	91 1d       	adc	r25, r1
    65a0:	b2 9f       	mul	r27, r18
    65a2:	70 0d       	add	r23, r0
    65a4:	81 1d       	adc	r24, r1
    65a6:	11 24       	eor	r1, r1
    65a8:	91 1d       	adc	r25, r1
    65aa:	08 95       	ret

000065ac <__muluhisi3>:
    65ac:	f0 df       	rcall	.-32     	; 0x658e <__umulhisi3>
    65ae:	a5 9f       	mul	r26, r21
    65b0:	90 0d       	add	r25, r0
    65b2:	b4 9f       	mul	r27, r20
    65b4:	90 0d       	add	r25, r0
    65b6:	a4 9f       	mul	r26, r20
    65b8:	80 0d       	add	r24, r0
    65ba:	91 1d       	adc	r25, r1
    65bc:	11 24       	eor	r1, r1
    65be:	08 95       	ret

000065c0 <calloc>:
    65c0:	0f 93       	push	r16
    65c2:	1f 93       	push	r17
    65c4:	cf 93       	push	r28
    65c6:	df 93       	push	r29
    65c8:	86 9f       	mul	r24, r22
    65ca:	80 01       	movw	r16, r0
    65cc:	87 9f       	mul	r24, r23
    65ce:	10 0d       	add	r17, r0
    65d0:	96 9f       	mul	r25, r22
    65d2:	10 0d       	add	r17, r0
    65d4:	11 24       	eor	r1, r1
    65d6:	c8 01       	movw	r24, r16
    65d8:	0d d0       	rcall	.+26     	; 0x65f4 <malloc>
    65da:	ec 01       	movw	r28, r24
    65dc:	00 97       	sbiw	r24, 0x00	; 0
    65de:	21 f0       	breq	.+8      	; 0x65e8 <calloc+0x28>
    65e0:	a8 01       	movw	r20, r16
    65e2:	60 e0       	ldi	r22, 0x00	; 0
    65e4:	70 e0       	ldi	r23, 0x00	; 0
    65e6:	47 d1       	rcall	.+654    	; 0x6876 <memset>
    65e8:	ce 01       	movw	r24, r28
    65ea:	df 91       	pop	r29
    65ec:	cf 91       	pop	r28
    65ee:	1f 91       	pop	r17
    65f0:	0f 91       	pop	r16
    65f2:	08 95       	ret

000065f4 <malloc>:
    65f4:	0f 93       	push	r16
    65f6:	1f 93       	push	r17
    65f8:	cf 93       	push	r28
    65fa:	df 93       	push	r29
    65fc:	82 30       	cpi	r24, 0x02	; 2
    65fe:	91 05       	cpc	r25, r1
    6600:	10 f4       	brcc	.+4      	; 0x6606 <malloc+0x12>
    6602:	82 e0       	ldi	r24, 0x02	; 2
    6604:	90 e0       	ldi	r25, 0x00	; 0
    6606:	e0 91 cd 14 	lds	r30, 0x14CD	; 0x8014cd <__flp>
    660a:	f0 91 ce 14 	lds	r31, 0x14CE	; 0x8014ce <__flp+0x1>
    660e:	20 e0       	ldi	r18, 0x00	; 0
    6610:	30 e0       	ldi	r19, 0x00	; 0
    6612:	a0 e0       	ldi	r26, 0x00	; 0
    6614:	b0 e0       	ldi	r27, 0x00	; 0
    6616:	30 97       	sbiw	r30, 0x00	; 0
    6618:	19 f1       	breq	.+70     	; 0x6660 <malloc+0x6c>
    661a:	40 81       	ld	r20, Z
    661c:	51 81       	ldd	r21, Z+1	; 0x01
    661e:	02 81       	ldd	r16, Z+2	; 0x02
    6620:	13 81       	ldd	r17, Z+3	; 0x03
    6622:	48 17       	cp	r20, r24
    6624:	59 07       	cpc	r21, r25
    6626:	c8 f0       	brcs	.+50     	; 0x665a <malloc+0x66>
    6628:	84 17       	cp	r24, r20
    662a:	95 07       	cpc	r25, r21
    662c:	69 f4       	brne	.+26     	; 0x6648 <malloc+0x54>
    662e:	10 97       	sbiw	r26, 0x00	; 0
    6630:	31 f0       	breq	.+12     	; 0x663e <malloc+0x4a>
    6632:	12 96       	adiw	r26, 0x02	; 2
    6634:	0c 93       	st	X, r16
    6636:	12 97       	sbiw	r26, 0x02	; 2
    6638:	13 96       	adiw	r26, 0x03	; 3
    663a:	1c 93       	st	X, r17
    663c:	27 c0       	rjmp	.+78     	; 0x668c <malloc+0x98>
    663e:	00 93 cd 14 	sts	0x14CD, r16	; 0x8014cd <__flp>
    6642:	10 93 ce 14 	sts	0x14CE, r17	; 0x8014ce <__flp+0x1>
    6646:	22 c0       	rjmp	.+68     	; 0x668c <malloc+0x98>
    6648:	21 15       	cp	r18, r1
    664a:	31 05       	cpc	r19, r1
    664c:	19 f0       	breq	.+6      	; 0x6654 <malloc+0x60>
    664e:	42 17       	cp	r20, r18
    6650:	53 07       	cpc	r21, r19
    6652:	18 f4       	brcc	.+6      	; 0x665a <malloc+0x66>
    6654:	9a 01       	movw	r18, r20
    6656:	bd 01       	movw	r22, r26
    6658:	ef 01       	movw	r28, r30
    665a:	df 01       	movw	r26, r30
    665c:	f8 01       	movw	r30, r16
    665e:	db cf       	rjmp	.-74     	; 0x6616 <malloc+0x22>
    6660:	21 15       	cp	r18, r1
    6662:	31 05       	cpc	r19, r1
    6664:	f9 f0       	breq	.+62     	; 0x66a4 <malloc+0xb0>
    6666:	28 1b       	sub	r18, r24
    6668:	39 0b       	sbc	r19, r25
    666a:	24 30       	cpi	r18, 0x04	; 4
    666c:	31 05       	cpc	r19, r1
    666e:	80 f4       	brcc	.+32     	; 0x6690 <malloc+0x9c>
    6670:	8a 81       	ldd	r24, Y+2	; 0x02
    6672:	9b 81       	ldd	r25, Y+3	; 0x03
    6674:	61 15       	cp	r22, r1
    6676:	71 05       	cpc	r23, r1
    6678:	21 f0       	breq	.+8      	; 0x6682 <malloc+0x8e>
    667a:	fb 01       	movw	r30, r22
    667c:	93 83       	std	Z+3, r25	; 0x03
    667e:	82 83       	std	Z+2, r24	; 0x02
    6680:	04 c0       	rjmp	.+8      	; 0x668a <malloc+0x96>
    6682:	90 93 ce 14 	sts	0x14CE, r25	; 0x8014ce <__flp+0x1>
    6686:	80 93 cd 14 	sts	0x14CD, r24	; 0x8014cd <__flp>
    668a:	fe 01       	movw	r30, r28
    668c:	32 96       	adiw	r30, 0x02	; 2
    668e:	44 c0       	rjmp	.+136    	; 0x6718 <malloc+0x124>
    6690:	fe 01       	movw	r30, r28
    6692:	e2 0f       	add	r30, r18
    6694:	f3 1f       	adc	r31, r19
    6696:	81 93       	st	Z+, r24
    6698:	91 93       	st	Z+, r25
    669a:	22 50       	subi	r18, 0x02	; 2
    669c:	31 09       	sbc	r19, r1
    669e:	39 83       	std	Y+1, r19	; 0x01
    66a0:	28 83       	st	Y, r18
    66a2:	3a c0       	rjmp	.+116    	; 0x6718 <malloc+0x124>
    66a4:	20 91 cb 14 	lds	r18, 0x14CB	; 0x8014cb <__brkval>
    66a8:	30 91 cc 14 	lds	r19, 0x14CC	; 0x8014cc <__brkval+0x1>
    66ac:	23 2b       	or	r18, r19
    66ae:	41 f4       	brne	.+16     	; 0x66c0 <malloc+0xcc>
    66b0:	20 91 02 02 	lds	r18, 0x0202	; 0x800202 <__malloc_heap_start>
    66b4:	30 91 03 02 	lds	r19, 0x0203	; 0x800203 <__malloc_heap_start+0x1>
    66b8:	30 93 cc 14 	sts	0x14CC, r19	; 0x8014cc <__brkval+0x1>
    66bc:	20 93 cb 14 	sts	0x14CB, r18	; 0x8014cb <__brkval>
    66c0:	20 91 00 02 	lds	r18, 0x0200	; 0x800200 <__DATA_REGION_ORIGIN__>
    66c4:	30 91 01 02 	lds	r19, 0x0201	; 0x800201 <__DATA_REGION_ORIGIN__+0x1>
    66c8:	21 15       	cp	r18, r1
    66ca:	31 05       	cpc	r19, r1
    66cc:	41 f4       	brne	.+16     	; 0x66de <malloc+0xea>
    66ce:	2d b7       	in	r18, 0x3d	; 61
    66d0:	3e b7       	in	r19, 0x3e	; 62
    66d2:	40 91 04 02 	lds	r20, 0x0204	; 0x800204 <__malloc_margin>
    66d6:	50 91 05 02 	lds	r21, 0x0205	; 0x800205 <__malloc_margin+0x1>
    66da:	24 1b       	sub	r18, r20
    66dc:	35 0b       	sbc	r19, r21
    66de:	e0 91 cb 14 	lds	r30, 0x14CB	; 0x8014cb <__brkval>
    66e2:	f0 91 cc 14 	lds	r31, 0x14CC	; 0x8014cc <__brkval+0x1>
    66e6:	e2 17       	cp	r30, r18
    66e8:	f3 07       	cpc	r31, r19
    66ea:	a0 f4       	brcc	.+40     	; 0x6714 <malloc+0x120>
    66ec:	2e 1b       	sub	r18, r30
    66ee:	3f 0b       	sbc	r19, r31
    66f0:	28 17       	cp	r18, r24
    66f2:	39 07       	cpc	r19, r25
    66f4:	78 f0       	brcs	.+30     	; 0x6714 <malloc+0x120>
    66f6:	ac 01       	movw	r20, r24
    66f8:	4e 5f       	subi	r20, 0xFE	; 254
    66fa:	5f 4f       	sbci	r21, 0xFF	; 255
    66fc:	24 17       	cp	r18, r20
    66fe:	35 07       	cpc	r19, r21
    6700:	48 f0       	brcs	.+18     	; 0x6714 <malloc+0x120>
    6702:	4e 0f       	add	r20, r30
    6704:	5f 1f       	adc	r21, r31
    6706:	50 93 cc 14 	sts	0x14CC, r21	; 0x8014cc <__brkval+0x1>
    670a:	40 93 cb 14 	sts	0x14CB, r20	; 0x8014cb <__brkval>
    670e:	81 93       	st	Z+, r24
    6710:	91 93       	st	Z+, r25
    6712:	02 c0       	rjmp	.+4      	; 0x6718 <malloc+0x124>
    6714:	e0 e0       	ldi	r30, 0x00	; 0
    6716:	f0 e0       	ldi	r31, 0x00	; 0
    6718:	cf 01       	movw	r24, r30
    671a:	df 91       	pop	r29
    671c:	cf 91       	pop	r28
    671e:	1f 91       	pop	r17
    6720:	0f 91       	pop	r16
    6722:	08 95       	ret

00006724 <free>:
    6724:	cf 93       	push	r28
    6726:	df 93       	push	r29
    6728:	00 97       	sbiw	r24, 0x00	; 0
    672a:	09 f4       	brne	.+2      	; 0x672e <free+0xa>
    672c:	81 c0       	rjmp	.+258    	; 0x6830 <free+0x10c>
    672e:	fc 01       	movw	r30, r24
    6730:	32 97       	sbiw	r30, 0x02	; 2
    6732:	13 82       	std	Z+3, r1	; 0x03
    6734:	12 82       	std	Z+2, r1	; 0x02
    6736:	a0 91 cd 14 	lds	r26, 0x14CD	; 0x8014cd <__flp>
    673a:	b0 91 ce 14 	lds	r27, 0x14CE	; 0x8014ce <__flp+0x1>
    673e:	10 97       	sbiw	r26, 0x00	; 0
    6740:	81 f4       	brne	.+32     	; 0x6762 <free+0x3e>
    6742:	20 81       	ld	r18, Z
    6744:	31 81       	ldd	r19, Z+1	; 0x01
    6746:	82 0f       	add	r24, r18
    6748:	93 1f       	adc	r25, r19
    674a:	20 91 cb 14 	lds	r18, 0x14CB	; 0x8014cb <__brkval>
    674e:	30 91 cc 14 	lds	r19, 0x14CC	; 0x8014cc <__brkval+0x1>
    6752:	28 17       	cp	r18, r24
    6754:	39 07       	cpc	r19, r25
    6756:	51 f5       	brne	.+84     	; 0x67ac <free+0x88>
    6758:	f0 93 cc 14 	sts	0x14CC, r31	; 0x8014cc <__brkval+0x1>
    675c:	e0 93 cb 14 	sts	0x14CB, r30	; 0x8014cb <__brkval>
    6760:	67 c0       	rjmp	.+206    	; 0x6830 <free+0x10c>
    6762:	ed 01       	movw	r28, r26
    6764:	20 e0       	ldi	r18, 0x00	; 0
    6766:	30 e0       	ldi	r19, 0x00	; 0
    6768:	ce 17       	cp	r28, r30
    676a:	df 07       	cpc	r29, r31
    676c:	40 f4       	brcc	.+16     	; 0x677e <free+0x5a>
    676e:	4a 81       	ldd	r20, Y+2	; 0x02
    6770:	5b 81       	ldd	r21, Y+3	; 0x03
    6772:	9e 01       	movw	r18, r28
    6774:	41 15       	cp	r20, r1
    6776:	51 05       	cpc	r21, r1
    6778:	f1 f0       	breq	.+60     	; 0x67b6 <free+0x92>
    677a:	ea 01       	movw	r28, r20
    677c:	f5 cf       	rjmp	.-22     	; 0x6768 <free+0x44>
    677e:	d3 83       	std	Z+3, r29	; 0x03
    6780:	c2 83       	std	Z+2, r28	; 0x02
    6782:	40 81       	ld	r20, Z
    6784:	51 81       	ldd	r21, Z+1	; 0x01
    6786:	84 0f       	add	r24, r20
    6788:	95 1f       	adc	r25, r21
    678a:	c8 17       	cp	r28, r24
    678c:	d9 07       	cpc	r29, r25
    678e:	59 f4       	brne	.+22     	; 0x67a6 <free+0x82>
    6790:	88 81       	ld	r24, Y
    6792:	99 81       	ldd	r25, Y+1	; 0x01
    6794:	84 0f       	add	r24, r20
    6796:	95 1f       	adc	r25, r21
    6798:	02 96       	adiw	r24, 0x02	; 2
    679a:	91 83       	std	Z+1, r25	; 0x01
    679c:	80 83       	st	Z, r24
    679e:	8a 81       	ldd	r24, Y+2	; 0x02
    67a0:	9b 81       	ldd	r25, Y+3	; 0x03
    67a2:	93 83       	std	Z+3, r25	; 0x03
    67a4:	82 83       	std	Z+2, r24	; 0x02
    67a6:	21 15       	cp	r18, r1
    67a8:	31 05       	cpc	r19, r1
    67aa:	29 f4       	brne	.+10     	; 0x67b6 <free+0x92>
    67ac:	f0 93 ce 14 	sts	0x14CE, r31	; 0x8014ce <__flp+0x1>
    67b0:	e0 93 cd 14 	sts	0x14CD, r30	; 0x8014cd <__flp>
    67b4:	3d c0       	rjmp	.+122    	; 0x6830 <free+0x10c>
    67b6:	e9 01       	movw	r28, r18
    67b8:	fb 83       	std	Y+3, r31	; 0x03
    67ba:	ea 83       	std	Y+2, r30	; 0x02
    67bc:	49 91       	ld	r20, Y+
    67be:	59 91       	ld	r21, Y+
    67c0:	c4 0f       	add	r28, r20
    67c2:	d5 1f       	adc	r29, r21
    67c4:	ec 17       	cp	r30, r28
    67c6:	fd 07       	cpc	r31, r29
    67c8:	61 f4       	brne	.+24     	; 0x67e2 <free+0xbe>
    67ca:	80 81       	ld	r24, Z
    67cc:	91 81       	ldd	r25, Z+1	; 0x01
    67ce:	84 0f       	add	r24, r20
    67d0:	95 1f       	adc	r25, r21
    67d2:	02 96       	adiw	r24, 0x02	; 2
    67d4:	e9 01       	movw	r28, r18
    67d6:	99 83       	std	Y+1, r25	; 0x01
    67d8:	88 83       	st	Y, r24
    67da:	82 81       	ldd	r24, Z+2	; 0x02
    67dc:	93 81       	ldd	r25, Z+3	; 0x03
    67de:	9b 83       	std	Y+3, r25	; 0x03
    67e0:	8a 83       	std	Y+2, r24	; 0x02
    67e2:	e0 e0       	ldi	r30, 0x00	; 0
    67e4:	f0 e0       	ldi	r31, 0x00	; 0
    67e6:	12 96       	adiw	r26, 0x02	; 2
    67e8:	8d 91       	ld	r24, X+
    67ea:	9c 91       	ld	r25, X
    67ec:	13 97       	sbiw	r26, 0x03	; 3
    67ee:	00 97       	sbiw	r24, 0x00	; 0
    67f0:	19 f0       	breq	.+6      	; 0x67f8 <free+0xd4>
    67f2:	fd 01       	movw	r30, r26
    67f4:	dc 01       	movw	r26, r24
    67f6:	f7 cf       	rjmp	.-18     	; 0x67e6 <free+0xc2>
    67f8:	8d 91       	ld	r24, X+
    67fa:	9c 91       	ld	r25, X
    67fc:	11 97       	sbiw	r26, 0x01	; 1
    67fe:	9d 01       	movw	r18, r26
    6800:	2e 5f       	subi	r18, 0xFE	; 254
    6802:	3f 4f       	sbci	r19, 0xFF	; 255
    6804:	82 0f       	add	r24, r18
    6806:	93 1f       	adc	r25, r19
    6808:	20 91 cb 14 	lds	r18, 0x14CB	; 0x8014cb <__brkval>
    680c:	30 91 cc 14 	lds	r19, 0x14CC	; 0x8014cc <__brkval+0x1>
    6810:	28 17       	cp	r18, r24
    6812:	39 07       	cpc	r19, r25
    6814:	69 f4       	brne	.+26     	; 0x6830 <free+0x10c>
    6816:	30 97       	sbiw	r30, 0x00	; 0
    6818:	29 f4       	brne	.+10     	; 0x6824 <free+0x100>
    681a:	10 92 ce 14 	sts	0x14CE, r1	; 0x8014ce <__flp+0x1>
    681e:	10 92 cd 14 	sts	0x14CD, r1	; 0x8014cd <__flp>
    6822:	02 c0       	rjmp	.+4      	; 0x6828 <free+0x104>
    6824:	13 82       	std	Z+3, r1	; 0x03
    6826:	12 82       	std	Z+2, r1	; 0x02
    6828:	b0 93 cc 14 	sts	0x14CC, r27	; 0x8014cc <__brkval+0x1>
    682c:	a0 93 cb 14 	sts	0x14CB, r26	; 0x8014cb <__brkval>
    6830:	df 91       	pop	r29
    6832:	cf 91       	pop	r28
    6834:	08 95       	ret

00006836 <atoi>:
    6836:	fc 01       	movw	r30, r24
    6838:	88 27       	eor	r24, r24
    683a:	99 27       	eor	r25, r25
    683c:	e8 94       	clt
    683e:	21 91       	ld	r18, Z+
    6840:	20 32       	cpi	r18, 0x20	; 32
    6842:	e9 f3       	breq	.-6      	; 0x683e <atoi+0x8>
    6844:	29 30       	cpi	r18, 0x09	; 9
    6846:	10 f0       	brcs	.+4      	; 0x684c <atoi+0x16>
    6848:	2e 30       	cpi	r18, 0x0E	; 14
    684a:	c8 f3       	brcs	.-14     	; 0x683e <atoi+0x8>
    684c:	2b 32       	cpi	r18, 0x2B	; 43
    684e:	39 f0       	breq	.+14     	; 0x685e <atoi+0x28>
    6850:	2d 32       	cpi	r18, 0x2D	; 45
    6852:	31 f4       	brne	.+12     	; 0x6860 <atoi+0x2a>
    6854:	68 94       	set
    6856:	03 c0       	rjmp	.+6      	; 0x685e <atoi+0x28>
    6858:	58 d0       	rcall	.+176    	; 0x690a <__mulhi_const_10>
    685a:	82 0f       	add	r24, r18
    685c:	91 1d       	adc	r25, r1
    685e:	21 91       	ld	r18, Z+
    6860:	20 53       	subi	r18, 0x30	; 48
    6862:	2a 30       	cpi	r18, 0x0A	; 10
    6864:	c8 f3       	brcs	.-14     	; 0x6858 <atoi+0x22>
    6866:	1e f4       	brtc	.+6      	; 0x686e <atoi+0x38>
    6868:	90 95       	com	r25
    686a:	81 95       	neg	r24
    686c:	9f 4f       	sbci	r25, 0xFF	; 255
    686e:	08 95       	ret

00006870 <strtok>:
    6870:	42 ef       	ldi	r20, 0xF2	; 242
    6872:	56 e0       	ldi	r21, 0x06	; 6
    6874:	19 c0       	rjmp	.+50     	; 0x68a8 <strtok_r>

00006876 <memset>:
    6876:	dc 01       	movw	r26, r24
    6878:	01 c0       	rjmp	.+2      	; 0x687c <memset+0x6>
    687a:	6d 93       	st	X+, r22
    687c:	41 50       	subi	r20, 0x01	; 1
    687e:	50 40       	sbci	r21, 0x00	; 0
    6880:	e0 f7       	brcc	.-8      	; 0x687a <memset+0x4>
    6882:	08 95       	ret

00006884 <strcat>:
    6884:	fb 01       	movw	r30, r22
    6886:	dc 01       	movw	r26, r24
    6888:	0d 90       	ld	r0, X+
    688a:	00 20       	and	r0, r0
    688c:	e9 f7       	brne	.-6      	; 0x6888 <strcat+0x4>
    688e:	11 97       	sbiw	r26, 0x01	; 1
    6890:	01 90       	ld	r0, Z+
    6892:	0d 92       	st	X+, r0
    6894:	00 20       	and	r0, r0
    6896:	e1 f7       	brne	.-8      	; 0x6890 <strcat+0xc>
    6898:	08 95       	ret

0000689a <strcpy>:
    689a:	fb 01       	movw	r30, r22
    689c:	dc 01       	movw	r26, r24
    689e:	01 90       	ld	r0, Z+
    68a0:	0d 92       	st	X+, r0
    68a2:	00 20       	and	r0, r0
    68a4:	e1 f7       	brne	.-8      	; 0x689e <strcpy+0x4>
    68a6:	08 95       	ret

000068a8 <strtok_r>:
    68a8:	fa 01       	movw	r30, r20
    68aa:	a1 91       	ld	r26, Z+
    68ac:	b0 81       	ld	r27, Z
    68ae:	00 97       	sbiw	r24, 0x00	; 0
    68b0:	19 f4       	brne	.+6      	; 0x68b8 <strtok_r+0x10>
    68b2:	10 97       	sbiw	r26, 0x00	; 0
    68b4:	e1 f0       	breq	.+56     	; 0x68ee <strtok_r+0x46>
    68b6:	cd 01       	movw	r24, r26
    68b8:	dc 01       	movw	r26, r24
    68ba:	cd 01       	movw	r24, r26
    68bc:	0d 90       	ld	r0, X+
    68be:	00 20       	and	r0, r0
    68c0:	11 f4       	brne	.+4      	; 0x68c6 <strtok_r+0x1e>
    68c2:	c0 01       	movw	r24, r0
    68c4:	13 c0       	rjmp	.+38     	; 0x68ec <strtok_r+0x44>
    68c6:	fb 01       	movw	r30, r22
    68c8:	21 91       	ld	r18, Z+
    68ca:	22 23       	and	r18, r18
    68cc:	19 f0       	breq	.+6      	; 0x68d4 <strtok_r+0x2c>
    68ce:	20 15       	cp	r18, r0
    68d0:	d9 f7       	brne	.-10     	; 0x68c8 <strtok_r+0x20>
    68d2:	f3 cf       	rjmp	.-26     	; 0x68ba <strtok_r+0x12>
    68d4:	fb 01       	movw	r30, r22
    68d6:	21 91       	ld	r18, Z+
    68d8:	20 15       	cp	r18, r0
    68da:	19 f4       	brne	.+6      	; 0x68e2 <strtok_r+0x3a>
    68dc:	1e 92       	st	-X, r1
    68de:	11 96       	adiw	r26, 0x01	; 1
    68e0:	06 c0       	rjmp	.+12     	; 0x68ee <strtok_r+0x46>
    68e2:	22 23       	and	r18, r18
    68e4:	c1 f7       	brne	.-16     	; 0x68d6 <strtok_r+0x2e>
    68e6:	0d 90       	ld	r0, X+
    68e8:	00 20       	and	r0, r0
    68ea:	a1 f7       	brne	.-24     	; 0x68d4 <strtok_r+0x2c>
    68ec:	d0 01       	movw	r26, r0
    68ee:	fa 01       	movw	r30, r20
    68f0:	a1 93       	st	Z+, r26
    68f2:	b0 83       	st	Z, r27
    68f4:	08 95       	ret

000068f6 <__itoa_ncheck>:
    68f6:	bb 27       	eor	r27, r27
    68f8:	4a 30       	cpi	r20, 0x0A	; 10
    68fa:	31 f4       	brne	.+12     	; 0x6908 <__itoa_ncheck+0x12>
    68fc:	99 23       	and	r25, r25
    68fe:	22 f4       	brpl	.+8      	; 0x6908 <__itoa_ncheck+0x12>
    6900:	bd e2       	ldi	r27, 0x2D	; 45
    6902:	90 95       	com	r25
    6904:	81 95       	neg	r24
    6906:	9f 4f       	sbci	r25, 0xFF	; 255
    6908:	09 c0       	rjmp	.+18     	; 0x691c <__utoa_common>

0000690a <__mulhi_const_10>:
    690a:	7a e0       	ldi	r23, 0x0A	; 10
    690c:	97 9f       	mul	r25, r23
    690e:	90 2d       	mov	r25, r0
    6910:	87 9f       	mul	r24, r23
    6912:	80 2d       	mov	r24, r0
    6914:	91 0d       	add	r25, r1
    6916:	11 24       	eor	r1, r1
    6918:	08 95       	ret

0000691a <__utoa_ncheck>:
    691a:	bb 27       	eor	r27, r27

0000691c <__utoa_common>:
    691c:	fb 01       	movw	r30, r22
    691e:	55 27       	eor	r21, r21
    6920:	aa 27       	eor	r26, r26
    6922:	88 0f       	add	r24, r24
    6924:	99 1f       	adc	r25, r25
    6926:	aa 1f       	adc	r26, r26
    6928:	a4 17       	cp	r26, r20
    692a:	10 f0       	brcs	.+4      	; 0x6930 <__utoa_common+0x14>
    692c:	a4 1b       	sub	r26, r20
    692e:	83 95       	inc	r24
    6930:	50 51       	subi	r21, 0x10	; 16
    6932:	b9 f7       	brne	.-18     	; 0x6922 <__utoa_common+0x6>
    6934:	a0 5d       	subi	r26, 0xD0	; 208
    6936:	aa 33       	cpi	r26, 0x3A	; 58
    6938:	08 f0       	brcs	.+2      	; 0x693c <__utoa_common+0x20>
    693a:	a9 5d       	subi	r26, 0xD9	; 217
    693c:	a1 93       	st	Z+, r26
    693e:	00 97       	sbiw	r24, 0x00	; 0
    6940:	79 f7       	brne	.-34     	; 0x6920 <__utoa_common+0x4>
    6942:	b1 11       	cpse	r27, r1
    6944:	b1 93       	st	Z+, r27
    6946:	11 92       	st	Z+, r1
    6948:	cb 01       	movw	r24, r22
    694a:	00 c0       	rjmp	.+0      	; 0x694c <strrev>

0000694c <strrev>:
    694c:	dc 01       	movw	r26, r24
    694e:	fc 01       	movw	r30, r24
    6950:	67 2f       	mov	r22, r23
    6952:	71 91       	ld	r23, Z+
    6954:	77 23       	and	r23, r23
    6956:	e1 f7       	brne	.-8      	; 0x6950 <strrev+0x4>
    6958:	32 97       	sbiw	r30, 0x02	; 2
    695a:	04 c0       	rjmp	.+8      	; 0x6964 <strrev+0x18>
    695c:	7c 91       	ld	r23, X
    695e:	6d 93       	st	X+, r22
    6960:	70 83       	st	Z, r23
    6962:	62 91       	ld	r22, -Z
    6964:	ae 17       	cp	r26, r30
    6966:	bf 07       	cpc	r27, r31
    6968:	c8 f3       	brcs	.-14     	; 0x695c <strrev+0x10>
    696a:	08 95       	ret

0000696c <_exit>:
    696c:	f8 94       	cli

0000696e <__stop_program>:
    696e:	ff cf       	rjmp	.-2      	; 0x696e <__stop_program>
