
Mikrocontroller.elf:     file format elf32-avr

Sections:
Idx Name          Size      VMA       LMA       File off  Algn
  0 .data         00000428  00800200  00002c88  00002d1c  2**0
                  CONTENTS, ALLOC, LOAD, DATA
  1 .text         00002c88  00000000  00000000  00000094  2**1
                  CONTENTS, ALLOC, LOAD, READONLY, CODE
  2 .bss          00000f81  00800628  00800628  00003144  2**0
                  ALLOC
  3 .comment      00000030  00000000  00000000  00003144  2**0
                  CONTENTS, READONLY
  4 .note.gnu.avr.deviceinfo 00000040  00000000  00000000  00003174  2**2
                  CONTENTS, READONLY
  5 .debug_aranges 000003f8  00000000  00000000  000031b4  2**0
                  CONTENTS, READONLY, DEBUGGING
  6 .debug_info   000088b0  00000000  00000000  000035ac  2**0
                  CONTENTS, READONLY, DEBUGGING
  7 .debug_abbrev 00001ff6  00000000  00000000  0000be5c  2**0
                  CONTENTS, READONLY, DEBUGGING
  8 .debug_line   00003dcd  00000000  00000000  0000de52  2**0
                  CONTENTS, READONLY, DEBUGGING
  9 .debug_frame  00000fe8  00000000  00000000  00011c20  2**2
                  CONTENTS, READONLY, DEBUGGING
 10 .debug_str    000018f2  00000000  00000000  00012c08  2**0
                  CONTENTS, READONLY, DEBUGGING
 11 .debug_loc    000060d7  00000000  00000000  000144fa  2**0
                  CONTENTS, READONLY, DEBUGGING
 12 .debug_ranges 00000400  00000000  00000000  0001a5d1  2**0
                  CONTENTS, READONLY, DEBUGGING

Disassembly of section .text:

00000000 <__vectors>:
       0:	93 c0       	rjmp	.+294    	; 0x128 <__ctors_end>
       2:	00 00       	nop
       4:	b2 c0       	rjmp	.+356    	; 0x16a <__bad_interrupt>
       6:	00 00       	nop
       8:	b0 c0       	rjmp	.+352    	; 0x16a <__bad_interrupt>
       a:	00 00       	nop
       c:	ae c0       	rjmp	.+348    	; 0x16a <__bad_interrupt>
       e:	00 00       	nop
      10:	ac c0       	rjmp	.+344    	; 0x16a <__bad_interrupt>
      12:	00 00       	nop
      14:	aa c0       	rjmp	.+340    	; 0x16a <__bad_interrupt>
      16:	00 00       	nop
      18:	a8 c0       	rjmp	.+336    	; 0x16a <__bad_interrupt>
      1a:	00 00       	nop
      1c:	a6 c0       	rjmp	.+332    	; 0x16a <__bad_interrupt>
      1e:	00 00       	nop
      20:	a4 c0       	rjmp	.+328    	; 0x16a <__bad_interrupt>
      22:	00 00       	nop
      24:	a2 c0       	rjmp	.+324    	; 0x16a <__bad_interrupt>
      26:	00 00       	nop
      28:	a0 c0       	rjmp	.+320    	; 0x16a <__bad_interrupt>
      2a:	00 00       	nop
      2c:	9e c0       	rjmp	.+316    	; 0x16a <__bad_interrupt>
      2e:	00 00       	nop
      30:	9c c0       	rjmp	.+312    	; 0x16a <__bad_interrupt>
      32:	00 00       	nop
      34:	9a c0       	rjmp	.+308    	; 0x16a <__bad_interrupt>
      36:	00 00       	nop
      38:	98 c0       	rjmp	.+304    	; 0x16a <__bad_interrupt>
      3a:	00 00       	nop
      3c:	96 c0       	rjmp	.+300    	; 0x16a <__bad_interrupt>
      3e:	00 00       	nop
      40:	94 c0       	rjmp	.+296    	; 0x16a <__bad_interrupt>
      42:	00 00       	nop
      44:	92 c0       	rjmp	.+292    	; 0x16a <__bad_interrupt>
      46:	00 00       	nop
      48:	90 c0       	rjmp	.+288    	; 0x16a <__bad_interrupt>
      4a:	00 00       	nop
      4c:	8e c0       	rjmp	.+284    	; 0x16a <__bad_interrupt>
      4e:	00 00       	nop
      50:	8c c0       	rjmp	.+280    	; 0x16a <__bad_interrupt>
      52:	00 00       	nop
      54:	8a c0       	rjmp	.+276    	; 0x16a <__bad_interrupt>
      56:	00 00       	nop
      58:	88 c0       	rjmp	.+272    	; 0x16a <__bad_interrupt>
      5a:	00 00       	nop
      5c:	86 c0       	rjmp	.+268    	; 0x16a <__bad_interrupt>
      5e:	00 00       	nop
      60:	84 c0       	rjmp	.+264    	; 0x16a <__bad_interrupt>
      62:	00 00       	nop
      64:	0c 94 fb 12 	jmp	0x25f6	; 0x25f6 <__vector_25>
      68:	0c 94 bc 12 	jmp	0x2578	; 0x2578 <__vector_26>
      6c:	7e c0       	rjmp	.+252    	; 0x16a <__bad_interrupt>
      6e:	00 00       	nop
      70:	7c c0       	rjmp	.+248    	; 0x16a <__bad_interrupt>
      72:	00 00       	nop
      74:	7a c0       	rjmp	.+244    	; 0x16a <__bad_interrupt>
      76:	00 00       	nop
      78:	78 c0       	rjmp	.+240    	; 0x16a <__bad_interrupt>
      7a:	00 00       	nop
      7c:	76 c0       	rjmp	.+236    	; 0x16a <__bad_interrupt>
      7e:	00 00       	nop
      80:	74 c0       	rjmp	.+232    	; 0x16a <__bad_interrupt>
      82:	00 00       	nop
      84:	72 c0       	rjmp	.+228    	; 0x16a <__bad_interrupt>
      86:	00 00       	nop
      88:	70 c0       	rjmp	.+224    	; 0x16a <__bad_interrupt>
      8a:	00 00       	nop
      8c:	6e c0       	rjmp	.+220    	; 0x16a <__bad_interrupt>
      8e:	00 00       	nop
      90:	0c 94 66 13 	jmp	0x26cc	; 0x26cc <__vector_36>
      94:	0c 94 27 13 	jmp	0x264e	; 0x264e <__vector_37>
      98:	68 c0       	rjmp	.+208    	; 0x16a <__bad_interrupt>
      9a:	00 00       	nop
      9c:	66 c0       	rjmp	.+204    	; 0x16a <__bad_interrupt>
      9e:	00 00       	nop
      a0:	64 c0       	rjmp	.+200    	; 0x16a <__bad_interrupt>
      a2:	00 00       	nop
      a4:	62 c0       	rjmp	.+196    	; 0x16a <__bad_interrupt>
      a6:	00 00       	nop
      a8:	60 c0       	rjmp	.+192    	; 0x16a <__bad_interrupt>
      aa:	00 00       	nop
      ac:	5e c0       	rjmp	.+188    	; 0x16a <__bad_interrupt>
      ae:	00 00       	nop
      b0:	5c c0       	rjmp	.+184    	; 0x16a <__bad_interrupt>
      b2:	00 00       	nop
      b4:	5a c0       	rjmp	.+180    	; 0x16a <__bad_interrupt>
      b6:	00 00       	nop
      b8:	58 c0       	rjmp	.+176    	; 0x16a <__bad_interrupt>
      ba:	00 00       	nop
      bc:	56 c0       	rjmp	.+172    	; 0x16a <__bad_interrupt>
      be:	00 00       	nop
      c0:	54 c0       	rjmp	.+168    	; 0x16a <__bad_interrupt>
      c2:	00 00       	nop
      c4:	52 c0       	rjmp	.+164    	; 0x16a <__bad_interrupt>
      c6:	00 00       	nop
      c8:	50 c0       	rjmp	.+160    	; 0x16a <__bad_interrupt>
      ca:	00 00       	nop
      cc:	0c 94 d1 13 	jmp	0x27a2	; 0x27a2 <__vector_51>
      d0:	0c 94 92 13 	jmp	0x2724	; 0x2724 <__vector_52>
      d4:	4a c0       	rjmp	.+148    	; 0x16a <__bad_interrupt>
      d6:	00 00       	nop
      d8:	48 c0       	rjmp	.+144    	; 0x16a <__bad_interrupt>
      da:	00 00       	nop
      dc:	46 c0       	rjmp	.+140    	; 0x16a <__bad_interrupt>
      de:	00 00       	nop
      e0:	44 c0       	rjmp	.+136    	; 0x16a <__bad_interrupt>
      e2:	00 00       	nop
      e4:	c8 00       	.word	0x00c8	; ????
      e6:	ca 00       	.word	0x00ca	; ????
      e8:	cc 00       	.word	0x00cc	; ????
      ea:	ce 00       	.word	0x00ce	; ????
      ec:	d0 00       	.word	0x00d0	; ????
      ee:	d2 00       	.word	0x00d2	; ????
      f0:	d4 00       	.word	0x00d4	; ????
      f2:	d6 00       	.word	0x00d6	; ????
      f4:	dc 00       	.word	0x00dc	; ????
      f6:	e2 00       	.word	0x00e2	; ????
      f8:	e8 00       	.word	0x00e8	; ????
      fa:	ee 00       	.word	0x00ee	; ????
      fc:	ff 00       	.word	0x00ff	; ????
      fe:	01 01       	movw	r0, r2
     100:	03 01       	movw	r0, r6
     102:	05 01       	movw	r0, r10
     104:	07 01       	movw	r0, r14
     106:	09 01       	movw	r0, r18
     108:	0b 01       	movw	r0, r22
     10a:	0d 01       	movw	r0, r26
     10c:	13 01       	movw	r2, r6
     10e:	19 01       	movw	r2, r18
     110:	1f 01       	movw	r2, r30
     112:	25 01       	movw	r4, r10
     114:	9a 04       	cpc	r9, r10
     116:	ad 04       	cpc	r10, r13
     118:	c0 04       	cpc	r12, r0
     11a:	db 04       	cpc	r13, r11
     11c:	f3 04       	cpc	r15, r3
     11e:	08 05       	cpc	r16, r8
     120:	1a 05       	cpc	r17, r10
     122:	29 05       	cpc	r18, r9
     124:	35 05       	cpc	r19, r5
     126:	82 05       	cpc	r24, r2

00000128 <__ctors_end>:
     128:	11 24       	eor	r1, r1
     12a:	1f be       	out	0x3f, r1	; 63
     12c:	cf ef       	ldi	r28, 0xFF	; 255
     12e:	d1 e2       	ldi	r29, 0x21	; 33
     130:	de bf       	out	0x3e, r29	; 62
     132:	cd bf       	out	0x3d, r28	; 61
     134:	00 e0       	ldi	r16, 0x00	; 0
     136:	0c bf       	out	0x3c, r16	; 60

00000138 <__do_copy_data>:
     138:	16 e0       	ldi	r17, 0x06	; 6
     13a:	a0 e0       	ldi	r26, 0x00	; 0
     13c:	b2 e0       	ldi	r27, 0x02	; 2
     13e:	e8 e8       	ldi	r30, 0x88	; 136
     140:	fc e2       	ldi	r31, 0x2C	; 44
     142:	00 e0       	ldi	r16, 0x00	; 0
     144:	0b bf       	out	0x3b, r16	; 59
     146:	02 c0       	rjmp	.+4      	; 0x14c <__do_copy_data+0x14>
     148:	07 90       	elpm	r0, Z+
     14a:	0d 92       	st	X+, r0
     14c:	a8 32       	cpi	r26, 0x28	; 40
     14e:	b1 07       	cpc	r27, r17
     150:	d9 f7       	brne	.-10     	; 0x148 <__do_copy_data+0x10>

00000152 <__do_clear_bss>:
     152:	25 e1       	ldi	r18, 0x15	; 21
     154:	a8 e2       	ldi	r26, 0x28	; 40
     156:	b6 e0       	ldi	r27, 0x06	; 6
     158:	01 c0       	rjmp	.+2      	; 0x15c <.do_clear_bss_start>

0000015a <.do_clear_bss_loop>:
     15a:	1d 92       	st	X+, r1

0000015c <.do_clear_bss_start>:
     15c:	a9 3a       	cpi	r26, 0xA9	; 169
     15e:	b2 07       	cpc	r27, r18
     160:	e1 f7       	brne	.-8      	; 0x15a <.do_clear_bss_loop>
     162:	0e 94 13 14 	call	0x2826	; 0x2826 <main>
     166:	0c 94 42 16 	jmp	0x2c84	; 0x2c84 <_exit>

0000016a <__bad_interrupt>:
     16a:	4a cf       	rjmp	.-364    	; 0x0 <__vectors>

0000016c <cocktail_test_command>:
			getraenk_to_shift = getraenk_to_shift->prev;
		}
	break;
	}
	return getraenk_to_shift;
}
     16c:	0e 94 96 12 	call	0x252c	; 0x252c <Uart_Transmit_IT_PC>
     170:	88 e5       	ldi	r24, 0x58	; 88
     172:	94 e0       	ldi	r25, 0x04	; 4
     174:	0c 94 96 12 	jmp	0x252c	; 0x252c <Uart_Transmit_IT_PC>
     178:	08 95       	ret

0000017a <schalte_pumpe_ein>:
     17a:	90 e0       	ldi	r25, 0x00	; 0
     17c:	8c 30       	cpi	r24, 0x0C	; 12
     17e:	91 05       	cpc	r25, r1
     180:	90 f5       	brcc	.+100    	; 0x1e6 <schalte_pumpe_ein+0x6c>
     182:	fc 01       	movw	r30, r24
     184:	88 27       	eor	r24, r24
     186:	ee 58       	subi	r30, 0x8E	; 142
     188:	ff 4f       	sbci	r31, 0xFF	; 255
     18a:	8f 4f       	sbci	r24, 0xFF	; 255
     18c:	0c 94 4b 14 	jmp	0x2896	; 0x2896 <__tablejump2__>
     190:	12 9a       	sbi	0x02, 2	; 2
     192:	08 95       	ret
     194:	13 9a       	sbi	0x02, 3	; 2
     196:	08 95       	ret
     198:	14 9a       	sbi	0x02, 4	; 2
     19a:	08 95       	ret
     19c:	15 9a       	sbi	0x02, 5	; 2
     19e:	08 95       	ret
     1a0:	16 9a       	sbi	0x02, 6	; 2
     1a2:	08 95       	ret
     1a4:	17 9a       	sbi	0x02, 7	; 2
     1a6:	08 95       	ret
     1a8:	a2 9a       	sbi	0x14, 2	; 20
     1aa:	08 95       	ret
     1ac:	e5 e0       	ldi	r30, 0x05	; 5
     1ae:	f1 e0       	ldi	r31, 0x01	; 1
     1b0:	80 81       	ld	r24, Z
     1b2:	80 64       	ori	r24, 0x40	; 64
     1b4:	80 83       	st	Z, r24
     1b6:	08 95       	ret
     1b8:	e5 e0       	ldi	r30, 0x05	; 5
     1ba:	f1 e0       	ldi	r31, 0x01	; 1
     1bc:	80 81       	ld	r24, Z
     1be:	80 62       	ori	r24, 0x20	; 32
     1c0:	80 83       	st	Z, r24
     1c2:	08 95       	ret
     1c4:	e5 e0       	ldi	r30, 0x05	; 5
     1c6:	f1 e0       	ldi	r31, 0x01	; 1
     1c8:	80 81       	ld	r24, Z
     1ca:	80 61       	ori	r24, 0x10	; 16
     1cc:	80 83       	st	Z, r24
     1ce:	08 95       	ret
     1d0:	e5 e0       	ldi	r30, 0x05	; 5
     1d2:	f1 e0       	ldi	r31, 0x01	; 1
     1d4:	80 81       	ld	r24, Z
     1d6:	88 60       	ori	r24, 0x08	; 8
     1d8:	80 83       	st	Z, r24
     1da:	08 95       	ret
     1dc:	e5 e0       	ldi	r30, 0x05	; 5
     1de:	f1 e0       	ldi	r31, 0x01	; 1
     1e0:	80 81       	ld	r24, Z
     1e2:	84 60       	ori	r24, 0x04	; 4
     1e4:	80 83       	st	Z, r24
     1e6:	08 95       	ret

000001e8 <schalte_pumpe_aus>:
     1e8:	90 e0       	ldi	r25, 0x00	; 0
     1ea:	8c 30       	cpi	r24, 0x0C	; 12
     1ec:	91 05       	cpc	r25, r1
     1ee:	90 f5       	brcc	.+100    	; 0x254 <schalte_pumpe_aus+0x6c>
     1f0:	fc 01       	movw	r30, r24
     1f2:	88 27       	eor	r24, r24
     1f4:	e2 58       	subi	r30, 0x82	; 130
     1f6:	ff 4f       	sbci	r31, 0xFF	; 255
     1f8:	8f 4f       	sbci	r24, 0xFF	; 255
     1fa:	0c 94 4b 14 	jmp	0x2896	; 0x2896 <__tablejump2__>
     1fe:	12 98       	cbi	0x02, 2	; 2
     200:	08 95       	ret
     202:	13 98       	cbi	0x02, 3	; 2
     204:	08 95       	ret
     206:	14 98       	cbi	0x02, 4	; 2
     208:	08 95       	ret
     20a:	15 98       	cbi	0x02, 5	; 2
     20c:	08 95       	ret
     20e:	16 98       	cbi	0x02, 6	; 2
     210:	08 95       	ret
     212:	17 98       	cbi	0x02, 7	; 2
     214:	08 95       	ret
     216:	a2 98       	cbi	0x14, 2	; 20
     218:	08 95       	ret
     21a:	e5 e0       	ldi	r30, 0x05	; 5
     21c:	f1 e0       	ldi	r31, 0x01	; 1
     21e:	80 81       	ld	r24, Z
     220:	8f 7b       	andi	r24, 0xBF	; 191
     222:	80 83       	st	Z, r24
     224:	08 95       	ret
     226:	e5 e0       	ldi	r30, 0x05	; 5
     228:	f1 e0       	ldi	r31, 0x01	; 1
     22a:	80 81       	ld	r24, Z
     22c:	8f 7d       	andi	r24, 0xDF	; 223
     22e:	80 83       	st	Z, r24
     230:	08 95       	ret
     232:	e5 e0       	ldi	r30, 0x05	; 5
     234:	f1 e0       	ldi	r31, 0x01	; 1
     236:	80 81       	ld	r24, Z
     238:	8f 7e       	andi	r24, 0xEF	; 239
     23a:	80 83       	st	Z, r24
     23c:	08 95       	ret
     23e:	e5 e0       	ldi	r30, 0x05	; 5
     240:	f1 e0       	ldi	r31, 0x01	; 1
     242:	80 81       	ld	r24, Z
     244:	87 7f       	andi	r24, 0xF7	; 247
     246:	80 83       	st	Z, r24
     248:	08 95       	ret
     24a:	e5 e0       	ldi	r30, 0x05	; 5
     24c:	f1 e0       	ldi	r31, 0x01	; 1
     24e:	80 81       	ld	r24, Z
     250:	8b 7f       	andi	r24, 0xFB	; 251
     252:	80 83       	st	Z, r24
     254:	08 95       	ret

00000256 <fuelle_getraenk>:
     256:	4f 92       	push	r4
     258:	5f 92       	push	r5
     25a:	6f 92       	push	r6
     25c:	7f 92       	push	r7
     25e:	8f 92       	push	r8
     260:	9f 92       	push	r9
     262:	af 92       	push	r10
     264:	bf 92       	push	r11
     266:	cf 92       	push	r12
     268:	df 92       	push	r13
     26a:	ef 92       	push	r14
     26c:	ff 92       	push	r15
     26e:	0f 93       	push	r16
     270:	1f 93       	push	r17
     272:	cf 93       	push	r28
     274:	df 93       	push	r29
     276:	7c 01       	movw	r14, r24
     278:	00 e0       	ldi	r16, 0x00	; 0
     27a:	10 e0       	ldi	r17, 0x00	; 0
     27c:	d1 e0       	ldi	r29, 0x01	; 1
     27e:	c1 2c       	mov	r12, r1
     280:	d0 2e       	mov	r13, r16
     282:	e0 91 98 12 	lds	r30, 0x1298	; 0x801298 <aktuellesGetraenk>
     286:	f0 91 99 12 	lds	r31, 0x1299	; 0x801299 <aktuellesGetraenk+0x1>
     28a:	04 80       	ldd	r0, Z+4	; 0x04
     28c:	f5 81       	ldd	r31, Z+5	; 0x05
     28e:	e0 2d       	mov	r30, r0
     290:	e0 0f       	add	r30, r16
     292:	f1 1f       	adc	r31, r17
     294:	80 81       	ld	r24, Z
     296:	88 23       	and	r24, r24
     298:	09 f4       	brne	.+2      	; 0x29c <fuelle_getraenk+0x46>
     29a:	46 c0       	rjmp	.+140    	; 0x328 <fuelle_getraenk+0xd2>
     29c:	80 81       	ld	r24, Z
     29e:	91 81       	ldd	r25, Z+1	; 0x01
     2a0:	e8 9e       	mul	r14, r24
     2a2:	40 01       	movw	r8, r0
     2a4:	e9 9e       	mul	r14, r25
     2a6:	90 0c       	add	r9, r0
     2a8:	f8 9e       	mul	r15, r24
     2aa:	90 0c       	add	r9, r0
     2ac:	11 24       	eor	r1, r1
     2ae:	80 2f       	mov	r24, r16
     2b0:	64 df       	rcall	.-312    	; 0x17a <schalte_pumpe_ein>
     2b2:	9d 2f       	mov	r25, r29
     2b4:	a1 2c       	mov	r10, r1
     2b6:	b1 2c       	mov	r11, r1
     2b8:	80 91 2e 06 	lds	r24, 0x062E	; 0x80062e <oldval.2747>
     2bc:	c8 2f       	mov	r28, r24
     2be:	cd 27       	eor	r28, r29
     2c0:	81 11       	cpse	r24, r1
     2c2:	2e c0       	rjmp	.+92     	; 0x320 <fuelle_getraenk+0xca>
     2c4:	69 f1       	breq	.+90     	; 0x320 <fuelle_getraenk+0xca>
     2c6:	40 91 2a 06 	lds	r20, 0x062A	; 0x80062a <count.2748>
     2ca:	50 91 2b 06 	lds	r21, 0x062B	; 0x80062b <count.2748+0x1>
     2ce:	60 91 2c 06 	lds	r22, 0x062C	; 0x80062c <count.2748+0x2>
     2d2:	70 91 2d 06 	lds	r23, 0x062D	; 0x80062d <count.2748+0x3>
     2d6:	2a 01       	movw	r4, r20
     2d8:	3b 01       	movw	r6, r22
     2da:	8f ef       	ldi	r24, 0xFF	; 255
     2dc:	48 1a       	sub	r4, r24
     2de:	58 0a       	sbc	r5, r24
     2e0:	68 0a       	sbc	r6, r24
     2e2:	78 0a       	sbc	r7, r24
     2e4:	40 92 2a 06 	sts	0x062A, r4	; 0x80062a <count.2748>
     2e8:	50 92 2b 06 	sts	0x062B, r5	; 0x80062b <count.2748+0x1>
     2ec:	60 92 2c 06 	sts	0x062C, r6	; 0x80062c <count.2748+0x2>
     2f0:	70 92 2d 06 	sts	0x062D, r7	; 0x80062d <count.2748+0x3>
     2f4:	84 16       	cp	r8, r20
     2f6:	95 06       	cpc	r9, r21
     2f8:	a6 06       	cpc	r10, r22
     2fa:	b7 06       	cpc	r11, r23
     2fc:	58 f4       	brcc	.+22     	; 0x314 <fuelle_getraenk+0xbe>
     2fe:	8d 2d       	mov	r24, r13
     300:	73 df       	rcall	.-282    	; 0x1e8 <schalte_pumpe_aus>
     302:	10 92 2a 06 	sts	0x062A, r1	; 0x80062a <count.2748>
     306:	10 92 2b 06 	sts	0x062B, r1	; 0x80062b <count.2748+0x1>
     30a:	10 92 2c 06 	sts	0x062C, r1	; 0x80062c <count.2748+0x2>
     30e:	10 92 2d 06 	sts	0x062D, r1	; 0x80062d <count.2748+0x3>
     312:	9c 2d       	mov	r25, r12
     314:	ef e9       	ldi	r30, 0x9F	; 159
     316:	ff e0       	ldi	r31, 0x0F	; 15
     318:	31 97       	sbiw	r30, 0x01	; 1
     31a:	f1 f7       	brne	.-4      	; 0x318 <fuelle_getraenk+0xc2>
     31c:	00 c0       	rjmp	.+0      	; 0x31e <fuelle_getraenk+0xc8>
     31e:	00 00       	nop
     320:	c0 93 2e 06 	sts	0x062E, r28	; 0x80062e <oldval.2747>
     324:	91 11       	cpse	r25, r1
     326:	c8 cf       	rjmp	.-112    	; 0x2b8 <fuelle_getraenk+0x62>
     328:	0f 5f       	subi	r16, 0xFF	; 255
     32a:	1f 4f       	sbci	r17, 0xFF	; 255
     32c:	0c 30       	cpi	r16, 0x0C	; 12
     32e:	11 05       	cpc	r17, r1
     330:	09 f0       	breq	.+2      	; 0x334 <fuelle_getraenk+0xde>
     332:	a6 cf       	rjmp	.-180    	; 0x280 <fuelle_getraenk+0x2a>
     334:	df 91       	pop	r29
     336:	cf 91       	pop	r28
     338:	1f 91       	pop	r17
     33a:	0f 91       	pop	r16
     33c:	ff 90       	pop	r15
     33e:	ef 90       	pop	r14
     340:	df 90       	pop	r13
     342:	cf 90       	pop	r12
     344:	bf 90       	pop	r11
     346:	af 90       	pop	r10
     348:	9f 90       	pop	r9
     34a:	8f 90       	pop	r8
     34c:	7f 90       	pop	r7
     34e:	6f 90       	pop	r6
     350:	5f 90       	pop	r5
     352:	4f 90       	pop	r4
     354:	08 95       	ret

00000356 <init_Getraenke_func>:
     356:	80 91 61 08 	lds	r24, 0x0861	; 0x800861 <head_getraenk_file>
     35a:	90 91 62 08 	lds	r25, 0x0862	; 0x800862 <head_getraenk_file+0x1>
     35e:	90 93 60 08 	sts	0x0860, r25	; 0x800860 <aktuellesGetraenk_file+0x1>
     362:	80 93 5f 08 	sts	0x085F, r24	; 0x80085f <aktuellesGetraenk_file>
     366:	80 91 38 07 	lds	r24, 0x0738	; 0x800738 <head_getraenk>
     36a:	90 91 39 07 	lds	r25, 0x0739	; 0x800739 <head_getraenk+0x1>
     36e:	90 93 99 12 	sts	0x1299, r25	; 0x801299 <aktuellesGetraenk+0x1>
     372:	80 93 98 12 	sts	0x1298, r24	; 0x801298 <aktuellesGetraenk>
     376:	81 e0       	ldi	r24, 0x01	; 1
     378:	0e 94 d9 09 	call	0x13b2	; 0x13b2 <nextion_change_page>
     37c:	e0 91 98 12 	lds	r30, 0x1298	; 0x801298 <aktuellesGetraenk>
     380:	f0 91 99 12 	lds	r31, 0x1299	; 0x801299 <aktuellesGetraenk+0x1>
     384:	60 81       	ld	r22, Z
     386:	71 81       	ldd	r23, Z+1	; 0x01
     388:	86 ef       	ldi	r24, 0xF6	; 246
     38a:	92 e0       	ldi	r25, 0x02	; 2
     38c:	0c 94 f8 09 	jmp	0x13f0	; 0x13f0 <nextion_setText>
     390:	08 95       	ret

00000392 <setze_startanzeige>:

void setze_startanzeige(getraenk_t * anzeige_getraenk)
{
     392:	0f 93       	push	r16
     394:	1f 93       	push	r17
     396:	cf 93       	push	r28
     398:	df 93       	push	r29
     39a:	00 d0       	rcall	.+0      	; 0x39c <setze_startanzeige+0xa>
     39c:	1f 92       	push	r1
     39e:	cd b7       	in	r28, 0x3d	; 61
     3a0:	de b7       	in	r29, 0x3e	; 62
     3a2:	8c 01       	movw	r16, r24
	char buff[4];
	nextion_change_page(STARTANZEIGE);
     3a4:	81 e0       	ldi	r24, 0x01	; 1
     3a6:	0e 94 d9 09 	call	0x13b2	; 0x13b2 <nextion_change_page>
	nextion_setText("cocktailname",anzeige_getraenk->name);
     3aa:	f8 01       	movw	r30, r16
     3ac:	60 81       	ld	r22, Z
     3ae:	71 81       	ldd	r23, Z+1	; 0x01
     3b0:	86 ef       	ldi	r24, 0xF6	; 246
     3b2:	92 e0       	ldi	r25, 0x02	; 2
     3b4:	0e 94 f8 09 	call	0x13f0	; 0x13f0 <nextion_setText>
    } else if (__radix < 2 || __radix > 36) {
	*__s = 0;
	return __s;
    } else {
	extern char *__itoa_ncheck (int, char *, unsigned char);
	return __itoa_ncheck (__val, __s, __radix);
     3b8:	f8 01       	movw	r30, r16
     3ba:	86 81       	ldd	r24, Z+6	; 0x06
     3bc:	4a e0       	ldi	r20, 0x0A	; 10
     3be:	be 01       	movw	r22, r28
     3c0:	6f 5f       	subi	r22, 0xFF	; 255
     3c2:	7f 4f       	sbci	r23, 0xFF	; 255
     3c4:	90 e0       	ldi	r25, 0x00	; 0
     3c6:	0e 94 07 16 	call	0x2c0e	; 0x2c0e <__itoa_ncheck>
	itoa(anzeige_getraenk->picture,(char *)buff,10);
	nextion_setPicture("235","80",(char *)buff);
     3ca:	ae 01       	movw	r20, r28
     3cc:	4f 5f       	subi	r20, 0xFF	; 255
     3ce:	5f 4f       	sbci	r21, 0xFF	; 255
     3d0:	63 e0       	ldi	r22, 0x03	; 3
     3d2:	73 e0       	ldi	r23, 0x03	; 3
     3d4:	86 e0       	ldi	r24, 0x06	; 6
     3d6:	93 e0       	ldi	r25, 0x03	; 3
     3d8:	0e 94 10 0a 	call	0x1420	; 0x1420 <nextion_setPicture>
}
     3dc:	0f 90       	pop	r0
     3de:	0f 90       	pop	r0
     3e0:	0f 90       	pop	r0
     3e2:	0f 90       	pop	r0
     3e4:	df 91       	pop	r29
     3e6:	cf 91       	pop	r28
     3e8:	1f 91       	pop	r17
     3ea:	0f 91       	pop	r16
     3ec:	08 95       	ret

000003ee <erstelle_Zutatenliste>:

void erstelle_Zutatenliste(getraenk_t * anzeige_getraenk)
{
     3ee:	2f 92       	push	r2
     3f0:	3f 92       	push	r3
     3f2:	4f 92       	push	r4
     3f4:	5f 92       	push	r5
     3f6:	6f 92       	push	r6
     3f8:	7f 92       	push	r7
     3fa:	8f 92       	push	r8
     3fc:	9f 92       	push	r9
     3fe:	af 92       	push	r10
     400:	bf 92       	push	r11
     402:	cf 92       	push	r12
     404:	df 92       	push	r13
     406:	ef 92       	push	r14
     408:	ff 92       	push	r15
     40a:	0f 93       	push	r16
     40c:	1f 93       	push	r17
     40e:	cf 93       	push	r28
     410:	df 93       	push	r29
     412:	cd b7       	in	r28, 0x3d	; 61
     414:	de b7       	in	r29, 0x3e	; 62
     416:	c4 50       	subi	r28, 0x04	; 4
     418:	d1 40       	sbci	r29, 0x01	; 1
     41a:	0f b6       	in	r0, 0x3f	; 63
     41c:	f8 94       	cli
     41e:	de bf       	out	0x3e, r29	; 62
     420:	0f be       	out	0x3f, r0	; 63
     422:	cd bf       	out	0x3d, r28	; 61
     424:	2c 01       	movw	r4, r24
// 					- Hänge Zeilenumbruch an Kette
// 					- Switche zur nächsten Zutat
// 					
// 					- Schreibe Zutatenkette in Textfeld
					
	zutat_t * tmp_zutat = head_zut;
     426:	00 91 63 08 	lds	r16, 0x0863	; 0x800863 <head_zut>
     42a:	10 91 64 08 	lds	r17, 0x0864	; 0x800864 <head_zut+0x1>
	
	char string[256] = {'\0'};
     42e:	fe 01       	movw	r30, r28
     430:	31 96       	adiw	r30, 0x01	; 1
     432:	80 e0       	ldi	r24, 0x00	; 0
     434:	91 e0       	ldi	r25, 0x01	; 1
     436:	df 01       	movw	r26, r30
     438:	9c 01       	movw	r18, r24
     43a:	1d 92       	st	X+, r1
     43c:	21 50       	subi	r18, 0x01	; 1
     43e:	30 40       	sbci	r19, 0x00	; 0
     440:	e1 f7       	brne	.-8      	; 0x43a <__LOCK_REGION_LENGTH__+0x3a>
	char buff[4] = {0};
     442:	cf 5f       	subi	r28, 0xFF	; 255
     444:	de 4f       	sbci	r29, 0xFE	; 254
     446:	18 82       	st	Y, r1
     448:	19 82       	std	Y+1, r1	; 0x01
     44a:	1a 82       	std	Y+2, r1	; 0x02
     44c:	1b 82       	std	Y+3, r1	; 0x03
     44e:	c1 50       	subi	r28, 0x01	; 1
     450:	d1 40       	sbci	r29, 0x01	; 1
	for (int i = 0 ; i<12 ; i++)
     452:	c1 2c       	mov	r12, r1
     454:	d1 2c       	mov	r13, r1
	{
		if (*(uint8_t *)(anzeige_getraenk->mengen + i) != (unsigned char)0)
		{
			strcat((char *)string, (const char *)tmp_zutat->name);
     456:	7f 01       	movw	r14, r30
			for (int i = 0 ; i<(20-strlen(tmp_zutat->name)) ; i++)
     458:	0f 2e       	mov	r0, r31
     45a:	f4 e1       	ldi	r31, 0x14	; 20
     45c:	af 2e       	mov	r10, r31
     45e:	b1 2c       	mov	r11, r1
     460:	f0 2d       	mov	r31, r0
			{
				strcat((char *)string, "-");
     462:	0f 2e       	mov	r0, r31
     464:	fd e2       	ldi	r31, 0x2D	; 45
     466:	8f 2e       	mov	r8, r31
     468:	91 2c       	mov	r9, r1
     46a:	f0 2d       	mov	r31, r0
			}
			strcat((char *)string, (const char *)"(");
     46c:	0f 2e       	mov	r0, r31
     46e:	f8 e2       	ldi	r31, 0x28	; 40
     470:	2f 2e       	mov	r2, r31
     472:	31 2c       	mov	r3, r1
     474:	f0 2d       	mov	r31, r0
	
	char string[256] = {'\0'};
	char buff[4] = {0};
	for (int i = 0 ; i<12 ; i++)
	{
		if (*(uint8_t *)(anzeige_getraenk->mengen + i) != (unsigned char)0)
     476:	d2 01       	movw	r26, r4
     478:	14 96       	adiw	r26, 0x04	; 4
     47a:	6d 90       	ld	r6, X+
     47c:	7c 90       	ld	r7, X
     47e:	15 97       	sbiw	r26, 0x05	; 5
     480:	6c 0c       	add	r6, r12
     482:	7d 1c       	adc	r7, r13
     484:	f3 01       	movw	r30, r6
     486:	80 81       	ld	r24, Z
     488:	88 23       	and	r24, r24
     48a:	09 f4       	brne	.+2      	; 0x48e <__LOCK_REGION_LENGTH__+0x8e>
     48c:	4b c0       	rjmp	.+150    	; 0x524 <__LOCK_REGION_LENGTH__+0x124>
		{
			strcat((char *)string, (const char *)tmp_zutat->name);
     48e:	d8 01       	movw	r26, r16
     490:	6d 91       	ld	r22, X+
     492:	7c 91       	ld	r23, X
     494:	c7 01       	movw	r24, r14
     496:	0e 94 ce 15 	call	0x2b9c	; 0x2b9c <strcat>
			for (int i = 0 ; i<(20-strlen(tmp_zutat->name)) ; i++)
     49a:	80 e0       	ldi	r24, 0x00	; 0
     49c:	90 e0       	ldi	r25, 0x00	; 0
     49e:	08 c0       	rjmp	.+16     	; 0x4b0 <__LOCK_REGION_LENGTH__+0xb0>
			{
				strcat((char *)string, "-");
     4a0:	f7 01       	movw	r30, r14
     4a2:	01 90       	ld	r0, Z+
     4a4:	00 20       	and	r0, r0
     4a6:	e9 f7       	brne	.-6      	; 0x4a2 <__LOCK_REGION_LENGTH__+0xa2>
     4a8:	31 97       	sbiw	r30, 0x01	; 1
     4aa:	91 82       	std	Z+1, r9	; 0x01
     4ac:	80 82       	st	Z, r8
	for (int i = 0 ; i<12 ; i++)
	{
		if (*(uint8_t *)(anzeige_getraenk->mengen + i) != (unsigned char)0)
		{
			strcat((char *)string, (const char *)tmp_zutat->name);
			for (int i = 0 ; i<(20-strlen(tmp_zutat->name)) ; i++)
     4ae:	01 96       	adiw	r24, 0x01	; 1
     4b0:	f8 01       	movw	r30, r16
     4b2:	a0 81       	ld	r26, Z
     4b4:	b1 81       	ldd	r27, Z+1	; 0x01
     4b6:	fd 01       	movw	r30, r26
     4b8:	01 90       	ld	r0, Z+
     4ba:	00 20       	and	r0, r0
     4bc:	e9 f7       	brne	.-6      	; 0x4b8 <__LOCK_REGION_LENGTH__+0xb8>
     4be:	31 97       	sbiw	r30, 0x01	; 1
     4c0:	ea 1b       	sub	r30, r26
     4c2:	fb 0b       	sbc	r31, r27
     4c4:	95 01       	movw	r18, r10
     4c6:	2e 1b       	sub	r18, r30
     4c8:	3f 0b       	sbc	r19, r31
     4ca:	82 17       	cp	r24, r18
     4cc:	93 07       	cpc	r25, r19
     4ce:	40 f3       	brcs	.-48     	; 0x4a0 <__LOCK_REGION_LENGTH__+0xa0>
			{
				strcat((char *)string, "-");
			}
			strcat((char *)string, (const char *)"(");
     4d0:	f7 01       	movw	r30, r14
     4d2:	01 90       	ld	r0, Z+
     4d4:	00 20       	and	r0, r0
     4d6:	e9 f7       	brne	.-6      	; 0x4d2 <__LOCK_REGION_LENGTH__+0xd2>
     4d8:	31 97       	sbiw	r30, 0x01	; 1
     4da:	31 82       	std	Z+1, r3	; 0x01
     4dc:	20 82       	st	Z, r2
     4de:	d3 01       	movw	r26, r6
     4e0:	8c 91       	ld	r24, X
     4e2:	4a e0       	ldi	r20, 0x0A	; 10
     4e4:	be 01       	movw	r22, r28
     4e6:	6f 5f       	subi	r22, 0xFF	; 255
     4e8:	7e 4f       	sbci	r23, 0xFE	; 254
     4ea:	90 e0       	ldi	r25, 0x00	; 0
     4ec:	0e 94 07 16 	call	0x2c0e	; 0x2c0e <__itoa_ncheck>
			itoa(*(uint8_t *)(anzeige_getraenk->mengen + i),buff,10);
			strcat((char *)string, (const char *)buff);
     4f0:	be 01       	movw	r22, r28
     4f2:	6f 5f       	subi	r22, 0xFF	; 255
     4f4:	7e 4f       	sbci	r23, 0xFE	; 254
     4f6:	c7 01       	movw	r24, r14
     4f8:	0e 94 ce 15 	call	0x2b9c	; 0x2b9c <strcat>
			strcat((char *)string, (const char *)"%)");
     4fc:	f7 01       	movw	r30, r14
     4fe:	01 90       	ld	r0, Z+
     500:	00 20       	and	r0, r0
     502:	e9 f7       	brne	.-6      	; 0x4fe <__LOCK_REGION_LENGTH__+0xfe>
     504:	31 97       	sbiw	r30, 0x01	; 1
     506:	25 e2       	ldi	r18, 0x25	; 37
     508:	39 e2       	ldi	r19, 0x29	; 41
     50a:	31 83       	std	Z+1, r19	; 0x01
     50c:	20 83       	st	Z, r18
     50e:	12 82       	std	Z+2, r1	; 0x02
			strcat((char *)string, (const char *)"\\r");
     510:	f7 01       	movw	r30, r14
     512:	01 90       	ld	r0, Z+
     514:	00 20       	and	r0, r0
     516:	e9 f7       	brne	.-6      	; 0x512 <__LOCK_REGION_LENGTH__+0x112>
     518:	31 97       	sbiw	r30, 0x01	; 1
     51a:	8c e5       	ldi	r24, 0x5C	; 92
     51c:	92 e7       	ldi	r25, 0x72	; 114
     51e:	91 83       	std	Z+1, r25	; 0x01
     520:	80 83       	st	Z, r24
     522:	12 82       	std	Z+2, r1	; 0x02
		}
		tmp_zutat = tmp_zutat->next;
     524:	d8 01       	movw	r26, r16
     526:	12 96       	adiw	r26, 0x02	; 2
     528:	0d 91       	ld	r16, X+
     52a:	1c 91       	ld	r17, X
     52c:	13 97       	sbiw	r26, 0x03	; 3
					
	zutat_t * tmp_zutat = head_zut;
	
	char string[256] = {'\0'};
	char buff[4] = {0};
	for (int i = 0 ; i<12 ; i++)
     52e:	bf ef       	ldi	r27, 0xFF	; 255
     530:	cb 1a       	sub	r12, r27
     532:	db 0a       	sbc	r13, r27
     534:	ec e0       	ldi	r30, 0x0C	; 12
     536:	ce 16       	cp	r12, r30
     538:	d1 04       	cpc	r13, r1
     53a:	09 f0       	breq	.+2      	; 0x53e <__LOCK_REGION_LENGTH__+0x13e>
     53c:	9c cf       	rjmp	.-200    	; 0x476 <__LOCK_REGION_LENGTH__+0x76>
			strcat((char *)string, (const char *)"%)");
			strcat((char *)string, (const char *)"\\r");
		}
		tmp_zutat = tmp_zutat->next;
	}
	nextion_setText("zutatenliste",string);
     53e:	be 01       	movw	r22, r28
     540:	6f 5f       	subi	r22, 0xFF	; 255
     542:	7f 4f       	sbci	r23, 0xFF	; 255
     544:	8a e0       	ldi	r24, 0x0A	; 10
     546:	93 e0       	ldi	r25, 0x03	; 3
     548:	53 d7       	rcall	.+3750   	; 0x13f0 <nextion_setText>
}
     54a:	cc 5f       	subi	r28, 0xFC	; 252
     54c:	de 4f       	sbci	r29, 0xFE	; 254
     54e:	0f b6       	in	r0, 0x3f	; 63
     550:	f8 94       	cli
     552:	de bf       	out	0x3e, r29	; 62
     554:	0f be       	out	0x3f, r0	; 63
     556:	cd bf       	out	0x3d, r28	; 61
     558:	df 91       	pop	r29
     55a:	cf 91       	pop	r28
     55c:	1f 91       	pop	r17
     55e:	0f 91       	pop	r16
     560:	ff 90       	pop	r15
     562:	ef 90       	pop	r14
     564:	df 90       	pop	r13
     566:	cf 90       	pop	r12
     568:	bf 90       	pop	r11
     56a:	af 90       	pop	r10
     56c:	9f 90       	pop	r9
     56e:	8f 90       	pop	r8
     570:	7f 90       	pop	r7
     572:	6f 90       	pop	r6
     574:	5f 90       	pop	r5
     576:	4f 90       	pop	r4
     578:	3f 90       	pop	r3
     57a:	2f 90       	pop	r2
     57c:	08 95       	ret

0000057e <compare_string>:
	}	
	return kopf;
}

uint8_t compare_string(char *first, char *second)
{
     57e:	dc 01       	movw	r26, r24
	while(*first==*second)
     580:	9c 91       	ld	r25, X
     582:	fb 01       	movw	r30, r22
     584:	80 81       	ld	r24, Z
     586:	98 13       	cpse	r25, r24
     588:	0b c0       	rjmp	.+22     	; 0x5a0 <compare_string+0x22>
	{
		if ( *first == '\0' || *second == '\0' )
     58a:	99 23       	and	r25, r25
     58c:	91 f0       	breq	.+36     	; 0x5b2 <compare_string+0x34>
     58e:	11 96       	adiw	r26, 0x01	; 1
     590:	31 96       	adiw	r30, 0x01	; 1
     592:	02 c0       	rjmp	.+4      	; 0x598 <compare_string+0x1a>
     594:	99 23       	and	r25, r25
     596:	79 f0       	breq	.+30     	; 0x5b6 <compare_string+0x38>
	return kopf;
}

uint8_t compare_string(char *first, char *second)
{
	while(*first==*second)
     598:	9d 91       	ld	r25, X+
     59a:	81 91       	ld	r24, Z+
     59c:	98 17       	cp	r25, r24
     59e:	d1 f3       	breq	.-12     	; 0x594 <compare_string+0x16>
		}
		
		first++;
		second++;
	}
	if( *first == '\0' && *second == '\0' )
     5a0:	91 11       	cpse	r25, r1
     5a2:	0b c0       	rjmp	.+22     	; 0x5ba <compare_string+0x3c>
     5a4:	91 e0       	ldi	r25, 0x01	; 1
     5a6:	81 11       	cpse	r24, r1
     5a8:	01 c0       	rjmp	.+2      	; 0x5ac <compare_string+0x2e>
     5aa:	90 e0       	ldi	r25, 0x00	; 0
     5ac:	89 2f       	mov	r24, r25
     5ae:	81 95       	neg	r24
     5b0:	08 95       	ret
	{
		return 0;
     5b2:	80 e0       	ldi	r24, 0x00	; 0
     5b4:	08 95       	ret
     5b6:	80 e0       	ldi	r24, 0x00	; 0
     5b8:	08 95       	ret
	}
	else
	{
	return -1;
     5ba:	8f ef       	ldi	r24, 0xFF	; 255
	}
}
     5bc:	08 95       	ret

000005be <pruefe_kopf>:
}

uint8_t pruefe_kopf(char * beginn, char string[])
{
	uint8_t kopf = 0;
	if (compare_string(beginn,string)==0)
     5be:	df df       	rcall	.-66     	; 0x57e <compare_string>
	{
		kopf = 1;
	}	
	return kopf;
     5c0:	91 e0       	ldi	r25, 0x01	; 1
     5c2:	81 11       	cpse	r24, r1
     5c4:	90 e0       	ldi	r25, 0x00	; 0
}
     5c6:	89 2f       	mov	r24, r25
     5c8:	08 95       	ret

000005ca <lese_textfile_in_getraenk>:
	nextion_setText("zutatenliste",string);
}


void lese_textfile_in_getraenk(uint8_t file)
{
     5ca:	ef 92       	push	r14
     5cc:	ff 92       	push	r15
     5ce:	0f 93       	push	r16
     5d0:	1f 93       	push	r17
     5d2:	cf 93       	push	r28
     5d4:	df 93       	push	r29
     5d6:	cd b7       	in	r28, 0x3d	; 61
     5d8:	de b7       	in	r29, 0x3e	; 62
     5da:	6f 97       	sbiw	r28, 0x1f	; 31
     5dc:	0f b6       	in	r0, 0x3f	; 63
     5de:	f8 94       	cli
     5e0:	de bf       	out	0x3e, r29	; 62
     5e2:	0f be       	out	0x3f, r0	; 63
     5e4:	cd bf       	out	0x3d, r28	; 61
	// Erstellen eines Strings in Form von: "file.txt"
	char buff[20];
	char buff2[4];
	itoa((int)file,(char *)buff,10);
     5e6:	08 2f       	mov	r16, r24
     5e8:	10 e0       	ldi	r17, 0x00	; 0
     5ea:	4a e0       	ldi	r20, 0x0A	; 10
     5ec:	ce 01       	movw	r24, r28
     5ee:	01 96       	adiw	r24, 0x01	; 1
     5f0:	7c 01       	movw	r14, r24
     5f2:	bc 01       	movw	r22, r24
     5f4:	c8 01       	movw	r24, r16
     5f6:	0e 94 07 16 	call	0x2c0e	; 0x2c0e <__itoa_ncheck>
     5fa:	4a e0       	ldi	r20, 0x0A	; 10
     5fc:	be 01       	movw	r22, r28
     5fe:	6b 5e       	subi	r22, 0xEB	; 235
     600:	7f 4f       	sbci	r23, 0xFF	; 255
     602:	c8 01       	movw	r24, r16
     604:	0e 94 07 16 	call	0x2c0e	; 0x2c0e <__itoa_ncheck>
	itoa((int)file,(char *)buff2,10);
	Uart_Transmit_IT_PC((char *)buff2);
     608:	ce 01       	movw	r24, r28
     60a:	45 96       	adiw	r24, 0x15	; 21
     60c:	0e 94 96 12 	call	0x252c	; 0x252c <Uart_Transmit_IT_PC>
	Uart_Transmit_IT_PC("\r");
     610:	80 eb       	ldi	r24, 0xB0	; 176
     612:	94 e0       	ldi	r25, 0x04	; 4
     614:	0e 94 96 12 	call	0x252c	; 0x252c <Uart_Transmit_IT_PC>
	char * txt = ".txt";	
	strcat((char *)buff,txt);
     618:	d7 01       	movw	r26, r14
     61a:	0d 90       	ld	r0, X+
     61c:	00 20       	and	r0, r0
     61e:	e9 f7       	brne	.-6      	; 0x61a <lese_textfile_in_getraenk+0x50>
     620:	11 97       	sbiw	r26, 0x01	; 1
     622:	85 e0       	ldi	r24, 0x05	; 5
     624:	e7 e1       	ldi	r30, 0x17	; 23
     626:	f3 e0       	ldi	r31, 0x03	; 3
     628:	01 90       	ld	r0, Z+
     62a:	0d 92       	st	X+, r0
     62c:	8a 95       	dec	r24
     62e:	e1 f7       	brne	.-8      	; 0x628 <lese_textfile_in_getraenk+0x5e>
	// "file.txt" lesen (File wird in char buffer[512] geschrieben)
	//return: 0, if normal operation or flag is READ
	//	      1, if file is already existing and flag = VERIFY
	//		  2, if file name is incompatible
	
	readFile( READ, (unsigned char *)buff);
     630:	b7 01       	movw	r22, r14
     632:	80 e0       	ldi	r24, 0x00	; 0
     634:	0e 94 d0 0f 	call	0x1fa0	; 0x1fa0 <readFile>
		
	// Trennungszeichen definieren, Pointer initialisiern für Abschnitte
	char delimiter[] = ":,{}\r\n";
     638:	87 e0       	ldi	r24, 0x07	; 7
     63a:	e5 e3       	ldi	r30, 0x35	; 53
     63c:	f3 e0       	ldi	r31, 0x03	; 3
     63e:	de 01       	movw	r26, r28
     640:	59 96       	adiw	r26, 0x19	; 25
     642:	01 90       	ld	r0, Z+
     644:	0d 92       	st	X+, r0
     646:	8a 95       	dec	r24
     648:	e1 f7       	brne	.-8      	; 0x642 <lese_textfile_in_getraenk+0x78>
	char *ptr;
	// initialisieren und ersten Abschnitt erstellen (1. Kopf)
	
	ptr = strtok(buffer, delimiter);
     64a:	be 01       	movw	r22, r28
     64c:	67 5e       	subi	r22, 0xE7	; 231
     64e:	7f 4f       	sbci	r23, 0xFF	; 255
     650:	81 e7       	ldi	r24, 0x71	; 113
     652:	9a e0       	ldi	r25, 0x0A	; 10
     654:	0e 94 c4 15 	call	0x2b88	; 0x2b88 <strtok>
     658:	8c 01       	movw	r16, r24
	Name:Getraenk 1
	Mengen:{0,0,0,0,0,0,0,0,0,0}
	Alkohol:1
	Bild:2
*/ 
	while(ptr != NULL) {
     65a:	89 2b       	or	r24, r25
     65c:	09 f4       	brne	.+2      	; 0x660 <lese_textfile_in_getraenk+0x96>
     65e:	76 c0       	rjmp	.+236    	; 0x74c <lese_textfile_in_getraenk+0x182>
			
	// Kopf prüfen und jeweilige Aktion ausführen
		if (pruefe_kopf(ptr, "Name"))
     660:	6c e1       	ldi	r22, 0x1C	; 28
     662:	73 e0       	ldi	r23, 0x03	; 3
     664:	c8 01       	movw	r24, r16
     666:	ab df       	rcall	.-170    	; 0x5be <pruefe_kopf>
     668:	88 23       	and	r24, r24
     66a:	09 f4       	brne	.+2      	; 0x66e <lese_textfile_in_getraenk+0xa4>
     66c:	68 c0       	rjmp	.+208    	; 0x73e <lese_textfile_in_getraenk+0x174>
		{
			ptr = strtok(NULL, delimiter);
     66e:	be 01       	movw	r22, r28
     670:	67 5e       	subi	r22, 0xE7	; 231
     672:	7f 4f       	sbci	r23, 0xFF	; 255
     674:	80 e0       	ldi	r24, 0x00	; 0
     676:	90 e0       	ldi	r25, 0x00	; 0
     678:	0e 94 c4 15 	call	0x2b88	; 0x2b88 <strtok>
     67c:	8c 01       	movw	r16, r24
			strcpy(aktuellesGetraenk->name,ptr);
     67e:	e0 91 98 12 	lds	r30, 0x1298	; 0x801298 <aktuellesGetraenk>
     682:	f0 91 99 12 	lds	r31, 0x1299	; 0x801299 <aktuellesGetraenk+0x1>
     686:	bc 01       	movw	r22, r24
     688:	80 81       	ld	r24, Z
     68a:	91 81       	ldd	r25, Z+1	; 0x01
     68c:	0e 94 d9 15 	call	0x2bb2	; 0x2bb2 <strcpy>
		}
		
		if (pruefe_kopf(ptr, "Mengen"))
     690:	61 e2       	ldi	r22, 0x21	; 33
     692:	73 e0       	ldi	r23, 0x03	; 3
     694:	c8 01       	movw	r24, r16
     696:	93 df       	rcall	.-218    	; 0x5be <pruefe_kopf>
     698:	88 23       	and	r24, r24
     69a:	11 f1       	breq	.+68     	; 0x6e0 <lese_textfile_in_getraenk+0x116>
	nextion_setText("zutatenliste",string);
}


void lese_textfile_in_getraenk(uint8_t file)
{
     69c:	00 e0       	ldi	r16, 0x00	; 0
     69e:	10 e0       	ldi	r17, 0x00	; 0
		
		if (pruefe_kopf(ptr, "Mengen"))
		{		
			for (int i = 0 ; i < 12 ; i++)
			{
				ptr = strtok(NULL,delimiter);
     6a0:	be 01       	movw	r22, r28
     6a2:	67 5e       	subi	r22, 0xE7	; 231
     6a4:	7f 4f       	sbci	r23, 0xFF	; 255
     6a6:	80 e0       	ldi	r24, 0x00	; 0
     6a8:	90 e0       	ldi	r25, 0x00	; 0
     6aa:	0e 94 c4 15 	call	0x2b88	; 0x2b88 <strtok>
				*(aktuellesGetraenk->mengen + i) = atoi(ptr);
     6ae:	e0 91 98 12 	lds	r30, 0x1298	; 0x801298 <aktuellesGetraenk>
     6b2:	f0 91 99 12 	lds	r31, 0x1299	; 0x801299 <aktuellesGetraenk+0x1>
     6b6:	e4 80       	ldd	r14, Z+4	; 0x04
     6b8:	f5 80       	ldd	r15, Z+5	; 0x05
     6ba:	e0 0e       	add	r14, r16
     6bc:	f1 1e       	adc	r15, r17
     6be:	0e 94 a7 15 	call	0x2b4e	; 0x2b4e <atoi>
     6c2:	f7 01       	movw	r30, r14
     6c4:	80 83       	st	Z, r24
			strcpy(aktuellesGetraenk->name,ptr);
		}
		
		if (pruefe_kopf(ptr, "Mengen"))
		{		
			for (int i = 0 ; i < 12 ; i++)
     6c6:	0f 5f       	subi	r16, 0xFF	; 255
     6c8:	1f 4f       	sbci	r17, 0xFF	; 255
     6ca:	0c 30       	cpi	r16, 0x0C	; 12
     6cc:	11 05       	cpc	r17, r1
     6ce:	41 f7       	brne	.-48     	; 0x6a0 <lese_textfile_in_getraenk+0xd6>
			{
				ptr = strtok(NULL,delimiter);
				*(aktuellesGetraenk->mengen + i) = atoi(ptr);
			}
			ptr = strtok(NULL, delimiter);
     6d0:	be 01       	movw	r22, r28
     6d2:	67 5e       	subi	r22, 0xE7	; 231
     6d4:	7f 4f       	sbci	r23, 0xFF	; 255
     6d6:	80 e0       	ldi	r24, 0x00	; 0
     6d8:	90 e0       	ldi	r25, 0x00	; 0
     6da:	0e 94 c4 15 	call	0x2b88	; 0x2b88 <strtok>
     6de:	8c 01       	movw	r16, r24
		}
		
		if (pruefe_kopf(ptr, "Alkohol"))
     6e0:	68 e2       	ldi	r22, 0x28	; 40
     6e2:	73 e0       	ldi	r23, 0x03	; 3
     6e4:	c8 01       	movw	r24, r16
     6e6:	6b df       	rcall	.-298    	; 0x5be <pruefe_kopf>
     6e8:	88 23       	and	r24, r24
     6ea:	41 f0       	breq	.+16     	; 0x6fc <lese_textfile_in_getraenk+0x132>
		{
			ptr = strtok(NULL, delimiter);
     6ec:	be 01       	movw	r22, r28
     6ee:	67 5e       	subi	r22, 0xE7	; 231
     6f0:	7f 4f       	sbci	r23, 0xFF	; 255
     6f2:	80 e0       	ldi	r24, 0x00	; 0
     6f4:	90 e0       	ldi	r25, 0x00	; 0
     6f6:	0e 94 c4 15 	call	0x2b88	; 0x2b88 <strtok>
     6fa:	8c 01       	movw	r16, r24
		}
		
		if (pruefe_kopf(ptr, "Bild"))
     6fc:	60 e3       	ldi	r22, 0x30	; 48
     6fe:	73 e0       	ldi	r23, 0x03	; 3
     700:	c8 01       	movw	r24, r16
     702:	5d df       	rcall	.-326    	; 0x5be <pruefe_kopf>
     704:	88 23       	and	r24, r24
     706:	79 f0       	breq	.+30     	; 0x726 <lese_textfile_in_getraenk+0x15c>
		{
			ptr = strtok(NULL, delimiter);
     708:	be 01       	movw	r22, r28
     70a:	67 5e       	subi	r22, 0xE7	; 231
     70c:	7f 4f       	sbci	r23, 0xFF	; 255
     70e:	80 e0       	ldi	r24, 0x00	; 0
     710:	90 e0       	ldi	r25, 0x00	; 0
     712:	0e 94 c4 15 	call	0x2b88	; 0x2b88 <strtok>
			(aktuellesGetraenk->picture) = atoi(ptr);
     716:	00 91 98 12 	lds	r16, 0x1298	; 0x801298 <aktuellesGetraenk>
     71a:	10 91 99 12 	lds	r17, 0x1299	; 0x801299 <aktuellesGetraenk+0x1>
     71e:	0e 94 a7 15 	call	0x2b4e	; 0x2b4e <atoi>
     722:	f8 01       	movw	r30, r16
     724:	86 83       	std	Z+6, r24	; 0x06
		}
		
	// Neuer Kopf suchen und ptr darauf zeigen lassen
		ptr = strtok(NULL, delimiter);
     726:	be 01       	movw	r22, r28
     728:	67 5e       	subi	r22, 0xE7	; 231
     72a:	7f 4f       	sbci	r23, 0xFF	; 255
     72c:	80 e0       	ldi	r24, 0x00	; 0
     72e:	90 e0       	ldi	r25, 0x00	; 0
     730:	0e 94 c4 15 	call	0x2b88	; 0x2b88 <strtok>
     734:	8c 01       	movw	r16, r24
	Name:Getraenk 1
	Mengen:{0,0,0,0,0,0,0,0,0,0}
	Alkohol:1
	Bild:2
*/ 
	while(ptr != NULL) {
     736:	89 2b       	or	r24, r25
     738:	09 f0       	breq	.+2      	; 0x73c <lese_textfile_in_getraenk+0x172>
     73a:	92 cf       	rjmp	.-220    	; 0x660 <lese_textfile_in_getraenk+0x96>
		{
			ptr = strtok(NULL, delimiter);
			strcpy(aktuellesGetraenk->name,ptr);
		}
		
		if (pruefe_kopf(ptr, "Mengen"))
     73c:	07 c0       	rjmp	.+14     	; 0x74c <lese_textfile_in_getraenk+0x182>
     73e:	61 e2       	ldi	r22, 0x21	; 33
     740:	73 e0       	ldi	r23, 0x03	; 3
     742:	c8 01       	movw	r24, r16
     744:	3c df       	rcall	.-392    	; 0x5be <pruefe_kopf>
     746:	81 11       	cpse	r24, r1
     748:	a9 cf       	rjmp	.-174    	; 0x69c <lese_textfile_in_getraenk+0xd2>
     74a:	ca cf       	rjmp	.-108    	; 0x6e0 <lese_textfile_in_getraenk+0x116>
		}
		
	// Neuer Kopf suchen und ptr darauf zeigen lassen
		ptr = strtok(NULL, delimiter);
	}
}
     74c:	6f 96       	adiw	r28, 0x1f	; 31
     74e:	0f b6       	in	r0, 0x3f	; 63
     750:	f8 94       	cli
     752:	de bf       	out	0x3e, r29	; 62
     754:	0f be       	out	0x3f, r0	; 63
     756:	cd bf       	out	0x3d, r28	; 61
     758:	df 91       	pop	r29
     75a:	cf 91       	pop	r28
     75c:	1f 91       	pop	r17
     75e:	0f 91       	pop	r16
     760:	ff 90       	pop	r15
     762:	ef 90       	pop	r14
     764:	08 95       	ret

00000766 <cocktail_check_command>:

#include "Cocktail_functions.h"


void cocktail_check_command(char page, char button)
{	
     766:	df 92       	push	r13
     768:	ef 92       	push	r14
     76a:	ff 92       	push	r15
     76c:	0f 93       	push	r16
     76e:	1f 93       	push	r17
     770:	cf 93       	push	r28
     772:	df 93       	push	r29
     774:	cd b7       	in	r28, 0x3d	; 61
     776:	de b7       	in	r29, 0x3e	; 62
     778:	69 97       	sbiw	r28, 0x19	; 25
     77a:	0f b6       	in	r0, 0x3f	; 63
     77c:	f8 94       	cli
     77e:	de bf       	out	0x3e, r29	; 62
     780:	0f be       	out	0x3f, r0	; 63
     782:	cd bf       	out	0x3d, r28	; 61
	switch (page)
     784:	82 30       	cpi	r24, 0x02	; 2
     786:	09 f4       	brne	.+2      	; 0x78a <cocktail_check_command+0x24>
     788:	b2 c0       	rjmp	.+356    	; 0x8ee <cocktail_check_command+0x188>
     78a:	18 f4       	brcc	.+6      	; 0x792 <cocktail_check_command+0x2c>
     78c:	81 30       	cpi	r24, 0x01	; 1
     78e:	41 f0       	breq	.+16     	; 0x7a0 <cocktail_check_command+0x3a>
     790:	22 c2       	rjmp	.+1092   	; 0xbd6 <cocktail_check_command+0x470>
     792:	83 30       	cpi	r24, 0x03	; 3
     794:	09 f4       	brne	.+2      	; 0x798 <cocktail_check_command+0x32>
     796:	c0 c0       	rjmp	.+384    	; 0x918 <cocktail_check_command+0x1b2>
     798:	84 30       	cpi	r24, 0x04	; 4
     79a:	09 f4       	brne	.+2      	; 0x79e <cocktail_check_command+0x38>
     79c:	b6 c1       	rjmp	.+876    	; 0xb0a <cocktail_check_command+0x3a4>
     79e:	1b c2       	rjmp	.+1078   	; 0xbd6 <cocktail_check_command+0x470>
	{
	case STARTANZEIGE:
	
		switch (button)
     7a0:	64 30       	cpi	r22, 0x04	; 4
     7a2:	a1 f1       	breq	.+104    	; 0x80c <cocktail_check_command+0xa6>
     7a4:	28 f4       	brcc	.+10     	; 0x7b0 <cocktail_check_command+0x4a>
     7a6:	62 30       	cpi	r22, 0x02	; 2
     7a8:	49 f0       	breq	.+18     	; 0x7bc <cocktail_check_command+0x56>
     7aa:	63 30       	cpi	r22, 0x03	; 3
     7ac:	c1 f0       	breq	.+48     	; 0x7de <cocktail_check_command+0x78>
     7ae:	13 c2       	rjmp	.+1062   	; 0xbd6 <cocktail_check_command+0x470>
     7b0:	65 30       	cpi	r22, 0x05	; 5
     7b2:	79 f1       	breq	.+94     	; 0x812 <cocktail_check_command+0xac>
     7b4:	66 30       	cpi	r22, 0x06	; 6
     7b6:	09 f4       	brne	.+2      	; 0x7ba <cocktail_check_command+0x54>
     7b8:	43 c0       	rjmp	.+134    	; 0x840 <cocktail_check_command+0xda>
     7ba:	0d c2       	rjmp	.+1050   	; 0xbd6 <cocktail_check_command+0x470>
				- Wechsle auf Zutatenseite
				- Setze Überschrift
				

*/
				nextion_change_page(ZUTATENANZEIGE);
     7bc:	82 e0       	ldi	r24, 0x02	; 2
     7be:	f9 d5       	rcall	.+3058   	; 0x13b2 <nextion_change_page>
				nextion_setText("cocktailname",aktuellesGetraenk->name);
     7c0:	e0 91 98 12 	lds	r30, 0x1298	; 0x801298 <aktuellesGetraenk>
     7c4:	f0 91 99 12 	lds	r31, 0x1299	; 0x801299 <aktuellesGetraenk+0x1>
     7c8:	60 81       	ld	r22, Z
     7ca:	71 81       	ldd	r23, Z+1	; 0x01
     7cc:	86 ef       	ldi	r24, 0xF6	; 246
     7ce:	92 e0       	ldi	r25, 0x02	; 2
     7d0:	0f d6       	rcall	.+3102   	; 0x13f0 <nextion_setText>
				erstelle_Zutatenliste(aktuellesGetraenk);
     7d2:	80 91 98 12 	lds	r24, 0x1298	; 0x801298 <aktuellesGetraenk>
     7d6:	90 91 99 12 	lds	r25, 0x1299	; 0x801299 <aktuellesGetraenk+0x1>
     7da:	09 de       	rcall	.-1006   	; 0x3ee <erstelle_Zutatenliste>

			break;
     7dc:	fc c1       	rjmp	.+1016   	; 0xbd6 <cocktail_check_command+0x470>
				- Wähle vorgehendes Getränk aus
				- Schreibe Name des Getränks
				- Integer to ASCI
				- Setze Bild des Getränks
*/
				aktuellesGetraenk_file = aktuellesGetraenk_file->prev;
     7de:	e0 91 5f 08 	lds	r30, 0x085F	; 0x80085f <aktuellesGetraenk_file>
     7e2:	f0 91 60 08 	lds	r31, 0x0860	; 0x800860 <aktuellesGetraenk_file+0x1>
     7e6:	03 80       	ldd	r0, Z+3	; 0x03
     7e8:	f4 81       	ldd	r31, Z+4	; 0x04
     7ea:	e0 2d       	mov	r30, r0
     7ec:	f0 93 60 08 	sts	0x0860, r31	; 0x800860 <aktuellesGetraenk_file+0x1>
     7f0:	e0 93 5f 08 	sts	0x085F, r30	; 0x80085f <aktuellesGetraenk_file>
				lese_textfile_in_getraenk(aktuellesGetraenk_file->file);
     7f4:	80 81       	ld	r24, Z
     7f6:	e9 de       	rcall	.-558    	; 0x5ca <lese_textfile_in_getraenk>
				Uart_Transmit_IT_PC("\r\n");
     7f8:	88 e5       	ldi	r24, 0x58	; 88
     7fa:	94 e0       	ldi	r25, 0x04	; 4
     7fc:	0e 94 96 12 	call	0x252c	; 0x252c <Uart_Transmit_IT_PC>
				setze_startanzeige(aktuellesGetraenk);
     800:	80 91 98 12 	lds	r24, 0x1298	; 0x801298 <aktuellesGetraenk>
     804:	90 91 99 12 	lds	r25, 0x1299	; 0x801299 <aktuellesGetraenk+0x1>
				
			break;
     808:	c4 dd       	rcall	.-1144   	; 0x392 <setze_startanzeige>
			
			case B3:
				
				nextion_change_page(ZUBABFRAGE);
     80a:	e5 c1       	rjmp	.+970    	; 0xbd6 <cocktail_check_command+0x470>
     80c:	84 e0       	ldi	r24, 0x04	; 4
     80e:	d1 d5       	rcall	.+2978   	; 0x13b2 <nextion_change_page>
				
			break;
     810:	e2 c1       	rjmp	.+964    	; 0xbd6 <cocktail_check_command+0x470>
/*
				- Wähle nächstes Getränk aus
				- Schreibe Name des Getränks
				- Setze Bild des Getränks
*/
				aktuellesGetraenk_file = aktuellesGetraenk_file->next;
     812:	e0 91 5f 08 	lds	r30, 0x085F	; 0x80085f <aktuellesGetraenk_file>
     816:	f0 91 60 08 	lds	r31, 0x0860	; 0x800860 <aktuellesGetraenk_file+0x1>
     81a:	01 80       	ldd	r0, Z+1	; 0x01
     81c:	f2 81       	ldd	r31, Z+2	; 0x02
     81e:	e0 2d       	mov	r30, r0
     820:	f0 93 60 08 	sts	0x0860, r31	; 0x800860 <aktuellesGetraenk_file+0x1>
     824:	e0 93 5f 08 	sts	0x085F, r30	; 0x80085f <aktuellesGetraenk_file>
				lese_textfile_in_getraenk(aktuellesGetraenk_file->file);
     828:	80 81       	ld	r24, Z
     82a:	cf de       	rcall	.-610    	; 0x5ca <lese_textfile_in_getraenk>
				Uart_Transmit_IT_PC("\r\n");
     82c:	88 e5       	ldi	r24, 0x58	; 88
     82e:	94 e0       	ldi	r25, 0x04	; 4
     830:	0e 94 96 12 	call	0x252c	; 0x252c <Uart_Transmit_IT_PC>
				setze_startanzeige(aktuellesGetraenk);
     834:	80 91 98 12 	lds	r24, 0x1298	; 0x801298 <aktuellesGetraenk>
     838:	90 91 99 12 	lds	r25, 0x1299	; 0x801299 <aktuellesGetraenk+0x1>
					
			break;
     83c:	aa dd       	rcall	.-1196   	; 0x392 <setze_startanzeige>
			
			case LISTE:
			
				nextion_change_page(LISTENANZEIGE);
     83e:	cb c1       	rjmp	.+918    	; 0xbd6 <cocktail_check_command+0x470>
     840:	83 e0       	ldi	r24, 0x03	; 3
     842:	b7 d5       	rcall	.+2926   	; 0x13b2 <nextion_change_page>
				aktuellesGetraenk = head_getraenk;
     844:	80 91 38 07 	lds	r24, 0x0738	; 0x800738 <head_getraenk>
     848:	90 91 39 07 	lds	r25, 0x0739	; 0x800739 <head_getraenk+0x1>
     84c:	90 93 99 12 	sts	0x1299, r25	; 0x801299 <aktuellesGetraenk+0x1>
     850:	80 93 98 12 	sts	0x1298, r24	; 0x801298 <aktuellesGetraenk>
				for (int i = 1 ; i < 9 ; i++)
     854:	ee 24       	eor	r14, r14
     856:	e3 94       	inc	r14
     858:	f1 2c       	mov	r15, r1
				{
					char string[21] = {'\0'};
     85a:	0f 2e       	mov	r0, r31
     85c:	f5 e1       	ldi	r31, 0x15	; 21
     85e:	df 2e       	mov	r13, r31
     860:	f0 2d       	mov	r31, r0
     862:	8e 01       	movw	r16, r28
     864:	0f 5f       	subi	r16, 0xFF	; 255
     866:	1f 4f       	sbci	r17, 0xFF	; 255
     868:	f8 01       	movw	r30, r16
     86a:	2d 2d       	mov	r18, r13
     86c:	11 92       	st	Z+, r1
     86e:	2a 95       	dec	r18
     870:	e9 f7       	brne	.-6      	; 0x86c <cocktail_check_command+0x106>
					char buff[4] = {0};
     872:	1e 8a       	std	Y+22, r1	; 0x16
     874:	1f 8a       	std	Y+23, r1	; 0x17
     876:	18 8e       	std	Y+24, r1	; 0x18
     878:	19 8e       	std	Y+25, r1	; 0x19
					strcat((char *)string, (const char *)"cocktail");
     87a:	d8 01       	movw	r26, r16
     87c:	0d 90       	ld	r0, X+
     87e:	00 20       	and	r0, r0
     880:	e9 f7       	brne	.-6      	; 0x87c <cocktail_check_command+0x116>
     882:	11 97       	sbiw	r26, 0x01	; 1
     884:	89 e0       	ldi	r24, 0x09	; 9
     886:	ec e3       	ldi	r30, 0x3C	; 60
     888:	f3 e0       	ldi	r31, 0x03	; 3
     88a:	01 90       	ld	r0, Z+
     88c:	0d 92       	st	X+, r0
     88e:	8a 95       	dec	r24
     890:	e1 f7       	brne	.-8      	; 0x88a <cocktail_check_command+0x124>
     892:	4a e0       	ldi	r20, 0x0A	; 10
     894:	be 01       	movw	r22, r28
     896:	6a 5e       	subi	r22, 0xEA	; 234
     898:	7f 4f       	sbci	r23, 0xFF	; 255
     89a:	c7 01       	movw	r24, r14
     89c:	0e 94 07 16 	call	0x2c0e	; 0x2c0e <__itoa_ncheck>
					itoa(i,buff,10);
					strcat((char *)string, (const char *)buff);
     8a0:	be 01       	movw	r22, r28
     8a2:	6a 5e       	subi	r22, 0xEA	; 234
     8a4:	7f 4f       	sbci	r23, 0xFF	; 255
     8a6:	c8 01       	movw	r24, r16
     8a8:	0e 94 ce 15 	call	0x2b9c	; 0x2b9c <strcat>
					nextion_setText(string,aktuellesGetraenk->name);
     8ac:	e0 91 98 12 	lds	r30, 0x1298	; 0x801298 <aktuellesGetraenk>
     8b0:	f0 91 99 12 	lds	r31, 0x1299	; 0x801299 <aktuellesGetraenk+0x1>
     8b4:	60 81       	ld	r22, Z
     8b6:	71 81       	ldd	r23, Z+1	; 0x01
     8b8:	c8 01       	movw	r24, r16
     8ba:	9a d5       	rcall	.+2868   	; 0x13f0 <nextion_setText>
					aktuellesGetraenk = aktuellesGetraenk->next;
     8bc:	e0 91 98 12 	lds	r30, 0x1298	; 0x801298 <aktuellesGetraenk>
     8c0:	f0 91 99 12 	lds	r31, 0x1299	; 0x801299 <aktuellesGetraenk+0x1>
     8c4:	87 81       	ldd	r24, Z+7	; 0x07
     8c6:	90 85       	ldd	r25, Z+8	; 0x08
     8c8:	90 93 99 12 	sts	0x1299, r25	; 0x801299 <aktuellesGetraenk+0x1>
     8cc:	80 93 98 12 	sts	0x1298, r24	; 0x801298 <aktuellesGetraenk>
	#else
		//round up by default
		__ticks_dc = (uint32_t)(ceil(fabs(__tmp)));
	#endif

	__builtin_avr_delay_cycles(__ticks_dc);
     8d0:	8f e3       	ldi	r24, 0x3F	; 63
     8d2:	9c e9       	ldi	r25, 0x9C	; 156
     8d4:	01 97       	sbiw	r24, 0x01	; 1
     8d6:	f1 f7       	brne	.-4      	; 0x8d4 <cocktail_check_command+0x16e>
     8d8:	00 c0       	rjmp	.+0      	; 0x8da <cocktail_check_command+0x174>
     8da:	00 00       	nop
			
			case LISTE:
			
				nextion_change_page(LISTENANZEIGE);
				aktuellesGetraenk = head_getraenk;
				for (int i = 1 ; i < 9 ; i++)
     8dc:	9f ef       	ldi	r25, 0xFF	; 255
     8de:	e9 1a       	sub	r14, r25
     8e0:	f9 0a       	sbc	r15, r25
     8e2:	e9 e0       	ldi	r30, 0x09	; 9
     8e4:	ee 16       	cp	r14, r30
     8e6:	f1 04       	cpc	r15, r1
     8e8:	09 f0       	breq	.+2      	; 0x8ec <cocktail_check_command+0x186>
     8ea:	be cf       	rjmp	.-132    	; 0x868 <cocktail_check_command+0x102>
		
		break;
		
	case ZUTATENANZEIGE:
		
		switch(button)
     8ec:	74 c1       	rjmp	.+744    	; 0xbd6 <cocktail_check_command+0x470>
     8ee:	62 30       	cpi	r22, 0x02	; 2
     8f0:	19 f0       	breq	.+6      	; 0x8f8 <cocktail_check_command+0x192>
     8f2:	63 30       	cpi	r22, 0x03	; 3
		{
			case OKZUTATEN:
			
				nextion_change_page(STARTANZEIGE);
     8f4:	49 f0       	breq	.+18     	; 0x908 <cocktail_check_command+0x1a2>
     8f6:	6f c1       	rjmp	.+734    	; 0xbd6 <cocktail_check_command+0x470>
     8f8:	81 e0       	ldi	r24, 0x01	; 1
				setze_startanzeige(aktuellesGetraenk);
     8fa:	5b d5       	rcall	.+2742   	; 0x13b2 <nextion_change_page>
     8fc:	80 91 98 12 	lds	r24, 0x1298	; 0x801298 <aktuellesGetraenk>
     900:	90 91 99 12 	lds	r25, 0x1299	; 0x801299 <aktuellesGetraenk+0x1>
					
			break;
     904:	46 dd       	rcall	.-1396   	; 0x392 <setze_startanzeige>
			
			case ZUTATENLISTE:
			
				nextion_change_page(STARTANZEIGE);
     906:	67 c1       	rjmp	.+718    	; 0xbd6 <cocktail_check_command+0x470>
     908:	81 e0       	ldi	r24, 0x01	; 1
     90a:	53 d5       	rcall	.+2726   	; 0x13b2 <nextion_change_page>
				setze_startanzeige(aktuellesGetraenk);
     90c:	80 91 98 12 	lds	r24, 0x1298	; 0x801298 <aktuellesGetraenk>
     910:	90 91 99 12 	lds	r25, 0x1299	; 0x801299 <aktuellesGetraenk+0x1>
     914:	3e dd       	rcall	.-1412   	; 0x392 <setze_startanzeige>
     916:	5f c1       	rjmp	.+702    	; 0xbd6 <cocktail_check_command+0x470>
				
			break;
     918:	86 2f       	mov	r24, r22
		
		break;
		
	case LISTENANZEIGE:
	
		switch (button)
     91a:	90 e0       	ldi	r25, 0x00	; 0
     91c:	fc 01       	movw	r30, r24
     91e:	31 97       	sbiw	r30, 0x01	; 1
     920:	ea 30       	cpi	r30, 0x0A	; 10
     922:	f1 05       	cpc	r31, r1
     924:	08 f0       	brcs	.+2      	; 0x928 <cocktail_check_command+0x1c2>
     926:	57 c1       	rjmp	.+686    	; 0xbd6 <cocktail_check_command+0x470>
     928:	88 27       	eor	r24, r24
     92a:	e6 57       	subi	r30, 0x76	; 118
     92c:	ff 4f       	sbci	r31, 0xFF	; 255
     92e:	8f 4f       	sbci	r24, 0xFF	; 255
     930:	0c 94 4b 14 	jmp	0x2896	; 0x2896 <__tablejump2__>
     934:	e0 91 98 12 	lds	r30, 0x1298	; 0x801298 <aktuellesGetraenk>
		{
			case COCKTAIL1:
			
				aktuellesGetraenk = shift_getraenk(aktuellesGetraenk,8,1);
     938:	f0 91 99 12 	lds	r31, 0x1299	; 0x801299 <aktuellesGetraenk+0x1>
     93c:	28 e0       	ldi	r18, 0x08	; 8
     93e:	30 e0       	ldi	r19, 0x00	; 0
	break;
	
	case 1:
		for (int i = 0 ; i < ngetr ; i++)
		{
			getraenk_to_shift = getraenk_to_shift->prev;
     940:	01 84       	ldd	r0, Z+9	; 0x09
     942:	f2 85       	ldd	r31, Z+10	; 0x0a
     944:	e0 2d       	mov	r30, r0
     946:	21 50       	subi	r18, 0x01	; 1
     948:	31 09       	sbc	r19, r1
			getraenk_to_shift = getraenk_to_shift->next;
		}
	break;
	
	case 1:
		for (int i = 0 ; i < ngetr ; i++)
     94a:	d1 f7       	brne	.-12     	; 0x940 <cocktail_check_command+0x1da>
	
		switch (button)
		{
			case COCKTAIL1:
			
				aktuellesGetraenk = shift_getraenk(aktuellesGetraenk,8,1);
     94c:	f0 93 99 12 	sts	0x1299, r31	; 0x801299 <aktuellesGetraenk+0x1>
     950:	e0 93 98 12 	sts	0x1298, r30	; 0x801298 <aktuellesGetraenk>
				setze_startanzeige(aktuellesGetraenk);
     954:	cf 01       	movw	r24, r30
     956:	1d dd       	rcall	.-1478   	; 0x392 <setze_startanzeige>
     958:	3e c1       	rjmp	.+636    	; 0xbd6 <cocktail_check_command+0x470>
							
			break;
     95a:	e0 91 98 12 	lds	r30, 0x1298	; 0x801298 <aktuellesGetraenk>
			
			case COCKTAIL2:
			
				aktuellesGetraenk = shift_getraenk(aktuellesGetraenk,7,1);
     95e:	f0 91 99 12 	lds	r31, 0x1299	; 0x801299 <aktuellesGetraenk+0x1>
     962:	27 e0       	ldi	r18, 0x07	; 7
     964:	30 e0       	ldi	r19, 0x00	; 0
	break;
	
	case 1:
		for (int i = 0 ; i < ngetr ; i++)
		{
			getraenk_to_shift = getraenk_to_shift->prev;
     966:	01 84       	ldd	r0, Z+9	; 0x09
     968:	f2 85       	ldd	r31, Z+10	; 0x0a
     96a:	e0 2d       	mov	r30, r0
     96c:	21 50       	subi	r18, 0x01	; 1
     96e:	31 09       	sbc	r19, r1
			getraenk_to_shift = getraenk_to_shift->next;
		}
	break;
	
	case 1:
		for (int i = 0 ; i < ngetr ; i++)
     970:	d1 f7       	brne	.-12     	; 0x966 <cocktail_check_command+0x200>
							
			break;
			
			case COCKTAIL2:
			
				aktuellesGetraenk = shift_getraenk(aktuellesGetraenk,7,1);
     972:	f0 93 99 12 	sts	0x1299, r31	; 0x801299 <aktuellesGetraenk+0x1>
     976:	e0 93 98 12 	sts	0x1298, r30	; 0x801298 <aktuellesGetraenk>
				setze_startanzeige(aktuellesGetraenk);
     97a:	cf 01       	movw	r24, r30
     97c:	0a dd       	rcall	.-1516   	; 0x392 <setze_startanzeige>
     97e:	2b c1       	rjmp	.+598    	; 0xbd6 <cocktail_check_command+0x470>
			
			break;
     980:	e0 91 98 12 	lds	r30, 0x1298	; 0x801298 <aktuellesGetraenk>
			
			case COCKTAIL3:

				aktuellesGetraenk = shift_getraenk(aktuellesGetraenk,6,1);
     984:	f0 91 99 12 	lds	r31, 0x1299	; 0x801299 <aktuellesGetraenk+0x1>
     988:	01 84       	ldd	r0, Z+9	; 0x09
	break;
	
	case 1:
		for (int i = 0 ; i < ngetr ; i++)
		{
			getraenk_to_shift = getraenk_to_shift->prev;
     98a:	f2 85       	ldd	r31, Z+10	; 0x0a
     98c:	e0 2d       	mov	r30, r0
     98e:	01 84       	ldd	r0, Z+9	; 0x09
     990:	f2 85       	ldd	r31, Z+10	; 0x0a
     992:	e0 2d       	mov	r30, r0
     994:	01 84       	ldd	r0, Z+9	; 0x09
     996:	f2 85       	ldd	r31, Z+10	; 0x0a
     998:	e0 2d       	mov	r30, r0
     99a:	01 84       	ldd	r0, Z+9	; 0x09
     99c:	f2 85       	ldd	r31, Z+10	; 0x0a
     99e:	e0 2d       	mov	r30, r0
     9a0:	01 84       	ldd	r0, Z+9	; 0x09
     9a2:	f2 85       	ldd	r31, Z+10	; 0x0a
     9a4:	e0 2d       	mov	r30, r0
     9a6:	81 85       	ldd	r24, Z+9	; 0x09
     9a8:	92 85       	ldd	r25, Z+10	; 0x0a
			
			break;
			
			case COCKTAIL3:

				aktuellesGetraenk = shift_getraenk(aktuellesGetraenk,6,1);
     9aa:	90 93 99 12 	sts	0x1299, r25	; 0x801299 <aktuellesGetraenk+0x1>
     9ae:	80 93 98 12 	sts	0x1298, r24	; 0x801298 <aktuellesGetraenk>
				setze_startanzeige(aktuellesGetraenk);
     9b2:	ef dc       	rcall	.-1570   	; 0x392 <setze_startanzeige>
     9b4:	10 c1       	rjmp	.+544    	; 0xbd6 <cocktail_check_command+0x470>
			
			break;
     9b6:	e0 91 98 12 	lds	r30, 0x1298	; 0x801298 <aktuellesGetraenk>
			
			case COCKTAIL4:
			
				aktuellesGetraenk = shift_getraenk(aktuellesGetraenk,5,1);
     9ba:	f0 91 99 12 	lds	r31, 0x1299	; 0x801299 <aktuellesGetraenk+0x1>
     9be:	01 84       	ldd	r0, Z+9	; 0x09
	break;
	
	case 1:
		for (int i = 0 ; i < ngetr ; i++)
		{
			getraenk_to_shift = getraenk_to_shift->prev;
     9c0:	f2 85       	ldd	r31, Z+10	; 0x0a
     9c2:	e0 2d       	mov	r30, r0
     9c4:	01 84       	ldd	r0, Z+9	; 0x09
     9c6:	f2 85       	ldd	r31, Z+10	; 0x0a
     9c8:	e0 2d       	mov	r30, r0
     9ca:	01 84       	ldd	r0, Z+9	; 0x09
     9cc:	f2 85       	ldd	r31, Z+10	; 0x0a
     9ce:	e0 2d       	mov	r30, r0
     9d0:	01 84       	ldd	r0, Z+9	; 0x09
     9d2:	f2 85       	ldd	r31, Z+10	; 0x0a
     9d4:	e0 2d       	mov	r30, r0
     9d6:	81 85       	ldd	r24, Z+9	; 0x09
     9d8:	92 85       	ldd	r25, Z+10	; 0x0a
			
			break;
			
			case COCKTAIL4:
			
				aktuellesGetraenk = shift_getraenk(aktuellesGetraenk,5,1);
     9da:	90 93 99 12 	sts	0x1299, r25	; 0x801299 <aktuellesGetraenk+0x1>
     9de:	80 93 98 12 	sts	0x1298, r24	; 0x801298 <aktuellesGetraenk>
				setze_startanzeige(aktuellesGetraenk);
     9e2:	d7 dc       	rcall	.-1618   	; 0x392 <setze_startanzeige>
     9e4:	f8 c0       	rjmp	.+496    	; 0xbd6 <cocktail_check_command+0x470>
				
			break;
     9e6:	e0 91 98 12 	lds	r30, 0x1298	; 0x801298 <aktuellesGetraenk>
			
			case COCKTAIL5:
			
				aktuellesGetraenk = shift_getraenk(aktuellesGetraenk,4,1);
     9ea:	f0 91 99 12 	lds	r31, 0x1299	; 0x801299 <aktuellesGetraenk+0x1>
	break;
	
	case 1:
		for (int i = 0 ; i < ngetr ; i++)
		{
			getraenk_to_shift = getraenk_to_shift->prev;
     9ee:	01 84       	ldd	r0, Z+9	; 0x09
     9f0:	f2 85       	ldd	r31, Z+10	; 0x0a
     9f2:	e0 2d       	mov	r30, r0
     9f4:	01 84       	ldd	r0, Z+9	; 0x09
     9f6:	f2 85       	ldd	r31, Z+10	; 0x0a
     9f8:	e0 2d       	mov	r30, r0
     9fa:	01 84       	ldd	r0, Z+9	; 0x09
     9fc:	f2 85       	ldd	r31, Z+10	; 0x0a
     9fe:	e0 2d       	mov	r30, r0
     a00:	81 85       	ldd	r24, Z+9	; 0x09
     a02:	92 85       	ldd	r25, Z+10	; 0x0a
				
			break;
			
			case COCKTAIL5:
			
				aktuellesGetraenk = shift_getraenk(aktuellesGetraenk,4,1);
     a04:	90 93 99 12 	sts	0x1299, r25	; 0x801299 <aktuellesGetraenk+0x1>
     a08:	80 93 98 12 	sts	0x1298, r24	; 0x801298 <aktuellesGetraenk>
				setze_startanzeige(aktuellesGetraenk);
     a0c:	c2 dc       	rcall	.-1660   	; 0x392 <setze_startanzeige>
				
			break;
     a0e:	e3 c0       	rjmp	.+454    	; 0xbd6 <cocktail_check_command+0x470>
			
			case COCKTAIL6:
			
				aktuellesGetraenk = shift_getraenk(aktuellesGetraenk,3,1);
     a10:	e0 91 98 12 	lds	r30, 0x1298	; 0x801298 <aktuellesGetraenk>
     a14:	f0 91 99 12 	lds	r31, 0x1299	; 0x801299 <aktuellesGetraenk+0x1>
	break;
	
	case 1:
		for (int i = 0 ; i < ngetr ; i++)
		{
			getraenk_to_shift = getraenk_to_shift->prev;
     a18:	01 84       	ldd	r0, Z+9	; 0x09
     a1a:	f2 85       	ldd	r31, Z+10	; 0x0a
     a1c:	e0 2d       	mov	r30, r0
     a1e:	01 84       	ldd	r0, Z+9	; 0x09
     a20:	f2 85       	ldd	r31, Z+10	; 0x0a
     a22:	e0 2d       	mov	r30, r0
     a24:	81 85       	ldd	r24, Z+9	; 0x09
     a26:	92 85       	ldd	r25, Z+10	; 0x0a
				
			break;
			
			case COCKTAIL6:
			
				aktuellesGetraenk = shift_getraenk(aktuellesGetraenk,3,1);
     a28:	90 93 99 12 	sts	0x1299, r25	; 0x801299 <aktuellesGetraenk+0x1>
     a2c:	80 93 98 12 	sts	0x1298, r24	; 0x801298 <aktuellesGetraenk>
				setze_startanzeige(aktuellesGetraenk);
     a30:	b0 dc       	rcall	.-1696   	; 0x392 <setze_startanzeige>
				
			break;
     a32:	d1 c0       	rjmp	.+418    	; 0xbd6 <cocktail_check_command+0x470>
			
			case COCKTAIL7:
			
				aktuellesGetraenk = shift_getraenk(aktuellesGetraenk,2,1);
     a34:	e0 91 98 12 	lds	r30, 0x1298	; 0x801298 <aktuellesGetraenk>
     a38:	f0 91 99 12 	lds	r31, 0x1299	; 0x801299 <aktuellesGetraenk+0x1>
	break;
	
	case 1:
		for (int i = 0 ; i < ngetr ; i++)
		{
			getraenk_to_shift = getraenk_to_shift->prev;
     a3c:	01 84       	ldd	r0, Z+9	; 0x09
     a3e:	f2 85       	ldd	r31, Z+10	; 0x0a
     a40:	e0 2d       	mov	r30, r0
     a42:	81 85       	ldd	r24, Z+9	; 0x09
				
			break;
			
			case COCKTAIL7:
			
				aktuellesGetraenk = shift_getraenk(aktuellesGetraenk,2,1);
     a44:	92 85       	ldd	r25, Z+10	; 0x0a
     a46:	90 93 99 12 	sts	0x1299, r25	; 0x801299 <aktuellesGetraenk+0x1>
     a4a:	80 93 98 12 	sts	0x1298, r24	; 0x801298 <aktuellesGetraenk>
				setze_startanzeige(aktuellesGetraenk);
     a4e:	a1 dc       	rcall	.-1726   	; 0x392 <setze_startanzeige>
				
			break;
     a50:	c2 c0       	rjmp	.+388    	; 0xbd6 <cocktail_check_command+0x470>
			
			case COCKTAIL8:
			
				aktuellesGetraenk = shift_getraenk(aktuellesGetraenk,1,1);
     a52:	e0 91 98 12 	lds	r30, 0x1298	; 0x801298 <aktuellesGetraenk>
     a56:	f0 91 99 12 	lds	r31, 0x1299	; 0x801299 <aktuellesGetraenk+0x1>
	break;
	
	case 1:
		for (int i = 0 ; i < ngetr ; i++)
		{
			getraenk_to_shift = getraenk_to_shift->prev;
     a5a:	81 85       	ldd	r24, Z+9	; 0x09
     a5c:	92 85       	ldd	r25, Z+10	; 0x0a
				
			break;
			
			case COCKTAIL8:
			
				aktuellesGetraenk = shift_getraenk(aktuellesGetraenk,1,1);
     a5e:	90 93 99 12 	sts	0x1299, r25	; 0x801299 <aktuellesGetraenk+0x1>
     a62:	80 93 98 12 	sts	0x1298, r24	; 0x801298 <aktuellesGetraenk>
				setze_startanzeige(aktuellesGetraenk);
     a66:	95 dc       	rcall	.-1750   	; 0x392 <setze_startanzeige>
     a68:	b6 c0       	rjmp	.+364    	; 0xbd6 <cocktail_check_command+0x470>

			break;
     a6a:	ee 24       	eor	r14, r14
		
		break;
		
	case LISTENANZEIGE:
	
		switch (button)
     a6c:	e3 94       	inc	r14
     a6e:	f1 2c       	mov	r15, r1
     a70:	0f 2e       	mov	r0, r31
			break;
			
			case RAUFLIST:
				for (int i = 1 ; i < 9 ; i++)
				{
					char string[21] = {'\0'};
     a72:	f5 e1       	ldi	r31, 0x15	; 21
     a74:	df 2e       	mov	r13, r31
     a76:	f0 2d       	mov	r31, r0
     a78:	8e 01       	movw	r16, r28
     a7a:	0f 5f       	subi	r16, 0xFF	; 255
     a7c:	1f 4f       	sbci	r17, 0xFF	; 255
     a7e:	f8 01       	movw	r30, r16
     a80:	2d 2d       	mov	r18, r13
     a82:	11 92       	st	Z+, r1
     a84:	2a 95       	dec	r18
     a86:	e9 f7       	brne	.-6      	; 0xa82 <cocktail_check_command+0x31c>
     a88:	1e 8a       	std	Y+22, r1	; 0x16
					char buff[4] = {0};
     a8a:	1f 8a       	std	Y+23, r1	; 0x17
     a8c:	18 8e       	std	Y+24, r1	; 0x18
     a8e:	19 8e       	std	Y+25, r1	; 0x19
     a90:	d8 01       	movw	r26, r16
					strcat((char *)string, (const char *)"cocktail");
     a92:	0d 90       	ld	r0, X+
     a94:	00 20       	and	r0, r0
     a96:	e9 f7       	brne	.-6      	; 0xa92 <cocktail_check_command+0x32c>
     a98:	11 97       	sbiw	r26, 0x01	; 1
     a9a:	89 e0       	ldi	r24, 0x09	; 9
     a9c:	ec e3       	ldi	r30, 0x3C	; 60
     a9e:	f3 e0       	ldi	r31, 0x03	; 3
     aa0:	01 90       	ld	r0, Z+
     aa2:	0d 92       	st	X+, r0
     aa4:	8a 95       	dec	r24
     aa6:	e1 f7       	brne	.-8      	; 0xaa0 <cocktail_check_command+0x33a>
     aa8:	4a e0       	ldi	r20, 0x0A	; 10
     aaa:	be 01       	movw	r22, r28
     aac:	6a 5e       	subi	r22, 0xEA	; 234
     aae:	7f 4f       	sbci	r23, 0xFF	; 255
     ab0:	c7 01       	movw	r24, r14
     ab2:	0e 94 07 16 	call	0x2c0e	; 0x2c0e <__itoa_ncheck>
					itoa(i,buff,10);
					strcat((char *)string, (const char *)buff);
     ab6:	be 01       	movw	r22, r28
     ab8:	6a 5e       	subi	r22, 0xEA	; 234
     aba:	7f 4f       	sbci	r23, 0xFF	; 255
     abc:	c8 01       	movw	r24, r16
     abe:	0e 94 ce 15 	call	0x2b9c	; 0x2b9c <strcat>
					nextion_setText(string,aktuellesGetraenk->name);
     ac2:	e0 91 98 12 	lds	r30, 0x1298	; 0x801298 <aktuellesGetraenk>
     ac6:	f0 91 99 12 	lds	r31, 0x1299	; 0x801299 <aktuellesGetraenk+0x1>
     aca:	60 81       	ld	r22, Z
     acc:	71 81       	ldd	r23, Z+1	; 0x01
     ace:	c8 01       	movw	r24, r16
     ad0:	8f d4       	rcall	.+2334   	; 0x13f0 <nextion_setText>
     ad2:	e0 91 98 12 	lds	r30, 0x1298	; 0x801298 <aktuellesGetraenk>
					aktuellesGetraenk = aktuellesGetraenk->next;
     ad6:	f0 91 99 12 	lds	r31, 0x1299	; 0x801299 <aktuellesGetraenk+0x1>
     ada:	87 81       	ldd	r24, Z+7	; 0x07
     adc:	90 85       	ldd	r25, Z+8	; 0x08
     ade:	90 93 99 12 	sts	0x1299, r25	; 0x801299 <aktuellesGetraenk+0x1>
     ae2:	80 93 98 12 	sts	0x1298, r24	; 0x801298 <aktuellesGetraenk>
     ae6:	8f e3       	ldi	r24, 0x3F	; 63
     ae8:	9c e9       	ldi	r25, 0x9C	; 156
     aea:	01 97       	sbiw	r24, 0x01	; 1
     aec:	f1 f7       	brne	.-4      	; 0xaea <cocktail_check_command+0x384>
     aee:	00 c0       	rjmp	.+0      	; 0xaf0 <cocktail_check_command+0x38a>
				setze_startanzeige(aktuellesGetraenk);

			break;
			
			case RAUFLIST:
				for (int i = 1 ; i < 9 ; i++)
     af0:	00 00       	nop
     af2:	9f ef       	ldi	r25, 0xFF	; 255
     af4:	e9 1a       	sub	r14, r25
     af6:	f9 0a       	sbc	r15, r25
     af8:	e9 e0       	ldi	r30, 0x09	; 9
     afa:	ee 16       	cp	r14, r30
     afc:	f1 04       	cpc	r15, r1
     afe:	09 f0       	breq	.+2      	; 0xb02 <cocktail_check_command+0x39c>
				}			
			break;
			
			case 10:
			
				nextion_change_page(STARTANZEIGE);
     b00:	be cf       	rjmp	.-132    	; 0xa7e <cocktail_check_command+0x318>
     b02:	69 c0       	rjmp	.+210    	; 0xbd6 <cocktail_check_command+0x470>
     b04:	81 e0       	ldi	r24, 0x01	; 1
// 					nextion_setText(string,aktuellesGetraenk->name);
// 					aktuellesGetraenk = aktuellesGetraenk->prev;
// 					_delay_ms(10);
// 				}
			
			break;
     b06:	55 d4       	rcall	.+2218   	; 0x13b2 <nextion_change_page>
	
	break;
	
	case ZUBABFRAGE:
	
	switch (button)
     b08:	66 c0       	rjmp	.+204    	; 0xbd6 <cocktail_check_command+0x470>
     b0a:	62 30       	cpi	r22, 0x02	; 2
     b0c:	a1 f1       	breq	.+104    	; 0xb76 <cocktail_check_command+0x410>
     b0e:	63 30       	cpi	r22, 0x03	; 3
     b10:	09 f4       	brne	.+2      	; 0xb14 <cocktail_check_command+0x3ae>
     b12:	5f c0       	rjmp	.+190    	; 0xbd2 <cocktail_check_command+0x46c>
	{
		case KLEIN:
			
			nextion_change_page(ZUBBILDSCHIRM);
     b14:	61 30       	cpi	r22, 0x01	; 1
     b16:	09 f0       	breq	.+2      	; 0xb1a <cocktail_check_command+0x3b4>
     b18:	5e c0       	rjmp	.+188    	; 0xbd6 <cocktail_check_command+0x470>
			nextion_setText("zufallstxt", "Do stoht denn irgend e Text zum Getränk, Schwul.");
     b1a:	85 e0       	ldi	r24, 0x05	; 5
     b1c:	4a d4       	rcall	.+2196   	; 0x13b2 <nextion_change_page>
     b1e:	65 e4       	ldi	r22, 0x45	; 69
     b20:	73 e0       	ldi	r23, 0x03	; 3
     b22:	86 e7       	ldi	r24, 0x76	; 118
     b24:	93 e0       	ldi	r25, 0x03	; 3
     b26:	64 d4       	rcall	.+2248   	; 0x13f0 <nextion_setText>
     b28:	ff ef       	ldi	r31, 0xFF	; 255
     b2a:	23 ed       	ldi	r18, 0xD3	; 211
     b2c:	80 e3       	ldi	r24, 0x30	; 48
     b2e:	f1 50       	subi	r31, 0x01	; 1
     b30:	20 40       	sbci	r18, 0x00	; 0
     b32:	80 40       	sbci	r24, 0x00	; 0
     b34:	e1 f7       	brne	.-8      	; 0xb2e <cocktail_check_command+0x3c8>
			_delay_ms(1000);
			fuelle_getraenk(100);
     b36:	00 c0       	rjmp	.+0      	; 0xb38 <cocktail_check_command+0x3d2>
     b38:	00 00       	nop
     b3a:	84 e6       	ldi	r24, 0x64	; 100
			nextion_change_page(BEREITANZEIGE);
     b3c:	90 e0       	ldi	r25, 0x00	; 0
     b3e:	8b db       	rcall	.-2282   	; 0x256 <fuelle_getraenk>
     b40:	86 e0       	ldi	r24, 0x06	; 6
     b42:	37 d4       	rcall	.+2158   	; 0x13b2 <nextion_change_page>
     b44:	9f ef       	ldi	r25, 0xFF	; 255
     b46:	e7 ea       	ldi	r30, 0xA7	; 167
     b48:	f1 e6       	ldi	r31, 0x61	; 97
     b4a:	91 50       	subi	r25, 0x01	; 1
     b4c:	e0 40       	sbci	r30, 0x00	; 0
     b4e:	f0 40       	sbci	r31, 0x00	; 0
			_delay_ms(2000);
			aktuellesGetraenk = head_getraenk;
     b50:	e1 f7       	brne	.-8      	; 0xb4a <cocktail_check_command+0x3e4>
     b52:	00 c0       	rjmp	.+0      	; 0xb54 <cocktail_check_command+0x3ee>
     b54:	00 00       	nop
     b56:	80 91 38 07 	lds	r24, 0x0738	; 0x800738 <head_getraenk>
     b5a:	90 91 39 07 	lds	r25, 0x0739	; 0x800739 <head_getraenk+0x1>
			nextion_change_page(STARTANZEIGE);
     b5e:	90 93 99 12 	sts	0x1299, r25	; 0x801299 <aktuellesGetraenk+0x1>
			setze_startanzeige(aktuellesGetraenk);
     b62:	80 93 98 12 	sts	0x1298, r24	; 0x801298 <aktuellesGetraenk>
     b66:	81 e0       	ldi	r24, 0x01	; 1
     b68:	24 d4       	rcall	.+2120   	; 0x13b2 <nextion_change_page>
     b6a:	80 91 98 12 	lds	r24, 0x1298	; 0x801298 <aktuellesGetraenk>

		
		break;
     b6e:	90 91 99 12 	lds	r25, 0x1299	; 0x801299 <aktuellesGetraenk+0x1>
		
		case GROSS:
		
			nextion_change_page(ZUBBILDSCHIRM);
     b72:	0f dc       	rcall	.-2018   	; 0x392 <setze_startanzeige>
     b74:	30 c0       	rjmp	.+96     	; 0xbd6 <cocktail_check_command+0x470>
			nextion_setText("zufallstxt", "Do stoht denn irgend e Text zum Getränk, Schwul.");
     b76:	85 e0       	ldi	r24, 0x05	; 5
     b78:	1c d4       	rcall	.+2104   	; 0x13b2 <nextion_change_page>
     b7a:	65 e4       	ldi	r22, 0x45	; 69
     b7c:	73 e0       	ldi	r23, 0x03	; 3
     b7e:	86 e7       	ldi	r24, 0x76	; 118
     b80:	93 e0       	ldi	r25, 0x03	; 3
     b82:	36 d4       	rcall	.+2156   	; 0x13f0 <nextion_setText>
     b84:	2f ef       	ldi	r18, 0xFF	; 255
     b86:	83 ed       	ldi	r24, 0xD3	; 211
     b88:	90 e3       	ldi	r25, 0x30	; 48
     b8a:	21 50       	subi	r18, 0x01	; 1
     b8c:	80 40       	sbci	r24, 0x00	; 0
     b8e:	90 40       	sbci	r25, 0x00	; 0
			_delay_ms(1000);
			fuelle_getraenk(300);
     b90:	e1 f7       	brne	.-8      	; 0xb8a <cocktail_check_command+0x424>
     b92:	00 c0       	rjmp	.+0      	; 0xb94 <cocktail_check_command+0x42e>
     b94:	00 00       	nop
     b96:	8c e2       	ldi	r24, 0x2C	; 44
			nextion_change_page(BEREITANZEIGE);
     b98:	91 e0       	ldi	r25, 0x01	; 1
     b9a:	5d db       	rcall	.-2374   	; 0x256 <fuelle_getraenk>
     b9c:	86 e0       	ldi	r24, 0x06	; 6
     b9e:	09 d4       	rcall	.+2066   	; 0x13b2 <nextion_change_page>
     ba0:	ef ef       	ldi	r30, 0xFF	; 255
     ba2:	f7 ea       	ldi	r31, 0xA7	; 167
     ba4:	21 e6       	ldi	r18, 0x61	; 97
     ba6:	e1 50       	subi	r30, 0x01	; 1
     ba8:	f0 40       	sbci	r31, 0x00	; 0
     baa:	20 40       	sbci	r18, 0x00	; 0
     bac:	e1 f7       	brne	.-8      	; 0xba6 <cocktail_check_command+0x440>
     bae:	00 c0       	rjmp	.+0      	; 0xbb0 <cocktail_check_command+0x44a>
			_delay_ms(2000);
			aktuellesGetraenk = head_getraenk;
     bb0:	00 00       	nop
     bb2:	80 91 38 07 	lds	r24, 0x0738	; 0x800738 <head_getraenk>
     bb6:	90 91 39 07 	lds	r25, 0x0739	; 0x800739 <head_getraenk+0x1>
     bba:	90 93 99 12 	sts	0x1299, r25	; 0x801299 <aktuellesGetraenk+0x1>
     bbe:	80 93 98 12 	sts	0x1298, r24	; 0x801298 <aktuellesGetraenk>
			nextion_change_page(STARTANZEIGE);
     bc2:	81 e0       	ldi	r24, 0x01	; 1
     bc4:	f6 d3       	rcall	.+2028   	; 0x13b2 <nextion_change_page>
			setze_startanzeige(aktuellesGetraenk);
     bc6:	80 91 98 12 	lds	r24, 0x1298	; 0x801298 <aktuellesGetraenk>
     bca:	90 91 99 12 	lds	r25, 0x1299	; 0x801299 <aktuellesGetraenk+0x1>
     bce:	e1 db       	rcall	.-2110   	; 0x392 <setze_startanzeige>
     bd0:	02 c0       	rjmp	.+4      	; 0xbd6 <cocktail_check_command+0x470>
			
		break;
     bd2:	81 e0       	ldi	r24, 0x01	; 1
		
		case ABBRUCHZUBAB:
		
			nextion_change_page(STARTANZEIGE);
     bd4:	ee d3       	rcall	.+2012   	; 0x13b2 <nextion_change_page>
     bd6:	69 96       	adiw	r28, 0x19	; 25
     bd8:	0f b6       	in	r0, 0x3f	; 63
	
	case ERSTANZEIGE2:
	
	break;
	}
}
     bda:	f8 94       	cli
     bdc:	de bf       	out	0x3e, r29	; 62
     bde:	0f be       	out	0x3f, r0	; 63
     be0:	cd bf       	out	0x3d, r28	; 61
     be2:	df 91       	pop	r29
     be4:	cf 91       	pop	r28
     be6:	1f 91       	pop	r17
     be8:	0f 91       	pop	r16
     bea:	ff 90       	pop	r15
     bec:	ef 90       	pop	r14
     bee:	df 90       	pop	r13
     bf0:	08 95       	ret

00000bf2 <SD_startup>:
     bf2:	10 92 8c 11 	sts	0x118C, r1	; 0x80118c <cardType>

void SD_startup(void)
{
	cardType = 0;

	for (i=0; i<10; i++)
     bf6:	10 92 6f 09 	sts	0x096F, r1	; 0x80096f <i+0x1>
     bfa:	10 92 6e 09 	sts	0x096E, r1	; 0x80096e <i>
	{
		error = SD_init();
     bfe:	0e 94 04 11 	call	0x2208	; 0x2208 <SD_init>
     c02:	80 93 8d 11 	sts	0x118D, r24	; 0x80118d <error>
		if(!error) break;
     c06:	88 23       	and	r24, r24
     c08:	09 f4       	brne	.+2      	; 0xc0c <SD_startup+0x1a>
     c0a:	5e c0       	rjmp	.+188    	; 0xcc8 <SD_startup+0xd6>

void SD_startup(void)
{
	cardType = 0;

	for (i=0; i<10; i++)
     c0c:	20 91 6e 09 	lds	r18, 0x096E	; 0x80096e <i>
     c10:	30 91 6f 09 	lds	r19, 0x096F	; 0x80096f <i+0x1>
     c14:	2f 5f       	subi	r18, 0xFF	; 255
     c16:	3f 4f       	sbci	r19, 0xFF	; 255
     c18:	30 93 6f 09 	sts	0x096F, r19	; 0x80096f <i+0x1>
     c1c:	20 93 6e 09 	sts	0x096E, r18	; 0x80096e <i>
     c20:	2a 30       	cpi	r18, 0x0A	; 10
     c22:	31 05       	cpc	r19, r1
     c24:	60 f3       	brcs	.-40     	; 0xbfe <SD_startup+0xc>
     c26:	5c c0       	rjmp	.+184    	; 0xce0 <SD_startup+0xee>
		if(!error) break;
	}

	if(error)
	{
		if(error == 1) Uart_Transmit_IT_PC((char*)("SD card not detected..\r"));
     c28:	81 e8       	ldi	r24, 0x81	; 129
     c2a:	93 e0       	ldi	r25, 0x03	; 3
     c2c:	0e 94 96 12 	call	0x252c	; 0x252c <Uart_Transmit_IT_PC>
		if(error == 2) Uart_Transmit_IT_PC((char*)("Card Initialization failed..\r"));
     c30:	80 91 8d 11 	lds	r24, 0x118D	; 0x80118d <error>
     c34:	82 30       	cpi	r24, 0x02	; 2
     c36:	c1 f4       	brne	.+48     	; 0xc68 <SD_startup+0x76>
     c38:	89 e9       	ldi	r24, 0x99	; 153
     c3a:	93 e0       	ldi	r25, 0x03	; 3
     c3c:	0e 94 96 12 	call	0x252c	; 0x252c <Uart_Transmit_IT_PC>
     c40:	13 c0       	rjmp	.+38     	; 0xc68 <SD_startup+0x76>
		// 		while(1);  //wait here forever if error in SD init
		}else{
		
		switch (cardType)
		{
			case 1:Uart_Transmit_IT_PC(("Standard Capacity Card (Ver 1.x) Detected!\r"));
     c42:	87 eb       	ldi	r24, 0xB7	; 183
     c44:	93 e0       	ldi	r25, 0x03	; 3
     c46:	0e 94 96 12 	call	0x252c	; 0x252c <Uart_Transmit_IT_PC>
			break;
     c4a:	0e c0       	rjmp	.+28     	; 0xc68 <SD_startup+0x76>
			case 2:Uart_Transmit_IT_PC(("High Capacity Card Detected!\r"));
     c4c:	83 ee       	ldi	r24, 0xE3	; 227
     c4e:	93 e0       	ldi	r25, 0x03	; 3
     c50:	0e 94 96 12 	call	0x252c	; 0x252c <Uart_Transmit_IT_PC>
			break;
     c54:	09 c0       	rjmp	.+18     	; 0xc68 <SD_startup+0x76>
			case 3:Uart_Transmit_IT_PC(("Standard Capacity Card (Ver 2.x) Detected!\r"));
     c56:	81 e0       	ldi	r24, 0x01	; 1
     c58:	94 e0       	ldi	r25, 0x04	; 4
     c5a:	0e 94 96 12 	call	0x252c	; 0x252c <Uart_Transmit_IT_PC>
			break;
     c5e:	04 c0       	rjmp	.+8      	; 0xc68 <SD_startup+0x76>
			default:Uart_Transmit_IT_PC(("Unknown SD Card Detected!\r"));
     c60:	8d e2       	ldi	r24, 0x2D	; 45
     c62:	94 e0       	ldi	r25, 0x04	; 4
     c64:	0e 94 96 12 	call	0x252c	; 0x252c <Uart_Transmit_IT_PC>
			break;
		}
	}

	SPI_HIGH_SPEED;	//SCK - 4 MHz
     c68:	80 e5       	ldi	r24, 0x50	; 80
     c6a:	8c bd       	out	0x2c, r24	; 44
     c6c:	8d b5       	in	r24, 0x2d	; 45
     c6e:	81 60       	ori	r24, 0x01	; 1
     c70:	8d bd       	out	0x2d, r24	; 45
     c72:	8f e9       	ldi	r24, 0x9F	; 159
     c74:	9f e0       	ldi	r25, 0x0F	; 15
     c76:	01 97       	sbiw	r24, 0x01	; 1
     c78:	f1 f7       	brne	.-4      	; 0xc76 <SD_startup+0x84>
     c7a:	00 c0       	rjmp	.+0      	; 0xc7c <SD_startup+0x8a>
     c7c:	00 00       	nop
	_delay_ms(1);   //some delay


	FAT32_active = 1;
     c7e:	81 e0       	ldi	r24, 0x01	; 1
     c80:	80 93 93 12 	sts	0x1293, r24	; 0x801293 <FAT32_active>
	error = getBootSectorData (); //read boot sector and keep necessary data in global variables
     c84:	99 d5       	rcall	.+2866   	; 0x17b8 <getBootSectorData>
     c86:	80 93 8d 11 	sts	0x118D, r24	; 0x80118d <error>
	if(error)
     c8a:	88 23       	and	r24, r24
     c8c:	61 f0       	breq	.+24     	; 0xca6 <SD_startup+0xb4>
	{
		TX_NEWLINE;
     c8e:	8d e0       	ldi	r24, 0x0D	; 13
     c90:	0e 94 fd 13 	call	0x27fa	; 0x27fa <transmitByte>
     c94:	8a e0       	ldi	r24, 0x0A	; 10
     c96:	0e 94 fd 13 	call	0x27fa	; 0x27fa <transmitByte>
		Uart_Transmit_IT_PC (("FAT32 not found!\r\n"));  //FAT32 incompatible drive
     c9a:	88 e4       	ldi	r24, 0x48	; 72
     c9c:	94 e0       	ldi	r25, 0x04	; 4
     c9e:	0e 94 96 12 	call	0x252c	; 0x252c <Uart_Transmit_IT_PC>
		FAT32_active = 0;
     ca2:	10 92 93 12 	sts	0x1293, r1	; 0x801293 <FAT32_active>
	}
	findFiles(GET_LIST,0);
     ca6:	60 e0       	ldi	r22, 0x00	; 0
     ca8:	70 e0       	ldi	r23, 0x00	; 0
     caa:	80 e0       	ldi	r24, 0x00	; 0
     cac:	9e d7       	rcall	.+3900   	; 0x1bea <findFiles>
	TX_NEWLINE
     cae:	8d e0       	ldi	r24, 0x0D	; 13
     cb0:	0e 94 fd 13 	call	0x27fa	; 0x27fa <transmitByte>
     cb4:	8a e0       	ldi	r24, 0x0A	; 10
     cb6:	0e 94 fd 13 	call	0x27fa	; 0x27fa <transmitByte>
	TX_NEWLINE
     cba:	8d e0       	ldi	r24, 0x0D	; 13
     cbc:	0e 94 fd 13 	call	0x27fa	; 0x27fa <transmitByte>
     cc0:	8a e0       	ldi	r24, 0x0A	; 10
     cc2:	0c 94 fd 13 	jmp	0x27fa	; 0x27fa <transmitByte>

     cc6:	08 95       	ret
		if(error == 2) Uart_Transmit_IT_PC((char*)("Card Initialization failed..\r"));

		// 		while(1);  //wait here forever if error in SD init
		}else{
		
		switch (cardType)
     cc8:	80 91 8c 11 	lds	r24, 0x118C	; 0x80118c <cardType>
     ccc:	82 30       	cpi	r24, 0x02	; 2
     cce:	09 f4       	brne	.+2      	; 0xcd2 <SD_startup+0xe0>
     cd0:	bd cf       	rjmp	.-134    	; 0xc4c <SD_startup+0x5a>
     cd2:	83 30       	cpi	r24, 0x03	; 3
     cd4:	09 f4       	brne	.+2      	; 0xcd8 <SD_startup+0xe6>
     cd6:	bf cf       	rjmp	.-130    	; 0xc56 <SD_startup+0x64>
     cd8:	81 30       	cpi	r24, 0x01	; 1
     cda:	09 f0       	breq	.+2      	; 0xcde <SD_startup+0xec>
     cdc:	c1 cf       	rjmp	.-126    	; 0xc60 <SD_startup+0x6e>
     cde:	b1 cf       	rjmp	.-158    	; 0xc42 <SD_startup+0x50>
		if(!error) break;
	}

	if(error)
	{
		if(error == 1) Uart_Transmit_IT_PC((char*)("SD card not detected..\r"));
     ce0:	81 30       	cpi	r24, 0x01	; 1
     ce2:	09 f0       	breq	.+2      	; 0xce6 <SD_startup+0xf4>
     ce4:	a5 cf       	rjmp	.-182    	; 0xc30 <SD_startup+0x3e>
     ce6:	a0 cf       	rjmp	.-192    	; 0xc28 <SD_startup+0x36>

00000ce8 <create_new_getraenk>:
{
	for(int i = 0 ; i<4059 ; i++)
	{
		eeprom_write_byte(add+i,'\0');
	}
}
     ce8:	9f 92       	push	r9
     cea:	af 92       	push	r10
     cec:	bf 92       	push	r11
     cee:	cf 92       	push	r12
     cf0:	df 92       	push	r13
     cf2:	ef 92       	push	r14
     cf4:	ff 92       	push	r15
     cf6:	0f 93       	push	r16
     cf8:	1f 93       	push	r17
     cfa:	cf 93       	push	r28
     cfc:	df 93       	push	r29
     cfe:	7c 01       	movw	r14, r24
     d00:	b6 2e       	mov	r11, r22
     d02:	17 2f       	mov	r17, r23
     d04:	a4 2e       	mov	r10, r20
     d06:	92 2e       	mov	r9, r18
     d08:	6b e0       	ldi	r22, 0x0B	; 11
     d0a:	70 e0       	ldi	r23, 0x00	; 0
     d0c:	81 e0       	ldi	r24, 0x01	; 1
     d0e:	90 e0       	ldi	r25, 0x00	; 0
     d10:	0e 94 6c 14 	call	0x28d8	; 0x28d8 <calloc>
     d14:	ec 01       	movw	r28, r24
     d16:	f7 01       	movw	r30, r14
     d18:	01 90       	ld	r0, Z+
     d1a:	00 20       	and	r0, r0
     d1c:	e9 f7       	brne	.-6      	; 0xd18 <create_new_getraenk+0x30>
     d1e:	31 97       	sbiw	r30, 0x01	; 1
     d20:	6f 01       	movw	r12, r30
     d22:	ce 18       	sub	r12, r14
     d24:	df 08       	sbc	r13, r15
     d26:	61 e0       	ldi	r22, 0x01	; 1
     d28:	70 e0       	ldi	r23, 0x00	; 0
     d2a:	c6 01       	movw	r24, r12
     d2c:	01 96       	adiw	r24, 0x01	; 1
     d2e:	0e 94 6c 14 	call	0x28d8	; 0x28d8 <calloc>
     d32:	99 83       	std	Y+1, r25	; 0x01
     d34:	88 83       	st	Y, r24
     d36:	61 e0       	ldi	r22, 0x01	; 1
     d38:	70 e0       	ldi	r23, 0x00	; 0
     d3a:	8d e0       	ldi	r24, 0x0D	; 13
     d3c:	90 e0       	ldi	r25, 0x00	; 0
     d3e:	0e 94 6c 14 	call	0x28d8	; 0x28d8 <calloc>
     d42:	9d 83       	std	Y+5, r25	; 0x05
     d44:	8c 83       	std	Y+4, r24	; 0x04
     d46:	9b 82       	std	Y+3, r9	; 0x03
     d48:	aa 82       	std	Y+2, r10	; 0x02
     d4a:	0e 83       	std	Y+6, r16	; 0x06
     d4c:	c1 14       	cp	r12, r1
     d4e:	d1 04       	cpc	r13, r1
     d50:	d1 f0       	breq	.+52     	; 0xd86 <create_new_getraenk+0x9e>
     d52:	d7 01       	movw	r26, r14
     d54:	a6 01       	movw	r20, r12
     d56:	80 e0       	ldi	r24, 0x00	; 0
     d58:	90 e0       	ldi	r25, 0x00	; 0
     d5a:	2d 91       	ld	r18, X+
     d5c:	e8 81       	ld	r30, Y
     d5e:	f9 81       	ldd	r31, Y+1	; 0x01
     d60:	e8 0f       	add	r30, r24
     d62:	f9 1f       	adc	r31, r25
     d64:	20 83       	st	Z, r18
     d66:	01 96       	adiw	r24, 0x01	; 1
     d68:	84 17       	cp	r24, r20
     d6a:	95 07       	cpc	r25, r21
     d6c:	b1 f7       	brne	.-20     	; 0xd5a <create_new_getraenk+0x72>
     d6e:	0b c0       	rjmp	.+22     	; 0xd86 <create_new_getraenk+0x9e>
     d70:	2d 91       	ld	r18, X+
     d72:	ec 81       	ldd	r30, Y+4	; 0x04
     d74:	fd 81       	ldd	r31, Y+5	; 0x05
     d76:	e8 0f       	add	r30, r24
     d78:	f9 1f       	adc	r31, r25
     d7a:	20 83       	st	Z, r18
     d7c:	01 96       	adiw	r24, 0x01	; 1
     d7e:	8c 30       	cpi	r24, 0x0C	; 12
     d80:	91 05       	cpc	r25, r1
     d82:	b1 f7       	brne	.-20     	; 0xd70 <create_new_getraenk+0x88>
     d84:	12 c0       	rjmp	.+36     	; 0xdaa <create_new_getraenk+0xc2>
     d86:	8f ef       	ldi	r24, 0xFF	; 255
     d88:	c8 1a       	sub	r12, r24
     d8a:	d8 0a       	sbc	r13, r24
     d8c:	f7 01       	movw	r30, r14
     d8e:	ec 0d       	add	r30, r12
     d90:	fd 1d       	adc	r31, r13
     d92:	80 81       	ld	r24, Z
     d94:	28 81       	ld	r18, Y
     d96:	39 81       	ldd	r19, Y+1	; 0x01
     d98:	f9 01       	movw	r30, r18
     d9a:	ec 0d       	add	r30, r12
     d9c:	fd 1d       	adc	r31, r13
     d9e:	80 83       	st	Z, r24
     da0:	ab 2d       	mov	r26, r11
     da2:	b1 2f       	mov	r27, r17
     da4:	80 e0       	ldi	r24, 0x00	; 0
     da6:	90 e0       	ldi	r25, 0x00	; 0
     da8:	e3 cf       	rjmp	.-58     	; 0xd70 <create_new_getraenk+0x88>
     daa:	ec 81       	ldd	r30, Y+4	; 0x04
     dac:	fd 81       	ldd	r31, Y+5	; 0x05
     dae:	15 86       	std	Z+13, r1	; 0x0d
     db0:	ce 01       	movw	r24, r28
     db2:	df 91       	pop	r29
     db4:	cf 91       	pop	r28
     db6:	1f 91       	pop	r17
     db8:	0f 91       	pop	r16
     dba:	ff 90       	pop	r15
     dbc:	ef 90       	pop	r14
     dbe:	df 90       	pop	r13
     dc0:	cf 90       	pop	r12
     dc2:	bf 90       	pop	r11
     dc4:	af 90       	pop	r10
     dc6:	9f 90       	pop	r9
     dc8:	08 95       	ret

00000dca <insert_at_head>:
     dca:	cf 93       	push	r28
     dcc:	df 93       	push	r29
     dce:	dc 01       	movw	r26, r24
     dd0:	fb 01       	movw	r30, r22
     dd2:	8d 91       	ld	r24, X+
     dd4:	9c 91       	ld	r25, X
     dd6:	11 97       	sbiw	r26, 0x01	; 1
     dd8:	90 87       	std	Z+8, r25	; 0x08
     dda:	87 83       	std	Z+7, r24	; 0x07
     ddc:	12 86       	std	Z+10, r1	; 0x0a
     dde:	11 86       	std	Z+9, r1	; 0x09
     de0:	cd 91       	ld	r28, X+
     de2:	dc 91       	ld	r29, X
     de4:	11 97       	sbiw	r26, 0x01	; 1
     de6:	20 97       	sbiw	r28, 0x00	; 0
     de8:	29 f4       	brne	.+10     	; 0xdf4 <insert_at_head+0x2a>
     dea:	70 93 3c 08 	sts	0x083C, r23	; 0x80083c <tail_getraenk+0x1>
     dee:	60 93 3b 08 	sts	0x083B, r22	; 0x80083b <tail_getraenk>
     df2:	08 c0       	rjmp	.+16     	; 0xe04 <insert_at_head+0x3a>
     df4:	7a 87       	std	Y+10, r23	; 0x0a
     df6:	69 87       	std	Y+9, r22	; 0x09
     df8:	80 91 3b 08 	lds	r24, 0x083B	; 0x80083b <tail_getraenk>
     dfc:	90 91 3c 08 	lds	r25, 0x083C	; 0x80083c <tail_getraenk+0x1>
     e00:	92 87       	std	Z+10, r25	; 0x0a
     e02:	81 87       	std	Z+9, r24	; 0x09
     e04:	ed 93       	st	X+, r30
     e06:	fc 93       	st	X, r31
     e08:	a0 91 3b 08 	lds	r26, 0x083B	; 0x80083b <tail_getraenk>
     e0c:	b0 91 3c 08 	lds	r27, 0x083C	; 0x80083c <tail_getraenk+0x1>
     e10:	18 96       	adiw	r26, 0x08	; 8
     e12:	fc 93       	st	X, r31
     e14:	ee 93       	st	-X, r30
     e16:	17 97       	sbiw	r26, 0x07	; 7
     e18:	cf 01       	movw	r24, r30
     e1a:	df 91       	pop	r29
     e1c:	cf 91       	pop	r28
     e1e:	08 95       	ret

00000e20 <create_new_getraenk_file>:

getraenk_file_t *create_new_getraenk_file(uint8_t file_to_create)
{
     e20:	cf 93       	push	r28
     e22:	c8 2f       	mov	r28, r24
	getraenk_file_t *newFile = calloc(1,sizeof(getraenk_file_t));
     e24:	65 e0       	ldi	r22, 0x05	; 5
     e26:	70 e0       	ldi	r23, 0x00	; 0
     e28:	81 e0       	ldi	r24, 0x01	; 1
     e2a:	90 e0       	ldi	r25, 0x00	; 0
     e2c:	0e 94 6c 14 	call	0x28d8	; 0x28d8 <calloc>
	newFile->file = file_to_create;
     e30:	fc 01       	movw	r30, r24
     e32:	c0 83       	st	Z, r28
	return newFile;
}
     e34:	cf 91       	pop	r28
     e36:	08 95       	ret

00000e38 <insert_file_at_head>:

getraenk_file_t *insert_file_at_head(getraenk_file_t **head, getraenk_file_t *file_to_insert)
{
     e38:	cf 93       	push	r28
     e3a:	df 93       	push	r29
     e3c:	dc 01       	movw	r26, r24
     e3e:	fb 01       	movw	r30, r22
	file_to_insert->next = *head;
     e40:	8d 91       	ld	r24, X+
     e42:	9c 91       	ld	r25, X
     e44:	11 97       	sbiw	r26, 0x01	; 1
     e46:	92 83       	std	Z+2, r25	; 0x02
     e48:	81 83       	std	Z+1, r24	; 0x01
	file_to_insert->prev = NULL;
     e4a:	14 82       	std	Z+4, r1	; 0x04
     e4c:	13 82       	std	Z+3, r1	; 0x03
	
	if((*head) == NULL)
     e4e:	cd 91       	ld	r28, X+
     e50:	dc 91       	ld	r29, X
     e52:	11 97       	sbiw	r26, 0x01	; 1
     e54:	20 97       	sbiw	r28, 0x00	; 0
     e56:	29 f4       	brne	.+10     	; 0xe62 <insert_file_at_head+0x2a>
	{
		tail_getraenk_file = file_to_insert;
     e58:	70 93 37 07 	sts	0x0737, r23	; 0x800737 <tail_getraenk_file+0x1>
     e5c:	60 93 36 07 	sts	0x0736, r22	; 0x800736 <tail_getraenk_file>
     e60:	08 c0       	rjmp	.+16     	; 0xe72 <insert_file_at_head+0x3a>
	} else
	{
		(*head)->prev = file_to_insert;
     e62:	7c 83       	std	Y+4, r23	; 0x04
     e64:	6b 83       	std	Y+3, r22	; 0x03
		file_to_insert->prev = tail_getraenk_file;
     e66:	80 91 36 07 	lds	r24, 0x0736	; 0x800736 <tail_getraenk_file>
     e6a:	90 91 37 07 	lds	r25, 0x0737	; 0x800737 <tail_getraenk_file+0x1>
     e6e:	94 83       	std	Z+4, r25	; 0x04
     e70:	83 83       	std	Z+3, r24	; 0x03
	}
	*head = file_to_insert;
     e72:	ed 93       	st	X+, r30
     e74:	fc 93       	st	X, r31
	tail_getraenk_file->next = *head;
     e76:	a0 91 36 07 	lds	r26, 0x0736	; 0x800736 <tail_getraenk_file>
     e7a:	b0 91 37 07 	lds	r27, 0x0737	; 0x800737 <tail_getraenk_file+0x1>
     e7e:	12 96       	adiw	r26, 0x02	; 2
     e80:	fc 93       	st	X, r31
     e82:	ee 93       	st	-X, r30
     e84:	11 97       	sbiw	r26, 0x01	; 1
	return file_to_insert;
     e86:	cf 01       	movw	r24, r30
     e88:	df 91       	pop	r29
     e8a:	cf 91       	pop	r28
     e8c:	08 95       	ret

00000e8e <cocktails_init>:




void cocktails_init(void)
{
     e8e:	0f 93       	push	r16
     e90:	1f 93       	push	r17
     e92:	cf 93       	push	r28
     e94:	df 93       	push	r29
     e96:	cd b7       	in	r28, 0x3d	; 61
     e98:	de b7       	in	r29, 0x3e	; 62
     e9a:	2c 97       	sbiw	r28, 0x0c	; 12
     e9c:	0f b6       	in	r0, 0x3f	; 63
     e9e:	f8 94       	cli
     ea0:	de bf       	out	0x3e, r29	; 62
     ea2:	0f be       	out	0x3f, r0	; 63
     ea4:	cd bf       	out	0x3d, r28	; 61
	address_getraenk  = (uint8_t *)0;
     ea6:	10 92 86 10 	sts	0x1086, r1	; 0x801086 <address_getraenk+0x1>
     eaa:	10 92 85 10 	sts	0x1085, r1	; 0x801085 <address_getraenk>

	head_getraenk = NULL;
     eae:	10 92 39 07 	sts	0x0739, r1	; 0x800739 <head_getraenk+0x1>
     eb2:	10 92 38 07 	sts	0x0738, r1	; 0x800738 <head_getraenk>
	getraenk_t * tmp;
	uint8_t typ [12]= {0,0,0,0,0,0,0,0,0,0,0,0};
     eb6:	be 01       	movw	r22, r28
     eb8:	6f 5f       	subi	r22, 0xFF	; 255
     eba:	7f 4f       	sbci	r23, 0xFF	; 255
     ebc:	8c e0       	ldi	r24, 0x0C	; 12
     ebe:	fb 01       	movw	r30, r22
     ec0:	11 92       	st	Z+, r1
     ec2:	8a 95       	dec	r24
     ec4:	e9 f7       	brne	.-6      	; 0xec0 <cocktails_init+0x32>
	tmp = create_new_getraenk("Martini Lemon Drop",(uint8_t*)typ,1,0,24);
     ec6:	08 e1       	ldi	r16, 0x18	; 24
     ec8:	20 e0       	ldi	r18, 0x00	; 0
     eca:	41 e0       	ldi	r20, 0x01	; 1
     ecc:	8c e8       	ldi	r24, 0x8C	; 140
     ece:	94 e0       	ldi	r25, 0x04	; 4
     ed0:	0b df       	rcall	.-490    	; 0xce8 <create_new_getraenk>
	head_getraenk = insert_at_head(&head_getraenk, tmp);
     ed2:	bc 01       	movw	r22, r24
     ed4:	88 e3       	ldi	r24, 0x38	; 56
     ed6:	97 e0       	ldi	r25, 0x07	; 7
     ed8:	78 df       	rcall	.-272    	; 0xdca <insert_at_head>
     eda:	90 93 39 07 	sts	0x0739, r25	; 0x800739 <head_getraenk+0x1>
     ede:	80 93 38 07 	sts	0x0738, r24	; 0x800738 <head_getraenk>
	
	head_getraenk_file = NULL;
     ee2:	10 92 62 08 	sts	0x0862, r1	; 0x800862 <head_getraenk_file+0x1>
     ee6:	10 92 61 08 	sts	0x0861, r1	; 0x800861 <head_getraenk_file>
	getraenk_file_t * tmp2;
	for ( int i = 1 ; i<22;i++){
		tmp2 = create_new_getraenk_file(i);
     eea:	11 e0       	ldi	r17, 0x01	; 1
     eec:	81 2f       	mov	r24, r17
     eee:	98 df       	rcall	.-208    	; 0xe20 <create_new_getraenk_file>
		head_getraenk_file = insert_file_at_head(&head_getraenk_file, tmp2);
     ef0:	bc 01       	movw	r22, r24
     ef2:	81 e6       	ldi	r24, 0x61	; 97
     ef4:	98 e0       	ldi	r25, 0x08	; 8
     ef6:	a0 df       	rcall	.-192    	; 0xe38 <insert_file_at_head>
     ef8:	90 93 62 08 	sts	0x0862, r25	; 0x800862 <head_getraenk_file+0x1>
     efc:	80 93 61 08 	sts	0x0861, r24	; 0x800861 <head_getraenk_file>
     f00:	1f 5f       	subi	r17, 0xFF	; 255
	tmp = create_new_getraenk("Martini Lemon Drop",(uint8_t*)typ,1,0,24);
	head_getraenk = insert_at_head(&head_getraenk, tmp);
	
	head_getraenk_file = NULL;
	getraenk_file_t * tmp2;
	for ( int i = 1 ; i<22;i++){
     f02:	16 31       	cpi	r17, 0x16	; 22
     f04:	99 f7       	brne	.-26     	; 0xeec <cocktails_init+0x5e>
		tmp2 = create_new_getraenk_file(i);
		head_getraenk_file = insert_file_at_head(&head_getraenk_file, tmp2);
	}
	
// 	add_EEPROM_drinks_to_list((uint8_t *) 0);
}
     f06:	2c 96       	adiw	r28, 0x0c	; 12
     f08:	0f b6       	in	r0, 0x3f	; 63
     f0a:	f8 94       	cli
     f0c:	de bf       	out	0x3e, r29	; 62
     f0e:	0f be       	out	0x3f, r0	; 63
     f10:	cd bf       	out	0x3d, r28	; 61
     f12:	df 91       	pop	r29
     f14:	cf 91       	pop	r28
     f16:	1f 91       	pop	r17
     f18:	0f 91       	pop	r16
     f1a:	08 95       	ret

00000f1c <create_neue_zutat>:
	head_zut = insert_zutat_at_head(&head_zut, tmp);
 	}
}

zutat_t *create_neue_zutat(char * name)
{
     f1c:	ef 92       	push	r14
     f1e:	ff 92       	push	r15
     f20:	0f 93       	push	r16
     f22:	1f 93       	push	r17
     f24:	cf 93       	push	r28
     f26:	df 93       	push	r29
     f28:	7c 01       	movw	r14, r24
	zutat_t *newZutat = calloc(1,sizeof(zutat_t));
     f2a:	66 e0       	ldi	r22, 0x06	; 6
     f2c:	70 e0       	ldi	r23, 0x00	; 0
     f2e:	81 e0       	ldi	r24, 0x01	; 1
     f30:	90 e0       	ldi	r25, 0x00	; 0
     f32:	0e 94 6c 14 	call	0x28d8	; 0x28d8 <calloc>
     f36:	ec 01       	movw	r28, r24
 	size_t n1 = strlen((const char *)name)+1;
     f38:	f7 01       	movw	r30, r14
     f3a:	01 90       	ld	r0, Z+
     f3c:	00 20       	and	r0, r0
     f3e:	e9 f7       	brne	.-6      	; 0xf3a <create_neue_zutat+0x1e>
     f40:	31 97       	sbiw	r30, 0x01	; 1
     f42:	8f 01       	movw	r16, r30
     f44:	0e 19       	sub	r16, r14
     f46:	1f 09       	sbc	r17, r15

 	newZutat->name = calloc(n1,sizeof(char));
     f48:	61 e0       	ldi	r22, 0x01	; 1
     f4a:	70 e0       	ldi	r23, 0x00	; 0
     f4c:	c8 01       	movw	r24, r16
     f4e:	01 96       	adiw	r24, 0x01	; 1
     f50:	0e 94 6c 14 	call	0x28d8	; 0x28d8 <calloc>
     f54:	99 83       	std	Y+1, r25	; 0x01
     f56:	88 83       	st	Y, r24
	 
	 newZutat->prev = NULL;
     f58:	1d 82       	std	Y+5, r1	; 0x05
     f5a:	1c 82       	std	Y+4, r1	; 0x04
	 newZutat->next = NULL;
     f5c:	1b 82       	std	Y+3, r1	; 0x03
     f5e:	1a 82       	std	Y+2, r1	; 0x02
	 
	int i = 0;
 	for (i=0; i<(n1-1); i++)
     f60:	01 15       	cp	r16, r1
     f62:	11 05       	cpc	r17, r1
     f64:	79 f0       	breq	.+30     	; 0xf84 <create_neue_zutat+0x68>
     f66:	d7 01       	movw	r26, r14
     f68:	a8 01       	movw	r20, r16
     f6a:	20 e0       	ldi	r18, 0x00	; 0
     f6c:	30 e0       	ldi	r19, 0x00	; 0
 	{
 		*(char *)(newZutat->name + i) = *(char *)(name + i);
     f6e:	8d 91       	ld	r24, X+
     f70:	e8 81       	ld	r30, Y
     f72:	f9 81       	ldd	r31, Y+1	; 0x01
     f74:	e2 0f       	add	r30, r18
     f76:	f3 1f       	adc	r31, r19
     f78:	80 83       	st	Z, r24
	 
	 newZutat->prev = NULL;
	 newZutat->next = NULL;
	 
	int i = 0;
 	for (i=0; i<(n1-1); i++)
     f7a:	2f 5f       	subi	r18, 0xFF	; 255
     f7c:	3f 4f       	sbci	r19, 0xFF	; 255
     f7e:	24 17       	cp	r18, r20
     f80:	35 07       	cpc	r19, r21
     f82:	a9 f7       	brne	.-22     	; 0xf6e <create_neue_zutat+0x52>
 	{
 		*(char *)(newZutat->name + i) = *(char *)(name + i);
 	}
	 	*(char *)(newZutat->name + (i+1)) = '\0';
     f84:	88 81       	ld	r24, Y
     f86:	99 81       	ldd	r25, Y+1	; 0x01
     f88:	fc 01       	movw	r30, r24
     f8a:	e0 0f       	add	r30, r16
     f8c:	f1 1f       	adc	r31, r17
     f8e:	11 82       	std	Z+1, r1	; 0x01


	return newZutat;
}
     f90:	ce 01       	movw	r24, r28
     f92:	df 91       	pop	r29
     f94:	cf 91       	pop	r28
     f96:	1f 91       	pop	r17
     f98:	0f 91       	pop	r16
     f9a:	ff 90       	pop	r15
     f9c:	ef 90       	pop	r14
     f9e:	08 95       	ret

00000fa0 <insert_zutat_at_head>:

zutat_t *insert_zutat_at_head(zutat_t **head_zut, zutat_t *zutat_to_insert)
{
     fa0:	cf 93       	push	r28
     fa2:	df 93       	push	r29
     fa4:	dc 01       	movw	r26, r24
     fa6:	fb 01       	movw	r30, r22
	zutat_to_insert->next = (*head_zut);
     fa8:	8d 91       	ld	r24, X+
     faa:	9c 91       	ld	r25, X
     fac:	11 97       	sbiw	r26, 0x01	; 1
     fae:	93 83       	std	Z+3, r25	; 0x03
     fb0:	82 83       	std	Z+2, r24	; 0x02
	zutat_to_insert->prev = NULL;
     fb2:	15 82       	std	Z+5, r1	; 0x05
     fb4:	14 82       	std	Z+4, r1	; 0x04
	
	if((*head_zut) == NULL)
     fb6:	cd 91       	ld	r28, X+
     fb8:	dc 91       	ld	r29, X
     fba:	11 97       	sbiw	r26, 0x01	; 1
     fbc:	20 97       	sbiw	r28, 0x00	; 0
     fbe:	29 f4       	brne	.+10     	; 0xfca <insert_zutat_at_head+0x2a>
	{
		tail_zut = zutat_to_insert;
     fc0:	70 93 91 12 	sts	0x1291, r23	; 0x801291 <tail_zut+0x1>
     fc4:	60 93 90 12 	sts	0x1290, r22	; 0x801290 <tail_zut>
     fc8:	08 c0       	rjmp	.+16     	; 0xfda <insert_zutat_at_head+0x3a>
	} else
	{
		(*head_zut)->prev = zutat_to_insert;
     fca:	7d 83       	std	Y+5, r23	; 0x05
     fcc:	6c 83       	std	Y+4, r22	; 0x04
		zutat_to_insert->prev = tail_zut;
     fce:	80 91 90 12 	lds	r24, 0x1290	; 0x801290 <tail_zut>
     fd2:	90 91 91 12 	lds	r25, 0x1291	; 0x801291 <tail_zut+0x1>
     fd6:	95 83       	std	Z+5, r25	; 0x05
     fd8:	84 83       	std	Z+4, r24	; 0x04
	}
	*head_zut = zutat_to_insert;
     fda:	ed 93       	st	X+, r30
     fdc:	fc 93       	st	X, r31
	tail_zut->next = *head_zut;
     fde:	a0 91 90 12 	lds	r26, 0x1290	; 0x801290 <tail_zut>
     fe2:	b0 91 91 12 	lds	r27, 0x1291	; 0x801291 <tail_zut+0x1>
     fe6:	13 96       	adiw	r26, 0x03	; 3
     fe8:	fc 93       	st	X, r31
     fea:	ee 93       	st	-X, r30
     fec:	12 97       	sbiw	r26, 0x02	; 2
	return zutat_to_insert;
}
     fee:	cf 01       	movw	r24, r30
     ff0:	df 91       	pop	r29
     ff2:	cf 91       	pop	r28
     ff4:	08 95       	ret

00000ff6 <zutaten_init>:

#include "Zutaten.h"


void zutaten_init(void)
{
     ff6:	ef 92       	push	r14
     ff8:	ff 92       	push	r15
     ffa:	0f 93       	push	r16
     ffc:	1f 93       	push	r17
     ffe:	cf 93       	push	r28
    1000:	df 93       	push	r29
    1002:	cd b7       	in	r28, 0x3d	; 61
    1004:	de b7       	in	r29, 0x3e	; 62
    1006:	c0 5f       	subi	r28, 0xF0	; 240
    1008:	d1 09       	sbc	r29, r1
    100a:	0f b6       	in	r0, 0x3f	; 63
    100c:	f8 94       	cli
    100e:	de bf       	out	0x3e, r29	; 62
    1010:	0f be       	out	0x3f, r0	; 63
    1012:	cd bf       	out	0x3d, r28	; 61
	address_zut  = (uint8_t *)0;
    1014:	10 92 42 08 	sts	0x0842, r1	; 0x800842 <address_zut+0x1>
    1018:	10 92 41 08 	sts	0x0841, r1	; 0x800841 <address_zut>
		1,
		1,
		1,
	};

	char zutaten[12][20] = {
    101c:	80 ef       	ldi	r24, 0xF0	; 240
    101e:	e6 e0       	ldi	r30, 0x06	; 6
    1020:	f2 e0       	ldi	r31, 0x02	; 2
    1022:	de 01       	movw	r26, r28
    1024:	11 96       	adiw	r26, 0x01	; 1
    1026:	01 90       	ld	r0, Z+
    1028:	0d 92       	st	X+, r0
    102a:	8a 95       	dec	r24
    102c:	e1 f7       	brne	.-8      	; 0x1026 <zutaten_init+0x30>
		"Gin",
		"Triple Sec",
		"Whisky",
		"Wodka"
	};
	head_zut = NULL;
    102e:	10 92 64 08 	sts	0x0864, r1	; 0x800864 <head_zut+0x1>
    1032:	10 92 63 08 	sts	0x0863, r1	; 0x800863 <head_zut>
    1036:	8e 01       	movw	r16, r28
    1038:	0f 5f       	subi	r16, 0xFF	; 255
    103a:	1f 4f       	sbci	r17, 0xFF	; 255
    103c:	7e 01       	movw	r14, r28
    103e:	81 ef       	ldi	r24, 0xF1	; 241
    1040:	e8 0e       	add	r14, r24
    1042:	f1 1c       	adc	r15, r1
	zutat_t *tmp;
 	for ( int i = 0 ; i<12;i++){
	tmp = create_neue_zutat(zutaten[i]);
    1044:	c8 01       	movw	r24, r16
    1046:	6a df       	rcall	.-300    	; 0xf1c <create_neue_zutat>
	head_zut = insert_zutat_at_head(&head_zut, tmp);
    1048:	bc 01       	movw	r22, r24
    104a:	83 e6       	ldi	r24, 0x63	; 99
    104c:	98 e0       	ldi	r25, 0x08	; 8
    104e:	a8 df       	rcall	.-176    	; 0xfa0 <insert_zutat_at_head>
    1050:	90 93 64 08 	sts	0x0864, r25	; 0x800864 <head_zut+0x1>
    1054:	80 93 63 08 	sts	0x0863, r24	; 0x800863 <head_zut>
    1058:	0c 5e       	subi	r16, 0xEC	; 236
    105a:	1f 4f       	sbci	r17, 0xFF	; 255
		"Whisky",
		"Wodka"
	};
	head_zut = NULL;
	zutat_t *tmp;
 	for ( int i = 0 ; i<12;i++){
    105c:	0e 15       	cp	r16, r14
    105e:	1f 05       	cpc	r17, r15
    1060:	89 f7       	brne	.-30     	; 0x1044 <zutaten_init+0x4e>
	tmp = create_neue_zutat(zutaten[i]);
	head_zut = insert_zutat_at_head(&head_zut, tmp);
 	}
}
    1062:	c0 51       	subi	r28, 0x10	; 16
    1064:	df 4f       	sbci	r29, 0xFF	; 255
    1066:	0f b6       	in	r0, 0x3f	; 63
    1068:	f8 94       	cli
    106a:	de bf       	out	0x3e, r29	; 62
    106c:	0f be       	out	0x3f, r0	; 63
    106e:	cd bf       	out	0x3d, r28	; 61
    1070:	df 91       	pop	r29
    1072:	cf 91       	pop	r28
    1074:	1f 91       	pop	r17
    1076:	0f 91       	pop	r16
    1078:	ff 90       	pop	r15
    107a:	ef 90       	pop	r14
    107c:	08 95       	ret

0000107e <IO_init>:

//Init_IO

void IO_init(void)
{
	LED_DDR = LED_OUTPUT_MASK;
    107e:	88 e7       	ldi	r24, 0x78	; 120
    1080:	80 bb       	out	0x10, r24	; 16
	SPI_DDR = SPI_OUTPUT_MASK;
    1082:	87 e8       	ldi	r24, 0x87	; 135
    1084:	84 b9       	out	0x04, r24	; 4
	SPI2_DDR = SPI2_OUTPUT_MASK;
    1086:	88 e6       	ldi	r24, 0x68	; 104
    1088:	80 93 01 01 	sts	0x0101, r24	; 0x800101 <__TEXT_REGION_LENGTH__+0x700101>
	PUMPE_DDR = PUMPE_OUTPUT_MASK;
    108c:	8c ef       	ldi	r24, 0xFC	; 252
    108e:	81 b9       	out	0x01, r24	; 1
	PUMPE_DDR2 = PUMPE2_OUTPUT_MASK;
    1090:	85 e0       	ldi	r24, 0x05	; 5
    1092:	83 bb       	out	0x13, r24	; 19
	PUMPE_DDR3 = PUMPE3_OUTPUT_MASK;
    1094:	8c e7       	ldi	r24, 0x7C	; 124
    1096:	80 93 04 01 	sts	0x0104, r24	; 0x800104 <__TEXT_REGION_LENGTH__+0x700104>
	RFID_DDR = RFID_OUTPUT_MASK;
    109a:	83 e0       	ldi	r24, 0x03	; 3
    109c:	87 b9       	out	0x07, r24	; 7
	FLUSS_DDR = 0b00000000;
    109e:	10 92 07 01 	sts	0x0107, r1	; 0x800107 <__TEXT_REGION_LENGTH__+0x700107>
	SPI_PORT |= SPI_MISO_PIN;
    10a2:	93 b1       	in	r25, 0x03	; 3
    10a4:	85 b1       	in	r24, 0x05	; 5
    10a6:	89 2b       	or	r24, r25
    10a8:	85 b9       	out	0x05, r24	; 5
    10aa:	08 95       	ret

000010ac <toggle_LED>:
   		_delay_ms(200);
}

void toggle_LED(void)
{
		LED_PORT = LED_PORT ^ (LEDR_BIT|LEDG_BIT|LEDB_BIT|LEDW_BIT);
    10ac:	91 b3       	in	r25, 0x11	; 17
    10ae:	88 e7       	ldi	r24, 0x78	; 120
    10b0:	89 27       	eor	r24, r25
    10b2:	81 bb       	out	0x11, r24	; 17
    10b4:	08 95       	ret

000010b6 <heartbeat_LED>:
	SPI_PORT |= SPI_MISO_PIN;
}

void heartbeat_LED(void)
{
	toggle_LED();
    10b6:	fa df       	rcall	.-12     	; 0x10ac <toggle_LED>
    10b8:	2f ef       	ldi	r18, 0xFF	; 255
    10ba:	83 ec       	ldi	r24, 0xC3	; 195
    10bc:	99 e0       	ldi	r25, 0x09	; 9
    10be:	21 50       	subi	r18, 0x01	; 1
    10c0:	80 40       	sbci	r24, 0x00	; 0
    10c2:	90 40       	sbci	r25, 0x00	; 0
    10c4:	e1 f7       	brne	.-8      	; 0x10be <heartbeat_LED+0x8>
    10c6:	00 c0       	rjmp	.+0      	; 0x10c8 <heartbeat_LED+0x12>
    10c8:	00 00       	nop
    10ca:	08 95       	ret

000010cc <check_Communication_Input_UART_0>:
{
		LED_PORT = LED_PORT ^ (LEDR_BIT|LEDG_BIT|LEDB_BIT|LEDW_BIT);
}

char check_Communication_Input_UART_0(void)
{
    10cc:	1f 93       	push	r17
    10ce:	cf 93       	push	r28
    10d0:	df 93       	push	r29
	char ret = 0;
    10d2:	d0 e0       	ldi	r29, 0x00	; 0
		}
		else
		{
			INPUT_UART_0[cntr_UART_0]=ch;
			cntr_UART_0++;
			ret = 0;
    10d4:	c0 e0       	ldi	r28, 0x00	; 0
		if (ch == 13)
		{
			INPUT_UART_0[cntr_UART_0] = 0;
			cntr_UART_0 = 0;
			cntr_End_UART_0 = 0;
			ret = 1;
    10d6:	11 e0       	ldi	r17, 0x01	; 1

char check_Communication_Input_UART_0(void)
{
	char ret = 0;
	// Check Buffer auf Einkommende Daten
	while(RB_length(&rb_rx_PC)>0)
    10d8:	1e c0       	rjmp	.+60     	; 0x1116 <check_Communication_Input_UART_0+0x4a>
	{
		unsigned char ch = RB_readByte(&rb_rx_PC);
    10da:	83 e8       	ldi	r24, 0x83	; 131
    10dc:	9e e0       	ldi	r25, 0x0E	; 14
    10de:	e1 d1       	rcall	.+962    	; 0x14a2 <RB_readByte>
		if (ch == 13)
    10e0:	8d 30       	cpi	r24, 0x0D	; 13
    10e2:	69 f4       	brne	.+26     	; 0x10fe <check_Communication_Input_UART_0+0x32>
		{
			INPUT_UART_0[cntr_UART_0] = 0;
    10e4:	e0 91 34 06 	lds	r30, 0x0634	; 0x800634 <cntr_UART_0>
    10e8:	f0 e0       	ldi	r31, 0x00	; 0
    10ea:	eb 55       	subi	r30, 0x5B	; 91
    10ec:	fd 4e       	sbci	r31, 0xED	; 237
    10ee:	10 82       	st	Z, r1
			cntr_UART_0 = 0;
    10f0:	c0 93 34 06 	sts	0x0634, r28	; 0x800634 <cntr_UART_0>
			cntr_End_UART_0 = 0;
    10f4:	c0 93 33 06 	sts	0x0633, r28	; 0x800633 <cntr_End_UART_0>
			ret = 1;
			toggle_LED();
    10f8:	d9 df       	rcall	.-78     	; 0x10ac <toggle_LED>
		if (ch == 13)
		{
			INPUT_UART_0[cntr_UART_0] = 0;
			cntr_UART_0 = 0;
			cntr_End_UART_0 = 0;
			ret = 1;
    10fa:	d1 2f       	mov	r29, r17
    10fc:	0c c0       	rjmp	.+24     	; 0x1116 <check_Communication_Input_UART_0+0x4a>
			toggle_LED();
		}
		else
		{
			INPUT_UART_0[cntr_UART_0]=ch;
    10fe:	90 91 34 06 	lds	r25, 0x0634	; 0x800634 <cntr_UART_0>
    1102:	e9 2f       	mov	r30, r25
    1104:	f0 e0       	ldi	r31, 0x00	; 0
    1106:	eb 55       	subi	r30, 0x5B	; 91
    1108:	fd 4e       	sbci	r31, 0xED	; 237
    110a:	80 83       	st	Z, r24
			cntr_UART_0++;
    110c:	9f 5f       	subi	r25, 0xFF	; 255
    110e:	90 93 34 06 	sts	0x0634, r25	; 0x800634 <cntr_UART_0>
			ret = 0;
			toggle_LED();
    1112:	cc df       	rcall	.-104    	; 0x10ac <toggle_LED>

char check_Communication_Input_UART_0(void)
{
	char ret = 0;
	// Check Buffer auf Einkommende Daten
	while(RB_length(&rb_rx_PC)>0)
    1114:	dc 2f       	mov	r29, r28
    1116:	83 e8       	ldi	r24, 0x83	; 131
    1118:	9e e0       	ldi	r25, 0x0E	; 14
    111a:	b7 d1       	rcall	.+878    	; 0x148a <RB_length>
    111c:	81 11       	cpse	r24, r1
    111e:	dd cf       	rjmp	.-70     	; 0x10da <check_Communication_Input_UART_0+0xe>
			ret = 0;
			toggle_LED();
		}
	}
	return ret;
}
    1120:	8d 2f       	mov	r24, r29
    1122:	df 91       	pop	r29
    1124:	cf 91       	pop	r28
    1126:	1f 91       	pop	r17
    1128:	08 95       	ret

0000112a <proceed_Communication_Input_UART_0>:

void proceed_Communication_Input_UART_0(void)
{
    112a:	cf 93       	push	r28
    112c:	df 93       	push	r29
	char * ch = "Proceed UART 0: \n\r";
	Uart_Transmit_IT_PC(ch);
    112e:	8f e9       	ldi	r24, 0x9F	; 159
    1130:	94 e0       	ldi	r25, 0x04	; 4
    1132:	0e 94 96 12 	call	0x252c	; 0x252c <Uart_Transmit_IT_PC>
	cocktail_test_command(INPUT_UART_0);
    1136:	85 ea       	ldi	r24, 0xA5	; 165
    1138:	92 e1       	ldi	r25, 0x12	; 18
    113a:	18 d8       	rcall	.-4048   	; 0x16c <cocktail_test_command>
    113c:	a5 ea       	ldi	r26, 0xA5	; 165
    113e:	b2 e1       	ldi	r27, 0x12	; 18
	
	for (int i = 0; i < strlen((const char *)INPUT_UART_0);i++)
    1140:	80 e0       	ldi	r24, 0x00	; 0
    1142:	90 e0       	ldi	r25, 0x00	; 0
    1144:	ed 01       	movw	r28, r26
    1146:	02 c0       	rjmp	.+4      	; 0x114c <proceed_Communication_Input_UART_0+0x22>
	{
		INPUT_UART_0[i] = '\0';
    1148:	1d 92       	st	X+, r1
{
	char * ch = "Proceed UART 0: \n\r";
	Uart_Transmit_IT_PC(ch);
	cocktail_test_command(INPUT_UART_0);
	
	for (int i = 0; i < strlen((const char *)INPUT_UART_0);i++)
    114a:	01 96       	adiw	r24, 0x01	; 1
    114c:	fe 01       	movw	r30, r28
    114e:	01 90       	ld	r0, Z+
    1150:	00 20       	and	r0, r0
    1152:	e9 f7       	brne	.-6      	; 0x114e <proceed_Communication_Input_UART_0+0x24>
    1154:	31 97       	sbiw	r30, 0x01	; 1
    1156:	e5 5a       	subi	r30, 0xA5	; 165
    1158:	f2 41       	sbci	r31, 0x12	; 18
    115a:	8e 17       	cp	r24, r30
    115c:	9f 07       	cpc	r25, r31
    115e:	a0 f3       	brcs	.-24     	; 0x1148 <proceed_Communication_Input_UART_0+0x1e>
	{
		INPUT_UART_0[i] = '\0';
	}
	
}
    1160:	df 91       	pop	r29
    1162:	cf 91       	pop	r28
    1164:	08 95       	ret

00001166 <check_Communication_Input_UART_1>:

char check_Communication_Input_UART_1(void)
{
    1166:	0f 93       	push	r16
    1168:	1f 93       	push	r17
    116a:	cf 93       	push	r28
    116c:	df 93       	push	r29
	char ret = 0;
    116e:	00 e0       	ldi	r16, 0x00	; 0
		}
		else
		{
			INPUT_UART_1[cntr_UART_1]=ch;
			cntr_UART_1++;
			ret = 0;
    1170:	c0 e0       	ldi	r28, 0x00	; 0
			INPUT_UART_1[cntr_UART_1] = 0;
			INPUT_UART_1[cntr_UART_1-1]=0;
			INPUT_UART_1[cntr_UART_1-2]=0;
			cntr_UART_1 = 0;
			cntr_End_UART_1 = 0;
			ret = 1;
    1172:	d1 e0       	ldi	r29, 0x01	; 1
			{
				cntr_End_UART_1++;
			}
			if (cntr_End_UART_1==1 && (INPUT_UART_1[cntr_UART_1-1] == 0xFF))
			{
				cntr_End_UART_1++;
    1174:	12 e0       	ldi	r17, 0x02	; 2

char check_Communication_Input_UART_1(void)
{
	char ret = 0;
	
	while(RB_length(&rb_rx_Display)>0)					// UART_1
    1176:	4c c0       	rjmp	.+152    	; 0x1210 <check_Communication_Input_UART_1+0xaa>
	{
		
		unsigned char ch = RB_readByte(&rb_rx_Display);
    1178:	80 e7       	ldi	r24, 0x70	; 112
    117a:	99 e0       	ldi	r25, 0x09	; 9
    117c:	92 d1       	rcall	.+804    	; 0x14a2 <RB_readByte>

		if (ch == 0xFF)
    117e:	8f 3f       	cpi	r24, 0xFF	; 255
    1180:	29 f5       	brne	.+74     	; 0x11cc <check_Communication_Input_UART_1+0x66>
		{
			if (cntr_End_UART_1==0)
    1182:	90 91 31 06 	lds	r25, 0x0631	; 0x800631 <cntr_End_UART_1>
    1186:	99 23       	and	r25, r25
    1188:	19 f0       	breq	.+6      	; 0x1190 <check_Communication_Input_UART_1+0x2a>
			{
				cntr_End_UART_1++;
			}
			if (cntr_End_UART_1==1 && (INPUT_UART_1[cntr_UART_1-1] == 0xFF))
    118a:	91 30       	cpi	r25, 0x01	; 1
    118c:	09 f0       	breq	.+2      	; 0x1190 <check_Communication_Input_UART_1+0x2a>
    118e:	49 c0       	rjmp	.+146    	; 0x1222 <check_Communication_Input_UART_1+0xbc>
    1190:	e0 91 32 06 	lds	r30, 0x0632	; 0x800632 <cntr_UART_1>
    1194:	f0 e0       	ldi	r31, 0x00	; 0
    1196:	ec 55       	subi	r30, 0x5C	; 92
    1198:	fc 4e       	sbci	r31, 0xEC	; 236
    119a:	90 81       	ld	r25, Z
    119c:	9f 3f       	cpi	r25, 0xFF	; 255
    119e:	09 f0       	breq	.+2      	; 0x11a2 <check_Communication_Input_UART_1+0x3c>
    11a0:	3d c0       	rjmp	.+122    	; 0x121c <check_Communication_Input_UART_1+0xb6>
			{
				cntr_End_UART_1++;
    11a2:	10 93 31 06 	sts	0x0631, r17	; 0x800631 <cntr_End_UART_1>
			}
			if (cntr_End_UART_1==1 && (INPUT_UART_1[cntr_UART_1-1] != 0xFF))
			{
				cntr_End_UART_1=0;
			}
			if (cntr_End_UART_1==2 && (INPUT_UART_1[cntr_UART_1-1] == 0xFF) && (INPUT_UART_1[cntr_UART_1-2] == 0xFF))
    11a6:	20 91 32 06 	lds	r18, 0x0632	; 0x800632 <cntr_UART_1>
    11aa:	30 e0       	ldi	r19, 0x00	; 0
    11ac:	f9 01       	movw	r30, r18
    11ae:	ec 55       	subi	r30, 0x5C	; 92
    11b0:	fc 4e       	sbci	r31, 0xEC	; 236
    11b2:	90 81       	ld	r25, Z
    11b4:	9f 3f       	cpi	r25, 0xFF	; 255
    11b6:	39 f4       	brne	.+14     	; 0x11c6 <check_Communication_Input_UART_1+0x60>
    11b8:	f9 01       	movw	r30, r18
    11ba:	ed 55       	subi	r30, 0x5D	; 93
    11bc:	fc 4e       	sbci	r31, 0xEC	; 236
    11be:	90 81       	ld	r25, Z
    11c0:	9f 3f       	cpi	r25, 0xFF	; 255
    11c2:	a1 f5       	brne	.+104    	; 0x122c <check_Communication_Input_UART_1+0xc6>
    11c4:	07 c0       	rjmp	.+14     	; 0x11d4 <check_Communication_Input_UART_1+0x6e>
			{
				cntr_End_UART_1++;
			}
			if (cntr_End_UART_1==2 && ((INPUT_UART_1[cntr_UART_1-1] != 0xFF) || (INPUT_UART_1[cntr_UART_1-2] != 0xFF)))
			{
				cntr_End_UART_1 = 0;
    11c6:	c0 93 31 06 	sts	0x0631, r28	; 0x800631 <cntr_End_UART_1>
    11ca:	16 c0       	rjmp	.+44     	; 0x11f8 <check_Communication_Input_UART_1+0x92>
			}
		}
		if (cntr_End_UART_1 == 3)
    11cc:	90 91 31 06 	lds	r25, 0x0631	; 0x800631 <cntr_End_UART_1>
    11d0:	93 30       	cpi	r25, 0x03	; 3
    11d2:	91 f4       	brne	.+36     	; 0x11f8 <check_Communication_Input_UART_1+0x92>
		{
			INPUT_UART_1[cntr_UART_1] = 0;
    11d4:	e0 91 32 06 	lds	r30, 0x0632	; 0x800632 <cntr_UART_1>
    11d8:	f0 e0       	ldi	r31, 0x00	; 0
    11da:	eb 55       	subi	r30, 0x5B	; 91
    11dc:	fc 4e       	sbci	r31, 0xEC	; 236
    11de:	10 82       	st	Z, r1
			INPUT_UART_1[cntr_UART_1-1]=0;
    11e0:	df 01       	movw	r26, r30
    11e2:	11 97       	sbiw	r26, 0x01	; 1
    11e4:	1c 92       	st	X, r1
			INPUT_UART_1[cntr_UART_1-2]=0;
    11e6:	32 97       	sbiw	r30, 0x02	; 2
    11e8:	10 82       	st	Z, r1
			cntr_UART_1 = 0;
    11ea:	c0 93 32 06 	sts	0x0632, r28	; 0x800632 <cntr_UART_1>
			cntr_End_UART_1 = 0;
    11ee:	c0 93 31 06 	sts	0x0631, r28	; 0x800631 <cntr_End_UART_1>
			ret = 1;
			toggle_LED();
    11f2:	5c df       	rcall	.-328    	; 0x10ac <toggle_LED>
			INPUT_UART_1[cntr_UART_1] = 0;
			INPUT_UART_1[cntr_UART_1-1]=0;
			INPUT_UART_1[cntr_UART_1-2]=0;
			cntr_UART_1 = 0;
			cntr_End_UART_1 = 0;
			ret = 1;
    11f4:	0d 2f       	mov	r16, r29
    11f6:	0c c0       	rjmp	.+24     	; 0x1210 <check_Communication_Input_UART_1+0xaa>
			toggle_LED();
		}
		else
		{
			INPUT_UART_1[cntr_UART_1]=ch;
    11f8:	90 91 32 06 	lds	r25, 0x0632	; 0x800632 <cntr_UART_1>
    11fc:	e9 2f       	mov	r30, r25
    11fe:	f0 e0       	ldi	r31, 0x00	; 0
    1200:	eb 55       	subi	r30, 0x5B	; 91
    1202:	fc 4e       	sbci	r31, 0xEC	; 236
    1204:	80 83       	st	Z, r24
			cntr_UART_1++;
    1206:	9f 5f       	subi	r25, 0xFF	; 255
    1208:	90 93 32 06 	sts	0x0632, r25	; 0x800632 <cntr_UART_1>
			ret = 0;
			toggle_LED();
    120c:	4f df       	rcall	.-354    	; 0x10ac <toggle_LED>

char check_Communication_Input_UART_1(void)
{
	char ret = 0;
	
	while(RB_length(&rb_rx_Display)>0)					// UART_1
    120e:	0c 2f       	mov	r16, r28
    1210:	80 e7       	ldi	r24, 0x70	; 112
    1212:	99 e0       	ldi	r25, 0x09	; 9
    1214:	3a d1       	rcall	.+628    	; 0x148a <RB_length>
    1216:	81 11       	cpse	r24, r1
    1218:	af cf       	rjmp	.-162    	; 0x1178 <check_Communication_Input_UART_1+0x12>
    121a:	11 c0       	rjmp	.+34     	; 0x123e <check_Communication_Input_UART_1+0xd8>
			{
				cntr_End_UART_1++;
			}
			if (cntr_End_UART_1==1 && (INPUT_UART_1[cntr_UART_1-1] != 0xFF))
			{
				cntr_End_UART_1=0;
    121c:	c0 93 31 06 	sts	0x0631, r28	; 0x800631 <cntr_End_UART_1>
    1220:	d5 cf       	rjmp	.-86     	; 0x11cc <check_Communication_Input_UART_1+0x66>
			}
			if (cntr_End_UART_1==2 && (INPUT_UART_1[cntr_UART_1-1] == 0xFF) && (INPUT_UART_1[cntr_UART_1-2] == 0xFF))
    1222:	90 91 31 06 	lds	r25, 0x0631	; 0x800631 <cntr_End_UART_1>
    1226:	92 30       	cpi	r25, 0x02	; 2
    1228:	89 f6       	brne	.-94     	; 0x11cc <check_Communication_Input_UART_1+0x66>
    122a:	bd cf       	rjmp	.-134    	; 0x11a6 <check_Communication_Input_UART_1+0x40>
			{
				cntr_End_UART_1++;
			}
			if (cntr_End_UART_1==2 && ((INPUT_UART_1[cntr_UART_1-1] != 0xFF) || (INPUT_UART_1[cntr_UART_1-2] != 0xFF)))
    122c:	e0 91 32 06 	lds	r30, 0x0632	; 0x800632 <cntr_UART_1>
    1230:	f0 e0       	ldi	r31, 0x00	; 0
    1232:	ed 55       	subi	r30, 0x5D	; 93
    1234:	fc 4e       	sbci	r31, 0xEC	; 236
    1236:	90 81       	ld	r25, Z
    1238:	9f 3f       	cpi	r25, 0xFF	; 255
    123a:	29 f6       	brne	.-118    	; 0x11c6 <check_Communication_Input_UART_1+0x60>
    123c:	dd cf       	rjmp	.-70     	; 0x11f8 <check_Communication_Input_UART_1+0x92>
			ret = 0;
			toggle_LED();
		}
	}
	return ret;
}
    123e:	80 2f       	mov	r24, r16
    1240:	df 91       	pop	r29
    1242:	cf 91       	pop	r28
    1244:	1f 91       	pop	r17
    1246:	0f 91       	pop	r16
    1248:	08 95       	ret

0000124a <proceed_Communication_INPUT_UART_1>:

void proceed_Communication_INPUT_UART_1(void)
{
	Uart_Transmit_IT_PC("Proceed UART 1: ");
    124a:	82 eb       	ldi	r24, 0xB2	; 178
    124c:	94 e0       	ldi	r25, 0x04	; 4
    124e:	0e 94 96 12 	call	0x252c	; 0x252c <Uart_Transmit_IT_PC>
	Uart_Transmit_IT_PC((char *)INPUT_UART_1);
    1252:	85 ea       	ldi	r24, 0xA5	; 165
    1254:	93 e1       	ldi	r25, 0x13	; 19
    1256:	0e 94 96 12 	call	0x252c	; 0x252c <Uart_Transmit_IT_PC>
	Uart_Transmit_IT_PC("\r\n");
    125a:	88 e5       	ldi	r24, 0x58	; 88
    125c:	94 e0       	ldi	r25, 0x04	; 4
    125e:	0e 94 96 12 	call	0x252c	; 0x252c <Uart_Transmit_IT_PC>

	cocktail_check_command((char)INPUT_UART_1[0],(char)INPUT_UART_1[1]);
    1262:	e5 ea       	ldi	r30, 0xA5	; 165
    1264:	f3 e1       	ldi	r31, 0x13	; 19
    1266:	61 81       	ldd	r22, Z+1	; 0x01
    1268:	80 81       	ld	r24, Z
    126a:	7d ca       	rjmp	.-2822   	; 0x766 <cocktail_check_command>
    126c:	08 95       	ret

0000126e <check_Communication_Input_UART_2>:
}

char check_Communication_Input_UART_2(void)
{
    126e:	0f 93       	push	r16
    1270:	1f 93       	push	r17
    1272:	cf 93       	push	r28
    1274:	df 93       	push	r29
	char ret = 0;
    1276:	00 e0       	ldi	r16, 0x00	; 0
		}
		else
		{
			INPUT_UART_2[cntr_UART_2]=ch;
			cntr_UART_2++;
			ret = 0;
    1278:	c0 e0       	ldi	r28, 0x00	; 0
			INPUT_UART_2[cntr_UART_2] = 0;
			INPUT_UART_2[cntr_UART_2-1]=0;
			INPUT_UART_2[cntr_UART_2-2]=0;
			cntr_UART_2 = 0;
			cntr_End_UART_2 = 0;
			ret = 1;
    127a:	d1 e0       	ldi	r29, 0x01	; 1
			{
				cntr_End_UART_2++;
			}
			if (cntr_End_UART_2==1 && (INPUT_UART_2[cntr_UART_2-1] == 0xFF))
			{
				cntr_End_UART_2++;
    127c:	12 e0       	ldi	r17, 0x02	; 2
}

char check_Communication_Input_UART_2(void)
{
	char ret = 0;
	while(RB_length(&rb_rx_ESP)>0)					// UART_2
    127e:	4c c0       	rjmp	.+152    	; 0x1318 <check_Communication_Input_UART_2+0xaa>
	{
		unsigned char ch = RB_readByte(&rb_rx_ESP);
    1280:	89 e6       	ldi	r24, 0x69	; 105
    1282:	98 e0       	ldi	r25, 0x08	; 8
    1284:	0e d1       	rcall	.+540    	; 0x14a2 <RB_readByte>
		// Verbesserung oder Verschlimmbesserung: Falls cntr_UART_1 >=2 dann schauen ob die letzten drei Übertragungen [cntr_UART_1], [cntr_UART_1-1], [cntr_UART_1-2] 0xFF sind
		if (ch == 0xFF)
    1286:	8f 3f       	cpi	r24, 0xFF	; 255
    1288:	29 f5       	brne	.+74     	; 0x12d4 <check_Communication_Input_UART_2+0x66>
		{
			if (cntr_End_UART_2==0)
    128a:	90 91 2f 06 	lds	r25, 0x062F	; 0x80062f <cntr_End_UART_2>
    128e:	99 23       	and	r25, r25
    1290:	19 f0       	breq	.+6      	; 0x1298 <check_Communication_Input_UART_2+0x2a>
			{
				cntr_End_UART_2++;
			}
			if (cntr_End_UART_2==1 && (INPUT_UART_2[cntr_UART_2-1] == 0xFF))
    1292:	91 30       	cpi	r25, 0x01	; 1
    1294:	09 f0       	breq	.+2      	; 0x1298 <check_Communication_Input_UART_2+0x2a>
    1296:	49 c0       	rjmp	.+146    	; 0x132a <check_Communication_Input_UART_2+0xbc>
    1298:	e0 91 30 06 	lds	r30, 0x0630	; 0x800630 <cntr_UART_2>
    129c:	f0 e0       	ldi	r31, 0x00	; 0
    129e:	ec 55       	subi	r30, 0x5C	; 92
    12a0:	fb 4e       	sbci	r31, 0xEB	; 235
    12a2:	90 81       	ld	r25, Z
    12a4:	9f 3f       	cpi	r25, 0xFF	; 255
    12a6:	09 f0       	breq	.+2      	; 0x12aa <check_Communication_Input_UART_2+0x3c>
    12a8:	3d c0       	rjmp	.+122    	; 0x1324 <check_Communication_Input_UART_2+0xb6>
			{
				cntr_End_UART_2++;
    12aa:	10 93 2f 06 	sts	0x062F, r17	; 0x80062f <cntr_End_UART_2>
			}
			if (cntr_End_UART_2==1 && (INPUT_UART_2[cntr_UART_2-1] != 0xFF))
			{
				cntr_End_UART_2=0;
			}
			if (cntr_End_UART_2==2 && (INPUT_UART_2[cntr_UART_2-1] == 0xFF) && (INPUT_UART_2[cntr_UART_2-2] == 0xFF))
    12ae:	20 91 30 06 	lds	r18, 0x0630	; 0x800630 <cntr_UART_2>
    12b2:	30 e0       	ldi	r19, 0x00	; 0
    12b4:	f9 01       	movw	r30, r18
    12b6:	ec 55       	subi	r30, 0x5C	; 92
    12b8:	fb 4e       	sbci	r31, 0xEB	; 235
    12ba:	90 81       	ld	r25, Z
    12bc:	9f 3f       	cpi	r25, 0xFF	; 255
    12be:	39 f4       	brne	.+14     	; 0x12ce <check_Communication_Input_UART_2+0x60>
    12c0:	f9 01       	movw	r30, r18
    12c2:	ed 55       	subi	r30, 0x5D	; 93
    12c4:	fb 4e       	sbci	r31, 0xEB	; 235
    12c6:	90 81       	ld	r25, Z
    12c8:	9f 3f       	cpi	r25, 0xFF	; 255
    12ca:	a1 f5       	brne	.+104    	; 0x1334 <check_Communication_Input_UART_2+0xc6>
    12cc:	07 c0       	rjmp	.+14     	; 0x12dc <check_Communication_Input_UART_2+0x6e>
			{
				cntr_End_UART_2++;
			}
			if (cntr_End_UART_2==2 && ((INPUT_UART_2[cntr_UART_2-1] != 0xFF) || (INPUT_UART_2[cntr_UART_2-2] != 0xFF)))
			{
				cntr_End_UART_2 = 0;
    12ce:	c0 93 2f 06 	sts	0x062F, r28	; 0x80062f <cntr_End_UART_2>
    12d2:	16 c0       	rjmp	.+44     	; 0x1300 <check_Communication_Input_UART_2+0x92>
			}
		}
		if (cntr_End_UART_2 == 3)
    12d4:	90 91 2f 06 	lds	r25, 0x062F	; 0x80062f <cntr_End_UART_2>
    12d8:	93 30       	cpi	r25, 0x03	; 3
    12da:	91 f4       	brne	.+36     	; 0x1300 <check_Communication_Input_UART_2+0x92>
		{
			INPUT_UART_2[cntr_UART_2] = 0;
    12dc:	e0 91 30 06 	lds	r30, 0x0630	; 0x800630 <cntr_UART_2>
    12e0:	f0 e0       	ldi	r31, 0x00	; 0
    12e2:	eb 55       	subi	r30, 0x5B	; 91
    12e4:	fb 4e       	sbci	r31, 0xEB	; 235
    12e6:	10 82       	st	Z, r1
			INPUT_UART_2[cntr_UART_2-1]=0;
    12e8:	df 01       	movw	r26, r30
    12ea:	11 97       	sbiw	r26, 0x01	; 1
    12ec:	1c 92       	st	X, r1
			INPUT_UART_2[cntr_UART_2-2]=0;
    12ee:	32 97       	sbiw	r30, 0x02	; 2
    12f0:	10 82       	st	Z, r1
			cntr_UART_2 = 0;
    12f2:	c0 93 30 06 	sts	0x0630, r28	; 0x800630 <cntr_UART_2>
			cntr_End_UART_2 = 0;
    12f6:	c0 93 2f 06 	sts	0x062F, r28	; 0x80062f <cntr_End_UART_2>
			ret = 1;
			toggle_LED();
    12fa:	d8 de       	rcall	.-592    	; 0x10ac <toggle_LED>
			INPUT_UART_2[cntr_UART_2] = 0;
			INPUT_UART_2[cntr_UART_2-1]=0;
			INPUT_UART_2[cntr_UART_2-2]=0;
			cntr_UART_2 = 0;
			cntr_End_UART_2 = 0;
			ret = 1;
    12fc:	0d 2f       	mov	r16, r29
    12fe:	0c c0       	rjmp	.+24     	; 0x1318 <check_Communication_Input_UART_2+0xaa>
			toggle_LED();
		}
		else
		{
			INPUT_UART_2[cntr_UART_2]=ch;
    1300:	90 91 30 06 	lds	r25, 0x0630	; 0x800630 <cntr_UART_2>
    1304:	e9 2f       	mov	r30, r25
    1306:	f0 e0       	ldi	r31, 0x00	; 0
    1308:	eb 55       	subi	r30, 0x5B	; 91
    130a:	fb 4e       	sbci	r31, 0xEB	; 235
    130c:	80 83       	st	Z, r24
			cntr_UART_2++;
    130e:	9f 5f       	subi	r25, 0xFF	; 255
    1310:	90 93 30 06 	sts	0x0630, r25	; 0x800630 <cntr_UART_2>
			ret = 0;
			toggle_LED();
    1314:	cb de       	rcall	.-618    	; 0x10ac <toggle_LED>
}

char check_Communication_Input_UART_2(void)
{
	char ret = 0;
	while(RB_length(&rb_rx_ESP)>0)					// UART_2
    1316:	0c 2f       	mov	r16, r28
    1318:	89 e6       	ldi	r24, 0x69	; 105
    131a:	98 e0       	ldi	r25, 0x08	; 8
    131c:	b6 d0       	rcall	.+364    	; 0x148a <RB_length>
    131e:	81 11       	cpse	r24, r1
    1320:	af cf       	rjmp	.-162    	; 0x1280 <check_Communication_Input_UART_2+0x12>
    1322:	11 c0       	rjmp	.+34     	; 0x1346 <check_Communication_Input_UART_2+0xd8>
			{
				cntr_End_UART_2++;
			}
			if (cntr_End_UART_2==1 && (INPUT_UART_2[cntr_UART_2-1] != 0xFF))
			{
				cntr_End_UART_2=0;
    1324:	c0 93 2f 06 	sts	0x062F, r28	; 0x80062f <cntr_End_UART_2>
    1328:	d5 cf       	rjmp	.-86     	; 0x12d4 <check_Communication_Input_UART_2+0x66>
			}
			if (cntr_End_UART_2==2 && (INPUT_UART_2[cntr_UART_2-1] == 0xFF) && (INPUT_UART_2[cntr_UART_2-2] == 0xFF))
    132a:	90 91 2f 06 	lds	r25, 0x062F	; 0x80062f <cntr_End_UART_2>
    132e:	92 30       	cpi	r25, 0x02	; 2
    1330:	89 f6       	brne	.-94     	; 0x12d4 <check_Communication_Input_UART_2+0x66>
    1332:	bd cf       	rjmp	.-134    	; 0x12ae <check_Communication_Input_UART_2+0x40>
			{
				cntr_End_UART_2++;
			}
			if (cntr_End_UART_2==2 && ((INPUT_UART_2[cntr_UART_2-1] != 0xFF) || (INPUT_UART_2[cntr_UART_2-2] != 0xFF)))
    1334:	e0 91 30 06 	lds	r30, 0x0630	; 0x800630 <cntr_UART_2>
    1338:	f0 e0       	ldi	r31, 0x00	; 0
    133a:	ed 55       	subi	r30, 0x5D	; 93
    133c:	fb 4e       	sbci	r31, 0xEB	; 235
    133e:	90 81       	ld	r25, Z
    1340:	9f 3f       	cpi	r25, 0xFF	; 255
    1342:	29 f6       	brne	.-118    	; 0x12ce <check_Communication_Input_UART_2+0x60>
    1344:	dd cf       	rjmp	.-70     	; 0x1300 <check_Communication_Input_UART_2+0x92>
			ret = 0;
			toggle_LED();
		}
	}
	return ret;
}
    1346:	80 2f       	mov	r24, r16
    1348:	df 91       	pop	r29
    134a:	cf 91       	pop	r28
    134c:	1f 91       	pop	r17
    134e:	0f 91       	pop	r16
    1350:	08 95       	ret

00001352 <proceed_Communication_Input_UART_2>:

void proceed_Communication_Input_UART_2(void)
{
	Uart_Transmit_IT_PC("Proceed UART 2: ");
    1352:	83 ec       	ldi	r24, 0xC3	; 195
    1354:	94 e0       	ldi	r25, 0x04	; 4
    1356:	0e 94 96 12 	call	0x252c	; 0x252c <Uart_Transmit_IT_PC>
	Uart_Transmit_IT_PC((char *)INPUT_UART_2);
    135a:	85 ea       	ldi	r24, 0xA5	; 165
    135c:	94 e1       	ldi	r25, 0x14	; 20
    135e:	0e 94 96 12 	call	0x252c	; 0x252c <Uart_Transmit_IT_PC>
	Uart_Transmit_IT_PC("\r\n");
    1362:	88 e5       	ldi	r24, 0x58	; 88
    1364:	94 e0       	ldi	r25, 0x04	; 4
    1366:	0e 94 96 12 	call	0x252c	; 0x252c <Uart_Transmit_IT_PC>
	
	cocktail_check_command(4,1);
    136a:	61 e0       	ldi	r22, 0x01	; 1
    136c:	84 e0       	ldi	r24, 0x04	; 4
    136e:	fb c9       	rjmp	.-3082   	; 0x766 <cocktail_check_command>
    1370:	08 95       	ret

00001372 <check_Communication_Input_UART>:
// 	cocktail_check_command(INPUT_UART_3[0],INPUT_UART_3[1]);
// }

void check_Communication_Input_UART(void)
{
	if (check_Communication_Input_UART_0())				// Check UART_0 (USB), ob vollständige Übertragung stattgefunden hat (Ende = "\r")
    1372:	ac de       	rcall	.-680    	; 0x10cc <check_Communication_Input_UART_0>
    1374:	81 11       	cpse	r24, r1
	{
		proceed_Communication_Input_UART_0();				// Vollständige Übertragung des USB verarbeiten
    1376:	d9 de       	rcall	.-590    	; 0x112a <proceed_Communication_Input_UART_0>
	}
	if (check_Communication_Input_UART_1())				// Check UART_1 (Nextion-Display), ob vollständige Übertragung stattgefunden hat (Ende = "0xFF 0xFF 0xFF")
    1378:	f6 de       	rcall	.-532    	; 0x1166 <check_Communication_Input_UART_1>
	{
		proceed_Communication_INPUT_UART_1();				// Vollständige Übertragung des Displays verarbeiten
    137a:	81 11       	cpse	r24, r1
	}
	if (check_Communication_Input_UART_2())				// Check UART_2 (ESP), ob vollständige Übertragung stattgefunden hat (Ende = "0xFF 0xFF 0xFF")
    137c:	66 df       	rcall	.-308    	; 0x124a <proceed_Communication_INPUT_UART_1>
    137e:	77 df       	rcall	.-274    	; 0x126e <check_Communication_Input_UART_2>
    1380:	81 11       	cpse	r24, r1
	{
		proceed_Communication_Input_UART_2();				// Vollständige Übertragung des ESP's verarbeiten
    1382:	e7 cf       	rjmp	.-50     	; 0x1352 <proceed_Communication_Input_UART_2>
    1384:	08 95       	ret

00001386 <endConversation>:
    1386:	cf 93       	push	r28
		Uart_Transmit_IT_PC(object);
		Uart_Transmit_IT_PC(val);
		Uart_Transmit_IT_PC(value);
	}
	endConversation();
}
    1388:	df 93       	push	r29
    138a:	00 d0       	rcall	.+0      	; 0x138c <endConversation+0x6>
    138c:	1f 92       	push	r1
    138e:	cd b7       	in	r28, 0x3d	; 61
    1390:	de b7       	in	r29, 0x3e	; 62
    1392:	8f ef       	ldi	r24, 0xFF	; 255
    1394:	89 83       	std	Y+1, r24	; 0x01
    1396:	8a 83       	std	Y+2, r24	; 0x02
    1398:	8b 83       	std	Y+3, r24	; 0x03
    139a:	1c 82       	std	Y+4, r1	; 0x04
    139c:	ce 01       	movw	r24, r28
    139e:	01 96       	adiw	r24, 0x01	; 1
    13a0:	0e 94 a9 12 	call	0x2552	; 0x2552 <Uart_Transmit_IT_Display>
    13a4:	0f 90       	pop	r0
    13a6:	0f 90       	pop	r0
    13a8:	0f 90       	pop	r0
    13aa:	0f 90       	pop	r0
    13ac:	df 91       	pop	r29
    13ae:	cf 91       	pop	r28
    13b0:	08 95       	ret

000013b2 <nextion_change_page>:
    13b2:	cf 93       	push	r28
    13b4:	df 93       	push	r29
    13b6:	00 d0       	rcall	.+0      	; 0x13b8 <nextion_change_page+0x6>
    13b8:	cd b7       	in	r28, 0x3d	; 61
    13ba:	de b7       	in	r29, 0x3e	; 62
    13bc:	19 82       	std	Y+1, r1	; 0x01
    13be:	1a 82       	std	Y+2, r1	; 0x02
    13c0:	1b 82       	std	Y+3, r1	; 0x03
    13c2:	90 e0       	ldi	r25, 0x00	; 0
    13c4:	4a e0       	ldi	r20, 0x0A	; 10
    13c6:	be 01       	movw	r22, r28
    13c8:	6f 5f       	subi	r22, 0xFF	; 255
    13ca:	7f 4f       	sbci	r23, 0xFF	; 255
    13cc:	01 97       	sbiw	r24, 0x01	; 1
    13ce:	0e 94 07 16 	call	0x2c0e	; 0x2c0e <__itoa_ncheck>
    13d2:	84 ed       	ldi	r24, 0xD4	; 212
    13d4:	94 e0       	ldi	r25, 0x04	; 4
    13d6:	0e 94 a9 12 	call	0x2552	; 0x2552 <Uart_Transmit_IT_Display>
    13da:	ce 01       	movw	r24, r28
    13dc:	01 96       	adiw	r24, 0x01	; 1
    13de:	0e 94 a9 12 	call	0x2552	; 0x2552 <Uart_Transmit_IT_Display>
    13e2:	d1 df       	rcall	.-94     	; 0x1386 <endConversation>
    13e4:	0f 90       	pop	r0
    13e6:	0f 90       	pop	r0
    13e8:	0f 90       	pop	r0
    13ea:	df 91       	pop	r29
    13ec:	cf 91       	pop	r28
    13ee:	08 95       	ret

000013f0 <nextion_setText>:
    13f0:	cf 93       	push	r28
    13f2:	df 93       	push	r29
    13f4:	eb 01       	movw	r28, r22
    13f6:	0e 94 a9 12 	call	0x2552	; 0x2552 <Uart_Transmit_IT_Display>
    13fa:	8a ed       	ldi	r24, 0xDA	; 218
    13fc:	94 e0       	ldi	r25, 0x04	; 4
    13fe:	0e 94 a9 12 	call	0x2552	; 0x2552 <Uart_Transmit_IT_Display>
    1402:	80 ee       	ldi	r24, 0xE0	; 224
    1404:	94 e0       	ldi	r25, 0x04	; 4
    1406:	0e 94 a9 12 	call	0x2552	; 0x2552 <Uart_Transmit_IT_Display>
    140a:	ce 01       	movw	r24, r28
    140c:	0e 94 a9 12 	call	0x2552	; 0x2552 <Uart_Transmit_IT_Display>
    1410:	80 ee       	ldi	r24, 0xE0	; 224
    1412:	94 e0       	ldi	r25, 0x04	; 4
    1414:	0e 94 a9 12 	call	0x2552	; 0x2552 <Uart_Transmit_IT_Display>
    1418:	b6 df       	rcall	.-148    	; 0x1386 <endConversation>
    141a:	df 91       	pop	r29
    141c:	cf 91       	pop	r28
    141e:	08 95       	ret

00001420 <nextion_setPicture>:

void nextion_setPicture( char * x,  char * y,  char * picture)
{
    1420:	ef 92       	push	r14
    1422:	ff 92       	push	r15
    1424:	0f 93       	push	r16
    1426:	1f 93       	push	r17
    1428:	cf 93       	push	r28
    142a:	df 93       	push	r29
    142c:	7c 01       	movw	r14, r24
    142e:	8b 01       	movw	r16, r22
    1430:	ea 01       	movw	r28, r20
	 char * pic = "pic ";
	 char * komma = ",";
	Uart_Transmit_IT_Display(pic);
    1432:	87 ee       	ldi	r24, 0xE7	; 231
    1434:	94 e0       	ldi	r25, 0x04	; 4
    1436:	0e 94 a9 12 	call	0x2552	; 0x2552 <Uart_Transmit_IT_Display>
	Uart_Transmit_IT_Display(x);
    143a:	c7 01       	movw	r24, r14
    143c:	0e 94 a9 12 	call	0x2552	; 0x2552 <Uart_Transmit_IT_Display>
	Uart_Transmit_IT_Display(komma);
    1440:	8c ee       	ldi	r24, 0xEC	; 236
    1442:	94 e0       	ldi	r25, 0x04	; 4
    1444:	0e 94 a9 12 	call	0x2552	; 0x2552 <Uart_Transmit_IT_Display>
	Uart_Transmit_IT_Display(y);
    1448:	c8 01       	movw	r24, r16
    144a:	0e 94 a9 12 	call	0x2552	; 0x2552 <Uart_Transmit_IT_Display>
	Uart_Transmit_IT_Display(komma);
    144e:	8c ee       	ldi	r24, 0xEC	; 236
    1450:	94 e0       	ldi	r25, 0x04	; 4
    1452:	0e 94 a9 12 	call	0x2552	; 0x2552 <Uart_Transmit_IT_Display>
	Uart_Transmit_IT_Display(picture);
    1456:	ce 01       	movw	r24, r28
    1458:	0e 94 a9 12 	call	0x2552	; 0x2552 <Uart_Transmit_IT_Display>
		Uart_Transmit_IT_PC((char *)komma);
		Uart_Transmit_IT_PC((char *)y);
		Uart_Transmit_IT_PC((char *)komma);
		Uart_Transmit_IT_PC((char *)picture);
	}
		endConversation();
    145c:	94 df       	rcall	.-216    	; 0x1386 <endConversation>
}
    145e:	df 91       	pop	r29
    1460:	cf 91       	pop	r28
    1462:	1f 91       	pop	r17
    1464:	0f 91       	pop	r16
    1466:	ff 90       	pop	r15
    1468:	ef 90       	pop	r14
    146a:	08 95       	ret

0000146c <RB_init>:
		}
	}
	rb->tail = tail;
	
	return 1;
}
    146c:	fc 01       	movw	r30, r24
    146e:	11 82       	std	Z+1, r1	; 0x01
    1470:	10 82       	st	Z, r1
    1472:	08 95       	ret

00001474 <RB_free>:
    1474:	fc 01       	movw	r30, r24
    1476:	90 81       	ld	r25, Z
    1478:	81 81       	ldd	r24, Z+1	; 0x01
    147a:	98 17       	cp	r25, r24
    147c:	20 f0       	brcs	.+8      	; 0x1486 <RB_free+0x12>
    147e:	98 1b       	sub	r25, r24
    1480:	89 2f       	mov	r24, r25
    1482:	80 95       	com	r24
    1484:	08 95       	ret
    1486:	89 1b       	sub	r24, r25
    1488:	08 95       	ret

0000148a <RB_length>:
    148a:	fc 01       	movw	r30, r24
    148c:	20 81       	ld	r18, Z
    148e:	91 81       	ldd	r25, Z+1	; 0x01
    1490:	29 17       	cp	r18, r25
    1492:	18 f0       	brcs	.+6      	; 0x149a <RB_length+0x10>
    1494:	82 2f       	mov	r24, r18
    1496:	89 1b       	sub	r24, r25
    1498:	08 95       	ret
    149a:	89 2f       	mov	r24, r25
    149c:	82 1b       	sub	r24, r18
    149e:	80 95       	com	r24
    14a0:	08 95       	ret

000014a2 <RB_readByte>:
    14a2:	cf 93       	push	r28
    14a4:	df 93       	push	r29
    14a6:	ec 01       	movw	r28, r24
    14a8:	f0 df       	rcall	.-32     	; 0x148a <RB_length>
    14aa:	88 23       	and	r24, r24
    14ac:	59 f0       	breq	.+22     	; 0x14c4 <RB_readByte+0x22>
    14ae:	89 81       	ldd	r24, Y+1	; 0x01
    14b0:	91 e0       	ldi	r25, 0x01	; 1
    14b2:	98 0f       	add	r25, r24
    14b4:	fe 01       	movw	r30, r28
    14b6:	e8 0f       	add	r30, r24
    14b8:	f1 1d       	adc	r31, r1
    14ba:	82 81       	ldd	r24, Z+2	; 0x02
    14bc:	9f 3f       	cpi	r25, 0xFF	; 255
    14be:	09 f4       	brne	.+2      	; 0x14c2 <RB_readByte+0x20>
    14c0:	90 e0       	ldi	r25, 0x00	; 0
    14c2:	99 83       	std	Y+1, r25	; 0x01
    14c4:	df 91       	pop	r29
    14c6:	cf 91       	pop	r28
    14c8:	08 95       	ret

000014ca <RB_writeByte>:
    14ca:	0f 93       	push	r16
    14cc:	1f 93       	push	r17
    14ce:	cf 93       	push	r28
    14d0:	df 93       	push	r29
    14d2:	ec 01       	movw	r28, r24
    14d4:	16 2f       	mov	r17, r22
    14d6:	08 81       	ld	r16, Y
    14d8:	cd df       	rcall	.-102    	; 0x1474 <RB_free>
    14da:	88 23       	and	r24, r24
    14dc:	f1 f3       	breq	.-4      	; 0x14da <RB_writeByte+0x10>
    14de:	11 11       	cpse	r17, r1
    14e0:	01 c0       	rjmp	.+2      	; 0x14e4 <RB_writeByte+0x1a>
    14e2:	1f ef       	ldi	r17, 0xFF	; 255
    14e4:	81 e0       	ldi	r24, 0x01	; 1
    14e6:	80 0f       	add	r24, r16
    14e8:	fe 01       	movw	r30, r28
    14ea:	e0 0f       	add	r30, r16
    14ec:	f1 1d       	adc	r31, r1
    14ee:	12 83       	std	Z+2, r17	; 0x02
    14f0:	8f 3f       	cpi	r24, 0xFF	; 255
    14f2:	09 f4       	brne	.+2      	; 0x14f6 <RB_writeByte+0x2c>
    14f4:	80 e0       	ldi	r24, 0x00	; 0
    14f6:	88 83       	st	Y, r24
    14f8:	81 e0       	ldi	r24, 0x01	; 1
    14fa:	df 91       	pop	r29
    14fc:	cf 91       	pop	r28
    14fe:	1f 91       	pop	r17
    1500:	0f 91       	pop	r16
    1502:	08 95       	ret

00001504 <RB_write>:

unsigned char RB_write( ring_buffer_t *rb, char *data, unsigned char datal )
{
    1504:	ff 92       	push	r15
    1506:	0f 93       	push	r16
    1508:	1f 93       	push	r17
    150a:	cf 93       	push	r28
    150c:	df 93       	push	r29
	unsigned char head;
	
	head = rb->head;
	
	if (datal == 0)
    150e:	44 23       	and	r20, r20
    1510:	d9 f0       	breq	.+54     	; 0x1548 <RB_write+0x44>
    1512:	c4 2f       	mov	r28, r20
    1514:	d7 2f       	mov	r29, r23
    1516:	f6 2e       	mov	r15, r22
    1518:	8c 01       	movw	r16, r24
	{
		return  0;
	}
	
	while(RB_free(rb) < datal);
    151a:	ac df       	rcall	.-168    	; 0x1474 <RB_free>
    151c:	8c 17       	cp	r24, r28
    151e:	f0 f3       	brcs	.-4      	; 0x151c <RB_write+0x18>
    1520:	15 c0       	rjmp	.+42     	; 0x154c <RB_write+0x48>
	
	while(datal--)
	{
		rb->data[head++] = *data++;
    1522:	21 e0       	ldi	r18, 0x01	; 1
    1524:	29 0f       	add	r18, r25
    1526:	31 91       	ld	r19, Z+
    1528:	d8 01       	movw	r26, r16
    152a:	a9 0f       	add	r26, r25
    152c:	b1 1d       	adc	r27, r1
    152e:	12 96       	adiw	r26, 0x02	; 2
    1530:	3c 93       	st	X, r19
		if (head >= RING_BUFFER_SIZE)
    1532:	2f 3f       	cpi	r18, 0xFF	; 255
    1534:	11 f4       	brne	.+4      	; 0x153a <RB_write+0x36>
		{
			head = 0;
    1536:	98 2f       	mov	r25, r24
    1538:	01 c0       	rjmp	.+2      	; 0x153c <RB_write+0x38>
	
	while(RB_free(rb) < datal);
	
	while(datal--)
	{
		rb->data[head++] = *data++;
    153a:	92 2f       	mov	r25, r18
		return  0;
	}
	
	while(RB_free(rb) < datal);
	
	while(datal--)
    153c:	41 50       	subi	r20, 0x01	; 1
    153e:	88 f7       	brcc	.-30     	; 0x1522 <RB_write+0x1e>
		{
			head = 0;
		}
	}
	
	rb->head = head;
    1540:	f8 01       	movw	r30, r16
    1542:	90 83       	st	Z, r25
	
	return 1;
    1544:	81 e0       	ldi	r24, 0x01	; 1
    1546:	0a c0       	rjmp	.+20     	; 0x155c <RB_write+0x58>
	
	head = rb->head;
	
	if (datal == 0)
	{
		return  0;
    1548:	80 e0       	ldi	r24, 0x00	; 0
    154a:	08 c0       	rjmp	.+16     	; 0x155c <RB_write+0x58>

unsigned char RB_write( ring_buffer_t *rb, char *data, unsigned char datal )
{
	unsigned char head;
	
	head = rb->head;
    154c:	f8 01       	movw	r30, r16
    154e:	90 81       	ld	r25, Z
		return  0;
	}
	
	while(RB_free(rb) < datal);
	
	while(datal--)
    1550:	4f ef       	ldi	r20, 0xFF	; 255
    1552:	4c 0f       	add	r20, r28
    1554:	ef 2d       	mov	r30, r15
    1556:	fd 2f       	mov	r31, r29
	{
		rb->data[head++] = *data++;
		if (head >= RING_BUFFER_SIZE)
		{
			head = 0;
    1558:	80 e0       	ldi	r24, 0x00	; 0
    155a:	e3 cf       	rjmp	.-58     	; 0x1522 <RB_write+0x1e>
	}
	
	rb->head = head;
	
	return 1;
}
    155c:	df 91       	pop	r29
    155e:	cf 91       	pop	r28
    1560:	1f 91       	pop	r17
    1562:	0f 91       	pop	r16
    1564:	ff 90       	pop	r15
    1566:	08 95       	ret

00001568 <getFirstSector>:
freeMemory *= bytesPerSector ;
TX_NEWLINE;
Uart_Transmit_IT_PC((char*)(" Free Memory: "));
displayMemory (HIGH, freeMemory);
TX_NEWLINE; 
}
    1568:	cf 92       	push	r12
    156a:	df 92       	push	r13
    156c:	ef 92       	push	r14
    156e:	ff 92       	push	r15
    1570:	a0 91 72 0c 	lds	r26, 0x0C72	; 0x800c72 <sectorPerCluster>
    1574:	b0 91 73 0c 	lds	r27, 0x0C73	; 0x800c73 <sectorPerCluster+0x1>
    1578:	c0 90 50 08 	lds	r12, 0x0850	; 0x800850 <firstDataSector>
    157c:	d0 90 51 08 	lds	r13, 0x0851	; 0x800851 <firstDataSector+0x1>
    1580:	e0 90 52 08 	lds	r14, 0x0852	; 0x800852 <firstDataSector+0x2>
    1584:	f0 90 53 08 	lds	r15, 0x0853	; 0x800853 <firstDataSector+0x3>
    1588:	9b 01       	movw	r18, r22
    158a:	ac 01       	movw	r20, r24
    158c:	22 50       	subi	r18, 0x02	; 2
    158e:	31 09       	sbc	r19, r1
    1590:	41 09       	sbc	r20, r1
    1592:	51 09       	sbc	r21, r1
    1594:	0e 94 62 14 	call	0x28c4	; 0x28c4 <__muluhisi3>
    1598:	6c 0d       	add	r22, r12
    159a:	7d 1d       	adc	r23, r13
    159c:	8e 1d       	adc	r24, r14
    159e:	9f 1d       	adc	r25, r15
    15a0:	ff 90       	pop	r15
    15a2:	ef 90       	pop	r14
    15a4:	df 90       	pop	r13
    15a6:	cf 90       	pop	r12
    15a8:	08 95       	ret

000015aa <getSetNextCluster>:
    15aa:	4f 92       	push	r4
    15ac:	5f 92       	push	r5
    15ae:	6f 92       	push	r6
    15b0:	7f 92       	push	r7
    15b2:	8f 92       	push	r8
    15b4:	9f 92       	push	r9
    15b6:	af 92       	push	r10
    15b8:	bf 92       	push	r11
    15ba:	cf 92       	push	r12
    15bc:	df 92       	push	r13
    15be:	ef 92       	push	r14
    15c0:	ff 92       	push	r15
    15c2:	0f 93       	push	r16
    15c4:	1f 93       	push	r17
    15c6:	cf 93       	push	r28
    15c8:	df 93       	push	r29
    15ca:	d4 2f       	mov	r29, r20
    15cc:	28 01       	movw	r4, r16
    15ce:	39 01       	movw	r6, r18
    15d0:	40 91 81 0e 	lds	r20, 0x0E81	; 0x800e81 <reservedSectorCount>
    15d4:	50 91 82 0e 	lds	r21, 0x0E82	; 0x800e82 <reservedSectorCount+0x1>
    15d8:	4b 01       	movw	r8, r22
    15da:	5c 01       	movw	r10, r24
    15dc:	88 0c       	add	r8, r8
    15de:	99 1c       	adc	r9, r9
    15e0:	aa 1c       	adc	r10, r10
    15e2:	bb 1c       	adc	r11, r11
    15e4:	88 0c       	add	r8, r8
    15e6:	99 1c       	adc	r9, r9
    15e8:	aa 1c       	adc	r10, r10
    15ea:	bb 1c       	adc	r11, r11
    15ec:	20 91 58 08 	lds	r18, 0x0858	; 0x800858 <bytesPerSector>
    15f0:	30 91 59 08 	lds	r19, 0x0859	; 0x800859 <bytesPerSector+0x1>
    15f4:	c0 90 75 0c 	lds	r12, 0x0C75	; 0x800c75 <unusedSectors>
    15f8:	d0 90 76 0c 	lds	r13, 0x0C76	; 0x800c76 <unusedSectors+0x1>
    15fc:	e0 90 77 0c 	lds	r14, 0x0C77	; 0x800c77 <unusedSectors+0x2>
    1600:	f0 90 78 0c 	lds	r15, 0x0C78	; 0x800c78 <unusedSectors+0x3>
    1604:	c4 0e       	add	r12, r20
    1606:	d5 1e       	adc	r13, r21
    1608:	e1 1c       	adc	r14, r1
    160a:	f1 1c       	adc	r15, r1
    160c:	40 e0       	ldi	r20, 0x00	; 0
    160e:	50 e0       	ldi	r21, 0x00	; 0
    1610:	c5 01       	movw	r24, r10
    1612:	b4 01       	movw	r22, r8
    1614:	0e 94 29 14 	call	0x2852	; 0x2852 <__udivmodsi4>
    1618:	c2 0e       	add	r12, r18
    161a:	d3 1e       	adc	r13, r19
    161c:	e4 1e       	adc	r14, r20
    161e:	f5 1e       	adc	r15, r21
    1620:	20 91 58 08 	lds	r18, 0x0858	; 0x800858 <bytesPerSector>
    1624:	30 91 59 08 	lds	r19, 0x0859	; 0x800859 <bytesPerSector+0x1>
    1628:	40 e0       	ldi	r20, 0x00	; 0
    162a:	50 e0       	ldi	r21, 0x00	; 0
    162c:	c5 01       	movw	r24, r10
    162e:	b4 01       	movw	r22, r8
    1630:	0e 94 29 14 	call	0x2852	; 0x2852 <__udivmodsi4>
    1634:	4b 01       	movw	r8, r22
    1636:	5c 01       	movw	r10, r24
    1638:	ca e0       	ldi	r28, 0x0A	; 10
    163a:	c7 01       	movw	r24, r14
    163c:	b6 01       	movw	r22, r12
    163e:	76 d6       	rcall	.+3308   	; 0x232c <SD_readSingleBlock>
    1640:	88 23       	and	r24, r24
    1642:	11 f0       	breq	.+4      	; 0x1648 <getSetNextCluster+0x9e>
    1644:	c1 50       	subi	r28, 0x01	; 1
    1646:	c9 f7       	brne	.-14     	; 0x163a <getSetNextCluster+0x90>
    1648:	f4 01       	movw	r30, r8
    164a:	ef 58       	subi	r30, 0x8F	; 143
    164c:	f5 4f       	sbci	r31, 0xF5	; 245
    164e:	d1 11       	cpse	r29, r1
    1650:	08 c0       	rjmp	.+16     	; 0x1662 <getSetNextCluster+0xb8>
    1652:	80 81       	ld	r24, Z
    1654:	91 81       	ldd	r25, Z+1	; 0x01
    1656:	a2 81       	ldd	r26, Z+2	; 0x02
    1658:	b3 81       	ldd	r27, Z+3	; 0x03
    165a:	bc 01       	movw	r22, r24
    165c:	cd 01       	movw	r24, r26
    165e:	9f 70       	andi	r25, 0x0F	; 15
    1660:	0a c0       	rjmp	.+20     	; 0x1676 <getSetNextCluster+0xcc>
    1662:	40 82       	st	Z, r4
    1664:	51 82       	std	Z+1, r5	; 0x01
    1666:	62 82       	std	Z+2, r6	; 0x02
    1668:	73 82       	std	Z+3, r7	; 0x03
    166a:	c7 01       	movw	r24, r14
    166c:	b6 01       	movw	r22, r12
    166e:	86 d6       	rcall	.+3340   	; 0x237c <SD_writeSingleBlock>
    1670:	60 e0       	ldi	r22, 0x00	; 0
    1672:	70 e0       	ldi	r23, 0x00	; 0
    1674:	cb 01       	movw	r24, r22
    1676:	df 91       	pop	r29
    1678:	cf 91       	pop	r28
    167a:	1f 91       	pop	r17
    167c:	0f 91       	pop	r16
    167e:	ff 90       	pop	r15
    1680:	ef 90       	pop	r14
    1682:	df 90       	pop	r13
    1684:	cf 90       	pop	r12
    1686:	bf 90       	pop	r11
    1688:	af 90       	pop	r10
    168a:	9f 90       	pop	r9
    168c:	8f 90       	pop	r8
    168e:	7f 90       	pop	r7
    1690:	6f 90       	pop	r6
    1692:	5f 90       	pop	r5
    1694:	4f 90       	pop	r4
    1696:	08 95       	ret

00001698 <getSetFreeCluster>:
    1698:	cf 92       	push	r12
    169a:	df 92       	push	r13
    169c:	ef 92       	push	r14
    169e:	ff 92       	push	r15
    16a0:	cf 93       	push	r28
    16a2:	df 93       	push	r29
    16a4:	d8 2f       	mov	r29, r24
    16a6:	c6 2f       	mov	r28, r22
    16a8:	69 01       	movw	r12, r18
    16aa:	7a 01       	movw	r14, r20
    16ac:	80 91 75 0c 	lds	r24, 0x0C75	; 0x800c75 <unusedSectors>
    16b0:	90 91 76 0c 	lds	r25, 0x0C76	; 0x800c76 <unusedSectors+0x1>
    16b4:	a0 91 77 0c 	lds	r26, 0x0C77	; 0x800c77 <unusedSectors+0x2>
    16b8:	b0 91 78 0c 	lds	r27, 0x0C78	; 0x800c78 <unusedSectors+0x3>
    16bc:	bc 01       	movw	r22, r24
    16be:	cd 01       	movw	r24, r26
    16c0:	6f 5f       	subi	r22, 0xFF	; 255
    16c2:	7f 4f       	sbci	r23, 0xFF	; 255
    16c4:	8f 4f       	sbci	r24, 0xFF	; 255
    16c6:	9f 4f       	sbci	r25, 0xFF	; 255
    16c8:	31 d6       	rcall	.+3170   	; 0x232c <SD_readSingleBlock>
    16ca:	80 91 71 0a 	lds	r24, 0x0A71	; 0x800a71 <buffer>
    16ce:	90 91 72 0a 	lds	r25, 0x0A72	; 0x800a72 <buffer+0x1>
    16d2:	a0 91 73 0a 	lds	r26, 0x0A73	; 0x800a73 <buffer+0x2>
    16d6:	b0 91 74 0a 	lds	r27, 0x0A74	; 0x800a74 <buffer+0x3>
    16da:	82 35       	cpi	r24, 0x52	; 82
    16dc:	92 45       	sbci	r25, 0x52	; 82
    16de:	a1 46       	sbci	r26, 0x61	; 97
    16e0:	b1 44       	sbci	r27, 0x41	; 65
    16e2:	09 f0       	breq	.+2      	; 0x16e6 <getSetFreeCluster+0x4e>
    16e4:	57 c0       	rjmp	.+174    	; 0x1794 <getSetFreeCluster+0xfc>
    16e6:	80 91 55 0c 	lds	r24, 0x0C55	; 0x800c55 <buffer+0x1e4>
    16ea:	90 91 56 0c 	lds	r25, 0x0C56	; 0x800c56 <buffer+0x1e5>
    16ee:	a0 91 57 0c 	lds	r26, 0x0C57	; 0x800c57 <buffer+0x1e6>
    16f2:	b0 91 58 0c 	lds	r27, 0x0C58	; 0x800c58 <buffer+0x1e7>
    16f6:	82 37       	cpi	r24, 0x72	; 114
    16f8:	92 47       	sbci	r25, 0x72	; 114
    16fa:	a1 44       	sbci	r26, 0x41	; 65
    16fc:	b1 46       	sbci	r27, 0x61	; 97
    16fe:	09 f0       	breq	.+2      	; 0x1702 <getSetFreeCluster+0x6a>
    1700:	4d c0       	rjmp	.+154    	; 0x179c <getSetFreeCluster+0x104>
    1702:	80 91 6d 0c 	lds	r24, 0x0C6D	; 0x800c6d <buffer+0x1fc>
    1706:	90 91 6e 0c 	lds	r25, 0x0C6E	; 0x800c6e <buffer+0x1fd>
    170a:	a0 91 6f 0c 	lds	r26, 0x0C6F	; 0x800c6f <buffer+0x1fe>
    170e:	b0 91 70 0c 	lds	r27, 0x0C70	; 0x800c70 <buffer+0x1ff>
    1712:	00 97       	sbiw	r24, 0x00	; 0
    1714:	a5 45       	sbci	r26, 0x55	; 85
    1716:	ba 4a       	sbci	r27, 0xAA	; 170
    1718:	09 f0       	breq	.+2      	; 0x171c <getSetFreeCluster+0x84>
    171a:	44 c0       	rjmp	.+136    	; 0x17a4 <getSetFreeCluster+0x10c>
    171c:	c1 11       	cpse	r28, r1
    171e:	14 c0       	rjmp	.+40     	; 0x1748 <getSetFreeCluster+0xb0>
    1720:	d1 30       	cpi	r29, 0x01	; 1
    1722:	49 f4       	brne	.+18     	; 0x1736 <getSetFreeCluster+0x9e>
    1724:	60 91 59 0c 	lds	r22, 0x0C59	; 0x800c59 <buffer+0x1e8>
    1728:	70 91 5a 0c 	lds	r23, 0x0C5A	; 0x800c5a <buffer+0x1e9>
    172c:	80 91 5b 0c 	lds	r24, 0x0C5B	; 0x800c5b <buffer+0x1ea>
    1730:	90 91 5c 0c 	lds	r25, 0x0C5C	; 0x800c5c <buffer+0x1eb>
    1734:	3a c0       	rjmp	.+116    	; 0x17aa <getSetFreeCluster+0x112>
    1736:	60 91 5d 0c 	lds	r22, 0x0C5D	; 0x800c5d <buffer+0x1ec>
    173a:	70 91 5e 0c 	lds	r23, 0x0C5E	; 0x800c5e <buffer+0x1ed>
    173e:	80 91 5f 0c 	lds	r24, 0x0C5F	; 0x800c5f <buffer+0x1ee>
    1742:	90 91 60 0c 	lds	r25, 0x0C60	; 0x800c60 <buffer+0x1ef>
    1746:	31 c0       	rjmp	.+98     	; 0x17aa <getSetFreeCluster+0x112>
    1748:	d1 30       	cpi	r29, 0x01	; 1
    174a:	49 f4       	brne	.+18     	; 0x175e <getSetFreeCluster+0xc6>
    174c:	c0 92 59 0c 	sts	0x0C59, r12	; 0x800c59 <buffer+0x1e8>
    1750:	d0 92 5a 0c 	sts	0x0C5A, r13	; 0x800c5a <buffer+0x1e9>
    1754:	e0 92 5b 0c 	sts	0x0C5B, r14	; 0x800c5b <buffer+0x1ea>
    1758:	f0 92 5c 0c 	sts	0x0C5C, r15	; 0x800c5c <buffer+0x1eb>
    175c:	08 c0       	rjmp	.+16     	; 0x176e <getSetFreeCluster+0xd6>
    175e:	c0 92 5d 0c 	sts	0x0C5D, r12	; 0x800c5d <buffer+0x1ec>
    1762:	d0 92 5e 0c 	sts	0x0C5E, r13	; 0x800c5e <buffer+0x1ed>
    1766:	e0 92 5f 0c 	sts	0x0C5F, r14	; 0x800c5f <buffer+0x1ee>
    176a:	f0 92 60 0c 	sts	0x0C60, r15	; 0x800c60 <buffer+0x1ef>
    176e:	80 91 75 0c 	lds	r24, 0x0C75	; 0x800c75 <unusedSectors>
    1772:	90 91 76 0c 	lds	r25, 0x0C76	; 0x800c76 <unusedSectors+0x1>
    1776:	a0 91 77 0c 	lds	r26, 0x0C77	; 0x800c77 <unusedSectors+0x2>
    177a:	b0 91 78 0c 	lds	r27, 0x0C78	; 0x800c78 <unusedSectors+0x3>
    177e:	bc 01       	movw	r22, r24
    1780:	cd 01       	movw	r24, r26
    1782:	6f 5f       	subi	r22, 0xFF	; 255
    1784:	7f 4f       	sbci	r23, 0xFF	; 255
    1786:	8f 4f       	sbci	r24, 0xFF	; 255
    1788:	9f 4f       	sbci	r25, 0xFF	; 255
    178a:	f8 d5       	rcall	.+3056   	; 0x237c <SD_writeSingleBlock>
    178c:	6f ef       	ldi	r22, 0xFF	; 255
    178e:	7f ef       	ldi	r23, 0xFF	; 255
    1790:	cb 01       	movw	r24, r22
    1792:	0b c0       	rjmp	.+22     	; 0x17aa <getSetFreeCluster+0x112>
    1794:	6f ef       	ldi	r22, 0xFF	; 255
    1796:	7f ef       	ldi	r23, 0xFF	; 255
    1798:	cb 01       	movw	r24, r22
    179a:	07 c0       	rjmp	.+14     	; 0x17aa <getSetFreeCluster+0x112>
    179c:	6f ef       	ldi	r22, 0xFF	; 255
    179e:	7f ef       	ldi	r23, 0xFF	; 255
    17a0:	cb 01       	movw	r24, r22
    17a2:	03 c0       	rjmp	.+6      	; 0x17aa <getSetFreeCluster+0x112>
    17a4:	6f ef       	ldi	r22, 0xFF	; 255
    17a6:	7f ef       	ldi	r23, 0xFF	; 255
    17a8:	cb 01       	movw	r24, r22
    17aa:	df 91       	pop	r29
    17ac:	cf 91       	pop	r28
    17ae:	ff 90       	pop	r15
    17b0:	ef 90       	pop	r14
    17b2:	df 90       	pop	r13
    17b4:	cf 90       	pop	r12
    17b6:	08 95       	ret

000017b8 <getBootSectorData>:
    17b8:	ef 92       	push	r14
    17ba:	ff 92       	push	r15
    17bc:	0f 93       	push	r16
    17be:	1f 93       	push	r17
    17c0:	cf 93       	push	r28
    17c2:	df 93       	push	r29
    17c4:	10 92 75 0c 	sts	0x0C75, r1	; 0x800c75 <unusedSectors>
    17c8:	10 92 76 0c 	sts	0x0C76, r1	; 0x800c76 <unusedSectors+0x1>
    17cc:	10 92 77 0c 	sts	0x0C77, r1	; 0x800c77 <unusedSectors+0x2>
    17d0:	10 92 78 0c 	sts	0x0C78, r1	; 0x800c78 <unusedSectors+0x3>
    17d4:	60 e0       	ldi	r22, 0x00	; 0
    17d6:	70 e0       	ldi	r23, 0x00	; 0
    17d8:	cb 01       	movw	r24, r22
    17da:	a8 d5       	rcall	.+2896   	; 0x232c <SD_readSingleBlock>
    17dc:	80 91 71 0a 	lds	r24, 0x0A71	; 0x800a71 <buffer>
    17e0:	8d 7f       	andi	r24, 0xFD	; 253
    17e2:	89 3e       	cpi	r24, 0xE9	; 233
    17e4:	f9 f0       	breq	.+62     	; 0x1824 <getBootSectorData+0x6c>
    17e6:	80 91 6f 0c 	lds	r24, 0x0C6F	; 0x800c6f <buffer+0x1fe>
    17ea:	90 91 70 0c 	lds	r25, 0x0C70	; 0x800c70 <buffer+0x1ff>
    17ee:	85 35       	cpi	r24, 0x55	; 85
    17f0:	9a 4a       	sbci	r25, 0xAA	; 170
    17f2:	09 f0       	breq	.+2      	; 0x17f6 <getBootSectorData+0x3e>
    17f4:	94 c0       	rjmp	.+296    	; 0x191e <getBootSectorData+0x166>
    17f6:	60 91 37 0c 	lds	r22, 0x0C37	; 0x800c37 <buffer+0x1c6>
    17fa:	70 91 38 0c 	lds	r23, 0x0C38	; 0x800c38 <buffer+0x1c7>
    17fe:	80 91 39 0c 	lds	r24, 0x0C39	; 0x800c39 <buffer+0x1c8>
    1802:	90 91 3a 0c 	lds	r25, 0x0C3A	; 0x800c3a <buffer+0x1c9>
    1806:	60 93 75 0c 	sts	0x0C75, r22	; 0x800c75 <unusedSectors>
    180a:	70 93 76 0c 	sts	0x0C76, r23	; 0x800c76 <unusedSectors+0x1>
    180e:	80 93 77 0c 	sts	0x0C77, r24	; 0x800c77 <unusedSectors+0x2>
    1812:	90 93 78 0c 	sts	0x0C78, r25	; 0x800c78 <unusedSectors+0x3>
    1816:	8a d5       	rcall	.+2836   	; 0x232c <SD_readSingleBlock>
    1818:	80 91 71 0a 	lds	r24, 0x0A71	; 0x800a71 <buffer>
    181c:	8d 7f       	andi	r24, 0xFD	; 253
    181e:	89 3e       	cpi	r24, 0xE9	; 233
    1820:	09 f0       	breq	.+2      	; 0x1824 <getBootSectorData+0x6c>
    1822:	7f c0       	rjmp	.+254    	; 0x1922 <getBootSectorData+0x16a>
    1824:	e1 e7       	ldi	r30, 0x71	; 113
    1826:	fa e0       	ldi	r31, 0x0A	; 10
    1828:	83 85       	ldd	r24, Z+11	; 0x0b
    182a:	94 85       	ldd	r25, Z+12	; 0x0c
    182c:	90 93 59 08 	sts	0x0859, r25	; 0x800859 <bytesPerSector+0x1>
    1830:	80 93 58 08 	sts	0x0858, r24	; 0x800858 <bytesPerSector>
    1834:	85 85       	ldd	r24, Z+13	; 0x0d
    1836:	90 e0       	ldi	r25, 0x00	; 0
    1838:	90 93 73 0c 	sts	0x0C73, r25	; 0x800c73 <sectorPerCluster+0x1>
    183c:	80 93 72 0c 	sts	0x0C72, r24	; 0x800c72 <sectorPerCluster>
    1840:	c6 85       	ldd	r28, Z+14	; 0x0e
    1842:	d7 85       	ldd	r29, Z+15	; 0x0f
    1844:	d0 93 82 0e 	sts	0x0E82, r29	; 0x800e82 <reservedSectorCount+0x1>
    1848:	c0 93 81 0e 	sts	0x0E81, r28	; 0x800e81 <reservedSectorCount>
    184c:	84 a5       	ldd	r24, Z+44	; 0x2c
    184e:	95 a5       	ldd	r25, Z+45	; 0x2d
    1850:	a6 a5       	ldd	r26, Z+46	; 0x2e
    1852:	b7 a5       	ldd	r27, Z+47	; 0x2f
    1854:	80 93 65 08 	sts	0x0865, r24	; 0x800865 <rootCluster>
    1858:	90 93 66 08 	sts	0x0866, r25	; 0x800866 <rootCluster+0x1>
    185c:	a0 93 67 08 	sts	0x0867, r26	; 0x800867 <rootCluster+0x2>
    1860:	b0 93 68 08 	sts	0x0868, r27	; 0x800868 <rootCluster+0x3>
    1864:	00 91 81 0e 	lds	r16, 0x0E81	; 0x800e81 <reservedSectorCount>
    1868:	10 91 82 0e 	lds	r17, 0x0E82	; 0x800e82 <reservedSectorCount+0x1>
    186c:	a0 89       	ldd	r26, Z+16	; 0x10
    186e:	24 a1       	ldd	r18, Z+36	; 0x24
    1870:	35 a1       	ldd	r19, Z+37	; 0x25
    1872:	46 a1       	ldd	r20, Z+38	; 0x26
    1874:	57 a1       	ldd	r21, Z+39	; 0x27
    1876:	b0 e0       	ldi	r27, 0x00	; 0
    1878:	0e 94 62 14 	call	0x28c4	; 0x28c4 <__muluhisi3>
    187c:	ab 01       	movw	r20, r22
    187e:	bc 01       	movw	r22, r24
    1880:	84 8d       	ldd	r24, Z+28	; 0x1c
    1882:	95 8d       	ldd	r25, Z+29	; 0x1d
    1884:	a6 8d       	ldd	r26, Z+30	; 0x1e
    1886:	b7 8d       	ldd	r27, Z+31	; 0x1f
    1888:	80 0f       	add	r24, r16
    188a:	91 1f       	adc	r25, r17
    188c:	a1 1d       	adc	r26, r1
    188e:	b1 1d       	adc	r27, r1
    1890:	84 0f       	add	r24, r20
    1892:	95 1f       	adc	r25, r21
    1894:	a6 1f       	adc	r26, r22
    1896:	b7 1f       	adc	r27, r23
    1898:	80 93 50 08 	sts	0x0850, r24	; 0x800850 <firstDataSector>
    189c:	90 93 51 08 	sts	0x0851, r25	; 0x800851 <firstDataSector+0x1>
    18a0:	a0 93 52 08 	sts	0x0852, r26	; 0x800852 <firstDataSector+0x2>
    18a4:	b0 93 53 08 	sts	0x0853, r27	; 0x800853 <firstDataSector+0x3>
    18a8:	20 91 72 0c 	lds	r18, 0x0C72	; 0x800c72 <sectorPerCluster>
    18ac:	30 91 73 0c 	lds	r19, 0x0C73	; 0x800c73 <sectorPerCluster+0x1>
    18b0:	80 a1       	ldd	r24, Z+32	; 0x20
    18b2:	91 a1       	ldd	r25, Z+33	; 0x21
    18b4:	a2 a1       	ldd	r26, Z+34	; 0x22
    18b6:	b3 a1       	ldd	r27, Z+35	; 0x23
    18b8:	8c 1b       	sub	r24, r28
    18ba:	9d 0b       	sbc	r25, r29
    18bc:	a1 09       	sbc	r26, r1
    18be:	b1 09       	sbc	r27, r1
    18c0:	7c 01       	movw	r14, r24
    18c2:	8d 01       	movw	r16, r26
    18c4:	e4 1a       	sub	r14, r20
    18c6:	f5 0a       	sbc	r15, r21
    18c8:	06 0b       	sbc	r16, r22
    18ca:	17 0b       	sbc	r17, r23
    18cc:	c8 01       	movw	r24, r16
    18ce:	b7 01       	movw	r22, r14
    18d0:	40 e0       	ldi	r20, 0x00	; 0
    18d2:	50 e0       	ldi	r21, 0x00	; 0
    18d4:	be d7       	rcall	.+3964   	; 0x2852 <__udivmodsi4>
    18d6:	20 93 5a 08 	sts	0x085A, r18	; 0x80085a <totalClusters>
    18da:	30 93 5b 08 	sts	0x085B, r19	; 0x80085b <totalClusters+0x1>
    18de:	40 93 5c 08 	sts	0x085C, r20	; 0x80085c <totalClusters+0x2>
    18e2:	50 93 5d 08 	sts	0x085D, r21	; 0x80085d <totalClusters+0x3>
    18e6:	20 e0       	ldi	r18, 0x00	; 0
    18e8:	30 e0       	ldi	r19, 0x00	; 0
    18ea:	a9 01       	movw	r20, r18
    18ec:	60 e0       	ldi	r22, 0x00	; 0
    18ee:	81 e0       	ldi	r24, 0x01	; 1
    18f0:	d3 de       	rcall	.-602    	; 0x1698 <getSetFreeCluster>
    18f2:	00 91 5a 08 	lds	r16, 0x085A	; 0x80085a <totalClusters>
    18f6:	10 91 5b 08 	lds	r17, 0x085B	; 0x80085b <totalClusters+0x1>
    18fa:	20 91 5c 08 	lds	r18, 0x085C	; 0x80085c <totalClusters+0x2>
    18fe:	30 91 5d 08 	lds	r19, 0x085D	; 0x80085d <totalClusters+0x3>
    1902:	06 17       	cp	r16, r22
    1904:	17 07       	cpc	r17, r23
    1906:	28 07       	cpc	r18, r24
    1908:	39 07       	cpc	r19, r25
    190a:	20 f4       	brcc	.+8      	; 0x1914 <getBootSectorData+0x15c>
    190c:	10 92 92 12 	sts	0x1292, r1	; 0x801292 <freeClusterCountUpdated>
    1910:	80 e0       	ldi	r24, 0x00	; 0
    1912:	08 c0       	rjmp	.+16     	; 0x1924 <getBootSectorData+0x16c>
    1914:	81 e0       	ldi	r24, 0x01	; 1
    1916:	80 93 92 12 	sts	0x1292, r24	; 0x801292 <freeClusterCountUpdated>
    191a:	80 e0       	ldi	r24, 0x00	; 0
    191c:	03 c0       	rjmp	.+6      	; 0x1924 <getBootSectorData+0x16c>
    191e:	81 e0       	ldi	r24, 0x01	; 1
    1920:	01 c0       	rjmp	.+2      	; 0x1924 <getBootSectorData+0x16c>
    1922:	81 e0       	ldi	r24, 0x01	; 1
    1924:	df 91       	pop	r29
    1926:	cf 91       	pop	r28
    1928:	1f 91       	pop	r17
    192a:	0f 91       	pop	r16
    192c:	ff 90       	pop	r15
    192e:	ef 90       	pop	r14
    1930:	08 95       	ret

00001932 <convertFileName>:
    1932:	cf 93       	push	r28
    1934:	df 93       	push	r29
    1936:	cd b7       	in	r28, 0x3d	; 61
    1938:	de b7       	in	r29, 0x3e	; 62
    193a:	2b 97       	sbiw	r28, 0x0b	; 11
    193c:	0f b6       	in	r0, 0x3f	; 63
    193e:	f8 94       	cli
    1940:	de bf       	out	0x3e, r29	; 62
    1942:	0f be       	out	0x3f, r0	; 63
    1944:	cd bf       	out	0x3d, r28	; 61
    1946:	bc 01       	movw	r22, r24
    1948:	dc 01       	movw	r26, r24
    194a:	8c 91       	ld	r24, X
    194c:	8e 32       	cpi	r24, 0x2E	; 46
    194e:	59 f1       	breq	.+86     	; 0x19a6 <convertFileName+0x74>
    1950:	fb 01       	movw	r30, r22
    1952:	31 96       	adiw	r30, 0x01	; 1
    1954:	91 e0       	ldi	r25, 0x01	; 1
    1956:	81 91       	ld	r24, Z+
    1958:	8e 32       	cpi	r24, 0x2E	; 46
    195a:	21 f0       	breq	.+8      	; 0x1964 <convertFileName+0x32>
    195c:	9f 5f       	subi	r25, 0xFF	; 255
    195e:	9c 30       	cpi	r25, 0x0C	; 12
    1960:	d1 f7       	brne	.-12     	; 0x1956 <convertFileName+0x24>
    1962:	06 c0       	rjmp	.+12     	; 0x1970 <convertFileName+0x3e>
    1964:	99 30       	cpi	r25, 0x09	; 9
    1966:	20 f4       	brcc	.+8      	; 0x1970 <convertFileName+0x3e>
    1968:	91 11       	cpse	r25, r1
    196a:	07 c0       	rjmp	.+14     	; 0x197a <convertFileName+0x48>
    196c:	29 2f       	mov	r18, r25
    196e:	1d c0       	rjmp	.+58     	; 0x19aa <convertFileName+0x78>
    1970:	8e ee       	ldi	r24, 0xEE	; 238
    1972:	94 e0       	ldi	r25, 0x04	; 4
    1974:	db d5       	rcall	.+2998   	; 0x252c <Uart_Transmit_IT_PC>
    1976:	81 e0       	ldi	r24, 0x01	; 1
    1978:	62 c0       	rjmp	.+196    	; 0x1a3e <convertFileName+0x10c>
    197a:	fb 01       	movw	r30, r22
    197c:	9e 01       	movw	r18, r28
    197e:	2f 5f       	subi	r18, 0xFF	; 255
    1980:	3f 4f       	sbci	r19, 0xFF	; 255
    1982:	4f ef       	ldi	r20, 0xFF	; 255
    1984:	49 0f       	add	r20, r25
    1986:	50 e0       	ldi	r21, 0x00	; 0
    1988:	4f 5f       	subi	r20, 0xFF	; 255
    198a:	5f 4f       	sbci	r21, 0xFF	; 255
    198c:	46 0f       	add	r20, r22
    198e:	57 1f       	adc	r21, r23
    1990:	81 91       	ld	r24, Z+
    1992:	d9 01       	movw	r26, r18
    1994:	8d 93       	st	X+, r24
    1996:	9d 01       	movw	r18, r26
    1998:	4e 17       	cp	r20, r30
    199a:	5f 07       	cpc	r21, r31
    199c:	c9 f7       	brne	.-14     	; 0x1990 <convertFileName+0x5e>
    199e:	98 30       	cpi	r25, 0x08	; 8
    19a0:	78 f4       	brcc	.+30     	; 0x19c0 <convertFileName+0x8e>
    19a2:	29 2f       	mov	r18, r25
    19a4:	02 c0       	rjmp	.+4      	; 0x19aa <convertFileName+0x78>
    19a6:	90 e0       	ldi	r25, 0x00	; 0
    19a8:	20 e0       	ldi	r18, 0x00	; 0
    19aa:	80 e2       	ldi	r24, 0x20	; 32
    19ac:	e1 e0       	ldi	r30, 0x01	; 1
    19ae:	f0 e0       	ldi	r31, 0x00	; 0
    19b0:	ec 0f       	add	r30, r28
    19b2:	fd 1f       	adc	r31, r29
    19b4:	e2 0f       	add	r30, r18
    19b6:	f1 1d       	adc	r31, r1
    19b8:	80 83       	st	Z, r24
    19ba:	2f 5f       	subi	r18, 0xFF	; 255
    19bc:	28 30       	cpi	r18, 0x08	; 8
    19be:	b0 f3       	brcs	.-20     	; 0x19ac <convertFileName+0x7a>
    19c0:	21 e0       	ldi	r18, 0x01	; 1
    19c2:	29 0f       	add	r18, r25
    19c4:	98 e0       	ldi	r25, 0x08	; 8
    19c6:	fb 01       	movw	r30, r22
    19c8:	e2 0f       	add	r30, r18
    19ca:	f1 1d       	adc	r31, r1
    19cc:	80 81       	ld	r24, Z
    19ce:	81 11       	cpse	r24, r1
    19d0:	03 c0       	rjmp	.+6      	; 0x19d8 <convertFileName+0xa6>
    19d2:	9b 30       	cpi	r25, 0x0B	; 11
    19d4:	50 f0       	brcs	.+20     	; 0x19ea <convertFileName+0xb8>
    19d6:	15 c0       	rjmp	.+42     	; 0x1a02 <convertFileName+0xd0>
    19d8:	2f 5f       	subi	r18, 0xFF	; 255
    19da:	e1 e0       	ldi	r30, 0x01	; 1
    19dc:	f0 e0       	ldi	r31, 0x00	; 0
    19de:	ec 0f       	add	r30, r28
    19e0:	fd 1f       	adc	r31, r29
    19e2:	e9 0f       	add	r30, r25
    19e4:	f1 1d       	adc	r31, r1
    19e6:	80 83       	st	Z, r24
    19e8:	0c c0       	rjmp	.+24     	; 0x1a02 <convertFileName+0xd0>
    19ea:	20 e2       	ldi	r18, 0x20	; 32
    19ec:	e1 e0       	ldi	r30, 0x01	; 1
    19ee:	f0 e0       	ldi	r31, 0x00	; 0
    19f0:	ec 0f       	add	r30, r28
    19f2:	fd 1f       	adc	r31, r29
    19f4:	e9 0f       	add	r30, r25
    19f6:	f1 1d       	adc	r31, r1
    19f8:	20 83       	st	Z, r18
    19fa:	9f 5f       	subi	r25, 0xFF	; 255
    19fc:	9b 30       	cpi	r25, 0x0B	; 11
    19fe:	b1 f7       	brne	.-20     	; 0x19ec <convertFileName+0xba>
    1a00:	03 c0       	rjmp	.+6      	; 0x1a08 <convertFileName+0xd6>
    1a02:	9f 5f       	subi	r25, 0xFF	; 255
    1a04:	9b 30       	cpi	r25, 0x0B	; 11
    1a06:	f8 f2       	brcs	.-66     	; 0x19c6 <convertFileName+0x94>
    1a08:	9e 01       	movw	r18, r28
    1a0a:	2f 5f       	subi	r18, 0xFF	; 255
    1a0c:	3f 4f       	sbci	r19, 0xFF	; 255
    1a0e:	ae 01       	movw	r20, r28
    1a10:	44 5f       	subi	r20, 0xF4	; 244
    1a12:	5f 4f       	sbci	r21, 0xFF	; 255
    1a14:	f9 01       	movw	r30, r18
    1a16:	80 81       	ld	r24, Z
    1a18:	9f e9       	ldi	r25, 0x9F	; 159
    1a1a:	98 0f       	add	r25, r24
    1a1c:	9a 31       	cpi	r25, 0x1A	; 26
    1a1e:	10 f4       	brcc	.+4      	; 0x1a24 <convertFileName+0xf2>
    1a20:	80 52       	subi	r24, 0x20	; 32
    1a22:	80 83       	st	Z, r24
    1a24:	31 96       	adiw	r30, 0x01	; 1
    1a26:	4e 17       	cp	r20, r30
    1a28:	5f 07       	cpc	r21, r31
    1a2a:	a9 f7       	brne	.-22     	; 0x1a16 <convertFileName+0xe4>
    1a2c:	fb 01       	movw	r30, r22
    1a2e:	d9 01       	movw	r26, r18
    1a30:	8d 91       	ld	r24, X+
    1a32:	9d 01       	movw	r18, r26
    1a34:	81 93       	st	Z+, r24
    1a36:	a4 17       	cp	r26, r20
    1a38:	b5 07       	cpc	r27, r21
    1a3a:	c9 f7       	brne	.-14     	; 0x1a2e <convertFileName+0xfc>
    1a3c:	80 e0       	ldi	r24, 0x00	; 0
    1a3e:	2b 96       	adiw	r28, 0x0b	; 11
    1a40:	0f b6       	in	r0, 0x3f	; 63
    1a42:	f8 94       	cli
    1a44:	de bf       	out	0x3e, r29	; 62
    1a46:	0f be       	out	0x3f, r0	; 63
    1a48:	cd bf       	out	0x3d, r28	; 61
    1a4a:	df 91       	pop	r29
    1a4c:	cf 91       	pop	r28
    1a4e:	08 95       	ret

00001a50 <displayMemory>:
    1a50:	8f 92       	push	r8
    1a52:	9f 92       	push	r9
    1a54:	af 92       	push	r10
    1a56:	bf 92       	push	r11
    1a58:	df 92       	push	r13
    1a5a:	ef 92       	push	r14
    1a5c:	ff 92       	push	r15
    1a5e:	0f 93       	push	r16
    1a60:	1f 93       	push	r17
    1a62:	cf 93       	push	r28
    1a64:	df 93       	push	r29
    1a66:	cd b7       	in	r28, 0x3d	; 61
    1a68:	de b7       	in	r29, 0x3e	; 62
    1a6a:	64 97       	sbiw	r28, 0x14	; 20
    1a6c:	0f b6       	in	r0, 0x3f	; 63
    1a6e:	f8 94       	cli
    1a70:	de bf       	out	0x3e, r29	; 62
    1a72:	0f be       	out	0x3f, r0	; 63
    1a74:	cd bf       	out	0x3d, r28	; 61
    1a76:	d8 2e       	mov	r13, r24
    1a78:	cb 01       	movw	r24, r22
    1a7a:	ba 01       	movw	r22, r20
    1a7c:	24 e1       	ldi	r18, 0x14	; 20
    1a7e:	e1 e0       	ldi	r30, 0x01	; 1
    1a80:	f5 e0       	ldi	r31, 0x05	; 5
    1a82:	de 01       	movw	r26, r28
    1a84:	11 96       	adiw	r26, 0x01	; 1
    1a86:	01 90       	ld	r0, Z+
    1a88:	0d 92       	st	X+, r0
    1a8a:	2a 95       	dec	r18
    1a8c:	e1 f7       	brne	.-8      	; 0x1a86 <displayMemory+0x36>
    1a8e:	1c e0       	ldi	r17, 0x0C	; 12
    1a90:	0c e2       	ldi	r16, 0x2C	; 44
    1a92:	0f 2e       	mov	r0, r31
    1a94:	fa e0       	ldi	r31, 0x0A	; 10
    1a96:	8f 2e       	mov	r8, r31
    1a98:	91 2c       	mov	r9, r1
    1a9a:	a1 2c       	mov	r10, r1
    1a9c:	b1 2c       	mov	r11, r1
    1a9e:	f0 2d       	mov	r31, r0
    1aa0:	15 30       	cpi	r17, 0x05	; 5
    1aa2:	11 f0       	breq	.+4      	; 0x1aa8 <displayMemory+0x58>
    1aa4:	19 30       	cpi	r17, 0x09	; 9
    1aa6:	29 f4       	brne	.+10     	; 0x1ab2 <displayMemory+0x62>
    1aa8:	fe 01       	movw	r30, r28
    1aaa:	e1 0f       	add	r30, r17
    1aac:	f1 1d       	adc	r31, r1
    1aae:	00 83       	st	Z, r16
    1ab0:	11 50       	subi	r17, 0x01	; 1
    1ab2:	7e 01       	movw	r14, r28
    1ab4:	e1 0e       	add	r14, r17
    1ab6:	f1 1c       	adc	r15, r1
    1ab8:	a5 01       	movw	r20, r10
    1aba:	94 01       	movw	r18, r8
    1abc:	ca d6       	rcall	.+3476   	; 0x2852 <__udivmodsi4>
    1abe:	60 63       	ori	r22, 0x30	; 48
    1ac0:	f7 01       	movw	r30, r14
    1ac2:	60 83       	st	Z, r22
    1ac4:	62 2f       	mov	r22, r18
    1ac6:	73 2f       	mov	r23, r19
    1ac8:	84 2f       	mov	r24, r20
    1aca:	95 2f       	mov	r25, r21
    1acc:	61 15       	cp	r22, r1
    1ace:	71 05       	cpc	r23, r1
    1ad0:	81 05       	cpc	r24, r1
    1ad2:	91 05       	cpc	r25, r1
    1ad4:	11 f0       	breq	.+4      	; 0x1ada <displayMemory+0x8a>
    1ad6:	11 50       	subi	r17, 0x01	; 1
    1ad8:	19 f7       	brne	.-58     	; 0x1aa0 <displayMemory+0x50>
    1ada:	f1 e0       	ldi	r31, 0x01	; 1
    1adc:	df 12       	cpse	r13, r31
    1ade:	02 c0       	rjmp	.+4      	; 0x1ae4 <displayMemory+0x94>
    1ae0:	8b e4       	ldi	r24, 0x4B	; 75
    1ae2:	8e 87       	std	Y+14, r24	; 0x0e
    1ae4:	ce 01       	movw	r24, r28
    1ae6:	01 96       	adiw	r24, 0x01	; 1
    1ae8:	90 d6       	rcall	.+3360   	; 0x280a <transmitString>
    1aea:	64 96       	adiw	r28, 0x14	; 20
    1aec:	0f b6       	in	r0, 0x3f	; 63
    1aee:	f8 94       	cli
    1af0:	de bf       	out	0x3e, r29	; 62
    1af2:	0f be       	out	0x3f, r0	; 63
    1af4:	cd bf       	out	0x3d, r28	; 61
    1af6:	df 91       	pop	r29
    1af8:	cf 91       	pop	r28
    1afa:	1f 91       	pop	r17
    1afc:	0f 91       	pop	r16
    1afe:	ff 90       	pop	r15
    1b00:	ef 90       	pop	r14
    1b02:	df 90       	pop	r13
    1b04:	bf 90       	pop	r11
    1b06:	af 90       	pop	r10
    1b08:	9f 90       	pop	r9
    1b0a:	8f 90       	pop	r8
    1b0c:	08 95       	ret

00001b0e <freeMemoryUpdate>:
//			to ADD or REMOVE clusters occupied by the file
//Arguments: #1.flag ADD or REMOVE #2.file size in Bytes
//return: none
//********************************************************************
void freeMemoryUpdate (unsigned char flag, unsigned long size)
{
    1b0e:	cf 92       	push	r12
    1b10:	df 92       	push	r13
    1b12:	ef 92       	push	r14
    1b14:	ff 92       	push	r15
    1b16:	cf 93       	push	r28
  unsigned long freeClusters;
  //convert file size into number of clusters occupied
  if((size % 512) == 0) size = size / 512;
    1b18:	6a 01       	movw	r12, r20
    1b1a:	7b 01       	movw	r14, r22
    1b1c:	91 e0       	ldi	r25, 0x01	; 1
    1b1e:	d9 22       	and	r13, r25
    1b20:	ee 24       	eor	r14, r14
    1b22:	ff 24       	eor	r15, r15
    1b24:	cd 28       	or	r12, r13
    1b26:	ce 28       	or	r12, r14
    1b28:	cf 28       	or	r12, r15
    1b2a:	51 f4       	brne	.+20     	; 0x1b40 <freeMemoryUpdate+0x32>
    1b2c:	03 2e       	mov	r0, r19
    1b2e:	39 e0       	ldi	r19, 0x09	; 9
    1b30:	76 95       	lsr	r23
    1b32:	67 95       	ror	r22
    1b34:	57 95       	ror	r21
    1b36:	47 95       	ror	r20
    1b38:	3a 95       	dec	r19
    1b3a:	d1 f7       	brne	.-12     	; 0x1b30 <freeMemoryUpdate+0x22>
    1b3c:	30 2d       	mov	r19, r0
    1b3e:	0d c0       	rjmp	.+26     	; 0x1b5a <freeMemoryUpdate+0x4c>
  else size = (size / 512) +1;
    1b40:	03 2e       	mov	r0, r19
    1b42:	39 e0       	ldi	r19, 0x09	; 9
    1b44:	76 95       	lsr	r23
    1b46:	67 95       	ror	r22
    1b48:	57 95       	ror	r21
    1b4a:	47 95       	ror	r20
    1b4c:	3a 95       	dec	r19
    1b4e:	d1 f7       	brne	.-12     	; 0x1b44 <freeMemoryUpdate+0x36>
    1b50:	30 2d       	mov	r19, r0
    1b52:	4f 5f       	subi	r20, 0xFF	; 255
    1b54:	5f 4f       	sbci	r21, 0xFF	; 255
    1b56:	6f 4f       	sbci	r22, 0xFF	; 255
    1b58:	7f 4f       	sbci	r23, 0xFF	; 255
  if((size % 8) == 0) size = size / 8;
    1b5a:	6a 01       	movw	r12, r20
    1b5c:	7b 01       	movw	r14, r22
    1b5e:	97 e0       	ldi	r25, 0x07	; 7
    1b60:	c9 22       	and	r12, r25
    1b62:	dd 24       	eor	r13, r13
    1b64:	ee 24       	eor	r14, r14
    1b66:	ff 24       	eor	r15, r15
    1b68:	cd 28       	or	r12, r13
    1b6a:	ce 28       	or	r12, r14
    1b6c:	cf 28       	or	r12, r15
    1b6e:	59 f4       	brne	.+22     	; 0x1b86 <freeMemoryUpdate+0x78>
    1b70:	6a 01       	movw	r12, r20
    1b72:	7b 01       	movw	r14, r22
    1b74:	68 94       	set
    1b76:	12 f8       	bld	r1, 2
    1b78:	f6 94       	lsr	r15
    1b7a:	e7 94       	ror	r14
    1b7c:	d7 94       	ror	r13
    1b7e:	c7 94       	ror	r12
    1b80:	16 94       	lsr	r1
    1b82:	d1 f7       	brne	.-12     	; 0x1b78 <freeMemoryUpdate+0x6a>
    1b84:	0f c0       	rjmp	.+30     	; 0x1ba4 <freeMemoryUpdate+0x96>
  else size = (size / 8) +1;
    1b86:	68 94       	set
    1b88:	12 f8       	bld	r1, 2
    1b8a:	76 95       	lsr	r23
    1b8c:	67 95       	ror	r22
    1b8e:	57 95       	ror	r21
    1b90:	47 95       	ror	r20
    1b92:	16 94       	lsr	r1
    1b94:	d1 f7       	brne	.-12     	; 0x1b8a <freeMemoryUpdate+0x7c>
    1b96:	6a 01       	movw	r12, r20
    1b98:	7b 01       	movw	r14, r22
    1b9a:	9f ef       	ldi	r25, 0xFF	; 255
    1b9c:	c9 1a       	sub	r12, r25
    1b9e:	d9 0a       	sbc	r13, r25
    1ba0:	e9 0a       	sbc	r14, r25
    1ba2:	f9 0a       	sbc	r15, r25

  if(freeClusterCountUpdated)
    1ba4:	90 91 92 12 	lds	r25, 0x1292	; 0x801292 <freeClusterCountUpdated>
    1ba8:	99 23       	and	r25, r25
    1baa:	c9 f0       	breq	.+50     	; 0x1bde <freeMemoryUpdate+0xd0>
    1bac:	c8 2f       	mov	r28, r24
  {
	freeClusters = getSetFreeCluster (TOTAL_FREE, GET, 0);
    1bae:	20 e0       	ldi	r18, 0x00	; 0
    1bb0:	30 e0       	ldi	r19, 0x00	; 0
    1bb2:	a9 01       	movw	r20, r18
    1bb4:	60 e0       	ldi	r22, 0x00	; 0
    1bb6:	81 e0       	ldi	r24, 0x01	; 1
    1bb8:	6f dd       	rcall	.-1314   	; 0x1698 <getSetFreeCluster>
	if(flag == ADD)
    1bba:	c1 11       	cpse	r28, r1
    1bbc:	07 c0       	rjmp	.+14     	; 0x1bcc <freeMemoryUpdate+0xbe>
  	   freeClusters = freeClusters + size;
    1bbe:	a7 01       	movw	r20, r14
    1bc0:	96 01       	movw	r18, r12
    1bc2:	26 0f       	add	r18, r22
    1bc4:	37 1f       	adc	r19, r23
    1bc6:	48 1f       	adc	r20, r24
    1bc8:	59 1f       	adc	r21, r25
    1bca:	06 c0       	rjmp	.+12     	; 0x1bd8 <freeMemoryUpdate+0xca>
	else  //when flag = REMOVE
	   freeClusters = freeClusters - size;
    1bcc:	9b 01       	movw	r18, r22
    1bce:	ac 01       	movw	r20, r24
    1bd0:	2c 19       	sub	r18, r12
    1bd2:	3d 09       	sbc	r19, r13
    1bd4:	4e 09       	sbc	r20, r14
    1bd6:	5f 09       	sbc	r21, r15
	getSetFreeCluster (TOTAL_FREE, SET, freeClusters);
    1bd8:	61 e0       	ldi	r22, 0x01	; 1
    1bda:	81 e0       	ldi	r24, 0x01	; 1
    1bdc:	5d dd       	rcall	.-1350   	; 0x1698 <getSetFreeCluster>
  }
}
    1bde:	cf 91       	pop	r28
    1be0:	ff 90       	pop	r15
    1be2:	ef 90       	pop	r14
    1be4:	df 90       	pop	r13
    1be6:	cf 90       	pop	r12
    1be8:	08 95       	ret

00001bea <findFiles>:
//return: first cluster of the file, if flag = GET_FILE
//        print file/dir list of the root directory, if flag = GET_LIST
//		  Delete the file mentioned in arg#2, if flag = DELETE
//****************************************************************************
struct dir_Structure* findFiles (unsigned char flag, unsigned char *fileName)
{
    1bea:	2f 92       	push	r2
    1bec:	3f 92       	push	r3
    1bee:	4f 92       	push	r4
    1bf0:	5f 92       	push	r5
    1bf2:	6f 92       	push	r6
    1bf4:	7f 92       	push	r7
    1bf6:	8f 92       	push	r8
    1bf8:	9f 92       	push	r9
    1bfa:	af 92       	push	r10
    1bfc:	bf 92       	push	r11
    1bfe:	cf 92       	push	r12
    1c00:	df 92       	push	r13
    1c02:	ef 92       	push	r14
    1c04:	ff 92       	push	r15
    1c06:	0f 93       	push	r16
    1c08:	1f 93       	push	r17
    1c0a:	cf 93       	push	r28
    1c0c:	df 93       	push	r29
    1c0e:	cd b7       	in	r28, 0x3d	; 61
    1c10:	de b7       	in	r29, 0x3e	; 62
    1c12:	2c 97       	sbiw	r28, 0x0c	; 12
    1c14:	0f b6       	in	r0, 0x3f	; 63
    1c16:	f8 94       	cli
    1c18:	de bf       	out	0x3e, r29	; 62
    1c1a:	0f be       	out	0x3f, r0	; 63
    1c1c:	cd bf       	out	0x3d, r28	; 61
    1c1e:	8e 83       	std	Y+6, r24	; 0x06
    1c20:	1b 01       	movw	r2, r22
unsigned long cluster, sector, firstSector, firstCluster, nextCluster;
struct dir_Structure *dir;
unsigned int i;
unsigned char j;

cluster = rootCluster; //root cluster
    1c22:	80 91 65 08 	lds	r24, 0x0865	; 0x800865 <rootCluster>
    1c26:	90 91 66 08 	lds	r25, 0x0866	; 0x800866 <rootCluster+0x1>
    1c2a:	a0 91 67 08 	lds	r26, 0x0867	; 0x800867 <rootCluster+0x2>
    1c2e:	b0 91 68 08 	lds	r27, 0x0868	; 0x800868 <rootCluster+0x3>
    1c32:	8f 83       	std	Y+7, r24	; 0x07
    1c34:	98 87       	std	Y+8, r25	; 0x08
    1c36:	a9 87       	std	Y+9, r26	; 0x09
    1c38:	ba 87       	std	Y+10, r27	; 0x0a
		      Uart_Transmit_IT_PC((char*)("File does not exist!"));
		  return 0;   
		}
		if((dir->name[0] != DELETED) && (dir->attrib != ATTR_LONG_NAME))
        {
          if((flag == GET_FILE) || (flag == DELETE))
    1c3a:	9e 81       	ldd	r25, Y+6	; 0x06
    1c3c:	91 50       	subi	r25, 0x01	; 1
    1c3e:	99 83       	std	Y+1, r25	; 0x01
			     Uart_Transmit_IT_PC ((char*)("FILE" ));
		         Uart_Transmit_IT_PC ((char*)("   "));
			     displayMemory (LOW, dir->fileSize);
			 }
			 else
			   Uart_Transmit_IT_PC ((char*)((dir->attrib == 0x10)? ("DIR") : ("ROOT")));
    1c40:	0f 2e       	mov	r0, r31
    1c42:	f7 e3       	ldi	r31, 0x37	; 55
    1c44:	cf 2e       	mov	r12, r31
    1c46:	f5 e0       	ldi	r31, 0x05	; 5
    1c48:	df 2e       	mov	r13, r31
    1c4a:	f0 2d       	mov	r31, r0

cluster = rootCluster; //root cluster

while(1)
{
   firstSector = getFirstSector (cluster);
    1c4c:	6f 81       	ldd	r22, Y+7	; 0x07
    1c4e:	78 85       	ldd	r23, Y+8	; 0x08
    1c50:	89 85       	ldd	r24, Y+9	; 0x09
    1c52:	9a 85       	ldd	r25, Y+10	; 0x0a
    1c54:	89 dc       	rcall	.-1774   	; 0x1568 <getFirstSector>
    1c56:	4b 01       	movw	r8, r22
    1c58:	5c 01       	movw	r10, r24

   for(sector = 0; sector < sectorPerCluster; sector++)
    1c5a:	80 91 72 0c 	lds	r24, 0x0C72	; 0x800c72 <sectorPerCluster>
    1c5e:	90 91 73 0c 	lds	r25, 0x0C73	; 0x800c73 <sectorPerCluster+0x1>
    1c62:	89 2b       	or	r24, r25
    1c64:	09 f4       	brne	.+2      	; 0x1c68 <findFiles+0x7e>
    1c66:	5f c1       	rjmp	.+702    	; 0x1f26 <findFiles+0x33c>
    1c68:	41 2c       	mov	r4, r1
    1c6a:	51 2c       	mov	r5, r1
    1c6c:	32 01       	movw	r6, r4
   {
     SD_readSingleBlock (firstSector + sector);
    1c6e:	d5 01       	movw	r26, r10
    1c70:	c4 01       	movw	r24, r8
    1c72:	84 0d       	add	r24, r4
    1c74:	95 1d       	adc	r25, r5
    1c76:	a6 1d       	adc	r26, r6
    1c78:	b7 1d       	adc	r27, r7
    1c7a:	8a 83       	std	Y+2, r24	; 0x02
    1c7c:	9b 83       	std	Y+3, r25	; 0x03
    1c7e:	ac 83       	std	Y+4, r26	; 0x04
    1c80:	bd 83       	std	Y+5, r27	; 0x05
    1c82:	bc 01       	movw	r22, r24
    1c84:	cd 01       	movw	r24, r26
    1c86:	52 d3       	rcall	.+1700   	; 0x232c <SD_readSingleBlock>
	

     for(i=0; i<bytesPerSector; i+=32)
    1c88:	80 91 58 08 	lds	r24, 0x0858	; 0x800858 <bytesPerSector>
    1c8c:	90 91 59 08 	lds	r25, 0x0859	; 0x800859 <bytesPerSector+0x1>
    1c90:	89 2b       	or	r24, r25
    1c92:	09 f4       	brne	.+2      	; 0x1c96 <findFiles+0xac>
    1c94:	37 c1       	rjmp	.+622    	; 0x1f04 <findFiles+0x31a>
     {
	    dir = (struct dir_Structure *) &buffer[i];

        if(dir->name[0] == EMPTY) //indicates end of the file list of the directory
    1c96:	a1 e7       	ldi	r26, 0x71	; 113
    1c98:	ba e0       	ldi	r27, 0x0A	; 10
    1c9a:	8c 91       	ld	r24, X
    1c9c:	88 23       	and	r24, r24
    1c9e:	51 f0       	breq	.+20     	; 0x1cb4 <findFiles+0xca>
    1ca0:	8d 01       	movw	r16, r26
    1ca2:	e1 2c       	mov	r14, r1
    1ca4:	f1 2c       	mov	r15, r1
    1ca6:	11 c0       	rjmp	.+34     	; 0x1cca <findFiles+0xe0>
    1ca8:	00 5e       	subi	r16, 0xE0	; 224
    1caa:	1f 4f       	sbci	r17, 0xFF	; 255
    1cac:	f8 01       	movw	r30, r16
    1cae:	80 81       	ld	r24, Z
    1cb0:	81 11       	cpse	r24, r1
    1cb2:	0b c0       	rjmp	.+22     	; 0x1cca <findFiles+0xe0>
		{
		  if((flag == GET_FILE) || (flag == DELETE))
    1cb4:	8e 81       	ldd	r24, Y+6	; 0x06
    1cb6:	81 50       	subi	r24, 0x01	; 1
    1cb8:	82 30       	cpi	r24, 0x02	; 2
    1cba:	08 f0       	brcs	.+2      	; 0x1cbe <findFiles+0xd4>
    1cbc:	53 c1       	rjmp	.+678    	; 0x1f64 <findFiles+0x37a>
		      Uart_Transmit_IT_PC((char*)("File does not exist!"));
    1cbe:	8c e3       	ldi	r24, 0x3C	; 60
    1cc0:	95 e0       	ldi	r25, 0x05	; 5
    1cc2:	34 d4       	rcall	.+2152   	; 0x252c <Uart_Transmit_IT_PC>
		  return 0;   
    1cc4:	80 e0       	ldi	r24, 0x00	; 0
    1cc6:	90 e0       	ldi	r25, 0x00	; 0
    1cc8:	52 c1       	rjmp	.+676    	; 0x1f6e <findFiles+0x384>
		}
		if((dir->name[0] != DELETED) && (dir->attrib != ATTR_LONG_NAME))
    1cca:	85 3e       	cpi	r24, 0xE5	; 229
    1ccc:	09 f4       	brne	.+2      	; 0x1cd0 <findFiles+0xe6>
    1cce:	0f c1       	rjmp	.+542    	; 0x1eee <findFiles+0x304>
    1cd0:	d8 01       	movw	r26, r16
    1cd2:	1b 96       	adiw	r26, 0x0b	; 11
    1cd4:	8c 91       	ld	r24, X
    1cd6:	8f 30       	cpi	r24, 0x0F	; 15
    1cd8:	09 f4       	brne	.+2      	; 0x1cdc <findFiles+0xf2>
    1cda:	09 c1       	rjmp	.+530    	; 0x1eee <findFiles+0x304>
        {
          if((flag == GET_FILE) || (flag == DELETE))
    1cdc:	b9 81       	ldd	r27, Y+1	; 0x01
    1cde:	b2 30       	cpi	r27, 0x02	; 2
    1ce0:	08 f0       	brcs	.+2      	; 0x1ce4 <findFiles+0xfa>
    1ce2:	c1 c0       	rjmp	.+386    	; 0x1e66 <findFiles+0x27c>
          {
            for(j=0; j<11; j++)
            if(dir->name[j] != fileName[j]) break;
    1ce4:	f8 01       	movw	r30, r16
    1ce6:	90 81       	ld	r25, Z
    1ce8:	d1 01       	movw	r26, r2
    1cea:	8c 91       	ld	r24, X
    1cec:	98 13       	cpse	r25, r24
    1cee:	ff c0       	rjmp	.+510    	; 0x1eee <findFiles+0x304>
    1cf0:	d8 01       	movw	r26, r16
    1cf2:	11 96       	adiw	r26, 0x01	; 1
    1cf4:	f1 01       	movw	r30, r2
    1cf6:	31 96       	adiw	r30, 0x01	; 1
		}
		if((dir->name[0] != DELETED) && (dir->attrib != ATTR_LONG_NAME))
        {
          if((flag == GET_FILE) || (flag == DELETE))
          {
            for(j=0; j<11; j++)
    1cf8:	81 e0       	ldi	r24, 0x01	; 1
            if(dir->name[j] != fileName[j]) break;
    1cfa:	2d 91       	ld	r18, X+
    1cfc:	91 91       	ld	r25, Z+
    1cfe:	29 13       	cpse	r18, r25
    1d00:	04 c0       	rjmp	.+8      	; 0x1d0a <findFiles+0x120>
		}
		if((dir->name[0] != DELETED) && (dir->attrib != ATTR_LONG_NAME))
        {
          if((flag == GET_FILE) || (flag == DELETE))
          {
            for(j=0; j<11; j++)
    1d02:	8f 5f       	subi	r24, 0xFF	; 255
    1d04:	8b 30       	cpi	r24, 0x0B	; 11
    1d06:	c9 f7       	brne	.-14     	; 0x1cfa <findFiles+0x110>
    1d08:	03 c0       	rjmp	.+6      	; 0x1d10 <findFiles+0x126>
            if(dir->name[j] != fileName[j]) break;
            if(j == 11)
    1d0a:	8b 30       	cpi	r24, 0x0B	; 11
    1d0c:	09 f0       	breq	.+2      	; 0x1d10 <findFiles+0x126>
    1d0e:	ef c0       	rjmp	.+478    	; 0x1eee <findFiles+0x304>
			{
			  if(flag == GET_FILE)
    1d10:	be 81       	ldd	r27, Y+6	; 0x06
    1d12:	b1 30       	cpi	r27, 0x01	; 1
    1d14:	09 f0       	breq	.+2      	; 0x1d18 <findFiles+0x12e>
    1d16:	41 c0       	rjmp	.+130    	; 0x1d9a <findFiles+0x1b0>
              {
			    appendFileSector = firstSector + sector;
    1d18:	8a 81       	ldd	r24, Y+2	; 0x02
    1d1a:	9b 81       	ldd	r25, Y+3	; 0x03
    1d1c:	ac 81       	ldd	r26, Y+4	; 0x04
    1d1e:	bd 81       	ldd	r27, Y+5	; 0x05
    1d20:	80 93 94 12 	sts	0x1294, r24	; 0x801294 <appendFileSector>
    1d24:	90 93 95 12 	sts	0x1295, r25	; 0x801295 <appendFileSector+0x1>
    1d28:	a0 93 96 12 	sts	0x1296, r26	; 0x801296 <appendFileSector+0x2>
    1d2c:	b0 93 97 12 	sts	0x1297, r27	; 0x801297 <appendFileSector+0x3>
				appendFileLocation = i;
    1d30:	c7 01       	movw	r24, r14
    1d32:	a0 e0       	ldi	r26, 0x00	; 0
    1d34:	b0 e0       	ldi	r27, 0x00	; 0
    1d36:	80 93 3d 08 	sts	0x083D, r24	; 0x80083d <appendFileLocation>
    1d3a:	90 93 3e 08 	sts	0x083E, r25	; 0x80083e <appendFileLocation+0x1>
    1d3e:	a0 93 3f 08 	sts	0x083F, r26	; 0x80083f <appendFileLocation+0x2>
    1d42:	b0 93 40 08 	sts	0x0840, r27	; 0x800840 <appendFileLocation+0x3>
				appendStartCluster = (((unsigned long) dir->firstClusterHI) << 16) | dir->firstClusterLO;
    1d46:	d8 01       	movw	r26, r16
    1d48:	54 96       	adiw	r26, 0x14	; 20
    1d4a:	8d 91       	ld	r24, X+
    1d4c:	9c 91       	ld	r25, X
    1d4e:	55 97       	sbiw	r26, 0x15	; 21
    1d50:	a0 e0       	ldi	r26, 0x00	; 0
    1d52:	b0 e0       	ldi	r27, 0x00	; 0
    1d54:	dc 01       	movw	r26, r24
    1d56:	99 27       	eor	r25, r25
    1d58:	88 27       	eor	r24, r24
    1d5a:	f8 01       	movw	r30, r16
    1d5c:	42 8d       	ldd	r20, Z+26	; 0x1a
    1d5e:	53 8d       	ldd	r21, Z+27	; 0x1b
    1d60:	60 e0       	ldi	r22, 0x00	; 0
    1d62:	70 e0       	ldi	r23, 0x00	; 0
    1d64:	84 2b       	or	r24, r20
    1d66:	95 2b       	or	r25, r21
    1d68:	a6 2b       	or	r26, r22
    1d6a:	b7 2b       	or	r27, r23
    1d6c:	80 93 87 10 	sts	0x1087, r24	; 0x801087 <appendStartCluster>
    1d70:	90 93 88 10 	sts	0x1088, r25	; 0x801088 <appendStartCluster+0x1>
    1d74:	a0 93 89 10 	sts	0x1089, r26	; 0x801089 <appendStartCluster+0x2>
    1d78:	b0 93 8a 10 	sts	0x108A, r27	; 0x80108a <appendStartCluster+0x3>
				fileSize = dir->fileSize;
    1d7c:	84 8d       	ldd	r24, Z+28	; 0x1c
    1d7e:	95 8d       	ldd	r25, Z+29	; 0x1d
    1d80:	a6 8d       	ldd	r26, Z+30	; 0x1e
    1d82:	b7 8d       	ldd	r27, Z+31	; 0x1f
    1d84:	80 93 54 08 	sts	0x0854, r24	; 0x800854 <fileSize>
    1d88:	90 93 55 08 	sts	0x0855, r25	; 0x800855 <fileSize+0x1>
    1d8c:	a0 93 56 08 	sts	0x0856, r26	; 0x800856 <fileSize+0x2>
    1d90:	b0 93 57 08 	sts	0x0857, r27	; 0x800857 <fileSize+0x3>
			    return (dir);
    1d94:	80 2f       	mov	r24, r16
    1d96:	91 2f       	mov	r25, r17
			  }	
			  else    //when flag = DELETE
			  {
			     TX_NEWLINE;
    1d98:	ea c0       	rjmp	.+468    	; 0x1f6e <findFiles+0x384>
    1d9a:	8d e0       	ldi	r24, 0x0D	; 13
    1d9c:	2e d5       	rcall	.+2652   	; 0x27fa <transmitByte>
    1d9e:	8a e0       	ldi	r24, 0x0A	; 10
				 Uart_Transmit_IT_PC((char*)("Deleting.."));
    1da0:	2c d5       	rcall	.+2648   	; 0x27fa <transmitByte>
    1da2:	81 e5       	ldi	r24, 0x51	; 81
    1da4:	95 e0       	ldi	r25, 0x05	; 5
				 TX_NEWLINE;
    1da6:	c2 d3       	rcall	.+1924   	; 0x252c <Uart_Transmit_IT_PC>
    1da8:	8d e0       	ldi	r24, 0x0D	; 13
    1daa:	27 d5       	rcall	.+2638   	; 0x27fa <transmitByte>
    1dac:	8a e0       	ldi	r24, 0x0A	; 10
    1dae:	25 d5       	rcall	.+2634   	; 0x27fa <transmitByte>
				 TX_NEWLINE;
    1db0:	8d e0       	ldi	r24, 0x0D	; 13
    1db2:	23 d5       	rcall	.+2630   	; 0x27fa <transmitByte>
    1db4:	8a e0       	ldi	r24, 0x0A	; 10
    1db6:	21 d5       	rcall	.+2626   	; 0x27fa <transmitByte>
    1db8:	d8 01       	movw	r26, r16
    1dba:	54 96       	adiw	r26, 0x14	; 20
				 firstCluster = (((unsigned long) dir->firstClusterHI) << 16) | dir->firstClusterLO;
    1dbc:	cd 90       	ld	r12, X+
    1dbe:	dc 90       	ld	r13, X
    1dc0:	55 97       	sbiw	r26, 0x15	; 21
    1dc2:	e1 2c       	mov	r14, r1
    1dc4:	f1 2c       	mov	r15, r1
    1dc6:	d6 01       	movw	r26, r12
    1dc8:	99 27       	eor	r25, r25
    1dca:	88 27       	eor	r24, r24
    1dcc:	f8 01       	movw	r30, r16
    1dce:	c2 8c       	ldd	r12, Z+26	; 0x1a
    1dd0:	d3 8c       	ldd	r13, Z+27	; 0x1b
    1dd2:	e1 2c       	mov	r14, r1
    1dd4:	f1 2c       	mov	r15, r1
    1dd6:	c8 2a       	or	r12, r24
    1dd8:	d9 2a       	or	r13, r25
    1dda:	ea 2a       	or	r14, r26
    1ddc:	fb 2a       	or	r15, r27
    1dde:	85 ee       	ldi	r24, 0xE5	; 229
                
				 //mark file as 'deleted' in FAT table
				 dir->name[0] = DELETED;    
    1de0:	80 83       	st	Z, r24
    1de2:	6a 81       	ldd	r22, Y+2	; 0x02
				 SD_writeSingleBlock (firstSector+sector);
    1de4:	7b 81       	ldd	r23, Y+3	; 0x03
    1de6:	8c 81       	ldd	r24, Y+4	; 0x04
    1de8:	9d 81       	ldd	r25, Y+5	; 0x05
    1dea:	c8 d2       	rcall	.+1424   	; 0x237c <SD_writeSingleBlock>
    1dec:	d8 01       	movw	r26, r16
				 			 
				 freeMemoryUpdate (ADD, dir->fileSize);
    1dee:	5c 96       	adiw	r26, 0x1c	; 28
    1df0:	4d 91       	ld	r20, X+
    1df2:	5d 91       	ld	r21, X+
    1df4:	6d 91       	ld	r22, X+
    1df6:	7c 91       	ld	r23, X
    1df8:	5f 97       	sbiw	r26, 0x1f	; 31
    1dfa:	80 e0       	ldi	r24, 0x00	; 0
    1dfc:	88 de       	rcall	.-752    	; 0x1b0e <freeMemoryUpdate>
    1dfe:	20 e0       	ldi	r18, 0x00	; 0

				 //update next free cluster entry in FSinfo sector
				 cluster = getSetFreeCluster (NEXT_FREE, GET, 0); 
    1e00:	30 e0       	ldi	r19, 0x00	; 0
    1e02:	a9 01       	movw	r20, r18
    1e04:	60 e0       	ldi	r22, 0x00	; 0
    1e06:	82 e0       	ldi	r24, 0x02	; 2
    1e08:	47 dc       	rcall	.-1906   	; 0x1698 <getSetFreeCluster>
    1e0a:	c6 16       	cp	r12, r22
				 if(firstCluster < cluster)
    1e0c:	d7 06       	cpc	r13, r23
    1e0e:	e8 06       	cpc	r14, r24
    1e10:	f9 06       	cpc	r15, r25
    1e12:	28 f4       	brcc	.+10     	; 0x1e1e <findFiles+0x234>
				     getSetFreeCluster (NEXT_FREE, SET, firstCluster);
    1e14:	a7 01       	movw	r20, r14
    1e16:	96 01       	movw	r18, r12
    1e18:	61 e0       	ldi	r22, 0x01	; 1
    1e1a:	82 e0       	ldi	r24, 0x02	; 2
    1e1c:	3d dc       	rcall	.-1926   	; 0x1698 <getSetFreeCluster>
    1e1e:	00 e0       	ldi	r16, 0x00	; 0

				 //mark all the clusters allocated to the file as 'free'
			     while(1)  
			     {
			        nextCluster = getSetNextCluster (firstCluster, GET, 0);
    1e20:	10 e0       	ldi	r17, 0x00	; 0
    1e22:	98 01       	movw	r18, r16
    1e24:	40 e0       	ldi	r20, 0x00	; 0
    1e26:	c7 01       	movw	r24, r14
    1e28:	b6 01       	movw	r22, r12
    1e2a:	bf db       	rcall	.-2178   	; 0x15aa <getSetNextCluster>
    1e2c:	a6 2e       	mov	r10, r22
    1e2e:	b7 2e       	mov	r11, r23
    1e30:	8a 83       	std	Y+2, r24	; 0x02
    1e32:	99 83       	std	Y+1, r25	; 0x01
    1e34:	00 e0       	ldi	r16, 0x00	; 0
					getSetNextCluster (firstCluster, SET, 0);
    1e36:	10 e0       	ldi	r17, 0x00	; 0
    1e38:	98 01       	movw	r18, r16
    1e3a:	41 e0       	ldi	r20, 0x01	; 1
    1e3c:	c7 01       	movw	r24, r14
    1e3e:	b6 01       	movw	r22, r12
    1e40:	b4 db       	rcall	.-2200   	; 0x15aa <getSetNextCluster>
    1e42:	ca 2c       	mov	r12, r10
					if(nextCluster > 0x0ffffff6) 
					   {Uart_Transmit_IT_PC((char*)("File deleted!"));return 0;}
					firstCluster = nextCluster;
    1e44:	db 2c       	mov	r13, r11
    1e46:	ea 80       	ldd	r14, Y+2	; 0x02
    1e48:	f9 80       	ldd	r15, Y+1	; 0x01
				 //mark all the clusters allocated to the file as 'free'
			     while(1)  
			     {
			        nextCluster = getSetNextCluster (firstCluster, GET, 0);
					getSetNextCluster (firstCluster, SET, 0);
					if(nextCluster > 0x0ffffff6) 
    1e4a:	b7 ef       	ldi	r27, 0xF7	; 247
    1e4c:	cb 16       	cp	r12, r27
    1e4e:	bf ef       	ldi	r27, 0xFF	; 255
    1e50:	db 06       	cpc	r13, r27
    1e52:	eb 06       	cpc	r14, r27
    1e54:	bf e0       	ldi	r27, 0x0F	; 15
    1e56:	fb 06       	cpc	r15, r27
					   {Uart_Transmit_IT_PC((char*)("File deleted!"));return 0;}
    1e58:	10 f3       	brcs	.-60     	; 0x1e1e <findFiles+0x234>
    1e5a:	8c e5       	ldi	r24, 0x5C	; 92
    1e5c:	95 e0       	ldi	r25, 0x05	; 5
    1e5e:	66 d3       	rcall	.+1740   	; 0x252c <Uart_Transmit_IT_PC>
    1e60:	80 e0       	ldi	r24, 0x00	; 0
    1e62:	90 e0       	ldi	r25, 0x00	; 0
    1e64:	84 c0       	rjmp	.+264    	; 0x1f6e <findFiles+0x384>
			  }
            }
          }
          else  //when flag = GET_LIST
		  {
		     TX_NEWLINE;
    1e66:	8d e0       	ldi	r24, 0x0D	; 13
    1e68:	c8 d4       	rcall	.+2448   	; 0x27fa <transmitByte>
    1e6a:	8a e0       	ldi	r24, 0x0A	; 10
    1e6c:	c6 d4       	rcall	.+2444   	; 0x27fa <transmitByte>
    1e6e:	e1 e0       	ldi	r30, 0x01	; 1
    1e70:	1b 86       	std	Y+11, r1	; 0x0b
    1e72:	ec 87       	std	Y+12, r30	; 0x0c
    1e74:	06 c0       	rjmp	.+12     	; 0x1e82 <findFiles+0x298>
    1e76:	2b 85       	ldd	r18, Y+11	; 0x0b
    1e78:	2f 5f       	subi	r18, 0xFF	; 255
    1e7a:	2b 87       	std	Y+11, r18	; 0x0b
    1e7c:	3c 85       	ldd	r19, Y+12	; 0x0c
    1e7e:	3f 5f       	subi	r19, 0xFF	; 255
    1e80:	3c 87       	std	Y+12, r19	; 0x0c
			 for(j=0; j<11; j++)
		     {
			   if(j == 8) transmitByte(' ');
    1e82:	8b 85       	ldd	r24, Y+11	; 0x0b
    1e84:	88 30       	cpi	r24, 0x08	; 8
    1e86:	49 f4       	brne	.+18     	; 0x1e9a <findFiles+0x2b0>
    1e88:	80 e2       	ldi	r24, 0x20	; 32
    1e8a:	b7 d4       	rcall	.+2414   	; 0x27fa <transmitByte>
			   transmitByte (dir->name[j]);
    1e8c:	f8 01       	movw	r30, r16
    1e8e:	9b 85       	ldd	r25, Y+11	; 0x0b
    1e90:	e9 0f       	add	r30, r25
    1e92:	f1 1d       	adc	r31, r1
    1e94:	80 81       	ld	r24, Z
    1e96:	b1 d4       	rcall	.+2402   	; 0x27fa <transmitByte>
    1e98:	ee cf       	rjmp	.-36     	; 0x1e76 <findFiles+0x28c>
    1e9a:	f8 01       	movw	r30, r16
    1e9c:	ab 85       	ldd	r26, Y+11	; 0x0b
    1e9e:	ea 0f       	add	r30, r26
    1ea0:	f1 1d       	adc	r31, r1
    1ea2:	80 81       	ld	r24, Z
    1ea4:	aa d4       	rcall	.+2388   	; 0x27fa <transmitByte>
            }
          }
          else  //when flag = GET_LIST
		  {
		     TX_NEWLINE;
			 for(j=0; j<11; j++)
    1ea6:	bc 85       	ldd	r27, Y+12	; 0x0c
    1ea8:	bb 30       	cpi	r27, 0x0B	; 11
    1eaa:	28 f3       	brcs	.-54     	; 0x1e76 <findFiles+0x28c>
		     {
			   if(j == 8) transmitByte(' ');
			   transmitByte (dir->name[j]);
			 }
		     Uart_Transmit_IT_PC ((char*)("   "));
    1eac:	8a e6       	ldi	r24, 0x6A	; 106
    1eae:	95 e0       	ldi	r25, 0x05	; 5
    1eb0:	3d d3       	rcall	.+1658   	; 0x252c <Uart_Transmit_IT_PC>
		     if((dir->attrib != 0x10) && (dir->attrib != 0x08))
    1eb2:	f8 01       	movw	r30, r16
    1eb4:	83 85       	ldd	r24, Z+11	; 0x0b
    1eb6:	80 31       	cpi	r24, 0x10	; 16
    1eb8:	91 f0       	breq	.+36     	; 0x1ede <findFiles+0x2f4>
    1eba:	88 30       	cpi	r24, 0x08	; 8
    1ebc:	a9 f0       	breq	.+42     	; 0x1ee8 <findFiles+0x2fe>
			 {
			     Uart_Transmit_IT_PC ((char*)("FILE" ));
    1ebe:	8e e6       	ldi	r24, 0x6E	; 110
    1ec0:	95 e0       	ldi	r25, 0x05	; 5
    1ec2:	34 d3       	rcall	.+1640   	; 0x252c <Uart_Transmit_IT_PC>
		         Uart_Transmit_IT_PC ((char*)("   "));
    1ec4:	8a e6       	ldi	r24, 0x6A	; 106
    1ec6:	95 e0       	ldi	r25, 0x05	; 5
    1ec8:	31 d3       	rcall	.+1634   	; 0x252c <Uart_Transmit_IT_PC>
    1eca:	d8 01       	movw	r26, r16
			     displayMemory (LOW, dir->fileSize);
    1ecc:	5c 96       	adiw	r26, 0x1c	; 28
    1ece:	4d 91       	ld	r20, X+
    1ed0:	5d 91       	ld	r21, X+
    1ed2:	6d 91       	ld	r22, X+
    1ed4:	7c 91       	ld	r23, X
    1ed6:	5f 97       	sbiw	r26, 0x1f	; 31
    1ed8:	80 e0       	ldi	r24, 0x00	; 0
    1eda:	ba dd       	rcall	.-1164   	; 0x1a50 <displayMemory>
    1edc:	08 c0       	rjmp	.+16     	; 0x1eee <findFiles+0x304>
    1ede:	e3 e3       	ldi	r30, 0x33	; 51
    1ee0:	f5 e0       	ldi	r31, 0x05	; 5
			 }
			 else
			   Uart_Transmit_IT_PC ((char*)((dir->attrib == 0x10)? ("DIR") : ("ROOT")));
    1ee2:	8e 2f       	mov	r24, r30
    1ee4:	9f 2f       	mov	r25, r31
    1ee6:	02 c0       	rjmp	.+4      	; 0x1eec <findFiles+0x302>
    1ee8:	8c 2d       	mov	r24, r12
    1eea:	9d 2d       	mov	r25, r13
    1eec:	1f d3       	rcall	.+1598   	; 0x252c <Uart_Transmit_IT_PC>
    1eee:	f0 e2       	ldi	r31, 0x20	; 32
    1ef0:	ef 0e       	add	r14, r31
    1ef2:	f1 1c       	adc	r15, r1
   for(sector = 0; sector < sectorPerCluster; sector++)
   {
     SD_readSingleBlock (firstSector + sector);
	

     for(i=0; i<bytesPerSector; i+=32)
    1ef4:	80 91 58 08 	lds	r24, 0x0858	; 0x800858 <bytesPerSector>
    1ef8:	90 91 59 08 	lds	r25, 0x0859	; 0x800859 <bytesPerSector+0x1>
    1efc:	e8 16       	cp	r14, r24
    1efe:	f9 06       	cpc	r15, r25
    1f00:	08 f4       	brcc	.+2      	; 0x1f04 <findFiles+0x31a>
    1f02:	d2 ce       	rjmp	.-604    	; 0x1ca8 <findFiles+0xbe>
    1f04:	2f ef       	ldi	r18, 0xFF	; 255
    1f06:	42 1a       	sub	r4, r18

while(1)
{
   firstSector = getFirstSector (cluster);

   for(sector = 0; sector < sectorPerCluster; sector++)
    1f08:	52 0a       	sbc	r5, r18
    1f0a:	62 0a       	sbc	r6, r18
    1f0c:	72 0a       	sbc	r7, r18
    1f0e:	80 91 72 0c 	lds	r24, 0x0C72	; 0x800c72 <sectorPerCluster>
    1f12:	90 91 73 0c 	lds	r25, 0x0C73	; 0x800c73 <sectorPerCluster+0x1>
    1f16:	a0 e0       	ldi	r26, 0x00	; 0
    1f18:	b0 e0       	ldi	r27, 0x00	; 0
    1f1a:	48 16       	cp	r4, r24
    1f1c:	59 06       	cpc	r5, r25
    1f1e:	6a 06       	cpc	r6, r26
    1f20:	7b 06       	cpc	r7, r27
    1f22:	08 f4       	brcc	.+2      	; 0x1f26 <findFiles+0x33c>
    1f24:	a4 ce       	rjmp	.-696    	; 0x1c6e <findFiles+0x84>
    1f26:	00 e0       	ldi	r16, 0x00	; 0
    1f28:	10 e0       	ldi	r17, 0x00	; 0
		  }
       }
     }
   }

   cluster = (getSetNextCluster (cluster, GET, 0));
    1f2a:	98 01       	movw	r18, r16
    1f2c:	40 e0       	ldi	r20, 0x00	; 0
    1f2e:	6f 81       	ldd	r22, Y+7	; 0x07
    1f30:	78 85       	ldd	r23, Y+8	; 0x08
    1f32:	89 85       	ldd	r24, Y+9	; 0x09
    1f34:	9a 85       	ldd	r25, Y+10	; 0x0a
    1f36:	39 db       	rcall	.-2446   	; 0x15aa <getSetNextCluster>
    1f38:	6f 83       	std	Y+7, r22	; 0x07
    1f3a:	78 87       	std	Y+8, r23	; 0x08
    1f3c:	89 87       	std	Y+9, r24	; 0x09
    1f3e:	9a 87       	std	Y+10, r25	; 0x0a
    1f40:	67 3f       	cpi	r22, 0xF7	; 247
    1f42:	3f ef       	ldi	r19, 0xFF	; 255

   if(cluster > 0x0ffffff6)
    1f44:	73 07       	cpc	r23, r19
    1f46:	83 07       	cpc	r24, r19
    1f48:	3f e0       	ldi	r19, 0x0F	; 15
    1f4a:	93 07       	cpc	r25, r19
    1f4c:	70 f4       	brcc	.+28     	; 0x1f6a <findFiles+0x380>
    1f4e:	67 2b       	or	r22, r23
    1f50:	68 2b       	or	r22, r24
   	 return 0;
   if(cluster == 0) 
    1f52:	69 2b       	or	r22, r25
    1f54:	09 f0       	breq	.+2      	; 0x1f58 <findFiles+0x36e>
    1f56:	7a ce       	rjmp	.-780    	; 0x1c4c <findFiles+0x62>
    1f58:	83 e7       	ldi	r24, 0x73	; 115
    1f5a:	95 e0       	ldi	r25, 0x05	; 5
   {Uart_Transmit_IT_PC((char*)("Error in getting cluster"));  return 0;}
    1f5c:	e7 d2       	rcall	.+1486   	; 0x252c <Uart_Transmit_IT_PC>
    1f5e:	80 e0       	ldi	r24, 0x00	; 0
    1f60:	90 e0       	ldi	r25, 0x00	; 0
    1f62:	05 c0       	rjmp	.+10     	; 0x1f6e <findFiles+0x384>
    1f64:	80 e0       	ldi	r24, 0x00	; 0
    1f66:	90 e0       	ldi	r25, 0x00	; 0
    1f68:	02 c0       	rjmp	.+4      	; 0x1f6e <findFiles+0x384>

        if(dir->name[0] == EMPTY) //indicates end of the file list of the directory
		{
		  if((flag == GET_FILE) || (flag == DELETE))
		      Uart_Transmit_IT_PC((char*)("File does not exist!"));
		  return 0;   
    1f6a:	80 e0       	ldi	r24, 0x00	; 0
    1f6c:	90 e0       	ldi	r25, 0x00	; 0
    1f6e:	2c 96       	adiw	r28, 0x0c	; 12
   }

   cluster = (getSetNextCluster (cluster, GET, 0));

   if(cluster > 0x0ffffff6)
   	 return 0;
    1f70:	0f b6       	in	r0, 0x3f	; 63
    1f72:	f8 94       	cli
   if(cluster == 0) 
   {Uart_Transmit_IT_PC((char*)("Error in getting cluster"));  return 0;}
 }
return 0;
}
    1f74:	de bf       	out	0x3e, r29	; 62
    1f76:	0f be       	out	0x3f, r0	; 63
    1f78:	cd bf       	out	0x3d, r28	; 61
    1f7a:	df 91       	pop	r29
    1f7c:	cf 91       	pop	r28
    1f7e:	1f 91       	pop	r17
    1f80:	0f 91       	pop	r16
    1f82:	ff 90       	pop	r15
    1f84:	ef 90       	pop	r14
    1f86:	df 90       	pop	r13
    1f88:	cf 90       	pop	r12
    1f8a:	bf 90       	pop	r11
    1f8c:	af 90       	pop	r10
    1f8e:	9f 90       	pop	r9
    1f90:	8f 90       	pop	r8
    1f92:	7f 90       	pop	r7
    1f94:	6f 90       	pop	r6
    1f96:	5f 90       	pop	r5
    1f98:	4f 90       	pop	r4
    1f9a:	3f 90       	pop	r3
    1f9c:	2f 90       	pop	r2
    1f9e:	08 95       	ret

00001fa0 <readFile>:
    1fa0:	4f 92       	push	r4
    1fa2:	5f 92       	push	r5
    1fa4:	6f 92       	push	r6
//return: 0, if normal operation or flag is READ
//	      1, if file is already existing and flag = VERIFY
//		  2, if file name is incompatible
//***************************************************************************
unsigned char readFile (unsigned char flag, unsigned char *fileName)
{
    1fa6:	7f 92       	push	r7
    1fa8:	8f 92       	push	r8
    1faa:	9f 92       	push	r9
    1fac:	af 92       	push	r10
    1fae:	bf 92       	push	r11
    1fb0:	cf 92       	push	r12
    1fb2:	df 92       	push	r13
    1fb4:	ef 92       	push	r14
    1fb6:	ff 92       	push	r15
    1fb8:	0f 93       	push	r16
    1fba:	1f 93       	push	r17
    1fbc:	cf 93       	push	r28
    1fbe:	df 93       	push	r29
    1fc0:	cd b7       	in	r28, 0x3d	; 61
    1fc2:	de b7       	in	r29, 0x3e	; 62
    1fc4:	29 97       	sbiw	r28, 0x09	; 9
    1fc6:	0f b6       	in	r0, 0x3f	; 63
    1fc8:	f8 94       	cli
    1fca:	de bf       	out	0x3e, r29	; 62
    1fcc:	0f be       	out	0x3f, r0	; 63
    1fce:	cd bf       	out	0x3d, r28	; 61
    1fd0:	89 83       	std	Y+1, r24	; 0x01
    1fd2:	7b 01       	movw	r14, r22
struct dir_Structure *dir;
unsigned long cluster, byteCounter = 0, fileSize, firstSector;
unsigned int k;
unsigned char j, error;

error = convertFileName (fileName); //convert fileName into FAT format
    1fd4:	cb 01       	movw	r24, r22
    1fd6:	ad dc       	rcall	.-1702   	; 0x1932 <convertFileName>
if(error) return 2;
    1fd8:	81 11       	cpse	r24, r1
    1fda:	9c c0       	rjmp	.+312    	; 0x2114 <readFile+0x174>

dir = findFiles (GET_FILE, fileName); //get the file location
    1fdc:	b7 01       	movw	r22, r14
    1fde:	81 e0       	ldi	r24, 0x01	; 1
    1fe0:	04 de       	rcall	.-1016   	; 0x1bea <findFiles>
if(dir == 0) 
    1fe2:	00 97       	sbiw	r24, 0x00	; 0
    1fe4:	09 f4       	brne	.+2      	; 0x1fe8 <readFile+0x48>
    1fe6:	98 c0       	rjmp	.+304    	; 0x2118 <readFile+0x178>
  return (0);

if(flag == VERIFY) return (1);	//specified file name is already existing
    1fe8:	09 81       	ldd	r16, Y+1	; 0x01
    1fea:	01 30       	cpi	r16, 0x01	; 1
    1fec:	09 f4       	brne	.+2      	; 0x1ff0 <readFile+0x50>
    1fee:	96 c0       	rjmp	.+300    	; 0x211c <readFile+0x17c>

cluster = (((unsigned long) dir->firstClusterHI) << 16) | dir->firstClusterLO;
    1ff0:	dc 01       	movw	r26, r24
    1ff2:	54 96       	adiw	r26, 0x14	; 20
    1ff4:	4d 91       	ld	r20, X+
    1ff6:	5c 91       	ld	r21, X
    1ff8:	55 97       	sbiw	r26, 0x15	; 21
    1ffa:	60 e0       	ldi	r22, 0x00	; 0
    1ffc:	70 e0       	ldi	r23, 0x00	; 0
    1ffe:	ba 01       	movw	r22, r20
    2000:	55 27       	eor	r21, r21
    2002:	44 27       	eor	r20, r20
    2004:	5a 96       	adiw	r26, 0x1a	; 26
    2006:	cd 90       	ld	r12, X+
    2008:	dc 90       	ld	r13, X
    200a:	5b 97       	sbiw	r26, 0x1b	; 27
    200c:	e1 2c       	mov	r14, r1
    200e:	f1 2c       	mov	r15, r1
    2010:	8a 01       	movw	r16, r20
    2012:	9b 01       	movw	r18, r22
    2014:	0c 29       	or	r16, r12
    2016:	1d 29       	or	r17, r13
    2018:	2e 29       	or	r18, r14
    201a:	3f 29       	or	r19, r15
    201c:	0d 83       	std	Y+5, r16	; 0x05
    201e:	1e 83       	std	Y+6, r17	; 0x06
    2020:	2f 83       	std	Y+7, r18	; 0x07
    2022:	38 87       	std	Y+8, r19	; 0x08

fileSize = dir->fileSize;
    2024:	5c 96       	adiw	r26, 0x1c	; 28
    2026:	4d 90       	ld	r4, X+
    2028:	5d 90       	ld	r5, X+
    202a:	6d 90       	ld	r6, X+
    202c:	7c 90       	ld	r7, X

TX_NEWLINE;
    202e:	5f 97       	sbiw	r26, 0x1f	; 31
    2030:	8d e0       	ldi	r24, 0x0D	; 13
    2032:	e3 d3       	rcall	.+1990   	; 0x27fa <transmitByte>
    2034:	8a e0       	ldi	r24, 0x0A	; 10
TX_NEWLINE;
    2036:	e1 d3       	rcall	.+1986   	; 0x27fa <transmitByte>
    2038:	8d e0       	ldi	r24, 0x0D	; 13
    203a:	df d3       	rcall	.+1982   	; 0x27fa <transmitByte>
    203c:	8a e0       	ldi	r24, 0x0A	; 10
    203e:	dd d3       	rcall	.+1978   	; 0x27fa <transmitByte>
    2040:	c1 2c       	mov	r12, r1
//		  2, if file name is incompatible
//***************************************************************************
unsigned char readFile (unsigned char flag, unsigned char *fileName)
{
struct dir_Structure *dir;
unsigned long cluster, byteCounter = 0, fileSize, firstSector;
    2042:	d1 2c       	mov	r13, r1
    2044:	76 01       	movw	r14, r12
    2046:	53 01       	movw	r10, r6
    2048:	42 01       	movw	r8, r4
    204a:	1f ef       	ldi	r17, 0xFF	; 255
    204c:	81 1a       	sub	r8, r17
    204e:	91 0a       	sbc	r9, r17
    2050:	a1 0a       	sbc	r10, r17
    2052:	b1 0a       	sbc	r11, r17
TX_NEWLINE;
TX_NEWLINE;

while(1)
{
  firstSector = getFirstSector (cluster);
    2054:	6d 81       	ldd	r22, Y+5	; 0x05
    2056:	7e 81       	ldd	r23, Y+6	; 0x06
    2058:	8f 81       	ldd	r24, Y+7	; 0x07
    205a:	98 85       	ldd	r25, Y+8	; 0x08
    205c:	85 da       	rcall	.-2806   	; 0x1568 <getFirstSector>
    205e:	69 83       	std	Y+1, r22	; 0x01
    2060:	7a 83       	std	Y+2, r23	; 0x02
    2062:	8b 83       	std	Y+3, r24	; 0x03
    2064:	9c 83       	std	Y+4, r25	; 0x04
    2066:	80 91 72 0c 	lds	r24, 0x0C72	; 0x800c72 <sectorPerCluster>

  for(j=0; j<sectorPerCluster; j++)
    206a:	90 91 73 0c 	lds	r25, 0x0C73	; 0x800c73 <sectorPerCluster+0x1>
    206e:	89 2b       	or	r24, r25
    2070:	d1 f1       	breq	.+116    	; 0x20e6 <readFile+0x146>
    2072:	19 86       	std	Y+9, r1	; 0x09
    2074:	69 81       	ldd	r22, Y+1	; 0x01
  {
	  //liest Block von 512 Bytes aus mit SPI und schreibt Werte in buffer[]
    SD_readSingleBlock(firstSector + j);
    2076:	7a 81       	ldd	r23, Y+2	; 0x02
    2078:	8b 81       	ldd	r24, Y+3	; 0x03
    207a:	9c 81       	ldd	r25, Y+4	; 0x04
    207c:	09 85       	ldd	r16, Y+9	; 0x09
    207e:	60 0f       	add	r22, r16
    2080:	71 1d       	adc	r23, r1
    2082:	81 1d       	adc	r24, r1
    2084:	91 1d       	adc	r25, r1
    2086:	52 d1       	rcall	.+676    	; 0x232c <SD_readSingleBlock>
    2088:	c4 14       	cp	r12, r4
    
	for(k=0; k<512; k++)
    {
//       transmitByte(buffer[k]);
      if ((byteCounter++) >= fileSize ) return 0;
    208a:	d5 04       	cpc	r13, r5
    208c:	e6 04       	cpc	r14, r6
    208e:	f7 04       	cpc	r15, r7
    2090:	08 f0       	brcs	.+2      	; 0x2094 <readFile+0xf4>
    2092:	46 c0       	rjmp	.+140    	; 0x2120 <readFile+0x180>
    2094:	b7 01       	movw	r22, r14
    2096:	a6 01       	movw	r20, r12
    2098:	4f 5f       	subi	r20, 0xFF	; 255
    209a:	5d 4f       	sbci	r21, 0xFD	; 253
    209c:	6f 4f       	sbci	r22, 0xFF	; 255
    209e:	7f 4f       	sbci	r23, 0xFF	; 255
    20a0:	12 e0       	ldi	r17, 0x02	; 2
    20a2:	c1 0e       	add	r12, r17
    20a4:	d1 1c       	adc	r13, r1
    20a6:	e1 1c       	adc	r14, r1
    20a8:	f1 1c       	adc	r15, r1
    20aa:	02 c0       	rjmp	.+4      	; 0x20b0 <readFile+0x110>
    20ac:	6c 01       	movw	r12, r24
    20ae:	7d 01       	movw	r14, r26
    20b0:	8c 14       	cp	r8, r12
    20b2:	9d 04       	cpc	r9, r13
    20b4:	ae 04       	cpc	r10, r14
    20b6:	bf 04       	cpc	r11, r15
    20b8:	a9 f1       	breq	.+106    	; 0x2124 <readFile+0x184>
    20ba:	d7 01       	movw	r26, r14
    20bc:	c6 01       	movw	r24, r12
    20be:	01 96       	adiw	r24, 0x01	; 1
    20c0:	a1 1d       	adc	r26, r1
    20c2:	b1 1d       	adc	r27, r1
    20c4:	48 17       	cp	r20, r24
  for(j=0; j<sectorPerCluster; j++)
  {
	  //liest Block von 512 Bytes aus mit SPI und schreibt Werte in buffer[]
    SD_readSingleBlock(firstSector + j);
    
	for(k=0; k<512; k++)
    20c6:	59 07       	cpc	r21, r25
    20c8:	6a 07       	cpc	r22, r26
    20ca:	7b 07       	cpc	r23, r27
    20cc:	79 f7       	brne	.-34     	; 0x20ac <readFile+0x10c>
    20ce:	09 85       	ldd	r16, Y+9	; 0x09

while(1)
{
  firstSector = getFirstSector (cluster);

  for(j=0; j<sectorPerCluster; j++)
    20d0:	0f 5f       	subi	r16, 0xFF	; 255
    20d2:	09 87       	std	Y+9, r16	; 0x09
    20d4:	80 91 72 0c 	lds	r24, 0x0C72	; 0x800c72 <sectorPerCluster>
    20d8:	90 91 73 0c 	lds	r25, 0x0C73	; 0x800c73 <sectorPerCluster+0x1>
    20dc:	20 2f       	mov	r18, r16
    20de:	30 e0       	ldi	r19, 0x00	; 0
    20e0:	28 17       	cp	r18, r24
    20e2:	39 07       	cpc	r19, r25
    20e4:	38 f2       	brcs	.-114    	; 0x2074 <readFile+0xd4>
    20e6:	00 e0       	ldi	r16, 0x00	; 0
    {
//       transmitByte(buffer[k]);
      if ((byteCounter++) >= fileSize ) return 0;
    }
  }
  cluster = getSetNextCluster (cluster, GET, 0);
    20e8:	10 e0       	ldi	r17, 0x00	; 0
    20ea:	98 01       	movw	r18, r16
    20ec:	40 e0       	ldi	r20, 0x00	; 0
    20ee:	6d 81       	ldd	r22, Y+5	; 0x05
    20f0:	7e 81       	ldd	r23, Y+6	; 0x06
    20f2:	8f 81       	ldd	r24, Y+7	; 0x07
    20f4:	98 85       	ldd	r25, Y+8	; 0x08
    20f6:	59 da       	rcall	.-2894   	; 0x15aa <getSetNextCluster>
    20f8:	6d 83       	std	Y+5, r22	; 0x05
    20fa:	7e 83       	std	Y+6, r23	; 0x06
    20fc:	8f 83       	std	Y+7, r24	; 0x07
    20fe:	98 87       	std	Y+8, r25	; 0x08
  if(cluster == 0) {Uart_Transmit_IT_PC((char*)("Error in getting cluster")); return 0;}
    2100:	67 2b       	or	r22, r23
    2102:	68 2b       	or	r22, r24
    2104:	69 2b       	or	r22, r25
    2106:	09 f0       	breq	.+2      	; 0x210a <readFile+0x16a>
    2108:	a5 cf       	rjmp	.-182    	; 0x2054 <readFile+0xb4>
    210a:	83 e7       	ldi	r24, 0x73	; 115
    210c:	95 e0       	ldi	r25, 0x05	; 5
    210e:	0e d2       	rcall	.+1052   	; 0x252c <Uart_Transmit_IT_PC>
    2110:	80 e0       	ldi	r24, 0x00	; 0
    2112:	09 c0       	rjmp	.+18     	; 0x2126 <readFile+0x186>
    2114:	82 e0       	ldi	r24, 0x02	; 2
unsigned long cluster, byteCounter = 0, fileSize, firstSector;
unsigned int k;
unsigned char j, error;

error = convertFileName (fileName); //convert fileName into FAT format
if(error) return 2;
    2116:	07 c0       	rjmp	.+14     	; 0x2126 <readFile+0x186>
    2118:	80 e0       	ldi	r24, 0x00	; 0

dir = findFiles (GET_FILE, fileName); //get the file location
if(dir == 0) 
  return (0);
    211a:	05 c0       	rjmp	.+10     	; 0x2126 <readFile+0x186>
    211c:	81 e0       	ldi	r24, 0x01	; 1

if(flag == VERIFY) return (1);	//specified file name is already existing
    211e:	03 c0       	rjmp	.+6      	; 0x2126 <readFile+0x186>
    2120:	80 e0       	ldi	r24, 0x00	; 0
    SD_readSingleBlock(firstSector + j);
    
	for(k=0; k<512; k++)
    {
//       transmitByte(buffer[k]);
      if ((byteCounter++) >= fileSize ) return 0;
    2122:	01 c0       	rjmp	.+2      	; 0x2126 <readFile+0x186>
    2124:	80 e0       	ldi	r24, 0x00	; 0
    2126:	29 96       	adiw	r28, 0x09	; 9
  }
  cluster = getSetNextCluster (cluster, GET, 0);
  if(cluster == 0) {Uart_Transmit_IT_PC((char*)("Error in getting cluster")); return 0;}
}
return 0;
}
    2128:	0f b6       	in	r0, 0x3f	; 63
    212a:	f8 94       	cli
    212c:	de bf       	out	0x3e, r29	; 62
    212e:	0f be       	out	0x3f, r0	; 63
    2130:	cd bf       	out	0x3d, r28	; 61
    2132:	df 91       	pop	r29
    2134:	cf 91       	pop	r28
    2136:	1f 91       	pop	r17
    2138:	0f 91       	pop	r16
    213a:	ff 90       	pop	r15
    213c:	ef 90       	pop	r14
    213e:	df 90       	pop	r13
    2140:	cf 90       	pop	r12
    2142:	bf 90       	pop	r11
    2144:	af 90       	pop	r10
    2146:	9f 90       	pop	r9
    2148:	8f 90       	pop	r8
    214a:	7f 90       	pop	r7
    214c:	6f 90       	pop	r6
    214e:	5f 90       	pop	r5
    2150:	4f 90       	pop	r4
    2152:	08 95       	ret

00002154 <SD_sendCommand>:
    2154:	cf 92       	push	r12
response = SD_sendCommand(ERASE_SELECTED_BLOCKS, 0); //erase all selected blocks
if(response != 0x00)
  return response;

return 0; //normal return
}
    2156:	df 92       	push	r13
    2158:	ef 92       	push	r14
    215a:	ff 92       	push	r15
    215c:	1f 93       	push	r17
    215e:	cf 93       	push	r28
    2160:	df 93       	push	r29
    2162:	18 2f       	mov	r17, r24
    2164:	6a 01       	movw	r12, r20
    2166:	7b 01       	movw	r14, r22
    2168:	80 91 7a 0d 	lds	r24, 0x0D7A	; 0x800d7a <SDHC_flag>
    216c:	81 11       	cpse	r24, r1
    216e:	15 c0       	rjmp	.+42     	; 0x219a <SD_sendCommand+0x46>
    2170:	8f ee       	ldi	r24, 0xEF	; 239
    2172:	81 0f       	add	r24, r17
    2174:	82 30       	cpi	r24, 0x02	; 2
    2176:	40 f0       	brcs	.+16     	; 0x2188 <SD_sendCommand+0x34>
    2178:	88 ee       	ldi	r24, 0xE8	; 232
    217a:	81 0f       	add	r24, r17
    217c:	82 30       	cpi	r24, 0x02	; 2
    217e:	20 f0       	brcs	.+8      	; 0x2188 <SD_sendCommand+0x34>
    2180:	80 ee       	ldi	r24, 0xE0	; 224
    2182:	81 0f       	add	r24, r17
    2184:	82 30       	cpi	r24, 0x02	; 2
    2186:	48 f4       	brcc	.+18     	; 0x219a <SD_sendCommand+0x46>
    2188:	0b 2e       	mov	r0, r27
    218a:	b9 e0       	ldi	r27, 0x09	; 9
    218c:	cc 0c       	add	r12, r12
    218e:	dd 1c       	adc	r13, r13
    2190:	ee 1c       	adc	r14, r14
    2192:	ff 1c       	adc	r15, r15
    2194:	ba 95       	dec	r27
    2196:	d1 f7       	brne	.-12     	; 0x218c <SD_sendCommand+0x38>
    2198:	b0 2d       	mov	r27, r0
    219a:	40 98       	cbi	0x08, 0	; 8
    219c:	81 2f       	mov	r24, r17
    219e:	80 64       	ori	r24, 0x40	; 64
    21a0:	2e d1       	rcall	.+604    	; 0x23fe <spi_transmit>
    21a2:	8f 2d       	mov	r24, r15
    21a4:	2c d1       	rcall	.+600    	; 0x23fe <spi_transmit>
    21a6:	8e 2d       	mov	r24, r14
    21a8:	2a d1       	rcall	.+596    	; 0x23fe <spi_transmit>
    21aa:	8d 2d       	mov	r24, r13
    21ac:	28 d1       	rcall	.+592    	; 0x23fe <spi_transmit>
    21ae:	8c 2d       	mov	r24, r12
    21b0:	26 d1       	rcall	.+588    	; 0x23fe <spi_transmit>
    21b2:	18 30       	cpi	r17, 0x08	; 8
    21b4:	19 f4       	brne	.+6      	; 0x21bc <SD_sendCommand+0x68>
    21b6:	87 e8       	ldi	r24, 0x87	; 135
    21b8:	22 d1       	rcall	.+580    	; 0x23fe <spi_transmit>
    21ba:	06 c0       	rjmp	.+12     	; 0x21c8 <SD_sendCommand+0x74>
    21bc:	85 e9       	ldi	r24, 0x95	; 149
    21be:	1f d1       	rcall	.+574    	; 0x23fe <spi_transmit>
    21c0:	03 c0       	rjmp	.+6      	; 0x21c8 <SD_sendCommand+0x74>
    21c2:	c1 50       	subi	r28, 0x01	; 1
    21c4:	11 f4       	brne	.+4      	; 0x21ca <SD_sendCommand+0x76>
    21c6:	15 c0       	rjmp	.+42     	; 0x21f2 <SD_sendCommand+0x9e>
    21c8:	c0 e0       	ldi	r28, 0x00	; 0
    21ca:	1f d1       	rcall	.+574    	; 0x240a <spi_receive>
    21cc:	d8 2f       	mov	r29, r24
    21ce:	8f 3f       	cpi	r24, 0xFF	; 255
    21d0:	c1 f3       	breq	.-16     	; 0x21c2 <SD_sendCommand+0x6e>
    21d2:	81 11       	cpse	r24, r1
    21d4:	0e c0       	rjmp	.+28     	; 0x21f2 <SD_sendCommand+0x9e>
    21d6:	1a 33       	cpi	r17, 0x3A	; 58
    21d8:	61 f4       	brne	.+24     	; 0x21f2 <SD_sendCommand+0x9e>
    21da:	17 d1       	rcall	.+558    	; 0x240a <spi_receive>
    21dc:	86 ff       	sbrs	r24, 6
    21de:	04 c0       	rjmp	.+8      	; 0x21e8 <SD_sendCommand+0x94>
    21e0:	81 e0       	ldi	r24, 0x01	; 1
    21e2:	80 93 7a 0d 	sts	0x0D7A, r24	; 0x800d7a <SDHC_flag>
    21e6:	02 c0       	rjmp	.+4      	; 0x21ec <SD_sendCommand+0x98>
    21e8:	10 92 7a 0d 	sts	0x0D7A, r1	; 0x800d7a <SDHC_flag>
    21ec:	0e d1       	rcall	.+540    	; 0x240a <spi_receive>
    21ee:	0d d1       	rcall	.+538    	; 0x240a <spi_receive>
    21f0:	0c d1       	rcall	.+536    	; 0x240a <spi_receive>
    21f2:	0b d1       	rcall	.+534    	; 0x240a <spi_receive>
    21f4:	40 9a       	sbi	0x08, 0	; 8
    21f6:	8d 2f       	mov	r24, r29
    21f8:	df 91       	pop	r29
    21fa:	cf 91       	pop	r28
    21fc:	1f 91       	pop	r17
    21fe:	ff 90       	pop	r15
    2200:	ef 90       	pop	r14
    2202:	df 90       	pop	r13
    2204:	cf 90       	pop	r12
    2206:	08 95       	ret

00002208 <SD_init>:
    2208:	0f 93       	push	r16
    220a:	1f 93       	push	r17
    220c:	cf 93       	push	r28
    220e:	df 93       	push	r29
    2210:	1a e0       	ldi	r17, 0x0A	; 10
    2212:	8f ef       	ldi	r24, 0xFF	; 255
    2214:	f4 d0       	rcall	.+488    	; 0x23fe <spi_transmit>
    2216:	11 50       	subi	r17, 0x01	; 1
    2218:	e1 f7       	brne	.-8      	; 0x2212 <SD_init+0xa>
    221a:	40 98       	cbi	0x08, 0	; 8
    221c:	40 e0       	ldi	r20, 0x00	; 0
    221e:	50 e0       	ldi	r21, 0x00	; 0
    2220:	ba 01       	movw	r22, r20
    2222:	80 e0       	ldi	r24, 0x00	; 0
    2224:	97 df       	rcall	.-210    	; 0x2154 <SD_sendCommand>
    2226:	c0 e2       	ldi	r28, 0x20	; 32
    2228:	d0 e0       	ldi	r29, 0x00	; 0
    222a:	08 c0       	rjmp	.+16     	; 0x223c <SD_init+0x34>
    222c:	40 e0       	ldi	r20, 0x00	; 0
    222e:	50 e0       	ldi	r21, 0x00	; 0
    2230:	ba 01       	movw	r22, r20
    2232:	80 e0       	ldi	r24, 0x00	; 0
    2234:	8f df       	rcall	.-226    	; 0x2154 <SD_sendCommand>
    2236:	21 97       	sbiw	r28, 0x01	; 1
    2238:	09 f4       	brne	.+2      	; 0x223c <SD_init+0x34>
    223a:	68 c0       	rjmp	.+208    	; 0x230c <SD_init+0x104>
    223c:	81 30       	cpi	r24, 0x01	; 1
    223e:	b1 f7       	brne	.-20     	; 0x222c <SD_init+0x24>
    2240:	40 9a       	sbi	0x08, 0	; 8
    2242:	8f ef       	ldi	r24, 0xFF	; 255
    2244:	dc d0       	rcall	.+440    	; 0x23fe <spi_transmit>
    2246:	8f ef       	ldi	r24, 0xFF	; 255
    2248:	da d0       	rcall	.+436    	; 0x23fe <spi_transmit>
    224a:	4a ea       	ldi	r20, 0xAA	; 170
    224c:	51 e0       	ldi	r21, 0x01	; 1
    224e:	60 e0       	ldi	r22, 0x00	; 0
    2250:	70 e0       	ldi	r23, 0x00	; 0
    2252:	88 e0       	ldi	r24, 0x08	; 8
    2254:	7f df       	rcall	.-258    	; 0x2154 <SD_sendCommand>
    2256:	ce ef       	ldi	r28, 0xFE	; 254
    2258:	d0 e0       	ldi	r29, 0x00	; 0
    225a:	11 c0       	rjmp	.+34     	; 0x227e <SD_init+0x76>
    225c:	4a ea       	ldi	r20, 0xAA	; 170
    225e:	51 e0       	ldi	r21, 0x01	; 1
    2260:	60 e0       	ldi	r22, 0x00	; 0
    2262:	70 e0       	ldi	r23, 0x00	; 0
    2264:	88 e0       	ldi	r24, 0x08	; 8
    2266:	76 df       	rcall	.-276    	; 0x2154 <SD_sendCommand>
    2268:	21 97       	sbiw	r28, 0x01	; 1
    226a:	49 f4       	brne	.+18     	; 0x227e <SD_init+0x76>
    226c:	8d e0       	ldi	r24, 0x0D	; 13
    226e:	c5 d2       	rcall	.+1418   	; 0x27fa <transmitByte>
    2270:	8a e0       	ldi	r24, 0x0A	; 10
    2272:	c3 d2       	rcall	.+1414   	; 0x27fa <transmitByte>
    2274:	81 e0       	ldi	r24, 0x01	; 1
    2276:	80 93 8c 11 	sts	0x118C, r24	; 0x80118c <cardType>
    227a:	01 e0       	ldi	r16, 0x01	; 1
    227c:	03 c0       	rjmp	.+6      	; 0x2284 <SD_init+0x7c>
    227e:	81 30       	cpi	r24, 0x01	; 1
    2280:	69 f7       	brne	.-38     	; 0x225c <SD_init+0x54>
    2282:	02 e0       	ldi	r16, 0x02	; 2
    2284:	40 e0       	ldi	r20, 0x00	; 0
    2286:	50 e0       	ldi	r21, 0x00	; 0
    2288:	ba 01       	movw	r22, r20
    228a:	87 e3       	ldi	r24, 0x37	; 55
    228c:	63 df       	rcall	.-314    	; 0x2154 <SD_sendCommand>
    228e:	40 e0       	ldi	r20, 0x00	; 0
    2290:	50 e0       	ldi	r21, 0x00	; 0
    2292:	60 e0       	ldi	r22, 0x00	; 0
    2294:	70 e4       	ldi	r23, 0x40	; 64
    2296:	89 e2       	ldi	r24, 0x29	; 41
    2298:	5d df       	rcall	.-326    	; 0x2154 <SD_sendCommand>
    229a:	ce ef       	ldi	r28, 0xFE	; 254
    229c:	d0 e0       	ldi	r29, 0x00	; 0
    229e:	13 c0       	rjmp	.+38     	; 0x22c6 <SD_init+0xbe>
    22a0:	40 e0       	ldi	r20, 0x00	; 0
    22a2:	50 e0       	ldi	r21, 0x00	; 0
    22a4:	ba 01       	movw	r22, r20
    22a6:	87 e3       	ldi	r24, 0x37	; 55
    22a8:	55 df       	rcall	.-342    	; 0x2154 <SD_sendCommand>
    22aa:	40 e0       	ldi	r20, 0x00	; 0
    22ac:	50 e0       	ldi	r21, 0x00	; 0
    22ae:	60 e0       	ldi	r22, 0x00	; 0
    22b0:	70 e4       	ldi	r23, 0x40	; 64
    22b2:	89 e2       	ldi	r24, 0x29	; 41
    22b4:	4f df       	rcall	.-354    	; 0x2154 <SD_sendCommand>
    22b6:	21 97       	sbiw	r28, 0x01	; 1
    22b8:	31 f4       	brne	.+12     	; 0x22c6 <SD_init+0xbe>
    22ba:	8d e0       	ldi	r24, 0x0D	; 13
    22bc:	9e d2       	rcall	.+1340   	; 0x27fa <transmitByte>
    22be:	8a e0       	ldi	r24, 0x0A	; 10
    22c0:	9c d2       	rcall	.+1336   	; 0x27fa <transmitByte>
    22c2:	12 e0       	ldi	r17, 0x02	; 2
    22c4:	2d c0       	rjmp	.+90     	; 0x2320 <SD_init+0x118>
    22c6:	81 11       	cpse	r24, r1
    22c8:	eb cf       	rjmp	.-42     	; 0x22a0 <SD_init+0x98>
    22ca:	10 92 7a 0d 	sts	0x0D7A, r1	; 0x800d7a <SDHC_flag>
    22ce:	02 30       	cpi	r16, 0x02	; 2
    22d0:	39 f5       	brne	.+78     	; 0x2320 <SD_init+0x118>
    22d2:	1e c0       	rjmp	.+60     	; 0x2310 <SD_init+0x108>
    22d4:	40 e0       	ldi	r20, 0x00	; 0
    22d6:	50 e0       	ldi	r21, 0x00	; 0
    22d8:	ba 01       	movw	r22, r20
    22da:	8a e3       	ldi	r24, 0x3A	; 58
    22dc:	3b df       	rcall	.-394    	; 0x2154 <SD_sendCommand>
    22de:	21 97       	sbiw	r28, 0x01	; 1
    22e0:	39 f4       	brne	.+14     	; 0x22f0 <SD_init+0xe8>
    22e2:	8d e0       	ldi	r24, 0x0D	; 13
    22e4:	8a d2       	rcall	.+1300   	; 0x27fa <transmitByte>
    22e6:	8a e0       	ldi	r24, 0x0A	; 10
    22e8:	88 d2       	rcall	.+1296   	; 0x27fa <transmitByte>
    22ea:	10 92 8c 11 	sts	0x118C, r1	; 0x80118c <cardType>
    22ee:	02 c0       	rjmp	.+4      	; 0x22f4 <SD_init+0xec>
    22f0:	81 11       	cpse	r24, r1
    22f2:	f0 cf       	rjmp	.-32     	; 0x22d4 <SD_init+0xcc>
    22f4:	80 91 7a 0d 	lds	r24, 0x0D7A	; 0x800d7a <SDHC_flag>
    22f8:	81 30       	cpi	r24, 0x01	; 1
    22fa:	21 f4       	brne	.+8      	; 0x2304 <SD_init+0xfc>
    22fc:	82 e0       	ldi	r24, 0x02	; 2
    22fe:	80 93 8c 11 	sts	0x118C, r24	; 0x80118c <cardType>
    2302:	0e c0       	rjmp	.+28     	; 0x2320 <SD_init+0x118>
    2304:	83 e0       	ldi	r24, 0x03	; 3
    2306:	80 93 8c 11 	sts	0x118C, r24	; 0x80118c <cardType>
    230a:	0a c0       	rjmp	.+20     	; 0x2320 <SD_init+0x118>
    230c:	11 e0       	ldi	r17, 0x01	; 1
    230e:	08 c0       	rjmp	.+16     	; 0x2320 <SD_init+0x118>
    2310:	40 e0       	ldi	r20, 0x00	; 0
    2312:	50 e0       	ldi	r21, 0x00	; 0
    2314:	ba 01       	movw	r22, r20
    2316:	8a e3       	ldi	r24, 0x3A	; 58
    2318:	1d df       	rcall	.-454    	; 0x2154 <SD_sendCommand>
    231a:	ce ef       	ldi	r28, 0xFE	; 254
    231c:	d0 e0       	ldi	r29, 0x00	; 0
    231e:	e8 cf       	rjmp	.-48     	; 0x22f0 <SD_init+0xe8>
    2320:	81 2f       	mov	r24, r17
    2322:	df 91       	pop	r29
    2324:	cf 91       	pop	r28
    2326:	1f 91       	pop	r17
    2328:	0f 91       	pop	r16
    232a:	08 95       	ret

0000232c <SD_readSingleBlock>:
//Arguments	: none
//return	: unsigned char; will be 0 if no error,
// 			  otherwise the response byte will be sent
//******************************************************************
unsigned char SD_readSingleBlock(unsigned long startBlock)
{
    232c:	cf 93       	push	r28
    232e:	df 93       	push	r29
    2330:	ab 01       	movw	r20, r22
    2332:	bc 01       	movw	r22, r24
unsigned char response;
unsigned int i, retry=0;

 response = SD_sendCommand(READ_SINGLE_BLOCK, startBlock); //read a Block command
    2334:	81 e1       	ldi	r24, 0x11	; 17
    2336:	0e df       	rcall	.-484    	; 0x2154 <SD_sendCommand>
 
 if(response != 0x00) return response; //check for SD status: 0x00 - OK (No flags set)
    2338:	81 11       	cpse	r24, r1
    233a:	1d c0       	rjmp	.+58     	; 0x2376 <SD_readSingleBlock+0x4a>

SD_CS_ASSERT;
    233c:	40 98       	cbi	0x08, 0	; 8

retry = 0;
while(spi_receive() != 0xfe) //wait for start block token 0xfe (0x11111110)
    233e:	c0 e0       	ldi	r28, 0x00	; 0
    2340:	d0 e0       	ldi	r29, 0x00	; 0
    2342:	05 c0       	rjmp	.+10     	; 0x234e <SD_readSingleBlock+0x22>
    2344:	21 97       	sbiw	r28, 0x01	; 1
  if(retry++ > 0xfffe){SD_CS_DEASSERT; return 1;} //return if time-out
    2346:	19 f4       	brne	.+6      	; 0x234e <SD_readSingleBlock+0x22>
    2348:	40 9a       	sbi	0x08, 0	; 8
    234a:	81 e0       	ldi	r24, 0x01	; 1
 if(response != 0x00) return response; //check for SD status: 0x00 - OK (No flags set)

SD_CS_ASSERT;

retry = 0;
while(spi_receive() != 0xfe) //wait for start block token 0xfe (0x11111110)
    234c:	14 c0       	rjmp	.+40     	; 0x2376 <SD_readSingleBlock+0x4a>
    234e:	5d d0       	rcall	.+186    	; 0x240a <spi_receive>
    2350:	8e 3f       	cpi	r24, 0xFE	; 254
    2352:	c1 f7       	brne	.-16     	; 0x2344 <SD_readSingleBlock+0x18>
    2354:	c0 e0       	ldi	r28, 0x00	; 0
  if(retry++ > 0xfffe){SD_CS_DEASSERT; return 1;} //return if time-out

for(i=0; i<512; i++) //read 512 bytes
  buffer[i] = spi_receive();
    2356:	d0 e0       	ldi	r29, 0x00	; 0
    2358:	58 d0       	rcall	.+176    	; 0x240a <spi_receive>
    235a:	fe 01       	movw	r30, r28
    235c:	ef 58       	subi	r30, 0x8F	; 143
    235e:	f5 4f       	sbci	r31, 0xF5	; 245
    2360:	80 83       	st	Z, r24

retry = 0;
while(spi_receive() != 0xfe) //wait for start block token 0xfe (0x11111110)
  if(retry++ > 0xfffe){SD_CS_DEASSERT; return 1;} //return if time-out

for(i=0; i<512; i++) //read 512 bytes
    2362:	21 96       	adiw	r28, 0x01	; 1
    2364:	c1 15       	cp	r28, r1
    2366:	82 e0       	ldi	r24, 0x02	; 2
  buffer[i] = spi_receive();

spi_receive(); //receive incoming CRC (16-bit), CRC is ignored here
    2368:	d8 07       	cpc	r29, r24
    236a:	b1 f7       	brne	.-20     	; 0x2358 <SD_readSingleBlock+0x2c>
spi_receive();
    236c:	4e d0       	rcall	.+156    	; 0x240a <spi_receive>
    236e:	4d d0       	rcall	.+154    	; 0x240a <spi_receive>

spi_receive(); //extra 8 clock pulses
    2370:	4c d0       	rcall	.+152    	; 0x240a <spi_receive>
    2372:	40 9a       	sbi	0x08, 0	; 8
SD_CS_DEASSERT;
    2374:	80 e0       	ldi	r24, 0x00	; 0

return 0;
    2376:	df 91       	pop	r29
}
    2378:	cf 91       	pop	r28
    237a:	08 95       	ret

0000237c <SD_writeSingleBlock>:
    237c:	cf 93       	push	r28
//Arguments	: none
//return	: unsigned char; will be 0 if no error,
// 			  otherwise the response byte will be sent
//******************************************************************
unsigned char SD_writeSingleBlock(unsigned long startBlock)
{
    237e:	df 93       	push	r29
    2380:	ab 01       	movw	r20, r22
    2382:	bc 01       	movw	r22, r24
unsigned char response;
unsigned int i, retry=0;

 response = SD_sendCommand(WRITE_SINGLE_BLOCK, startBlock); //write a Block command
    2384:	88 e1       	ldi	r24, 0x18	; 24
    2386:	e6 de       	rcall	.-564    	; 0x2154 <SD_sendCommand>
  
 if(response != 0x00) return response; //check for SD status: 0x00 - OK (No flags set)
    2388:	81 11       	cpse	r24, r1
    238a:	36 c0       	rjmp	.+108    	; 0x23f8 <SD_writeSingleBlock+0x7c>

SD_CS_ASSERT;
    238c:	40 98       	cbi	0x08, 0	; 8

spi_transmit(0xfe);     //Send start block token 0xfe (0x11111110)
    238e:	8e ef       	ldi	r24, 0xFE	; 254
    2390:	36 d0       	rcall	.+108    	; 0x23fe <spi_transmit>

for(i=0; i<512; i++)    //send 512 bytes data
    2392:	c0 e0       	ldi	r28, 0x00	; 0
    2394:	d0 e0       	ldi	r29, 0x00	; 0
  spi_transmit(buffer[i]);
    2396:	fe 01       	movw	r30, r28
    2398:	ef 58       	subi	r30, 0x8F	; 143
    239a:	f5 4f       	sbci	r31, 0xF5	; 245
    239c:	80 81       	ld	r24, Z
    239e:	2f d0       	rcall	.+94     	; 0x23fe <spi_transmit>

SD_CS_ASSERT;

spi_transmit(0xfe);     //Send start block token 0xfe (0x11111110)

for(i=0; i<512; i++)    //send 512 bytes data
    23a0:	21 96       	adiw	r28, 0x01	; 1
    23a2:	c1 15       	cp	r28, r1
    23a4:	22 e0       	ldi	r18, 0x02	; 2
    23a6:	d2 07       	cpc	r29, r18
  spi_transmit(buffer[i]);

spi_transmit(0xff);     //transmit dummy CRC (16-bit), CRC is ignored here
    23a8:	b1 f7       	brne	.-20     	; 0x2396 <SD_writeSingleBlock+0x1a>
spi_transmit(0xff);
    23aa:	8f ef       	ldi	r24, 0xFF	; 255
    23ac:	28 d0       	rcall	.+80     	; 0x23fe <spi_transmit>
    23ae:	8f ef       	ldi	r24, 0xFF	; 255

response = spi_receive();
    23b0:	26 d0       	rcall	.+76     	; 0x23fe <spi_transmit>
    23b2:	2b d0       	rcall	.+86     	; 0x240a <spi_receive>

if( (response & 0x1f) != 0x05) //response= 0xXXX0AAA1 ; AAA='010' - data accepted
    23b4:	98 2f       	mov	r25, r24
    23b6:	9f 71       	andi	r25, 0x1F	; 31
    23b8:	95 30       	cpi	r25, 0x05	; 5
    23ba:	39 f0       	breq	.+14     	; 0x23ca <SD_writeSingleBlock+0x4e>
{                              //AAA='101'-data rejected due to CRC error
  SD_CS_DEASSERT;              //AAA='110'-data rejected due to write error
    23bc:	40 9a       	sbi	0x08, 0	; 8
  return response;
    23be:	1c c0       	rjmp	.+56     	; 0x23f8 <SD_writeSingleBlock+0x7c>
}

while(!spi_receive()) //wait for SD card to complete writing and get idle
if(retry++ > 0xfffe){SD_CS_DEASSERT; return 1;}
    23c0:	21 96       	adiw	r28, 0x01	; 1
    23c2:	29 f4       	brne	.+10     	; 0x23ce <SD_writeSingleBlock+0x52>
    23c4:	40 9a       	sbi	0x08, 0	; 8
    23c6:	81 e0       	ldi	r24, 0x01	; 1
    23c8:	17 c0       	rjmp	.+46     	; 0x23f8 <SD_writeSingleBlock+0x7c>
{                              //AAA='101'-data rejected due to CRC error
  SD_CS_DEASSERT;              //AAA='110'-data rejected due to write error
  return response;
}

while(!spi_receive()) //wait for SD card to complete writing and get idle
    23ca:	c0 e0       	ldi	r28, 0x00	; 0
    23cc:	d0 e0       	ldi	r29, 0x00	; 0
    23ce:	1d d0       	rcall	.+58     	; 0x240a <spi_receive>
    23d0:	88 23       	and	r24, r24
if(retry++ > 0xfffe){SD_CS_DEASSERT; return 1;}

SD_CS_DEASSERT;
    23d2:	b1 f3       	breq	.-20     	; 0x23c0 <SD_writeSingleBlock+0x44>
spi_transmit(0xff);   //just spend 8 clock cycle delay before reasserting the CS line
    23d4:	40 9a       	sbi	0x08, 0	; 8
    23d6:	8f ef       	ldi	r24, 0xFF	; 255
    23d8:	12 d0       	rcall	.+36     	; 0x23fe <spi_transmit>
SD_CS_ASSERT;         //re-asserting the CS line to verify if card is still busy
    23da:	40 98       	cbi	0x08, 0	; 8

while(!spi_receive()) //wait for SD card to complete writing and get idle
    23dc:	08 c0       	rjmp	.+16     	; 0x23ee <SD_writeSingleBlock+0x72>
   if(retry++ > 0xfffe){SD_CS_DEASSERT; return 1;}
    23de:	ce 01       	movw	r24, r28
    23e0:	01 96       	adiw	r24, 0x01	; 1
    23e2:	21 96       	adiw	r28, 0x01	; 1
    23e4:	19 f4       	brne	.+6      	; 0x23ec <SD_writeSingleBlock+0x70>
    23e6:	40 9a       	sbi	0x08, 0	; 8
    23e8:	81 e0       	ldi	r24, 0x01	; 1
    23ea:	06 c0       	rjmp	.+12     	; 0x23f8 <SD_writeSingleBlock+0x7c>

SD_CS_DEASSERT;
spi_transmit(0xff);   //just spend 8 clock cycle delay before reasserting the CS line
SD_CS_ASSERT;         //re-asserting the CS line to verify if card is still busy

while(!spi_receive()) //wait for SD card to complete writing and get idle
    23ec:	ec 01       	movw	r28, r24
    23ee:	0d d0       	rcall	.+26     	; 0x240a <spi_receive>
    23f0:	88 23       	and	r24, r24
    23f2:	a9 f3       	breq	.-22     	; 0x23de <SD_writeSingleBlock+0x62>
   if(retry++ > 0xfffe){SD_CS_DEASSERT; return 1;}
SD_CS_DEASSERT;
    23f4:	40 9a       	sbi	0x08, 0	; 8

return 0;
    23f6:	80 e0       	ldi	r24, 0x00	; 0
}
    23f8:	df 91       	pop	r29
    23fa:	cf 91       	pop	r28
    23fc:	08 95       	ret

000023fe <spi_transmit>:
		case MFRC522:
		SPI_CS_RC522_PORT &= ~SPI_CS_RC522_BIT;
		break;
		
		case SDCARD:
		SPI_CS_SD_CARD_PORT &= ~SPI_CS_SD_CARD_BIT;
    23fe:	8e bd       	out	0x2e, r24	; 46
    2400:	0d b4       	in	r0, 0x2d	; 45
    2402:	07 fe       	sbrs	r0, 7
    2404:	fd cf       	rjmp	.-6      	; 0x2400 <spi_transmit+0x2>
    2406:	8e b5       	in	r24, 0x2e	; 46
    2408:	08 95       	ret

0000240a <spi_receive>:
    240a:	8f ef       	ldi	r24, 0xFF	; 255
    240c:	8e bd       	out	0x2e, r24	; 46
    240e:	0d b4       	in	r0, 0x2d	; 45
    2410:	07 fe       	sbrs	r0, 7
    2412:	fd cf       	rjmp	.-6      	; 0x240e <spi_receive+0x4>
    2414:	8e b5       	in	r24, 0x2e	; 46
    2416:	08 95       	ret

00002418 <disable_Slave>:
	}
}

void disable_Slave(uint8_t Slave)
{
	switch (Slave)
    2418:	81 30       	cpi	r24, 0x01	; 1
    241a:	41 f0       	breq	.+16     	; 0x242c <disable_Slave+0x14>
    241c:	28 f0       	brcs	.+10     	; 0x2428 <disable_Slave+0x10>
    241e:	82 30       	cpi	r24, 0x02	; 2
    2420:	59 f0       	breq	.+22     	; 0x2438 <disable_Slave+0x20>
    2422:	83 30       	cpi	r24, 0x03	; 3
    2424:	59 f0       	breq	.+22     	; 0x243c <disable_Slave+0x24>
    2426:	08 95       	ret
	{
		case TMC4671:
		SPI_CS_TMC4671_PORT |= SPI_CS_TMC4671_BIT;
    2428:	28 9a       	sbi	0x05, 0	; 5
		break;
    242a:	08 95       	ret
		
		case TMC6200:
		SPI_CS_TMC6200_PORT |= SPI_CS_TMC6200_BIT;
    242c:	e2 e0       	ldi	r30, 0x02	; 2
    242e:	f1 e0       	ldi	r31, 0x01	; 1
    2430:	80 81       	ld	r24, Z
    2432:	80 64       	ori	r24, 0x40	; 64
    2434:	80 83       	st	Z, r24
		break;
    2436:	08 95       	ret
		
		case MFRC522:
		SPI_CS_RC522_PORT |= SPI_CS_RC522_BIT;
    2438:	41 9a       	sbi	0x08, 1	; 8
		break;
    243a:	08 95       	ret
		
		case SDCARD:
		SPI_CS_SD_CARD_PORT |= SPI_CS_SD_CARD_BIT;
    243c:	40 9a       	sbi	0x08, 0	; 8
    243e:	08 95       	ret

00002440 <SPI_init>:

void SPI_init(void)
{
	// Einstellungen für TMC4671: CLK = 1MHz, SPI-Mode = 3, MSB first)

	SPCR = ((1<<SPE)|       // SPI Enable					(1 = Enable, 0 = Disable)					Datasheet S. 197 (Kapitel 21.2.1)
    2440:	83 e5       	ldi	r24, 0x53	; 83
    2442:	8c bd       	out	0x2c, r24	; 44
	(1<<MSTR)|              // Master/Slave select			(0 = Slave, 1 = Master)						Datasheet S. 197 (Kapitel 21.2.1)
	(1<<SPR1)|(1<<SPR0)|    // SPI Clock Rate				(Divider Systemclock 16MHz)					Datasheet S. 198 (Kapitel 21.2.1)
	(0<<CPOL)|              // Clock Polarity when idle		(0 = low, 1 = SCK high)						Datasheet S. 197 (Kapitel 21.2.1)
	(0<<CPHA));             // Clock Phase edge sampling	(0 = leading, 1 = trailing edge sampling)	Datasheet S. 197 (Kapitel 21.2.1)

	SPSR = (0<<SPI2X);      // Double Clock Rate			(0 = Disable, 1 = Enable)					Datasheet S. 198 (Kapitel 21.2.1)
    2444:	1d bc       	out	0x2d, r1	; 45

	RB_init(&rb_SPI_w);
    2446:	8b e8       	ldi	r24, 0x8B	; 139
    2448:	90 e1       	ldi	r25, 0x10	; 16
    244a:	10 d8       	rcall	.-4064   	; 0x146c <RB_init>
	RB_init(&rb_SPI_r);
    244c:	8b e7       	ldi	r24, 0x7B	; 123
    244e:	9d e0       	ldi	r25, 0x0D	; 13
    2450:	0d d8       	rcall	.-4070   	; 0x146c <RB_init>

	disable_Slave(TMC4671);
    2452:	80 e0       	ldi	r24, 0x00	; 0
    2454:	e1 df       	rcall	.-62     	; 0x2418 <disable_Slave>
	disable_Slave(TMC6200);
    2456:	81 e0       	ldi	r24, 0x01	; 1
    2458:	df df       	rcall	.-66     	; 0x2418 <disable_Slave>
	disable_Slave(MFRC522);
    245a:	82 e0       	ldi	r24, 0x02	; 2
    245c:	dd cf       	rjmp	.-70     	; 0x2418 <disable_Slave>
    245e:	08 95       	ret

00002460 <tx_completed>:
    2460:	00 00       	nop
	while(RB_length(&rb_rx_PC)==0); 	// Wait for incomming data
	
	data = RB_readByte(&rb_rx_PC);
	
	return(data);
}
    2462:	00 00       	nop
    2464:	08 95       	ret

00002466 <UART_init>:
    2466:	ef 92       	push	r14
    2468:	ff 92       	push	r15
    246a:	0f 93       	push	r16
    246c:	1f 93       	push	r17
    246e:	cf 93       	push	r28
    2470:	df 93       	push	r29
    2472:	10 92 c5 00 	sts	0x00C5, r1	; 0x8000c5 <__TEXT_REGION_LENGTH__+0x7000c5>
    2476:	97 e6       	ldi	r25, 0x67	; 103
    2478:	90 93 c4 00 	sts	0x00C4, r25	; 0x8000c4 <__TEXT_REGION_LENGTH__+0x7000c4>
    247c:	0f 2e       	mov	r0, r31
    247e:	f1 ec       	ldi	r31, 0xC1	; 193
    2480:	ef 2e       	mov	r14, r31
    2482:	f1 2c       	mov	r15, r1
    2484:	f0 2d       	mov	r31, r0
    2486:	88 e1       	ldi	r24, 0x18	; 24
    2488:	f7 01       	movw	r30, r14
    248a:	80 83       	st	Z, r24
    248c:	86 e0       	ldi	r24, 0x06	; 6
    248e:	80 93 c2 00 	sts	0x00C2, r24	; 0x8000c2 <__TEXT_REGION_LENGTH__+0x7000c2>
    2492:	10 92 cd 00 	sts	0x00CD, r1	; 0x8000cd <__TEXT_REGION_LENGTH__+0x7000cd>
    2496:	90 93 cc 00 	sts	0x00CC, r25	; 0x8000cc <__TEXT_REGION_LENGTH__+0x7000cc>
    249a:	09 ec       	ldi	r16, 0xC9	; 201
    249c:	10 e0       	ldi	r17, 0x00	; 0
    249e:	28 e9       	ldi	r18, 0x98	; 152
    24a0:	f8 01       	movw	r30, r16
    24a2:	20 83       	st	Z, r18
    24a4:	80 93 ca 00 	sts	0x00CA, r24	; 0x8000ca <__TEXT_REGION_LENGTH__+0x7000ca>
    24a8:	10 92 d5 00 	sts	0x00D5, r1	; 0x8000d5 <__TEXT_REGION_LENGTH__+0x7000d5>
    24ac:	90 93 d4 00 	sts	0x00D4, r25	; 0x8000d4 <__TEXT_REGION_LENGTH__+0x7000d4>
    24b0:	c1 ed       	ldi	r28, 0xD1	; 209
    24b2:	d0 e0       	ldi	r29, 0x00	; 0
    24b4:	28 83       	st	Y, r18
    24b6:	80 93 d2 00 	sts	0x00D2, r24	; 0x8000d2 <__TEXT_REGION_LENGTH__+0x7000d2>
    24ba:	85 e3       	ldi	r24, 0x35	; 53
    24bc:	96 e0       	ldi	r25, 0x06	; 6
    24be:	0e 94 36 0a 	call	0x146c	; 0x146c <RB_init>
    24c2:	83 e8       	ldi	r24, 0x83	; 131
    24c4:	9e e0       	ldi	r25, 0x0E	; 14
    24c6:	0e 94 36 0a 	call	0x146c	; 0x146c <RB_init>
    24ca:	8a e3       	ldi	r24, 0x3A	; 58
    24cc:	97 e0       	ldi	r25, 0x07	; 7
    24ce:	0e 94 36 0a 	call	0x146c	; 0x146c <RB_init>
    24d2:	80 e7       	ldi	r24, 0x70	; 112
    24d4:	99 e0       	ldi	r25, 0x09	; 9
    24d6:	0e 94 36 0a 	call	0x146c	; 0x146c <RB_init>
    24da:	84 e8       	ldi	r24, 0x84	; 132
    24dc:	9f e0       	ldi	r25, 0x0F	; 15
    24de:	0e 94 36 0a 	call	0x146c	; 0x146c <RB_init>
    24e2:	89 e6       	ldi	r24, 0x69	; 105
    24e4:	98 e0       	ldi	r25, 0x08	; 8
    24e6:	0e 94 36 0a 	call	0x146c	; 0x146c <RB_init>
    24ea:	f7 01       	movw	r30, r14
    24ec:	80 81       	ld	r24, Z
    24ee:	80 68       	ori	r24, 0x80	; 128
    24f0:	80 83       	st	Z, r24
    24f2:	f8 01       	movw	r30, r16
    24f4:	80 81       	ld	r24, Z
    24f6:	80 68       	ori	r24, 0x80	; 128
    24f8:	80 83       	st	Z, r24
    24fa:	88 81       	ld	r24, Y
    24fc:	80 68       	ori	r24, 0x80	; 128
    24fe:	88 83       	st	Y, r24
    2500:	78 94       	sei
    2502:	80 e3       	ldi	r24, 0x30	; 48
    2504:	92 e1       	ldi	r25, 0x12	; 18
    2506:	90 93 a4 12 	sts	0x12A4, r25	; 0x8012a4 <ptr_tx_completed_0+0x1>
    250a:	80 93 a3 12 	sts	0x12A3, r24	; 0x8012a3 <ptr_tx_completed_0>
    250e:	90 93 9e 12 	sts	0x129E, r25	; 0x80129e <ptr_tx_completed_1+0x1>
    2512:	80 93 9d 12 	sts	0x129D, r24	; 0x80129d <ptr_tx_completed_1>
    2516:	90 93 a0 12 	sts	0x12A0, r25	; 0x8012a0 <ptr_tx_completed_2+0x1>
    251a:	80 93 9f 12 	sts	0x129F, r24	; 0x80129f <ptr_tx_completed_2>
    251e:	df 91       	pop	r29
    2520:	cf 91       	pop	r28
    2522:	1f 91       	pop	r17
    2524:	0f 91       	pop	r16
    2526:	ff 90       	pop	r15
    2528:	ef 90       	pop	r14
    252a:	08 95       	ret

0000252c <Uart_Transmit_IT_PC>:
    252c:	fc 01       	movw	r30, r24
    252e:	01 90       	ld	r0, Z+
    2530:	00 20       	and	r0, r0
    2532:	e9 f7       	brne	.-6      	; 0x252e <Uart_Transmit_IT_PC+0x2>
    2534:	31 97       	sbiw	r30, 0x01	; 1
    2536:	af 01       	movw	r20, r30
    2538:	48 1b       	sub	r20, r24
    253a:	59 0b       	sbc	r21, r25
    253c:	bc 01       	movw	r22, r24
    253e:	85 e3       	ldi	r24, 0x35	; 53
    2540:	96 e0       	ldi	r25, 0x06	; 6
    2542:	0e 94 82 0a 	call	0x1504	; 0x1504 <RB_write>
    2546:	e1 ec       	ldi	r30, 0xC1	; 193
    2548:	f0 e0       	ldi	r31, 0x00	; 0
    254a:	80 81       	ld	r24, Z
    254c:	80 62       	ori	r24, 0x20	; 32
    254e:	80 83       	st	Z, r24
    2550:	08 95       	ret

00002552 <Uart_Transmit_IT_Display>:
    2552:	fc 01       	movw	r30, r24
    2554:	01 90       	ld	r0, Z+
    2556:	00 20       	and	r0, r0
    2558:	e9 f7       	brne	.-6      	; 0x2554 <Uart_Transmit_IT_Display+0x2>
    255a:	31 97       	sbiw	r30, 0x01	; 1
    255c:	af 01       	movw	r20, r30
    255e:	48 1b       	sub	r20, r24
    2560:	59 0b       	sbc	r21, r25
    2562:	bc 01       	movw	r22, r24
    2564:	8a e3       	ldi	r24, 0x3A	; 58
    2566:	97 e0       	ldi	r25, 0x07	; 7
    2568:	0e 94 82 0a 	call	0x1504	; 0x1504 <RB_write>
    256c:	e9 ec       	ldi	r30, 0xC9	; 201
    256e:	f0 e0       	ldi	r31, 0x00	; 0
    2570:	80 81       	ld	r24, Z
    2572:	80 62       	ori	r24, 0x20	; 32
    2574:	80 83       	st	Z, r24
    2576:	08 95       	ret

00002578 <__vector_26>:
    2578:	1f 92       	push	r1
    257a:	0f 92       	push	r0
    257c:	0f b6       	in	r0, 0x3f	; 63
    257e:	0f 92       	push	r0
    2580:	11 24       	eor	r1, r1
    2582:	0b b6       	in	r0, 0x3b	; 59
    2584:	0f 92       	push	r0
    2586:	2f 93       	push	r18
    2588:	3f 93       	push	r19
    258a:	4f 93       	push	r20
    258c:	5f 93       	push	r21
    258e:	6f 93       	push	r22
    2590:	7f 93       	push	r23
    2592:	8f 93       	push	r24
    2594:	9f 93       	push	r25
    2596:	af 93       	push	r26
    2598:	bf 93       	push	r27
    259a:	ef 93       	push	r30
    259c:	ff 93       	push	r31
    259e:	85 e3       	ldi	r24, 0x35	; 53
    25a0:	96 e0       	ldi	r25, 0x06	; 6
    25a2:	0e 94 45 0a 	call	0x148a	; 0x148a <RB_length>
    25a6:	88 23       	and	r24, r24
    25a8:	39 f0       	breq	.+14     	; 0x25b8 <__vector_26+0x40>
    25aa:	85 e3       	ldi	r24, 0x35	; 53
    25ac:	96 e0       	ldi	r25, 0x06	; 6
    25ae:	0e 94 51 0a 	call	0x14a2	; 0x14a2 <RB_readByte>
    25b2:	80 93 c6 00 	sts	0x00C6, r24	; 0x8000c6 <__TEXT_REGION_LENGTH__+0x7000c6>
    25b6:	0c c0       	rjmp	.+24     	; 0x25d0 <__vector_26+0x58>
    25b8:	e1 ec       	ldi	r30, 0xC1	; 193
    25ba:	f0 e0       	ldi	r31, 0x00	; 0
    25bc:	80 81       	ld	r24, Z
    25be:	8f 7d       	andi	r24, 0xDF	; 223
    25c0:	80 83       	st	Z, r24
    25c2:	e0 91 a3 12 	lds	r30, 0x12A3	; 0x8012a3 <ptr_tx_completed_0>
    25c6:	f0 91 a4 12 	lds	r31, 0x12A4	; 0x8012a4 <ptr_tx_completed_0+0x1>
    25ca:	30 97       	sbiw	r30, 0x00	; 0
    25cc:	09 f0       	breq	.+2      	; 0x25d0 <__vector_26+0x58>
    25ce:	19 95       	eicall
    25d0:	ff 91       	pop	r31
    25d2:	ef 91       	pop	r30
    25d4:	bf 91       	pop	r27
    25d6:	af 91       	pop	r26
    25d8:	9f 91       	pop	r25
    25da:	8f 91       	pop	r24
    25dc:	7f 91       	pop	r23
    25de:	6f 91       	pop	r22
    25e0:	5f 91       	pop	r21
    25e2:	4f 91       	pop	r20
    25e4:	3f 91       	pop	r19
    25e6:	2f 91       	pop	r18
    25e8:	0f 90       	pop	r0
    25ea:	0b be       	out	0x3b, r0	; 59
    25ec:	0f 90       	pop	r0
    25ee:	0f be       	out	0x3f, r0	; 63
    25f0:	0f 90       	pop	r0
    25f2:	1f 90       	pop	r1
    25f4:	18 95       	reti

000025f6 <__vector_25>:
    25f6:	1f 92       	push	r1
    25f8:	0f 92       	push	r0
    25fa:	0f b6       	in	r0, 0x3f	; 63
    25fc:	0f 92       	push	r0
    25fe:	11 24       	eor	r1, r1
    2600:	0b b6       	in	r0, 0x3b	; 59
    2602:	0f 92       	push	r0
    2604:	2f 93       	push	r18
    2606:	3f 93       	push	r19
    2608:	4f 93       	push	r20
    260a:	5f 93       	push	r21
    260c:	6f 93       	push	r22
    260e:	7f 93       	push	r23
    2610:	8f 93       	push	r24
    2612:	9f 93       	push	r25
    2614:	af 93       	push	r26
    2616:	bf 93       	push	r27
    2618:	ef 93       	push	r30
    261a:	ff 93       	push	r31
    261c:	60 91 c6 00 	lds	r22, 0x00C6	; 0x8000c6 <__TEXT_REGION_LENGTH__+0x7000c6>
    2620:	83 e8       	ldi	r24, 0x83	; 131
    2622:	9e e0       	ldi	r25, 0x0E	; 14
    2624:	0e 94 65 0a 	call	0x14ca	; 0x14ca <RB_writeByte>
    2628:	ff 91       	pop	r31
    262a:	ef 91       	pop	r30
    262c:	bf 91       	pop	r27
    262e:	af 91       	pop	r26
    2630:	9f 91       	pop	r25
    2632:	8f 91       	pop	r24
    2634:	7f 91       	pop	r23
    2636:	6f 91       	pop	r22
    2638:	5f 91       	pop	r21
    263a:	4f 91       	pop	r20
    263c:	3f 91       	pop	r19
    263e:	2f 91       	pop	r18
    2640:	0f 90       	pop	r0
    2642:	0b be       	out	0x3b, r0	; 59
    2644:	0f 90       	pop	r0
    2646:	0f be       	out	0x3f, r0	; 63
    2648:	0f 90       	pop	r0
    264a:	1f 90       	pop	r1
    264c:	18 95       	reti

0000264e <__vector_37>:
    264e:	1f 92       	push	r1
    2650:	0f 92       	push	r0
    2652:	0f b6       	in	r0, 0x3f	; 63
    2654:	0f 92       	push	r0
    2656:	11 24       	eor	r1, r1
    2658:	0b b6       	in	r0, 0x3b	; 59
    265a:	0f 92       	push	r0
    265c:	2f 93       	push	r18
    265e:	3f 93       	push	r19
    2660:	4f 93       	push	r20
    2662:	5f 93       	push	r21
    2664:	6f 93       	push	r22
    2666:	7f 93       	push	r23
    2668:	8f 93       	push	r24
    266a:	9f 93       	push	r25
    266c:	af 93       	push	r26
    266e:	bf 93       	push	r27
    2670:	ef 93       	push	r30
    2672:	ff 93       	push	r31
    2674:	8a e3       	ldi	r24, 0x3A	; 58
    2676:	97 e0       	ldi	r25, 0x07	; 7
    2678:	0e 94 45 0a 	call	0x148a	; 0x148a <RB_length>
    267c:	88 23       	and	r24, r24
    267e:	39 f0       	breq	.+14     	; 0x268e <__vector_37+0x40>
    2680:	8a e3       	ldi	r24, 0x3A	; 58
    2682:	97 e0       	ldi	r25, 0x07	; 7
    2684:	0e 94 51 0a 	call	0x14a2	; 0x14a2 <RB_readByte>
    2688:	80 93 ce 00 	sts	0x00CE, r24	; 0x8000ce <__TEXT_REGION_LENGTH__+0x7000ce>
    268c:	0c c0       	rjmp	.+24     	; 0x26a6 <__vector_37+0x58>
    268e:	e9 ec       	ldi	r30, 0xC9	; 201
    2690:	f0 e0       	ldi	r31, 0x00	; 0
    2692:	80 81       	ld	r24, Z
    2694:	8f 7d       	andi	r24, 0xDF	; 223
    2696:	80 83       	st	Z, r24
    2698:	e0 91 9d 12 	lds	r30, 0x129D	; 0x80129d <ptr_tx_completed_1>
    269c:	f0 91 9e 12 	lds	r31, 0x129E	; 0x80129e <ptr_tx_completed_1+0x1>
    26a0:	30 97       	sbiw	r30, 0x00	; 0
    26a2:	09 f0       	breq	.+2      	; 0x26a6 <__vector_37+0x58>
    26a4:	19 95       	eicall
    26a6:	ff 91       	pop	r31
    26a8:	ef 91       	pop	r30
    26aa:	bf 91       	pop	r27
    26ac:	af 91       	pop	r26
    26ae:	9f 91       	pop	r25
    26b0:	8f 91       	pop	r24
    26b2:	7f 91       	pop	r23
    26b4:	6f 91       	pop	r22
    26b6:	5f 91       	pop	r21
    26b8:	4f 91       	pop	r20
    26ba:	3f 91       	pop	r19
    26bc:	2f 91       	pop	r18
    26be:	0f 90       	pop	r0
    26c0:	0b be       	out	0x3b, r0	; 59
    26c2:	0f 90       	pop	r0
    26c4:	0f be       	out	0x3f, r0	; 63
    26c6:	0f 90       	pop	r0
    26c8:	1f 90       	pop	r1
    26ca:	18 95       	reti

000026cc <__vector_36>:
    26cc:	1f 92       	push	r1
    26ce:	0f 92       	push	r0
    26d0:	0f b6       	in	r0, 0x3f	; 63
    26d2:	0f 92       	push	r0
    26d4:	11 24       	eor	r1, r1
    26d6:	0b b6       	in	r0, 0x3b	; 59
    26d8:	0f 92       	push	r0
    26da:	2f 93       	push	r18
    26dc:	3f 93       	push	r19
    26de:	4f 93       	push	r20
    26e0:	5f 93       	push	r21
    26e2:	6f 93       	push	r22
    26e4:	7f 93       	push	r23
    26e6:	8f 93       	push	r24
    26e8:	9f 93       	push	r25
    26ea:	af 93       	push	r26
    26ec:	bf 93       	push	r27
    26ee:	ef 93       	push	r30
    26f0:	ff 93       	push	r31
    26f2:	60 91 ce 00 	lds	r22, 0x00CE	; 0x8000ce <__TEXT_REGION_LENGTH__+0x7000ce>
    26f6:	80 e7       	ldi	r24, 0x70	; 112
    26f8:	99 e0       	ldi	r25, 0x09	; 9
    26fa:	0e 94 65 0a 	call	0x14ca	; 0x14ca <RB_writeByte>
    26fe:	ff 91       	pop	r31
    2700:	ef 91       	pop	r30
    2702:	bf 91       	pop	r27
    2704:	af 91       	pop	r26
    2706:	9f 91       	pop	r25
    2708:	8f 91       	pop	r24
    270a:	7f 91       	pop	r23
    270c:	6f 91       	pop	r22
    270e:	5f 91       	pop	r21
    2710:	4f 91       	pop	r20
    2712:	3f 91       	pop	r19
    2714:	2f 91       	pop	r18
    2716:	0f 90       	pop	r0
    2718:	0b be       	out	0x3b, r0	; 59
    271a:	0f 90       	pop	r0
    271c:	0f be       	out	0x3f, r0	; 63
    271e:	0f 90       	pop	r0
    2720:	1f 90       	pop	r1
    2722:	18 95       	reti

00002724 <__vector_52>:
    2724:	1f 92       	push	r1
    2726:	0f 92       	push	r0
    2728:	0f b6       	in	r0, 0x3f	; 63
    272a:	0f 92       	push	r0
    272c:	11 24       	eor	r1, r1
    272e:	0b b6       	in	r0, 0x3b	; 59
    2730:	0f 92       	push	r0
    2732:	2f 93       	push	r18
    2734:	3f 93       	push	r19
    2736:	4f 93       	push	r20
    2738:	5f 93       	push	r21
    273a:	6f 93       	push	r22
    273c:	7f 93       	push	r23
    273e:	8f 93       	push	r24
    2740:	9f 93       	push	r25
    2742:	af 93       	push	r26
    2744:	bf 93       	push	r27
    2746:	ef 93       	push	r30
    2748:	ff 93       	push	r31
    274a:	84 e8       	ldi	r24, 0x84	; 132
    274c:	9f e0       	ldi	r25, 0x0F	; 15
    274e:	0e 94 45 0a 	call	0x148a	; 0x148a <RB_length>
    2752:	88 23       	and	r24, r24
    2754:	39 f0       	breq	.+14     	; 0x2764 <__vector_52+0x40>
    2756:	84 e8       	ldi	r24, 0x84	; 132
    2758:	9f e0       	ldi	r25, 0x0F	; 15
    275a:	0e 94 51 0a 	call	0x14a2	; 0x14a2 <RB_readByte>
    275e:	80 93 d6 00 	sts	0x00D6, r24	; 0x8000d6 <__TEXT_REGION_LENGTH__+0x7000d6>
    2762:	0c c0       	rjmp	.+24     	; 0x277c <__vector_52+0x58>
    2764:	e1 ed       	ldi	r30, 0xD1	; 209
    2766:	f0 e0       	ldi	r31, 0x00	; 0
    2768:	80 81       	ld	r24, Z
    276a:	8f 7d       	andi	r24, 0xDF	; 223
    276c:	80 83       	st	Z, r24
    276e:	e0 91 9f 12 	lds	r30, 0x129F	; 0x80129f <ptr_tx_completed_2>
    2772:	f0 91 a0 12 	lds	r31, 0x12A0	; 0x8012a0 <ptr_tx_completed_2+0x1>
    2776:	30 97       	sbiw	r30, 0x00	; 0
    2778:	09 f0       	breq	.+2      	; 0x277c <__vector_52+0x58>
    277a:	19 95       	eicall
    277c:	ff 91       	pop	r31
    277e:	ef 91       	pop	r30
    2780:	bf 91       	pop	r27
    2782:	af 91       	pop	r26
    2784:	9f 91       	pop	r25
    2786:	8f 91       	pop	r24
    2788:	7f 91       	pop	r23
    278a:	6f 91       	pop	r22
    278c:	5f 91       	pop	r21
    278e:	4f 91       	pop	r20
    2790:	3f 91       	pop	r19
    2792:	2f 91       	pop	r18
    2794:	0f 90       	pop	r0
    2796:	0b be       	out	0x3b, r0	; 59
    2798:	0f 90       	pop	r0
    279a:	0f be       	out	0x3f, r0	; 63
    279c:	0f 90       	pop	r0
    279e:	1f 90       	pop	r1
    27a0:	18 95       	reti

000027a2 <__vector_51>:
    27a2:	1f 92       	push	r1
    27a4:	0f 92       	push	r0
    27a6:	0f b6       	in	r0, 0x3f	; 63
    27a8:	0f 92       	push	r0
    27aa:	11 24       	eor	r1, r1
    27ac:	0b b6       	in	r0, 0x3b	; 59
    27ae:	0f 92       	push	r0
    27b0:	2f 93       	push	r18
    27b2:	3f 93       	push	r19
    27b4:	4f 93       	push	r20
    27b6:	5f 93       	push	r21
    27b8:	6f 93       	push	r22
    27ba:	7f 93       	push	r23
    27bc:	8f 93       	push	r24
    27be:	9f 93       	push	r25
    27c0:	af 93       	push	r26
    27c2:	bf 93       	push	r27
    27c4:	ef 93       	push	r30
    27c6:	ff 93       	push	r31
    27c8:	60 91 d6 00 	lds	r22, 0x00D6	; 0x8000d6 <__TEXT_REGION_LENGTH__+0x7000d6>
    27cc:	89 e6       	ldi	r24, 0x69	; 105
    27ce:	98 e0       	ldi	r25, 0x08	; 8
    27d0:	0e 94 65 0a 	call	0x14ca	; 0x14ca <RB_writeByte>
    27d4:	ff 91       	pop	r31
    27d6:	ef 91       	pop	r30
    27d8:	bf 91       	pop	r27
    27da:	af 91       	pop	r26
    27dc:	9f 91       	pop	r25
    27de:	8f 91       	pop	r24
    27e0:	7f 91       	pop	r23
    27e2:	6f 91       	pop	r22
    27e4:	5f 91       	pop	r21
    27e6:	4f 91       	pop	r20
    27e8:	3f 91       	pop	r19
    27ea:	2f 91       	pop	r18
    27ec:	0f 90       	pop	r0
    27ee:	0b be       	out	0x3b, r0	; 59
    27f0:	0f 90       	pop	r0
    27f2:	0f be       	out	0x3f, r0	; 63
    27f4:	0f 90       	pop	r0
    27f6:	1f 90       	pop	r1
    27f8:	18 95       	reti

000027fa <transmitByte>:
//***************************************************
//Function to transmit a single byte
//***************************************************
void transmitByte( unsigned char data )
{
	while ( !(UCSR0A & (1<<UDRE0)) )
    27fa:	e0 ec       	ldi	r30, 0xC0	; 192
    27fc:	f0 e0       	ldi	r31, 0x00	; 0
    27fe:	90 81       	ld	r25, Z
    2800:	95 ff       	sbrs	r25, 5
    2802:	fd cf       	rjmp	.-6      	; 0x27fe <transmitByte+0x4>
		; 			                /* Wait for empty transmit buffer */
	UDR0 = data; 			        /* Start transmition */
    2804:	80 93 c6 00 	sts	0x00C6, r24	; 0x8000c6 <__TEXT_REGION_LENGTH__+0x7000c6>
    2808:	08 95       	ret

0000280a <transmitString>:

//***************************************************
//Function to transmit a string in RAM
//***************************************************
void transmitString(unsigned char* string)
{
    280a:	cf 93       	push	r28
    280c:	df 93       	push	r29
    280e:	ec 01       	movw	r28, r24
  while (*string)
    2810:	88 81       	ld	r24, Y
    2812:	88 23       	and	r24, r24
    2814:	29 f0       	breq	.+10     	; 0x2820 <transmitString+0x16>
    2816:	21 96       	adiw	r28, 0x01	; 1
   transmitByte(*string++);
    2818:	f0 df       	rcall	.-32     	; 0x27fa <transmitByte>
//***************************************************
//Function to transmit a string in RAM
//***************************************************
void transmitString(unsigned char* string)
{
  while (*string)
    281a:	89 91       	ld	r24, Y+
    281c:	81 11       	cpse	r24, r1
    281e:	fc cf       	rjmp	.-8      	; 0x2818 <transmitString+0xe>
   transmitByte(*string++);
}
    2820:	df 91       	pop	r29
    2822:	cf 91       	pop	r28
    2824:	08 95       	ret

00002826 <main>:

// MainLoop
int main(void)
{
	// Gate Treiber disable (active high)
 	EN_TMC6200_PORT &= ~EN_TMC6200_BIT;
    2826:	e2 e0       	ldi	r30, 0x02	; 2
    2828:	f1 e0       	ldi	r31, 0x01	; 1
    282a:	80 81       	ld	r24, Z
    282c:	87 7f       	andi	r24, 0xF7	; 247
    282e:	80 83       	st	Z, r24
	 
	 
//Initialisierungen
	IO_init();
    2830:	0e 94 3f 08 	call	0x107e	; 0x107e <IO_init>
	SPI_init();
    2834:	05 de       	rcall	.-1014   	; 0x2440 <SPI_init>
	UART_init();
    2836:	17 de       	rcall	.-978    	; 0x2466 <UART_init>
    2838:	0e 94 f9 05 	call	0xbf2	; 0xbf2 <SD_startup>
	SD_startup();
    283c:	0e 94 fb 07 	call	0xff6	; 0xff6 <zutaten_init>
// 	TMC4671_init();
// 	initTMC6200();
// 	initTMC4671_Openloop();
// 	mfrc522_init();
	zutaten_init();
    2840:	0e 94 47 07 	call	0xe8e	; 0xe8e <cocktails_init>
	cocktails_init();
    2844:	0e 94 ab 01 	call	0x356	; 0x356 <init_Getraenke_func>
	init_Getraenke_func();
    2848:	0e 94 b9 09 	call	0x1372	; 0x1372 <check_Communication_Input_UART>
		
// Mainroutine
	while (1)
	{
//  	check_Communication_Input_MFRC522();
		check_Communication_Input_UART();
    284c:	0e 94 5b 08 	call	0x10b6	; 0x10b6 <heartbeat_LED>
  		heartbeat_LED();
    2850:	fb cf       	rjmp	.-10     	; 0x2848 <main+0x22>

00002852 <__udivmodsi4>:
    2852:	a1 e2       	ldi	r26, 0x21	; 33
    2854:	1a 2e       	mov	r1, r26
    2856:	aa 1b       	sub	r26, r26
    2858:	bb 1b       	sub	r27, r27
    285a:	fd 01       	movw	r30, r26
    285c:	0d c0       	rjmp	.+26     	; 0x2878 <__udivmodsi4_ep>

0000285e <__udivmodsi4_loop>:
    285e:	aa 1f       	adc	r26, r26
    2860:	bb 1f       	adc	r27, r27
    2862:	ee 1f       	adc	r30, r30
    2864:	ff 1f       	adc	r31, r31
    2866:	a2 17       	cp	r26, r18
    2868:	b3 07       	cpc	r27, r19
    286a:	e4 07       	cpc	r30, r20
    286c:	f5 07       	cpc	r31, r21
    286e:	20 f0       	brcs	.+8      	; 0x2878 <__udivmodsi4_ep>
    2870:	a2 1b       	sub	r26, r18
    2872:	b3 0b       	sbc	r27, r19
    2874:	e4 0b       	sbc	r30, r20
    2876:	f5 0b       	sbc	r31, r21

00002878 <__udivmodsi4_ep>:
    2878:	66 1f       	adc	r22, r22
    287a:	77 1f       	adc	r23, r23
    287c:	88 1f       	adc	r24, r24
    287e:	99 1f       	adc	r25, r25
    2880:	1a 94       	dec	r1
    2882:	69 f7       	brne	.-38     	; 0x285e <__udivmodsi4_loop>
    2884:	60 95       	com	r22
    2886:	70 95       	com	r23
    2888:	80 95       	com	r24
    288a:	90 95       	com	r25
    288c:	9b 01       	movw	r18, r22
    288e:	ac 01       	movw	r20, r24
    2890:	bd 01       	movw	r22, r26
    2892:	cf 01       	movw	r24, r30
    2894:	08 95       	ret

00002896 <__tablejump2__>:
    2896:	ee 0f       	add	r30, r30
    2898:	ff 1f       	adc	r31, r31
    289a:	88 1f       	adc	r24, r24
    289c:	8b bf       	out	0x3b, r24	; 59
    289e:	07 90       	elpm	r0, Z+
    28a0:	f6 91       	elpm	r31, Z
    28a2:	e0 2d       	mov	r30, r0
    28a4:	19 94       	eijmp

000028a6 <__umulhisi3>:
    28a6:	a2 9f       	mul	r26, r18
    28a8:	b0 01       	movw	r22, r0
    28aa:	b3 9f       	mul	r27, r19
    28ac:	c0 01       	movw	r24, r0
    28ae:	a3 9f       	mul	r26, r19
    28b0:	70 0d       	add	r23, r0
    28b2:	81 1d       	adc	r24, r1
    28b4:	11 24       	eor	r1, r1
    28b6:	91 1d       	adc	r25, r1
    28b8:	b2 9f       	mul	r27, r18
    28ba:	70 0d       	add	r23, r0
    28bc:	81 1d       	adc	r24, r1
    28be:	11 24       	eor	r1, r1
    28c0:	91 1d       	adc	r25, r1
    28c2:	08 95       	ret

000028c4 <__muluhisi3>:
    28c4:	f0 df       	rcall	.-32     	; 0x28a6 <__umulhisi3>
    28c6:	a5 9f       	mul	r26, r21
    28c8:	90 0d       	add	r25, r0
    28ca:	b4 9f       	mul	r27, r20
    28cc:	90 0d       	add	r25, r0
    28ce:	a4 9f       	mul	r26, r20
    28d0:	80 0d       	add	r24, r0
    28d2:	91 1d       	adc	r25, r1
    28d4:	11 24       	eor	r1, r1
    28d6:	08 95       	ret

000028d8 <calloc>:
    28d8:	0f 93       	push	r16
    28da:	1f 93       	push	r17
    28dc:	cf 93       	push	r28
    28de:	df 93       	push	r29
    28e0:	86 9f       	mul	r24, r22
    28e2:	80 01       	movw	r16, r0
    28e4:	87 9f       	mul	r24, r23
    28e6:	10 0d       	add	r17, r0
    28e8:	96 9f       	mul	r25, r22
    28ea:	10 0d       	add	r17, r0
    28ec:	11 24       	eor	r1, r1
    28ee:	c8 01       	movw	r24, r16
    28f0:	0d d0       	rcall	.+26     	; 0x290c <malloc>
    28f2:	ec 01       	movw	r28, r24
    28f4:	00 97       	sbiw	r24, 0x00	; 0
    28f6:	21 f0       	breq	.+8      	; 0x2900 <calloc+0x28>
    28f8:	a8 01       	movw	r20, r16
    28fa:	60 e0       	ldi	r22, 0x00	; 0
    28fc:	70 e0       	ldi	r23, 0x00	; 0
    28fe:	47 d1       	rcall	.+654    	; 0x2b8e <memset>
    2900:	ce 01       	movw	r24, r28
    2902:	df 91       	pop	r29
    2904:	cf 91       	pop	r28
    2906:	1f 91       	pop	r17
    2908:	0f 91       	pop	r16
    290a:	08 95       	ret

0000290c <malloc>:
    290c:	0f 93       	push	r16
    290e:	1f 93       	push	r17
    2910:	cf 93       	push	r28
    2912:	df 93       	push	r29
    2914:	82 30       	cpi	r24, 0x02	; 2
    2916:	91 05       	cpc	r25, r1
    2918:	10 f4       	brcc	.+4      	; 0x291e <malloc+0x12>
    291a:	82 e0       	ldi	r24, 0x02	; 2
    291c:	90 e0       	ldi	r25, 0x00	; 0
    291e:	e0 91 a7 15 	lds	r30, 0x15A7	; 0x8015a7 <__flp>
    2922:	f0 91 a8 15 	lds	r31, 0x15A8	; 0x8015a8 <__flp+0x1>
    2926:	20 e0       	ldi	r18, 0x00	; 0
    2928:	30 e0       	ldi	r19, 0x00	; 0
    292a:	a0 e0       	ldi	r26, 0x00	; 0
    292c:	b0 e0       	ldi	r27, 0x00	; 0
    292e:	30 97       	sbiw	r30, 0x00	; 0
    2930:	19 f1       	breq	.+70     	; 0x2978 <malloc+0x6c>
    2932:	40 81       	ld	r20, Z
    2934:	51 81       	ldd	r21, Z+1	; 0x01
    2936:	02 81       	ldd	r16, Z+2	; 0x02
    2938:	13 81       	ldd	r17, Z+3	; 0x03
    293a:	48 17       	cp	r20, r24
    293c:	59 07       	cpc	r21, r25
    293e:	c8 f0       	brcs	.+50     	; 0x2972 <malloc+0x66>
    2940:	84 17       	cp	r24, r20
    2942:	95 07       	cpc	r25, r21
    2944:	69 f4       	brne	.+26     	; 0x2960 <malloc+0x54>
    2946:	10 97       	sbiw	r26, 0x00	; 0
    2948:	31 f0       	breq	.+12     	; 0x2956 <malloc+0x4a>
    294a:	12 96       	adiw	r26, 0x02	; 2
    294c:	0c 93       	st	X, r16
    294e:	12 97       	sbiw	r26, 0x02	; 2
    2950:	13 96       	adiw	r26, 0x03	; 3
    2952:	1c 93       	st	X, r17
    2954:	27 c0       	rjmp	.+78     	; 0x29a4 <malloc+0x98>
    2956:	00 93 a7 15 	sts	0x15A7, r16	; 0x8015a7 <__flp>
    295a:	10 93 a8 15 	sts	0x15A8, r17	; 0x8015a8 <__flp+0x1>
    295e:	22 c0       	rjmp	.+68     	; 0x29a4 <malloc+0x98>
    2960:	21 15       	cp	r18, r1
    2962:	31 05       	cpc	r19, r1
    2964:	19 f0       	breq	.+6      	; 0x296c <malloc+0x60>
    2966:	42 17       	cp	r20, r18
    2968:	53 07       	cpc	r21, r19
    296a:	18 f4       	brcc	.+6      	; 0x2972 <malloc+0x66>
    296c:	9a 01       	movw	r18, r20
    296e:	bd 01       	movw	r22, r26
    2970:	ef 01       	movw	r28, r30
    2972:	df 01       	movw	r26, r30
    2974:	f8 01       	movw	r30, r16
    2976:	db cf       	rjmp	.-74     	; 0x292e <malloc+0x22>
    2978:	21 15       	cp	r18, r1
    297a:	31 05       	cpc	r19, r1
    297c:	f9 f0       	breq	.+62     	; 0x29bc <malloc+0xb0>
    297e:	28 1b       	sub	r18, r24
    2980:	39 0b       	sbc	r19, r25
    2982:	24 30       	cpi	r18, 0x04	; 4
    2984:	31 05       	cpc	r19, r1
    2986:	80 f4       	brcc	.+32     	; 0x29a8 <malloc+0x9c>
    2988:	8a 81       	ldd	r24, Y+2	; 0x02
    298a:	9b 81       	ldd	r25, Y+3	; 0x03
    298c:	61 15       	cp	r22, r1
    298e:	71 05       	cpc	r23, r1
    2990:	21 f0       	breq	.+8      	; 0x299a <malloc+0x8e>
    2992:	fb 01       	movw	r30, r22
    2994:	93 83       	std	Z+3, r25	; 0x03
    2996:	82 83       	std	Z+2, r24	; 0x02
    2998:	04 c0       	rjmp	.+8      	; 0x29a2 <malloc+0x96>
    299a:	90 93 a8 15 	sts	0x15A8, r25	; 0x8015a8 <__flp+0x1>
    299e:	80 93 a7 15 	sts	0x15A7, r24	; 0x8015a7 <__flp>
    29a2:	fe 01       	movw	r30, r28
    29a4:	32 96       	adiw	r30, 0x02	; 2
    29a6:	44 c0       	rjmp	.+136    	; 0x2a30 <malloc+0x124>
    29a8:	fe 01       	movw	r30, r28
    29aa:	e2 0f       	add	r30, r18
    29ac:	f3 1f       	adc	r31, r19
    29ae:	81 93       	st	Z+, r24
    29b0:	91 93       	st	Z+, r25
    29b2:	22 50       	subi	r18, 0x02	; 2
    29b4:	31 09       	sbc	r19, r1
    29b6:	39 83       	std	Y+1, r19	; 0x01
    29b8:	28 83       	st	Y, r18
    29ba:	3a c0       	rjmp	.+116    	; 0x2a30 <malloc+0x124>
    29bc:	20 91 a5 15 	lds	r18, 0x15A5	; 0x8015a5 <__brkval>
    29c0:	30 91 a6 15 	lds	r19, 0x15A6	; 0x8015a6 <__brkval+0x1>
    29c4:	23 2b       	or	r18, r19
    29c6:	41 f4       	brne	.+16     	; 0x29d8 <malloc+0xcc>
    29c8:	20 91 02 02 	lds	r18, 0x0202	; 0x800202 <__malloc_heap_start>
    29cc:	30 91 03 02 	lds	r19, 0x0203	; 0x800203 <__malloc_heap_start+0x1>
    29d0:	30 93 a6 15 	sts	0x15A6, r19	; 0x8015a6 <__brkval+0x1>
    29d4:	20 93 a5 15 	sts	0x15A5, r18	; 0x8015a5 <__brkval>
    29d8:	20 91 00 02 	lds	r18, 0x0200	; 0x800200 <__DATA_REGION_ORIGIN__>
    29dc:	30 91 01 02 	lds	r19, 0x0201	; 0x800201 <__DATA_REGION_ORIGIN__+0x1>
    29e0:	21 15       	cp	r18, r1
    29e2:	31 05       	cpc	r19, r1
    29e4:	41 f4       	brne	.+16     	; 0x29f6 <malloc+0xea>
    29e6:	2d b7       	in	r18, 0x3d	; 61
    29e8:	3e b7       	in	r19, 0x3e	; 62
    29ea:	40 91 04 02 	lds	r20, 0x0204	; 0x800204 <__malloc_margin>
    29ee:	50 91 05 02 	lds	r21, 0x0205	; 0x800205 <__malloc_margin+0x1>
    29f2:	24 1b       	sub	r18, r20
    29f4:	35 0b       	sbc	r19, r21
    29f6:	e0 91 a5 15 	lds	r30, 0x15A5	; 0x8015a5 <__brkval>
    29fa:	f0 91 a6 15 	lds	r31, 0x15A6	; 0x8015a6 <__brkval+0x1>
    29fe:	e2 17       	cp	r30, r18
    2a00:	f3 07       	cpc	r31, r19
    2a02:	a0 f4       	brcc	.+40     	; 0x2a2c <malloc+0x120>
    2a04:	2e 1b       	sub	r18, r30
    2a06:	3f 0b       	sbc	r19, r31
    2a08:	28 17       	cp	r18, r24
    2a0a:	39 07       	cpc	r19, r25
    2a0c:	78 f0       	brcs	.+30     	; 0x2a2c <malloc+0x120>
    2a0e:	ac 01       	movw	r20, r24
    2a10:	4e 5f       	subi	r20, 0xFE	; 254
    2a12:	5f 4f       	sbci	r21, 0xFF	; 255
    2a14:	24 17       	cp	r18, r20
    2a16:	35 07       	cpc	r19, r21
    2a18:	48 f0       	brcs	.+18     	; 0x2a2c <malloc+0x120>
    2a1a:	4e 0f       	add	r20, r30
    2a1c:	5f 1f       	adc	r21, r31
    2a1e:	50 93 a6 15 	sts	0x15A6, r21	; 0x8015a6 <__brkval+0x1>
    2a22:	40 93 a5 15 	sts	0x15A5, r20	; 0x8015a5 <__brkval>
    2a26:	81 93       	st	Z+, r24
    2a28:	91 93       	st	Z+, r25
    2a2a:	02 c0       	rjmp	.+4      	; 0x2a30 <malloc+0x124>
    2a2c:	e0 e0       	ldi	r30, 0x00	; 0
    2a2e:	f0 e0       	ldi	r31, 0x00	; 0
    2a30:	cf 01       	movw	r24, r30
    2a32:	df 91       	pop	r29
    2a34:	cf 91       	pop	r28
    2a36:	1f 91       	pop	r17
    2a38:	0f 91       	pop	r16
    2a3a:	08 95       	ret

00002a3c <free>:
    2a3c:	cf 93       	push	r28
    2a3e:	df 93       	push	r29
    2a40:	00 97       	sbiw	r24, 0x00	; 0
    2a42:	09 f4       	brne	.+2      	; 0x2a46 <free+0xa>
    2a44:	81 c0       	rjmp	.+258    	; 0x2b48 <free+0x10c>
    2a46:	fc 01       	movw	r30, r24
    2a48:	32 97       	sbiw	r30, 0x02	; 2
    2a4a:	13 82       	std	Z+3, r1	; 0x03
    2a4c:	12 82       	std	Z+2, r1	; 0x02
    2a4e:	a0 91 a7 15 	lds	r26, 0x15A7	; 0x8015a7 <__flp>
    2a52:	b0 91 a8 15 	lds	r27, 0x15A8	; 0x8015a8 <__flp+0x1>
    2a56:	10 97       	sbiw	r26, 0x00	; 0
    2a58:	81 f4       	brne	.+32     	; 0x2a7a <free+0x3e>
    2a5a:	20 81       	ld	r18, Z
    2a5c:	31 81       	ldd	r19, Z+1	; 0x01
    2a5e:	82 0f       	add	r24, r18
    2a60:	93 1f       	adc	r25, r19
    2a62:	20 91 a5 15 	lds	r18, 0x15A5	; 0x8015a5 <__brkval>
    2a66:	30 91 a6 15 	lds	r19, 0x15A6	; 0x8015a6 <__brkval+0x1>
    2a6a:	28 17       	cp	r18, r24
    2a6c:	39 07       	cpc	r19, r25
    2a6e:	51 f5       	brne	.+84     	; 0x2ac4 <free+0x88>
    2a70:	f0 93 a6 15 	sts	0x15A6, r31	; 0x8015a6 <__brkval+0x1>
    2a74:	e0 93 a5 15 	sts	0x15A5, r30	; 0x8015a5 <__brkval>
    2a78:	67 c0       	rjmp	.+206    	; 0x2b48 <free+0x10c>
    2a7a:	ed 01       	movw	r28, r26
    2a7c:	20 e0       	ldi	r18, 0x00	; 0
    2a7e:	30 e0       	ldi	r19, 0x00	; 0
    2a80:	ce 17       	cp	r28, r30
    2a82:	df 07       	cpc	r29, r31
    2a84:	40 f4       	brcc	.+16     	; 0x2a96 <free+0x5a>
    2a86:	4a 81       	ldd	r20, Y+2	; 0x02
    2a88:	5b 81       	ldd	r21, Y+3	; 0x03
    2a8a:	9e 01       	movw	r18, r28
    2a8c:	41 15       	cp	r20, r1
    2a8e:	51 05       	cpc	r21, r1
    2a90:	f1 f0       	breq	.+60     	; 0x2ace <free+0x92>
    2a92:	ea 01       	movw	r28, r20
    2a94:	f5 cf       	rjmp	.-22     	; 0x2a80 <free+0x44>
    2a96:	d3 83       	std	Z+3, r29	; 0x03
    2a98:	c2 83       	std	Z+2, r28	; 0x02
    2a9a:	40 81       	ld	r20, Z
    2a9c:	51 81       	ldd	r21, Z+1	; 0x01
    2a9e:	84 0f       	add	r24, r20
    2aa0:	95 1f       	adc	r25, r21
    2aa2:	c8 17       	cp	r28, r24
    2aa4:	d9 07       	cpc	r29, r25
    2aa6:	59 f4       	brne	.+22     	; 0x2abe <free+0x82>
    2aa8:	88 81       	ld	r24, Y
    2aaa:	99 81       	ldd	r25, Y+1	; 0x01
    2aac:	84 0f       	add	r24, r20
    2aae:	95 1f       	adc	r25, r21
    2ab0:	02 96       	adiw	r24, 0x02	; 2
    2ab2:	91 83       	std	Z+1, r25	; 0x01
    2ab4:	80 83       	st	Z, r24
    2ab6:	8a 81       	ldd	r24, Y+2	; 0x02
    2ab8:	9b 81       	ldd	r25, Y+3	; 0x03
    2aba:	93 83       	std	Z+3, r25	; 0x03
    2abc:	82 83       	std	Z+2, r24	; 0x02
    2abe:	21 15       	cp	r18, r1
    2ac0:	31 05       	cpc	r19, r1
    2ac2:	29 f4       	brne	.+10     	; 0x2ace <free+0x92>
    2ac4:	f0 93 a8 15 	sts	0x15A8, r31	; 0x8015a8 <__flp+0x1>
    2ac8:	e0 93 a7 15 	sts	0x15A7, r30	; 0x8015a7 <__flp>
    2acc:	3d c0       	rjmp	.+122    	; 0x2b48 <free+0x10c>
    2ace:	e9 01       	movw	r28, r18
    2ad0:	fb 83       	std	Y+3, r31	; 0x03
    2ad2:	ea 83       	std	Y+2, r30	; 0x02
    2ad4:	49 91       	ld	r20, Y+
    2ad6:	59 91       	ld	r21, Y+
    2ad8:	c4 0f       	add	r28, r20
    2ada:	d5 1f       	adc	r29, r21
    2adc:	ec 17       	cp	r30, r28
    2ade:	fd 07       	cpc	r31, r29
    2ae0:	61 f4       	brne	.+24     	; 0x2afa <free+0xbe>
    2ae2:	80 81       	ld	r24, Z
    2ae4:	91 81       	ldd	r25, Z+1	; 0x01
    2ae6:	84 0f       	add	r24, r20
    2ae8:	95 1f       	adc	r25, r21
    2aea:	02 96       	adiw	r24, 0x02	; 2
    2aec:	e9 01       	movw	r28, r18
    2aee:	99 83       	std	Y+1, r25	; 0x01
    2af0:	88 83       	st	Y, r24
    2af2:	82 81       	ldd	r24, Z+2	; 0x02
    2af4:	93 81       	ldd	r25, Z+3	; 0x03
    2af6:	9b 83       	std	Y+3, r25	; 0x03
    2af8:	8a 83       	std	Y+2, r24	; 0x02
    2afa:	e0 e0       	ldi	r30, 0x00	; 0
    2afc:	f0 e0       	ldi	r31, 0x00	; 0
    2afe:	12 96       	adiw	r26, 0x02	; 2
    2b00:	8d 91       	ld	r24, X+
    2b02:	9c 91       	ld	r25, X
    2b04:	13 97       	sbiw	r26, 0x03	; 3
    2b06:	00 97       	sbiw	r24, 0x00	; 0
    2b08:	19 f0       	breq	.+6      	; 0x2b10 <free+0xd4>
    2b0a:	fd 01       	movw	r30, r26
    2b0c:	dc 01       	movw	r26, r24
    2b0e:	f7 cf       	rjmp	.-18     	; 0x2afe <free+0xc2>
    2b10:	8d 91       	ld	r24, X+
    2b12:	9c 91       	ld	r25, X
    2b14:	11 97       	sbiw	r26, 0x01	; 1
    2b16:	9d 01       	movw	r18, r26
    2b18:	2e 5f       	subi	r18, 0xFE	; 254
    2b1a:	3f 4f       	sbci	r19, 0xFF	; 255
    2b1c:	82 0f       	add	r24, r18
    2b1e:	93 1f       	adc	r25, r19
    2b20:	20 91 a5 15 	lds	r18, 0x15A5	; 0x8015a5 <__brkval>
    2b24:	30 91 a6 15 	lds	r19, 0x15A6	; 0x8015a6 <__brkval+0x1>
    2b28:	28 17       	cp	r18, r24
    2b2a:	39 07       	cpc	r19, r25
    2b2c:	69 f4       	brne	.+26     	; 0x2b48 <free+0x10c>
    2b2e:	30 97       	sbiw	r30, 0x00	; 0
    2b30:	29 f4       	brne	.+10     	; 0x2b3c <free+0x100>
    2b32:	10 92 a8 15 	sts	0x15A8, r1	; 0x8015a8 <__flp+0x1>
    2b36:	10 92 a7 15 	sts	0x15A7, r1	; 0x8015a7 <__flp>
    2b3a:	02 c0       	rjmp	.+4      	; 0x2b40 <free+0x104>
    2b3c:	13 82       	std	Z+3, r1	; 0x03
    2b3e:	12 82       	std	Z+2, r1	; 0x02
    2b40:	b0 93 a6 15 	sts	0x15A6, r27	; 0x8015a6 <__brkval+0x1>
    2b44:	a0 93 a5 15 	sts	0x15A5, r26	; 0x8015a5 <__brkval>
    2b48:	df 91       	pop	r29
    2b4a:	cf 91       	pop	r28
    2b4c:	08 95       	ret

00002b4e <atoi>:
    2b4e:	fc 01       	movw	r30, r24
    2b50:	88 27       	eor	r24, r24
    2b52:	99 27       	eor	r25, r25
    2b54:	e8 94       	clt
    2b56:	21 91       	ld	r18, Z+
    2b58:	20 32       	cpi	r18, 0x20	; 32
    2b5a:	e9 f3       	breq	.-6      	; 0x2b56 <atoi+0x8>
    2b5c:	29 30       	cpi	r18, 0x09	; 9
    2b5e:	10 f0       	brcs	.+4      	; 0x2b64 <atoi+0x16>
    2b60:	2e 30       	cpi	r18, 0x0E	; 14
    2b62:	c8 f3       	brcs	.-14     	; 0x2b56 <atoi+0x8>
    2b64:	2b 32       	cpi	r18, 0x2B	; 43
    2b66:	39 f0       	breq	.+14     	; 0x2b76 <atoi+0x28>
    2b68:	2d 32       	cpi	r18, 0x2D	; 45
    2b6a:	31 f4       	brne	.+12     	; 0x2b78 <atoi+0x2a>
    2b6c:	68 94       	set
    2b6e:	03 c0       	rjmp	.+6      	; 0x2b76 <atoi+0x28>
    2b70:	58 d0       	rcall	.+176    	; 0x2c22 <__mulhi_const_10>
    2b72:	82 0f       	add	r24, r18
    2b74:	91 1d       	adc	r25, r1
    2b76:	21 91       	ld	r18, Z+
    2b78:	20 53       	subi	r18, 0x30	; 48
    2b7a:	2a 30       	cpi	r18, 0x0A	; 10
    2b7c:	c8 f3       	brcs	.-14     	; 0x2b70 <atoi+0x22>
    2b7e:	1e f4       	brtc	.+6      	; 0x2b86 <atoi+0x38>
    2b80:	90 95       	com	r25
    2b82:	81 95       	neg	r24
    2b84:	9f 4f       	sbci	r25, 0xFF	; 255
    2b86:	08 95       	ret

00002b88 <strtok>:
    2b88:	48 e2       	ldi	r20, 0x28	; 40
    2b8a:	56 e0       	ldi	r21, 0x06	; 6
    2b8c:	19 c0       	rjmp	.+50     	; 0x2bc0 <strtok_r>

00002b8e <memset>:
    2b8e:	dc 01       	movw	r26, r24
    2b90:	01 c0       	rjmp	.+2      	; 0x2b94 <memset+0x6>
    2b92:	6d 93       	st	X+, r22
    2b94:	41 50       	subi	r20, 0x01	; 1
    2b96:	50 40       	sbci	r21, 0x00	; 0
    2b98:	e0 f7       	brcc	.-8      	; 0x2b92 <memset+0x4>
    2b9a:	08 95       	ret

00002b9c <strcat>:
    2b9c:	fb 01       	movw	r30, r22
    2b9e:	dc 01       	movw	r26, r24
    2ba0:	0d 90       	ld	r0, X+
    2ba2:	00 20       	and	r0, r0
    2ba4:	e9 f7       	brne	.-6      	; 0x2ba0 <strcat+0x4>
    2ba6:	11 97       	sbiw	r26, 0x01	; 1
    2ba8:	01 90       	ld	r0, Z+
    2baa:	0d 92       	st	X+, r0
    2bac:	00 20       	and	r0, r0
    2bae:	e1 f7       	brne	.-8      	; 0x2ba8 <strcat+0xc>
    2bb0:	08 95       	ret

00002bb2 <strcpy>:
    2bb2:	fb 01       	movw	r30, r22
    2bb4:	dc 01       	movw	r26, r24
    2bb6:	01 90       	ld	r0, Z+
    2bb8:	0d 92       	st	X+, r0
    2bba:	00 20       	and	r0, r0
    2bbc:	e1 f7       	brne	.-8      	; 0x2bb6 <strcpy+0x4>
    2bbe:	08 95       	ret

00002bc0 <strtok_r>:
    2bc0:	fa 01       	movw	r30, r20
    2bc2:	a1 91       	ld	r26, Z+
    2bc4:	b0 81       	ld	r27, Z
    2bc6:	00 97       	sbiw	r24, 0x00	; 0
    2bc8:	19 f4       	brne	.+6      	; 0x2bd0 <strtok_r+0x10>
    2bca:	10 97       	sbiw	r26, 0x00	; 0
    2bcc:	e1 f0       	breq	.+56     	; 0x2c06 <strtok_r+0x46>
    2bce:	cd 01       	movw	r24, r26
    2bd0:	dc 01       	movw	r26, r24
    2bd2:	cd 01       	movw	r24, r26
    2bd4:	0d 90       	ld	r0, X+
    2bd6:	00 20       	and	r0, r0
    2bd8:	11 f4       	brne	.+4      	; 0x2bde <strtok_r+0x1e>
    2bda:	c0 01       	movw	r24, r0
    2bdc:	13 c0       	rjmp	.+38     	; 0x2c04 <strtok_r+0x44>
    2bde:	fb 01       	movw	r30, r22
    2be0:	21 91       	ld	r18, Z+
    2be2:	22 23       	and	r18, r18
    2be4:	19 f0       	breq	.+6      	; 0x2bec <strtok_r+0x2c>
    2be6:	20 15       	cp	r18, r0
    2be8:	d9 f7       	brne	.-10     	; 0x2be0 <strtok_r+0x20>
    2bea:	f3 cf       	rjmp	.-26     	; 0x2bd2 <strtok_r+0x12>
    2bec:	fb 01       	movw	r30, r22
    2bee:	21 91       	ld	r18, Z+
    2bf0:	20 15       	cp	r18, r0
    2bf2:	19 f4       	brne	.+6      	; 0x2bfa <strtok_r+0x3a>
    2bf4:	1e 92       	st	-X, r1
    2bf6:	11 96       	adiw	r26, 0x01	; 1
    2bf8:	06 c0       	rjmp	.+12     	; 0x2c06 <strtok_r+0x46>
    2bfa:	22 23       	and	r18, r18
    2bfc:	c1 f7       	brne	.-16     	; 0x2bee <strtok_r+0x2e>
    2bfe:	0d 90       	ld	r0, X+
    2c00:	00 20       	and	r0, r0
    2c02:	a1 f7       	brne	.-24     	; 0x2bec <strtok_r+0x2c>
    2c04:	d0 01       	movw	r26, r0
    2c06:	fa 01       	movw	r30, r20
    2c08:	a1 93       	st	Z+, r26
    2c0a:	b0 83       	st	Z, r27
    2c0c:	08 95       	ret

00002c0e <__itoa_ncheck>:
    2c0e:	bb 27       	eor	r27, r27
    2c10:	4a 30       	cpi	r20, 0x0A	; 10
    2c12:	31 f4       	brne	.+12     	; 0x2c20 <__itoa_ncheck+0x12>
    2c14:	99 23       	and	r25, r25
    2c16:	22 f4       	brpl	.+8      	; 0x2c20 <__itoa_ncheck+0x12>
    2c18:	bd e2       	ldi	r27, 0x2D	; 45
    2c1a:	90 95       	com	r25
    2c1c:	81 95       	neg	r24
    2c1e:	9f 4f       	sbci	r25, 0xFF	; 255
    2c20:	09 c0       	rjmp	.+18     	; 0x2c34 <__utoa_common>

00002c22 <__mulhi_const_10>:
    2c22:	7a e0       	ldi	r23, 0x0A	; 10
    2c24:	97 9f       	mul	r25, r23
    2c26:	90 2d       	mov	r25, r0
    2c28:	87 9f       	mul	r24, r23
    2c2a:	80 2d       	mov	r24, r0
    2c2c:	91 0d       	add	r25, r1
    2c2e:	11 24       	eor	r1, r1
    2c30:	08 95       	ret

00002c32 <__utoa_ncheck>:
    2c32:	bb 27       	eor	r27, r27

00002c34 <__utoa_common>:
    2c34:	fb 01       	movw	r30, r22
    2c36:	55 27       	eor	r21, r21
    2c38:	aa 27       	eor	r26, r26
    2c3a:	88 0f       	add	r24, r24
    2c3c:	99 1f       	adc	r25, r25
    2c3e:	aa 1f       	adc	r26, r26
    2c40:	a4 17       	cp	r26, r20
    2c42:	10 f0       	brcs	.+4      	; 0x2c48 <__utoa_common+0x14>
    2c44:	a4 1b       	sub	r26, r20
    2c46:	83 95       	inc	r24
    2c48:	50 51       	subi	r21, 0x10	; 16
    2c4a:	b9 f7       	brne	.-18     	; 0x2c3a <__utoa_common+0x6>
    2c4c:	a0 5d       	subi	r26, 0xD0	; 208
    2c4e:	aa 33       	cpi	r26, 0x3A	; 58
    2c50:	08 f0       	brcs	.+2      	; 0x2c54 <__utoa_common+0x20>
    2c52:	a9 5d       	subi	r26, 0xD9	; 217
    2c54:	a1 93       	st	Z+, r26
    2c56:	00 97       	sbiw	r24, 0x00	; 0
    2c58:	79 f7       	brne	.-34     	; 0x2c38 <__utoa_common+0x4>
    2c5a:	b1 11       	cpse	r27, r1
    2c5c:	b1 93       	st	Z+, r27
    2c5e:	11 92       	st	Z+, r1
    2c60:	cb 01       	movw	r24, r22
    2c62:	00 c0       	rjmp	.+0      	; 0x2c64 <strrev>

00002c64 <strrev>:
    2c64:	dc 01       	movw	r26, r24
    2c66:	fc 01       	movw	r30, r24
    2c68:	67 2f       	mov	r22, r23
    2c6a:	71 91       	ld	r23, Z+
    2c6c:	77 23       	and	r23, r23
    2c6e:	e1 f7       	brne	.-8      	; 0x2c68 <strrev+0x4>
    2c70:	32 97       	sbiw	r30, 0x02	; 2
    2c72:	04 c0       	rjmp	.+8      	; 0x2c7c <strrev+0x18>
    2c74:	7c 91       	ld	r23, X
    2c76:	6d 93       	st	X+, r22
    2c78:	70 83       	st	Z, r23
    2c7a:	62 91       	ld	r22, -Z
    2c7c:	ae 17       	cp	r26, r30
    2c7e:	bf 07       	cpc	r27, r31
    2c80:	c8 f3       	brcs	.-14     	; 0x2c74 <strrev+0x10>
    2c82:	08 95       	ret

00002c84 <_exit>:
    2c84:	f8 94       	cli

00002c86 <__stop_program>:
    2c86:	ff cf       	rjmp	.-2      	; 0x2c86 <__stop_program>
