
Mikrocontroller.elf:     file format elf32-avr

Sections:
Idx Name          Size      VMA       LMA       File off  Algn
  0 .data         000005cc  00800200  00005d58  00005dec  2**0
                  CONTENTS, ALLOC, LOAD, DATA
  1 .text         00005d58  00000000  00000000  00000094  2**1
                  CONTENTS, ALLOC, LOAD, READONLY, CODE
  2 .bss          00000eb0  008007cc  008007cc  000063b8  2**0
                  ALLOC
  3 .comment      00000030  00000000  00000000  000063b8  2**0
                  CONTENTS, READONLY
  4 .note.gnu.avr.deviceinfo 00000040  00000000  00000000  000063e8  2**2
                  CONTENTS, READONLY
  5 .debug_aranges 000005d8  00000000  00000000  00006428  2**0
                  CONTENTS, READONLY, DEBUGGING
  6 .debug_info   0000f347  00000000  00000000  00006a00  2**0
                  CONTENTS, READONLY, DEBUGGING
  7 .debug_abbrev 00002766  00000000  00000000  00015d47  2**0
                  CONTENTS, READONLY, DEBUGGING
  8 .debug_line   000065ae  00000000  00000000  000184ad  2**0
                  CONTENTS, READONLY, DEBUGGING
  9 .debug_frame  00001814  00000000  00000000  0001ea5c  2**2
                  CONTENTS, READONLY, DEBUGGING
 10 .debug_str    000024bb  00000000  00000000  00020270  2**0
                  CONTENTS, READONLY, DEBUGGING
 11 .debug_loc    0000878d  00000000  00000000  0002272b  2**0
                  CONTENTS, READONLY, DEBUGGING
 12 .debug_ranges 00000660  00000000  00000000  0002aeb8  2**0
                  CONTENTS, READONLY, DEBUGGING

Disassembly of section .text:

00000000 <__vectors>:
       0:	17 c1       	rjmp	.+558    	; 0x230 <__ctors_end>
       2:	00 00       	nop
       4:	36 c1       	rjmp	.+620    	; 0x272 <__bad_interrupt>
       6:	00 00       	nop
       8:	34 c1       	rjmp	.+616    	; 0x272 <__bad_interrupt>
       a:	00 00       	nop
       c:	32 c1       	rjmp	.+612    	; 0x272 <__bad_interrupt>
       e:	00 00       	nop
      10:	30 c1       	rjmp	.+608    	; 0x272 <__bad_interrupt>
      12:	00 00       	nop
      14:	2e c1       	rjmp	.+604    	; 0x272 <__bad_interrupt>
      16:	00 00       	nop
      18:	2c c1       	rjmp	.+600    	; 0x272 <__bad_interrupt>
      1a:	00 00       	nop
      1c:	2a c1       	rjmp	.+596    	; 0x272 <__bad_interrupt>
      1e:	00 00       	nop
      20:	28 c1       	rjmp	.+592    	; 0x272 <__bad_interrupt>
      22:	00 00       	nop
      24:	26 c1       	rjmp	.+588    	; 0x272 <__bad_interrupt>
      26:	00 00       	nop
      28:	24 c1       	rjmp	.+584    	; 0x272 <__bad_interrupt>
      2a:	00 00       	nop
      2c:	22 c1       	rjmp	.+580    	; 0x272 <__bad_interrupt>
      2e:	00 00       	nop
      30:	20 c1       	rjmp	.+576    	; 0x272 <__bad_interrupt>
      32:	00 00       	nop
      34:	1e c1       	rjmp	.+572    	; 0x272 <__bad_interrupt>
      36:	00 00       	nop
      38:	1c c1       	rjmp	.+568    	; 0x272 <__bad_interrupt>
      3a:	00 00       	nop
      3c:	1a c1       	rjmp	.+564    	; 0x272 <__bad_interrupt>
      3e:	00 00       	nop
      40:	18 c1       	rjmp	.+560    	; 0x272 <__bad_interrupt>
      42:	00 00       	nop
      44:	16 c1       	rjmp	.+556    	; 0x272 <__bad_interrupt>
      46:	00 00       	nop
      48:	14 c1       	rjmp	.+552    	; 0x272 <__bad_interrupt>
      4a:	00 00       	nop
      4c:	12 c1       	rjmp	.+548    	; 0x272 <__bad_interrupt>
      4e:	00 00       	nop
      50:	10 c1       	rjmp	.+544    	; 0x272 <__bad_interrupt>
      52:	00 00       	nop
      54:	0e c1       	rjmp	.+540    	; 0x272 <__bad_interrupt>
      56:	00 00       	nop
      58:	0c c1       	rjmp	.+536    	; 0x272 <__bad_interrupt>
      5a:	00 00       	nop
      5c:	0a c1       	rjmp	.+532    	; 0x272 <__bad_interrupt>
      5e:	00 00       	nop
      60:	08 c1       	rjmp	.+528    	; 0x272 <__bad_interrupt>
      62:	00 00       	nop
      64:	0c 94 dc 2a 	jmp	0x55b8	; 0x55b8 <__vector_25>
      68:	0c 94 9d 2a 	jmp	0x553a	; 0x553a <__vector_26>
      6c:	02 c1       	rjmp	.+516    	; 0x272 <__bad_interrupt>
      6e:	00 00       	nop
      70:	00 c1       	rjmp	.+512    	; 0x272 <__bad_interrupt>
      72:	00 00       	nop
      74:	fe c0       	rjmp	.+508    	; 0x272 <__bad_interrupt>
      76:	00 00       	nop
      78:	fc c0       	rjmp	.+504    	; 0x272 <__bad_interrupt>
      7a:	00 00       	nop
      7c:	fa c0       	rjmp	.+500    	; 0x272 <__bad_interrupt>
      7e:	00 00       	nop
      80:	f8 c0       	rjmp	.+496    	; 0x272 <__bad_interrupt>
      82:	00 00       	nop
      84:	f6 c0       	rjmp	.+492    	; 0x272 <__bad_interrupt>
      86:	00 00       	nop
      88:	f4 c0       	rjmp	.+488    	; 0x272 <__bad_interrupt>
      8a:	00 00       	nop
      8c:	f2 c0       	rjmp	.+484    	; 0x272 <__bad_interrupt>
      8e:	00 00       	nop
      90:	0c 94 47 2b 	jmp	0x568e	; 0x568e <__vector_36>
      94:	0c 94 08 2b 	jmp	0x5610	; 0x5610 <__vector_37>
      98:	ec c0       	rjmp	.+472    	; 0x272 <__bad_interrupt>
      9a:	00 00       	nop
      9c:	ea c0       	rjmp	.+468    	; 0x272 <__bad_interrupt>
      9e:	00 00       	nop
      a0:	e8 c0       	rjmp	.+464    	; 0x272 <__bad_interrupt>
      a2:	00 00       	nop
      a4:	e6 c0       	rjmp	.+460    	; 0x272 <__bad_interrupt>
      a6:	00 00       	nop
      a8:	e4 c0       	rjmp	.+456    	; 0x272 <__bad_interrupt>
      aa:	00 00       	nop
      ac:	e2 c0       	rjmp	.+452    	; 0x272 <__bad_interrupt>
      ae:	00 00       	nop
      b0:	e0 c0       	rjmp	.+448    	; 0x272 <__bad_interrupt>
      b2:	00 00       	nop
      b4:	de c0       	rjmp	.+444    	; 0x272 <__bad_interrupt>
      b6:	00 00       	nop
      b8:	dc c0       	rjmp	.+440    	; 0x272 <__bad_interrupt>
      ba:	00 00       	nop
      bc:	da c0       	rjmp	.+436    	; 0x272 <__bad_interrupt>
      be:	00 00       	nop
      c0:	d8 c0       	rjmp	.+432    	; 0x272 <__bad_interrupt>
      c2:	00 00       	nop
      c4:	d6 c0       	rjmp	.+428    	; 0x272 <__bad_interrupt>
      c6:	00 00       	nop
      c8:	d4 c0       	rjmp	.+424    	; 0x272 <__bad_interrupt>
      ca:	00 00       	nop
      cc:	0c 94 b2 2b 	jmp	0x5764	; 0x5764 <__vector_51>
      d0:	0c 94 73 2b 	jmp	0x56e6	; 0x56e6 <__vector_52>
      d4:	ce c0       	rjmp	.+412    	; 0x272 <__bad_interrupt>
      d6:	00 00       	nop
      d8:	0c 94 1d 2c 	jmp	0x583a	; 0x583a <__vector_54>
      dc:	0c 94 de 2b 	jmp	0x57bc	; 0x57bc <__vector_55>
      e0:	c8 c0       	rjmp	.+400    	; 0x272 <__bad_interrupt>
      e2:	00 00       	nop
      e4:	33 02       	muls	r19, r19
      e6:	35 02       	muls	r19, r21
      e8:	37 02       	muls	r19, r23
      ea:	39 02       	muls	r19, r25
      ec:	3b 02       	muls	r19, r27
      ee:	3d 02       	muls	r19, r29
      f0:	3f 02       	muls	r19, r31
      f2:	41 02       	muls	r20, r17
      f4:	47 02       	muls	r20, r23
      f6:	4d 02       	muls	r20, r29
      f8:	53 02       	muls	r21, r19
      fa:	59 02       	muls	r21, r25
      fc:	6a 02       	muls	r22, r26
      fe:	6c 02       	muls	r22, r28
     100:	6e 02       	muls	r22, r30
     102:	70 02       	muls	r23, r16
     104:	72 02       	muls	r23, r18
     106:	74 02       	muls	r23, r20
     108:	76 02       	muls	r23, r22
     10a:	78 02       	muls	r23, r24
     10c:	7e 02       	muls	r23, r30
     10e:	84 02       	muls	r24, r20
     110:	8a 02       	muls	r24, r26
     112:	90 02       	muls	r25, r16
     114:	a1 02       	muls	r26, r17
     116:	a4 02       	muls	r26, r20
     118:	a8 02       	muls	r26, r24
     11a:	ac 02       	muls	r26, r28
     11c:	b0 02       	muls	r27, r16
     11e:	b4 02       	muls	r27, r20
     120:	b8 02       	muls	r27, r24
     122:	bc 02       	muls	r27, r28
     124:	c0 02       	muls	r28, r16
     126:	c4 02       	muls	r28, r20
     128:	c8 02       	muls	r28, r24
     12a:	cb 02       	muls	r28, r27
     12c:	de 0c       	add	r13, r14
     12e:	f1 0c       	add	r15, r1
     130:	23 0d       	add	r18, r3
     132:	2d 0d       	add	r18, r13
     134:	5f 0d       	add	r21, r15
     136:	68 0d       	add	r22, r8
     138:	6c 0d       	add	r22, r12
     13a:	ad 0d       	add	r26, r13
     13c:	d1 0d       	add	r29, r1
     13e:	da 0d       	add	r29, r10
     140:	e3 0d       	add	r30, r3
     142:	ec 0d       	add	r30, r12
     144:	f5 0d       	add	r31, r5
     146:	fe 0d       	add	r31, r14
     148:	07 0e       	add	r0, r23
     14a:	10 0e       	add	r1, r16
     14c:	19 0e       	add	r1, r25
     14e:	28 0e       	add	r2, r24
     150:	aa 0e       	add	r10, r26
     152:	b3 0e       	add	r11, r19
     154:	d1 0e       	add	r13, r17
     156:	d5 0e       	add	r13, r21
     158:	d9 0e       	add	r13, r25
     15a:	e0 0e       	add	r14, r16
     15c:	e5 0e       	add	r14, r21
     15e:	f9 0e       	add	r15, r25
     160:	fc 0e       	add	r15, r28
     162:	ff 0e       	add	r15, r31
     164:	02 0f       	add	r16, r18
     166:	05 0f       	add	r16, r21
     168:	08 0f       	add	r16, r24
     16a:	0b 0f       	add	r16, r27
     16c:	0f 0f       	add	r16, r31
     16e:	13 0f       	add	r17, r19
     170:	23 0f       	add	r18, r19
     172:	40 0f       	add	r20, r16
     174:	50 0f       	add	r21, r16
     176:	60 0f       	add	r22, r16
     178:	68 0f       	add	r22, r24
     17a:	8b 0f       	add	r24, r27
     17c:	8f 0f       	add	r24, r31
     17e:	93 0f       	add	r25, r19
     180:	97 0f       	add	r25, r23
     182:	0a 10       	cpse	r0, r10
     184:	23 10       	cpse	r2, r3
     186:	3c 10       	cpse	r3, r12
     188:	55 10       	cpse	r5, r5
     18a:	6e 10       	cpse	r6, r14
     18c:	87 10       	cpse	r8, r7
     18e:	a0 10       	cpse	r10, r0
     190:	b9 10       	cpse	r11, r9
     192:	d2 10       	cpse	r13, r2
     194:	eb 10       	cpse	r14, r11
     196:	04 11       	cpse	r16, r4
     198:	1d 11       	cpse	r17, r13
     19a:	36 11       	cpse	r19, r6
     19c:	4f 11       	cpse	r20, r15
     19e:	68 11       	cpse	r22, r8
     1a0:	81 11       	cpse	r24, r1
     1a2:	9a 11       	cpse	r25, r10
     1a4:	b3 11       	cpse	r27, r3
     1a6:	cc 11       	cpse	r28, r12
     1a8:	e5 11       	cpse	r30, r5
     1aa:	fe 11       	cpse	r31, r14
     1ac:	17 12       	cpse	r1, r23
     1ae:	30 12       	cpse	r3, r16
     1b0:	49 12       	cpse	r4, r25
     1b2:	62 12       	cpse	r6, r18
     1b4:	7b 12       	cpse	r7, r27
     1b6:	dd 12       	cpse	r13, r29
     1b8:	94 12       	cpse	r9, r20
     1ba:	9e 12       	cpse	r9, r30
     1bc:	b9 12       	cpse	r11, r25
     1be:	c1 12       	cpse	r12, r17
     1c0:	2f 14       	cp	r2, r15
     1c2:	38 14       	cp	r3, r8
     1c4:	41 14       	cp	r4, r1
     1c6:	4a 14       	cp	r4, r10
     1c8:	53 14       	cp	r5, r3
     1ca:	5c 14       	cp	r5, r12
     1cc:	65 14       	cp	r6, r5
     1ce:	6e 14       	cp	r6, r14
     1d0:	77 14       	cp	r7, r7
     1d2:	80 14       	cp	r8, r0
     1d4:	89 14       	cp	r8, r9
     1d6:	92 14       	cp	r9, r2
     1d8:	9b 14       	cp	r9, r11
     1da:	ab 14       	cp	r10, r11
     1dc:	b2 14       	cp	r11, r2
     1de:	b9 14       	cp	r11, r9
     1e0:	c0 14       	cp	r12, r0
     1e2:	c7 14       	cp	r12, r7
     1e4:	ce 14       	cp	r12, r14
     1e6:	d5 14       	cp	r13, r5
     1e8:	e5 14       	cp	r14, r5
     1ea:	f5 14       	cp	r15, r5
     1ec:	f8 14       	cp	r15, r8
     1ee:	3e 15       	cp	r19, r14
     1f0:	47 15       	cp	r20, r7
     1f2:	50 15       	cp	r21, r0
     1f4:	59 15       	cp	r21, r9
     1f6:	62 15       	cp	r22, r2
     1f8:	6b 15       	cp	r22, r11
     1fa:	74 15       	cp	r23, r4
     1fc:	84 15       	cp	r24, r4
     1fe:	94 15       	cp	r25, r4
     200:	e4 15       	cp	r30, r4
     202:	e8 15       	cp	r30, r8
     204:	ec 15       	cp	r30, r12
     206:	f0 15       	cp	r31, r0
     208:	f3 15       	cp	r31, r3
     20a:	25 16       	cp	r2, r21
     20c:	f6 15       	cp	r31, r6
     20e:	f9 15       	cp	r31, r9
     210:	fc 15       	cp	r31, r12
     212:	ff 15       	cp	r31, r15
     214:	02 16       	cp	r0, r18
     216:	05 16       	cp	r0, r21
     218:	08 16       	cp	r0, r24
     21a:	25 16       	cp	r2, r21
     21c:	25 16       	cp	r2, r21
     21e:	0b 16       	cp	r0, r27
     220:	0e 16       	cp	r0, r30
     222:	11 16       	cp	r1, r17
     224:	14 16       	cp	r1, r20
     226:	17 16       	cp	r1, r23
     228:	1a 16       	cp	r1, r26
     22a:	1d 16       	cp	r1, r29
     22c:	20 16       	cp	r2, r16
     22e:	23 16       	cp	r2, r19

00000230 <__ctors_end>:
     230:	11 24       	eor	r1, r1
     232:	1f be       	out	0x3f, r1	; 63
     234:	cf ef       	ldi	r28, 0xFF	; 255
     236:	d1 e2       	ldi	r29, 0x21	; 33
     238:	de bf       	out	0x3e, r29	; 62
     23a:	cd bf       	out	0x3d, r28	; 61
     23c:	00 e0       	ldi	r16, 0x00	; 0
     23e:	0c bf       	out	0x3c, r16	; 60

00000240 <__do_copy_data>:
     240:	17 e0       	ldi	r17, 0x07	; 7
     242:	a0 e0       	ldi	r26, 0x00	; 0
     244:	b2 e0       	ldi	r27, 0x02	; 2
     246:	e8 e5       	ldi	r30, 0x58	; 88
     248:	fd e5       	ldi	r31, 0x5D	; 93
     24a:	00 e0       	ldi	r16, 0x00	; 0
     24c:	0b bf       	out	0x3b, r16	; 59
     24e:	02 c0       	rjmp	.+4      	; 0x254 <__do_copy_data+0x14>
     250:	07 90       	elpm	r0, Z+
     252:	0d 92       	st	X+, r0
     254:	ac 3c       	cpi	r26, 0xCC	; 204
     256:	b1 07       	cpc	r27, r17
     258:	d9 f7       	brne	.-10     	; 0x250 <__do_copy_data+0x10>

0000025a <__do_clear_bss>:
     25a:	26 e1       	ldi	r18, 0x16	; 22
     25c:	ac ec       	ldi	r26, 0xCC	; 204
     25e:	b7 e0       	ldi	r27, 0x07	; 7
     260:	01 c0       	rjmp	.+2      	; 0x264 <.do_clear_bss_start>

00000262 <.do_clear_bss_loop>:
     262:	1d 92       	st	X+, r1

00000264 <.do_clear_bss_start>:
     264:	ac 37       	cpi	r26, 0x7C	; 124
     266:	b2 07       	cpc	r27, r18
     268:	e1 f7       	brne	.-8      	; 0x262 <.do_clear_bss_loop>
     26a:	0e 94 5f 2c 	call	0x58be	; 0x58be <main>
     26e:	0c 94 aa 2e 	jmp	0x5d54	; 0x5d54 <_exit>

00000272 <__bad_interrupt>:
     272:	c6 ce       	rjmp	.-628    	; 0x0 <__vectors>

00000274 <cocktail_test_command>:
			lese_textfile_in_getraenk(i);
			nextion_setText(string,aktuellesGetraenk->name);
		}
		_delay_ms(10);
	}
}
     274:	0e 94 74 2a 	call	0x54e8	; 0x54e8 <Uart_Transmit_IT_PC>
     278:	80 e7       	ldi	r24, 0x70	; 112
     27a:	96 e0       	ldi	r25, 0x06	; 6
     27c:	0c 94 74 2a 	jmp	0x54e8	; 0x54e8 <Uart_Transmit_IT_PC>
     280:	08 95       	ret

00000282 <schreibe_Menge_in_Getraenk>:
     282:	af 92       	push	r10
     284:	bf 92       	push	r11
     286:	cf 92       	push	r12
     288:	df 92       	push	r13
     28a:	ef 92       	push	r14
     28c:	ff 92       	push	r15
     28e:	0f 93       	push	r16
     290:	1f 93       	push	r17
     292:	cf 93       	push	r28
     294:	df 93       	push	r29
     296:	cd b7       	in	r28, 0x3d	; 61
     298:	de b7       	in	r29, 0x3e	; 62
     29a:	a3 97       	sbiw	r28, 0x23	; 35
     29c:	0f b6       	in	r0, 0x3f	; 63
     29e:	f8 94       	cli
     2a0:	de bf       	out	0x3e, r29	; 62
     2a2:	0f be       	out	0x3f, r0	; 63
     2a4:	cd bf       	out	0x3d, r28	; 61
     2a6:	fe 01       	movw	r30, r28
     2a8:	31 96       	adiw	r30, 0x01	; 1
     2aa:	9f e0       	ldi	r25, 0x0F	; 15
     2ac:	df 01       	movw	r26, r30
     2ae:	1d 92       	st	X+, r1
     2b0:	9a 95       	dec	r25
     2b2:	e9 f7       	brne	.-6      	; 0x2ae <schreibe_Menge_in_Getraenk+0x2c>
     2b4:	08 2f       	mov	r16, r24
     2b6:	10 e0       	ldi	r17, 0x00	; 0
     2b8:	80 91 61 12 	lds	r24, 0x1261	; 0x801261 <i_Liste>
     2bc:	b8 01       	movw	r22, r16
     2be:	68 0f       	add	r22, r24
     2c0:	71 1d       	adc	r23, r1
     2c2:	a0 91 69 12 	lds	r26, 0x1269	; 0x801269 <aktuellesGetraenk>
     2c6:	b0 91 6a 12 	lds	r27, 0x126A	; 0x80126a <aktuellesGetraenk+0x1>
     2ca:	20 e0       	ldi	r18, 0x00	; 0
     2cc:	30 e0       	ldi	r19, 0x00	; 0
     2ce:	90 e0       	ldi	r25, 0x00	; 0
     2d0:	62 17       	cp	r22, r18
     2d2:	73 07       	cpc	r23, r19
     2d4:	41 f0       	breq	.+16     	; 0x2e6 <schreibe_Menge_in_Getraenk+0x64>
     2d6:	14 96       	adiw	r26, 0x04	; 4
     2d8:	ed 91       	ld	r30, X+
     2da:	fc 91       	ld	r31, X
     2dc:	15 97       	sbiw	r26, 0x05	; 5
     2de:	e2 0f       	add	r30, r18
     2e0:	f3 1f       	adc	r31, r19
     2e2:	40 81       	ld	r20, Z
     2e4:	94 0f       	add	r25, r20
     2e6:	2f 5f       	subi	r18, 0xFF	; 255
     2e8:	3f 4f       	sbci	r19, 0xFF	; 255
     2ea:	2c 30       	cpi	r18, 0x0C	; 12
     2ec:	31 05       	cpc	r19, r1
     2ee:	81 f7       	brne	.-32     	; 0x2d0 <schreibe_Menge_in_Getraenk+0x4e>
     2f0:	84 e6       	ldi	r24, 0x64	; 100
     2f2:	f8 2e       	mov	r15, r24
     2f4:	f9 1a       	sub	r15, r25
     2f6:	87 e0       	ldi	r24, 0x07	; 7
     2f8:	e6 e2       	ldi	r30, 0x26	; 38
     2fa:	f3 e0       	ldi	r31, 0x03	; 3
     2fc:	de 01       	movw	r26, r28
     2fe:	11 96       	adiw	r26, 0x01	; 1
     300:	01 90       	ld	r0, Z+
     302:	0d 92       	st	X+, r0
     304:	8a 95       	dec	r24
     306:	e1 f7       	brne	.-8      	; 0x300 <schreibe_Menge_in_Getraenk+0x7e>
     308:	68 01       	movw	r12, r16
     30a:	bf ef       	ldi	r27, 0xFF	; 255
     30c:	cb 1a       	sub	r12, r27
     30e:	db 0a       	sbc	r13, r27
     310:	4a e0       	ldi	r20, 0x0A	; 10
     312:	be 01       	movw	r22, r28
     314:	60 5f       	subi	r22, 0xF0	; 240
     316:	7f 4f       	sbci	r23, 0xFF	; 255
     318:	c6 01       	movw	r24, r12
     31a:	0e 94 6f 2e 	call	0x5cde	; 0x5cde <__itoa_ncheck>
     31e:	be 01       	movw	r22, r28
     320:	60 5f       	subi	r22, 0xF0	; 240
     322:	7f 4f       	sbci	r23, 0xFF	; 255
     324:	ce 01       	movw	r24, r28
     326:	01 96       	adiw	r24, 0x01	; 1
     328:	0e 94 36 2e 	call	0x5c6c	; 0x5c6c <strcat>
     32c:	66 e7       	ldi	r22, 0x76	; 118
     32e:	74 e1       	ldi	r23, 0x14	; 20
     330:	ce 01       	movw	r24, r28
     332:	01 96       	adiw	r24, 0x01	; 1
     334:	0e 94 63 1c 	call	0x38c6	; 0x38c6 <nextion_getSliderValue>
     338:	e8 2e       	mov	r14, r24
     33a:	5e 01       	movw	r10, r28
     33c:	ea e1       	ldi	r30, 0x1A	; 26
     33e:	ae 0e       	add	r10, r30
     340:	b1 1c       	adc	r11, r1
     342:	8a e0       	ldi	r24, 0x0A	; 10
     344:	d5 01       	movw	r26, r10
     346:	1d 92       	st	X+, r1
     348:	8a 95       	dec	r24
     34a:	e9 f7       	brne	.-6      	; 0x346 <schreibe_Menge_in_Getraenk+0xc4>
     34c:	4a e0       	ldi	r20, 0x0A	; 10
     34e:	b5 01       	movw	r22, r10
     350:	8e 2d       	mov	r24, r14
     352:	90 e0       	ldi	r25, 0x00	; 0
     354:	0e 94 6f 2e 	call	0x5cde	; 0x5cde <__itoa_ncheck>
     358:	c5 01       	movw	r24, r10
     35a:	0e 94 74 2a 	call	0x54e8	; 0x54e8 <Uart_Transmit_IT_PC>
     35e:	83 ed       	ldi	r24, 0xD3	; 211
     360:	95 e0       	ldi	r25, 0x05	; 5
     362:	0e 94 74 2a 	call	0x54e8	; 0x54e8 <Uart_Transmit_IT_PC>
     366:	9f 2d       	mov	r25, r15
     368:	ef 14       	cp	r14, r15
     36a:	08 f4       	brcc	.+2      	; 0x36e <schreibe_Menge_in_Getraenk+0xec>
     36c:	9e 2d       	mov	r25, r14
     36e:	e0 91 69 12 	lds	r30, 0x1269	; 0x801269 <aktuellesGetraenk>
     372:	f0 91 6a 12 	lds	r31, 0x126A	; 0x80126a <aktuellesGetraenk+0x1>
     376:	20 91 61 12 	lds	r18, 0x1261	; 0x801261 <i_Liste>
     37a:	04 80       	ldd	r0, Z+4	; 0x04
     37c:	f5 81       	ldd	r31, Z+5	; 0x05
     37e:	e0 2d       	mov	r30, r0
     380:	0e 0f       	add	r16, r30
     382:	1f 1f       	adc	r17, r31
     384:	f8 01       	movw	r30, r16
     386:	e2 0f       	add	r30, r18
     388:	f1 1d       	adc	r31, r1
     38a:	90 83       	st	Z, r25
     38c:	09 2f       	mov	r16, r25
     38e:	10 e0       	ldi	r17, 0x00	; 0
     390:	7e 01       	movw	r14, r28
     392:	b0 e1       	ldi	r27, 0x10	; 16
     394:	eb 0e       	add	r14, r27
     396:	f1 1c       	adc	r15, r1
     398:	4a e0       	ldi	r20, 0x0A	; 10
     39a:	b7 01       	movw	r22, r14
     39c:	c8 01       	movw	r24, r16
     39e:	0e 94 6f 2e 	call	0x5cde	; 0x5cde <__itoa_ncheck>
     3a2:	f7 01       	movw	r30, r14
     3a4:	01 90       	ld	r0, Z+
     3a6:	00 20       	and	r0, r0
     3a8:	e9 f7       	brne	.-6      	; 0x3a4 <schreibe_Menge_in_Getraenk+0x122>
     3aa:	31 97       	sbiw	r30, 0x01	; 1
     3ac:	85 e2       	ldi	r24, 0x25	; 37
     3ae:	90 e0       	ldi	r25, 0x00	; 0
     3b0:	91 83       	std	Z+1, r25	; 0x01
     3b2:	80 83       	st	Z, r24
     3b4:	86 e0       	ldi	r24, 0x06	; 6
     3b6:	ed e2       	ldi	r30, 0x2D	; 45
     3b8:	f3 e0       	ldi	r31, 0x03	; 3
     3ba:	de 01       	movw	r26, r28
     3bc:	11 96       	adiw	r26, 0x01	; 1
     3be:	01 90       	ld	r0, Z+
     3c0:	0d 92       	st	X+, r0
     3c2:	8a 95       	dec	r24
     3c4:	e1 f7       	brne	.-8      	; 0x3be <schreibe_Menge_in_Getraenk+0x13c>
     3c6:	4a e0       	ldi	r20, 0x0A	; 10
     3c8:	be 01       	movw	r22, r28
     3ca:	6b 5e       	subi	r22, 0xEB	; 235
     3cc:	7f 4f       	sbci	r23, 0xFF	; 255
     3ce:	c6 01       	movw	r24, r12
     3d0:	0e 94 6f 2e 	call	0x5cde	; 0x5cde <__itoa_ncheck>
     3d4:	be 01       	movw	r22, r28
     3d6:	6b 5e       	subi	r22, 0xEB	; 235
     3d8:	7f 4f       	sbci	r23, 0xFF	; 255
     3da:	ce 01       	movw	r24, r28
     3dc:	01 96       	adiw	r24, 0x01	; 1
     3de:	0e 94 36 2e 	call	0x5c6c	; 0x5c6c <strcat>
     3e2:	b7 01       	movw	r22, r14
     3e4:	ce 01       	movw	r24, r28
     3e6:	01 96       	adiw	r24, 0x01	; 1
     3e8:	0e 94 15 1c 	call	0x382a	; 0x382a <nextion_setText>
     3ec:	4a e0       	ldi	r20, 0x0A	; 10
     3ee:	b7 01       	movw	r22, r14
     3f0:	c8 01       	movw	r24, r16
     3f2:	0e 94 6f 2e 	call	0x5cde	; 0x5cde <__itoa_ncheck>
     3f6:	87 e0       	ldi	r24, 0x07	; 7
     3f8:	e6 e2       	ldi	r30, 0x26	; 38
     3fa:	f3 e0       	ldi	r31, 0x03	; 3
     3fc:	de 01       	movw	r26, r28
     3fe:	11 96       	adiw	r26, 0x01	; 1
     400:	01 90       	ld	r0, Z+
     402:	0d 92       	st	X+, r0
     404:	8a 95       	dec	r24
     406:	e1 f7       	brne	.-8      	; 0x400 <__LOCK_REGION_LENGTH__>
     408:	4a e0       	ldi	r20, 0x0A	; 10
     40a:	be 01       	movw	r22, r28
     40c:	6b 5e       	subi	r22, 0xEB	; 235
     40e:	7f 4f       	sbci	r23, 0xFF	; 255
     410:	c6 01       	movw	r24, r12
     412:	0e 94 6f 2e 	call	0x5cde	; 0x5cde <__itoa_ncheck>
     416:	be 01       	movw	r22, r28
     418:	6b 5e       	subi	r22, 0xEB	; 235
     41a:	7f 4f       	sbci	r23, 0xFF	; 255
     41c:	ce 01       	movw	r24, r28
     41e:	01 96       	adiw	r24, 0x01	; 1
     420:	0e 94 36 2e 	call	0x5c6c	; 0x5c6c <strcat>
     424:	b7 01       	movw	r22, r14
     426:	ce 01       	movw	r24, r28
     428:	01 96       	adiw	r24, 0x01	; 1
     42a:	0e 94 2d 1c 	call	0x385a	; 0x385a <nextion_setValue>
     42e:	a3 96       	adiw	r28, 0x23	; 35
     430:	0f b6       	in	r0, 0x3f	; 63
     432:	f8 94       	cli
     434:	de bf       	out	0x3e, r29	; 62
     436:	0f be       	out	0x3f, r0	; 63
     438:	cd bf       	out	0x3d, r28	; 61
     43a:	df 91       	pop	r29
     43c:	cf 91       	pop	r28
     43e:	1f 91       	pop	r17
     440:	0f 91       	pop	r16
     442:	ff 90       	pop	r15
     444:	ef 90       	pop	r14
     446:	df 90       	pop	r13
     448:	cf 90       	pop	r12
     44a:	bf 90       	pop	r11
     44c:	af 90       	pop	r10
     44e:	08 95       	ret

00000450 <schalte_pumpe_ein>:
     450:	90 e0       	ldi	r25, 0x00	; 0
     452:	8c 30       	cpi	r24, 0x0C	; 12
     454:	91 05       	cpc	r25, r1
     456:	90 f5       	brcc	.+100    	; 0x4bc <schalte_pumpe_ein+0x6c>
     458:	fc 01       	movw	r30, r24
     45a:	88 27       	eor	r24, r24
     45c:	ee 58       	subi	r30, 0x8E	; 142
     45e:	ff 4f       	sbci	r31, 0xFF	; 255
     460:	8f 4f       	sbci	r24, 0xFF	; 255
     462:	0c 94 b3 2c 	jmp	0x5966	; 0x5966 <__tablejump2__>
     466:	12 9a       	sbi	0x02, 2	; 2
     468:	08 95       	ret
     46a:	13 9a       	sbi	0x02, 3	; 2
     46c:	08 95       	ret
     46e:	14 9a       	sbi	0x02, 4	; 2
     470:	08 95       	ret
     472:	15 9a       	sbi	0x02, 5	; 2
     474:	08 95       	ret
     476:	16 9a       	sbi	0x02, 6	; 2
     478:	08 95       	ret
     47a:	17 9a       	sbi	0x02, 7	; 2
     47c:	08 95       	ret
     47e:	a2 9a       	sbi	0x14, 2	; 20
     480:	08 95       	ret
     482:	e5 e0       	ldi	r30, 0x05	; 5
     484:	f1 e0       	ldi	r31, 0x01	; 1
     486:	80 81       	ld	r24, Z
     488:	80 64       	ori	r24, 0x40	; 64
     48a:	80 83       	st	Z, r24
     48c:	08 95       	ret
     48e:	e5 e0       	ldi	r30, 0x05	; 5
     490:	f1 e0       	ldi	r31, 0x01	; 1
     492:	80 81       	ld	r24, Z
     494:	80 62       	ori	r24, 0x20	; 32
     496:	80 83       	st	Z, r24
     498:	08 95       	ret
     49a:	e5 e0       	ldi	r30, 0x05	; 5
     49c:	f1 e0       	ldi	r31, 0x01	; 1
     49e:	80 81       	ld	r24, Z
     4a0:	80 61       	ori	r24, 0x10	; 16
     4a2:	80 83       	st	Z, r24
     4a4:	08 95       	ret
     4a6:	e5 e0       	ldi	r30, 0x05	; 5
     4a8:	f1 e0       	ldi	r31, 0x01	; 1
     4aa:	80 81       	ld	r24, Z
     4ac:	88 60       	ori	r24, 0x08	; 8
     4ae:	80 83       	st	Z, r24
     4b0:	08 95       	ret
     4b2:	e5 e0       	ldi	r30, 0x05	; 5
     4b4:	f1 e0       	ldi	r31, 0x01	; 1
     4b6:	80 81       	ld	r24, Z
     4b8:	84 60       	ori	r24, 0x04	; 4
     4ba:	80 83       	st	Z, r24
     4bc:	08 95       	ret

000004be <schalte_pumpe_aus>:
     4be:	90 e0       	ldi	r25, 0x00	; 0
     4c0:	8c 30       	cpi	r24, 0x0C	; 12
     4c2:	91 05       	cpc	r25, r1
     4c4:	90 f5       	brcc	.+100    	; 0x52a <schalte_pumpe_aus+0x6c>
     4c6:	fc 01       	movw	r30, r24
     4c8:	88 27       	eor	r24, r24
     4ca:	e2 58       	subi	r30, 0x82	; 130
     4cc:	ff 4f       	sbci	r31, 0xFF	; 255
     4ce:	8f 4f       	sbci	r24, 0xFF	; 255
     4d0:	0c 94 b3 2c 	jmp	0x5966	; 0x5966 <__tablejump2__>
     4d4:	12 98       	cbi	0x02, 2	; 2
     4d6:	08 95       	ret
     4d8:	13 98       	cbi	0x02, 3	; 2
     4da:	08 95       	ret
     4dc:	14 98       	cbi	0x02, 4	; 2
     4de:	08 95       	ret
     4e0:	15 98       	cbi	0x02, 5	; 2
     4e2:	08 95       	ret
     4e4:	16 98       	cbi	0x02, 6	; 2
     4e6:	08 95       	ret
     4e8:	17 98       	cbi	0x02, 7	; 2
     4ea:	08 95       	ret
     4ec:	a2 98       	cbi	0x14, 2	; 20
     4ee:	08 95       	ret
     4f0:	e5 e0       	ldi	r30, 0x05	; 5
     4f2:	f1 e0       	ldi	r31, 0x01	; 1
     4f4:	80 81       	ld	r24, Z
     4f6:	8f 7b       	andi	r24, 0xBF	; 191
     4f8:	80 83       	st	Z, r24
     4fa:	08 95       	ret
     4fc:	e5 e0       	ldi	r30, 0x05	; 5
     4fe:	f1 e0       	ldi	r31, 0x01	; 1
     500:	80 81       	ld	r24, Z
     502:	8f 7d       	andi	r24, 0xDF	; 223
     504:	80 83       	st	Z, r24
     506:	08 95       	ret
     508:	e5 e0       	ldi	r30, 0x05	; 5
     50a:	f1 e0       	ldi	r31, 0x01	; 1
     50c:	80 81       	ld	r24, Z
     50e:	8f 7e       	andi	r24, 0xEF	; 239
     510:	80 83       	st	Z, r24
     512:	08 95       	ret
     514:	e5 e0       	ldi	r30, 0x05	; 5
     516:	f1 e0       	ldi	r31, 0x01	; 1
     518:	80 81       	ld	r24, Z
     51a:	87 7f       	andi	r24, 0xF7	; 247
     51c:	80 83       	st	Z, r24
     51e:	08 95       	ret
     520:	e5 e0       	ldi	r30, 0x05	; 5
     522:	f1 e0       	ldi	r31, 0x01	; 1
     524:	80 81       	ld	r24, Z
     526:	8b 7f       	andi	r24, 0xFB	; 251
     528:	80 83       	st	Z, r24
     52a:	08 95       	ret

0000052c <lese_sensor>:
     52c:	90 e0       	ldi	r25, 0x00	; 0
     52e:	8c 30       	cpi	r24, 0x0C	; 12
     530:	91 05       	cpc	r25, r1
     532:	a0 f5       	brcc	.+104    	; 0x59c <lese_sensor+0x70>
     534:	fc 01       	movw	r30, r24
     536:	88 27       	eor	r24, r24
     538:	e6 57       	subi	r30, 0x76	; 118
     53a:	ff 4f       	sbci	r31, 0xFF	; 255
     53c:	8f 4f       	sbci	r24, 0xFF	; 255
     53e:	0c 94 b3 2c 	jmp	0x5966	; 0x5966 <__tablejump2__>
     542:	8f b1       	in	r24, 0x0f	; 15
     544:	80 78       	andi	r24, 0x80	; 128
     546:	08 95       	ret
     548:	80 91 06 01 	lds	r24, 0x0106	; 0x800106 <__TEXT_REGION_LENGTH__+0x700106>
     54c:	81 70       	andi	r24, 0x01	; 1
     54e:	08 95       	ret
     550:	80 91 06 01 	lds	r24, 0x0106	; 0x800106 <__TEXT_REGION_LENGTH__+0x700106>
     554:	82 70       	andi	r24, 0x02	; 2
     556:	08 95       	ret
     558:	80 91 06 01 	lds	r24, 0x0106	; 0x800106 <__TEXT_REGION_LENGTH__+0x700106>
     55c:	84 70       	andi	r24, 0x04	; 4
     55e:	08 95       	ret
     560:	80 91 06 01 	lds	r24, 0x0106	; 0x800106 <__TEXT_REGION_LENGTH__+0x700106>
     564:	88 70       	andi	r24, 0x08	; 8
     566:	08 95       	ret
     568:	80 91 06 01 	lds	r24, 0x0106	; 0x800106 <__TEXT_REGION_LENGTH__+0x700106>
     56c:	80 71       	andi	r24, 0x10	; 16
     56e:	08 95       	ret
     570:	80 91 06 01 	lds	r24, 0x0106	; 0x800106 <__TEXT_REGION_LENGTH__+0x700106>
     574:	80 72       	andi	r24, 0x20	; 32
     576:	08 95       	ret
     578:	80 91 06 01 	lds	r24, 0x0106	; 0x800106 <__TEXT_REGION_LENGTH__+0x700106>
     57c:	80 74       	andi	r24, 0x40	; 64
     57e:	08 95       	ret
     580:	80 91 06 01 	lds	r24, 0x0106	; 0x800106 <__TEXT_REGION_LENGTH__+0x700106>
     584:	80 78       	andi	r24, 0x80	; 128
     586:	08 95       	ret
     588:	80 91 03 01 	lds	r24, 0x0103	; 0x800103 <__TEXT_REGION_LENGTH__+0x700103>
     58c:	80 78       	andi	r24, 0x80	; 128
     58e:	08 95       	ret
     590:	80 b1       	in	r24, 0x00	; 0
     592:	81 70       	andi	r24, 0x01	; 1
     594:	08 95       	ret
     596:	80 b1       	in	r24, 0x00	; 0
     598:	82 70       	andi	r24, 0x02	; 2
     59a:	08 95       	ret
     59c:	80 e0       	ldi	r24, 0x00	; 0
     59e:	08 95       	ret

000005a0 <erstelle_Liste_zutat>:
     5a0:	7f 92       	push	r7
     5a2:	8f 92       	push	r8
     5a4:	9f 92       	push	r9
     5a6:	af 92       	push	r10
     5a8:	bf 92       	push	r11
     5aa:	cf 92       	push	r12
     5ac:	df 92       	push	r13
     5ae:	ef 92       	push	r14
     5b0:	ff 92       	push	r15
     5b2:	0f 93       	push	r16
     5b4:	1f 93       	push	r17
     5b6:	cf 93       	push	r28
     5b8:	df 93       	push	r29
     5ba:	cd b7       	in	r28, 0x3d	; 61
     5bc:	de b7       	in	r29, 0x3e	; 62
     5be:	c4 54       	subi	r28, 0x44	; 68
     5c0:	d1 09       	sbc	r29, r1
     5c2:	0f b6       	in	r0, 0x3f	; 63
     5c4:	f8 94       	cli
     5c6:	de bf       	out	0x3e, r29	; 62
     5c8:	0f be       	out	0x3f, r0	; 63
     5ca:	cd bf       	out	0x3d, r28	; 61
     5cc:	5c 01       	movw	r10, r24
     5ce:	80 91 13 0a 	lds	r24, 0x0A13	; 0x800a13 <head_zut>
     5d2:	90 91 14 0a 	lds	r25, 0x0A14	; 0x800a14 <head_zut+0x1>
     5d6:	90 93 6c 12 	sts	0x126C, r25	; 0x80126c <aktuelleZutat+0x1>
     5da:	80 93 6b 12 	sts	0x126B, r24	; 0x80126b <aktuelleZutat>
     5de:	95 e1       	ldi	r25, 0x15	; 21
     5e0:	fe 01       	movw	r30, r28
     5e2:	31 96       	adiw	r30, 0x01	; 1
     5e4:	df 01       	movw	r26, r30
     5e6:	29 2f       	mov	r18, r25
     5e8:	1d 92       	st	X+, r1
     5ea:	2a 95       	dec	r18
     5ec:	e9 f7       	brne	.-6      	; 0x5e8 <erstelle_Liste_zutat+0x48>
     5ee:	75 96       	adiw	r30, 0x15	; 21
     5f0:	df 01       	movw	r26, r30
     5f2:	29 2f       	mov	r18, r25
     5f4:	1d 92       	st	X+, r1
     5f6:	2a 95       	dec	r18
     5f8:	e9 f7       	brne	.-6      	; 0x5f4 <erstelle_Liste_zutat+0x54>
     5fa:	75 96       	adiw	r30, 0x15	; 21
     5fc:	df 01       	movw	r26, r30
     5fe:	1d 92       	st	X+, r1
     600:	9a 95       	dec	r25
     602:	e9 f7       	brne	.-6      	; 0x5fe <erstelle_Liste_zutat+0x5e>
     604:	75 96       	adiw	r30, 0x15	; 21
     606:	85 e0       	ldi	r24, 0x05	; 5
     608:	df 01       	movw	r26, r30
     60a:	1d 92       	st	X+, r1
     60c:	8a 95       	dec	r24
     60e:	e9 f7       	brne	.-6      	; 0x60a <erstelle_Liste_zutat+0x6a>
     610:	c0 90 61 12 	lds	r12, 0x1261	; 0x801261 <i_Liste>
     614:	0c 2d       	mov	r16, r12
     616:	10 e0       	ldi	r17, 0x00	; 0
     618:	c8 01       	movw	r24, r16
     61a:	04 96       	adiw	r24, 0x04	; 4
     61c:	08 17       	cp	r16, r24
     61e:	19 07       	cpc	r17, r25
     620:	0c f0       	brlt	.+2      	; 0x624 <erstelle_Liste_zutat+0x84>
     622:	d7 c0       	rjmp	.+430    	; 0x7d2 <erstelle_Liste_zutat+0x232>
     624:	68 01       	movw	r12, r16
     626:	c8 01       	movw	r24, r16
     628:	7f 01       	movw	r14, r30
     62a:	0f 2e       	mov	r0, r31
     62c:	f5 e2       	ldi	r31, 0x25	; 37
     62e:	8f 2e       	mov	r8, r31
     630:	91 2c       	mov	r9, r1
     632:	f0 2d       	mov	r31, r0
     634:	77 24       	eor	r7, r7
     636:	73 94       	inc	r7
     638:	98 01       	movw	r18, r16
     63a:	28 1b       	sub	r18, r24
     63c:	39 0b       	sbc	r19, r25
     63e:	c9 01       	movw	r24, r18
     640:	4a e0       	ldi	r20, 0x0A	; 10
     642:	b7 01       	movw	r22, r14
     644:	01 96       	adiw	r24, 0x01	; 1
     646:	0e 94 6f 2e 	call	0x5cde	; 0x5cde <__itoa_ncheck>
     64a:	b5 01       	movw	r22, r10
     64c:	ce 01       	movw	r24, r28
     64e:	01 96       	adiw	r24, 0x01	; 1
     650:	0e 94 41 2e 	call	0x5c82	; 0x5c82 <strcpy>
     654:	b7 01       	movw	r22, r14
     656:	ce 01       	movw	r24, r28
     658:	01 96       	adiw	r24, 0x01	; 1
     65a:	0e 94 36 2e 	call	0x5c6c	; 0x5c6c <strcat>
     65e:	87 e0       	ldi	r24, 0x07	; 7
     660:	e6 e2       	ldi	r30, 0x26	; 38
     662:	f3 e0       	ldi	r31, 0x03	; 3
     664:	de 01       	movw	r26, r28
     666:	56 96       	adiw	r26, 0x16	; 22
     668:	01 90       	ld	r0, Z+
     66a:	0d 92       	st	X+, r0
     66c:	8a 95       	dec	r24
     66e:	e1 f7       	brne	.-8      	; 0x668 <erstelle_Liste_zutat+0xc8>
     670:	b7 01       	movw	r22, r14
     672:	ce 01       	movw	r24, r28
     674:	46 96       	adiw	r24, 0x16	; 22
     676:	0e 94 36 2e 	call	0x5c6c	; 0x5c6c <strcat>
     67a:	86 e0       	ldi	r24, 0x06	; 6
     67c:	ed e2       	ldi	r30, 0x2D	; 45
     67e:	f3 e0       	ldi	r31, 0x03	; 3
     680:	de 01       	movw	r26, r28
     682:	9b 96       	adiw	r26, 0x2b	; 43
     684:	01 90       	ld	r0, Z+
     686:	0d 92       	st	X+, r0
     688:	8a 95       	dec	r24
     68a:	e1 f7       	brne	.-8      	; 0x684 <erstelle_Liste_zutat+0xe4>
     68c:	b7 01       	movw	r22, r14
     68e:	ce 01       	movw	r24, r28
     690:	8b 96       	adiw	r24, 0x2b	; 43
     692:	0e 94 36 2e 	call	0x5c6c	; 0x5c6c <strcat>
     696:	e0 91 6b 12 	lds	r30, 0x126B	; 0x80126b <aktuelleZutat>
     69a:	f0 91 6c 12 	lds	r31, 0x126C	; 0x80126c <aktuelleZutat+0x1>
     69e:	03 80       	ldd	r0, Z+3	; 0x03
     6a0:	f4 81       	ldd	r31, Z+4	; 0x04
     6a2:	e0 2d       	mov	r30, r0
     6a4:	82 81       	ldd	r24, Z+2	; 0x02
     6a6:	90 e0       	ldi	r25, 0x00	; 0
     6a8:	80 17       	cp	r24, r16
     6aa:	91 07       	cpc	r25, r17
     6ac:	c1 f7       	brne	.-16     	; 0x69e <erstelle_Liste_zutat+0xfe>
     6ae:	f0 93 6c 12 	sts	0x126C, r31	; 0x80126c <aktuelleZutat+0x1>
     6b2:	e0 93 6b 12 	sts	0x126B, r30	; 0x80126b <aktuelleZutat>
     6b6:	a0 91 13 0a 	lds	r26, 0x0A13	; 0x800a13 <head_zut>
     6ba:	b0 91 14 0a 	lds	r27, 0x0A14	; 0x800a14 <head_zut+0x1>
     6be:	12 96       	adiw	r26, 0x02	; 2
     6c0:	8c 91       	ld	r24, X
     6c2:	90 e0       	ldi	r25, 0x00	; 0
     6c4:	80 17       	cp	r24, r16
     6c6:	91 07       	cpc	r25, r17
     6c8:	69 f5       	brne	.+90     	; 0x724 <erstelle_Liste_zutat+0x184>
     6ca:	80 91 19 0a 	lds	r24, 0x0A19	; 0x800a19 <block_list_runter>
     6ce:	81 11       	cpse	r24, r1
     6d0:	2d c0       	rjmp	.+90     	; 0x72c <erstelle_Liste_zutat+0x18c>
     6d2:	70 92 19 0a 	sts	0x0A19, r7	; 0x800a19 <block_list_runter>
     6d6:	60 81       	ld	r22, Z
     6d8:	71 81       	ldd	r23, Z+1	; 0x01
     6da:	ce 01       	movw	r24, r28
     6dc:	01 96       	adiw	r24, 0x01	; 1
     6de:	0e 94 15 1c 	call	0x382a	; 0x382a <nextion_setText>
     6e2:	e0 91 69 12 	lds	r30, 0x1269	; 0x801269 <aktuellesGetraenk>
     6e6:	f0 91 6a 12 	lds	r31, 0x126A	; 0x80126a <aktuellesGetraenk+0x1>
     6ea:	04 80       	ldd	r0, Z+4	; 0x04
     6ec:	f5 81       	ldd	r31, Z+5	; 0x05
     6ee:	e0 2d       	mov	r30, r0
     6f0:	ec 0d       	add	r30, r12
     6f2:	fd 1d       	adc	r31, r13
     6f4:	80 81       	ld	r24, Z
     6f6:	4a e0       	ldi	r20, 0x0A	; 10
     6f8:	b7 01       	movw	r22, r14
     6fa:	90 e0       	ldi	r25, 0x00	; 0
     6fc:	0e 94 6f 2e 	call	0x5cde	; 0x5cde <__itoa_ncheck>
     700:	b7 01       	movw	r22, r14
     702:	ce 01       	movw	r24, r28
     704:	46 96       	adiw	r24, 0x16	; 22
     706:	0e 94 2d 1c 	call	0x385a	; 0x385a <nextion_setValue>
     70a:	f7 01       	movw	r30, r14
     70c:	01 90       	ld	r0, Z+
     70e:	00 20       	and	r0, r0
     710:	e9 f7       	brne	.-6      	; 0x70c <erstelle_Liste_zutat+0x16c>
     712:	31 97       	sbiw	r30, 0x01	; 1
     714:	91 82       	std	Z+1, r9	; 0x01
     716:	80 82       	st	Z, r8
     718:	b7 01       	movw	r22, r14
     71a:	ce 01       	movw	r24, r28
     71c:	8b 96       	adiw	r24, 0x2b	; 43
     71e:	0e 94 15 1c 	call	0x382a	; 0x382a <nextion_setText>
     722:	37 c0       	rjmp	.+110    	; 0x792 <erstelle_Liste_zutat+0x1f2>
     724:	80 91 19 0a 	lds	r24, 0x0A19	; 0x800a19 <block_list_runter>
     728:	88 23       	and	r24, r24
     72a:	69 f0       	breq	.+26     	; 0x746 <erstelle_Liste_zutat+0x1a6>
     72c:	62 e7       	ldi	r22, 0x72	; 114
     72e:	76 e0       	ldi	r23, 0x06	; 6
     730:	ce 01       	movw	r24, r28
     732:	01 96       	adiw	r24, 0x01	; 1
     734:	0e 94 15 1c 	call	0x382a	; 0x382a <nextion_setText>
     738:	65 ef       	ldi	r22, 0xF5	; 245
     73a:	73 e0       	ldi	r23, 0x03	; 3
     73c:	ce 01       	movw	r24, r28
     73e:	46 96       	adiw	r24, 0x16	; 22
     740:	0e 94 2d 1c 	call	0x385a	; 0x385a <nextion_setValue>
     744:	26 c0       	rjmp	.+76     	; 0x792 <erstelle_Liste_zutat+0x1f2>
     746:	60 81       	ld	r22, Z
     748:	71 81       	ldd	r23, Z+1	; 0x01
     74a:	ce 01       	movw	r24, r28
     74c:	01 96       	adiw	r24, 0x01	; 1
     74e:	0e 94 15 1c 	call	0x382a	; 0x382a <nextion_setText>
     752:	e0 91 69 12 	lds	r30, 0x1269	; 0x801269 <aktuellesGetraenk>
     756:	f0 91 6a 12 	lds	r31, 0x126A	; 0x80126a <aktuellesGetraenk+0x1>
     75a:	04 80       	ldd	r0, Z+4	; 0x04
     75c:	f5 81       	ldd	r31, Z+5	; 0x05
     75e:	e0 2d       	mov	r30, r0
     760:	ec 0d       	add	r30, r12
     762:	fd 1d       	adc	r31, r13
     764:	80 81       	ld	r24, Z
     766:	4a e0       	ldi	r20, 0x0A	; 10
     768:	b7 01       	movw	r22, r14
     76a:	90 e0       	ldi	r25, 0x00	; 0
     76c:	0e 94 6f 2e 	call	0x5cde	; 0x5cde <__itoa_ncheck>
     770:	b7 01       	movw	r22, r14
     772:	ce 01       	movw	r24, r28
     774:	46 96       	adiw	r24, 0x16	; 22
     776:	0e 94 2d 1c 	call	0x385a	; 0x385a <nextion_setValue>
     77a:	f7 01       	movw	r30, r14
     77c:	01 90       	ld	r0, Z+
     77e:	00 20       	and	r0, r0
     780:	e9 f7       	brne	.-6      	; 0x77c <erstelle_Liste_zutat+0x1dc>
     782:	31 97       	sbiw	r30, 0x01	; 1
     784:	91 82       	std	Z+1, r9	; 0x01
     786:	80 82       	st	Z, r8
     788:	b7 01       	movw	r22, r14
     78a:	ce 01       	movw	r24, r28
     78c:	8b 96       	adiw	r24, 0x2b	; 43
     78e:	0e 94 15 1c 	call	0x382a	; 0x382a <nextion_setText>
     792:	e0 91 5d 12 	lds	r30, 0x125D	; 0x80125d <tail_zut>
     796:	f0 91 5e 12 	lds	r31, 0x125E	; 0x80125e <tail_zut+0x1>
     79a:	82 81       	ldd	r24, Z+2	; 0x02
     79c:	90 e0       	ldi	r25, 0x00	; 0
     79e:	80 17       	cp	r24, r16
     7a0:	91 07       	cpc	r25, r17
     7a2:	11 f4       	brne	.+4      	; 0x7a8 <erstelle_Liste_zutat+0x208>
     7a4:	70 92 26 0e 	sts	0x0E26, r7	; 0x800e26 <block_list_hoch>
     7a8:	8f e3       	ldi	r24, 0x3F	; 63
     7aa:	9c e9       	ldi	r25, 0x9C	; 156
     7ac:	01 97       	sbiw	r24, 0x01	; 1
     7ae:	f1 f7       	brne	.-4      	; 0x7ac <erstelle_Liste_zutat+0x20c>
     7b0:	00 c0       	rjmp	.+0      	; 0x7b2 <erstelle_Liste_zutat+0x212>
     7b2:	00 00       	nop
     7b4:	0f 5f       	subi	r16, 0xFF	; 255
     7b6:	1f 4f       	sbci	r17, 0xFF	; 255
     7b8:	80 91 61 12 	lds	r24, 0x1261	; 0x801261 <i_Liste>
     7bc:	90 e0       	ldi	r25, 0x00	; 0
     7be:	af ef       	ldi	r26, 0xFF	; 255
     7c0:	ca 1a       	sub	r12, r26
     7c2:	da 0a       	sbc	r13, r26
     7c4:	9c 01       	movw	r18, r24
     7c6:	2c 5f       	subi	r18, 0xFC	; 252
     7c8:	3f 4f       	sbci	r19, 0xFF	; 255
     7ca:	02 17       	cp	r16, r18
     7cc:	13 07       	cpc	r17, r19
     7ce:	0c f4       	brge	.+2      	; 0x7d2 <erstelle_Liste_zutat+0x232>
     7d0:	33 cf       	rjmp	.-410    	; 0x638 <erstelle_Liste_zutat+0x98>
     7d2:	cc 5b       	subi	r28, 0xBC	; 188
     7d4:	df 4f       	sbci	r29, 0xFF	; 255
     7d6:	0f b6       	in	r0, 0x3f	; 63
     7d8:	f8 94       	cli
     7da:	de bf       	out	0x3e, r29	; 62
     7dc:	0f be       	out	0x3f, r0	; 63
     7de:	cd bf       	out	0x3d, r28	; 61
     7e0:	df 91       	pop	r29
     7e2:	cf 91       	pop	r28
     7e4:	1f 91       	pop	r17
     7e6:	0f 91       	pop	r16
     7e8:	ff 90       	pop	r15
     7ea:	ef 90       	pop	r14
     7ec:	df 90       	pop	r13
     7ee:	cf 90       	pop	r12
     7f0:	bf 90       	pop	r11
     7f2:	af 90       	pop	r10
     7f4:	9f 90       	pop	r9
     7f6:	8f 90       	pop	r8
     7f8:	7f 90       	pop	r7
     7fa:	08 95       	ret

000007fc <setze_startanzeige>:
     7fc:	0f 93       	push	r16
     7fe:	1f 93       	push	r17
     800:	cf 93       	push	r28
     802:	df 93       	push	r29
     804:	00 d0       	rcall	.+0      	; 0x806 <setze_startanzeige+0xa>
     806:	1f 92       	push	r1
     808:	cd b7       	in	r28, 0x3d	; 61
     80a:	de b7       	in	r29, 0x3e	; 62
     80c:	8c 01       	movw	r16, r24
     80e:	81 e0       	ldi	r24, 0x01	; 1
     810:	0e 94 f6 1b 	call	0x37ec	; 0x37ec <nextion_change_page>
     814:	f8 01       	movw	r30, r16
     816:	60 81       	ld	r22, Z
     818:	71 81       	ldd	r23, Z+1	; 0x01
     81a:	83 e3       	ldi	r24, 0x33	; 51
     81c:	93 e0       	ldi	r25, 0x03	; 3
     81e:	0e 94 15 1c 	call	0x382a	; 0x382a <nextion_setText>
     822:	f8 01       	movw	r30, r16
     824:	86 81       	ldd	r24, Z+6	; 0x06
     826:	4a e0       	ldi	r20, 0x0A	; 10
     828:	be 01       	movw	r22, r28
     82a:	6f 5f       	subi	r22, 0xFF	; 255
     82c:	7f 4f       	sbci	r23, 0xFF	; 255
     82e:	90 e0       	ldi	r25, 0x00	; 0
     830:	0e 94 6f 2e 	call	0x5cde	; 0x5cde <__itoa_ncheck>
     834:	ae 01       	movw	r20, r28
     836:	4f 5f       	subi	r20, 0xFF	; 255
     838:	5f 4f       	sbci	r21, 0xFF	; 255
     83a:	60 e4       	ldi	r22, 0x40	; 64
     83c:	73 e0       	ldi	r23, 0x03	; 3
     83e:	83 e4       	ldi	r24, 0x43	; 67
     840:	93 e0       	ldi	r25, 0x03	; 3
     842:	0e 94 3d 1c 	call	0x387a	; 0x387a <nextion_setPicture>
     846:	80 91 e3 09 	lds	r24, 0x09E3	; 0x8009e3 <Liste>
     84a:	81 30       	cpi	r24, 0x01	; 1
     84c:	59 f0       	breq	.+22     	; 0x864 <setze_startanzeige+0x68>
     84e:	18 f0       	brcs	.+6      	; 0x856 <setze_startanzeige+0x5a>
     850:	82 30       	cpi	r24, 0x02	; 2
     852:	79 f0       	breq	.+30     	; 0x872 <setze_startanzeige+0x76>
     854:	14 c0       	rjmp	.+40     	; 0x87e <setze_startanzeige+0x82>
     856:	67 e4       	ldi	r22, 0x47	; 71
     858:	73 e0       	ldi	r23, 0x03	; 3
     85a:	83 e5       	ldi	r24, 0x53	; 83
     85c:	93 e0       	ldi	r25, 0x03	; 3
     85e:	0e 94 15 1c 	call	0x382a	; 0x382a <nextion_setText>
     862:	0d c0       	rjmp	.+26     	; 0x87e <setze_startanzeige+0x82>
     864:	61 e6       	ldi	r22, 0x61	; 97
     866:	73 e0       	ldi	r23, 0x03	; 3
     868:	83 e5       	ldi	r24, 0x53	; 83
     86a:	93 e0       	ldi	r25, 0x03	; 3
     86c:	0e 94 15 1c 	call	0x382a	; 0x382a <nextion_setText>
     870:	06 c0       	rjmp	.+12     	; 0x87e <setze_startanzeige+0x82>
     872:	6d e6       	ldi	r22, 0x6D	; 109
     874:	73 e0       	ldi	r23, 0x03	; 3
     876:	83 e5       	ldi	r24, 0x53	; 83
     878:	93 e0       	ldi	r25, 0x03	; 3
     87a:	0e 94 15 1c 	call	0x382a	; 0x382a <nextion_setText>
     87e:	0f 90       	pop	r0
     880:	0f 90       	pop	r0
     882:	0f 90       	pop	r0
     884:	0f 90       	pop	r0
     886:	df 91       	pop	r29
     888:	cf 91       	pop	r28
     88a:	1f 91       	pop	r17
     88c:	0f 91       	pop	r16
     88e:	08 95       	ret

00000890 <fuelle_getraenk>:
     890:	2f 92       	push	r2
     892:	3f 92       	push	r3
     894:	4f 92       	push	r4
     896:	5f 92       	push	r5
     898:	6f 92       	push	r6
     89a:	7f 92       	push	r7
     89c:	8f 92       	push	r8
     89e:	9f 92       	push	r9
     8a0:	af 92       	push	r10
     8a2:	bf 92       	push	r11
     8a4:	cf 92       	push	r12
     8a6:	df 92       	push	r13
     8a8:	ef 92       	push	r14
     8aa:	ff 92       	push	r15
     8ac:	0f 93       	push	r16
     8ae:	1f 93       	push	r17
     8b0:	cf 93       	push	r28
     8b2:	df 93       	push	r29
     8b4:	cd b7       	in	r28, 0x3d	; 61
     8b6:	de b7       	in	r29, 0x3e	; 62
     8b8:	cc 54       	subi	r28, 0x4C	; 76
     8ba:	d1 09       	sbc	r29, r1
     8bc:	0f b6       	in	r0, 0x3f	; 63
     8be:	f8 94       	cli
     8c0:	de bf       	out	0x3e, r29	; 62
     8c2:	0f be       	out	0x3f, r0	; 63
     8c4:	cd bf       	out	0x3d, r28	; 61
     8c6:	2b 96       	adiw	r28, 0x0b	; 11
     8c8:	6c af       	std	Y+60, r22	; 0x3c
     8ca:	7d af       	std	Y+61, r23	; 0x3d
     8cc:	8e af       	std	Y+62, r24	; 0x3e
     8ce:	9f af       	std	Y+63, r25	; 0x3f
     8d0:	2b 97       	sbiw	r28, 0x0b	; 11
     8d2:	ce 01       	movw	r24, r28
     8d4:	01 96       	adiw	r24, 0x01	; 1
     8d6:	6c 01       	movw	r12, r24
     8d8:	00 e0       	ldi	r16, 0x00	; 0
     8da:	10 e0       	ldi	r17, 0x00	; 0
     8dc:	0f 2e       	mov	r0, r31
     8de:	f5 e0       	ldi	r31, 0x05	; 5
     8e0:	8f 2e       	mov	r8, r31
     8e2:	f0 2d       	mov	r31, r0
     8e4:	fe 01       	movw	r30, r28
     8e6:	fb 96       	adiw	r30, 0x3b	; 59
     8e8:	27 96       	adiw	r28, 0x07	; 7
     8ea:	ff af       	std	Y+63, r31	; 0x3f
     8ec:	ee af       	std	Y+62, r30	; 0x3e
     8ee:	27 97       	sbiw	r28, 0x07	; 7
     8f0:	26 96       	adiw	r28, 0x06	; 6
     8f2:	9f ac       	ldd	r9, Y+63	; 0x3f
     8f4:	26 97       	sbiw	r28, 0x06	; 6
     8f6:	27 96       	adiw	r28, 0x07	; 7
     8f8:	af ac       	ldd	r10, Y+63	; 0x3f
     8fa:	27 97       	sbiw	r28, 0x07	; 7
     8fc:	21 2c       	mov	r2, r1
     8fe:	e0 91 69 12 	lds	r30, 0x1269	; 0x801269 <aktuellesGetraenk>
     902:	f0 91 6a 12 	lds	r31, 0x126A	; 0x80126a <aktuellesGetraenk+0x1>
     906:	04 80       	ldd	r0, Z+4	; 0x04
     908:	f5 81       	ldd	r31, Z+5	; 0x05
     90a:	e0 2d       	mov	r30, r0
     90c:	e0 0f       	add	r30, r16
     90e:	f1 1f       	adc	r31, r17
     910:	80 81       	ld	r24, Z
     912:	88 23       	and	r24, r24
     914:	09 f4       	brne	.+2      	; 0x918 <fuelle_getraenk+0x88>
     916:	0f c1       	rjmp	.+542    	; 0xb36 <fuelle_getraenk+0x2a6>
     918:	80 91 63 12 	lds	r24, 0x1263	; 0x801263 <stop>
     91c:	81 11       	cpse	r24, r1
     91e:	0b c1       	rjmp	.+534    	; 0xb36 <fuelle_getraenk+0x2a6>
     920:	4a e0       	ldi	r20, 0x0A	; 10
     922:	be 01       	movw	r22, r28
     924:	60 5c       	subi	r22, 0xC0	; 192
     926:	7f 4f       	sbci	r23, 0xFF	; 255
     928:	80 81       	ld	r24, Z
     92a:	91 81       	ldd	r25, Z+1	; 0x01
     92c:	0e 94 6f 2e 	call	0x5cde	; 0x5cde <__itoa_ncheck>
     930:	ce 01       	movw	r24, r28
     932:	80 5c       	subi	r24, 0xC0	; 192
     934:	9f 4f       	sbci	r25, 0xFF	; 255
     936:	0e 94 74 2a 	call	0x54e8	; 0x54e8 <Uart_Transmit_IT_PC>
     93a:	83 ed       	ldi	r24, 0xD3	; 211
     93c:	95 e0       	ldi	r25, 0x05	; 5
     93e:	0e 94 74 2a 	call	0x54e8	; 0x54e8 <Uart_Transmit_IT_PC>
     942:	80 e3       	ldi	r24, 0x30	; 48
     944:	e6 e0       	ldi	r30, 0x06	; 6
     946:	f2 e0       	ldi	r31, 0x02	; 2
     948:	de 01       	movw	r26, r28
     94a:	11 96       	adiw	r26, 0x01	; 1
     94c:	01 90       	ld	r0, Z+
     94e:	0d 92       	st	X+, r0
     950:	8a 95       	dec	r24
     952:	e1 f7       	brne	.-8      	; 0x94c <fuelle_getraenk+0xbc>
     954:	f6 01       	movw	r30, r12
     956:	40 80       	ld	r4, Z
     958:	51 80       	ldd	r5, Z+1	; 0x01
     95a:	62 80       	ldd	r6, Z+2	; 0x02
     95c:	73 80       	ldd	r7, Z+3	; 0x03
     95e:	4a e0       	ldi	r20, 0x0A	; 10
     960:	be 01       	movw	r22, r28
     962:	6f 5c       	subi	r22, 0xCF	; 207
     964:	7f 4f       	sbci	r23, 0xFF	; 255
     966:	c2 01       	movw	r24, r4
     968:	0e 94 6f 2e 	call	0x5cde	; 0x5cde <__itoa_ncheck>
     96c:	ce 01       	movw	r24, r28
     96e:	c1 96       	adiw	r24, 0x31	; 49
     970:	0e 94 74 2a 	call	0x54e8	; 0x54e8 <Uart_Transmit_IT_PC>
     974:	83 ed       	ldi	r24, 0xD3	; 211
     976:	95 e0       	ldi	r25, 0x05	; 5
     978:	0e 94 74 2a 	call	0x54e8	; 0x54e8 <Uart_Transmit_IT_PC>
     97c:	e0 91 69 12 	lds	r30, 0x1269	; 0x801269 <aktuellesGetraenk>
     980:	f0 91 6a 12 	lds	r31, 0x126A	; 0x80126a <aktuellesGetraenk+0x1>
     984:	84 81       	ldd	r24, Z+4	; 0x04
     986:	95 81       	ldd	r25, Z+5	; 0x05
     988:	fc 01       	movw	r30, r24
     98a:	e0 0f       	add	r30, r16
     98c:	f1 1f       	adc	r31, r17
     98e:	b0 80       	ld	r11, Z
     990:	a3 01       	movw	r20, r6
     992:	92 01       	movw	r18, r4
     994:	2b 96       	adiw	r28, 0x0b	; 11
     996:	6c ad       	ldd	r22, Y+60	; 0x3c
     998:	7d ad       	ldd	r23, Y+61	; 0x3d
     99a:	8e ad       	ldd	r24, Y+62	; 0x3e
     99c:	9f ad       	ldd	r25, Y+63	; 0x3f
     99e:	2b 97       	sbiw	r28, 0x0b	; 11
     9a0:	0e 94 82 2c 	call	0x5904	; 0x5904 <__mulsi3>
     9a4:	9b 01       	movw	r18, r22
     9a6:	ac 01       	movw	r20, r24
     9a8:	ab 2d       	mov	r26, r11
     9aa:	b0 e0       	ldi	r27, 0x00	; 0
     9ac:	0e 94 ca 2c 	call	0x5994	; 0x5994 <__muluhisi3>
     9b0:	24 e6       	ldi	r18, 0x64	; 100
     9b2:	30 e0       	ldi	r19, 0x00	; 0
     9b4:	40 e0       	ldi	r20, 0x00	; 0
     9b6:	50 e0       	ldi	r21, 0x00	; 0
     9b8:	0e 94 91 2c 	call	0x5922	; 0x5922 <__udivmodsi4>
     9bc:	e2 2e       	mov	r14, r18
     9be:	f3 2e       	mov	r15, r19
     9c0:	42 2e       	mov	r4, r18
     9c2:	53 2e       	mov	r5, r19
     9c4:	64 2e       	mov	r6, r20
     9c6:	75 2e       	mov	r7, r21
     9c8:	4a e0       	ldi	r20, 0x0A	; 10
     9ca:	be 01       	movw	r22, r28
     9cc:	6f 5c       	subi	r22, 0xCF	; 207
     9ce:	7f 4f       	sbci	r23, 0xFF	; 255
     9d0:	8b 2d       	mov	r24, r11
     9d2:	90 e0       	ldi	r25, 0x00	; 0
     9d4:	0e 94 6f 2e 	call	0x5cde	; 0x5cde <__itoa_ncheck>
     9d8:	ce 01       	movw	r24, r28
     9da:	c1 96       	adiw	r24, 0x31	; 49
     9dc:	0e 94 74 2a 	call	0x54e8	; 0x54e8 <Uart_Transmit_IT_PC>
     9e0:	83 ed       	ldi	r24, 0xD3	; 211
     9e2:	95 e0       	ldi	r25, 0x05	; 5
     9e4:	0e 94 74 2a 	call	0x54e8	; 0x54e8 <Uart_Transmit_IT_PC>
     9e8:	4a e0       	ldi	r20, 0x0A	; 10
     9ea:	be 01       	movw	r22, r28
     9ec:	6f 5c       	subi	r22, 0xCF	; 207
     9ee:	7f 4f       	sbci	r23, 0xFF	; 255
     9f0:	29 96       	adiw	r28, 0x09	; 9
     9f2:	8e ad       	ldd	r24, Y+62	; 0x3e
     9f4:	9f ad       	ldd	r25, Y+63	; 0x3f
     9f6:	29 97       	sbiw	r28, 0x09	; 9
     9f8:	0e 94 6f 2e 	call	0x5cde	; 0x5cde <__itoa_ncheck>
     9fc:	ce 01       	movw	r24, r28
     9fe:	c1 96       	adiw	r24, 0x31	; 49
     a00:	0e 94 74 2a 	call	0x54e8	; 0x54e8 <Uart_Transmit_IT_PC>
     a04:	83 ed       	ldi	r24, 0xD3	; 211
     a06:	95 e0       	ldi	r25, 0x05	; 5
     a08:	0e 94 74 2a 	call	0x54e8	; 0x54e8 <Uart_Transmit_IT_PC>
     a0c:	4a e0       	ldi	r20, 0x0A	; 10
     a0e:	be 01       	movw	r22, r28
     a10:	6f 5c       	subi	r22, 0xCF	; 207
     a12:	7f 4f       	sbci	r23, 0xFF	; 255
     a14:	8e 2d       	mov	r24, r14
     a16:	9f 2d       	mov	r25, r15
     a18:	0e 94 6f 2e 	call	0x5cde	; 0x5cde <__itoa_ncheck>
     a1c:	ce 01       	movw	r24, r28
     a1e:	c1 96       	adiw	r24, 0x31	; 49
     a20:	0e 94 74 2a 	call	0x54e8	; 0x54e8 <Uart_Transmit_IT_PC>
     a24:	83 ed       	ldi	r24, 0xD3	; 211
     a26:	95 e0       	ldi	r25, 0x05	; 5
     a28:	0e 94 74 2a 	call	0x54e8	; 0x54e8 <Uart_Transmit_IT_PC>
     a2c:	30 2e       	mov	r3, r16
     a2e:	80 2f       	mov	r24, r16
     a30:	7d dd       	rcall	.-1286   	; 0x52c <lese_sensor>
     a32:	80 2f       	mov	r24, r16
     a34:	0d dd       	rcall	.-1510   	; 0x450 <schalte_pumpe_ein>
     a36:	bb 24       	eor	r11, r11
     a38:	b3 94       	inc	r11
     a3a:	2d 96       	adiw	r28, 0x0d	; 13
     a3c:	1f af       	std	Y+63, r17	; 0x3f
     a3e:	0e af       	std	Y+62, r16	; 0x3e
     a40:	2d 97       	sbiw	r28, 0x0d	; 13
     a42:	83 2d       	mov	r24, r3
     a44:	73 dd       	rcall	.-1306   	; 0x52c <lese_sensor>
     a46:	e8 2e       	mov	r14, r24
     a48:	10 91 d2 07 	lds	r17, 0x07D2	; 0x8007d2 <oldval.3222>
     a4c:	11 11       	cpse	r17, r1
     a4e:	6b c0       	rjmp	.+214    	; 0xb26 <fuelle_getraenk+0x296>
     a50:	88 23       	and	r24, r24
     a52:	09 f4       	brne	.+2      	; 0xa56 <fuelle_getraenk+0x1c6>
     a54:	68 c0       	rjmp	.+208    	; 0xb26 <fuelle_getraenk+0x296>
     a56:	80 91 ce 07 	lds	r24, 0x07CE	; 0x8007ce <count.3223>
     a5a:	90 91 cf 07 	lds	r25, 0x07CF	; 0x8007cf <count.3223+0x1>
     a5e:	a0 91 d0 07 	lds	r26, 0x07D0	; 0x8007d0 <count.3223+0x2>
     a62:	b0 91 d1 07 	lds	r27, 0x07D1	; 0x8007d1 <count.3223+0x3>
     a66:	ac 01       	movw	r20, r24
     a68:	bd 01       	movw	r22, r26
     a6a:	4f 5f       	subi	r20, 0xFF	; 255
     a6c:	5f 4f       	sbci	r21, 0xFF	; 255
     a6e:	6f 4f       	sbci	r22, 0xFF	; 255
     a70:	7f 4f       	sbci	r23, 0xFF	; 255
     a72:	40 93 ce 07 	sts	0x07CE, r20	; 0x8007ce <count.3223>
     a76:	50 93 cf 07 	sts	0x07CF, r21	; 0x8007cf <count.3223+0x1>
     a7a:	60 93 d0 07 	sts	0x07D0, r22	; 0x8007d0 <count.3223+0x2>
     a7e:	70 93 d1 07 	sts	0x07D1, r23	; 0x8007d1 <count.3223+0x3>
     a82:	48 16       	cp	r4, r24
     a84:	59 06       	cpc	r5, r25
     a86:	6a 06       	cpc	r6, r26
     a88:	7b 06       	cpc	r7, r27
     a8a:	58 f4       	brcc	.+22     	; 0xaa2 <fuelle_getraenk+0x212>
     a8c:	83 2d       	mov	r24, r3
     a8e:	17 dd       	rcall	.-1490   	; 0x4be <schalte_pumpe_aus>
     a90:	10 92 ce 07 	sts	0x07CE, r1	; 0x8007ce <count.3223>
     a94:	10 92 cf 07 	sts	0x07CF, r1	; 0x8007cf <count.3223+0x1>
     a98:	10 92 d0 07 	sts	0x07D0, r1	; 0x8007d0 <count.3223+0x2>
     a9c:	10 92 d1 07 	sts	0x07D1, r1	; 0x8007d1 <count.3223+0x3>
     aa0:	b2 2c       	mov	r11, r2
     aa2:	27 96       	adiw	r28, 0x07	; 7
     aa4:	ee ad       	ldd	r30, Y+62	; 0x3e
     aa6:	ff ad       	ldd	r31, Y+63	; 0x3f
     aa8:	27 97       	sbiw	r28, 0x07	; 7
     aaa:	28 2d       	mov	r18, r8
     aac:	11 92       	st	Z+, r1
     aae:	2a 95       	dec	r18
     ab0:	e9 f7       	brne	.-6      	; 0xaac <fuelle_getraenk+0x21c>
     ab2:	4a e0       	ldi	r20, 0x0A	; 10
     ab4:	69 2d       	mov	r22, r9
     ab6:	7a 2d       	mov	r23, r10
     ab8:	ee ec       	ldi	r30, 0xCE	; 206
     aba:	f7 e0       	ldi	r31, 0x07	; 7
     abc:	80 81       	ld	r24, Z
     abe:	91 81       	ldd	r25, Z+1	; 0x01
     ac0:	0e 94 6f 2e 	call	0x5cde	; 0x5cde <__itoa_ncheck>
     ac4:	89 2d       	mov	r24, r9
     ac6:	9a 2d       	mov	r25, r10
     ac8:	0e 94 74 2a 	call	0x54e8	; 0x54e8 <Uart_Transmit_IT_PC>
     acc:	83 ed       	ldi	r24, 0xD3	; 211
     ace:	95 e0       	ldi	r25, 0x05	; 5
     ad0:	0e 94 74 2a 	call	0x54e8	; 0x54e8 <Uart_Transmit_IT_PC>
     ad4:	0e 94 bc 1a 	call	0x3578	; 0x3578 <check_Communication_Input_UART_1>
     ad8:	88 23       	and	r24, r24
     ada:	29 f1       	breq	.+74     	; 0xb26 <fuelle_getraenk+0x296>
     adc:	0e 94 45 1b 	call	0x368a	; 0x368a <proceed_Communication_INPUT_UART_1>
     ae0:	80 91 63 12 	lds	r24, 0x1263	; 0x801263 <stop>
     ae4:	81 30       	cpi	r24, 0x01	; 1
     ae6:	f9 f4       	brne	.+62     	; 0xb26 <fuelle_getraenk+0x296>
     ae8:	81 2f       	mov	r24, r17
     aea:	e9 dc       	rcall	.-1582   	; 0x4be <schalte_pumpe_aus>
     aec:	1f 5f       	subi	r17, 0xFF	; 255
     aee:	1c 30       	cpi	r17, 0x0C	; 12
     af0:	d9 f7       	brne	.-10     	; 0xae8 <fuelle_getraenk+0x258>
     af2:	8e e0       	ldi	r24, 0x0E	; 14
     af4:	0e 94 f6 1b 	call	0x37ec	; 0x37ec <nextion_change_page>
     af8:	ff ef       	ldi	r31, 0xFF	; 255
     afa:	27 ea       	ldi	r18, 0xA7	; 167
     afc:	81 e6       	ldi	r24, 0x61	; 97
     afe:	f1 50       	subi	r31, 0x01	; 1
     b00:	20 40       	sbci	r18, 0x00	; 0
     b02:	80 40       	sbci	r24, 0x00	; 0
     b04:	e1 f7       	brne	.-8      	; 0xafe <fuelle_getraenk+0x26e>
     b06:	00 c0       	rjmp	.+0      	; 0xb08 <fuelle_getraenk+0x278>
     b08:	00 00       	nop
     b0a:	80 91 69 12 	lds	r24, 0x1269	; 0x801269 <aktuellesGetraenk>
     b0e:	90 91 6a 12 	lds	r25, 0x126A	; 0x80126a <aktuellesGetraenk+0x1>
     b12:	74 de       	rcall	.-792    	; 0x7fc <setze_startanzeige>
     b14:	10 92 ce 07 	sts	0x07CE, r1	; 0x8007ce <count.3223>
     b18:	10 92 cf 07 	sts	0x07CF, r1	; 0x8007cf <count.3223+0x1>
     b1c:	10 92 d0 07 	sts	0x07D0, r1	; 0x8007d0 <count.3223+0x2>
     b20:	10 92 d1 07 	sts	0x07D1, r1	; 0x8007d1 <count.3223+0x3>
     b24:	b2 2c       	mov	r11, r2
     b26:	e0 92 d2 07 	sts	0x07D2, r14	; 0x8007d2 <oldval.3222>
     b2a:	b1 10       	cpse	r11, r1
     b2c:	8a cf       	rjmp	.-236    	; 0xa42 <fuelle_getraenk+0x1b2>
     b2e:	2d 96       	adiw	r28, 0x0d	; 13
     b30:	0e ad       	ldd	r16, Y+62	; 0x3e
     b32:	1f ad       	ldd	r17, Y+63	; 0x3f
     b34:	2d 97       	sbiw	r28, 0x0d	; 13
     b36:	0f 5f       	subi	r16, 0xFF	; 255
     b38:	1f 4f       	sbci	r17, 0xFF	; 255
     b3a:	94 e0       	ldi	r25, 0x04	; 4
     b3c:	c9 0e       	add	r12, r25
     b3e:	d1 1c       	adc	r13, r1
     b40:	0c 30       	cpi	r16, 0x0C	; 12
     b42:	11 05       	cpc	r17, r1
     b44:	09 f0       	breq	.+2      	; 0xb48 <fuelle_getraenk+0x2b8>
     b46:	db ce       	rjmp	.-586    	; 0x8fe <fuelle_getraenk+0x6e>
     b48:	10 92 63 12 	sts	0x1263, r1	; 0x801263 <stop>
     b4c:	c4 5b       	subi	r28, 0xB4	; 180
     b4e:	df 4f       	sbci	r29, 0xFF	; 255
     b50:	0f b6       	in	r0, 0x3f	; 63
     b52:	f8 94       	cli
     b54:	de bf       	out	0x3e, r29	; 62
     b56:	0f be       	out	0x3f, r0	; 63
     b58:	cd bf       	out	0x3d, r28	; 61
     b5a:	df 91       	pop	r29
     b5c:	cf 91       	pop	r28
     b5e:	1f 91       	pop	r17
     b60:	0f 91       	pop	r16
     b62:	ff 90       	pop	r15
     b64:	ef 90       	pop	r14
     b66:	df 90       	pop	r13
     b68:	cf 90       	pop	r12
     b6a:	bf 90       	pop	r11
     b6c:	af 90       	pop	r10
     b6e:	9f 90       	pop	r9
     b70:	8f 90       	pop	r8
     b72:	7f 90       	pop	r7
     b74:	6f 90       	pop	r6
     b76:	5f 90       	pop	r5
     b78:	4f 90       	pop	r4
     b7a:	3f 90       	pop	r3
     b7c:	2f 90       	pop	r2
     b7e:	08 95       	ret

00000b80 <zubereitung_getraenk>:
     b80:	cf 92       	push	r12
     b82:	df 92       	push	r13
     b84:	ef 92       	push	r14
     b86:	ff 92       	push	r15
     b88:	6b 01       	movw	r12, r22
     b8a:	7c 01       	movw	r14, r24
     b8c:	85 e0       	ldi	r24, 0x05	; 5
     b8e:	0e 94 f6 1b 	call	0x37ec	; 0x37ec <nextion_change_page>
     b92:	62 e7       	ldi	r22, 0x72	; 114
     b94:	73 e0       	ldi	r23, 0x03	; 3
     b96:	83 ea       	ldi	r24, 0xA3	; 163
     b98:	93 e0       	ldi	r25, 0x03	; 3
     b9a:	0e 94 15 1c 	call	0x382a	; 0x382a <nextion_setText>
     b9e:	2f ef       	ldi	r18, 0xFF	; 255
     ba0:	83 ed       	ldi	r24, 0xD3	; 211
     ba2:	90 e3       	ldi	r25, 0x30	; 48
     ba4:	21 50       	subi	r18, 0x01	; 1
     ba6:	80 40       	sbci	r24, 0x00	; 0
     ba8:	90 40       	sbci	r25, 0x00	; 0
     baa:	e1 f7       	brne	.-8      	; 0xba4 <zubereitung_getraenk+0x24>
     bac:	00 c0       	rjmp	.+0      	; 0xbae <zubereitung_getraenk+0x2e>
     bae:	00 00       	nop
     bb0:	c7 01       	movw	r24, r14
     bb2:	b6 01       	movw	r22, r12
     bb4:	6d de       	rcall	.-806    	; 0x890 <fuelle_getraenk>
     bb6:	86 e0       	ldi	r24, 0x06	; 6
     bb8:	0e 94 f6 1b 	call	0x37ec	; 0x37ec <nextion_change_page>
     bbc:	2f ef       	ldi	r18, 0xFF	; 255
     bbe:	87 ea       	ldi	r24, 0xA7	; 167
     bc0:	91 e6       	ldi	r25, 0x61	; 97
     bc2:	21 50       	subi	r18, 0x01	; 1
     bc4:	80 40       	sbci	r24, 0x00	; 0
     bc6:	90 40       	sbci	r25, 0x00	; 0
     bc8:	e1 f7       	brne	.-8      	; 0xbc2 <zubereitung_getraenk+0x42>
     bca:	00 c0       	rjmp	.+0      	; 0xbcc <zubereitung_getraenk+0x4c>
     bcc:	00 00       	nop
     bce:	81 e0       	ldi	r24, 0x01	; 1
     bd0:	0e 94 f6 1b 	call	0x37ec	; 0x37ec <nextion_change_page>
     bd4:	80 91 69 12 	lds	r24, 0x1269	; 0x801269 <aktuellesGetraenk>
     bd8:	90 91 6a 12 	lds	r25, 0x126A	; 0x80126a <aktuellesGetraenk+0x1>
     bdc:	0f de       	rcall	.-994    	; 0x7fc <setze_startanzeige>
     bde:	ff 90       	pop	r15
     be0:	ef 90       	pop	r14
     be2:	df 90       	pop	r13
     be4:	cf 90       	pop	r12
     be6:	08 95       	ret

00000be8 <compare_string>:
     be8:	dc 01       	movw	r26, r24
     bea:	9c 91       	ld	r25, X
     bec:	fb 01       	movw	r30, r22
     bee:	80 81       	ld	r24, Z
     bf0:	98 13       	cpse	r25, r24
     bf2:	0b c0       	rjmp	.+22     	; 0xc0a <compare_string+0x22>
     bf4:	99 23       	and	r25, r25
     bf6:	91 f0       	breq	.+36     	; 0xc1c <compare_string+0x34>
     bf8:	11 96       	adiw	r26, 0x01	; 1
     bfa:	31 96       	adiw	r30, 0x01	; 1
     bfc:	02 c0       	rjmp	.+4      	; 0xc02 <compare_string+0x1a>
     bfe:	99 23       	and	r25, r25
     c00:	79 f0       	breq	.+30     	; 0xc20 <compare_string+0x38>
     c02:	9d 91       	ld	r25, X+
     c04:	81 91       	ld	r24, Z+
     c06:	98 17       	cp	r25, r24
     c08:	d1 f3       	breq	.-12     	; 0xbfe <compare_string+0x16>
     c0a:	91 11       	cpse	r25, r1
     c0c:	0b c0       	rjmp	.+22     	; 0xc24 <compare_string+0x3c>
     c0e:	91 e0       	ldi	r25, 0x01	; 1
     c10:	81 11       	cpse	r24, r1
     c12:	01 c0       	rjmp	.+2      	; 0xc16 <compare_string+0x2e>
     c14:	90 e0       	ldi	r25, 0x00	; 0
     c16:	89 2f       	mov	r24, r25
     c18:	81 95       	neg	r24
     c1a:	08 95       	ret
     c1c:	80 e0       	ldi	r24, 0x00	; 0
     c1e:	08 95       	ret
     c20:	80 e0       	ldi	r24, 0x00	; 0
     c22:	08 95       	ret
     c24:	8f ef       	ldi	r24, 0xFF	; 255
     c26:	08 95       	ret

00000c28 <pruefe_kopf>:
     c28:	df df       	rcall	.-66     	; 0xbe8 <compare_string>
     c2a:	91 e0       	ldi	r25, 0x01	; 1
     c2c:	81 11       	cpse	r24, r1
     c2e:	90 e0       	ldi	r25, 0x00	; 0
     c30:	89 2f       	mov	r24, r25
     c32:	08 95       	ret

00000c34 <lese_textfile_in_getraenk>:
     c34:	ef 92       	push	r14
     c36:	ff 92       	push	r15
     c38:	0f 93       	push	r16
     c3a:	1f 93       	push	r17
     c3c:	cf 93       	push	r28
     c3e:	df 93       	push	r29
     c40:	cd b7       	in	r28, 0x3d	; 61
     c42:	de b7       	in	r29, 0x3e	; 62
     c44:	6b 97       	sbiw	r28, 0x1b	; 27
     c46:	0f b6       	in	r0, 0x3f	; 63
     c48:	f8 94       	cli
     c4a:	de bf       	out	0x3e, r29	; 62
     c4c:	0f be       	out	0x3f, r0	; 63
     c4e:	cd bf       	out	0x3d, r28	; 61
     c50:	4a e0       	ldi	r20, 0x0A	; 10
     c52:	8e 01       	movw	r16, r28
     c54:	0f 5f       	subi	r16, 0xFF	; 255
     c56:	1f 4f       	sbci	r17, 0xFF	; 255
     c58:	b8 01       	movw	r22, r16
     c5a:	90 e0       	ldi	r25, 0x00	; 0
     c5c:	0e 94 6f 2e 	call	0x5cde	; 0x5cde <__itoa_ncheck>
     c60:	d8 01       	movw	r26, r16
     c62:	0d 90       	ld	r0, X+
     c64:	00 20       	and	r0, r0
     c66:	e9 f7       	brne	.-6      	; 0xc62 <lese_textfile_in_getraenk+0x2e>
     c68:	11 97       	sbiw	r26, 0x01	; 1
     c6a:	85 e0       	ldi	r24, 0x05	; 5
     c6c:	e2 ef       	ldi	r30, 0xF2	; 242
     c6e:	f5 e0       	ldi	r31, 0x05	; 5
     c70:	01 90       	ld	r0, Z+
     c72:	0d 92       	st	X+, r0
     c74:	8a 95       	dec	r24
     c76:	e1 f7       	brne	.-8      	; 0xc70 <lese_textfile_in_getraenk+0x3c>
     c78:	b8 01       	movw	r22, r16
     c7a:	80 e0       	ldi	r24, 0x00	; 0
     c7c:	0e 94 84 23 	call	0x4708	; 0x4708 <readFile>
     c80:	87 e0       	ldi	r24, 0x07	; 7
     c82:	e7 ec       	ldi	r30, 0xC7	; 199
     c84:	f3 e0       	ldi	r31, 0x03	; 3
     c86:	de 01       	movw	r26, r28
     c88:	55 96       	adiw	r26, 0x15	; 21
     c8a:	01 90       	ld	r0, Z+
     c8c:	0d 92       	st	X+, r0
     c8e:	8a 95       	dec	r24
     c90:	e1 f7       	brne	.-8      	; 0xc8a <lese_textfile_in_getraenk+0x56>
     c92:	be 01       	movw	r22, r28
     c94:	6b 5e       	subi	r22, 0xEB	; 235
     c96:	7f 4f       	sbci	r23, 0xFF	; 255
     c98:	82 e2       	ldi	r24, 0x22	; 34
     c9a:	9c e0       	ldi	r25, 0x0C	; 12
     c9c:	0e 94 2c 2e 	call	0x5c58	; 0x5c58 <strtok>
     ca0:	8c 01       	movw	r16, r24
     ca2:	89 2b       	or	r24, r25
     ca4:	09 f4       	brne	.+2      	; 0xca8 <lese_textfile_in_getraenk+0x74>
     ca6:	7e c0       	rjmp	.+252    	; 0xda4 <lese_textfile_in_getraenk+0x170>
     ca8:	6e ea       	ldi	r22, 0xAE	; 174
     caa:	73 e0       	ldi	r23, 0x03	; 3
     cac:	c8 01       	movw	r24, r16
     cae:	bc df       	rcall	.-136    	; 0xc28 <pruefe_kopf>
     cb0:	88 23       	and	r24, r24
     cb2:	09 f4       	brne	.+2      	; 0xcb6 <lese_textfile_in_getraenk+0x82>
     cb4:	70 c0       	rjmp	.+224    	; 0xd96 <lese_textfile_in_getraenk+0x162>
     cb6:	be 01       	movw	r22, r28
     cb8:	6b 5e       	subi	r22, 0xEB	; 235
     cba:	7f 4f       	sbci	r23, 0xFF	; 255
     cbc:	80 e0       	ldi	r24, 0x00	; 0
     cbe:	90 e0       	ldi	r25, 0x00	; 0
     cc0:	0e 94 2c 2e 	call	0x5c58	; 0x5c58 <strtok>
     cc4:	8c 01       	movw	r16, r24
     cc6:	e0 91 69 12 	lds	r30, 0x1269	; 0x801269 <aktuellesGetraenk>
     cca:	f0 91 6a 12 	lds	r31, 0x126A	; 0x80126a <aktuellesGetraenk+0x1>
     cce:	bc 01       	movw	r22, r24
     cd0:	80 81       	ld	r24, Z
     cd2:	91 81       	ldd	r25, Z+1	; 0x01
     cd4:	0e 94 41 2e 	call	0x5c82	; 0x5c82 <strcpy>
     cd8:	63 eb       	ldi	r22, 0xB3	; 179
     cda:	73 e0       	ldi	r23, 0x03	; 3
     cdc:	c8 01       	movw	r24, r16
     cde:	a4 df       	rcall	.-184    	; 0xc28 <pruefe_kopf>
     ce0:	88 23       	and	r24, r24
     ce2:	11 f1       	breq	.+68     	; 0xd28 <lese_textfile_in_getraenk+0xf4>
     ce4:	00 e0       	ldi	r16, 0x00	; 0
     ce6:	10 e0       	ldi	r17, 0x00	; 0
     ce8:	be 01       	movw	r22, r28
     cea:	6b 5e       	subi	r22, 0xEB	; 235
     cec:	7f 4f       	sbci	r23, 0xFF	; 255
     cee:	80 e0       	ldi	r24, 0x00	; 0
     cf0:	90 e0       	ldi	r25, 0x00	; 0
     cf2:	0e 94 2c 2e 	call	0x5c58	; 0x5c58 <strtok>
     cf6:	e0 91 69 12 	lds	r30, 0x1269	; 0x801269 <aktuellesGetraenk>
     cfa:	f0 91 6a 12 	lds	r31, 0x126A	; 0x80126a <aktuellesGetraenk+0x1>
     cfe:	e4 80       	ldd	r14, Z+4	; 0x04
     d00:	f5 80       	ldd	r15, Z+5	; 0x05
     d02:	e0 0e       	add	r14, r16
     d04:	f1 1e       	adc	r15, r17
     d06:	0e 94 0f 2e 	call	0x5c1e	; 0x5c1e <atoi>
     d0a:	f7 01       	movw	r30, r14
     d0c:	80 83       	st	Z, r24
     d0e:	0f 5f       	subi	r16, 0xFF	; 255
     d10:	1f 4f       	sbci	r17, 0xFF	; 255
     d12:	0c 30       	cpi	r16, 0x0C	; 12
     d14:	11 05       	cpc	r17, r1
     d16:	41 f7       	brne	.-48     	; 0xce8 <lese_textfile_in_getraenk+0xb4>
     d18:	be 01       	movw	r22, r28
     d1a:	6b 5e       	subi	r22, 0xEB	; 235
     d1c:	7f 4f       	sbci	r23, 0xFF	; 255
     d1e:	80 e0       	ldi	r24, 0x00	; 0
     d20:	90 e0       	ldi	r25, 0x00	; 0
     d22:	0e 94 2c 2e 	call	0x5c58	; 0x5c58 <strtok>
     d26:	8c 01       	movw	r16, r24
     d28:	6a eb       	ldi	r22, 0xBA	; 186
     d2a:	73 e0       	ldi	r23, 0x03	; 3
     d2c:	c8 01       	movw	r24, r16
     d2e:	7c df       	rcall	.-264    	; 0xc28 <pruefe_kopf>
     d30:	88 23       	and	r24, r24
     d32:	81 f0       	breq	.+32     	; 0xd54 <lese_textfile_in_getraenk+0x120>
     d34:	be 01       	movw	r22, r28
     d36:	6b 5e       	subi	r22, 0xEB	; 235
     d38:	7f 4f       	sbci	r23, 0xFF	; 255
     d3a:	80 e0       	ldi	r24, 0x00	; 0
     d3c:	90 e0       	ldi	r25, 0x00	; 0
     d3e:	0e 94 2c 2e 	call	0x5c58	; 0x5c58 <strtok>
     d42:	8c 01       	movw	r16, r24
     d44:	e0 90 69 12 	lds	r14, 0x1269	; 0x801269 <aktuellesGetraenk>
     d48:	f0 90 6a 12 	lds	r15, 0x126A	; 0x80126a <aktuellesGetraenk+0x1>
     d4c:	0e 94 0f 2e 	call	0x5c1e	; 0x5c1e <atoi>
     d50:	f7 01       	movw	r30, r14
     d52:	83 83       	std	Z+3, r24	; 0x03
     d54:	62 ec       	ldi	r22, 0xC2	; 194
     d56:	73 e0       	ldi	r23, 0x03	; 3
     d58:	c8 01       	movw	r24, r16
     d5a:	66 df       	rcall	.-308    	; 0xc28 <pruefe_kopf>
     d5c:	88 23       	and	r24, r24
     d5e:	79 f0       	breq	.+30     	; 0xd7e <lese_textfile_in_getraenk+0x14a>
     d60:	be 01       	movw	r22, r28
     d62:	6b 5e       	subi	r22, 0xEB	; 235
     d64:	7f 4f       	sbci	r23, 0xFF	; 255
     d66:	80 e0       	ldi	r24, 0x00	; 0
     d68:	90 e0       	ldi	r25, 0x00	; 0
     d6a:	0e 94 2c 2e 	call	0x5c58	; 0x5c58 <strtok>
     d6e:	00 91 69 12 	lds	r16, 0x1269	; 0x801269 <aktuellesGetraenk>
     d72:	10 91 6a 12 	lds	r17, 0x126A	; 0x80126a <aktuellesGetraenk+0x1>
     d76:	0e 94 0f 2e 	call	0x5c1e	; 0x5c1e <atoi>
     d7a:	f8 01       	movw	r30, r16
     d7c:	86 83       	std	Z+6, r24	; 0x06
     d7e:	be 01       	movw	r22, r28
     d80:	6b 5e       	subi	r22, 0xEB	; 235
     d82:	7f 4f       	sbci	r23, 0xFF	; 255
     d84:	80 e0       	ldi	r24, 0x00	; 0
     d86:	90 e0       	ldi	r25, 0x00	; 0
     d88:	0e 94 2c 2e 	call	0x5c58	; 0x5c58 <strtok>
     d8c:	8c 01       	movw	r16, r24
     d8e:	89 2b       	or	r24, r25
     d90:	09 f0       	breq	.+2      	; 0xd94 <lese_textfile_in_getraenk+0x160>
     d92:	8a cf       	rjmp	.-236    	; 0xca8 <lese_textfile_in_getraenk+0x74>
     d94:	07 c0       	rjmp	.+14     	; 0xda4 <lese_textfile_in_getraenk+0x170>
     d96:	63 eb       	ldi	r22, 0xB3	; 179
     d98:	73 e0       	ldi	r23, 0x03	; 3
     d9a:	c8 01       	movw	r24, r16
     d9c:	45 df       	rcall	.-374    	; 0xc28 <pruefe_kopf>
     d9e:	81 11       	cpse	r24, r1
     da0:	a1 cf       	rjmp	.-190    	; 0xce4 <lese_textfile_in_getraenk+0xb0>
     da2:	c2 cf       	rjmp	.-124    	; 0xd28 <lese_textfile_in_getraenk+0xf4>
     da4:	6b 96       	adiw	r28, 0x1b	; 27
     da6:	0f b6       	in	r0, 0x3f	; 63
     da8:	f8 94       	cli
     daa:	de bf       	out	0x3e, r29	; 62
     dac:	0f be       	out	0x3f, r0	; 63
     dae:	cd bf       	out	0x3d, r28	; 61
     db0:	df 91       	pop	r29
     db2:	cf 91       	pop	r28
     db4:	1f 91       	pop	r17
     db6:	0f 91       	pop	r16
     db8:	ff 90       	pop	r15
     dba:	ef 90       	pop	r14
     dbc:	08 95       	ret

00000dbe <choose_aktuellesGetraenk>:
     dbe:	e0 91 dc 08 	lds	r30, 0x08DC	; 0x8008dc <tail_getraenk_file>
     dc2:	f0 91 dd 08 	lds	r31, 0x08DD	; 0x8008dd <tail_getraenk_file+0x1>
     dc6:	f0 93 0f 0a 	sts	0x0A0F, r31	; 0x800a0f <aktuellesGetraenk_file+0x1>
     dca:	e0 93 0e 0a 	sts	0x0A0E, r30	; 0x800a0e <aktuellesGetraenk_file>
     dce:	20 91 61 12 	lds	r18, 0x1261	; 0x801261 <i_Liste>
     dd2:	90 e0       	ldi	r25, 0x00	; 0
     dd4:	82 0f       	add	r24, r18
     dd6:	91 1d       	adc	r25, r1
     dd8:	18 16       	cp	r1, r24
     dda:	19 06       	cpc	r1, r25
     ddc:	74 f4       	brge	.+28     	; 0xdfa <choose_aktuellesGetraenk+0x3c>
     dde:	20 e0       	ldi	r18, 0x00	; 0
     de0:	30 e0       	ldi	r19, 0x00	; 0
     de2:	03 80       	ldd	r0, Z+3	; 0x03
     de4:	f4 81       	ldd	r31, Z+4	; 0x04
     de6:	e0 2d       	mov	r30, r0
     de8:	2f 5f       	subi	r18, 0xFF	; 255
     dea:	3f 4f       	sbci	r19, 0xFF	; 255
     dec:	28 17       	cp	r18, r24
     dee:	39 07       	cpc	r19, r25
     df0:	c1 f7       	brne	.-16     	; 0xde2 <choose_aktuellesGetraenk+0x24>
     df2:	f0 93 0f 0a 	sts	0x0A0F, r31	; 0x800a0f <aktuellesGetraenk_file+0x1>
     df6:	e0 93 0e 0a 	sts	0x0A0E, r30	; 0x800a0e <aktuellesGetraenk_file>
     dfa:	e0 91 0e 0a 	lds	r30, 0x0A0E	; 0x800a0e <aktuellesGetraenk_file>
     dfe:	f0 91 0f 0a 	lds	r31, 0x0A0F	; 0x800a0f <aktuellesGetraenk_file+0x1>
     e02:	80 81       	ld	r24, Z
     e04:	17 df       	rcall	.-466    	; 0xc34 <lese_textfile_in_getraenk>
     e06:	10 92 26 0e 	sts	0x0E26, r1	; 0x800e26 <block_list_hoch>
     e0a:	10 92 19 0a 	sts	0x0A19, r1	; 0x800a19 <block_list_runter>
     e0e:	10 92 61 12 	sts	0x1261, r1	; 0x801261 <i_Liste>
     e12:	08 95       	ret

00000e14 <bearbeite_Cocktail>:
     e14:	d4 df       	rcall	.-88     	; 0xdbe <choose_aktuellesGetraenk>
     e16:	89 e0       	ldi	r24, 0x09	; 9
     e18:	0e 94 f6 1b 	call	0x37ec	; 0x37ec <nextion_change_page>
     e1c:	80 91 13 0a 	lds	r24, 0x0A13	; 0x800a13 <head_zut>
     e20:	90 91 14 0a 	lds	r25, 0x0A14	; 0x800a14 <head_zut+0x1>
     e24:	90 93 6c 12 	sts	0x126C, r25	; 0x80126c <aktuelleZutat+0x1>
     e28:	80 93 6b 12 	sts	0x126B, r24	; 0x80126b <aktuelleZutat>
     e2c:	10 92 61 12 	sts	0x1261, r1	; 0x801261 <i_Liste>
     e30:	8e ec       	ldi	r24, 0xCE	; 206
     e32:	93 e0       	ldi	r25, 0x03	; 3
     e34:	b5 cb       	rjmp	.-2198   	; 0x5a0 <erstelle_Liste_zutat>
     e36:	08 95       	ret

00000e38 <erstelle_Liste_name>:
     e38:	af 92       	push	r10
     e3a:	bf 92       	push	r11
     e3c:	cf 92       	push	r12
     e3e:	df 92       	push	r13
     e40:	ef 92       	push	r14
     e42:	ff 92       	push	r15
     e44:	0f 93       	push	r16
     e46:	1f 93       	push	r17
     e48:	cf 93       	push	r28
     e4a:	df 93       	push	r29
     e4c:	cd b7       	in	r28, 0x3d	; 61
     e4e:	de b7       	in	r29, 0x3e	; 62
     e50:	ad 97       	sbiw	r28, 0x2d	; 45
     e52:	0f b6       	in	r0, 0x3f	; 63
     e54:	f8 94       	cli
     e56:	de bf       	out	0x3e, r29	; 62
     e58:	0f be       	out	0x3f, r0	; 63
     e5a:	cd bf       	out	0x3d, r28	; 61
     e5c:	7c 01       	movw	r14, r24
     e5e:	e0 91 dc 08 	lds	r30, 0x08DC	; 0x8008dc <tail_getraenk_file>
     e62:	f0 91 dd 08 	lds	r31, 0x08DD	; 0x8008dd <tail_getraenk_file+0x1>
     e66:	f0 93 0f 0a 	sts	0x0A0F, r31	; 0x800a0f <aktuellesGetraenk_file+0x1>
     e6a:	e0 93 0e 0a 	sts	0x0A0E, r30	; 0x800a0e <aktuellesGetraenk_file>
     e6e:	20 91 61 12 	lds	r18, 0x1261	; 0x801261 <i_Liste>
     e72:	30 e0       	ldi	r19, 0x00	; 0
     e74:	12 16       	cp	r1, r18
     e76:	13 06       	cpc	r1, r19
     e78:	6c f4       	brge	.+26     	; 0xe94 <erstelle_Liste_name+0x5c>
     e7a:	80 e0       	ldi	r24, 0x00	; 0
     e7c:	90 e0       	ldi	r25, 0x00	; 0
     e7e:	03 80       	ldd	r0, Z+3	; 0x03
     e80:	f4 81       	ldd	r31, Z+4	; 0x04
     e82:	e0 2d       	mov	r30, r0
     e84:	01 96       	adiw	r24, 0x01	; 1
     e86:	82 17       	cp	r24, r18
     e88:	93 07       	cpc	r25, r19
     e8a:	c9 f7       	brne	.-14     	; 0xe7e <erstelle_Liste_name+0x46>
     e8c:	f0 93 0f 0a 	sts	0x0A0F, r31	; 0x800a0f <aktuellesGetraenk_file+0x1>
     e90:	e0 93 0e 0a 	sts	0x0A0E, r30	; 0x800a0e <aktuellesGetraenk_file>
     e94:	fe 01       	movw	r30, r28
     e96:	31 96       	adiw	r30, 0x01	; 1
     e98:	85 e1       	ldi	r24, 0x15	; 21
     e9a:	df 01       	movw	r26, r30
     e9c:	1d 92       	st	X+, r1
     e9e:	8a 95       	dec	r24
     ea0:	e9 f7       	brne	.-6      	; 0xe9c <erstelle_Liste_name+0x64>
     ea2:	1e 8a       	std	Y+22, r1	; 0x16
     ea4:	1f 8a       	std	Y+23, r1	; 0x17
     ea6:	18 8e       	std	Y+24, r1	; 0x18
     ea8:	19 8e       	std	Y+25, r1	; 0x19
     eaa:	00 e0       	ldi	r16, 0x00	; 0
     eac:	10 e0       	ldi	r17, 0x00	; 0
     eae:	0f 2e       	mov	r0, r31
     eb0:	f4 e1       	ldi	r31, 0x14	; 20
     eb2:	bf 2e       	mov	r11, r31
     eb4:	f0 2d       	mov	r31, r0
     eb6:	6e 01       	movw	r12, r28
     eb8:	ba e1       	ldi	r27, 0x1A	; 26
     eba:	cb 0e       	add	r12, r27
     ebc:	d1 1c       	adc	r13, r1
     ebe:	aa 24       	eor	r10, r10
     ec0:	a3 94       	inc	r10
     ec2:	0f 5f       	subi	r16, 0xFF	; 255
     ec4:	1f 4f       	sbci	r17, 0xFF	; 255
     ec6:	4a e0       	ldi	r20, 0x0A	; 10
     ec8:	be 01       	movw	r22, r28
     eca:	6a 5e       	subi	r22, 0xEA	; 234
     ecc:	7f 4f       	sbci	r23, 0xFF	; 255
     ece:	c8 01       	movw	r24, r16
     ed0:	0e 94 6f 2e 	call	0x5cde	; 0x5cde <__itoa_ncheck>
     ed4:	b7 01       	movw	r22, r14
     ed6:	ce 01       	movw	r24, r28
     ed8:	01 96       	adiw	r24, 0x01	; 1
     eda:	0e 94 41 2e 	call	0x5c82	; 0x5c82 <strcpy>
     ede:	be 01       	movw	r22, r28
     ee0:	6a 5e       	subi	r22, 0xEA	; 234
     ee2:	7f 4f       	sbci	r23, 0xFF	; 255
     ee4:	ce 01       	movw	r24, r28
     ee6:	01 96       	adiw	r24, 0x01	; 1
     ee8:	0e 94 36 2e 	call	0x5c6c	; 0x5c6c <strcat>
     eec:	e0 91 0e 0a 	lds	r30, 0x0A0E	; 0x800a0e <aktuellesGetraenk_file>
     ef0:	f0 91 0f 0a 	lds	r31, 0x0A0F	; 0x800a0f <aktuellesGetraenk_file+0x1>
     ef4:	80 91 10 0a 	lds	r24, 0x0A10	; 0x800a10 <head_getraenk_file>
     ef8:	90 91 11 0a 	lds	r25, 0x0A11	; 0x800a11 <head_getraenk_file+0x1>
     efc:	e8 17       	cp	r30, r24
     efe:	f9 07       	cpc	r31, r25
     f00:	99 f4       	brne	.+38     	; 0xf28 <erstelle_Liste_name+0xf0>
     f02:	80 91 19 0a 	lds	r24, 0x0A19	; 0x800a19 <block_list_runter>
     f06:	81 11       	cpse	r24, r1
     f08:	13 c0       	rjmp	.+38     	; 0xf30 <erstelle_Liste_name+0xf8>
     f0a:	a0 92 19 0a 	sts	0x0A19, r10	; 0x800a19 <block_list_runter>
     f0e:	80 81       	ld	r24, Z
     f10:	91 de       	rcall	.-734    	; 0xc34 <lese_textfile_in_getraenk>
     f12:	e0 91 69 12 	lds	r30, 0x1269	; 0x801269 <aktuellesGetraenk>
     f16:	f0 91 6a 12 	lds	r31, 0x126A	; 0x80126a <aktuellesGetraenk+0x1>
     f1a:	60 81       	ld	r22, Z
     f1c:	71 81       	ldd	r23, Z+1	; 0x01
     f1e:	ce 01       	movw	r24, r28
     f20:	01 96       	adiw	r24, 0x01	; 1
     f22:	0e 94 15 1c 	call	0x382a	; 0x382a <nextion_setText>
     f26:	40 c0       	rjmp	.+128    	; 0xfa8 <erstelle_Liste_name+0x170>
     f28:	80 91 19 0a 	lds	r24, 0x0A19	; 0x800a19 <block_list_runter>
     f2c:	88 23       	and	r24, r24
     f2e:	81 f1       	breq	.+96     	; 0xf90 <erstelle_Liste_name+0x158>
     f30:	62 e7       	ldi	r22, 0x72	; 114
     f32:	76 e0       	ldi	r23, 0x06	; 6
     f34:	ce 01       	movw	r24, r28
     f36:	01 96       	adiw	r24, 0x01	; 1
     f38:	0e 94 15 1c 	call	0x382a	; 0x382a <nextion_setText>
     f3c:	ef e3       	ldi	r30, 0x3F	; 63
     f3e:	fc e9       	ldi	r31, 0x9C	; 156
     f40:	31 97       	sbiw	r30, 0x01	; 1
     f42:	f1 f7       	brne	.-4      	; 0xf40 <erstelle_Liste_name+0x108>
     f44:	00 c0       	rjmp	.+0      	; 0xf46 <erstelle_Liste_name+0x10e>
     f46:	00 00       	nop
     f48:	d6 01       	movw	r26, r12
     f4a:	eb 2d       	mov	r30, r11
     f4c:	1d 92       	st	X+, r1
     f4e:	ea 95       	dec	r30
     f50:	e9 f7       	brne	.-6      	; 0xf4c <erstelle_Liste_name+0x114>
     f52:	b7 01       	movw	r22, r14
     f54:	c6 01       	movw	r24, r12
     f56:	0e 94 36 2e 	call	0x5c6c	; 0x5c6c <strcat>
     f5a:	4a e0       	ldi	r20, 0x0A	; 10
     f5c:	be 01       	movw	r22, r28
     f5e:	6a 5e       	subi	r22, 0xEA	; 234
     f60:	7f 4f       	sbci	r23, 0xFF	; 255
     f62:	c8 01       	movw	r24, r16
     f64:	0e 94 6f 2e 	call	0x5cde	; 0x5cde <__itoa_ncheck>
     f68:	be 01       	movw	r22, r28
     f6a:	6a 5e       	subi	r22, 0xEA	; 234
     f6c:	7f 4f       	sbci	r23, 0xFF	; 255
     f6e:	c6 01       	movw	r24, r12
     f70:	0e 94 36 2e 	call	0x5c6c	; 0x5c6c <strcat>
     f74:	c6 01       	movw	r24, r12
     f76:	0e 94 b1 1c 	call	0x3962	; 0x3962 <nextion_disableButton>
     f7a:	e0 91 0e 0a 	lds	r30, 0x0A0E	; 0x800a0e <aktuellesGetraenk_file>
     f7e:	f0 91 0f 0a 	lds	r31, 0x0A0F	; 0x800a0f <aktuellesGetraenk_file+0x1>
     f82:	81 81       	ldd	r24, Z+1	; 0x01
     f84:	92 81       	ldd	r25, Z+2	; 0x02
     f86:	90 93 0f 0a 	sts	0x0A0F, r25	; 0x800a0f <aktuellesGetraenk_file+0x1>
     f8a:	80 93 0e 0a 	sts	0x0A0E, r24	; 0x800a0e <aktuellesGetraenk_file>
     f8e:	0c c0       	rjmp	.+24     	; 0xfa8 <erstelle_Liste_name+0x170>
     f90:	80 81       	ld	r24, Z
     f92:	50 de       	rcall	.-864    	; 0xc34 <lese_textfile_in_getraenk>
     f94:	e0 91 69 12 	lds	r30, 0x1269	; 0x801269 <aktuellesGetraenk>
     f98:	f0 91 6a 12 	lds	r31, 0x126A	; 0x80126a <aktuellesGetraenk+0x1>
     f9c:	60 81       	ld	r22, Z
     f9e:	71 81       	ldd	r23, Z+1	; 0x01
     fa0:	ce 01       	movw	r24, r28
     fa2:	01 96       	adiw	r24, 0x01	; 1
     fa4:	0e 94 15 1c 	call	0x382a	; 0x382a <nextion_setText>
     fa8:	e0 91 0e 0a 	lds	r30, 0x0A0E	; 0x800a0e <aktuellesGetraenk_file>
     fac:	f0 91 0f 0a 	lds	r31, 0x0A0F	; 0x800a0f <aktuellesGetraenk_file+0x1>
     fb0:	80 91 dc 08 	lds	r24, 0x08DC	; 0x8008dc <tail_getraenk_file>
     fb4:	90 91 dd 08 	lds	r25, 0x08DD	; 0x8008dd <tail_getraenk_file+0x1>
     fb8:	e8 17       	cp	r30, r24
     fba:	f9 07       	cpc	r31, r25
     fbc:	31 f4       	brne	.+12     	; 0xfca <erstelle_Liste_name+0x192>
     fbe:	80 91 19 0a 	lds	r24, 0x0A19	; 0x800a19 <block_list_runter>
     fc2:	81 11       	cpse	r24, r1
     fc4:	02 c0       	rjmp	.+4      	; 0xfca <erstelle_Liste_name+0x192>
     fc6:	a0 92 26 0e 	sts	0x0E26, r10	; 0x800e26 <block_list_hoch>
     fca:	83 81       	ldd	r24, Z+3	; 0x03
     fcc:	94 81       	ldd	r25, Z+4	; 0x04
     fce:	90 93 0f 0a 	sts	0x0A0F, r25	; 0x800a0f <aktuellesGetraenk_file+0x1>
     fd2:	80 93 0e 0a 	sts	0x0A0E, r24	; 0x800a0e <aktuellesGetraenk_file>
     fd6:	8f e9       	ldi	r24, 0x9F	; 159
     fd8:	9f e0       	ldi	r25, 0x0F	; 15
     fda:	01 97       	sbiw	r24, 0x01	; 1
     fdc:	f1 f7       	brne	.-4      	; 0xfda <erstelle_Liste_name+0x1a2>
     fde:	00 c0       	rjmp	.+0      	; 0xfe0 <erstelle_Liste_name+0x1a8>
     fe0:	00 00       	nop
     fe2:	08 30       	cpi	r16, 0x08	; 8
     fe4:	11 05       	cpc	r17, r1
     fe6:	09 f0       	breq	.+2      	; 0xfea <erstelle_Liste_name+0x1b2>
     fe8:	6c cf       	rjmp	.-296    	; 0xec2 <erstelle_Liste_name+0x8a>
     fea:	ad 96       	adiw	r28, 0x2d	; 45
     fec:	0f b6       	in	r0, 0x3f	; 63
     fee:	f8 94       	cli
     ff0:	de bf       	out	0x3e, r29	; 62
     ff2:	0f be       	out	0x3f, r0	; 63
     ff4:	cd bf       	out	0x3d, r28	; 61
     ff6:	df 91       	pop	r29
     ff8:	cf 91       	pop	r28
     ffa:	1f 91       	pop	r17
     ffc:	0f 91       	pop	r16
     ffe:	ff 90       	pop	r15
    1000:	ef 90       	pop	r14
    1002:	df 90       	pop	r13
    1004:	cf 90       	pop	r12
    1006:	bf 90       	pop	r11
    1008:	af 90       	pop	r10
    100a:	08 95       	ret

0000100c <schiebe_file_next>:
	nextion_setText("zutatenliste",string);
}

void schiebe_file_next(void)
{
	aktuellesGetraenk_file = aktuellesGetraenk_file->next;
    100c:	e0 91 0e 0a 	lds	r30, 0x0A0E	; 0x800a0e <aktuellesGetraenk_file>
    1010:	f0 91 0f 0a 	lds	r31, 0x0A0F	; 0x800a0f <aktuellesGetraenk_file+0x1>
    1014:	01 80       	ldd	r0, Z+1	; 0x01
    1016:	f2 81       	ldd	r31, Z+2	; 0x02
    1018:	e0 2d       	mov	r30, r0
    101a:	f0 93 0f 0a 	sts	0x0A0F, r31	; 0x800a0f <aktuellesGetraenk_file+0x1>
    101e:	e0 93 0e 0a 	sts	0x0A0E, r30	; 0x800a0e <aktuellesGetraenk_file>
	lese_textfile_in_getraenk(aktuellesGetraenk_file->file);
    1022:	80 81       	ld	r24, Z
    1024:	07 ce       	rjmp	.-1010   	; 0xc34 <lese_textfile_in_getraenk>
    1026:	08 95       	ret

00001028 <schiebe_file_prev>:
}

void schiebe_file_prev(void)
{
	aktuellesGetraenk_file = aktuellesGetraenk_file->prev;
    1028:	e0 91 0e 0a 	lds	r30, 0x0A0E	; 0x800a0e <aktuellesGetraenk_file>
    102c:	f0 91 0f 0a 	lds	r31, 0x0A0F	; 0x800a0f <aktuellesGetraenk_file+0x1>
    1030:	03 80       	ldd	r0, Z+3	; 0x03
    1032:	f4 81       	ldd	r31, Z+4	; 0x04
    1034:	e0 2d       	mov	r30, r0
    1036:	f0 93 0f 0a 	sts	0x0A0F, r31	; 0x800a0f <aktuellesGetraenk_file+0x1>
    103a:	e0 93 0e 0a 	sts	0x0A0E, r30	; 0x800a0e <aktuellesGetraenk_file>
	lese_textfile_in_getraenk(aktuellesGetraenk_file->file);
    103e:	80 81       	ld	r24, Z
    1040:	f9 cd       	rjmp	.-1038   	; 0xc34 <lese_textfile_in_getraenk>
    1042:	08 95       	ret

00001044 <SD_startup>:
	}
}

void SD_startup(void)
{
	cardType = 0;
    1044:	10 92 57 11 	sts	0x1157, r1	; 0x801157 <cardType>

	for (i=0; i<10; i++)
    1048:	10 92 20 0b 	sts	0x0B20, r1	; 0x800b20 <i+0x1>
    104c:	10 92 1f 0b 	sts	0x0B1F, r1	; 0x800b1f <i>
	{
		error = SD_init();
    1050:	0e 94 ba 28 	call	0x5174	; 0x5174 <SD_init>
    1054:	80 93 58 11 	sts	0x1158, r24	; 0x801158 <error>
		if(!error) break;
    1058:	88 23       	and	r24, r24
    105a:	09 f4       	brne	.+2      	; 0x105e <SD_startup+0x1a>
    105c:	64 c0       	rjmp	.+200    	; 0x1126 <SD_startup+0xe2>

void SD_startup(void)
{
	cardType = 0;

	for (i=0; i<10; i++)
    105e:	20 91 1f 0b 	lds	r18, 0x0B1F	; 0x800b1f <i>
    1062:	30 91 20 0b 	lds	r19, 0x0B20	; 0x800b20 <i+0x1>
    1066:	2f 5f       	subi	r18, 0xFF	; 255
    1068:	3f 4f       	sbci	r19, 0xFF	; 255
    106a:	30 93 20 0b 	sts	0x0B20, r19	; 0x800b20 <i+0x1>
    106e:	20 93 1f 0b 	sts	0x0B1F, r18	; 0x800b1f <i>
    1072:	2a 30       	cpi	r18, 0x0A	; 10
    1074:	31 05       	cpc	r19, r1
    1076:	60 f3       	brcs	.-40     	; 0x1050 <SD_startup+0xc>
    1078:	5f c0       	rjmp	.+190    	; 0x1138 <SD_startup+0xf4>
		if(!error) break;
	}

	if(error)
	{
		if(error == 1) Uart_Transmit_IT_PC((char*)("SD card not detected..\r"));
    107a:	87 ef       	ldi	r24, 0xF7	; 247
    107c:	93 e0       	ldi	r25, 0x03	; 3
    107e:	0e 94 74 2a 	call	0x54e8	; 0x54e8 <Uart_Transmit_IT_PC>
		if(error == 2) Uart_Transmit_IT_PC((char*)("Card Initialization failed..\r"));
    1082:	80 91 58 11 	lds	r24, 0x1158	; 0x801158 <error>
    1086:	82 30       	cpi	r24, 0x02	; 2
    1088:	21 f4       	brne	.+8      	; 0x1092 <SD_startup+0x4e>
    108a:	8f e0       	ldi	r24, 0x0F	; 15
    108c:	94 e0       	ldi	r25, 0x04	; 4
    108e:	0e 94 74 2a 	call	0x54e8	; 0x54e8 <Uart_Transmit_IT_PC>
	nextion_change_page(FEHLERANZEIGE);
    1092:	8f e0       	ldi	r24, 0x0F	; 15
    1094:	0e 94 f6 1b 	call	0x37ec	; 0x37ec <nextion_change_page>
	nextion_setText("fehlertxt","Fehler festgestellt!\\rKeine SD-Karte vorhanden.\\rBitte einfgen und\\rneu starten.");
    1098:	6d e2       	ldi	r22, 0x2D	; 45
    109a:	74 e0       	ldi	r23, 0x04	; 4
    109c:	8f e7       	ldi	r24, 0x7F	; 127
    109e:	94 e0       	ldi	r25, 0x04	; 4
    10a0:	0e 94 15 1c 	call	0x382a	; 0x382a <nextion_setText>
    10a4:	13 c0       	rjmp	.+38     	; 0x10cc <SD_startup+0x88>
		// 		while(1);  //wait here forever if error in SD init
		}else{
		
		switch (cardType)
		{
			case 1:Uart_Transmit_IT_PC(("Standard Capacity Card (Ver 1.x) Detected!\r"));
    10a6:	89 e8       	ldi	r24, 0x89	; 137
    10a8:	94 e0       	ldi	r25, 0x04	; 4
    10aa:	0e 94 74 2a 	call	0x54e8	; 0x54e8 <Uart_Transmit_IT_PC>
			break;
    10ae:	0e c0       	rjmp	.+28     	; 0x10cc <SD_startup+0x88>
			case 2:Uart_Transmit_IT_PC(("High Capacity Card Detected!\r"));
    10b0:	85 eb       	ldi	r24, 0xB5	; 181
    10b2:	94 e0       	ldi	r25, 0x04	; 4
    10b4:	0e 94 74 2a 	call	0x54e8	; 0x54e8 <Uart_Transmit_IT_PC>
			break;
    10b8:	09 c0       	rjmp	.+18     	; 0x10cc <SD_startup+0x88>
			case 3:Uart_Transmit_IT_PC(("Standard Capacity Card (Ver 2.x) Detected!\r"));
    10ba:	83 ed       	ldi	r24, 0xD3	; 211
    10bc:	94 e0       	ldi	r25, 0x04	; 4
    10be:	0e 94 74 2a 	call	0x54e8	; 0x54e8 <Uart_Transmit_IT_PC>
			break;
    10c2:	04 c0       	rjmp	.+8      	; 0x10cc <SD_startup+0x88>
			default:Uart_Transmit_IT_PC(("Unknown SD Card Detected!\r"));
    10c4:	8f ef       	ldi	r24, 0xFF	; 255
    10c6:	94 e0       	ldi	r25, 0x04	; 4
    10c8:	0e 94 74 2a 	call	0x54e8	; 0x54e8 <Uart_Transmit_IT_PC>
			break;
		}
	}

	SPI_HIGH_SPEED;	//SCK - 4 MHz
    10cc:	80 e5       	ldi	r24, 0x50	; 80
    10ce:	8c bd       	out	0x2c, r24	; 44
    10d0:	8d b5       	in	r24, 0x2d	; 45
    10d2:	81 60       	ori	r24, 0x01	; 1
    10d4:	8d bd       	out	0x2d, r24	; 45
	#else
		//round up by default
		__ticks_dc = (uint32_t)(ceil(fabs(__tmp)));
	#endif

	__builtin_avr_delay_cycles(__ticks_dc);
    10d6:	8f e9       	ldi	r24, 0x9F	; 159
    10d8:	9f e0       	ldi	r25, 0x0F	; 15
    10da:	01 97       	sbiw	r24, 0x01	; 1
    10dc:	f1 f7       	brne	.-4      	; 0x10da <SD_startup+0x96>
    10de:	00 c0       	rjmp	.+0      	; 0x10e0 <SD_startup+0x9c>
    10e0:	00 00       	nop
	_delay_ms(1);   //some delay


	FAT32_active = 1;
    10e2:	81 e0       	ldi	r24, 0x01	; 1
    10e4:	80 93 64 12 	sts	0x1264, r24	; 0x801264 <FAT32_active>
	error = getBootSectorData (); //read boot sector and keep necessary data in global variables
    10e8:	0e 94 dc 1e 	call	0x3db8	; 0x3db8 <getBootSectorData>
    10ec:	80 93 58 11 	sts	0x1158, r24	; 0x801158 <error>
	if(error)
    10f0:	88 23       	and	r24, r24
    10f2:	61 f0       	breq	.+24     	; 0x110c <SD_startup+0xc8>
	{
		TX_NEWLINE;
    10f4:	8d e0       	ldi	r24, 0x0D	; 13
    10f6:	0e 94 49 2c 	call	0x5892	; 0x5892 <transmitByte>
    10fa:	8a e0       	ldi	r24, 0x0A	; 10
    10fc:	0e 94 49 2c 	call	0x5892	; 0x5892 <transmitByte>
		Uart_Transmit_IT_PC (("FAT32 not found!\r\n"));  //FAT32 incompatible drive
    1100:	8a e1       	ldi	r24, 0x1A	; 26
    1102:	95 e0       	ldi	r25, 0x05	; 5
    1104:	0e 94 74 2a 	call	0x54e8	; 0x54e8 <Uart_Transmit_IT_PC>
		FAT32_active = 0;
    1108:	10 92 64 12 	sts	0x1264, r1	; 0x801264 <FAT32_active>
	}
// 	findFiles(GET_LIST,0);
	TX_NEWLINE
    110c:	8d e0       	ldi	r24, 0x0D	; 13
    110e:	0e 94 49 2c 	call	0x5892	; 0x5892 <transmitByte>
    1112:	8a e0       	ldi	r24, 0x0A	; 10
    1114:	0e 94 49 2c 	call	0x5892	; 0x5892 <transmitByte>
	TX_NEWLINE
    1118:	8d e0       	ldi	r24, 0x0D	; 13
    111a:	0e 94 49 2c 	call	0x5892	; 0x5892 <transmitByte>
    111e:	8a e0       	ldi	r24, 0x0A	; 10
    1120:	0c 94 49 2c 	jmp	0x5892	; 0x5892 <transmitByte>

}
    1124:	08 95       	ret
	nextion_change_page(FEHLERANZEIGE);
	nextion_setText("fehlertxt","Fehler festgestellt!\\rKeine SD-Karte vorhanden.\\rBitte einfgen und\\rneu starten.");
		// 		while(1);  //wait here forever if error in SD init
		}else{
		
		switch (cardType)
    1126:	80 91 57 11 	lds	r24, 0x1157	; 0x801157 <cardType>
    112a:	82 30       	cpi	r24, 0x02	; 2
    112c:	09 f2       	breq	.-126    	; 0x10b0 <SD_startup+0x6c>
    112e:	83 30       	cpi	r24, 0x03	; 3
    1130:	21 f2       	breq	.-120    	; 0x10ba <SD_startup+0x76>
    1132:	81 30       	cpi	r24, 0x01	; 1
    1134:	39 f6       	brne	.-114    	; 0x10c4 <SD_startup+0x80>
    1136:	b7 cf       	rjmp	.-146    	; 0x10a6 <SD_startup+0x62>
		if(!error) break;
	}

	if(error)
	{
		if(error == 1) Uart_Transmit_IT_PC((char*)("SD card not detected..\r"));
    1138:	81 30       	cpi	r24, 0x01	; 1
    113a:	09 f0       	breq	.+2      	; 0x113e <SD_startup+0xfa>
    113c:	a2 cf       	rjmp	.-188    	; 0x1082 <SD_startup+0x3e>
    113e:	9d cf       	rjmp	.-198    	; 0x107a <SD_startup+0x36>

00001140 <erstelle_File>:
	TX_NEWLINE

}

void erstelle_File(uint8_t filename, char * name, uint8_t alkohol)
{
    1140:	af 92       	push	r10
    1142:	bf 92       	push	r11
    1144:	cf 92       	push	r12
    1146:	df 92       	push	r13
    1148:	ef 92       	push	r14
    114a:	ff 92       	push	r15
    114c:	0f 93       	push	r16
    114e:	1f 93       	push	r17
    1150:	cf 93       	push	r28
    1152:	df 93       	push	r29
    1154:	cd b7       	in	r28, 0x3d	; 61
    1156:	de b7       	in	r29, 0x3e	; 62
    1158:	c9 59       	subi	r28, 0x99	; 153
    115a:	d1 09       	sbc	r29, r1
    115c:	0f b6       	in	r0, 0x3f	; 63
    115e:	f8 94       	cli
    1160:	de bf       	out	0x3e, r29	; 62
    1162:	0f be       	out	0x3f, r0	; 63
    1164:	cd bf       	out	0x3d, r28	; 61
    1166:	b8 2e       	mov	r11, r24
    1168:	a4 2e       	mov	r10, r20
	char buff[128] = {0};
    116a:	8e 01       	movw	r16, r28
    116c:	0f 5f       	subi	r16, 0xFF	; 255
    116e:	1f 4f       	sbci	r17, 0xFF	; 255
    1170:	80 e8       	ldi	r24, 0x80	; 128
    1172:	f8 01       	movw	r30, r16
    1174:	11 92       	st	Z+, r1
    1176:	8a 95       	dec	r24
    1178:	e9 f7       	brne	.-6      	; 0x1174 <erstelle_File+0x34>
	char * ptr = buff;
	strcat(ptr, "Name:");
    117a:	d8 01       	movw	r26, r16
    117c:	0d 90       	ld	r0, X+
    117e:	00 20       	and	r0, r0
    1180:	e9 f7       	brne	.-6      	; 0x117c <erstelle_File+0x3c>
    1182:	11 97       	sbiw	r26, 0x01	; 1
    1184:	86 e0       	ldi	r24, 0x06	; 6
    1186:	ed e2       	ldi	r30, 0x2D	; 45
    1188:	f5 e0       	ldi	r31, 0x05	; 5
    118a:	01 90       	ld	r0, Z+
    118c:	0d 92       	st	X+, r0
    118e:	8a 95       	dec	r24
    1190:	e1 f7       	brne	.-8      	; 0x118a <erstelle_File+0x4a>
	strcat(ptr, name);
    1192:	c8 01       	movw	r24, r16
    1194:	0e 94 36 2e 	call	0x5c6c	; 0x5c6c <strcat>

	strcat(ptr, "\rMengen:{");
    1198:	d8 01       	movw	r26, r16
    119a:	0d 90       	ld	r0, X+
    119c:	00 20       	and	r0, r0
    119e:	e9 f7       	brne	.-6      	; 0x119a <erstelle_File+0x5a>
    11a0:	11 97       	sbiw	r26, 0x01	; 1
    11a2:	8a e0       	ldi	r24, 0x0A	; 10
    11a4:	e3 e3       	ldi	r30, 0x33	; 51
    11a6:	f5 e0       	ldi	r31, 0x05	; 5
    11a8:	01 90       	ld	r0, Z+
    11aa:	0d 92       	st	X+, r0
    11ac:	8a 95       	dec	r24
    11ae:	e1 f7       	brne	.-8      	; 0x11a8 <erstelle_File+0x68>
	char buff2[5]  = {0};
    11b0:	7e 01       	movw	r14, r28
    11b2:	f1 e8       	ldi	r31, 0x81	; 129
    11b4:	ef 0e       	add	r14, r31
    11b6:	f1 1c       	adc	r15, r1
    11b8:	85 e0       	ldi	r24, 0x05	; 5
    11ba:	f7 01       	movw	r30, r14
    11bc:	11 92       	st	Z+, r1
    11be:	8a 95       	dec	r24
    11c0:	e9 f7       	brne	.-6      	; 0x11bc <erstelle_File+0x7c>
	
	int i = 0;
	itoa(*(aktuellesGetraenk->mengen + i), (char *)buff2, 10);
    11c2:	e0 91 69 12 	lds	r30, 0x1269	; 0x801269 <aktuellesGetraenk>
    11c6:	f0 91 6a 12 	lds	r31, 0x126A	; 0x80126a <aktuellesGetraenk+0x1>
    11ca:	04 80       	ldd	r0, Z+4	; 0x04
    11cc:	f5 81       	ldd	r31, Z+5	; 0x05
    11ce:	e0 2d       	mov	r30, r0
    } else if (__radix < 2 || __radix > 36) {
	*__s = 0;
	return __s;
    } else {
	extern char *__itoa_ncheck (int, char *, unsigned char);
	return __itoa_ncheck (__val, __s, __radix);
    11d0:	80 81       	ld	r24, Z
    11d2:	4a e0       	ldi	r20, 0x0A	; 10
    11d4:	b7 01       	movw	r22, r14
    11d6:	90 e0       	ldi	r25, 0x00	; 0
    11d8:	0e 94 6f 2e 	call	0x5cde	; 0x5cde <__itoa_ncheck>
	strcat(ptr, buff2);
    11dc:	b7 01       	movw	r22, r14
    11de:	c8 01       	movw	r24, r16
    11e0:	0e 94 36 2e 	call	0x5c6c	; 0x5c6c <strcat>
	for (i = 1 ; i < 12 ; i++)
    11e4:	01 e0       	ldi	r16, 0x01	; 1
    11e6:	10 e0       	ldi	r17, 0x00	; 0
	{
		strcat(ptr,",");
    11e8:	ce 01       	movw	r24, r28
    11ea:	01 96       	adiw	r24, 0x01	; 1
    11ec:	7c 01       	movw	r14, r24
    11ee:	0f 2e       	mov	r0, r31
    11f0:	fc e2       	ldi	r31, 0x2C	; 44
    11f2:	cf 2e       	mov	r12, r31
    11f4:	d1 2c       	mov	r13, r1
    11f6:	f0 2d       	mov	r31, r0
    11f8:	f7 01       	movw	r30, r14
    11fa:	01 90       	ld	r0, Z+
    11fc:	00 20       	and	r0, r0
    11fe:	e9 f7       	brne	.-6      	; 0x11fa <erstelle_File+0xba>
    1200:	31 97       	sbiw	r30, 0x01	; 1
    1202:	d1 82       	std	Z+1, r13	; 0x01
    1204:	c0 82       	st	Z, r12
		itoa(*(aktuellesGetraenk->mengen + i), (char *)buff2, 10);
    1206:	e0 91 69 12 	lds	r30, 0x1269	; 0x801269 <aktuellesGetraenk>
    120a:	f0 91 6a 12 	lds	r31, 0x126A	; 0x80126a <aktuellesGetraenk+0x1>
    120e:	04 80       	ldd	r0, Z+4	; 0x04
    1210:	f5 81       	ldd	r31, Z+5	; 0x05
    1212:	e0 2d       	mov	r30, r0
    1214:	e0 0f       	add	r30, r16
    1216:	f1 1f       	adc	r31, r17
    1218:	80 81       	ld	r24, Z
    121a:	4a e0       	ldi	r20, 0x0A	; 10
    121c:	be 01       	movw	r22, r28
    121e:	6f 57       	subi	r22, 0x7F	; 127
    1220:	7f 4f       	sbci	r23, 0xFF	; 255
    1222:	90 e0       	ldi	r25, 0x00	; 0
    1224:	0e 94 6f 2e 	call	0x5cde	; 0x5cde <__itoa_ncheck>
		strcat(ptr, buff2);
    1228:	be 01       	movw	r22, r28
    122a:	6f 57       	subi	r22, 0x7F	; 127
    122c:	7f 4f       	sbci	r23, 0xFF	; 255
    122e:	c7 01       	movw	r24, r14
    1230:	0e 94 36 2e 	call	0x5c6c	; 0x5c6c <strcat>
	char buff2[5]  = {0};
	
	int i = 0;
	itoa(*(aktuellesGetraenk->mengen + i), (char *)buff2, 10);
	strcat(ptr, buff2);
	for (i = 1 ; i < 12 ; i++)
    1234:	0f 5f       	subi	r16, 0xFF	; 255
    1236:	1f 4f       	sbci	r17, 0xFF	; 255
    1238:	0c 30       	cpi	r16, 0x0C	; 12
    123a:	11 05       	cpc	r17, r1
    123c:	e9 f6       	brne	.-70     	; 0x11f8 <erstelle_File+0xb8>
	{
		strcat(ptr,",");
		itoa(*(aktuellesGetraenk->mengen + i), (char *)buff2, 10);
		strcat(ptr, buff2);
	}
	strcat(ptr, "}\r");
    123e:	8e 01       	movw	r16, r28
    1240:	0f 5f       	subi	r16, 0xFF	; 255
    1242:	1f 4f       	sbci	r17, 0xFF	; 255
    1244:	f8 01       	movw	r30, r16
    1246:	01 90       	ld	r0, Z+
    1248:	00 20       	and	r0, r0
    124a:	e9 f7       	brne	.-6      	; 0x1246 <erstelle_File+0x106>
    124c:	31 97       	sbiw	r30, 0x01	; 1
    124e:	8d e7       	ldi	r24, 0x7D	; 125
    1250:	9d e0       	ldi	r25, 0x0D	; 13
    1252:	91 83       	std	Z+1, r25	; 0x01
    1254:	80 83       	st	Z, r24
    1256:	12 82       	std	Z+2, r1	; 0x02
	strcat(ptr, "Alkohol:");
    1258:	d8 01       	movw	r26, r16
    125a:	0d 90       	ld	r0, X+
    125c:	00 20       	and	r0, r0
    125e:	e9 f7       	brne	.-6      	; 0x125a <erstelle_File+0x11a>
    1260:	11 97       	sbiw	r26, 0x01	; 1
    1262:	89 e0       	ldi	r24, 0x09	; 9
    1264:	ed e3       	ldi	r30, 0x3D	; 61
    1266:	f5 e0       	ldi	r31, 0x05	; 5
    1268:	01 90       	ld	r0, Z+
    126a:	0d 92       	st	X+, r0
    126c:	8a 95       	dec	r24
    126e:	e1 f7       	brne	.-8      	; 0x1268 <erstelle_File+0x128>
    1270:	4a e0       	ldi	r20, 0x0A	; 10
    1272:	be 01       	movw	r22, r28
    1274:	6f 57       	subi	r22, 0x7F	; 127
    1276:	7f 4f       	sbci	r23, 0xFF	; 255
    1278:	8a 2d       	mov	r24, r10
    127a:	90 e0       	ldi	r25, 0x00	; 0
    127c:	0e 94 6f 2e 	call	0x5cde	; 0x5cde <__itoa_ncheck>
	itoa(alkohol, (char *)buff2, 10);
	strcat(ptr, (char *)buff2);
    1280:	be 01       	movw	r22, r28
    1282:	6f 57       	subi	r22, 0x7F	; 127
    1284:	7f 4f       	sbci	r23, 0xFF	; 255
    1286:	c8 01       	movw	r24, r16
    1288:	0e 94 36 2e 	call	0x5c6c	; 0x5c6c <strcat>
	strcat(ptr, "\r");
    128c:	f8 01       	movw	r30, r16
    128e:	01 90       	ld	r0, Z+
    1290:	00 20       	and	r0, r0
    1292:	e9 f7       	brne	.-6      	; 0x128e <erstelle_File+0x14e>
    1294:	31 97       	sbiw	r30, 0x01	; 1
    1296:	8d e0       	ldi	r24, 0x0D	; 13
    1298:	90 e0       	ldi	r25, 0x00	; 0
    129a:	91 83       	std	Z+1, r25	; 0x01
    129c:	80 83       	st	Z, r24

	strcat(ptr, "Bild:");
    129e:	d8 01       	movw	r26, r16
    12a0:	0d 90       	ld	r0, X+
    12a2:	00 20       	and	r0, r0
    12a4:	e9 f7       	brne	.-6      	; 0x12a0 <erstelle_File+0x160>
    12a6:	11 97       	sbiw	r26, 0x01	; 1
    12a8:	86 e0       	ldi	r24, 0x06	; 6
    12aa:	e6 e4       	ldi	r30, 0x46	; 70
    12ac:	f5 e0       	ldi	r31, 0x05	; 5
    12ae:	01 90       	ld	r0, Z+
    12b0:	0d 92       	st	X+, r0
    12b2:	8a 95       	dec	r24
    12b4:	e1 f7       	brne	.-8      	; 0x12ae <erstelle_File+0x16e>
	if (aktuellesGetraenk->picture != 24)
    12b6:	e0 91 69 12 	lds	r30, 0x1269	; 0x801269 <aktuellesGetraenk>
    12ba:	f0 91 6a 12 	lds	r31, 0x126A	; 0x80126a <aktuellesGetraenk+0x1>
    12be:	86 81       	ldd	r24, Z+6	; 0x06
    12c0:	88 31       	cpi	r24, 0x18	; 24
    12c2:	71 f0       	breq	.+28     	; 0x12e0 <erstelle_File+0x1a0>
    12c4:	4a e0       	ldi	r20, 0x0A	; 10
    12c6:	be 01       	movw	r22, r28
    12c8:	6b 56       	subi	r22, 0x6B	; 107
    12ca:	7f 4f       	sbci	r23, 0xFF	; 255
    12cc:	90 e0       	ldi	r25, 0x00	; 0
    12ce:	0e 94 6f 2e 	call	0x5cde	; 0x5cde <__itoa_ncheck>
	{
		char buff[5];
		itoa(aktuellesGetraenk->picture,(char *)buff, 10);
		strcat(ptr, (char *)buff);
    12d2:	be 01       	movw	r22, r28
    12d4:	6b 56       	subi	r22, 0x6B	; 107
    12d6:	7f 4f       	sbci	r23, 0xFF	; 255
    12d8:	c8 01       	movw	r24, r16
    12da:	0e 94 36 2e 	call	0x5c6c	; 0x5c6c <strcat>
    12de:	0b c0       	rjmp	.+22     	; 0x12f6 <erstelle_File+0x1b6>
	}
	else
	{
		strcat(ptr, "24");
    12e0:	fe 01       	movw	r30, r28
    12e2:	31 96       	adiw	r30, 0x01	; 1
    12e4:	01 90       	ld	r0, Z+
    12e6:	00 20       	and	r0, r0
    12e8:	e9 f7       	brne	.-6      	; 0x12e4 <erstelle_File+0x1a4>
    12ea:	31 97       	sbiw	r30, 0x01	; 1
    12ec:	82 e3       	ldi	r24, 0x32	; 50
    12ee:	94 e3       	ldi	r25, 0x34	; 52
    12f0:	91 83       	std	Z+1, r25	; 0x01
    12f2:	80 83       	st	Z, r24
    12f4:	12 82       	std	Z+2, r1	; 0x02
	}
	
	strcat(ptr, "~");
    12f6:	fe 01       	movw	r30, r28
    12f8:	31 96       	adiw	r30, 0x01	; 1
    12fa:	7f 01       	movw	r14, r30
    12fc:	01 90       	ld	r0, Z+
    12fe:	00 20       	and	r0, r0
    1300:	e9 f7       	brne	.-6      	; 0x12fc <erstelle_File+0x1bc>
    1302:	31 97       	sbiw	r30, 0x01	; 1
    1304:	8e e7       	ldi	r24, 0x7E	; 126
    1306:	90 e0       	ldi	r25, 0x00	; 0
    1308:	91 83       	std	Z+1, r25	; 0x01
    130a:	80 83       	st	Z, r24

	char buff3[15] = {'\0'};
    130c:	8e 01       	movw	r16, r28
    130e:	0a 57       	subi	r16, 0x7A	; 122
    1310:	1f 4f       	sbci	r17, 0xFF	; 255
    1312:	8f e0       	ldi	r24, 0x0F	; 15
    1314:	f8 01       	movw	r30, r16
    1316:	11 92       	st	Z+, r1
    1318:	8a 95       	dec	r24
    131a:	e9 f7       	brne	.-6      	; 0x1316 <erstelle_File+0x1d6>
    131c:	4a e0       	ldi	r20, 0x0A	; 10
    131e:	b8 01       	movw	r22, r16
    1320:	8b 2d       	mov	r24, r11
    1322:	90 e0       	ldi	r25, 0x00	; 0
    1324:	0e 94 6f 2e 	call	0x5cde	; 0x5cde <__itoa_ncheck>
	itoa(filename, (char *)buff3, 10);
	strcat((char *)buff3, (const char *)".txt");
    1328:	d8 01       	movw	r26, r16
    132a:	0d 90       	ld	r0, X+
    132c:	00 20       	and	r0, r0
    132e:	e9 f7       	brne	.-6      	; 0x132a <erstelle_File+0x1ea>
    1330:	11 97       	sbiw	r26, 0x01	; 1
    1332:	85 e0       	ldi	r24, 0x05	; 5
    1334:	e2 ef       	ldi	r30, 0xF2	; 242
    1336:	f5 e0       	ldi	r31, 0x05	; 5
    1338:	01 90       	ld	r0, Z+
    133a:	0d 92       	st	X+, r0
    133c:	8a 95       	dec	r24
    133e:	e1 f7       	brne	.-8      	; 0x1338 <erstelle_File+0x1f8>
	writeFile((unsigned char *)buff3,(unsigned char *)ptr);
    1340:	b7 01       	movw	r22, r14
    1342:	c8 01       	movw	r24, r16
    1344:	0e 94 6e 24 	call	0x48dc	; 0x48dc <writeFile>
}
    1348:	c7 56       	subi	r28, 0x67	; 103
    134a:	df 4f       	sbci	r29, 0xFF	; 255
    134c:	0f b6       	in	r0, 0x3f	; 63
    134e:	f8 94       	cli
    1350:	de bf       	out	0x3e, r29	; 62
    1352:	0f be       	out	0x3f, r0	; 63
    1354:	cd bf       	out	0x3d, r28	; 61
    1356:	df 91       	pop	r29
    1358:	cf 91       	pop	r28
    135a:	1f 91       	pop	r17
    135c:	0f 91       	pop	r16
    135e:	ff 90       	pop	r15
    1360:	ef 90       	pop	r14
    1362:	df 90       	pop	r13
    1364:	cf 90       	pop	r12
    1366:	bf 90       	pop	r11
    1368:	af 90       	pop	r10
    136a:	08 95       	ret

0000136c <loesche_FIle>:

void loesche_FIle(uint8_t filename)
{
    136c:	0f 93       	push	r16
    136e:	1f 93       	push	r17
    1370:	cf 93       	push	r28
    1372:	df 93       	push	r29
    1374:	cd b7       	in	r28, 0x3d	; 61
    1376:	de b7       	in	r29, 0x3e	; 62
    1378:	64 97       	sbiw	r28, 0x14	; 20
    137a:	0f b6       	in	r0, 0x3f	; 63
    137c:	f8 94       	cli
    137e:	de bf       	out	0x3e, r29	; 62
    1380:	0f be       	out	0x3f, r0	; 63
    1382:	cd bf       	out	0x3d, r28	; 61
	unsigned char buff[20] = {'\0'};
    1384:	8e 01       	movw	r16, r28
    1386:	0f 5f       	subi	r16, 0xFF	; 255
    1388:	1f 4f       	sbci	r17, 0xFF	; 255
    138a:	94 e1       	ldi	r25, 0x14	; 20
    138c:	f8 01       	movw	r30, r16
    138e:	11 92       	st	Z+, r1
    1390:	9a 95       	dec	r25
    1392:	e9 f7       	brne	.-6      	; 0x138e <loesche_FIle+0x22>
    1394:	4a e0       	ldi	r20, 0x0A	; 10
    1396:	b8 01       	movw	r22, r16
    1398:	90 e0       	ldi	r25, 0x00	; 0
    139a:	0e 94 6f 2e 	call	0x5cde	; 0x5cde <__itoa_ncheck>
	itoa(filename, (char *)buff, 10);
	strcat((char *)buff,".txt");
    139e:	d8 01       	movw	r26, r16
    13a0:	0d 90       	ld	r0, X+
    13a2:	00 20       	and	r0, r0
    13a4:	e9 f7       	brne	.-6      	; 0x13a0 <loesche_FIle+0x34>
    13a6:	11 97       	sbiw	r26, 0x01	; 1
    13a8:	85 e0       	ldi	r24, 0x05	; 5
    13aa:	e2 ef       	ldi	r30, 0xF2	; 242
    13ac:	f5 e0       	ldi	r31, 0x05	; 5
    13ae:	01 90       	ld	r0, Z+
    13b0:	0d 92       	st	X+, r0
    13b2:	8a 95       	dec	r24
    13b4:	e1 f7       	brne	.-8      	; 0x13ae <loesche_FIle+0x42>
	deleteFile((unsigned char *)buff);
    13b6:	c8 01       	movw	r24, r16
    13b8:	0e 94 62 24 	call	0x48c4	; 0x48c4 <deleteFile>
	
}
    13bc:	64 96       	adiw	r28, 0x14	; 20
    13be:	0f b6       	in	r0, 0x3f	; 63
    13c0:	f8 94       	cli
    13c2:	de bf       	out	0x3e, r29	; 62
    13c4:	0f be       	out	0x3f, r0	; 63
    13c6:	cd bf       	out	0x3d, r28	; 61
    13c8:	df 91       	pop	r29
    13ca:	cf 91       	pop	r28
    13cc:	1f 91       	pop	r17
    13ce:	0f 91       	pop	r16
    13d0:	08 95       	ret

000013d2 <erstelle_Liste_Zutat_Pos>:

void erstelle_Liste_Zutat_Pos(char * name_button)
{
    13d2:	8f 92       	push	r8
    13d4:	9f 92       	push	r9
    13d6:	af 92       	push	r10
    13d8:	bf 92       	push	r11
    13da:	cf 92       	push	r12
    13dc:	df 92       	push	r13
    13de:	ef 92       	push	r14
    13e0:	ff 92       	push	r15
    13e2:	0f 93       	push	r16
    13e4:	1f 93       	push	r17
    13e6:	cf 93       	push	r28
    13e8:	df 93       	push	r29
    13ea:	cd b7       	in	r28, 0x3d	; 61
    13ec:	de b7       	in	r29, 0x3e	; 62
    13ee:	ad 97       	sbiw	r28, 0x2d	; 45
    13f0:	0f b6       	in	r0, 0x3f	; 63
    13f2:	f8 94       	cli
    13f4:	de bf       	out	0x3e, r29	; 62
    13f6:	0f be       	out	0x3f, r0	; 63
    13f8:	cd bf       	out	0x3d, r28	; 61
    13fa:	6c 01       	movw	r12, r24
	// Getrnkedurchwahr bei Tail starten.
	aktuelleZutat = tail_zut;
    13fc:	e0 91 5d 12 	lds	r30, 0x125D	; 0x80125d <tail_zut>
    1400:	f0 91 5e 12 	lds	r31, 0x125E	; 0x80125e <tail_zut+0x1>
    1404:	f0 93 6c 12 	sts	0x126C, r31	; 0x80126c <aktuelleZutat+0x1>
    1408:	e0 93 6b 12 	sts	0x126B, r30	; 0x80126b <aktuelleZutat>
	
	// Shifte aktuelles Getrnk auf bestimmte Seite
	// (1. Seite: i_Liste = 0; 2. Seite: i_Liste = 8; ...)
	for (int i = 0 ; i < i_Liste ; i++)
    140c:	20 91 61 12 	lds	r18, 0x1261	; 0x801261 <i_Liste>
    1410:	30 e0       	ldi	r19, 0x00	; 0
    1412:	12 16       	cp	r1, r18
    1414:	13 06       	cpc	r1, r19
    1416:	6c f4       	brge	.+26     	; 0x1432 <erstelle_Liste_Zutat_Pos+0x60>
    1418:	80 e0       	ldi	r24, 0x00	; 0
    141a:	90 e0       	ldi	r25, 0x00	; 0
	{
		aktuelleZutat = aktuelleZutat->prev;
    141c:	05 80       	ldd	r0, Z+5	; 0x05
    141e:	f6 81       	ldd	r31, Z+6	; 0x06
    1420:	e0 2d       	mov	r30, r0
	// Getrnkedurchwahr bei Tail starten.
	aktuelleZutat = tail_zut;
	
	// Shifte aktuelles Getrnk auf bestimmte Seite
	// (1. Seite: i_Liste = 0; 2. Seite: i_Liste = 8; ...)
	for (int i = 0 ; i < i_Liste ; i++)
    1422:	01 96       	adiw	r24, 0x01	; 1
    1424:	82 17       	cp	r24, r18
    1426:	93 07       	cpc	r25, r19
    1428:	c9 f7       	brne	.-14     	; 0x141c <erstelle_Liste_Zutat_Pos+0x4a>
    142a:	f0 93 6c 12 	sts	0x126C, r31	; 0x80126c <aktuelleZutat+0x1>
    142e:	e0 93 6b 12 	sts	0x126B, r30	; 0x80126b <aktuelleZutat>
		aktuelleZutat = aktuelleZutat->prev;
	}

	// Fr alle Buttons auf der Seite ...
	// Initialisierungen
	char button[21] = {'\0'};
    1432:	fe 01       	movw	r30, r28
    1434:	31 96       	adiw	r30, 0x01	; 1
    1436:	85 e1       	ldi	r24, 0x15	; 21
    1438:	df 01       	movw	r26, r30
    143a:	1d 92       	st	X+, r1
    143c:	8a 95       	dec	r24
    143e:	e9 f7       	brne	.-6      	; 0x143a <erstelle_Liste_Zutat_Pos+0x68>
	char buff[4] = {0};
    1440:	1e 8a       	std	Y+22, r1	; 0x16
    1442:	1f 8a       	std	Y+23, r1	; 0x17
    1444:	18 8e       	std	Y+24, r1	; 0x18
    1446:	19 8e       	std	Y+25, r1	; 0x19
	
	for (int i = 0 ; i < 6 ; i++)
    1448:	00 e0       	ldi	r16, 0x00	; 0
    144a:	10 e0       	ldi	r17, 0x00	; 0
			
			// Sicherheitsdelay, Programm strzt sonst ab
			_delay_ms(10);
			
			// Schreibe Text und Buttonnummer fr disable in String
			char buff10[20] = {'\0'};
    144c:	0f 2e       	mov	r0, r31
    144e:	f4 e1       	ldi	r31, 0x14	; 20
    1450:	9f 2e       	mov	r9, r31
    1452:	f0 2d       	mov	r31, r0
    1454:	5e 01       	movw	r10, r28
    1456:	ba e1       	ldi	r27, 0x1A	; 26
    1458:	ab 0e       	add	r10, r27
    145a:	b1 1c       	adc	r11, r1
		
		// Falls das untere Ende der Liste erreicht wurde und liste noch nicht blockiert ist,
		// runterscrollen, blockieren und letzter Name einschreiben.
		if ((i + i_Liste ) == head_zut->nr && !block_list_runter)
		{
			block_list_runter = 1;
    145c:	88 24       	eor	r8, r8
    145e:	83 94       	inc	r8
	char buff[4] = {0};
	
	for (int i = 0 ; i < 6 ; i++)
	{
		// Schreibe Zahl und Name des Buttons in String
		itoa((i + 1),buff,10);
    1460:	78 01       	movw	r14, r16
    1462:	ef ef       	ldi	r30, 0xFF	; 255
    1464:	ee 1a       	sub	r14, r30
    1466:	fe 0a       	sbc	r15, r30
    1468:	4a e0       	ldi	r20, 0x0A	; 10
    146a:	be 01       	movw	r22, r28
    146c:	6a 5e       	subi	r22, 0xEA	; 234
    146e:	7f 4f       	sbci	r23, 0xFF	; 255
    1470:	c7 01       	movw	r24, r14
    1472:	0e 94 6f 2e 	call	0x5cde	; 0x5cde <__itoa_ncheck>
		strcpy((char *)button, (const char *)name_button);
    1476:	b6 01       	movw	r22, r12
    1478:	ce 01       	movw	r24, r28
    147a:	01 96       	adiw	r24, 0x01	; 1
    147c:	0e 94 41 2e 	call	0x5c82	; 0x5c82 <strcpy>
		strcat((char *)button, (const char *)buff);
    1480:	be 01       	movw	r22, r28
    1482:	6a 5e       	subi	r22, 0xEA	; 234
    1484:	7f 4f       	sbci	r23, 0xFF	; 255
    1486:	ce 01       	movw	r24, r28
    1488:	01 96       	adiw	r24, 0x01	; 1
    148a:	0e 94 36 2e 	call	0x5c6c	; 0x5c6c <strcat>
		
		// Falls das untere Ende der Liste erreicht wurde und liste noch nicht blockiert ist,
		// runterscrollen, blockieren und letzter Name einschreiben.
		if ((i + i_Liste ) == head_zut->nr && !block_list_runter)
    148e:	80 91 61 12 	lds	r24, 0x1261	; 0x801261 <i_Liste>
    1492:	98 01       	movw	r18, r16
    1494:	28 0f       	add	r18, r24
    1496:	31 1d       	adc	r19, r1
    1498:	e0 91 13 0a 	lds	r30, 0x0A13	; 0x800a13 <head_zut>
    149c:	f0 91 14 0a 	lds	r31, 0x0A14	; 0x800a14 <head_zut+0x1>
    14a0:	82 81       	ldd	r24, Z+2	; 0x02
    14a2:	90 e0       	ldi	r25, 0x00	; 0
    14a4:	28 17       	cp	r18, r24
    14a6:	39 07       	cpc	r19, r25
    14a8:	89 f4       	brne	.+34     	; 0x14cc <erstelle_Liste_Zutat_Pos+0xfa>
    14aa:	80 91 19 0a 	lds	r24, 0x0A19	; 0x800a19 <block_list_runter>
    14ae:	81 11       	cpse	r24, r1
    14b0:	11 c0       	rjmp	.+34     	; 0x14d4 <erstelle_Liste_Zutat_Pos+0x102>
		{
			block_list_runter = 1;
    14b2:	80 92 19 0a 	sts	0x0A19, r8	; 0x800a19 <block_list_runter>
			nextion_setText(button,aktuelleZutat->name);
    14b6:	e0 91 6b 12 	lds	r30, 0x126B	; 0x80126b <aktuelleZutat>
    14ba:	f0 91 6c 12 	lds	r31, 0x126C	; 0x80126c <aktuelleZutat+0x1>
    14be:	60 81       	ld	r22, Z
    14c0:	71 81       	ldd	r23, Z+1	; 0x01
    14c2:	ce 01       	movw	r24, r28
    14c4:	01 96       	adiw	r24, 0x01	; 1
    14c6:	0e 94 15 1c 	call	0x382a	; 0x382a <nextion_setText>
    14ca:	34 c0       	rjmp	.+104    	; 0x1534 <erstelle_Liste_Zutat_Pos+0x162>
		}
		
		// Falls die Liste blockiert ist, Leeren String in das Feld schreiben und
		// die Buttons disablen
		else if (block_list_runter)
    14cc:	80 91 19 0a 	lds	r24, 0x0A19	; 0x800a19 <block_list_runter>
    14d0:	88 23       	and	r24, r24
    14d2:	31 f1       	breq	.+76     	; 0x1520 <erstelle_Liste_Zutat_Pos+0x14e>
		{
			// leerer String
			nextion_setText(button,"");
    14d4:	62 e7       	ldi	r22, 0x72	; 114
    14d6:	76 e0       	ldi	r23, 0x06	; 6
    14d8:	ce 01       	movw	r24, r28
    14da:	01 96       	adiw	r24, 0x01	; 1
    14dc:	0e 94 15 1c 	call	0x382a	; 0x382a <nextion_setText>
    14e0:	8f e3       	ldi	r24, 0x3F	; 63
    14e2:	9c e9       	ldi	r25, 0x9C	; 156
    14e4:	01 97       	sbiw	r24, 0x01	; 1
    14e6:	f1 f7       	brne	.-4      	; 0x14e4 <erstelle_Liste_Zutat_Pos+0x112>
    14e8:	00 c0       	rjmp	.+0      	; 0x14ea <erstelle_Liste_Zutat_Pos+0x118>
    14ea:	00 00       	nop
			
			// Sicherheitsdelay, Programm strzt sonst ab
			_delay_ms(10);
			
			// Schreibe Text und Buttonnummer fr disable in String
			char buff10[20] = {'\0'};
    14ec:	d5 01       	movw	r26, r10
    14ee:	e9 2d       	mov	r30, r9
    14f0:	1d 92       	st	X+, r1
    14f2:	ea 95       	dec	r30
    14f4:	e9 f7       	brne	.-6      	; 0x14f0 <erstelle_Liste_Zutat_Pos+0x11e>
			strcat((char *)buff10, (const char *)name_button);
    14f6:	b6 01       	movw	r22, r12
    14f8:	c5 01       	movw	r24, r10
    14fa:	0e 94 36 2e 	call	0x5c6c	; 0x5c6c <strcat>
    14fe:	4a e0       	ldi	r20, 0x0A	; 10
    1500:	be 01       	movw	r22, r28
    1502:	6a 5e       	subi	r22, 0xEA	; 234
    1504:	7f 4f       	sbci	r23, 0xFF	; 255
    1506:	c7 01       	movw	r24, r14
    1508:	0e 94 6f 2e 	call	0x5cde	; 0x5cde <__itoa_ncheck>
			itoa((i + 1), (char *)buff, 10);
			strcat((char *)buff10, (const char *)buff);
    150c:	be 01       	movw	r22, r28
    150e:	6a 5e       	subi	r22, 0xEA	; 234
    1510:	7f 4f       	sbci	r23, 0xFF	; 255
    1512:	c5 01       	movw	r24, r10
    1514:	0e 94 36 2e 	call	0x5c6c	; 0x5c6c <strcat>
			
			// Disable Button
			nextion_disableButton(buff10);
    1518:	c5 01       	movw	r24, r10
    151a:	0e 94 b1 1c 	call	0x3962	; 0x3962 <nextion_disableButton>
    151e:	0a c0       	rjmp	.+20     	; 0x1534 <erstelle_Liste_Zutat_Pos+0x162>
		}
		
		//Falls Eintrag dazwischen, Name einschreiben (Normalbetrieb)
		else
		{
			nextion_setText(button,aktuelleZutat->name);
    1520:	e0 91 6b 12 	lds	r30, 0x126B	; 0x80126b <aktuelleZutat>
    1524:	f0 91 6c 12 	lds	r31, 0x126C	; 0x80126c <aktuelleZutat+0x1>
    1528:	60 81       	ld	r22, Z
    152a:	71 81       	ldd	r23, Z+1	; 0x01
    152c:	ce 01       	movw	r24, r28
    152e:	01 96       	adiw	r24, 0x01	; 1
    1530:	0e 94 15 1c 	call	0x382a	; 0x382a <nextion_setText>
		}
		
		// Falls das obere Ende der Liste erreicht wird, hochscrollen blockieren
		if((i + i_Liste) == tail_zut->nr)
    1534:	80 91 61 12 	lds	r24, 0x1261	; 0x801261 <i_Liste>
    1538:	08 0f       	add	r16, r24
    153a:	11 1d       	adc	r17, r1
    153c:	e0 91 5d 12 	lds	r30, 0x125D	; 0x80125d <tail_zut>
    1540:	f0 91 5e 12 	lds	r31, 0x125E	; 0x80125e <tail_zut+0x1>
    1544:	82 81       	ldd	r24, Z+2	; 0x02
    1546:	90 e0       	ldi	r25, 0x00	; 0
    1548:	08 17       	cp	r16, r24
    154a:	19 07       	cpc	r17, r25
    154c:	11 f4       	brne	.+4      	; 0x1552 <erstelle_Liste_Zutat_Pos+0x180>
		{
			block_list_hoch = 1;
    154e:	80 92 26 0e 	sts	0x0E26, r8	; 0x800e26 <block_list_hoch>
		}
		
		// Ein Getraenk weiter Scrollen
		aktuelleZutat = aktuelleZutat->prev;
    1552:	e0 91 6b 12 	lds	r30, 0x126B	; 0x80126b <aktuelleZutat>
    1556:	f0 91 6c 12 	lds	r31, 0x126C	; 0x80126c <aktuelleZutat+0x1>
    155a:	85 81       	ldd	r24, Z+5	; 0x05
    155c:	96 81       	ldd	r25, Z+6	; 0x06
    155e:	90 93 6c 12 	sts	0x126C, r25	; 0x80126c <aktuelleZutat+0x1>
    1562:	80 93 6b 12 	sts	0x126B, r24	; 0x80126b <aktuelleZutat>
    1566:	8f e9       	ldi	r24, 0x9F	; 159
    1568:	9f e0       	ldi	r25, 0x0F	; 15
    156a:	01 97       	sbiw	r24, 0x01	; 1
    156c:	f1 f7       	brne	.-4      	; 0x156a <erstelle_Liste_Zutat_Pos+0x198>
    156e:	00 c0       	rjmp	.+0      	; 0x1570 <erstelle_Liste_Zutat_Pos+0x19e>
    1570:	00 00       	nop
	// Fr alle Buttons auf der Seite ...
	// Initialisierungen
	char button[21] = {'\0'};
	char buff[4] = {0};
	
	for (int i = 0 ; i < 6 ; i++)
    1572:	87 01       	movw	r16, r14
    1574:	06 30       	cpi	r16, 0x06	; 6
    1576:	11 05       	cpc	r17, r1
    1578:	09 f0       	breq	.+2      	; 0x157c <erstelle_Liste_Zutat_Pos+0x1aa>
    157a:	72 cf       	rjmp	.-284    	; 0x1460 <erstelle_Liste_Zutat_Pos+0x8e>
		aktuelleZutat = aktuelleZutat->prev;
		
		// Sicherheitsdelay, Programm strzt sonst ab
		_delay_ms(1);
	}
}
    157c:	ad 96       	adiw	r28, 0x2d	; 45
    157e:	0f b6       	in	r0, 0x3f	; 63
    1580:	f8 94       	cli
    1582:	de bf       	out	0x3e, r29	; 62
    1584:	0f be       	out	0x3f, r0	; 63
    1586:	cd bf       	out	0x3d, r28	; 61
    1588:	df 91       	pop	r29
    158a:	cf 91       	pop	r28
    158c:	1f 91       	pop	r17
    158e:	0f 91       	pop	r16
    1590:	ff 90       	pop	r15
    1592:	ef 90       	pop	r14
    1594:	df 90       	pop	r13
    1596:	cf 90       	pop	r12
    1598:	bf 90       	pop	r11
    159a:	af 90       	pop	r10
    159c:	9f 90       	pop	r9
    159e:	8f 90       	pop	r8
    15a0:	08 95       	ret

000015a2 <lese_textfile_in_zutat>:

void lese_textfile_in_zutat(uint8_t file)
{
    15a2:	ef 92       	push	r14
    15a4:	ff 92       	push	r15
    15a6:	0f 93       	push	r16
    15a8:	1f 93       	push	r17
    15aa:	cf 93       	push	r28
    15ac:	df 93       	push	r29
    15ae:	cd b7       	in	r28, 0x3d	; 61
    15b0:	de b7       	in	r29, 0x3e	; 62
    15b2:	a1 97       	sbiw	r28, 0x21	; 33
    15b4:	0f b6       	in	r0, 0x3f	; 63
    15b6:	f8 94       	cli
    15b8:	de bf       	out	0x3e, r29	; 62
    15ba:	0f be       	out	0x3f, r0	; 63
    15bc:	cd bf       	out	0x3d, r28	; 61
	char buff_textfiles_zutat[21] = {'\0'};
    15be:	8e 01       	movw	r16, r28
    15c0:	0f 5f       	subi	r16, 0xFF	; 255
    15c2:	1f 4f       	sbci	r17, 0xFF	; 255
    15c4:	95 e1       	ldi	r25, 0x15	; 21
    15c6:	f8 01       	movw	r30, r16
    15c8:	11 92       	st	Z+, r1
    15ca:	9a 95       	dec	r25
    15cc:	e9 f7       	brne	.-6      	; 0x15c8 <lese_textfile_in_zutat+0x26>
	char buff2_textfiles_zutat[5] = {'\0'};
    15ce:	7e 01       	movw	r14, r28
    15d0:	f6 e1       	ldi	r31, 0x16	; 22
    15d2:	ef 0e       	add	r14, r31
    15d4:	f1 1c       	adc	r15, r1
    15d6:	95 e0       	ldi	r25, 0x05	; 5
    15d8:	f7 01       	movw	r30, r14
    15da:	11 92       	st	Z+, r1
    15dc:	9a 95       	dec	r25
    15de:	e9 f7       	brne	.-6      	; 0x15da <lese_textfile_in_zutat+0x38>
	
	strcpy((char *)buff_textfiles_zutat, (const char *)"Z");
    15e0:	2a e5       	ldi	r18, 0x5A	; 90
    15e2:	30 e0       	ldi	r19, 0x00	; 0
    15e4:	3a 83       	std	Y+2, r19	; 0x02
    15e6:	29 83       	std	Y+1, r18	; 0x01
    15e8:	4a e0       	ldi	r20, 0x0A	; 10
    15ea:	b7 01       	movw	r22, r14
    15ec:	90 e0       	ldi	r25, 0x00	; 0
    15ee:	0e 94 6f 2e 	call	0x5cde	; 0x5cde <__itoa_ncheck>
	itoa(file, (char *)buff2_textfiles_zutat, 10);
	strcat((char *)buff_textfiles_zutat, (const char *)buff2_textfiles_zutat);
    15f2:	b7 01       	movw	r22, r14
    15f4:	c8 01       	movw	r24, r16
    15f6:	0e 94 36 2e 	call	0x5c6c	; 0x5c6c <strcat>
	strcat((char *)buff_textfiles_zutat, (const char *)".txt");
    15fa:	d8 01       	movw	r26, r16
    15fc:	0d 90       	ld	r0, X+
    15fe:	00 20       	and	r0, r0
    1600:	e9 f7       	brne	.-6      	; 0x15fc <lese_textfile_in_zutat+0x5a>
    1602:	11 97       	sbiw	r26, 0x01	; 1
    1604:	85 e0       	ldi	r24, 0x05	; 5
    1606:	e2 ef       	ldi	r30, 0xF2	; 242
    1608:	f5 e0       	ldi	r31, 0x05	; 5
    160a:	01 90       	ld	r0, Z+
    160c:	0d 92       	st	X+, r0
    160e:	8a 95       	dec	r24
    1610:	e1 f7       	brne	.-8      	; 0x160a <lese_textfile_in_zutat+0x68>
	
	readFile(READ, (unsigned char *)buff_textfiles_zutat);
    1612:	b8 01       	movw	r22, r16
    1614:	80 e0       	ldi	r24, 0x00	; 0
    1616:	0e 94 84 23 	call	0x4708	; 0x4708 <readFile>
	
	// Trennungszeichen definieren, Pointer initialisiern f?r Abschnitte
	char delimiter[] = ":,{}\r\n";
    161a:	87 e0       	ldi	r24, 0x07	; 7
    161c:	e7 ec       	ldi	r30, 0xC7	; 199
    161e:	f3 e0       	ldi	r31, 0x03	; 3
    1620:	de 01       	movw	r26, r28
    1622:	5b 96       	adiw	r26, 0x1b	; 27
    1624:	01 90       	ld	r0, Z+
    1626:	0d 92       	st	X+, r0
    1628:	8a 95       	dec	r24
    162a:	e1 f7       	brne	.-8      	; 0x1624 <lese_textfile_in_zutat+0x82>
	char *ptr;
	
	// initialisieren und ersten Abschnitt erstellen (1. Kopf)
	ptr = strtok((char *)buffer, delimiter);
    162c:	be 01       	movw	r22, r28
    162e:	65 5e       	subi	r22, 0xE5	; 229
    1630:	7f 4f       	sbci	r23, 0xFF	; 255
    1632:	82 e2       	ldi	r24, 0x22	; 34
    1634:	9c e0       	ldi	r25, 0x0C	; 12
    1636:	0e 94 2c 2e 	call	0x5c58	; 0x5c58 <strtok>
    163a:	8c 01       	movw	r16, r24
	*******************************************************************
	Name:Getraenk1
	Alkohol:1/0
*/	

	while(ptr != NULL) 
    163c:	89 2b       	or	r24, r25
    163e:	b1 f1       	breq	.+108    	; 0x16ac <lese_textfile_in_zutat+0x10a>
	{
		// Kopf pruefen und jeweilige Aktion ausfuehren
		if (pruefe_kopf(ptr, "Name"))
    1640:	6e ea       	ldi	r22, 0xAE	; 174
    1642:	73 e0       	ldi	r23, 0x03	; 3
    1644:	c8 01       	movw	r24, r16
    1646:	f0 da       	rcall	.-2592   	; 0xc28 <pruefe_kopf>
    1648:	88 23       	and	r24, r24
    164a:	89 f0       	breq	.+34     	; 0x166e <lese_textfile_in_zutat+0xcc>
		{
			ptr = strtok(NULL, delimiter);
    164c:	be 01       	movw	r22, r28
    164e:	65 5e       	subi	r22, 0xE5	; 229
    1650:	7f 4f       	sbci	r23, 0xFF	; 255
    1652:	80 e0       	ldi	r24, 0x00	; 0
    1654:	90 e0       	ldi	r25, 0x00	; 0
    1656:	0e 94 2c 2e 	call	0x5c58	; 0x5c58 <strtok>
    165a:	8c 01       	movw	r16, r24
			strcpy((char *)aktuelle_zutat_test->name,(const char *)ptr);
    165c:	e0 91 59 11 	lds	r30, 0x1159	; 0x801159 <aktuelle_zutat_test>
    1660:	f0 91 5a 11 	lds	r31, 0x115A	; 0x80115a <aktuelle_zutat_test+0x1>
    1664:	bc 01       	movw	r22, r24
    1666:	80 81       	ld	r24, Z
    1668:	91 81       	ldd	r25, Z+1	; 0x01
    166a:	0e 94 41 2e 	call	0x5c82	; 0x5c82 <strcpy>
		}
		if (pruefe_kopf(ptr, "Alkohol"))
    166e:	6a eb       	ldi	r22, 0xBA	; 186
    1670:	73 e0       	ldi	r23, 0x03	; 3
    1672:	c8 01       	movw	r24, r16
    1674:	d9 da       	rcall	.-2638   	; 0xc28 <pruefe_kopf>
    1676:	88 23       	and	r24, r24
    1678:	79 f0       	breq	.+30     	; 0x1698 <lese_textfile_in_zutat+0xf6>
		{
			ptr = strtok(NULL, delimiter);
    167a:	be 01       	movw	r22, r28
    167c:	65 5e       	subi	r22, 0xE5	; 229
    167e:	7f 4f       	sbci	r23, 0xFF	; 255
    1680:	80 e0       	ldi	r24, 0x00	; 0
    1682:	90 e0       	ldi	r25, 0x00	; 0
    1684:	0e 94 2c 2e 	call	0x5c58	; 0x5c58 <strtok>
			aktuelle_zutat_test->alkohol = atoi(ptr);
    1688:	00 91 59 11 	lds	r16, 0x1159	; 0x801159 <aktuelle_zutat_test>
    168c:	10 91 5a 11 	lds	r17, 0x115A	; 0x80115a <aktuelle_zutat_test+0x1>
    1690:	0e 94 0f 2e 	call	0x5c1e	; 0x5c1e <atoi>
    1694:	f8 01       	movw	r30, r16
    1696:	82 83       	std	Z+2, r24	; 0x02
		}
			
		// Neuer Kopf suchen und ptr darauf zeigen lassen
		ptr = strtok(NULL, delimiter);
    1698:	be 01       	movw	r22, r28
    169a:	65 5e       	subi	r22, 0xE5	; 229
    169c:	7f 4f       	sbci	r23, 0xFF	; 255
    169e:	80 e0       	ldi	r24, 0x00	; 0
    16a0:	90 e0       	ldi	r25, 0x00	; 0
    16a2:	0e 94 2c 2e 	call	0x5c58	; 0x5c58 <strtok>
    16a6:	8c 01       	movw	r16, r24
	*******************************************************************
	Name:Getraenk1
	Alkohol:1/0
*/	

	while(ptr != NULL) 
    16a8:	89 2b       	or	r24, r25
    16aa:	51 f6       	brne	.-108    	; 0x1640 <lese_textfile_in_zutat+0x9e>
		}
			
		// Neuer Kopf suchen und ptr darauf zeigen lassen
		ptr = strtok(NULL, delimiter);
	}
}
    16ac:	a1 96       	adiw	r28, 0x21	; 33
    16ae:	0f b6       	in	r0, 0x3f	; 63
    16b0:	f8 94       	cli
    16b2:	de bf       	out	0x3e, r29	; 62
    16b4:	0f be       	out	0x3f, r0	; 63
    16b6:	cd bf       	out	0x3d, r28	; 61
    16b8:	df 91       	pop	r29
    16ba:	cf 91       	pop	r28
    16bc:	1f 91       	pop	r17
    16be:	0f 91       	pop	r16
    16c0:	ff 90       	pop	r15
    16c2:	ef 90       	pop	r14
    16c4:	08 95       	ret

000016c6 <erstelle_Zutatenliste>:
		break;
	}
}

void erstelle_Zutatenliste(getraenk_t * anzeige_getraenk)
{
    16c6:	2f 92       	push	r2
    16c8:	3f 92       	push	r3
    16ca:	4f 92       	push	r4
    16cc:	5f 92       	push	r5
    16ce:	6f 92       	push	r6
    16d0:	7f 92       	push	r7
    16d2:	8f 92       	push	r8
    16d4:	9f 92       	push	r9
    16d6:	af 92       	push	r10
    16d8:	bf 92       	push	r11
    16da:	cf 92       	push	r12
    16dc:	df 92       	push	r13
    16de:	ef 92       	push	r14
    16e0:	ff 92       	push	r15
    16e2:	0f 93       	push	r16
    16e4:	1f 93       	push	r17
    16e6:	cf 93       	push	r28
    16e8:	df 93       	push	r29
    16ea:	cd b7       	in	r28, 0x3d	; 61
    16ec:	de b7       	in	r29, 0x3e	; 62
    16ee:	c4 50       	subi	r28, 0x04	; 4
    16f0:	d2 40       	sbci	r29, 0x02	; 2
    16f2:	0f b6       	in	r0, 0x3f	; 63
    16f4:	f8 94       	cli
    16f6:	de bf       	out	0x3e, r29	; 62
    16f8:	0f be       	out	0x3f, r0	; 63
    16fa:	cd bf       	out	0x3d, r28	; 61
    16fc:	2c 01       	movw	r4, r24
// 					- Hnge Zeilenumbruch an Kette
// 					- Switche zur nchsten Zutat
// 					
// 					- Schreibe Zutatenkette in Textfeld

	aktuelles_zutat_file = tail_zutat_file;
    16fe:	80 91 f0 09 	lds	r24, 0x09F0	; 0x8009f0 <tail_zutat_file>
    1702:	90 91 f1 09 	lds	r25, 0x09F1	; 0x8009f1 <tail_zutat_file+0x1>
    1706:	90 93 4d 0f 	sts	0x0F4D, r25	; 0x800f4d <aktuelles_zutat_file+0x1>
    170a:	80 93 4c 0f 	sts	0x0F4C, r24	; 0x800f4c <aktuelles_zutat_file>

	char string[512] = {'\0'};
    170e:	fe 01       	movw	r30, r28
    1710:	31 96       	adiw	r30, 0x01	; 1
    1712:	80 e0       	ldi	r24, 0x00	; 0
    1714:	92 e0       	ldi	r25, 0x02	; 2
    1716:	df 01       	movw	r26, r30
    1718:	9c 01       	movw	r18, r24
    171a:	1d 92       	st	X+, r1
    171c:	21 50       	subi	r18, 0x01	; 1
    171e:	30 40       	sbci	r19, 0x00	; 0
    1720:	e1 f7       	brne	.-8      	; 0x171a <erstelle_Zutatenliste+0x54>
	char buff[4] = {0};
    1722:	cf 5f       	subi	r28, 0xFF	; 255
    1724:	dd 4f       	sbci	r29, 0xFD	; 253
    1726:	18 82       	st	Y, r1
    1728:	19 82       	std	Y+1, r1	; 0x01
    172a:	1a 82       	std	Y+2, r1	; 0x02
    172c:	1b 82       	std	Y+3, r1	; 0x03
    172e:	c1 50       	subi	r28, 0x01	; 1
    1730:	d2 40       	sbci	r29, 0x02	; 2
	for (int i = 0 ; i<12 ; i++)
    1732:	e1 2c       	mov	r14, r1
    1734:	f1 2c       	mov	r15, r1
	{
		lese_textfile_in_zutat(aktuelles_zutat_file->file);
		if (*(uint8_t *)(anzeige_getraenk->mengen + i) != (unsigned char)0)
		{
			strcat((char *)string, (const char *)aktuelle_zutat_test->name);
    1736:	8f 01       	movw	r16, r30
			for (int i = 0 ; i<(20-strlen(aktuelle_zutat_test->name)) ; i++)
    1738:	0f 2e       	mov	r0, r31
    173a:	f4 e1       	ldi	r31, 0x14	; 20
    173c:	af 2e       	mov	r10, r31
    173e:	b1 2c       	mov	r11, r1
    1740:	f0 2d       	mov	r31, r0
			{
				strcat((char *)string, "-");
    1742:	0f 2e       	mov	r0, r31
    1744:	fd e2       	ldi	r31, 0x2D	; 45
    1746:	8f 2e       	mov	r8, r31
    1748:	91 2c       	mov	r9, r1
    174a:	f0 2d       	mov	r31, r0
			}
			strcat((char *)string, (const char *)"(");
    174c:	0f 2e       	mov	r0, r31
    174e:	f8 e2       	ldi	r31, 0x28	; 40
    1750:	2f 2e       	mov	r2, r31
    1752:	31 2c       	mov	r3, r1
    1754:	f0 2d       	mov	r31, r0

	char string[512] = {'\0'};
	char buff[4] = {0};
	for (int i = 0 ; i<12 ; i++)
	{
		lese_textfile_in_zutat(aktuelles_zutat_file->file);
    1756:	e0 91 4c 0f 	lds	r30, 0x0F4C	; 0x800f4c <aktuelles_zutat_file>
    175a:	f0 91 4d 0f 	lds	r31, 0x0F4D	; 0x800f4d <aktuelles_zutat_file+0x1>
    175e:	80 81       	ld	r24, Z
    1760:	20 df       	rcall	.-448    	; 0x15a2 <lese_textfile_in_zutat>
		if (*(uint8_t *)(anzeige_getraenk->mengen + i) != (unsigned char)0)
    1762:	d2 01       	movw	r26, r4
    1764:	14 96       	adiw	r26, 0x04	; 4
    1766:	6d 90       	ld	r6, X+
    1768:	7c 90       	ld	r7, X
    176a:	15 97       	sbiw	r26, 0x05	; 5
    176c:	6e 0c       	add	r6, r14
    176e:	7f 1c       	adc	r7, r15
    1770:	f3 01       	movw	r30, r6
    1772:	80 81       	ld	r24, Z
    1774:	88 23       	and	r24, r24
    1776:	09 f4       	brne	.+2      	; 0x177a <erstelle_Zutatenliste+0xb4>
    1778:	4f c0       	rjmp	.+158    	; 0x1818 <erstelle_Zutatenliste+0x152>
		{
			strcat((char *)string, (const char *)aktuelle_zutat_test->name);
    177a:	c0 90 59 11 	lds	r12, 0x1159	; 0x801159 <aktuelle_zutat_test>
    177e:	d0 90 5a 11 	lds	r13, 0x115A	; 0x80115a <aktuelle_zutat_test+0x1>
    1782:	d6 01       	movw	r26, r12
    1784:	6d 91       	ld	r22, X+
    1786:	7c 91       	ld	r23, X
    1788:	c8 01       	movw	r24, r16
    178a:	0e 94 36 2e 	call	0x5c6c	; 0x5c6c <strcat>
			for (int i = 0 ; i<(20-strlen(aktuelle_zutat_test->name)) ; i++)
    178e:	80 e0       	ldi	r24, 0x00	; 0
    1790:	90 e0       	ldi	r25, 0x00	; 0
    1792:	08 c0       	rjmp	.+16     	; 0x17a4 <erstelle_Zutatenliste+0xde>
			{
				strcat((char *)string, "-");
    1794:	f8 01       	movw	r30, r16
    1796:	01 90       	ld	r0, Z+
    1798:	00 20       	and	r0, r0
    179a:	e9 f7       	brne	.-6      	; 0x1796 <erstelle_Zutatenliste+0xd0>
    179c:	31 97       	sbiw	r30, 0x01	; 1
    179e:	91 82       	std	Z+1, r9	; 0x01
    17a0:	80 82       	st	Z, r8
	{
		lese_textfile_in_zutat(aktuelles_zutat_file->file);
		if (*(uint8_t *)(anzeige_getraenk->mengen + i) != (unsigned char)0)
		{
			strcat((char *)string, (const char *)aktuelle_zutat_test->name);
			for (int i = 0 ; i<(20-strlen(aktuelle_zutat_test->name)) ; i++)
    17a2:	01 96       	adiw	r24, 0x01	; 1
    17a4:	f6 01       	movw	r30, r12
    17a6:	a0 81       	ld	r26, Z
    17a8:	b1 81       	ldd	r27, Z+1	; 0x01
    17aa:	fd 01       	movw	r30, r26
    17ac:	01 90       	ld	r0, Z+
    17ae:	00 20       	and	r0, r0
    17b0:	e9 f7       	brne	.-6      	; 0x17ac <erstelle_Zutatenliste+0xe6>
    17b2:	31 97       	sbiw	r30, 0x01	; 1
    17b4:	ea 1b       	sub	r30, r26
    17b6:	fb 0b       	sbc	r31, r27
    17b8:	95 01       	movw	r18, r10
    17ba:	2e 1b       	sub	r18, r30
    17bc:	3f 0b       	sbc	r19, r31
    17be:	82 17       	cp	r24, r18
    17c0:	93 07       	cpc	r25, r19
    17c2:	40 f3       	brcs	.-48     	; 0x1794 <erstelle_Zutatenliste+0xce>
			{
				strcat((char *)string, "-");
			}
			strcat((char *)string, (const char *)"(");
    17c4:	f8 01       	movw	r30, r16
    17c6:	01 90       	ld	r0, Z+
    17c8:	00 20       	and	r0, r0
    17ca:	e9 f7       	brne	.-6      	; 0x17c6 <erstelle_Zutatenliste+0x100>
    17cc:	31 97       	sbiw	r30, 0x01	; 1
    17ce:	31 82       	std	Z+1, r3	; 0x01
    17d0:	20 82       	st	Z, r2
    17d2:	d3 01       	movw	r26, r6
    17d4:	8c 91       	ld	r24, X
    17d6:	4a e0       	ldi	r20, 0x0A	; 10
    17d8:	be 01       	movw	r22, r28
    17da:	6f 5f       	subi	r22, 0xFF	; 255
    17dc:	7d 4f       	sbci	r23, 0xFD	; 253
    17de:	90 e0       	ldi	r25, 0x00	; 0
    17e0:	0e 94 6f 2e 	call	0x5cde	; 0x5cde <__itoa_ncheck>
			itoa(*(uint8_t *)(anzeige_getraenk->mengen + i),buff,10);
			strcat((char *)string, (const char *)buff);
    17e4:	be 01       	movw	r22, r28
    17e6:	6f 5f       	subi	r22, 0xFF	; 255
    17e8:	7d 4f       	sbci	r23, 0xFD	; 253
    17ea:	c8 01       	movw	r24, r16
    17ec:	0e 94 36 2e 	call	0x5c6c	; 0x5c6c <strcat>
			strcat((char *)string, (const char *)"%)");
    17f0:	f8 01       	movw	r30, r16
    17f2:	01 90       	ld	r0, Z+
    17f4:	00 20       	and	r0, r0
    17f6:	e9 f7       	brne	.-6      	; 0x17f2 <erstelle_Zutatenliste+0x12c>
    17f8:	31 97       	sbiw	r30, 0x01	; 1
    17fa:	25 e2       	ldi	r18, 0x25	; 37
    17fc:	39 e2       	ldi	r19, 0x29	; 41
    17fe:	31 83       	std	Z+1, r19	; 0x01
    1800:	20 83       	st	Z, r18
    1802:	12 82       	std	Z+2, r1	; 0x02
			strcat((char *)string, (const char *)"\\r");
    1804:	f8 01       	movw	r30, r16
    1806:	01 90       	ld	r0, Z+
    1808:	00 20       	and	r0, r0
    180a:	e9 f7       	brne	.-6      	; 0x1806 <erstelle_Zutatenliste+0x140>
    180c:	31 97       	sbiw	r30, 0x01	; 1
    180e:	8c e5       	ldi	r24, 0x5C	; 92
    1810:	92 e7       	ldi	r25, 0x72	; 114
    1812:	91 83       	std	Z+1, r25	; 0x01
    1814:	80 83       	st	Z, r24
    1816:	12 82       	std	Z+2, r1	; 0x02
		}
		aktuelles_zutat_file = aktuelles_zutat_file->prev;
    1818:	e0 91 4c 0f 	lds	r30, 0x0F4C	; 0x800f4c <aktuelles_zutat_file>
    181c:	f0 91 4d 0f 	lds	r31, 0x0F4D	; 0x800f4d <aktuelles_zutat_file+0x1>
    1820:	83 81       	ldd	r24, Z+3	; 0x03
    1822:	94 81       	ldd	r25, Z+4	; 0x04
    1824:	90 93 4d 0f 	sts	0x0F4D, r25	; 0x800f4d <aktuelles_zutat_file+0x1>
    1828:	80 93 4c 0f 	sts	0x0F4C, r24	; 0x800f4c <aktuelles_zutat_file>

	aktuelles_zutat_file = tail_zutat_file;

	char string[512] = {'\0'};
	char buff[4] = {0};
	for (int i = 0 ; i<12 ; i++)
    182c:	9f ef       	ldi	r25, 0xFF	; 255
    182e:	e9 1a       	sub	r14, r25
    1830:	f9 0a       	sbc	r15, r25
    1832:	ac e0       	ldi	r26, 0x0C	; 12
    1834:	ea 16       	cp	r14, r26
    1836:	f1 04       	cpc	r15, r1
    1838:	09 f0       	breq	.+2      	; 0x183c <erstelle_Zutatenliste+0x176>
    183a:	8d cf       	rjmp	.-230    	; 0x1756 <erstelle_Zutatenliste+0x90>
			strcat((char *)string, (const char *)"%)");
			strcat((char *)string, (const char *)"\\r");
		}
		aktuelles_zutat_file = aktuelles_zutat_file->prev;
	}
	nextion_setText("zutatenliste",string);
    183c:	be 01       	movw	r22, r28
    183e:	6f 5f       	subi	r22, 0xFF	; 255
    1840:	7f 4f       	sbci	r23, 0xFF	; 255
    1842:	8c e4       	ldi	r24, 0x4C	; 76
    1844:	95 e0       	ldi	r25, 0x05	; 5
    1846:	0e 94 15 1c 	call	0x382a	; 0x382a <nextion_setText>
}
    184a:	cc 5f       	subi	r28, 0xFC	; 252
    184c:	dd 4f       	sbci	r29, 0xFD	; 253
    184e:	0f b6       	in	r0, 0x3f	; 63
    1850:	f8 94       	cli
    1852:	de bf       	out	0x3e, r29	; 62
    1854:	0f be       	out	0x3f, r0	; 63
    1856:	cd bf       	out	0x3d, r28	; 61
    1858:	df 91       	pop	r29
    185a:	cf 91       	pop	r28
    185c:	1f 91       	pop	r17
    185e:	0f 91       	pop	r16
    1860:	ff 90       	pop	r15
    1862:	ef 90       	pop	r14
    1864:	df 90       	pop	r13
    1866:	cf 90       	pop	r12
    1868:	bf 90       	pop	r11
    186a:	af 90       	pop	r10
    186c:	9f 90       	pop	r9
    186e:	8f 90       	pop	r8
    1870:	7f 90       	pop	r7
    1872:	6f 90       	pop	r6
    1874:	5f 90       	pop	r5
    1876:	4f 90       	pop	r4
    1878:	3f 90       	pop	r3
    187a:	2f 90       	pop	r2
    187c:	08 95       	ret

0000187e <setze_Posanzeige_Rot_Gruen>:
		ptr = strtok(NULL, delimiter);
	}
}

void setze_Posanzeige_Rot_Gruen(void)
{
    187e:	cf 92       	push	r12
    1880:	df 92       	push	r13
    1882:	ef 92       	push	r14
    1884:	ff 92       	push	r15
    1886:	0f 93       	push	r16
    1888:	1f 93       	push	r17
    188a:	cf 93       	push	r28
    188c:	df 93       	push	r29
    188e:	cd b7       	in	r28, 0x3d	; 61
    1890:	de b7       	in	r29, 0x3e	; 62
    1892:	ec 97       	sbiw	r28, 0x3c	; 60
    1894:	0f b6       	in	r0, 0x3f	; 63
    1896:	f8 94       	cli
    1898:	de bf       	out	0x3e, r29	; 62
    189a:	0f be       	out	0x3f, r0	; 63
    189c:	cd bf       	out	0x3d, r28	; 61
	aktuelleZutatInMaschine = tail_zut_in_Maschine;
    189e:	80 91 32 0f 	lds	r24, 0x0F32	; 0x800f32 <tail_zut_in_Maschine>
    18a2:	90 91 33 0f 	lds	r25, 0x0F33	; 0x800f33 <tail_zut_in_Maschine+0x1>
    18a6:	90 93 e5 09 	sts	0x09E5, r25	; 0x8009e5 <aktuelleZutatInMaschine+0x1>
    18aa:	80 93 e4 09 	sts	0x09E4, r24	; 0x8009e4 <aktuelleZutatInMaschine>
	char buff[50];
	char buff2[10];
	for (int i = 0 ; i <12 ; i++)
    18ae:	00 e0       	ldi	r16, 0x00	; 0
    18b0:	10 e0       	ldi	r17, 0x00	; 0
	{
		strcpy((char *)buff, "b");
    18b2:	0f 2e       	mov	r0, r31
    18b4:	f2 e6       	ldi	r31, 0x62	; 98
    18b6:	cf 2e       	mov	r12, r31
    18b8:	d1 2c       	mov	r13, r1
    18ba:	f0 2d       	mov	r31, r0
		itoa(i,(char *) buff2, 10);
		strcat((char *)buff, (const char *)buff2);
    18bc:	ce 01       	movw	r24, r28
    18be:	01 96       	adiw	r24, 0x01	; 1
    18c0:	7c 01       	movw	r14, r24
	aktuelleZutatInMaschine = tail_zut_in_Maschine;
	char buff[50];
	char buff2[10];
	for (int i = 0 ; i <12 ; i++)
	{
		strcpy((char *)buff, "b");
    18c2:	da 82       	std	Y+2, r13	; 0x02
    18c4:	c9 82       	std	Y+1, r12	; 0x01
    18c6:	4a e0       	ldi	r20, 0x0A	; 10
    18c8:	be 01       	movw	r22, r28
    18ca:	6d 5c       	subi	r22, 0xCD	; 205
    18cc:	7f 4f       	sbci	r23, 0xFF	; 255
    18ce:	c8 01       	movw	r24, r16
    18d0:	0e 94 6f 2e 	call	0x5cde	; 0x5cde <__itoa_ncheck>
		itoa(i,(char *) buff2, 10);
		strcat((char *)buff, (const char *)buff2);
    18d4:	be 01       	movw	r22, r28
    18d6:	6d 5c       	subi	r22, 0xCD	; 205
    18d8:	7f 4f       	sbci	r23, 0xFF	; 255
    18da:	c7 01       	movw	r24, r14
    18dc:	0e 94 36 2e 	call	0x5c6c	; 0x5c6c <strcat>
		switch (aktuelleZutatInMaschine->status)
    18e0:	e0 91 e4 09 	lds	r30, 0x09E4	; 0x8009e4 <aktuelleZutatInMaschine>
    18e4:	f0 91 e5 09 	lds	r31, 0x09E5	; 0x8009e5 <aktuelleZutatInMaschine+0x1>
    18e8:	82 81       	ldd	r24, Z+2	; 0x02
    18ea:	81 30       	cpi	r24, 0x01	; 1
    18ec:	89 f0       	breq	.+34     	; 0x1910 <setze_Posanzeige_Rot_Gruen+0x92>
    18ee:	18 f0       	brcs	.+6      	; 0x18f6 <setze_Posanzeige_Rot_Gruen+0x78>
    18f0:	82 30       	cpi	r24, 0x02	; 2
    18f2:	d9 f0       	breq	.+54     	; 0x192a <setze_Posanzeige_Rot_Gruen+0xac>
    18f4:	26 c0       	rjmp	.+76     	; 0x1942 <setze_Posanzeige_Rot_Gruen+0xc4>
		{
			case 0:
			strcat((char *)buff, ".pco=0");
    18f6:	d7 01       	movw	r26, r14
    18f8:	0d 90       	ld	r0, X+
    18fa:	00 20       	and	r0, r0
    18fc:	e9 f7       	brne	.-6      	; 0x18f8 <setze_Posanzeige_Rot_Gruen+0x7a>
    18fe:	11 97       	sbiw	r26, 0x01	; 1
    1900:	87 e0       	ldi	r24, 0x07	; 7
    1902:	e9 e5       	ldi	r30, 0x59	; 89
    1904:	f5 e0       	ldi	r31, 0x05	; 5
    1906:	01 90       	ld	r0, Z+
    1908:	0d 92       	st	X+, r0
    190a:	8a 95       	dec	r24
    190c:	e1 f7       	brne	.-8      	; 0x1906 <setze_Posanzeige_Rot_Gruen+0x88>
			break;
    190e:	19 c0       	rjmp	.+50     	; 0x1942 <setze_Posanzeige_Rot_Gruen+0xc4>
			case 1:
			strcat((char *)buff, ".pco=2016");
    1910:	d7 01       	movw	r26, r14
    1912:	0d 90       	ld	r0, X+
    1914:	00 20       	and	r0, r0
    1916:	e9 f7       	brne	.-6      	; 0x1912 <setze_Posanzeige_Rot_Gruen+0x94>
    1918:	11 97       	sbiw	r26, 0x01	; 1
    191a:	8a e0       	ldi	r24, 0x0A	; 10
    191c:	e0 e6       	ldi	r30, 0x60	; 96
    191e:	f5 e0       	ldi	r31, 0x05	; 5
    1920:	01 90       	ld	r0, Z+
    1922:	0d 92       	st	X+, r0
    1924:	8a 95       	dec	r24
    1926:	e1 f7       	brne	.-8      	; 0x1920 <setze_Posanzeige_Rot_Gruen+0xa2>
			break;
    1928:	0c c0       	rjmp	.+24     	; 0x1942 <setze_Posanzeige_Rot_Gruen+0xc4>
			case 2:
			strcat((char *)buff, ".pco=63488");
    192a:	d7 01       	movw	r26, r14
    192c:	0d 90       	ld	r0, X+
    192e:	00 20       	and	r0, r0
    1930:	e9 f7       	brne	.-6      	; 0x192c <setze_Posanzeige_Rot_Gruen+0xae>
    1932:	11 97       	sbiw	r26, 0x01	; 1
    1934:	8b e0       	ldi	r24, 0x0B	; 11
    1936:	ea e6       	ldi	r30, 0x6A	; 106
    1938:	f5 e0       	ldi	r31, 0x05	; 5
    193a:	01 90       	ld	r0, Z+
    193c:	0d 92       	st	X+, r0
    193e:	8a 95       	dec	r24
    1940:	e1 f7       	brne	.-8      	; 0x193a <setze_Posanzeige_Rot_Gruen+0xbc>
			break;
		}
		Uart_Transmit_IT_Display((char *)buff);
    1942:	c7 01       	movw	r24, r14
    1944:	0e 94 87 2a 	call	0x550e	; 0x550e <Uart_Transmit_IT_Display>
		endConversation();
    1948:	0e 94 e0 1b 	call	0x37c0	; 0x37c0 <endConversation>
		aktuelleZutatInMaschine = aktuelleZutatInMaschine->prev;
    194c:	e0 91 e4 09 	lds	r30, 0x09E4	; 0x8009e4 <aktuelleZutatInMaschine>
    1950:	f0 91 e5 09 	lds	r31, 0x09E5	; 0x8009e5 <aktuelleZutatInMaschine+0x1>
    1954:	87 81       	ldd	r24, Z+7	; 0x07
    1956:	90 85       	ldd	r25, Z+8	; 0x08
    1958:	90 93 e5 09 	sts	0x09E5, r25	; 0x8009e5 <aktuelleZutatInMaschine+0x1>
    195c:	80 93 e4 09 	sts	0x09E4, r24	; 0x8009e4 <aktuelleZutatInMaschine>
void setze_Posanzeige_Rot_Gruen(void)
{
	aktuelleZutatInMaschine = tail_zut_in_Maschine;
	char buff[50];
	char buff2[10];
	for (int i = 0 ; i <12 ; i++)
    1960:	0f 5f       	subi	r16, 0xFF	; 255
    1962:	1f 4f       	sbci	r17, 0xFF	; 255
    1964:	0c 30       	cpi	r16, 0x0C	; 12
    1966:	11 05       	cpc	r17, r1
    1968:	09 f0       	breq	.+2      	; 0x196c <setze_Posanzeige_Rot_Gruen+0xee>
    196a:	ab cf       	rjmp	.-170    	; 0x18c2 <setze_Posanzeige_Rot_Gruen+0x44>
		}
		Uart_Transmit_IT_Display((char *)buff);
		endConversation();
		aktuelleZutatInMaschine = aktuelleZutatInMaschine->prev;
	}
    196c:	ec 96       	adiw	r28, 0x3c	; 60
    196e:	0f b6       	in	r0, 0x3f	; 63
    1970:	f8 94       	cli
    1972:	de bf       	out	0x3e, r29	; 62
    1974:	0f be       	out	0x3f, r0	; 63
    1976:	cd bf       	out	0x3d, r28	; 61
    1978:	df 91       	pop	r29
    197a:	cf 91       	pop	r28
    197c:	1f 91       	pop	r17
    197e:	0f 91       	pop	r16
    1980:	ff 90       	pop	r15
    1982:	ef 90       	pop	r14
    1984:	df 90       	pop	r13
    1986:	cf 90       	pop	r12
    1988:	08 95       	ret

0000198a <init_Getraenke_func>:
		break;
	}
}

void check_fehleranzeige(uint8_t button)
{
    198a:	81 e0       	ldi	r24, 0x01	; 1
    198c:	0e 94 f6 1b 	call	0x37ec	; 0x37ec <nextion_change_page>
    1990:	80 91 69 12 	lds	r24, 0x1269	; 0x801269 <aktuellesGetraenk>
    1994:	90 91 6a 12 	lds	r25, 0x126A	; 0x80126a <aktuellesGetraenk+0x1>
    1998:	0e 94 fe 03 	call	0x7fc	; 0x7fc <setze_startanzeige>
    199c:	10 92 56 11 	sts	0x1156, r1	; 0x801156 <test2>
    19a0:	08 95       	ret

000019a2 <check_startseite>:
    19a2:	90 e0       	ldi	r25, 0x00	; 0
    19a4:	fc 01       	movw	r30, r24
    19a6:	32 97       	sbiw	r30, 0x02	; 2
    19a8:	e8 30       	cpi	r30, 0x08	; 8
    19aa:	f1 05       	cpc	r31, r1
    19ac:	08 f0       	brcs	.+2      	; 0x19b0 <check_startseite+0xe>
    19ae:	d8 c0       	rjmp	.+432    	; 0x1b60 <check_startseite+0x1be>
    19b0:	88 27       	eor	r24, r24
    19b2:	ea 56       	subi	r30, 0x6A	; 106
    19b4:	ff 4f       	sbci	r31, 0xFF	; 255
    19b6:	8f 4f       	sbci	r24, 0xFF	; 255
    19b8:	0c 94 b3 2c 	jmp	0x5966	; 0x5966 <__tablejump2__>
    19bc:	82 e0       	ldi	r24, 0x02	; 2
    19be:	0e 94 f6 1b 	call	0x37ec	; 0x37ec <nextion_change_page>
    19c2:	e0 91 69 12 	lds	r30, 0x1269	; 0x801269 <aktuellesGetraenk>
    19c6:	f0 91 6a 12 	lds	r31, 0x126A	; 0x80126a <aktuellesGetraenk+0x1>
    19ca:	60 81       	ld	r22, Z
    19cc:	71 81       	ldd	r23, Z+1	; 0x01
    19ce:	83 e3       	ldi	r24, 0x33	; 51
    19d0:	93 e0       	ldi	r25, 0x03	; 3
    19d2:	0e 94 15 1c 	call	0x382a	; 0x382a <nextion_setText>
    19d6:	80 91 69 12 	lds	r24, 0x1269	; 0x801269 <aktuellesGetraenk>
    19da:	90 91 6a 12 	lds	r25, 0x126A	; 0x80126a <aktuellesGetraenk+0x1>
    19de:	73 ce       	rjmp	.-794    	; 0x16c6 <erstelle_Zutatenliste>
    19e0:	08 95       	ret
    19e2:	80 91 e3 09 	lds	r24, 0x09E3	; 0x8009e3 <Liste>
    19e6:	81 30       	cpi	r24, 0x01	; 1
    19e8:	31 f0       	breq	.+12     	; 0x19f6 <check_startseite+0x54>
    19ea:	18 f0       	brcs	.+6      	; 0x19f2 <check_startseite+0x50>
    19ec:	82 30       	cpi	r24, 0x02	; 2
    19ee:	a1 f0       	breq	.+40     	; 0x1a18 <check_startseite+0x76>
    19f0:	23 c0       	rjmp	.+70     	; 0x1a38 <check_startseite+0x96>
    19f2:	0c db       	rcall	.-2536   	; 0x100c <schiebe_file_next>
    19f4:	21 c0       	rjmp	.+66     	; 0x1a38 <check_startseite+0x96>
    19f6:	0a db       	rcall	.-2540   	; 0x100c <schiebe_file_next>
    19f8:	e0 91 69 12 	lds	r30, 0x1269	; 0x801269 <aktuellesGetraenk>
    19fc:	f0 91 6a 12 	lds	r31, 0x126A	; 0x80126a <aktuellesGetraenk+0x1>
    1a00:	83 81       	ldd	r24, Z+3	; 0x03
    1a02:	81 11       	cpse	r24, r1
    1a04:	19 c0       	rjmp	.+50     	; 0x1a38 <check_startseite+0x96>
    1a06:	02 db       	rcall	.-2556   	; 0x100c <schiebe_file_next>
    1a08:	e0 91 69 12 	lds	r30, 0x1269	; 0x801269 <aktuellesGetraenk>
    1a0c:	f0 91 6a 12 	lds	r31, 0x126A	; 0x80126a <aktuellesGetraenk+0x1>
    1a10:	83 81       	ldd	r24, Z+3	; 0x03
    1a12:	88 23       	and	r24, r24
    1a14:	c1 f3       	breq	.-16     	; 0x1a06 <check_startseite+0x64>
    1a16:	10 c0       	rjmp	.+32     	; 0x1a38 <check_startseite+0x96>
    1a18:	f9 da       	rcall	.-2574   	; 0x100c <schiebe_file_next>
    1a1a:	e0 91 69 12 	lds	r30, 0x1269	; 0x801269 <aktuellesGetraenk>
    1a1e:	f0 91 6a 12 	lds	r31, 0x126A	; 0x80126a <aktuellesGetraenk+0x1>
    1a22:	83 81       	ldd	r24, Z+3	; 0x03
    1a24:	81 30       	cpi	r24, 0x01	; 1
    1a26:	41 f4       	brne	.+16     	; 0x1a38 <check_startseite+0x96>
    1a28:	f1 da       	rcall	.-2590   	; 0x100c <schiebe_file_next>
    1a2a:	e0 91 69 12 	lds	r30, 0x1269	; 0x801269 <aktuellesGetraenk>
    1a2e:	f0 91 6a 12 	lds	r31, 0x126A	; 0x80126a <aktuellesGetraenk+0x1>
    1a32:	83 81       	ldd	r24, Z+3	; 0x03
    1a34:	81 30       	cpi	r24, 0x01	; 1
    1a36:	c1 f3       	breq	.-16     	; 0x1a28 <check_startseite+0x86>
    1a38:	80 91 69 12 	lds	r24, 0x1269	; 0x801269 <aktuellesGetraenk>
    1a3c:	90 91 6a 12 	lds	r25, 0x126A	; 0x80126a <aktuellesGetraenk+0x1>
    1a40:	0c 94 fe 03 	jmp	0x7fc	; 0x7fc <setze_startanzeige>
    1a44:	08 95       	ret
    1a46:	84 e0       	ldi	r24, 0x04	; 4
    1a48:	0e 94 f6 1b 	call	0x37ec	; 0x37ec <nextion_change_page>
    1a4c:	e0 91 0e 0a 	lds	r30, 0x0A0E	; 0x800a0e <aktuellesGetraenk_file>
    1a50:	f0 91 0f 0a 	lds	r31, 0x0A0F	; 0x800a0f <aktuellesGetraenk_file+0x1>
    1a54:	80 81       	ld	r24, Z
    1a56:	ee c8       	rjmp	.-3620   	; 0xc34 <lese_textfile_in_getraenk>
    1a58:	08 95       	ret
    1a5a:	80 91 e3 09 	lds	r24, 0x09E3	; 0x8009e3 <Liste>
    1a5e:	81 30       	cpi	r24, 0x01	; 1
    1a60:	31 f0       	breq	.+12     	; 0x1a6e <check_startseite+0xcc>
    1a62:	18 f0       	brcs	.+6      	; 0x1a6a <check_startseite+0xc8>
    1a64:	82 30       	cpi	r24, 0x02	; 2
    1a66:	a1 f0       	breq	.+40     	; 0x1a90 <check_startseite+0xee>
    1a68:	23 c0       	rjmp	.+70     	; 0x1ab0 <check_startseite+0x10e>
    1a6a:	de da       	rcall	.-2628   	; 0x1028 <schiebe_file_prev>
    1a6c:	21 c0       	rjmp	.+66     	; 0x1ab0 <check_startseite+0x10e>
    1a6e:	dc da       	rcall	.-2632   	; 0x1028 <schiebe_file_prev>
    1a70:	e0 91 69 12 	lds	r30, 0x1269	; 0x801269 <aktuellesGetraenk>
    1a74:	f0 91 6a 12 	lds	r31, 0x126A	; 0x80126a <aktuellesGetraenk+0x1>
    1a78:	83 81       	ldd	r24, Z+3	; 0x03
    1a7a:	81 11       	cpse	r24, r1
    1a7c:	19 c0       	rjmp	.+50     	; 0x1ab0 <check_startseite+0x10e>
    1a7e:	d4 da       	rcall	.-2648   	; 0x1028 <schiebe_file_prev>
    1a80:	e0 91 69 12 	lds	r30, 0x1269	; 0x801269 <aktuellesGetraenk>
    1a84:	f0 91 6a 12 	lds	r31, 0x126A	; 0x80126a <aktuellesGetraenk+0x1>
    1a88:	83 81       	ldd	r24, Z+3	; 0x03
    1a8a:	88 23       	and	r24, r24
    1a8c:	c1 f3       	breq	.-16     	; 0x1a7e <check_startseite+0xdc>
    1a8e:	10 c0       	rjmp	.+32     	; 0x1ab0 <check_startseite+0x10e>
    1a90:	cb da       	rcall	.-2666   	; 0x1028 <schiebe_file_prev>
    1a92:	e0 91 69 12 	lds	r30, 0x1269	; 0x801269 <aktuellesGetraenk>
    1a96:	f0 91 6a 12 	lds	r31, 0x126A	; 0x80126a <aktuellesGetraenk+0x1>
    1a9a:	83 81       	ldd	r24, Z+3	; 0x03
    1a9c:	81 30       	cpi	r24, 0x01	; 1
    1a9e:	41 f4       	brne	.+16     	; 0x1ab0 <check_startseite+0x10e>
    1aa0:	c3 da       	rcall	.-2682   	; 0x1028 <schiebe_file_prev>
    1aa2:	e0 91 69 12 	lds	r30, 0x1269	; 0x801269 <aktuellesGetraenk>
    1aa6:	f0 91 6a 12 	lds	r31, 0x126A	; 0x80126a <aktuellesGetraenk+0x1>
    1aaa:	83 81       	ldd	r24, Z+3	; 0x03
    1aac:	81 30       	cpi	r24, 0x01	; 1
    1aae:	c1 f3       	breq	.-16     	; 0x1aa0 <check_startseite+0xfe>
    1ab0:	80 91 69 12 	lds	r24, 0x1269	; 0x801269 <aktuellesGetraenk>
    1ab4:	90 91 6a 12 	lds	r25, 0x126A	; 0x80126a <aktuellesGetraenk+0x1>
    1ab8:	0c 94 fe 03 	jmp	0x7fc	; 0x7fc <setze_startanzeige>
    1abc:	08 95       	ret
    1abe:	83 e0       	ldi	r24, 0x03	; 3
    1ac0:	0e 94 f6 1b 	call	0x37ec	; 0x37ec <nextion_change_page>
    1ac4:	10 92 61 12 	sts	0x1261, r1	; 0x801261 <i_Liste>
    1ac8:	89 ed       	ldi	r24, 0xD9	; 217
    1aca:	93 e0       	ldi	r25, 0x03	; 3
    1acc:	b5 c9       	rjmp	.-3222   	; 0xe38 <erstelle_Liste_name>
    1ace:	08 95       	ret
    1ad0:	87 e0       	ldi	r24, 0x07	; 7
    1ad2:	0c 94 f6 1b 	jmp	0x37ec	; 0x37ec <nextion_change_page>
    1ad6:	08 95       	ret
    1ad8:	e0 91 dc 08 	lds	r30, 0x08DC	; 0x8008dc <tail_getraenk_file>
    1adc:	f0 91 dd 08 	lds	r31, 0x08DD	; 0x8008dd <tail_getraenk_file+0x1>
    1ae0:	f0 93 0f 0a 	sts	0x0A0F, r31	; 0x800a0f <aktuellesGetraenk_file+0x1>
    1ae4:	e0 93 0e 0a 	sts	0x0A0E, r30	; 0x800a0e <aktuellesGetraenk_file>
    1ae8:	80 81       	ld	r24, Z
    1aea:	a4 d8       	rcall	.-3768   	; 0xc34 <lese_textfile_in_getraenk>
    1aec:	80 91 e3 09 	lds	r24, 0x09E3	; 0x8009e3 <Liste>
    1af0:	81 30       	cpi	r24, 0x01	; 1
    1af2:	b9 f0       	breq	.+46     	; 0x1b22 <check_startseite+0x180>
    1af4:	18 f0       	brcs	.+6      	; 0x1afc <check_startseite+0x15a>
    1af6:	82 30       	cpi	r24, 0x02	; 2
    1af8:	39 f1       	breq	.+78     	; 0x1b48 <check_startseite+0x1a6>
    1afa:	28 c0       	rjmp	.+80     	; 0x1b4c <check_startseite+0x1aa>
    1afc:	81 e0       	ldi	r24, 0x01	; 1
    1afe:	80 93 e3 09 	sts	0x09E3, r24	; 0x8009e3 <Liste>
    1b02:	e0 91 69 12 	lds	r30, 0x1269	; 0x801269 <aktuellesGetraenk>
    1b06:	f0 91 6a 12 	lds	r31, 0x126A	; 0x80126a <aktuellesGetraenk+0x1>
    1b0a:	83 81       	ldd	r24, Z+3	; 0x03
    1b0c:	81 11       	cpse	r24, r1
    1b0e:	1e c0       	rjmp	.+60     	; 0x1b4c <check_startseite+0x1aa>
    1b10:	8b da       	rcall	.-2794   	; 0x1028 <schiebe_file_prev>
    1b12:	e0 91 69 12 	lds	r30, 0x1269	; 0x801269 <aktuellesGetraenk>
    1b16:	f0 91 6a 12 	lds	r31, 0x126A	; 0x80126a <aktuellesGetraenk+0x1>
    1b1a:	83 81       	ldd	r24, Z+3	; 0x03
    1b1c:	88 23       	and	r24, r24
    1b1e:	c1 f3       	breq	.-16     	; 0x1b10 <check_startseite+0x16e>
    1b20:	15 c0       	rjmp	.+42     	; 0x1b4c <check_startseite+0x1aa>
    1b22:	82 e0       	ldi	r24, 0x02	; 2
    1b24:	80 93 e3 09 	sts	0x09E3, r24	; 0x8009e3 <Liste>
    1b28:	e0 91 69 12 	lds	r30, 0x1269	; 0x801269 <aktuellesGetraenk>
    1b2c:	f0 91 6a 12 	lds	r31, 0x126A	; 0x80126a <aktuellesGetraenk+0x1>
    1b30:	83 81       	ldd	r24, Z+3	; 0x03
    1b32:	81 30       	cpi	r24, 0x01	; 1
    1b34:	59 f4       	brne	.+22     	; 0x1b4c <check_startseite+0x1aa>
    1b36:	78 da       	rcall	.-2832   	; 0x1028 <schiebe_file_prev>
    1b38:	e0 91 69 12 	lds	r30, 0x1269	; 0x801269 <aktuellesGetraenk>
    1b3c:	f0 91 6a 12 	lds	r31, 0x126A	; 0x80126a <aktuellesGetraenk+0x1>
    1b40:	83 81       	ldd	r24, Z+3	; 0x03
    1b42:	81 30       	cpi	r24, 0x01	; 1
    1b44:	c1 f3       	breq	.-16     	; 0x1b36 <check_startseite+0x194>
    1b46:	02 c0       	rjmp	.+4      	; 0x1b4c <check_startseite+0x1aa>
    1b48:	10 92 e3 09 	sts	0x09E3, r1	; 0x8009e3 <Liste>
    1b4c:	80 91 69 12 	lds	r24, 0x1269	; 0x801269 <aktuellesGetraenk>
    1b50:	90 91 6a 12 	lds	r25, 0x126A	; 0x80126a <aktuellesGetraenk+0x1>
    1b54:	0c 94 fe 03 	jmp	0x7fc	; 0x7fc <setze_startanzeige>
    1b58:	08 95       	ret
    1b5a:	82 e1       	ldi	r24, 0x12	; 18
    1b5c:	0c 94 f6 1b 	jmp	0x37ec	; 0x37ec <nextion_change_page>
    1b60:	08 95       	ret

00001b62 <check_zutatenanzeige>:
    1b62:	81 30       	cpi	r24, 0x01	; 1
    1b64:	19 f0       	breq	.+6      	; 0x1b6c <check_zutatenanzeige+0xa>
    1b66:	82 30       	cpi	r24, 0x02	; 2
    1b68:	41 f0       	breq	.+16     	; 0x1b7a <check_zutatenanzeige+0x18>
    1b6a:	08 95       	ret
    1b6c:	80 91 69 12 	lds	r24, 0x1269	; 0x801269 <aktuellesGetraenk>
    1b70:	90 91 6a 12 	lds	r25, 0x126A	; 0x80126a <aktuellesGetraenk+0x1>
    1b74:	0c 94 fe 03 	jmp	0x7fc	; 0x7fc <setze_startanzeige>
    1b78:	08 95       	ret
    1b7a:	80 91 69 12 	lds	r24, 0x1269	; 0x801269 <aktuellesGetraenk>
    1b7e:	90 91 6a 12 	lds	r25, 0x126A	; 0x80126a <aktuellesGetraenk+0x1>
    1b82:	0c 94 fe 03 	jmp	0x7fc	; 0x7fc <setze_startanzeige>
    1b86:	08 95       	ret

00001b88 <check_listenanzeige>:
    1b88:	90 e0       	ldi	r25, 0x00	; 0
    1b8a:	fc 01       	movw	r30, r24
    1b8c:	31 97       	sbiw	r30, 0x01	; 1
    1b8e:	ea 30       	cpi	r30, 0x0A	; 10
    1b90:	f1 05       	cpc	r31, r1
    1b92:	08 f0       	brcs	.+2      	; 0x1b96 <check_listenanzeige+0xe>
    1b94:	6b c0       	rjmp	.+214    	; 0x1c6c <check_listenanzeige+0xe4>
    1b96:	88 27       	eor	r24, r24
    1b98:	e2 56       	subi	r30, 0x62	; 98
    1b9a:	ff 4f       	sbci	r31, 0xFF	; 255
    1b9c:	8f 4f       	sbci	r24, 0xFF	; 255
    1b9e:	0c 94 b3 2c 	jmp	0x5966	; 0x5966 <__tablejump2__>
    1ba2:	80 e0       	ldi	r24, 0x00	; 0
    1ba4:	0c d9       	rcall	.-3560   	; 0xdbe <choose_aktuellesGetraenk>
    1ba6:	80 91 69 12 	lds	r24, 0x1269	; 0x801269 <aktuellesGetraenk>
    1baa:	90 91 6a 12 	lds	r25, 0x126A	; 0x80126a <aktuellesGetraenk+0x1>
    1bae:	0c 94 fe 03 	jmp	0x7fc	; 0x7fc <setze_startanzeige>
    1bb2:	08 95       	ret
    1bb4:	81 e0       	ldi	r24, 0x01	; 1
    1bb6:	03 d9       	rcall	.-3578   	; 0xdbe <choose_aktuellesGetraenk>
    1bb8:	80 91 69 12 	lds	r24, 0x1269	; 0x801269 <aktuellesGetraenk>
    1bbc:	90 91 6a 12 	lds	r25, 0x126A	; 0x80126a <aktuellesGetraenk+0x1>
    1bc0:	0c 94 fe 03 	jmp	0x7fc	; 0x7fc <setze_startanzeige>
    1bc4:	08 95       	ret
    1bc6:	82 e0       	ldi	r24, 0x02	; 2
    1bc8:	fa d8       	rcall	.-3596   	; 0xdbe <choose_aktuellesGetraenk>
    1bca:	80 91 69 12 	lds	r24, 0x1269	; 0x801269 <aktuellesGetraenk>
    1bce:	90 91 6a 12 	lds	r25, 0x126A	; 0x80126a <aktuellesGetraenk+0x1>
    1bd2:	0c 94 fe 03 	jmp	0x7fc	; 0x7fc <setze_startanzeige>
    1bd6:	08 95       	ret
    1bd8:	83 e0       	ldi	r24, 0x03	; 3
    1bda:	f1 d8       	rcall	.-3614   	; 0xdbe <choose_aktuellesGetraenk>
    1bdc:	80 91 69 12 	lds	r24, 0x1269	; 0x801269 <aktuellesGetraenk>
    1be0:	90 91 6a 12 	lds	r25, 0x126A	; 0x80126a <aktuellesGetraenk+0x1>
    1be4:	0c 94 fe 03 	jmp	0x7fc	; 0x7fc <setze_startanzeige>
    1be8:	08 95       	ret
    1bea:	84 e0       	ldi	r24, 0x04	; 4
    1bec:	e8 d8       	rcall	.-3632   	; 0xdbe <choose_aktuellesGetraenk>
    1bee:	80 91 69 12 	lds	r24, 0x1269	; 0x801269 <aktuellesGetraenk>
    1bf2:	90 91 6a 12 	lds	r25, 0x126A	; 0x80126a <aktuellesGetraenk+0x1>
    1bf6:	0c 94 fe 03 	jmp	0x7fc	; 0x7fc <setze_startanzeige>
    1bfa:	08 95       	ret
    1bfc:	85 e0       	ldi	r24, 0x05	; 5
    1bfe:	df d8       	rcall	.-3650   	; 0xdbe <choose_aktuellesGetraenk>
    1c00:	80 91 69 12 	lds	r24, 0x1269	; 0x801269 <aktuellesGetraenk>
    1c04:	90 91 6a 12 	lds	r25, 0x126A	; 0x80126a <aktuellesGetraenk+0x1>
    1c08:	0c 94 fe 03 	jmp	0x7fc	; 0x7fc <setze_startanzeige>
    1c0c:	08 95       	ret
    1c0e:	86 e0       	ldi	r24, 0x06	; 6
    1c10:	d6 d8       	rcall	.-3668   	; 0xdbe <choose_aktuellesGetraenk>
    1c12:	80 91 69 12 	lds	r24, 0x1269	; 0x801269 <aktuellesGetraenk>
    1c16:	90 91 6a 12 	lds	r25, 0x126A	; 0x80126a <aktuellesGetraenk+0x1>
    1c1a:	0c 94 fe 03 	jmp	0x7fc	; 0x7fc <setze_startanzeige>
    1c1e:	08 95       	ret
    1c20:	87 e0       	ldi	r24, 0x07	; 7
    1c22:	cd d8       	rcall	.-3686   	; 0xdbe <choose_aktuellesGetraenk>
    1c24:	80 91 69 12 	lds	r24, 0x1269	; 0x801269 <aktuellesGetraenk>
    1c28:	90 91 6a 12 	lds	r25, 0x126A	; 0x80126a <aktuellesGetraenk+0x1>
    1c2c:	0c 94 fe 03 	jmp	0x7fc	; 0x7fc <setze_startanzeige>
    1c30:	08 95       	ret
    1c32:	10 92 19 0a 	sts	0x0A19, r1	; 0x800a19 <block_list_runter>
    1c36:	80 91 26 0e 	lds	r24, 0x0E26	; 0x800e26 <block_list_hoch>
    1c3a:	81 11       	cpse	r24, r1
    1c3c:	17 c0       	rjmp	.+46     	; 0x1c6c <check_listenanzeige+0xe4>
    1c3e:	80 91 61 12 	lds	r24, 0x1261	; 0x801261 <i_Liste>
    1c42:	88 50       	subi	r24, 0x08	; 8
    1c44:	80 93 61 12 	sts	0x1261, r24	; 0x801261 <i_Liste>
    1c48:	89 ed       	ldi	r24, 0xD9	; 217
    1c4a:	93 e0       	ldi	r25, 0x03	; 3
    1c4c:	f5 c8       	rjmp	.-3606   	; 0xe38 <erstelle_Liste_name>
    1c4e:	08 95       	ret
    1c50:	10 92 26 0e 	sts	0x0E26, r1	; 0x800e26 <block_list_hoch>
    1c54:	80 91 19 0a 	lds	r24, 0x0A19	; 0x800a19 <block_list_runter>
    1c58:	81 11       	cpse	r24, r1
    1c5a:	08 c0       	rjmp	.+16     	; 0x1c6c <check_listenanzeige+0xe4>
    1c5c:	80 91 61 12 	lds	r24, 0x1261	; 0x801261 <i_Liste>
    1c60:	88 5f       	subi	r24, 0xF8	; 248
    1c62:	80 93 61 12 	sts	0x1261, r24	; 0x801261 <i_Liste>
    1c66:	89 ed       	ldi	r24, 0xD9	; 217
    1c68:	93 e0       	ldi	r25, 0x03	; 3
    1c6a:	e6 c8       	rjmp	.-3636   	; 0xe38 <erstelle_Liste_name>
    1c6c:	08 95       	ret

00001c6e <check_zubabfrage>:
    1c6e:	82 30       	cpi	r24, 0x02	; 2
    1c70:	79 f1       	breq	.+94     	; 0x1cd0 <check_zubabfrage+0x62>
    1c72:	83 30       	cpi	r24, 0x03	; 3
    1c74:	09 f4       	brne	.+2      	; 0x1c78 <check_zubabfrage+0xa>
    1c76:	55 c0       	rjmp	.+170    	; 0x1d22 <check_zubabfrage+0xb4>
    1c78:	81 30       	cpi	r24, 0x01	; 1
    1c7a:	09 f0       	breq	.+2      	; 0x1c7e <check_zubabfrage+0x10>
    1c7c:	58 c0       	rjmp	.+176    	; 0x1d2e <check_zubabfrage+0xc0>
    1c7e:	80 e0       	ldi	r24, 0x00	; 0
    1c80:	90 e0       	ldi	r25, 0x00	; 0
    1c82:	e0 91 69 12 	lds	r30, 0x1269	; 0x801269 <aktuellesGetraenk>
    1c86:	f0 91 6a 12 	lds	r31, 0x126A	; 0x80126a <aktuellesGetraenk+0x1>
    1c8a:	04 80       	ldd	r0, Z+4	; 0x04
    1c8c:	f5 81       	ldd	r31, Z+5	; 0x05
    1c8e:	e0 2d       	mov	r30, r0
    1c90:	e8 0f       	add	r30, r24
    1c92:	f9 1f       	adc	r31, r25
    1c94:	10 82       	st	Z, r1
    1c96:	01 96       	adiw	r24, 0x01	; 1
    1c98:	8c 30       	cpi	r24, 0x0C	; 12
    1c9a:	91 05       	cpc	r25, r1
    1c9c:	91 f7       	brne	.-28     	; 0x1c82 <check_zubabfrage+0x14>
    1c9e:	e0 91 69 12 	lds	r30, 0x1269	; 0x801269 <aktuellesGetraenk>
    1ca2:	f0 91 6a 12 	lds	r31, 0x126A	; 0x80126a <aktuellesGetraenk+0x1>
    1ca6:	80 91 56 11 	lds	r24, 0x1156	; 0x801156 <test2>
    1caa:	04 80       	ldd	r0, Z+4	; 0x04
    1cac:	f5 81       	ldd	r31, Z+5	; 0x05
    1cae:	e0 2d       	mov	r30, r0
    1cb0:	e8 0f       	add	r30, r24
    1cb2:	f1 1d       	adc	r31, r1
    1cb4:	84 e6       	ldi	r24, 0x64	; 100
    1cb6:	80 83       	st	Z, r24
    1cb8:	63 e0       	ldi	r22, 0x03	; 3
    1cba:	70 e0       	ldi	r23, 0x00	; 0
    1cbc:	80 e0       	ldi	r24, 0x00	; 0
    1cbe:	90 e0       	ldi	r25, 0x00	; 0
    1cc0:	0e 94 c0 05 	call	0xb80	; 0xb80 <zubereitung_getraenk>
    1cc4:	80 91 56 11 	lds	r24, 0x1156	; 0x801156 <test2>
    1cc8:	8f 5f       	subi	r24, 0xFF	; 255
    1cca:	80 93 56 11 	sts	0x1156, r24	; 0x801156 <test2>
    1cce:	08 95       	ret
    1cd0:	80 e0       	ldi	r24, 0x00	; 0
    1cd2:	90 e0       	ldi	r25, 0x00	; 0
    1cd4:	e0 91 69 12 	lds	r30, 0x1269	; 0x801269 <aktuellesGetraenk>
    1cd8:	f0 91 6a 12 	lds	r31, 0x126A	; 0x80126a <aktuellesGetraenk+0x1>
    1cdc:	04 80       	ldd	r0, Z+4	; 0x04
    1cde:	f5 81       	ldd	r31, Z+5	; 0x05
    1ce0:	e0 2d       	mov	r30, r0
    1ce2:	e8 0f       	add	r30, r24
    1ce4:	f9 1f       	adc	r31, r25
    1ce6:	10 82       	st	Z, r1
    1ce8:	01 96       	adiw	r24, 0x01	; 1
    1cea:	8c 30       	cpi	r24, 0x0C	; 12
    1cec:	91 05       	cpc	r25, r1
    1cee:	91 f7       	brne	.-28     	; 0x1cd4 <check_zubabfrage+0x66>
    1cf0:	e0 91 69 12 	lds	r30, 0x1269	; 0x801269 <aktuellesGetraenk>
    1cf4:	f0 91 6a 12 	lds	r31, 0x126A	; 0x80126a <aktuellesGetraenk+0x1>
    1cf8:	80 91 56 11 	lds	r24, 0x1156	; 0x801156 <test2>
    1cfc:	04 80       	ldd	r0, Z+4	; 0x04
    1cfe:	f5 81       	ldd	r31, Z+5	; 0x05
    1d00:	e0 2d       	mov	r30, r0
    1d02:	e8 0f       	add	r30, r24
    1d04:	f1 1d       	adc	r31, r1
    1d06:	84 e6       	ldi	r24, 0x64	; 100
    1d08:	80 83       	st	Z, r24
    1d0a:	65 e0       	ldi	r22, 0x05	; 5
    1d0c:	70 e0       	ldi	r23, 0x00	; 0
    1d0e:	80 e0       	ldi	r24, 0x00	; 0
    1d10:	90 e0       	ldi	r25, 0x00	; 0
    1d12:	0e 94 c0 05 	call	0xb80	; 0xb80 <zubereitung_getraenk>
    1d16:	80 91 56 11 	lds	r24, 0x1156	; 0x801156 <test2>
    1d1a:	8f 5f       	subi	r24, 0xFF	; 255
    1d1c:	80 93 56 11 	sts	0x1156, r24	; 0x801156 <test2>
    1d20:	08 95       	ret
    1d22:	80 91 69 12 	lds	r24, 0x1269	; 0x801269 <aktuellesGetraenk>
    1d26:	90 91 6a 12 	lds	r25, 0x126A	; 0x80126a <aktuellesGetraenk+0x1>
    1d2a:	0c 94 fe 03 	jmp	0x7fc	; 0x7fc <setze_startanzeige>
    1d2e:	08 95       	ret

00001d30 <check_zubbildschirm>:
    1d30:	81 30       	cpi	r24, 0x01	; 1
    1d32:	11 f4       	brne	.+4      	; 0x1d38 <check_zubbildschirm+0x8>
    1d34:	80 93 63 12 	sts	0x1263, r24	; 0x801263 <stop>
    1d38:	08 95       	ret

00001d3a <check_menuanzeige>:
    1d3a:	90 e0       	ldi	r25, 0x00	; 0
    1d3c:	fc 01       	movw	r30, r24
    1d3e:	31 97       	sbiw	r30, 0x01	; 1
    1d40:	e7 30       	cpi	r30, 0x07	; 7
    1d42:	f1 05       	cpc	r31, r1
    1d44:	08 f0       	brcs	.+2      	; 0x1d48 <check_menuanzeige+0xe>
    1d46:	47 c0       	rjmp	.+142    	; 0x1dd6 <check_menuanzeige+0x9c>
    1d48:	88 27       	eor	r24, r24
    1d4a:	e8 55       	subi	r30, 0x58	; 88
    1d4c:	ff 4f       	sbci	r31, 0xFF	; 255
    1d4e:	8f 4f       	sbci	r24, 0xFF	; 255
    1d50:	0c 94 b3 2c 	jmp	0x5966	; 0x5966 <__tablejump2__>
    1d54:	88 e0       	ldi	r24, 0x08	; 8
    1d56:	0e 94 f6 1b 	call	0x37ec	; 0x37ec <nextion_change_page>
    1d5a:	10 92 61 12 	sts	0x1261, r1	; 0x801261 <i_Liste>
    1d5e:	89 ed       	ldi	r24, 0xD9	; 217
    1d60:	93 e0       	ldi	r25, 0x03	; 3
    1d62:	6a c8       	rjmp	.-3884   	; 0xe38 <erstelle_Liste_name>
    1d64:	08 95       	ret
    1d66:	80 e1       	ldi	r24, 0x10	; 16
    1d68:	0e 94 f6 1b 	call	0x37ec	; 0x37ec <nextion_change_page>
    1d6c:	81 e0       	ldi	r24, 0x01	; 1
    1d6e:	80 93 12 0a 	sts	0x0A12, r24	; 0x800a12 <Grossschreib>
    1d72:	10 92 2d 0f 	sts	0x0F2D, r1	; 0x800f2d <counter>
    1d76:	e5 e3       	ldi	r30, 0x35	; 53
    1d78:	ff e0       	ldi	r31, 0x0F	; 15
    1d7a:	01 90       	ld	r0, Z+
    1d7c:	00 20       	and	r0, r0
    1d7e:	e9 f7       	brne	.-6      	; 0x1d7a <check_menuanzeige+0x40>
    1d80:	31 97       	sbiw	r30, 0x01	; 1
    1d82:	cf 01       	movw	r24, r30
    1d84:	85 53       	subi	r24, 0x35	; 53
    1d86:	9f 40       	sbci	r25, 0x0F	; 15
    1d88:	99 27       	eor	r25, r25
    1d8a:	18 16       	cp	r1, r24
    1d8c:	19 06       	cpc	r1, r25
    1d8e:	1c f5       	brge	.+70     	; 0x1dd6 <check_menuanzeige+0x9c>
    1d90:	e5 e3       	ldi	r30, 0x35	; 53
    1d92:	ff e0       	ldi	r31, 0x0F	; 15
    1d94:	8b 5c       	subi	r24, 0xCB	; 203
    1d96:	90 4f       	sbci	r25, 0xF0	; 240
    1d98:	11 92       	st	Z+, r1
    1d9a:	e8 17       	cp	r30, r24
    1d9c:	f9 07       	cpc	r31, r25
    1d9e:	e1 f7       	brne	.-8      	; 0x1d98 <check_menuanzeige+0x5e>
    1da0:	08 95       	ret
    1da2:	8a e0       	ldi	r24, 0x0A	; 10
    1da4:	0c 94 f6 1b 	jmp	0x37ec	; 0x37ec <nextion_change_page>
    1da8:	08 95       	ret
    1daa:	8d e0       	ldi	r24, 0x0D	; 13
    1dac:	0c 94 f6 1b 	jmp	0x37ec	; 0x37ec <nextion_change_page>
    1db0:	08 95       	ret
    1db2:	80 91 69 12 	lds	r24, 0x1269	; 0x801269 <aktuellesGetraenk>
    1db6:	90 91 6a 12 	lds	r25, 0x126A	; 0x80126a <aktuellesGetraenk+0x1>
    1dba:	0c 94 fe 03 	jmp	0x7fc	; 0x7fc <setze_startanzeige>
    1dbe:	08 95       	ret
    1dc0:	83 e1       	ldi	r24, 0x13	; 19
    1dc2:	0e 94 f6 1b 	call	0x37ec	; 0x37ec <nextion_change_page>
    1dc6:	5b cd       	rjmp	.-1354   	; 0x187e <setze_Posanzeige_Rot_Gruen>
    1dc8:	08 95       	ret
    1dca:	86 e1       	ldi	r24, 0x16	; 22
    1dcc:	0e 94 f6 1b 	call	0x37ec	; 0x37ec <nextion_change_page>
    1dd0:	89 ed       	ldi	r24, 0xD9	; 217
    1dd2:	93 e0       	ldi	r25, 0x03	; 3
    1dd4:	31 c8       	rjmp	.-3998   	; 0xe38 <erstelle_Liste_name>
    1dd6:	08 95       	ret

00001dd8 <check_bearbeitungsanzeige>:
    1dd8:	90 e0       	ldi	r25, 0x00	; 0
    1dda:	fc 01       	movw	r30, r24
    1ddc:	31 97       	sbiw	r30, 0x01	; 1
    1dde:	ea 30       	cpi	r30, 0x0A	; 10
    1de0:	f1 05       	cpc	r31, r1
    1de2:	08 f0       	brcs	.+2      	; 0x1de6 <check_bearbeitungsanzeige+0xe>
    1de4:	3f c0       	rjmp	.+126    	; 0x1e64 <check_bearbeitungsanzeige+0x8c>
    1de6:	88 27       	eor	r24, r24
    1de8:	e1 55       	subi	r30, 0x51	; 81
    1dea:	ff 4f       	sbci	r31, 0xFF	; 255
    1dec:	8f 4f       	sbci	r24, 0xFF	; 255
    1dee:	0c 94 b3 2c 	jmp	0x5966	; 0x5966 <__tablejump2__>
    1df2:	80 e0       	ldi	r24, 0x00	; 0
    1df4:	0f c8       	rjmp	.-4066   	; 0xe14 <bearbeite_Cocktail>
    1df6:	08 95       	ret
    1df8:	81 e0       	ldi	r24, 0x01	; 1
    1dfa:	0c c8       	rjmp	.-4072   	; 0xe14 <bearbeite_Cocktail>
    1dfc:	08 95       	ret
    1dfe:	82 e0       	ldi	r24, 0x02	; 2
    1e00:	09 c8       	rjmp	.-4078   	; 0xe14 <bearbeite_Cocktail>
    1e02:	08 95       	ret
    1e04:	83 e0       	ldi	r24, 0x03	; 3
    1e06:	06 c8       	rjmp	.-4084   	; 0xe14 <bearbeite_Cocktail>
    1e08:	08 95       	ret
    1e0a:	84 e0       	ldi	r24, 0x04	; 4
    1e0c:	03 c8       	rjmp	.-4090   	; 0xe14 <bearbeite_Cocktail>
    1e0e:	08 95       	ret
    1e10:	85 e0       	ldi	r24, 0x05	; 5
    1e12:	00 c8       	rjmp	.-4096   	; 0xe14 <bearbeite_Cocktail>
    1e14:	08 95       	ret
    1e16:	86 e0       	ldi	r24, 0x06	; 6
    1e18:	0c 94 0a 07 	jmp	0xe14	; 0xe14 <bearbeite_Cocktail>
    1e1c:	08 95       	ret
    1e1e:	87 e0       	ldi	r24, 0x07	; 7
    1e20:	0c 94 0a 07 	jmp	0xe14	; 0xe14 <bearbeite_Cocktail>
    1e24:	08 95       	ret
    1e26:	10 92 19 0a 	sts	0x0A19, r1	; 0x800a19 <block_list_runter>
    1e2a:	80 91 26 0e 	lds	r24, 0x0E26	; 0x800e26 <block_list_hoch>
    1e2e:	81 11       	cpse	r24, r1
    1e30:	19 c0       	rjmp	.+50     	; 0x1e64 <check_bearbeitungsanzeige+0x8c>
    1e32:	80 91 61 12 	lds	r24, 0x1261	; 0x801261 <i_Liste>
    1e36:	88 50       	subi	r24, 0x08	; 8
    1e38:	80 93 61 12 	sts	0x1261, r24	; 0x801261 <i_Liste>
    1e3c:	89 ed       	ldi	r24, 0xD9	; 217
    1e3e:	93 e0       	ldi	r25, 0x03	; 3
    1e40:	0c 94 1c 07 	jmp	0xe38	; 0xe38 <erstelle_Liste_name>
    1e44:	08 95       	ret
    1e46:	10 92 26 0e 	sts	0x0E26, r1	; 0x800e26 <block_list_hoch>
    1e4a:	80 91 19 0a 	lds	r24, 0x0A19	; 0x800a19 <block_list_runter>
    1e4e:	81 11       	cpse	r24, r1
    1e50:	09 c0       	rjmp	.+18     	; 0x1e64 <check_bearbeitungsanzeige+0x8c>
    1e52:	80 91 61 12 	lds	r24, 0x1261	; 0x801261 <i_Liste>
    1e56:	88 5f       	subi	r24, 0xF8	; 248
    1e58:	80 93 61 12 	sts	0x1261, r24	; 0x801261 <i_Liste>
    1e5c:	89 ed       	ldi	r24, 0xD9	; 217
    1e5e:	93 e0       	ldi	r25, 0x03	; 3
    1e60:	0c 94 1c 07 	jmp	0xe38	; 0xe38 <erstelle_Liste_name>
    1e64:	08 95       	ret

00001e66 <check_ceinstanzeige>:
    1e66:	90 e0       	ldi	r25, 0x00	; 0
    1e68:	fc 01       	movw	r30, r24
    1e6a:	31 97       	sbiw	r30, 0x01	; 1
    1e6c:	e8 30       	cpi	r30, 0x08	; 8
    1e6e:	f1 05       	cpc	r31, r1
    1e70:	08 f0       	brcs	.+2      	; 0x1e74 <check_ceinstanzeige+0xe>
    1e72:	60 c0       	rjmp	.+192    	; 0x1f34 <check_ceinstanzeige+0xce>
    1e74:	88 27       	eor	r24, r24
    1e76:	e7 54       	subi	r30, 0x47	; 71
    1e78:	ff 4f       	sbci	r31, 0xFF	; 255
    1e7a:	8f 4f       	sbci	r24, 0xFF	; 255
    1e7c:	0c 94 b3 2c 	jmp	0x5966	; 0x5966 <__tablejump2__>
    1e80:	10 92 19 0a 	sts	0x0A19, r1	; 0x800a19 <block_list_runter>
    1e84:	80 91 26 0e 	lds	r24, 0x0E26	; 0x800e26 <block_list_hoch>
    1e88:	81 11       	cpse	r24, r1
    1e8a:	54 c0       	rjmp	.+168    	; 0x1f34 <check_ceinstanzeige+0xce>
    1e8c:	80 91 61 12 	lds	r24, 0x1261	; 0x801261 <i_Liste>
    1e90:	84 50       	subi	r24, 0x04	; 4
    1e92:	80 93 61 12 	sts	0x1261, r24	; 0x801261 <i_Liste>
    1e96:	8e ec       	ldi	r24, 0xCE	; 206
    1e98:	93 e0       	ldi	r25, 0x03	; 3
    1e9a:	0c 94 d0 02 	jmp	0x5a0	; 0x5a0 <erstelle_Liste_zutat>
    1e9e:	08 95       	ret
    1ea0:	10 92 26 0e 	sts	0x0E26, r1	; 0x800e26 <block_list_hoch>
    1ea4:	80 91 19 0a 	lds	r24, 0x0A19	; 0x800a19 <block_list_runter>
    1ea8:	81 11       	cpse	r24, r1
    1eaa:	44 c0       	rjmp	.+136    	; 0x1f34 <check_ceinstanzeige+0xce>
    1eac:	80 91 61 12 	lds	r24, 0x1261	; 0x801261 <i_Liste>
    1eb0:	8c 5f       	subi	r24, 0xFC	; 252
    1eb2:	80 93 61 12 	sts	0x1261, r24	; 0x801261 <i_Liste>
    1eb6:	8e ec       	ldi	r24, 0xCE	; 206
    1eb8:	93 e0       	ldi	r25, 0x03	; 3
    1eba:	0c 94 d0 02 	jmp	0x5a0	; 0x5a0 <erstelle_Liste_zutat>
    1ebe:	08 95       	ret
    1ec0:	10 92 26 0e 	sts	0x0E26, r1	; 0x800e26 <block_list_hoch>
    1ec4:	10 92 19 0a 	sts	0x0A19, r1	; 0x800a19 <block_list_runter>
    1ec8:	81 e0       	ldi	r24, 0x01	; 1
    1eca:	0c 94 f6 1b 	jmp	0x37ec	; 0x37ec <nextion_change_page>
    1ece:	08 95       	ret
    1ed0:	10 92 26 0e 	sts	0x0E26, r1	; 0x800e26 <block_list_hoch>
    1ed4:	10 92 19 0a 	sts	0x0A19, r1	; 0x800a19 <block_list_runter>
    1ed8:	10 92 61 12 	sts	0x1261, r1	; 0x801261 <i_Liste>
    1edc:	e0 91 0e 0a 	lds	r30, 0x0A0E	; 0x800a0e <aktuellesGetraenk_file>
    1ee0:	f0 91 0f 0a 	lds	r31, 0x0A0F	; 0x800a0f <aktuellesGetraenk_file+0x1>
    1ee4:	80 81       	ld	r24, Z
    1ee6:	42 da       	rcall	.-2940   	; 0x136c <loesche_FIle>
    1ee8:	e0 91 69 12 	lds	r30, 0x1269	; 0x801269 <aktuellesGetraenk>
    1eec:	f0 91 6a 12 	lds	r31, 0x126A	; 0x80126a <aktuellesGetraenk+0x1>
    1ef0:	60 81       	ld	r22, Z
    1ef2:	71 81       	ldd	r23, Z+1	; 0x01
    1ef4:	e0 91 0e 0a 	lds	r30, 0x0A0E	; 0x800a0e <aktuellesGetraenk_file>
    1ef8:	f0 91 0f 0a 	lds	r31, 0x0A0F	; 0x800a0f <aktuellesGetraenk_file+0x1>
    1efc:	41 e0       	ldi	r20, 0x01	; 1
    1efe:	80 81       	ld	r24, Z
    1f00:	1f d9       	rcall	.-3522   	; 0x1140 <erstelle_File>
    1f02:	81 e0       	ldi	r24, 0x01	; 1
    1f04:	0e 94 f6 1b 	call	0x37ec	; 0x37ec <nextion_change_page>
    1f08:	80 91 69 12 	lds	r24, 0x1269	; 0x801269 <aktuellesGetraenk>
    1f0c:	90 91 6a 12 	lds	r25, 0x126A	; 0x80126a <aktuellesGetraenk+0x1>
    1f10:	0c 94 fe 03 	jmp	0x7fc	; 0x7fc <setze_startanzeige>
    1f14:	08 95       	ret
    1f16:	80 e0       	ldi	r24, 0x00	; 0
    1f18:	0c 94 41 01 	jmp	0x282	; 0x282 <schreibe_Menge_in_Getraenk>
    1f1c:	08 95       	ret
    1f1e:	81 e0       	ldi	r24, 0x01	; 1
    1f20:	0c 94 41 01 	jmp	0x282	; 0x282 <schreibe_Menge_in_Getraenk>
    1f24:	08 95       	ret
    1f26:	82 e0       	ldi	r24, 0x02	; 2
    1f28:	0c 94 41 01 	jmp	0x282	; 0x282 <schreibe_Menge_in_Getraenk>
    1f2c:	08 95       	ret
    1f2e:	83 e0       	ldi	r24, 0x03	; 3
    1f30:	0c 94 41 01 	jmp	0x282	; 0x282 <schreibe_Menge_in_Getraenk>
    1f34:	08 95       	ret

00001f36 <check_reinanzeige1>:
    1f36:	81 30       	cpi	r24, 0x01	; 1
    1f38:	19 f0       	breq	.+6      	; 0x1f40 <check_reinanzeige1+0xa>
    1f3a:	82 30       	cpi	r24, 0x02	; 2
    1f3c:	29 f0       	breq	.+10     	; 0x1f48 <check_reinanzeige1+0x12>
    1f3e:	08 95       	ret
    1f40:	87 e0       	ldi	r24, 0x07	; 7
    1f42:	0c 94 f6 1b 	jmp	0x37ec	; 0x37ec <nextion_change_page>
    1f46:	08 95       	ret
    1f48:	8b e0       	ldi	r24, 0x0B	; 11
    1f4a:	0c 94 f6 1b 	jmp	0x37ec	; 0x37ec <nextion_change_page>
    1f4e:	08 95       	ret

00001f50 <check_reinanzeige2>:
    1f50:	1f 93       	push	r17
    1f52:	cf 93       	push	r28
    1f54:	df 93       	push	r29
    1f56:	81 30       	cpi	r24, 0x01	; 1
    1f58:	19 f0       	breq	.+6      	; 0x1f60 <check_reinanzeige2+0x10>
    1f5a:	82 30       	cpi	r24, 0x02	; 2
    1f5c:	29 f0       	breq	.+10     	; 0x1f68 <check_reinanzeige2+0x18>
    1f5e:	3a c0       	rjmp	.+116    	; 0x1fd4 <check_reinanzeige2+0x84>
    1f60:	87 e0       	ldi	r24, 0x07	; 7
    1f62:	0e 94 f6 1b 	call	0x37ec	; 0x37ec <nextion_change_page>
    1f66:	36 c0       	rjmp	.+108    	; 0x1fd4 <check_reinanzeige2+0x84>
    1f68:	8c e0       	ldi	r24, 0x0C	; 12
    1f6a:	0e 94 f6 1b 	call	0x37ec	; 0x37ec <nextion_change_page>
    1f6e:	10 e0       	ldi	r17, 0x00	; 0
    1f70:	80 91 63 12 	lds	r24, 0x1263	; 0x801263 <stop>
    1f74:	81 11       	cpse	r24, r1
    1f76:	12 c0       	rjmp	.+36     	; 0x1f9c <check_reinanzeige2+0x4c>
    1f78:	81 2f       	mov	r24, r17
    1f7a:	0e 94 28 02 	call	0x450	; 0x450 <schalte_pumpe_ein>
    1f7e:	c0 ed       	ldi	r28, 0xD0	; 208
    1f80:	d7 e0       	ldi	r29, 0x07	; 7
    1f82:	0e 94 bc 1a 	call	0x3578	; 0x3578 <check_Communication_Input_UART_1>
    1f86:	81 11       	cpse	r24, r1
    1f88:	0e 94 45 1b 	call	0x368a	; 0x368a <proceed_Communication_INPUT_UART_1>
    1f8c:	8f e9       	ldi	r24, 0x9F	; 159
    1f8e:	9f e0       	ldi	r25, 0x0F	; 15
    1f90:	01 97       	sbiw	r24, 0x01	; 1
    1f92:	f1 f7       	brne	.-4      	; 0x1f90 <check_reinanzeige2+0x40>
    1f94:	00 c0       	rjmp	.+0      	; 0x1f96 <check_reinanzeige2+0x46>
    1f96:	00 00       	nop
    1f98:	21 97       	sbiw	r28, 0x01	; 1
    1f9a:	99 f7       	brne	.-26     	; 0x1f82 <check_reinanzeige2+0x32>
    1f9c:	81 2f       	mov	r24, r17
    1f9e:	0e 94 5f 02 	call	0x4be	; 0x4be <schalte_pumpe_aus>
    1fa2:	1f 5f       	subi	r17, 0xFF	; 255
    1fa4:	1c 30       	cpi	r17, 0x0C	; 12
    1fa6:	21 f7       	brne	.-56     	; 0x1f70 <check_reinanzeige2+0x20>
    1fa8:	10 92 63 12 	sts	0x1263, r1	; 0x801263 <stop>
    1fac:	81 e0       	ldi	r24, 0x01	; 1
    1fae:	0e 94 f6 1b 	call	0x37ec	; 0x37ec <nextion_change_page>
    1fb2:	e0 91 dc 08 	lds	r30, 0x08DC	; 0x8008dc <tail_getraenk_file>
    1fb6:	f0 91 dd 08 	lds	r31, 0x08DD	; 0x8008dd <tail_getraenk_file+0x1>
    1fba:	f0 93 0f 0a 	sts	0x0A0F, r31	; 0x800a0f <aktuellesGetraenk_file+0x1>
    1fbe:	e0 93 0e 0a 	sts	0x0A0E, r30	; 0x800a0e <aktuellesGetraenk_file>
    1fc2:	80 81       	ld	r24, Z
    1fc4:	0e 94 1a 06 	call	0xc34	; 0xc34 <lese_textfile_in_getraenk>
    1fc8:	80 91 69 12 	lds	r24, 0x1269	; 0x801269 <aktuellesGetraenk>
    1fcc:	90 91 6a 12 	lds	r25, 0x126A	; 0x80126a <aktuellesGetraenk+0x1>
    1fd0:	0e 94 fe 03 	call	0x7fc	; 0x7fc <setze_startanzeige>
    1fd4:	df 91       	pop	r29
    1fd6:	cf 91       	pop	r28
    1fd8:	1f 91       	pop	r17
    1fda:	08 95       	ret

00001fdc <check_reinanzeige3>:
    1fdc:	81 30       	cpi	r24, 0x01	; 1
    1fde:	31 f4       	brne	.+12     	; 0x1fec <check_reinanzeige3+0x10>
    1fe0:	87 e0       	ldi	r24, 0x07	; 7
    1fe2:	0e 94 f6 1b 	call	0x37ec	; 0x37ec <nextion_change_page>
    1fe6:	81 e0       	ldi	r24, 0x01	; 1
    1fe8:	80 93 63 12 	sts	0x1263, r24	; 0x801263 <stop>
    1fec:	08 95       	ret

00001fee <check_infoanzeige>:
    1fee:	81 30       	cpi	r24, 0x01	; 1
    1ff0:	19 f4       	brne	.+6      	; 0x1ff8 <check_infoanzeige+0xa>
    1ff2:	87 e0       	ldi	r24, 0x07	; 7
    1ff4:	0c 94 f6 1b 	jmp	0x37ec	; 0x37ec <nextion_change_page>
    1ff8:	08 95       	ret

00001ffa <check_erstanzeige1>:
}

void check_erstanzeige1(uint8_t button)
{	
	char wechsel = 0;
	switch (button)
    1ffa:	90 e0       	ldi	r25, 0x00	; 0
    1ffc:	fc 01       	movw	r30, r24
    1ffe:	31 97       	sbiw	r30, 0x01	; 1
    2000:	ef 31       	cpi	r30, 0x1F	; 31
    2002:	f1 05       	cpc	r31, r1
    2004:	08 f0       	brcs	.+2      	; 0x2008 <check_erstanzeige1+0xe>
    2006:	e3 c2       	rjmp	.+1478   	; 0x25ce <__stack+0x3cf>
    2008:	88 27       	eor	r24, r24
    200a:	ef 53       	subi	r30, 0x3F	; 63
    200c:	ff 4f       	sbci	r31, 0xFF	; 255
    200e:	8f 4f       	sbci	r24, 0xFF	; 255
    2010:	0c 94 b3 2c 	jmp	0x5966	; 0x5966 <__tablejump2__>
	{
	case A:
	if (Grossschreib == 1)
    2014:	80 91 12 0a 	lds	r24, 0x0A12	; 0x800a12 <Grossschreib>
    2018:	81 30       	cpi	r24, 0x01	; 1
    201a:	41 f4       	brne	.+16     	; 0x202c <check_erstanzeige1+0x32>
	{
		buff_name[counter] = 'A';
    201c:	e0 91 2d 0f 	lds	r30, 0x0F2D	; 0x800f2d <counter>
    2020:	f0 e0       	ldi	r31, 0x00	; 0
    2022:	eb 5c       	subi	r30, 0xCB	; 203
    2024:	f0 4f       	sbci	r31, 0xF0	; 240
    2026:	81 e4       	ldi	r24, 0x41	; 65
    2028:	80 83       	st	Z, r24
    202a:	07 c0       	rjmp	.+14     	; 0x203a <check_erstanzeige1+0x40>
	}else
	{
		buff_name[counter] = 'a';
    202c:	e0 91 2d 0f 	lds	r30, 0x0F2D	; 0x800f2d <counter>
    2030:	f0 e0       	ldi	r31, 0x00	; 0
    2032:	eb 5c       	subi	r30, 0xCB	; 203
    2034:	f0 4f       	sbci	r31, 0xF0	; 240
    2036:	81 e6       	ldi	r24, 0x61	; 97
    2038:	80 83       	st	Z, r24
	}
	counter++;
    203a:	80 91 2d 0f 	lds	r24, 0x0F2D	; 0x800f2d <counter>
    203e:	8f 5f       	subi	r24, 0xFF	; 255
    2040:	80 93 2d 0f 	sts	0x0F2D, r24	; 0x800f2d <counter>
	break;
    2044:	c4 c2       	rjmp	.+1416   	; 0x25ce <__stack+0x3cf>

	case B:
	if (Grossschreib == 1)
    2046:	80 91 12 0a 	lds	r24, 0x0A12	; 0x800a12 <Grossschreib>
    204a:	81 30       	cpi	r24, 0x01	; 1
    204c:	41 f4       	brne	.+16     	; 0x205e <check_erstanzeige1+0x64>
	{
		buff_name[counter] = 'B';
    204e:	e0 91 2d 0f 	lds	r30, 0x0F2D	; 0x800f2d <counter>
    2052:	f0 e0       	ldi	r31, 0x00	; 0
    2054:	eb 5c       	subi	r30, 0xCB	; 203
    2056:	f0 4f       	sbci	r31, 0xF0	; 240
    2058:	82 e4       	ldi	r24, 0x42	; 66
    205a:	80 83       	st	Z, r24
    205c:	07 c0       	rjmp	.+14     	; 0x206c <check_erstanzeige1+0x72>
	}else
	{
		buff_name[counter] = 'b';
    205e:	e0 91 2d 0f 	lds	r30, 0x0F2D	; 0x800f2d <counter>
    2062:	f0 e0       	ldi	r31, 0x00	; 0
    2064:	eb 5c       	subi	r30, 0xCB	; 203
    2066:	f0 4f       	sbci	r31, 0xF0	; 240
    2068:	82 e6       	ldi	r24, 0x62	; 98
    206a:	80 83       	st	Z, r24
	}
	counter++;
    206c:	80 91 2d 0f 	lds	r24, 0x0F2D	; 0x800f2d <counter>
    2070:	8f 5f       	subi	r24, 0xFF	; 255
    2072:	80 93 2d 0f 	sts	0x0F2D, r24	; 0x800f2d <counter>
	break;
    2076:	ab c2       	rjmp	.+1366   	; 0x25ce <__stack+0x3cf>

	case C:
	if (Grossschreib == 1)
    2078:	80 91 12 0a 	lds	r24, 0x0A12	; 0x800a12 <Grossschreib>
    207c:	81 30       	cpi	r24, 0x01	; 1
    207e:	41 f4       	brne	.+16     	; 0x2090 <check_erstanzeige1+0x96>
	{
		buff_name[counter] = 'C';
    2080:	e0 91 2d 0f 	lds	r30, 0x0F2D	; 0x800f2d <counter>
    2084:	f0 e0       	ldi	r31, 0x00	; 0
    2086:	eb 5c       	subi	r30, 0xCB	; 203
    2088:	f0 4f       	sbci	r31, 0xF0	; 240
    208a:	83 e4       	ldi	r24, 0x43	; 67
    208c:	80 83       	st	Z, r24
    208e:	07 c0       	rjmp	.+14     	; 0x209e <check_erstanzeige1+0xa4>
	}else
	{
		buff_name[counter] = 'C';
    2090:	e0 91 2d 0f 	lds	r30, 0x0F2D	; 0x800f2d <counter>
    2094:	f0 e0       	ldi	r31, 0x00	; 0
    2096:	eb 5c       	subi	r30, 0xCB	; 203
    2098:	f0 4f       	sbci	r31, 0xF0	; 240
    209a:	83 e4       	ldi	r24, 0x43	; 67
    209c:	80 83       	st	Z, r24
	}
	counter++;
    209e:	80 91 2d 0f 	lds	r24, 0x0F2D	; 0x800f2d <counter>
    20a2:	8f 5f       	subi	r24, 0xFF	; 255
    20a4:	80 93 2d 0f 	sts	0x0F2D, r24	; 0x800f2d <counter>
	break;
    20a8:	92 c2       	rjmp	.+1316   	; 0x25ce <__stack+0x3cf>

	case D:
	if (Grossschreib == 1)
    20aa:	80 91 12 0a 	lds	r24, 0x0A12	; 0x800a12 <Grossschreib>
    20ae:	81 30       	cpi	r24, 0x01	; 1
    20b0:	41 f4       	brne	.+16     	; 0x20c2 <check_erstanzeige1+0xc8>
	{
		buff_name[counter] = 'D';
    20b2:	e0 91 2d 0f 	lds	r30, 0x0F2D	; 0x800f2d <counter>
    20b6:	f0 e0       	ldi	r31, 0x00	; 0
    20b8:	eb 5c       	subi	r30, 0xCB	; 203
    20ba:	f0 4f       	sbci	r31, 0xF0	; 240
    20bc:	84 e4       	ldi	r24, 0x44	; 68
    20be:	80 83       	st	Z, r24
    20c0:	07 c0       	rjmp	.+14     	; 0x20d0 <check_erstanzeige1+0xd6>
	}else
	{
		buff_name[counter] = 'd';
    20c2:	e0 91 2d 0f 	lds	r30, 0x0F2D	; 0x800f2d <counter>
    20c6:	f0 e0       	ldi	r31, 0x00	; 0
    20c8:	eb 5c       	subi	r30, 0xCB	; 203
    20ca:	f0 4f       	sbci	r31, 0xF0	; 240
    20cc:	84 e6       	ldi	r24, 0x64	; 100
    20ce:	80 83       	st	Z, r24
	}
	counter++;
    20d0:	80 91 2d 0f 	lds	r24, 0x0F2D	; 0x800f2d <counter>
    20d4:	8f 5f       	subi	r24, 0xFF	; 255
    20d6:	80 93 2d 0f 	sts	0x0F2D, r24	; 0x800f2d <counter>
	break;
    20da:	79 c2       	rjmp	.+1266   	; 0x25ce <__stack+0x3cf>

	case E:
	if (Grossschreib == 1)
    20dc:	80 91 12 0a 	lds	r24, 0x0A12	; 0x800a12 <Grossschreib>
    20e0:	81 30       	cpi	r24, 0x01	; 1
    20e2:	41 f4       	brne	.+16     	; 0x20f4 <check_erstanzeige1+0xfa>
	{
		buff_name[counter] = 'E';
    20e4:	e0 91 2d 0f 	lds	r30, 0x0F2D	; 0x800f2d <counter>
    20e8:	f0 e0       	ldi	r31, 0x00	; 0
    20ea:	eb 5c       	subi	r30, 0xCB	; 203
    20ec:	f0 4f       	sbci	r31, 0xF0	; 240
    20ee:	85 e4       	ldi	r24, 0x45	; 69
    20f0:	80 83       	st	Z, r24
    20f2:	07 c0       	rjmp	.+14     	; 0x2102 <check_erstanzeige1+0x108>
	}else
	{
		buff_name[counter] = 'e';
    20f4:	e0 91 2d 0f 	lds	r30, 0x0F2D	; 0x800f2d <counter>
    20f8:	f0 e0       	ldi	r31, 0x00	; 0
    20fa:	eb 5c       	subi	r30, 0xCB	; 203
    20fc:	f0 4f       	sbci	r31, 0xF0	; 240
    20fe:	85 e6       	ldi	r24, 0x65	; 101
    2100:	80 83       	st	Z, r24
	}
	counter++;
    2102:	80 91 2d 0f 	lds	r24, 0x0F2D	; 0x800f2d <counter>
    2106:	8f 5f       	subi	r24, 0xFF	; 255
    2108:	80 93 2d 0f 	sts	0x0F2D, r24	; 0x800f2d <counter>
	break;
    210c:	60 c2       	rjmp	.+1216   	; 0x25ce <__stack+0x3cf>

	case F:
	if (Grossschreib == 1)
    210e:	80 91 12 0a 	lds	r24, 0x0A12	; 0x800a12 <Grossschreib>
    2112:	81 30       	cpi	r24, 0x01	; 1
    2114:	41 f4       	brne	.+16     	; 0x2126 <check_erstanzeige1+0x12c>
	{
		buff_name[counter] = 'F';
    2116:	e0 91 2d 0f 	lds	r30, 0x0F2D	; 0x800f2d <counter>
    211a:	f0 e0       	ldi	r31, 0x00	; 0
    211c:	eb 5c       	subi	r30, 0xCB	; 203
    211e:	f0 4f       	sbci	r31, 0xF0	; 240
    2120:	86 e4       	ldi	r24, 0x46	; 70
    2122:	80 83       	st	Z, r24
    2124:	07 c0       	rjmp	.+14     	; 0x2134 <check_erstanzeige1+0x13a>
	}else
	{
		buff_name[counter] = 'f';
    2126:	e0 91 2d 0f 	lds	r30, 0x0F2D	; 0x800f2d <counter>
    212a:	f0 e0       	ldi	r31, 0x00	; 0
    212c:	eb 5c       	subi	r30, 0xCB	; 203
    212e:	f0 4f       	sbci	r31, 0xF0	; 240
    2130:	86 e6       	ldi	r24, 0x66	; 102
    2132:	80 83       	st	Z, r24
	}
	counter++;
    2134:	80 91 2d 0f 	lds	r24, 0x0F2D	; 0x800f2d <counter>
    2138:	8f 5f       	subi	r24, 0xFF	; 255
    213a:	80 93 2d 0f 	sts	0x0F2D, r24	; 0x800f2d <counter>
	break;
    213e:	47 c2       	rjmp	.+1166   	; 0x25ce <__stack+0x3cf>

	case G:
	if (Grossschreib == 1)
    2140:	80 91 12 0a 	lds	r24, 0x0A12	; 0x800a12 <Grossschreib>
    2144:	81 30       	cpi	r24, 0x01	; 1
    2146:	41 f4       	brne	.+16     	; 0x2158 <check_erstanzeige1+0x15e>
	{
		buff_name[counter] = 'G';
    2148:	e0 91 2d 0f 	lds	r30, 0x0F2D	; 0x800f2d <counter>
    214c:	f0 e0       	ldi	r31, 0x00	; 0
    214e:	eb 5c       	subi	r30, 0xCB	; 203
    2150:	f0 4f       	sbci	r31, 0xF0	; 240
    2152:	87 e4       	ldi	r24, 0x47	; 71
    2154:	80 83       	st	Z, r24
    2156:	07 c0       	rjmp	.+14     	; 0x2166 <check_erstanzeige1+0x16c>
	}else
	{
		buff_name[counter] = 'g';
    2158:	e0 91 2d 0f 	lds	r30, 0x0F2D	; 0x800f2d <counter>
    215c:	f0 e0       	ldi	r31, 0x00	; 0
    215e:	eb 5c       	subi	r30, 0xCB	; 203
    2160:	f0 4f       	sbci	r31, 0xF0	; 240
    2162:	87 e6       	ldi	r24, 0x67	; 103
    2164:	80 83       	st	Z, r24
	}
	counter++;
    2166:	80 91 2d 0f 	lds	r24, 0x0F2D	; 0x800f2d <counter>
    216a:	8f 5f       	subi	r24, 0xFF	; 255
    216c:	80 93 2d 0f 	sts	0x0F2D, r24	; 0x800f2d <counter>
	break;
    2170:	2e c2       	rjmp	.+1116   	; 0x25ce <__stack+0x3cf>

	case H:
	if (Grossschreib == 1)
    2172:	80 91 12 0a 	lds	r24, 0x0A12	; 0x800a12 <Grossschreib>
    2176:	81 30       	cpi	r24, 0x01	; 1
    2178:	41 f4       	brne	.+16     	; 0x218a <check_erstanzeige1+0x190>
	{
		buff_name[counter] = 'H';
    217a:	e0 91 2d 0f 	lds	r30, 0x0F2D	; 0x800f2d <counter>
    217e:	f0 e0       	ldi	r31, 0x00	; 0
    2180:	eb 5c       	subi	r30, 0xCB	; 203
    2182:	f0 4f       	sbci	r31, 0xF0	; 240
    2184:	88 e4       	ldi	r24, 0x48	; 72
    2186:	80 83       	st	Z, r24
    2188:	07 c0       	rjmp	.+14     	; 0x2198 <check_erstanzeige1+0x19e>
	}else
	{
		buff_name[counter] = 'h';
    218a:	e0 91 2d 0f 	lds	r30, 0x0F2D	; 0x800f2d <counter>
    218e:	f0 e0       	ldi	r31, 0x00	; 0
    2190:	eb 5c       	subi	r30, 0xCB	; 203
    2192:	f0 4f       	sbci	r31, 0xF0	; 240
    2194:	88 e6       	ldi	r24, 0x68	; 104
    2196:	80 83       	st	Z, r24
	}
	counter++;
    2198:	80 91 2d 0f 	lds	r24, 0x0F2D	; 0x800f2d <counter>
    219c:	8f 5f       	subi	r24, 0xFF	; 255
    219e:	80 93 2d 0f 	sts	0x0F2D, r24	; 0x800f2d <counter>
	break;
    21a2:	15 c2       	rjmp	.+1066   	; 0x25ce <__stack+0x3cf>

	case I:
	if (Grossschreib == 1)
    21a4:	80 91 12 0a 	lds	r24, 0x0A12	; 0x800a12 <Grossschreib>
    21a8:	81 30       	cpi	r24, 0x01	; 1
    21aa:	41 f4       	brne	.+16     	; 0x21bc <check_erstanzeige1+0x1c2>
	{
		buff_name[counter] = 'I';
    21ac:	e0 91 2d 0f 	lds	r30, 0x0F2D	; 0x800f2d <counter>
    21b0:	f0 e0       	ldi	r31, 0x00	; 0
    21b2:	eb 5c       	subi	r30, 0xCB	; 203
    21b4:	f0 4f       	sbci	r31, 0xF0	; 240
    21b6:	89 e4       	ldi	r24, 0x49	; 73
    21b8:	80 83       	st	Z, r24
    21ba:	07 c0       	rjmp	.+14     	; 0x21ca <check_erstanzeige1+0x1d0>
	}else
	{
		buff_name[counter] = 'i';
    21bc:	e0 91 2d 0f 	lds	r30, 0x0F2D	; 0x800f2d <counter>
    21c0:	f0 e0       	ldi	r31, 0x00	; 0
    21c2:	eb 5c       	subi	r30, 0xCB	; 203
    21c4:	f0 4f       	sbci	r31, 0xF0	; 240
    21c6:	89 e6       	ldi	r24, 0x69	; 105
    21c8:	80 83       	st	Z, r24
	}
	counter++;
    21ca:	80 91 2d 0f 	lds	r24, 0x0F2D	; 0x800f2d <counter>
    21ce:	8f 5f       	subi	r24, 0xFF	; 255
    21d0:	80 93 2d 0f 	sts	0x0F2D, r24	; 0x800f2d <counter>
	break;
    21d4:	fc c1       	rjmp	.+1016   	; 0x25ce <__stack+0x3cf>

	case J:
	if (Grossschreib == 1)
    21d6:	80 91 12 0a 	lds	r24, 0x0A12	; 0x800a12 <Grossschreib>
    21da:	81 30       	cpi	r24, 0x01	; 1
    21dc:	41 f4       	brne	.+16     	; 0x21ee <check_erstanzeige1+0x1f4>
	{
		buff_name[counter] = 'J';
    21de:	e0 91 2d 0f 	lds	r30, 0x0F2D	; 0x800f2d <counter>
    21e2:	f0 e0       	ldi	r31, 0x00	; 0
    21e4:	eb 5c       	subi	r30, 0xCB	; 203
    21e6:	f0 4f       	sbci	r31, 0xF0	; 240
    21e8:	8a e4       	ldi	r24, 0x4A	; 74
    21ea:	80 83       	st	Z, r24
    21ec:	07 c0       	rjmp	.+14     	; 0x21fc <check_erstanzeige1+0x202>
	}else
	{
		buff_name[counter] = 'j';
    21ee:	e0 91 2d 0f 	lds	r30, 0x0F2D	; 0x800f2d <counter>
    21f2:	f0 e0       	ldi	r31, 0x00	; 0
    21f4:	eb 5c       	subi	r30, 0xCB	; 203
    21f6:	f0 4f       	sbci	r31, 0xF0	; 240
    21f8:	8a e6       	ldi	r24, 0x6A	; 106
    21fa:	80 83       	st	Z, r24
	}
	counter++;
    21fc:	80 91 2d 0f 	lds	r24, 0x0F2D	; 0x800f2d <counter>
    2200:	8f 5f       	subi	r24, 0xFF	; 255
    2202:	80 93 2d 0f 	sts	0x0F2D, r24	; 0x800f2d <counter>
	break;
    2206:	e3 c1       	rjmp	.+966    	; 0x25ce <__stack+0x3cf>

	case K:
	if (Grossschreib == 1)
    2208:	80 91 12 0a 	lds	r24, 0x0A12	; 0x800a12 <Grossschreib>
    220c:	81 30       	cpi	r24, 0x01	; 1
    220e:	41 f4       	brne	.+16     	; 0x2220 <__stack+0x21>
	{
		buff_name[counter] = 'K';
    2210:	e0 91 2d 0f 	lds	r30, 0x0F2D	; 0x800f2d <counter>
    2214:	f0 e0       	ldi	r31, 0x00	; 0
    2216:	eb 5c       	subi	r30, 0xCB	; 203
    2218:	f0 4f       	sbci	r31, 0xF0	; 240
    221a:	8b e4       	ldi	r24, 0x4B	; 75
    221c:	80 83       	st	Z, r24
    221e:	07 c0       	rjmp	.+14     	; 0x222e <__stack+0x2f>
	}else
	{
		buff_name[counter] = 'k';
    2220:	e0 91 2d 0f 	lds	r30, 0x0F2D	; 0x800f2d <counter>
    2224:	f0 e0       	ldi	r31, 0x00	; 0
    2226:	eb 5c       	subi	r30, 0xCB	; 203
    2228:	f0 4f       	sbci	r31, 0xF0	; 240
    222a:	8b e6       	ldi	r24, 0x6B	; 107
    222c:	80 83       	st	Z, r24
	}
	counter++;
    222e:	80 91 2d 0f 	lds	r24, 0x0F2D	; 0x800f2d <counter>
    2232:	8f 5f       	subi	r24, 0xFF	; 255
    2234:	80 93 2d 0f 	sts	0x0F2D, r24	; 0x800f2d <counter>
	break;
    2238:	ca c1       	rjmp	.+916    	; 0x25ce <__stack+0x3cf>

	case L:
	if (Grossschreib == 1)
    223a:	80 91 12 0a 	lds	r24, 0x0A12	; 0x800a12 <Grossschreib>
    223e:	81 30       	cpi	r24, 0x01	; 1
    2240:	41 f4       	brne	.+16     	; 0x2252 <__stack+0x53>
	{
		buff_name[counter] = 'L';
    2242:	e0 91 2d 0f 	lds	r30, 0x0F2D	; 0x800f2d <counter>
    2246:	f0 e0       	ldi	r31, 0x00	; 0
    2248:	eb 5c       	subi	r30, 0xCB	; 203
    224a:	f0 4f       	sbci	r31, 0xF0	; 240
    224c:	8c e4       	ldi	r24, 0x4C	; 76
    224e:	80 83       	st	Z, r24
    2250:	07 c0       	rjmp	.+14     	; 0x2260 <__stack+0x61>
	}else
	{
		buff_name[counter] = 'l';
    2252:	e0 91 2d 0f 	lds	r30, 0x0F2D	; 0x800f2d <counter>
    2256:	f0 e0       	ldi	r31, 0x00	; 0
    2258:	eb 5c       	subi	r30, 0xCB	; 203
    225a:	f0 4f       	sbci	r31, 0xF0	; 240
    225c:	8c e6       	ldi	r24, 0x6C	; 108
    225e:	80 83       	st	Z, r24
	}
	counter++;
    2260:	80 91 2d 0f 	lds	r24, 0x0F2D	; 0x800f2d <counter>
    2264:	8f 5f       	subi	r24, 0xFF	; 255
    2266:	80 93 2d 0f 	sts	0x0F2D, r24	; 0x800f2d <counter>
	break;
    226a:	b1 c1       	rjmp	.+866    	; 0x25ce <__stack+0x3cf>

	case M:
	if (Grossschreib == 1)
    226c:	80 91 12 0a 	lds	r24, 0x0A12	; 0x800a12 <Grossschreib>
    2270:	81 30       	cpi	r24, 0x01	; 1
    2272:	41 f4       	brne	.+16     	; 0x2284 <__stack+0x85>
	{
		buff_name[counter] = 'M';
    2274:	e0 91 2d 0f 	lds	r30, 0x0F2D	; 0x800f2d <counter>
    2278:	f0 e0       	ldi	r31, 0x00	; 0
    227a:	eb 5c       	subi	r30, 0xCB	; 203
    227c:	f0 4f       	sbci	r31, 0xF0	; 240
    227e:	8d e4       	ldi	r24, 0x4D	; 77
    2280:	80 83       	st	Z, r24
    2282:	07 c0       	rjmp	.+14     	; 0x2292 <__stack+0x93>
	}else
	{
		buff_name[counter] = 'm';
    2284:	e0 91 2d 0f 	lds	r30, 0x0F2D	; 0x800f2d <counter>
    2288:	f0 e0       	ldi	r31, 0x00	; 0
    228a:	eb 5c       	subi	r30, 0xCB	; 203
    228c:	f0 4f       	sbci	r31, 0xF0	; 240
    228e:	8d e6       	ldi	r24, 0x6D	; 109
    2290:	80 83       	st	Z, r24
	}
	counter++;
    2292:	80 91 2d 0f 	lds	r24, 0x0F2D	; 0x800f2d <counter>
    2296:	8f 5f       	subi	r24, 0xFF	; 255
    2298:	80 93 2d 0f 	sts	0x0F2D, r24	; 0x800f2d <counter>
	break;
    229c:	98 c1       	rjmp	.+816    	; 0x25ce <__stack+0x3cf>

	case N:
	if (Grossschreib == 1)
    229e:	80 91 12 0a 	lds	r24, 0x0A12	; 0x800a12 <Grossschreib>
    22a2:	81 30       	cpi	r24, 0x01	; 1
    22a4:	41 f4       	brne	.+16     	; 0x22b6 <__stack+0xb7>
	{
		buff_name[counter] = 'N';
    22a6:	e0 91 2d 0f 	lds	r30, 0x0F2D	; 0x800f2d <counter>
    22aa:	f0 e0       	ldi	r31, 0x00	; 0
    22ac:	eb 5c       	subi	r30, 0xCB	; 203
    22ae:	f0 4f       	sbci	r31, 0xF0	; 240
    22b0:	8e e4       	ldi	r24, 0x4E	; 78
    22b2:	80 83       	st	Z, r24
    22b4:	07 c0       	rjmp	.+14     	; 0x22c4 <__stack+0xc5>
	}else
	{
		buff_name[counter] = 'n';
    22b6:	e0 91 2d 0f 	lds	r30, 0x0F2D	; 0x800f2d <counter>
    22ba:	f0 e0       	ldi	r31, 0x00	; 0
    22bc:	eb 5c       	subi	r30, 0xCB	; 203
    22be:	f0 4f       	sbci	r31, 0xF0	; 240
    22c0:	8e e6       	ldi	r24, 0x6E	; 110
    22c2:	80 83       	st	Z, r24
	}
	counter++;
    22c4:	80 91 2d 0f 	lds	r24, 0x0F2D	; 0x800f2d <counter>
    22c8:	8f 5f       	subi	r24, 0xFF	; 255
    22ca:	80 93 2d 0f 	sts	0x0F2D, r24	; 0x800f2d <counter>
	break;
    22ce:	7f c1       	rjmp	.+766    	; 0x25ce <__stack+0x3cf>

	case O:
	if (Grossschreib == 1)
    22d0:	80 91 12 0a 	lds	r24, 0x0A12	; 0x800a12 <Grossschreib>
    22d4:	81 30       	cpi	r24, 0x01	; 1
    22d6:	41 f4       	brne	.+16     	; 0x22e8 <__stack+0xe9>
	{
		buff_name[counter] = 'O';
    22d8:	e0 91 2d 0f 	lds	r30, 0x0F2D	; 0x800f2d <counter>
    22dc:	f0 e0       	ldi	r31, 0x00	; 0
    22de:	eb 5c       	subi	r30, 0xCB	; 203
    22e0:	f0 4f       	sbci	r31, 0xF0	; 240
    22e2:	8f e4       	ldi	r24, 0x4F	; 79
    22e4:	80 83       	st	Z, r24
    22e6:	07 c0       	rjmp	.+14     	; 0x22f6 <__stack+0xf7>
	}else
	{
		buff_name[counter] = 'o';
    22e8:	e0 91 2d 0f 	lds	r30, 0x0F2D	; 0x800f2d <counter>
    22ec:	f0 e0       	ldi	r31, 0x00	; 0
    22ee:	eb 5c       	subi	r30, 0xCB	; 203
    22f0:	f0 4f       	sbci	r31, 0xF0	; 240
    22f2:	8f e6       	ldi	r24, 0x6F	; 111
    22f4:	80 83       	st	Z, r24
	}
	counter++;
    22f6:	80 91 2d 0f 	lds	r24, 0x0F2D	; 0x800f2d <counter>
    22fa:	8f 5f       	subi	r24, 0xFF	; 255
    22fc:	80 93 2d 0f 	sts	0x0F2D, r24	; 0x800f2d <counter>
	break;
    2300:	66 c1       	rjmp	.+716    	; 0x25ce <__stack+0x3cf>

	case P:
	if (Grossschreib == 1)
    2302:	80 91 12 0a 	lds	r24, 0x0A12	; 0x800a12 <Grossschreib>
    2306:	81 30       	cpi	r24, 0x01	; 1
    2308:	41 f4       	brne	.+16     	; 0x231a <__stack+0x11b>
	{
		buff_name[counter] = 'P';
    230a:	e0 91 2d 0f 	lds	r30, 0x0F2D	; 0x800f2d <counter>
    230e:	f0 e0       	ldi	r31, 0x00	; 0
    2310:	eb 5c       	subi	r30, 0xCB	; 203
    2312:	f0 4f       	sbci	r31, 0xF0	; 240
    2314:	80 e5       	ldi	r24, 0x50	; 80
    2316:	80 83       	st	Z, r24
    2318:	07 c0       	rjmp	.+14     	; 0x2328 <__stack+0x129>
	}else
	{
		buff_name[counter] = 'p';
    231a:	e0 91 2d 0f 	lds	r30, 0x0F2D	; 0x800f2d <counter>
    231e:	f0 e0       	ldi	r31, 0x00	; 0
    2320:	eb 5c       	subi	r30, 0xCB	; 203
    2322:	f0 4f       	sbci	r31, 0xF0	; 240
    2324:	80 e7       	ldi	r24, 0x70	; 112
    2326:	80 83       	st	Z, r24
	}
	counter++;
    2328:	80 91 2d 0f 	lds	r24, 0x0F2D	; 0x800f2d <counter>
    232c:	8f 5f       	subi	r24, 0xFF	; 255
    232e:	80 93 2d 0f 	sts	0x0F2D, r24	; 0x800f2d <counter>
	break;
    2332:	4d c1       	rjmp	.+666    	; 0x25ce <__stack+0x3cf>

	case Q:
	if (Grossschreib == 1)
    2334:	80 91 12 0a 	lds	r24, 0x0A12	; 0x800a12 <Grossschreib>
    2338:	81 30       	cpi	r24, 0x01	; 1
    233a:	41 f4       	brne	.+16     	; 0x234c <__stack+0x14d>
	{
		buff_name[counter] = 'Q';
    233c:	e0 91 2d 0f 	lds	r30, 0x0F2D	; 0x800f2d <counter>
    2340:	f0 e0       	ldi	r31, 0x00	; 0
    2342:	eb 5c       	subi	r30, 0xCB	; 203
    2344:	f0 4f       	sbci	r31, 0xF0	; 240
    2346:	81 e5       	ldi	r24, 0x51	; 81
    2348:	80 83       	st	Z, r24
    234a:	07 c0       	rjmp	.+14     	; 0x235a <__stack+0x15b>
	}else
	{
		buff_name[counter] = 'q';
    234c:	e0 91 2d 0f 	lds	r30, 0x0F2D	; 0x800f2d <counter>
    2350:	f0 e0       	ldi	r31, 0x00	; 0
    2352:	eb 5c       	subi	r30, 0xCB	; 203
    2354:	f0 4f       	sbci	r31, 0xF0	; 240
    2356:	81 e7       	ldi	r24, 0x71	; 113
    2358:	80 83       	st	Z, r24
	}
	counter++;
    235a:	80 91 2d 0f 	lds	r24, 0x0F2D	; 0x800f2d <counter>
    235e:	8f 5f       	subi	r24, 0xFF	; 255
    2360:	80 93 2d 0f 	sts	0x0F2D, r24	; 0x800f2d <counter>
	break;
    2364:	34 c1       	rjmp	.+616    	; 0x25ce <__stack+0x3cf>

	case R:
	if (Grossschreib == 1)
    2366:	80 91 12 0a 	lds	r24, 0x0A12	; 0x800a12 <Grossschreib>
    236a:	81 30       	cpi	r24, 0x01	; 1
    236c:	41 f4       	brne	.+16     	; 0x237e <__stack+0x17f>
	{
		buff_name[counter] = 'R';
    236e:	e0 91 2d 0f 	lds	r30, 0x0F2D	; 0x800f2d <counter>
    2372:	f0 e0       	ldi	r31, 0x00	; 0
    2374:	eb 5c       	subi	r30, 0xCB	; 203
    2376:	f0 4f       	sbci	r31, 0xF0	; 240
    2378:	82 e5       	ldi	r24, 0x52	; 82
    237a:	80 83       	st	Z, r24
    237c:	07 c0       	rjmp	.+14     	; 0x238c <__stack+0x18d>
	}else
	{
		buff_name[counter] = 'r';
    237e:	e0 91 2d 0f 	lds	r30, 0x0F2D	; 0x800f2d <counter>
    2382:	f0 e0       	ldi	r31, 0x00	; 0
    2384:	eb 5c       	subi	r30, 0xCB	; 203
    2386:	f0 4f       	sbci	r31, 0xF0	; 240
    2388:	82 e7       	ldi	r24, 0x72	; 114
    238a:	80 83       	st	Z, r24
	}
	counter++;
    238c:	80 91 2d 0f 	lds	r24, 0x0F2D	; 0x800f2d <counter>
    2390:	8f 5f       	subi	r24, 0xFF	; 255
    2392:	80 93 2d 0f 	sts	0x0F2D, r24	; 0x800f2d <counter>
	break;
    2396:	1b c1       	rjmp	.+566    	; 0x25ce <__stack+0x3cf>

	case S:
	if (Grossschreib == 1)
    2398:	80 91 12 0a 	lds	r24, 0x0A12	; 0x800a12 <Grossschreib>
    239c:	81 30       	cpi	r24, 0x01	; 1
    239e:	41 f4       	brne	.+16     	; 0x23b0 <__stack+0x1b1>
	{
		buff_name[counter] = 'S';
    23a0:	e0 91 2d 0f 	lds	r30, 0x0F2D	; 0x800f2d <counter>
    23a4:	f0 e0       	ldi	r31, 0x00	; 0
    23a6:	eb 5c       	subi	r30, 0xCB	; 203
    23a8:	f0 4f       	sbci	r31, 0xF0	; 240
    23aa:	83 e5       	ldi	r24, 0x53	; 83
    23ac:	80 83       	st	Z, r24
    23ae:	07 c0       	rjmp	.+14     	; 0x23be <__stack+0x1bf>
	}else
	{
		buff_name[counter] = 's';
    23b0:	e0 91 2d 0f 	lds	r30, 0x0F2D	; 0x800f2d <counter>
    23b4:	f0 e0       	ldi	r31, 0x00	; 0
    23b6:	eb 5c       	subi	r30, 0xCB	; 203
    23b8:	f0 4f       	sbci	r31, 0xF0	; 240
    23ba:	83 e7       	ldi	r24, 0x73	; 115
    23bc:	80 83       	st	Z, r24
	}
	counter++;
    23be:	80 91 2d 0f 	lds	r24, 0x0F2D	; 0x800f2d <counter>
    23c2:	8f 5f       	subi	r24, 0xFF	; 255
    23c4:	80 93 2d 0f 	sts	0x0F2D, r24	; 0x800f2d <counter>
	break;
    23c8:	02 c1       	rjmp	.+516    	; 0x25ce <__stack+0x3cf>

	case T:
	if (Grossschreib == 1)
    23ca:	80 91 12 0a 	lds	r24, 0x0A12	; 0x800a12 <Grossschreib>
    23ce:	81 30       	cpi	r24, 0x01	; 1
    23d0:	41 f4       	brne	.+16     	; 0x23e2 <__stack+0x1e3>
	{
		buff_name[counter] = 'T';
    23d2:	e0 91 2d 0f 	lds	r30, 0x0F2D	; 0x800f2d <counter>
    23d6:	f0 e0       	ldi	r31, 0x00	; 0
    23d8:	eb 5c       	subi	r30, 0xCB	; 203
    23da:	f0 4f       	sbci	r31, 0xF0	; 240
    23dc:	84 e5       	ldi	r24, 0x54	; 84
    23de:	80 83       	st	Z, r24
    23e0:	07 c0       	rjmp	.+14     	; 0x23f0 <__stack+0x1f1>
	}else
	{
		buff_name[counter] = 't';
    23e2:	e0 91 2d 0f 	lds	r30, 0x0F2D	; 0x800f2d <counter>
    23e6:	f0 e0       	ldi	r31, 0x00	; 0
    23e8:	eb 5c       	subi	r30, 0xCB	; 203
    23ea:	f0 4f       	sbci	r31, 0xF0	; 240
    23ec:	84 e7       	ldi	r24, 0x74	; 116
    23ee:	80 83       	st	Z, r24
	}
	counter++;
    23f0:	80 91 2d 0f 	lds	r24, 0x0F2D	; 0x800f2d <counter>
    23f4:	8f 5f       	subi	r24, 0xFF	; 255
    23f6:	80 93 2d 0f 	sts	0x0F2D, r24	; 0x800f2d <counter>
	break;
    23fa:	e9 c0       	rjmp	.+466    	; 0x25ce <__stack+0x3cf>

	case U:
	if (Grossschreib == 1)
    23fc:	80 91 12 0a 	lds	r24, 0x0A12	; 0x800a12 <Grossschreib>
    2400:	81 30       	cpi	r24, 0x01	; 1
    2402:	41 f4       	brne	.+16     	; 0x2414 <__stack+0x215>
	{
		buff_name[counter] = 'U';
    2404:	e0 91 2d 0f 	lds	r30, 0x0F2D	; 0x800f2d <counter>
    2408:	f0 e0       	ldi	r31, 0x00	; 0
    240a:	eb 5c       	subi	r30, 0xCB	; 203
    240c:	f0 4f       	sbci	r31, 0xF0	; 240
    240e:	85 e5       	ldi	r24, 0x55	; 85
    2410:	80 83       	st	Z, r24
    2412:	07 c0       	rjmp	.+14     	; 0x2422 <__stack+0x223>
	}else
	{
		buff_name[counter] = 'u';
    2414:	e0 91 2d 0f 	lds	r30, 0x0F2D	; 0x800f2d <counter>
    2418:	f0 e0       	ldi	r31, 0x00	; 0
    241a:	eb 5c       	subi	r30, 0xCB	; 203
    241c:	f0 4f       	sbci	r31, 0xF0	; 240
    241e:	85 e7       	ldi	r24, 0x75	; 117
    2420:	80 83       	st	Z, r24
	}
	counter++;
    2422:	80 91 2d 0f 	lds	r24, 0x0F2D	; 0x800f2d <counter>
    2426:	8f 5f       	subi	r24, 0xFF	; 255
    2428:	80 93 2d 0f 	sts	0x0F2D, r24	; 0x800f2d <counter>
	break;
    242c:	d0 c0       	rjmp	.+416    	; 0x25ce <__stack+0x3cf>

	case V:
	if (Grossschreib == 1)
    242e:	80 91 12 0a 	lds	r24, 0x0A12	; 0x800a12 <Grossschreib>
    2432:	81 30       	cpi	r24, 0x01	; 1
    2434:	41 f4       	brne	.+16     	; 0x2446 <__stack+0x247>
	{
		buff_name[counter] = 'V';
    2436:	e0 91 2d 0f 	lds	r30, 0x0F2D	; 0x800f2d <counter>
    243a:	f0 e0       	ldi	r31, 0x00	; 0
    243c:	eb 5c       	subi	r30, 0xCB	; 203
    243e:	f0 4f       	sbci	r31, 0xF0	; 240
    2440:	86 e5       	ldi	r24, 0x56	; 86
    2442:	80 83       	st	Z, r24
    2444:	07 c0       	rjmp	.+14     	; 0x2454 <__stack+0x255>
	}else
	{
		buff_name[counter] = 'v';
    2446:	e0 91 2d 0f 	lds	r30, 0x0F2D	; 0x800f2d <counter>
    244a:	f0 e0       	ldi	r31, 0x00	; 0
    244c:	eb 5c       	subi	r30, 0xCB	; 203
    244e:	f0 4f       	sbci	r31, 0xF0	; 240
    2450:	86 e7       	ldi	r24, 0x76	; 118
    2452:	80 83       	st	Z, r24
	}
	counter++;
    2454:	80 91 2d 0f 	lds	r24, 0x0F2D	; 0x800f2d <counter>
    2458:	8f 5f       	subi	r24, 0xFF	; 255
    245a:	80 93 2d 0f 	sts	0x0F2D, r24	; 0x800f2d <counter>
	break;
    245e:	b7 c0       	rjmp	.+366    	; 0x25ce <__stack+0x3cf>

	case W:
	if (Grossschreib == 1)
    2460:	80 91 12 0a 	lds	r24, 0x0A12	; 0x800a12 <Grossschreib>
    2464:	81 30       	cpi	r24, 0x01	; 1
    2466:	41 f4       	brne	.+16     	; 0x2478 <__stack+0x279>
	{
		buff_name[counter] = 'W';
    2468:	e0 91 2d 0f 	lds	r30, 0x0F2D	; 0x800f2d <counter>
    246c:	f0 e0       	ldi	r31, 0x00	; 0
    246e:	eb 5c       	subi	r30, 0xCB	; 203
    2470:	f0 4f       	sbci	r31, 0xF0	; 240
    2472:	87 e5       	ldi	r24, 0x57	; 87
    2474:	80 83       	st	Z, r24
    2476:	07 c0       	rjmp	.+14     	; 0x2486 <__stack+0x287>
	}else
	{
		buff_name[counter] = 'w';
    2478:	e0 91 2d 0f 	lds	r30, 0x0F2D	; 0x800f2d <counter>
    247c:	f0 e0       	ldi	r31, 0x00	; 0
    247e:	eb 5c       	subi	r30, 0xCB	; 203
    2480:	f0 4f       	sbci	r31, 0xF0	; 240
    2482:	87 e7       	ldi	r24, 0x77	; 119
    2484:	80 83       	st	Z, r24
	}
	counter++;
    2486:	80 91 2d 0f 	lds	r24, 0x0F2D	; 0x800f2d <counter>
    248a:	8f 5f       	subi	r24, 0xFF	; 255
    248c:	80 93 2d 0f 	sts	0x0F2D, r24	; 0x800f2d <counter>
	break;
    2490:	9e c0       	rjmp	.+316    	; 0x25ce <__stack+0x3cf>

	case X:
	if (Grossschreib == 1)
    2492:	80 91 12 0a 	lds	r24, 0x0A12	; 0x800a12 <Grossschreib>
    2496:	81 30       	cpi	r24, 0x01	; 1
    2498:	41 f4       	brne	.+16     	; 0x24aa <__stack+0x2ab>
	{
		buff_name[counter] = 'X';
    249a:	e0 91 2d 0f 	lds	r30, 0x0F2D	; 0x800f2d <counter>
    249e:	f0 e0       	ldi	r31, 0x00	; 0
    24a0:	eb 5c       	subi	r30, 0xCB	; 203
    24a2:	f0 4f       	sbci	r31, 0xF0	; 240
    24a4:	88 e5       	ldi	r24, 0x58	; 88
    24a6:	80 83       	st	Z, r24
    24a8:	07 c0       	rjmp	.+14     	; 0x24b8 <__stack+0x2b9>
	}else
	{
		buff_name[counter] = 'x';
    24aa:	e0 91 2d 0f 	lds	r30, 0x0F2D	; 0x800f2d <counter>
    24ae:	f0 e0       	ldi	r31, 0x00	; 0
    24b0:	eb 5c       	subi	r30, 0xCB	; 203
    24b2:	f0 4f       	sbci	r31, 0xF0	; 240
    24b4:	88 e7       	ldi	r24, 0x78	; 120
    24b6:	80 83       	st	Z, r24
	}
	counter++;
    24b8:	80 91 2d 0f 	lds	r24, 0x0F2D	; 0x800f2d <counter>
    24bc:	8f 5f       	subi	r24, 0xFF	; 255
    24be:	80 93 2d 0f 	sts	0x0F2D, r24	; 0x800f2d <counter>
	break;
    24c2:	85 c0       	rjmp	.+266    	; 0x25ce <__stack+0x3cf>

	case Y:
	if (Grossschreib == 1)
    24c4:	80 91 12 0a 	lds	r24, 0x0A12	; 0x800a12 <Grossschreib>
    24c8:	81 30       	cpi	r24, 0x01	; 1
    24ca:	41 f4       	brne	.+16     	; 0x24dc <__stack+0x2dd>
	{
		buff_name[counter] = 'Y';
    24cc:	e0 91 2d 0f 	lds	r30, 0x0F2D	; 0x800f2d <counter>
    24d0:	f0 e0       	ldi	r31, 0x00	; 0
    24d2:	eb 5c       	subi	r30, 0xCB	; 203
    24d4:	f0 4f       	sbci	r31, 0xF0	; 240
    24d6:	89 e5       	ldi	r24, 0x59	; 89
    24d8:	80 83       	st	Z, r24
    24da:	07 c0       	rjmp	.+14     	; 0x24ea <__stack+0x2eb>
	}else
	{
		buff_name[counter] = 'y';
    24dc:	e0 91 2d 0f 	lds	r30, 0x0F2D	; 0x800f2d <counter>
    24e0:	f0 e0       	ldi	r31, 0x00	; 0
    24e2:	eb 5c       	subi	r30, 0xCB	; 203
    24e4:	f0 4f       	sbci	r31, 0xF0	; 240
    24e6:	89 e7       	ldi	r24, 0x79	; 121
    24e8:	80 83       	st	Z, r24
	}
	counter++;
    24ea:	80 91 2d 0f 	lds	r24, 0x0F2D	; 0x800f2d <counter>
    24ee:	8f 5f       	subi	r24, 0xFF	; 255
    24f0:	80 93 2d 0f 	sts	0x0F2D, r24	; 0x800f2d <counter>
	break;
    24f4:	6c c0       	rjmp	.+216    	; 0x25ce <__stack+0x3cf>

	case Z:
	if (Grossschreib == 1)
    24f6:	80 91 12 0a 	lds	r24, 0x0A12	; 0x800a12 <Grossschreib>
    24fa:	81 30       	cpi	r24, 0x01	; 1
    24fc:	41 f4       	brne	.+16     	; 0x250e <__stack+0x30f>
	{
		buff_name[counter] = 'Z';
    24fe:	e0 91 2d 0f 	lds	r30, 0x0F2D	; 0x800f2d <counter>
    2502:	f0 e0       	ldi	r31, 0x00	; 0
    2504:	eb 5c       	subi	r30, 0xCB	; 203
    2506:	f0 4f       	sbci	r31, 0xF0	; 240
    2508:	8a e5       	ldi	r24, 0x5A	; 90
    250a:	80 83       	st	Z, r24
    250c:	07 c0       	rjmp	.+14     	; 0x251c <__stack+0x31d>
	}else
	{
		buff_name[counter] = 'z';
    250e:	e0 91 2d 0f 	lds	r30, 0x0F2D	; 0x800f2d <counter>
    2512:	f0 e0       	ldi	r31, 0x00	; 0
    2514:	eb 5c       	subi	r30, 0xCB	; 203
    2516:	f0 4f       	sbci	r31, 0xF0	; 240
    2518:	8a e7       	ldi	r24, 0x7A	; 122
    251a:	80 83       	st	Z, r24
	}
	counter++;
    251c:	80 91 2d 0f 	lds	r24, 0x0F2D	; 0x800f2d <counter>
    2520:	8f 5f       	subi	r24, 0xFF	; 255
    2522:	80 93 2d 0f 	sts	0x0F2D, r24	; 0x800f2d <counter>
	break;
    2526:	53 c0       	rjmp	.+166    	; 0x25ce <__stack+0x3cf>
	case Fs:
		wechsel = 1;
	break;

	case DEL:
		counter--;
    2528:	e0 91 2d 0f 	lds	r30, 0x0F2D	; 0x800f2d <counter>
    252c:	e1 50       	subi	r30, 0x01	; 1
    252e:	e0 93 2d 0f 	sts	0x0F2D, r30	; 0x800f2d <counter>
		buff_name[counter] = '\0';
    2532:	f0 e0       	ldi	r31, 0x00	; 0
    2534:	eb 5c       	subi	r30, 0xCB	; 203
    2536:	f0 4f       	sbci	r31, 0xF0	; 240
    2538:	10 82       	st	Z, r1
	break;
    253a:	49 c0       	rjmp	.+146    	; 0x25ce <__stack+0x3cf>

	case ABBRECHEN4:
		lese_textfile_in_getraenk(tail_getraenk_file->file);
    253c:	e0 91 dc 08 	lds	r30, 0x08DC	; 0x8008dc <tail_getraenk_file>
    2540:	f0 91 dd 08 	lds	r31, 0x08DD	; 0x8008dd <tail_getraenk_file+0x1>
    2544:	80 81       	ld	r24, Z
    2546:	0e 94 1a 06 	call	0xc34	; 0xc34 <lese_textfile_in_getraenk>
		counter = 0;
    254a:	10 92 2d 0f 	sts	0x0F2D, r1	; 0x800f2d <counter>
    254e:	e5 e3       	ldi	r30, 0x35	; 53
    2550:	ff e0       	ldi	r31, 0x0F	; 15
    2552:	89 e4       	ldi	r24, 0x49	; 73
    2554:	9f e0       	ldi	r25, 0x0F	; 15
		for (int i = 0 ; i <20 ; i ++)
		{
			buff_name[i] = '\0';
    2556:	11 92       	st	Z+, r1
	break;

	case ABBRECHEN4:
		lese_textfile_in_getraenk(tail_getraenk_file->file);
		counter = 0;
		for (int i = 0 ; i <20 ; i ++)
    2558:	e8 17       	cp	r30, r24
    255a:	f9 07       	cpc	r31, r25
    255c:	e1 f7       	brne	.-8      	; 0x2556 <__stack+0x357>
		{
			buff_name[i] = '\0';
		}
		nextion_change_page(STARTANZEIGE);
    255e:	81 e0       	ldi	r24, 0x01	; 1
    2560:	0e 94 f6 1b 	call	0x37ec	; 0x37ec <nextion_change_page>
		setze_startanzeige(aktuellesGetraenk);
    2564:	80 91 69 12 	lds	r24, 0x1269	; 0x801269 <aktuellesGetraenk>
    2568:	90 91 6a 12 	lds	r25, 0x126A	; 0x80126a <aktuellesGetraenk+0x1>
    256c:	0e 94 fe 03 	call	0x7fc	; 0x7fc <setze_startanzeige>
	break;
    2570:	2e c0       	rjmp	.+92     	; 0x25ce <__stack+0x3cf>

	case LEERZEICHEN:
		buff_name[counter]= ' ';
    2572:	e0 91 2d 0f 	lds	r30, 0x0F2D	; 0x800f2d <counter>
    2576:	f0 e0       	ldi	r31, 0x00	; 0
    2578:	eb 5c       	subi	r30, 0xCB	; 203
    257a:	f0 4f       	sbci	r31, 0xF0	; 240
    257c:	80 e2       	ldi	r24, 0x20	; 32
    257e:	80 83       	st	Z, r24
	break;
    2580:	26 c0       	rjmp	.+76     	; 0x25ce <__stack+0x3cf>

	case OK:
		nextion_change_page(ERSTANZEIGE2);
    2582:	81 e1       	ldi	r24, 0x11	; 17
    2584:	0e 94 f6 1b 	call	0x37ec	; 0x37ec <nextion_change_page>
		for (int i = 0 ; i < 12 ; i++)
    2588:	80 e0       	ldi	r24, 0x00	; 0
    258a:	90 e0       	ldi	r25, 0x00	; 0
		{
			*(aktuellesGetraenk->mengen + i) = 0;
    258c:	e0 91 69 12 	lds	r30, 0x1269	; 0x801269 <aktuellesGetraenk>
    2590:	f0 91 6a 12 	lds	r31, 0x126A	; 0x80126a <aktuellesGetraenk+0x1>
    2594:	04 80       	ldd	r0, Z+4	; 0x04
    2596:	f5 81       	ldd	r31, Z+5	; 0x05
    2598:	e0 2d       	mov	r30, r0
    259a:	e8 0f       	add	r30, r24
    259c:	f9 1f       	adc	r31, r25
    259e:	10 82       	st	Z, r1
		buff_name[counter]= ' ';
	break;

	case OK:
		nextion_change_page(ERSTANZEIGE2);
		for (int i = 0 ; i < 12 ; i++)
    25a0:	01 96       	adiw	r24, 0x01	; 1
    25a2:	8c 30       	cpi	r24, 0x0C	; 12
    25a4:	91 05       	cpc	r25, r1
    25a6:	91 f7       	brne	.-28     	; 0x258c <__stack+0x38d>
		{
			*(aktuellesGetraenk->mengen + i) = 0;
		}
		i_Liste = 0;
    25a8:	10 92 61 12 	sts	0x1261, r1	; 0x801261 <i_Liste>
		erstelle_Liste_zutat("zutat");
    25ac:	8e ec       	ldi	r24, 0xCE	; 206
    25ae:	93 e0       	ldi	r25, 0x03	; 3
    25b0:	0e 94 d0 02 	call	0x5a0	; 0x5a0 <erstelle_Liste_zutat>
		counter = 0;
    25b4:	10 92 2d 0f 	sts	0x0F2D, r1	; 0x800f2d <counter>
	break;
    25b8:	0a c0       	rjmp	.+20     	; 0x25ce <__stack+0x3cf>
	}
	if (wechsel == 1)
		{
		if (Grossschreib == 1)
    25ba:	80 91 12 0a 	lds	r24, 0x0A12	; 0x800a12 <Grossschreib>
    25be:	81 30       	cpi	r24, 0x01	; 1
    25c0:	19 f4       	brne	.+6      	; 0x25c8 <__stack+0x3c9>
		{
			Grossschreib = 0;
    25c2:	10 92 12 0a 	sts	0x0A12, r1	; 0x800a12 <Grossschreib>
    25c6:	03 c0       	rjmp	.+6      	; 0x25ce <__stack+0x3cf>
		}
		else
		{
			Grossschreib = 1;
    25c8:	81 e0       	ldi	r24, 0x01	; 1
    25ca:	80 93 12 0a 	sts	0x0A12, r24	; 0x800a12 <Grossschreib>
		}
	}
	nextion_setText("neuername",(char *)buff_name);
    25ce:	65 e3       	ldi	r22, 0x35	; 53
    25d0:	7f e0       	ldi	r23, 0x0F	; 15
    25d2:	85 e7       	ldi	r24, 0x75	; 117
    25d4:	95 e0       	ldi	r25, 0x05	; 5
    25d6:	0e 94 15 1c 	call	0x382a	; 0x382a <nextion_setText>
	if (counter >= 19)
    25da:	80 91 2d 0f 	lds	r24, 0x0F2D	; 0x800f2d <counter>
    25de:	83 31       	cpi	r24, 0x13	; 19
    25e0:	18 f0       	brcs	.+6      	; 0x25e8 <__stack+0x3e9>
	{
		counter = 19;
    25e2:	83 e1       	ldi	r24, 0x13	; 19
    25e4:	80 93 2d 0f 	sts	0x0F2D, r24	; 0x800f2d <counter>
    25e8:	08 95       	ret

000025ea <check_erstanzeige2>:
	}
}

void check_erstanzeige2(uint8_t button)
{
    25ea:	bf 92       	push	r11
    25ec:	cf 92       	push	r12
    25ee:	df 92       	push	r13
    25f0:	ef 92       	push	r14
    25f2:	ff 92       	push	r15
    25f4:	0f 93       	push	r16
    25f6:	1f 93       	push	r17
    25f8:	cf 93       	push	r28
    25fa:	df 93       	push	r29
    25fc:	cd b7       	in	r28, 0x3d	; 61
    25fe:	de b7       	in	r29, 0x3e	; 62
    2600:	2f 97       	sbiw	r28, 0x0f	; 15
    2602:	0f b6       	in	r0, 0x3f	; 63
    2604:	f8 94       	cli
    2606:	de bf       	out	0x3e, r29	; 62
    2608:	0f be       	out	0x3f, r0	; 63
    260a:	cd bf       	out	0x3d, r28	; 61
	getraenk_file_t * tmp2;
	char save = 1;

	switch (button)
    260c:	84 30       	cpi	r24, 0x04	; 4
    260e:	09 f0       	breq	.+2      	; 0x2612 <check_erstanzeige2+0x28>
    2610:	6d c0       	rjmp	.+218    	; 0x26ec <check_erstanzeige2+0x102>
	case 4:
	
// Speicherattribute in aktuellesGetraenk bertragen.
	
	// buff_name kommt aus Textfeld der vorherigen Seiten.
	strcpy(aktuellesGetraenk->name, (const char *)buff_name);
    2612:	e0 91 69 12 	lds	r30, 0x1269	; 0x801269 <aktuellesGetraenk>
    2616:	f0 91 6a 12 	lds	r31, 0x126A	; 0x80126a <aktuellesGetraenk+0x1>
    261a:	65 e3       	ldi	r22, 0x35	; 53
    261c:	7f e0       	ldi	r23, 0x0F	; 15
    261e:	80 81       	ld	r24, Z
    2620:	91 81       	ldd	r25, Z+1	; 0x01
    2622:	0e 94 41 2e 	call	0x5c82	; 0x5c82 <strcpy>
	
	// Ob Alkohol oder nicht, kann nicht gesagt werden. (default = 1)
	
	
	// Das Bild wird defaultmssig auf 24 gestellt (Custom Cocktail).
		aktuellesGetraenk->picture = 24;
    2626:	e0 91 69 12 	lds	r30, 0x1269	; 0x801269 <aktuellesGetraenk>
    262a:	f0 91 6a 12 	lds	r31, 0x126A	; 0x80126a <aktuellesGetraenk+0x1>
    262e:	88 e1       	ldi	r24, 0x18	; 24
    2630:	86 83       	std	Z+6, r24	; 0x06
    2632:	01 e0       	ldi	r16, 0x01	; 1
    2634:	10 e0       	ldi	r17, 0x00	; 0
}

void check_erstanzeige2(uint8_t button)
{
	getraenk_file_t * tmp2;
	char save = 1;
    2636:	dd 24       	eor	r13, r13
    2638:	d3 94       	inc	r13
			
			// Whrend gesucht werden soll gilt save = 1.
			if (save)
			{
				// Text erstellen, um File-Nr. zu suchen.
				char buff[15] = {'\0'};
    263a:	0f 2e       	mov	r0, r31
    263c:	ff e0       	ldi	r31, 0x0F	; 15
    263e:	cf 2e       	mov	r12, r31
    2640:	f0 2d       	mov	r31, r0
    2642:	ce 01       	movw	r24, r28
    2644:	01 96       	adiw	r24, 0x01	; 1
    2646:	7c 01       	movw	r14, r24
				if(readFile(VERIFY, (unsigned char *)buff)!=1)
				{
					erstelle_File(i, buff_name, 1);
					tmp2 = create_new_getraenk_file(i);
					head_getraenk_file = insert_file_at_head(&head_getraenk_file, tmp2);
					save = 0;
    2648:	b1 2c       	mov	r11, r1
// Speichervorgang
		// Suche von 1 bis 100 durch die Files
		for (int8_t i = 1 ; i <= 100; i++){
			
			// Whrend gesucht werden soll gilt save = 1.
			if (save)
    264a:	dd 20       	and	r13, r13
    264c:	a9 f1       	breq	.+106    	; 0x26b8 <check_erstanzeige2+0xce>
			{
				// Text erstellen, um File-Nr. zu suchen.
				char buff[15] = {'\0'};
    264e:	f7 01       	movw	r30, r14
    2650:	8c 2d       	mov	r24, r12
    2652:	11 92       	st	Z+, r1
    2654:	8a 95       	dec	r24
    2656:	e9 f7       	brne	.-6      	; 0x2652 <check_erstanzeige2+0x68>
    2658:	4a e0       	ldi	r20, 0x0A	; 10
    265a:	b7 01       	movw	r22, r14
    265c:	c8 01       	movw	r24, r16
    265e:	0e 94 6f 2e 	call	0x5cde	; 0x5cde <__itoa_ncheck>
				itoa(i, (char *)buff,10);
				strcat((char *)buff, (const char *)".txt");
    2662:	d7 01       	movw	r26, r14
    2664:	0d 90       	ld	r0, X+
    2666:	00 20       	and	r0, r0
    2668:	e9 f7       	brne	.-6      	; 0x2664 <check_erstanzeige2+0x7a>
    266a:	11 97       	sbiw	r26, 0x01	; 1
    266c:	85 e0       	ldi	r24, 0x05	; 5
    266e:	e2 ef       	ldi	r30, 0xF2	; 242
    2670:	f5 e0       	ldi	r31, 0x05	; 5
    2672:	01 90       	ld	r0, Z+
    2674:	0d 92       	st	X+, r0
    2676:	8a 95       	dec	r24
    2678:	e1 f7       	brne	.-8      	; 0x2672 <check_erstanzeige2+0x88>
				
				// File Suchen
				if(readFile(VERIFY, (unsigned char *)buff)!=1)
    267a:	b7 01       	movw	r22, r14
    267c:	81 e0       	ldi	r24, 0x01	; 1
    267e:	0e 94 84 23 	call	0x4708	; 0x4708 <readFile>
    2682:	81 30       	cpi	r24, 0x01	; 1
    2684:	c9 f0       	breq	.+50     	; 0x26b8 <check_erstanzeige2+0xce>
				{
					erstelle_File(i, buff_name, 1);
    2686:	41 e0       	ldi	r20, 0x01	; 1
    2688:	65 e3       	ldi	r22, 0x35	; 53
    268a:	7f e0       	ldi	r23, 0x0F	; 15
    268c:	80 2f       	mov	r24, r16
    268e:	0e 94 a0 08 	call	0x1140	; 0x1140 <erstelle_File>
					tmp2 = create_new_getraenk_file(i);
    2692:	80 2f       	mov	r24, r16
    2694:	77 d3       	rcall	.+1774   	; 0x2d84 <create_new_getraenk_file>
					head_getraenk_file = insert_file_at_head(&head_getraenk_file, tmp2);
    2696:	bc 01       	movw	r22, r24
    2698:	80 e1       	ldi	r24, 0x10	; 16
    269a:	9a e0       	ldi	r25, 0x0A	; 10
    269c:	7f d3       	rcall	.+1790   	; 0x2d9c <insert_file_at_head>
    269e:	90 93 11 0a 	sts	0x0A11, r25	; 0x800a11 <head_getraenk_file+0x1>
    26a2:	80 93 10 0a 	sts	0x0A10, r24	; 0x800a10 <head_getraenk_file>
					save = 0;
					aktuellesGetraenk_file = head_getraenk_file;
    26a6:	90 93 0f 0a 	sts	0x0A0F, r25	; 0x800a0f <aktuellesGetraenk_file+0x1>
    26aa:	80 93 0e 0a 	sts	0x0A0E, r24	; 0x800a0e <aktuellesGetraenk_file>
					lese_textfile_in_getraenk(head_getraenk_file->file);
    26ae:	fc 01       	movw	r30, r24
    26b0:	80 81       	ld	r24, Z
    26b2:	0e 94 1a 06 	call	0xc34	; 0xc34 <lese_textfile_in_getraenk>
				if(readFile(VERIFY, (unsigned char *)buff)!=1)
				{
					erstelle_File(i, buff_name, 1);
					tmp2 = create_new_getraenk_file(i);
					head_getraenk_file = insert_file_at_head(&head_getraenk_file, tmp2);
					save = 0;
    26b6:	db 2c       	mov	r13, r11
    26b8:	0f 5f       	subi	r16, 0xFF	; 255
    26ba:	1f 4f       	sbci	r17, 0xFF	; 255
	// Das Bild wird defaultmssig auf 24 gestellt (Custom Cocktail).
		aktuellesGetraenk->picture = 24;
		
// Speichervorgang
		// Suche von 1 bis 100 durch die Files
		for (int8_t i = 1 ; i <= 100; i++){
    26bc:	05 36       	cpi	r16, 0x65	; 101
    26be:	11 05       	cpc	r17, r1
    26c0:	21 f6       	brne	.-120    	; 0x264a <check_erstanzeige2+0x60>
					aktuellesGetraenk_file = head_getraenk_file;
					lese_textfile_in_getraenk(head_getraenk_file->file);
				}
			}
		}
		nextion_change_page(STARTANZEIGE);
    26c2:	81 e0       	ldi	r24, 0x01	; 1
    26c4:	0e 94 f6 1b 	call	0x37ec	; 0x37ec <nextion_change_page>
		setze_startanzeige(aktuellesGetraenk);
    26c8:	80 91 69 12 	lds	r24, 0x1269	; 0x801269 <aktuellesGetraenk>
    26cc:	90 91 6a 12 	lds	r25, 0x126A	; 0x80126a <aktuellesGetraenk+0x1>
    26d0:	0e 94 fe 03 	call	0x7fc	; 0x7fc <setze_startanzeige>
		counter = 0;
    26d4:	10 92 2d 0f 	sts	0x0F2D, r1	; 0x800f2d <counter>
		i_Liste = 0;
    26d8:	10 92 61 12 	sts	0x1261, r1	; 0x801261 <i_Liste>
    26dc:	e5 e3       	ldi	r30, 0x35	; 53
    26de:	ff e0       	ldi	r31, 0x0F	; 15
    26e0:	89 e4       	ldi	r24, 0x49	; 73
    26e2:	9f e0       	ldi	r25, 0x0F	; 15
		for (int i = 0 ; i <20 ; i ++)
		{
			buff_name[i] = '\0';
    26e4:	11 92       	st	Z+, r1
		}
		nextion_change_page(STARTANZEIGE);
		setze_startanzeige(aktuellesGetraenk);
		counter = 0;
		i_Liste = 0;
		for (int i = 0 ; i <20 ; i ++)
    26e6:	e8 17       	cp	r30, r24
    26e8:	f9 07       	cpc	r31, r25
    26ea:	e1 f7       	brne	.-8      	; 0x26e4 <check_erstanzeige2+0xfa>
		{
			buff_name[i] = '\0';
		}
	break;
	}
}
    26ec:	2f 96       	adiw	r28, 0x0f	; 15
    26ee:	0f b6       	in	r0, 0x3f	; 63
    26f0:	f8 94       	cli
    26f2:	de bf       	out	0x3e, r29	; 62
    26f4:	0f be       	out	0x3f, r0	; 63
    26f6:	cd bf       	out	0x3d, r28	; 61
    26f8:	df 91       	pop	r29
    26fa:	cf 91       	pop	r28
    26fc:	1f 91       	pop	r17
    26fe:	0f 91       	pop	r16
    2700:	ff 90       	pop	r15
    2702:	ef 90       	pop	r14
    2704:	df 90       	pop	r13
    2706:	cf 90       	pop	r12
    2708:	bf 90       	pop	r11
    270a:	08 95       	ret

0000270c <check_loeschanzeige>:

void check_loeschanzeige(uint8_t button)
{
    270c:	0f 93       	push	r16
    270e:	1f 93       	push	r17
    2710:	cf 93       	push	r28
    2712:	df 93       	push	r29
    2714:	cd b7       	in	r28, 0x3d	; 61
    2716:	de b7       	in	r29, 0x3e	; 62
    2718:	64 97       	sbiw	r28, 0x14	; 20
    271a:	0f b6       	in	r0, 0x3f	; 63
    271c:	f8 94       	cli
    271e:	de bf       	out	0x3e, r29	; 62
    2720:	0f be       	out	0x3f, r0	; 63
    2722:	cd bf       	out	0x3d, r28	; 61
	switch (button)
    2724:	81 30       	cpi	r24, 0x01	; 1
    2726:	21 f0       	breq	.+8      	; 0x2730 <check_loeschanzeige+0x24>
    2728:	82 30       	cpi	r24, 0x02	; 2
    272a:	09 f4       	brne	.+2      	; 0x272e <check_loeschanzeige+0x22>
    272c:	78 c0       	rjmp	.+240    	; 0x281e <check_loeschanzeige+0x112>
    272e:	7f c0       	rjmp	.+254    	; 0x282e <check_loeschanzeige+0x122>
	{
	case JA:
	if (aktuellesGetraenk_file == tail_getraenk_file)
    2730:	e0 91 0e 0a 	lds	r30, 0x0A0E	; 0x800a0e <aktuellesGetraenk_file>
    2734:	f0 91 0f 0a 	lds	r31, 0x0A0F	; 0x800a0f <aktuellesGetraenk_file+0x1>
    2738:	80 91 dc 08 	lds	r24, 0x08DC	; 0x8008dc <tail_getraenk_file>
    273c:	90 91 dd 08 	lds	r25, 0x08DD	; 0x8008dd <tail_getraenk_file+0x1>
    2740:	e8 17       	cp	r30, r24
    2742:	f9 07       	cpc	r31, r25
    2744:	c9 f4       	brne	.+50     	; 0x2778 <check_loeschanzeige+0x6c>
	{
		tail_getraenk_file = aktuellesGetraenk_file->prev;
    2746:	a3 81       	ldd	r26, Z+3	; 0x03
    2748:	b4 81       	ldd	r27, Z+4	; 0x04
    274a:	b0 93 dd 08 	sts	0x08DD, r27	; 0x8008dd <tail_getraenk_file+0x1>
    274e:	a0 93 dc 08 	sts	0x08DC, r26	; 0x8008dc <tail_getraenk_file>
		(aktuellesGetraenk_file->prev)->next = aktuellesGetraenk_file->next;
    2752:	81 81       	ldd	r24, Z+1	; 0x01
    2754:	92 81       	ldd	r25, Z+2	; 0x02
    2756:	12 96       	adiw	r26, 0x02	; 2
    2758:	9c 93       	st	X, r25
    275a:	8e 93       	st	-X, r24
    275c:	11 97       	sbiw	r26, 0x01	; 1
		(aktuellesGetraenk_file->next)->prev = aktuellesGetraenk_file->prev;
    275e:	e0 91 0e 0a 	lds	r30, 0x0A0E	; 0x800a0e <aktuellesGetraenk_file>
    2762:	f0 91 0f 0a 	lds	r31, 0x0A0F	; 0x800a0f <aktuellesGetraenk_file+0x1>
    2766:	a1 81       	ldd	r26, Z+1	; 0x01
    2768:	b2 81       	ldd	r27, Z+2	; 0x02
    276a:	83 81       	ldd	r24, Z+3	; 0x03
    276c:	94 81       	ldd	r25, Z+4	; 0x04
    276e:	14 96       	adiw	r26, 0x04	; 4
    2770:	9c 93       	st	X, r25
    2772:	8e 93       	st	-X, r24
    2774:	13 97       	sbiw	r26, 0x03	; 3
    2776:	22 c0       	rjmp	.+68     	; 0x27bc <check_loeschanzeige+0xb0>
	}
	else if (aktuellesGetraenk_file == head_getraenk_file)
    2778:	80 91 10 0a 	lds	r24, 0x0A10	; 0x800a10 <head_getraenk_file>
    277c:	90 91 11 0a 	lds	r25, 0x0A11	; 0x800a11 <head_getraenk_file+0x1>
    2780:	e8 17       	cp	r30, r24
    2782:	f9 07       	cpc	r31, r25
    2784:	39 f4       	brne	.+14     	; 0x2794 <check_loeschanzeige+0x88>
	{
		head_getraenk_file = aktuellesGetraenk_file->next;
    2786:	81 81       	ldd	r24, Z+1	; 0x01
    2788:	92 81       	ldd	r25, Z+2	; 0x02
    278a:	90 93 11 0a 	sts	0x0A11, r25	; 0x800a11 <head_getraenk_file+0x1>
    278e:	80 93 10 0a 	sts	0x0A10, r24	; 0x800a10 <head_getraenk_file>
    2792:	14 c0       	rjmp	.+40     	; 0x27bc <check_loeschanzeige+0xb0>
	}
	else
	{
		(aktuellesGetraenk_file->prev)->next = aktuellesGetraenk_file->next;
    2794:	a3 81       	ldd	r26, Z+3	; 0x03
    2796:	b4 81       	ldd	r27, Z+4	; 0x04
    2798:	81 81       	ldd	r24, Z+1	; 0x01
    279a:	92 81       	ldd	r25, Z+2	; 0x02
    279c:	12 96       	adiw	r26, 0x02	; 2
    279e:	9c 93       	st	X, r25
    27a0:	8e 93       	st	-X, r24
    27a2:	11 97       	sbiw	r26, 0x01	; 1
		(aktuellesGetraenk_file->next)->prev = aktuellesGetraenk_file->prev;
    27a4:	e0 91 0e 0a 	lds	r30, 0x0A0E	; 0x800a0e <aktuellesGetraenk_file>
    27a8:	f0 91 0f 0a 	lds	r31, 0x0A0F	; 0x800a0f <aktuellesGetraenk_file+0x1>
    27ac:	a1 81       	ldd	r26, Z+1	; 0x01
    27ae:	b2 81       	ldd	r27, Z+2	; 0x02
    27b0:	83 81       	ldd	r24, Z+3	; 0x03
    27b2:	94 81       	ldd	r25, Z+4	; 0x04
    27b4:	14 96       	adiw	r26, 0x04	; 4
    27b6:	9c 93       	st	X, r25
    27b8:	8e 93       	st	-X, r24
    27ba:	13 97       	sbiw	r26, 0x03	; 3
	}
		char buff[20];
		itoa(aktuellesGetraenk_file->file, (char *)buff, 10);
    27bc:	e0 91 0e 0a 	lds	r30, 0x0A0E	; 0x800a0e <aktuellesGetraenk_file>
    27c0:	f0 91 0f 0a 	lds	r31, 0x0A0F	; 0x800a0f <aktuellesGetraenk_file+0x1>
    27c4:	80 81       	ld	r24, Z
    27c6:	4a e0       	ldi	r20, 0x0A	; 10
    27c8:	8e 01       	movw	r16, r28
    27ca:	0f 5f       	subi	r16, 0xFF	; 255
    27cc:	1f 4f       	sbci	r17, 0xFF	; 255
    27ce:	b8 01       	movw	r22, r16
    27d0:	90 e0       	ldi	r25, 0x00	; 0
    27d2:	0e 94 6f 2e 	call	0x5cde	; 0x5cde <__itoa_ncheck>
		strcat((char *) buff,(const char *)".txt");
    27d6:	d8 01       	movw	r26, r16
    27d8:	0d 90       	ld	r0, X+
    27da:	00 20       	and	r0, r0
    27dc:	e9 f7       	brne	.-6      	; 0x27d8 <check_loeschanzeige+0xcc>
    27de:	11 97       	sbiw	r26, 0x01	; 1
    27e0:	85 e0       	ldi	r24, 0x05	; 5
    27e2:	e2 ef       	ldi	r30, 0xF2	; 242
    27e4:	f5 e0       	ldi	r31, 0x05	; 5
    27e6:	01 90       	ld	r0, Z+
    27e8:	0d 92       	st	X+, r0
    27ea:	8a 95       	dec	r24
    27ec:	e1 f7       	brne	.-8      	; 0x27e6 <check_loeschanzeige+0xda>
		deleteFile((unsigned char *)buff);
    27ee:	c8 01       	movw	r24, r16
    27f0:	0e 94 62 24 	call	0x48c4	; 0x48c4 <deleteFile>
		aktuellesGetraenk_file = aktuellesGetraenk_file->next;
    27f4:	e0 91 0e 0a 	lds	r30, 0x0A0E	; 0x800a0e <aktuellesGetraenk_file>
    27f8:	f0 91 0f 0a 	lds	r31, 0x0A0F	; 0x800a0f <aktuellesGetraenk_file+0x1>
    27fc:	01 80       	ldd	r0, Z+1	; 0x01
    27fe:	f2 81       	ldd	r31, Z+2	; 0x02
    2800:	e0 2d       	mov	r30, r0
    2802:	f0 93 0f 0a 	sts	0x0A0F, r31	; 0x800a0f <aktuellesGetraenk_file+0x1>
    2806:	e0 93 0e 0a 	sts	0x0A0E, r30	; 0x800a0e <aktuellesGetraenk_file>
		lese_textfile_in_getraenk(aktuellesGetraenk_file->file);
    280a:	80 81       	ld	r24, Z
    280c:	0e 94 1a 06 	call	0xc34	; 0xc34 <lese_textfile_in_getraenk>
		setze_startanzeige(aktuellesGetraenk);
    2810:	80 91 69 12 	lds	r24, 0x1269	; 0x801269 <aktuellesGetraenk>
    2814:	90 91 6a 12 	lds	r25, 0x126A	; 0x80126a <aktuellesGetraenk+0x1>
    2818:	0e 94 fe 03 	call	0x7fc	; 0x7fc <setze_startanzeige>
	break;
    281c:	08 c0       	rjmp	.+16     	; 0x282e <check_loeschanzeige+0x122>
	case NEIN:
		nextion_change_page(STARTANZEIGE);
    281e:	81 e0       	ldi	r24, 0x01	; 1
    2820:	e5 d7       	rcall	.+4042   	; 0x37ec <nextion_change_page>
		setze_startanzeige(aktuellesGetraenk);
    2822:	80 91 69 12 	lds	r24, 0x1269	; 0x801269 <aktuellesGetraenk>
    2826:	90 91 6a 12 	lds	r25, 0x126A	; 0x80126a <aktuellesGetraenk+0x1>
    282a:	0e 94 fe 03 	call	0x7fc	; 0x7fc <setze_startanzeige>
	break;
	}
}
    282e:	64 96       	adiw	r28, 0x14	; 20
    2830:	0f b6       	in	r0, 0x3f	; 63
    2832:	f8 94       	cli
    2834:	de bf       	out	0x3e, r29	; 62
    2836:	0f be       	out	0x3f, r0	; 63
    2838:	cd bf       	out	0x3d, r28	; 61
    283a:	df 91       	pop	r29
    283c:	cf 91       	pop	r28
    283e:	1f 91       	pop	r17
    2840:	0f 91       	pop	r16
    2842:	08 95       	ret

00002844 <check_posanzeige>:

void check_posanzeige(uint8_t button)
{
	switch (button)
    2844:	90 e0       	ldi	r25, 0x00	; 0
    2846:	fc 01       	movw	r30, r24
    2848:	31 97       	sbiw	r30, 0x01	; 1
    284a:	ed 30       	cpi	r30, 0x0D	; 13
    284c:	f1 05       	cpc	r31, r1
    284e:	08 f0       	brcs	.+2      	; 0x2852 <check_posanzeige+0xe>
    2850:	74 c0       	rjmp	.+232    	; 0x293a <check_posanzeige+0xf6>
    2852:	88 27       	eor	r24, r24
    2854:	e0 52       	subi	r30, 0x20	; 32
    2856:	ff 4f       	sbci	r31, 0xFF	; 255
    2858:	8f 4f       	sbci	r24, 0xFF	; 255
    285a:	0c 94 b3 2c 	jmp	0x5966	; 0x5966 <__tablejump2__>
		case B0:
/*		0x01 = 0b01
			- Wechsle auf Flssigkeitsanzeige
			- 
*/
			nextion_change_page(FLUESSANZEIGE1);
    285e:	84 e1       	ldi	r24, 0x14	; 20
    2860:	c5 d7       	rcall	.+3978   	; 0x37ec <nextion_change_page>
			i_Liste = 0;
    2862:	10 92 61 12 	sts	0x1261, r1	; 0x801261 <i_Liste>
			erstelle_Liste_Zutat_Pos("fluessigkeit");
    2866:	8f e7       	ldi	r24, 0x7F	; 127
    2868:	95 e0       	ldi	r25, 0x05	; 5
    286a:	0c 94 e9 09 	jmp	0x13d2	; 0x13d2 <erstelle_Liste_Zutat_Pos>
		break;
    286e:	08 95       	ret
		case B1:
/*		0x02 = 0b02
			- Wechsle auf Zutatenanzeige
			- 
*/
			nextion_change_page(FLUESSANZEIGE1);
    2870:	84 e1       	ldi	r24, 0x14	; 20
    2872:	bc d7       	rcall	.+3960   	; 0x37ec <nextion_change_page>
			i_Liste = 0;
    2874:	10 92 61 12 	sts	0x1261, r1	; 0x801261 <i_Liste>
			erstelle_Liste_Zutat_Pos("fluessigkeit");
    2878:	8f e7       	ldi	r24, 0x7F	; 127
    287a:	95 e0       	ldi	r25, 0x05	; 5
    287c:	0c 94 e9 09 	jmp	0x13d2	; 0x13d2 <erstelle_Liste_Zutat_Pos>
		break;
    2880:	08 95       	ret
		case B2:
/*		0x03 = 0b03
			- Wechsle auf Zutatenanzeige
			- 
*/
			nextion_change_page(FLUESSANZEIGE1);
    2882:	84 e1       	ldi	r24, 0x14	; 20
    2884:	b3 d7       	rcall	.+3942   	; 0x37ec <nextion_change_page>
			i_Liste = 0;
    2886:	10 92 61 12 	sts	0x1261, r1	; 0x801261 <i_Liste>
			erstelle_Liste_Zutat_Pos("fluessigkeit");
    288a:	8f e7       	ldi	r24, 0x7F	; 127
    288c:	95 e0       	ldi	r25, 0x05	; 5
    288e:	0c 94 e9 09 	jmp	0x13d2	; 0x13d2 <erstelle_Liste_Zutat_Pos>
		break;
    2892:	08 95       	ret
		case B3:
/*		0x04 = 0b04
			- Wechsle auf Zutatenanzeige
			- 
*/
			nextion_change_page(FLUESSANZEIGE1);
    2894:	84 e1       	ldi	r24, 0x14	; 20
    2896:	aa d7       	rcall	.+3924   	; 0x37ec <nextion_change_page>
			i_Liste = 0;
    2898:	10 92 61 12 	sts	0x1261, r1	; 0x801261 <i_Liste>
			erstelle_Liste_Zutat_Pos("fluessigkeit");
    289c:	8f e7       	ldi	r24, 0x7F	; 127
    289e:	95 e0       	ldi	r25, 0x05	; 5
    28a0:	0c 94 e9 09 	jmp	0x13d2	; 0x13d2 <erstelle_Liste_Zutat_Pos>
		case B4:
/*		0x05 = 0b05
			- Wechsle auf Zutatenanzeige
			- 
*/
			nextion_change_page(FLUESSANZEIGE1);
    28a4:	08 95       	ret
    28a6:	84 e1       	ldi	r24, 0x14	; 20
    28a8:	a1 d7       	rcall	.+3906   	; 0x37ec <nextion_change_page>
			i_Liste = 0;
    28aa:	10 92 61 12 	sts	0x1261, r1	; 0x801261 <i_Liste>
			erstelle_Liste_Zutat_Pos("fluessigkeit");
    28ae:	8f e7       	ldi	r24, 0x7F	; 127
    28b0:	95 e0       	ldi	r25, 0x05	; 5
    28b2:	0c 94 e9 09 	jmp	0x13d2	; 0x13d2 <erstelle_Liste_Zutat_Pos>
		case B5:
/*		0x06 = 0b06
			- Wechsle auf Zutatenanzeige
			- 
*/
			nextion_change_page(FLUESSANZEIGE1);
    28b6:	08 95       	ret
    28b8:	84 e1       	ldi	r24, 0x14	; 20
    28ba:	98 d7       	rcall	.+3888   	; 0x37ec <nextion_change_page>
			i_Liste = 0;
    28bc:	10 92 61 12 	sts	0x1261, r1	; 0x801261 <i_Liste>
			erstelle_Liste_Zutat_Pos("fluessigkeit");
    28c0:	8f e7       	ldi	r24, 0x7F	; 127
    28c2:	95 e0       	ldi	r25, 0x05	; 5
    28c4:	0c 94 e9 09 	jmp	0x13d2	; 0x13d2 <erstelle_Liste_Zutat_Pos>
		case B6:
/*		0x07 = 0b07
			- Wechsle auf Zutatenanzeige
			- 
*/
			nextion_change_page(FLUESSANZEIGE1);
    28c8:	08 95       	ret
    28ca:	84 e1       	ldi	r24, 0x14	; 20
    28cc:	8f d7       	rcall	.+3870   	; 0x37ec <nextion_change_page>
			i_Liste = 0;
    28ce:	10 92 61 12 	sts	0x1261, r1	; 0x801261 <i_Liste>
			erstelle_Liste_Zutat_Pos("fluessigkeit");
    28d2:	8f e7       	ldi	r24, 0x7F	; 127
    28d4:	95 e0       	ldi	r25, 0x05	; 5
    28d6:	0c 94 e9 09 	jmp	0x13d2	; 0x13d2 <erstelle_Liste_Zutat_Pos>
		case B7:
/*		0x08 = 0b08
			- Wechsle auf Zutatenanzeige
			- 
*/
			nextion_change_page(FLUESSANZEIGE1);
    28da:	08 95       	ret
    28dc:	84 e1       	ldi	r24, 0x14	; 20
    28de:	86 d7       	rcall	.+3852   	; 0x37ec <nextion_change_page>
			i_Liste = 0;
    28e0:	10 92 61 12 	sts	0x1261, r1	; 0x801261 <i_Liste>
			erstelle_Liste_Zutat_Pos("fluessigkeit");
    28e4:	8f e7       	ldi	r24, 0x7F	; 127
    28e6:	95 e0       	ldi	r25, 0x05	; 5
    28e8:	0c 94 e9 09 	jmp	0x13d2	; 0x13d2 <erstelle_Liste_Zutat_Pos>
		case B8:
/*		0x09 = 0b09
			- Wechsle auf Zutatenanzeige
			- 
*/
			nextion_change_page(FLUESSANZEIGE1);
    28ec:	08 95       	ret
    28ee:	84 e1       	ldi	r24, 0x14	; 20
    28f0:	7d d7       	rcall	.+3834   	; 0x37ec <nextion_change_page>
			i_Liste = 0;
    28f2:	10 92 61 12 	sts	0x1261, r1	; 0x801261 <i_Liste>
			erstelle_Liste_Zutat_Pos("fluessigkeit");
    28f6:	8f e7       	ldi	r24, 0x7F	; 127
    28f8:	95 e0       	ldi	r25, 0x05	; 5
    28fa:	0c 94 e9 09 	jmp	0x13d2	; 0x13d2 <erstelle_Liste_Zutat_Pos>
		case B9:
/*		0x0A = 0b10
			- Wechsle auf Zutatenanzeige
			- 
*/
			nextion_change_page(FLUESSANZEIGE1);
    28fe:	08 95       	ret
    2900:	84 e1       	ldi	r24, 0x14	; 20
    2902:	74 d7       	rcall	.+3816   	; 0x37ec <nextion_change_page>
			i_Liste = 0;
    2904:	10 92 61 12 	sts	0x1261, r1	; 0x801261 <i_Liste>
			erstelle_Liste_Zutat_Pos("fluessigkeit");
    2908:	8f e7       	ldi	r24, 0x7F	; 127
    290a:	95 e0       	ldi	r25, 0x05	; 5
    290c:	0c 94 e9 09 	jmp	0x13d2	; 0x13d2 <erstelle_Liste_Zutat_Pos>
		case B10:
/*		0x0B = 0b11
			- Wechsle auf Zutatenanzeige
			- 
*/
			nextion_change_page(FLUESSANZEIGE1);
    2910:	08 95       	ret
    2912:	84 e1       	ldi	r24, 0x14	; 20
			i_Liste = 0;
    2914:	6b d7       	rcall	.+3798   	; 0x37ec <nextion_change_page>
    2916:	10 92 61 12 	sts	0x1261, r1	; 0x801261 <i_Liste>
			erstelle_Liste_Zutat_Pos("fluessigkeit");
    291a:	8f e7       	ldi	r24, 0x7F	; 127
    291c:	95 e0       	ldi	r25, 0x05	; 5
    291e:	0c 94 e9 09 	jmp	0x13d2	; 0x13d2 <erstelle_Liste_Zutat_Pos>
		case B11:
/*		0x12 = 0b12
			- Wechsle auf Zutatenanzeige
			- 
*/
			nextion_change_page(FLUESSANZEIGE1);
    2922:	08 95       	ret
    2924:	84 e1       	ldi	r24, 0x14	; 20
			i_Liste = 0;
    2926:	62 d7       	rcall	.+3780   	; 0x37ec <nextion_change_page>
    2928:	10 92 61 12 	sts	0x1261, r1	; 0x801261 <i_Liste>
			erstelle_Liste_Zutat_Pos("fluessigkeit");
    292c:	8f e7       	ldi	r24, 0x7F	; 127
    292e:	95 e0       	ldi	r25, 0x05	; 5
    2930:	0c 94 e9 09 	jmp	0x13d2	; 0x13d2 <erstelle_Liste_Zutat_Pos>
		case ZURUECK3:
/*		0x12 = 0b12
			- Wechsle auf Zutatenanzeige
			- 
*/
			nextion_change_page(STARTANZEIGE);
    2934:	08 95       	ret
    2936:	81 e0       	ldi	r24, 0x01	; 1
    2938:	59 c7       	rjmp	.+3762   	; 0x37ec <nextion_change_page>
    293a:	08 95       	ret

0000293c <check_fluessanzeige1>:
	}
}

void check_fluessanzeige1(uint8_t button)
{
	switch (button)
    293c:	90 e0       	ldi	r25, 0x00	; 0
    293e:	fc 01       	movw	r30, r24
    2940:	31 97       	sbiw	r30, 0x01	; 1
    2942:	ea 30       	cpi	r30, 0x0A	; 10
    2944:	f1 05       	cpc	r31, r1
    2946:	08 f0       	brcs	.+2      	; 0x294a <check_fluessanzeige1+0xe>
    2948:	59 c0       	rjmp	.+178    	; 0x29fc <check_fluessanzeige1+0xc0>
    294a:	88 27       	eor	r24, r24
    294c:	e3 51       	subi	r30, 0x13	; 19
    294e:	ff 4f       	sbci	r31, 0xFF	; 255
    2950:	8f 4f       	sbci	r24, 0xFF	; 255
    2952:	0c 94 b3 2c 	jmp	0x5966	; 0x5966 <__tablejump2__>
		case FLUESSIGKEIT1:
/*		0x01 = 0b01
			- Wechsle auf Zutatenanzeige
			- 
*/
			setze_startanzeige(aktuellesGetraenk);
    2956:	80 91 69 12 	lds	r24, 0x1269	; 0x801269 <aktuellesGetraenk>
    295a:	90 91 6a 12 	lds	r25, 0x126A	; 0x80126a <aktuellesGetraenk+0x1>
    295e:	0c 94 fe 03 	jmp	0x7fc	; 0x7fc <setze_startanzeige>
		break;
    2962:	08 95       	ret
		case FLUESSIGKEIT2:
/*		0x02 = 0b02
			- Wechsle auf Zutatenanzeige
			- 
*/		
			setze_startanzeige(aktuellesGetraenk);
    2964:	80 91 69 12 	lds	r24, 0x1269	; 0x801269 <aktuellesGetraenk>
    2968:	90 91 6a 12 	lds	r25, 0x126A	; 0x80126a <aktuellesGetraenk+0x1>
    296c:	0c 94 fe 03 	jmp	0x7fc	; 0x7fc <setze_startanzeige>
		break;
    2970:	08 95       	ret
		case FLUESSIGKEIT3:
/*		0x03 = 0b03
			- Wechsle auf Zutatenanzeige
			- 
*/
			setze_startanzeige(aktuellesGetraenk);
    2972:	80 91 69 12 	lds	r24, 0x1269	; 0x801269 <aktuellesGetraenk>
    2976:	90 91 6a 12 	lds	r25, 0x126A	; 0x80126a <aktuellesGetraenk+0x1>
    297a:	0c 94 fe 03 	jmp	0x7fc	; 0x7fc <setze_startanzeige>
		break;
    297e:	08 95       	ret
		case FLUESSIGKEIT4:
/*		0x04 = 0b04
			- Wechsle auf Zutatenanzeige
			- 
*/
			setze_startanzeige(aktuellesGetraenk);
    2980:	80 91 69 12 	lds	r24, 0x1269	; 0x801269 <aktuellesGetraenk>
    2984:	90 91 6a 12 	lds	r25, 0x126A	; 0x80126a <aktuellesGetraenk+0x1>
    2988:	0c 94 fe 03 	jmp	0x7fc	; 0x7fc <setze_startanzeige>
		break;
    298c:	08 95       	ret
		case FLUESSIGKEIT5:
/*		0x05 = 0b05
			- Wechsle auf Zutatenanzeige
			- 
*/
			setze_startanzeige(aktuellesGetraenk);
    298e:	80 91 69 12 	lds	r24, 0x1269	; 0x801269 <aktuellesGetraenk>
    2992:	90 91 6a 12 	lds	r25, 0x126A	; 0x80126a <aktuellesGetraenk+0x1>
    2996:	0c 94 fe 03 	jmp	0x7fc	; 0x7fc <setze_startanzeige>
		break;
    299a:	08 95       	ret
		case FLUESSIGKEIT6:
/*		0x06 = 0b06
			- Wechsle auf Zutatenanzeige
			- 
*/
			setze_startanzeige(aktuellesGetraenk);
    299c:	80 91 69 12 	lds	r24, 0x1269	; 0x801269 <aktuellesGetraenk>
    29a0:	90 91 6a 12 	lds	r25, 0x126A	; 0x80126a <aktuellesGetraenk+0x1>
    29a4:	0c 94 fe 03 	jmp	0x7fc	; 0x7fc <setze_startanzeige>
		break;
    29a8:	08 95       	ret
		case RAUFLIST5:
/*		0x07 = 0b07
			- Wechsle auf Zutatenanzeige
			- 
*/
			block_list_runter = 0;
    29aa:	10 92 19 0a 	sts	0x0A19, r1	; 0x800a19 <block_list_runter>
			if (!block_list_hoch)
    29ae:	80 91 26 0e 	lds	r24, 0x0E26	; 0x800e26 <block_list_hoch>
    29b2:	81 11       	cpse	r24, r1
    29b4:	23 c0       	rjmp	.+70     	; 0x29fc <check_fluessanzeige1+0xc0>
			{
				i_Liste -= 6;
    29b6:	80 91 61 12 	lds	r24, 0x1261	; 0x801261 <i_Liste>
    29ba:	86 50       	subi	r24, 0x06	; 6
    29bc:	80 93 61 12 	sts	0x1261, r24	; 0x801261 <i_Liste>
				erstelle_Liste_Zutat_Pos("fluessigkeit");
    29c0:	8f e7       	ldi	r24, 0x7F	; 127
    29c2:	95 e0       	ldi	r25, 0x05	; 5
    29c4:	0c 94 e9 09 	jmp	0x13d2	; 0x13d2 <erstelle_Liste_Zutat_Pos>
    29c8:	08 95       	ret
		case RUNTERLIST5:
/*		0x08 = 0b08
			- Wechsle auf Zutatenanzeige
			- 
*/
			block_list_hoch = 0;
    29ca:	10 92 26 0e 	sts	0x0E26, r1	; 0x800e26 <block_list_hoch>
			if (!block_list_runter)
    29ce:	80 91 19 0a 	lds	r24, 0x0A19	; 0x800a19 <block_list_runter>
    29d2:	81 11       	cpse	r24, r1
    29d4:	13 c0       	rjmp	.+38     	; 0x29fc <check_fluessanzeige1+0xc0>
			{
				i_Liste += 6;
    29d6:	80 91 61 12 	lds	r24, 0x1261	; 0x801261 <i_Liste>
    29da:	8a 5f       	subi	r24, 0xFA	; 250
    29dc:	80 93 61 12 	sts	0x1261, r24	; 0x801261 <i_Liste>
				erstelle_Liste_Zutat_Pos("fluessigkeit");
    29e0:	8f e7       	ldi	r24, 0x7F	; 127
    29e2:	95 e0       	ldi	r25, 0x05	; 5
    29e4:	0c 94 e9 09 	jmp	0x13d2	; 0x13d2 <erstelle_Liste_Zutat_Pos>
    29e8:	08 95       	ret
		case NEUEFLUESSIGKEIT:
/*		0x09 = 0b09
			- Wechsle auf Zutatenanzeige
			- 
*/
			nextion_change_page(FLUESSANZEIGE2);
    29ea:	85 e1       	ldi	r24, 0x15	; 21
    29ec:	ff c6       	rjmp	.+3582   	; 0x37ec <nextion_change_page>
		break;
    29ee:	08 95       	ret
		case ZURUECK4:
/*		0x0A = 0b10
			- Wechsle auf Zutatenanzeige
			-
*/
			setze_startanzeige(aktuellesGetraenk);
    29f0:	80 91 69 12 	lds	r24, 0x1269	; 0x801269 <aktuellesGetraenk>
    29f4:	90 91 6a 12 	lds	r25, 0x126A	; 0x80126a <aktuellesGetraenk+0x1>
    29f8:	0c 94 fe 03 	jmp	0x7fc	; 0x7fc <setze_startanzeige>
    29fc:	08 95       	ret

000029fe <check_fluessanzeige2>:
}


void check_fluessanzeige2(uint8_t button)
{
	switch (button)
    29fe:	8f 31       	cpi	r24, 0x1F	; 31
    2a00:	79 f5       	brne	.+94     	; 0x2a60 <check_fluessanzeige2+0x62>
	{
		case 31:
		nextion_change_page(FLUESSANZEIGE1);
    2a02:	84 e1       	ldi	r24, 0x14	; 20
    2a04:	f3 d6       	rcall	.+3558   	; 0x37ec <nextion_change_page>
		zutat_t * tmp;
		tmp = create_neue_zutat("12345678901234567899012",(head_zut->nr+1));
    2a06:	e0 91 13 0a 	lds	r30, 0x0A13	; 0x800a13 <head_zut>
    2a0a:	f0 91 14 0a 	lds	r31, 0x0A14	; 0x800a14 <head_zut+0x1>
    2a0e:	62 81       	ldd	r22, Z+2	; 0x02
    2a10:	6f 5f       	subi	r22, 0xFF	; 255
    2a12:	8c e8       	ldi	r24, 0x8C	; 140
    2a14:	95 e0       	ldi	r25, 0x05	; 5
    2a16:	63 d2       	rcall	.+1222   	; 0x2ede <create_neue_zutat>
		head_zut = insert_zutat_at_head(&head_zut, tmp);
    2a18:	bc 01       	movw	r22, r24
    2a1a:	83 e1       	ldi	r24, 0x13	; 19
    2a1c:	9a e0       	ldi	r25, 0x0A	; 10
    2a1e:	9c d2       	rcall	.+1336   	; 0x2f58 <insert_zutat_at_head>
    2a20:	90 93 14 0a 	sts	0x0A14, r25	; 0x800a14 <head_zut+0x1>
    2a24:	80 93 13 0a 	sts	0x0A13, r24	; 0x800a13 <head_zut>
    2a28:	a5 e3       	ldi	r26, 0x35	; 53
    2a2a:	bf e0       	ldi	r27, 0x0F	; 15
		for (int i = 0 ; i < 21 ; i++)
    2a2c:	80 e0       	ldi	r24, 0x00	; 0
    2a2e:	90 e0       	ldi	r25, 0x00	; 0
		{
			*(head_zut->name + i) = buff_name[i];
    2a30:	2c 91       	ld	r18, X
    2a32:	e0 91 13 0a 	lds	r30, 0x0A13	; 0x800a13 <head_zut>
    2a36:	f0 91 14 0a 	lds	r31, 0x0A14	; 0x800a14 <head_zut+0x1>
    2a3a:	01 90       	ld	r0, Z+
    2a3c:	f0 81       	ld	r31, Z
    2a3e:	e0 2d       	mov	r30, r0
    2a40:	e8 0f       	add	r30, r24
    2a42:	f9 1f       	adc	r31, r25
    2a44:	20 83       	st	Z, r18
			buff_name[i] = '\0';
    2a46:	1d 92       	st	X+, r1
		case 31:
		nextion_change_page(FLUESSANZEIGE1);
		zutat_t * tmp;
		tmp = create_neue_zutat("12345678901234567899012",(head_zut->nr+1));
		head_zut = insert_zutat_at_head(&head_zut, tmp);
		for (int i = 0 ; i < 21 ; i++)
    2a48:	01 96       	adiw	r24, 0x01	; 1
    2a4a:	85 31       	cpi	r24, 0x15	; 21
    2a4c:	91 05       	cpc	r25, r1
    2a4e:	81 f7       	brne	.-32     	; 0x2a30 <check_fluessanzeige2+0x32>
		{
			*(head_zut->name + i) = buff_name[i];
			buff_name[i] = '\0';
		}
		i_Liste = 0;
    2a50:	10 92 61 12 	sts	0x1261, r1	; 0x801261 <i_Liste>
		erstelle_Liste_Zutat_Pos("fluessigkeit");
    2a54:	8f e7       	ldi	r24, 0x7F	; 127
    2a56:	95 e0       	ldi	r25, 0x05	; 5
    2a58:	0e 94 e9 09 	call	0x13d2	; 0x13d2 <erstelle_Liste_Zutat_Pos>
		counter = 0;
    2a5c:	10 92 2d 0f 	sts	0x0F2D, r1	; 0x800f2d <counter>
    2a60:	08 95       	ret

00002a62 <check_RFIDAnzeige1>:
	}
}

void check_RFIDAnzeige1(uint8_t button)
{
	switch (button)
    2a62:	90 e0       	ldi	r25, 0x00	; 0
    2a64:	fc 01       	movw	r30, r24
    2a66:	31 97       	sbiw	r30, 0x01	; 1
    2a68:	e9 30       	cpi	r30, 0x09	; 9
    2a6a:	f1 05       	cpc	r31, r1
    2a6c:	08 f0       	brcs	.+2      	; 0x2a70 <check_RFIDAnzeige1+0xe>
    2a6e:	60 c0       	rjmp	.+192    	; 0x2b30 <check_RFIDAnzeige1+0xce>
    2a70:	88 27       	eor	r24, r24
    2a72:	e9 50       	subi	r30, 0x09	; 9
    2a74:	ff 4f       	sbci	r31, 0xFF	; 255
    2a76:	8f 4f       	sbci	r24, 0xFF	; 255
    2a78:	0c 94 b3 2c 	jmp	0x5966	; 0x5966 <__tablejump2__>
		case RFID1:
/*		0x01 = 0b01
			- Wechsle auf Zutatenanzeige
			-
*/
			nextion_change_page(RFIDANZEIGE2);
    2a7c:	87 e1       	ldi	r24, 0x17	; 23
    2a7e:	b6 d6       	rcall	.+3436   	; 0x37ec <nextion_change_page>
			i_Liste = 0;
    2a80:	10 92 61 12 	sts	0x1261, r1	; 0x801261 <i_Liste>
			erstelle_Liste_name("cocktail");
    2a84:	89 ed       	ldi	r24, 0xD9	; 217
    2a86:	93 e0       	ldi	r25, 0x03	; 3
    2a88:	0c 94 1c 07 	jmp	0xe38	; 0xe38 <erstelle_Liste_name>
		break;
    2a8c:	08 95       	ret
		case RFID2:
/*		0x02 = 0b02
			- Wechsle auf Zutatenanzeige
			-
*/
			nextion_change_page(RFIDANZEIGE2);
    2a8e:	87 e1       	ldi	r24, 0x17	; 23
    2a90:	ad d6       	rcall	.+3418   	; 0x37ec <nextion_change_page>
			i_Liste = 0;
    2a92:	10 92 61 12 	sts	0x1261, r1	; 0x801261 <i_Liste>
			erstelle_Liste_name("cocktail");
    2a96:	89 ed       	ldi	r24, 0xD9	; 217
    2a98:	93 e0       	ldi	r25, 0x03	; 3
    2a9a:	0c 94 1c 07 	jmp	0xe38	; 0xe38 <erstelle_Liste_name>
		case RFID3:
/*		0x03 = 0b03
			- Wechsle auf Zutatenanzeige
			-
*/
			nextion_change_page(RFIDANZEIGE2);
    2a9e:	08 95       	ret
    2aa0:	87 e1       	ldi	r24, 0x17	; 23
    2aa2:	a4 d6       	rcall	.+3400   	; 0x37ec <nextion_change_page>
			i_Liste = 0;
    2aa4:	10 92 61 12 	sts	0x1261, r1	; 0x801261 <i_Liste>
			erstelle_Liste_name("cocktail");
    2aa8:	89 ed       	ldi	r24, 0xD9	; 217
    2aaa:	93 e0       	ldi	r25, 0x03	; 3
    2aac:	0c 94 1c 07 	jmp	0xe38	; 0xe38 <erstelle_Liste_name>
		case RFID4:
/*		0x04 = 0b04
			- Wechsle auf Zutatenanzeige
			-
*/
			nextion_change_page(RFIDANZEIGE2);
    2ab0:	08 95       	ret
    2ab2:	87 e1       	ldi	r24, 0x17	; 23
    2ab4:	9b d6       	rcall	.+3382   	; 0x37ec <nextion_change_page>
			i_Liste = 0;
    2ab6:	10 92 61 12 	sts	0x1261, r1	; 0x801261 <i_Liste>
			erstelle_Liste_name("cocktail");
    2aba:	89 ed       	ldi	r24, 0xD9	; 217
    2abc:	93 e0       	ldi	r25, 0x03	; 3
    2abe:	0c 94 1c 07 	jmp	0xe38	; 0xe38 <erstelle_Liste_name>
		case RFID5:
/*		0x05 = 0b05
			- Wechsle auf Zutatenanzeige
			-
*/
			nextion_change_page(RFIDANZEIGE2);
    2ac2:	08 95       	ret
    2ac4:	87 e1       	ldi	r24, 0x17	; 23
    2ac6:	92 d6       	rcall	.+3364   	; 0x37ec <nextion_change_page>
			i_Liste = 0;
    2ac8:	10 92 61 12 	sts	0x1261, r1	; 0x801261 <i_Liste>
			erstelle_Liste_name("cocktail");
    2acc:	89 ed       	ldi	r24, 0xD9	; 217
    2ace:	93 e0       	ldi	r25, 0x03	; 3
    2ad0:	0c 94 1c 07 	jmp	0xe38	; 0xe38 <erstelle_Liste_name>
		case RFID6:
/*		0x06 = 0b06
			- Wechsle auf Zutatenanzeige
			-
*/
			nextion_change_page(RFIDANZEIGE2);
    2ad4:	08 95       	ret
    2ad6:	87 e1       	ldi	r24, 0x17	; 23
    2ad8:	89 d6       	rcall	.+3346   	; 0x37ec <nextion_change_page>
			i_Liste = 0;
    2ada:	10 92 61 12 	sts	0x1261, r1	; 0x801261 <i_Liste>
			erstelle_Liste_name("cocktail");
    2ade:	89 ed       	ldi	r24, 0xD9	; 217
    2ae0:	93 e0       	ldi	r25, 0x03	; 3
    2ae2:	0c 94 1c 07 	jmp	0xe38	; 0xe38 <erstelle_Liste_name>
		break;
    2ae6:	08 95       	ret
		case RAUFLIST6:
/*		0x07 = 0b07
			- Wechsle auf Zutatenanzeige
			-
*/
			block_list_runter = 0;
    2ae8:	10 92 19 0a 	sts	0x0A19, r1	; 0x800a19 <block_list_runter>
			if (!block_list_hoch)
    2aec:	80 91 26 0e 	lds	r24, 0x0E26	; 0x800e26 <block_list_hoch>
    2af0:	81 11       	cpse	r24, r1
    2af2:	1e c0       	rjmp	.+60     	; 0x2b30 <check_RFIDAnzeige1+0xce>
			{
				i_Liste -= 8;
    2af4:	80 91 61 12 	lds	r24, 0x1261	; 0x801261 <i_Liste>
    2af8:	88 50       	subi	r24, 0x08	; 8
    2afa:	80 93 61 12 	sts	0x1261, r24	; 0x801261 <i_Liste>
				erstelle_Liste_name("cocktail");
    2afe:	89 ed       	ldi	r24, 0xD9	; 217
    2b00:	93 e0       	ldi	r25, 0x03	; 3
    2b02:	0c 94 1c 07 	jmp	0xe38	; 0xe38 <erstelle_Liste_name>
    2b06:	08 95       	ret
		case RUNTERLIST6:
/*		0x08 = 0b08
			- Wechsle auf Zutatenanzeige
			-
*/
			block_list_hoch = 0;
    2b08:	10 92 26 0e 	sts	0x0E26, r1	; 0x800e26 <block_list_hoch>
			if (!block_list_runter)
    2b0c:	80 91 19 0a 	lds	r24, 0x0A19	; 0x800a19 <block_list_runter>
    2b10:	81 11       	cpse	r24, r1
    2b12:	0e c0       	rjmp	.+28     	; 0x2b30 <check_RFIDAnzeige1+0xce>
			{
				i_Liste += 8;
    2b14:	80 91 61 12 	lds	r24, 0x1261	; 0x801261 <i_Liste>
    2b18:	88 5f       	subi	r24, 0xF8	; 248
    2b1a:	80 93 61 12 	sts	0x1261, r24	; 0x801261 <i_Liste>
				erstelle_Liste_name("cocktail");
    2b1e:	89 ed       	ldi	r24, 0xD9	; 217
    2b20:	93 e0       	ldi	r25, 0x03	; 3
    2b22:	0c 94 1c 07 	jmp	0xe38	; 0xe38 <erstelle_Liste_name>
		case ZURUECK5:
/*		0x09 = 0b09
			- Wechsle auf Zutatenanzeige
			-
*/
			nextion_change_page(STARTANZEIGE);
    2b26:	08 95       	ret
    2b28:	81 e0       	ldi	r24, 0x01	; 1
    2b2a:	60 d6       	rcall	.+3264   	; 0x37ec <nextion_change_page>
			i_Liste = 0;
    2b2c:	10 92 61 12 	sts	0x1261, r1	; 0x801261 <i_Liste>
    2b30:	08 95       	ret

00002b32 <check_RFIDAnzeige2>:
	}
}

void check_RFIDAnzeige2(uint8_t button)
{
	switch (button)
    2b32:	8a 30       	cpi	r24, 0x0A	; 10
    2b34:	28 f4       	brcc	.+10     	; 0x2b40 <check_RFIDAnzeige2+0xe>
    2b36:	88 30       	cpi	r24, 0x08	; 8
    2b38:	68 f4       	brcc	.+26     	; 0x2b54 <check_RFIDAnzeige2+0x22>
    2b3a:	81 30       	cpi	r24, 0x01	; 1
    2b3c:	21 f0       	breq	.+8      	; 0x2b46 <check_RFIDAnzeige2+0x14>
    2b3e:	08 95       	ret
    2b40:	8a 30       	cpi	r24, 0x0A	; 10
    2b42:	c1 f0       	breq	.+48     	; 0x2b74 <check_RFIDAnzeige2+0x42>
    2b44:	08 95       	ret
	{
/*		0x01 bis 0x08 = 0b01 bis 0b08
			- Whle x-ten Cocktail des aktuellen Listenabschnitts
*/
		case COCKTAIL1:
			setze_startanzeige(aktuellesGetraenk);
    2b46:	80 91 69 12 	lds	r24, 0x1269	; 0x801269 <aktuellesGetraenk>
    2b4a:	90 91 6a 12 	lds	r25, 0x126A	; 0x80126a <aktuellesGetraenk+0x1>
    2b4e:	0c 94 fe 03 	jmp	0x7fc	; 0x7fc <setze_startanzeige>
		break;
    2b52:	08 95       	ret
/*		0x09 = 0b09
			- Untere Blockierung aufheben
			- Gehe Liste um 8 Getrnke hoch, falls nicht schon am oberen Ende
			- Schreibe Cocktailnamen in die Liste
*/
			block_list_runter = 0;
    2b54:	10 92 19 0a 	sts	0x0A19, r1	; 0x800a19 <block_list_runter>
			if (!block_list_hoch)
    2b58:	80 91 26 0e 	lds	r24, 0x0E26	; 0x800e26 <block_list_hoch>
    2b5c:	81 11       	cpse	r24, r1
    2b5e:	19 c0       	rjmp	.+50     	; 0x2b92 <check_RFIDAnzeige2+0x60>
			{
				i_Liste -= 8;
    2b60:	80 91 61 12 	lds	r24, 0x1261	; 0x801261 <i_Liste>
    2b64:	88 50       	subi	r24, 0x08	; 8
    2b66:	80 93 61 12 	sts	0x1261, r24	; 0x801261 <i_Liste>
				erstelle_Liste_name("cocktail");
    2b6a:	89 ed       	ldi	r24, 0xD9	; 217
    2b6c:	93 e0       	ldi	r25, 0x03	; 3
    2b6e:	0c 94 1c 07 	jmp	0xe38	; 0xe38 <erstelle_Liste_name>
    2b72:	08 95       	ret
/*		0x0A = 0b10
			- Obere Blockierung aufheben
			- Gehe Liste um 8 Getrnke runter, falls nicht schon am unteren Ende
			- Schreibe Cocktailnamen in die Liste
*/
			block_list_hoch = 0;
    2b74:	10 92 26 0e 	sts	0x0E26, r1	; 0x800e26 <block_list_hoch>
			if (!block_list_runter)
    2b78:	80 91 19 0a 	lds	r24, 0x0A19	; 0x800a19 <block_list_runter>
    2b7c:	81 11       	cpse	r24, r1
    2b7e:	09 c0       	rjmp	.+18     	; 0x2b92 <check_RFIDAnzeige2+0x60>
			{
				i_Liste += 8;
    2b80:	80 91 61 12 	lds	r24, 0x1261	; 0x801261 <i_Liste>
    2b84:	88 5f       	subi	r24, 0xF8	; 248
    2b86:	80 93 61 12 	sts	0x1261, r24	; 0x801261 <i_Liste>
				erstelle_Liste_name("cocktail");
    2b8a:	89 ed       	ldi	r24, 0xD9	; 217
    2b8c:	93 e0       	ldi	r25, 0x03	; 3
    2b8e:	0c 94 1c 07 	jmp	0xe38	; 0xe38 <erstelle_Liste_name>
    2b92:	08 95       	ret

00002b94 <check_RFIDFehler>:
	
}

void check_RFIDFehler(uint8_t button)
{
	switch (button)
    2b94:	81 30       	cpi	r24, 0x01	; 1
    2b96:	31 f4       	brne	.+12     	; 0x2ba4 <check_RFIDFehler+0x10>
	{
		case 1:
			setze_startanzeige(aktuellesGetraenk);
    2b98:	80 91 69 12 	lds	r24, 0x1269	; 0x801269 <aktuellesGetraenk>
    2b9c:	90 91 6a 12 	lds	r25, 0x126A	; 0x80126a <aktuellesGetraenk+0x1>
    2ba0:	0c 94 fe 03 	jmp	0x7fc	; 0x7fc <setze_startanzeige>
    2ba4:	08 95       	ret

00002ba6 <cocktail_check_command>:
void cocktail_check_command(int8_t page, int8_t button)
{
/*
	Diese Funktion checkt, von welcher Seiter der Befehl kommt
*/
	switch (page)
    2ba6:	08 2e       	mov	r0, r24
    2ba8:	00 0c       	add	r0, r0
    2baa:	99 0b       	sbc	r25, r25
    2bac:	aa 0b       	sbc	r26, r26
    2bae:	bb 0b       	sbc	r27, r27
    2bb0:	fc 01       	movw	r30, r24
    2bb2:	31 97       	sbiw	r30, 0x01	; 1
    2bb4:	e8 31       	cpi	r30, 0x18	; 24
    2bb6:	f1 05       	cpc	r31, r1
    2bb8:	08 f0       	brcs	.+2      	; 0x2bbc <cocktail_check_command+0x16>
    2bba:	47 c0       	rjmp	.+142    	; 0x2c4a <cocktail_check_command+0xa4>
    2bbc:	88 27       	eor	r24, r24
    2bbe:	e0 50       	subi	r30, 0x00	; 0
    2bc0:	ff 4f       	sbci	r31, 0xFF	; 255
    2bc2:	8f 4f       	sbci	r24, 0xFF	; 255
    2bc4:	0c 94 b3 2c 	jmp	0x5966	; 0x5966 <__tablejump2__>
	{
		/*0x01 = 0d01*/
	case STARTANZEIGE:
		check_startseite(button);	
    2bc8:	86 2f       	mov	r24, r22
    2bca:	0c 94 d1 0c 	jmp	0x19a2	; 0x19a2 <check_startseite>
	break;
    2bce:	08 95       	ret
		
		/*0x02 = 0d02*/
	case ZUTATENANZEIGE:
		check_zutatenanzeige(button);		
    2bd0:	86 2f       	mov	r24, r22
    2bd2:	0c 94 b1 0d 	jmp	0x1b62	; 0x1b62 <check_zutatenanzeige>
	break;
    2bd6:	08 95       	ret
		
		/*0x03 = 0d03*/
	case LISTENANZEIGE:
		check_listenanzeige(button);
    2bd8:	86 2f       	mov	r24, r22
    2bda:	0c 94 c4 0d 	jmp	0x1b88	; 0x1b88 <check_listenanzeige>
	break;
    2bde:	08 95       	ret
	
		/*0x04 = 0d04*/
	case ZUBABFRAGE:
		check_zubabfrage(button);	
    2be0:	86 2f       	mov	r24, r22
    2be2:	45 c8       	rjmp	.-3958   	; 0x1c6e <check_zubabfrage>
	break;
    2be4:	08 95       	ret
	
		/*0x05 = 0d05*/
	case ZUBBILDSCHIRM:
		check_zubbildschirm(button);	
    2be6:	86 2f       	mov	r24, r22
    2be8:	a3 c8       	rjmp	.-3770   	; 0x1d30 <check_zubbildschirm>
	break;
		
		/*0x07 = 0d07*/
	case MENUANZEIGE:
		check_menuanzeige(button);
    2bea:	08 95       	ret
    2bec:	86 2f       	mov	r24, r22
	break;
    2bee:	a5 c8       	rjmp	.-3766   	; 0x1d3a <check_menuanzeige>
	
		/*0x08 = 0d08*/
	case BEARBEITUNGSANZEIGE:
		check_bearbeitungsanzeige(button);
    2bf0:	08 95       	ret
    2bf2:	86 2f       	mov	r24, r22
	break;
    2bf4:	f1 c8       	rjmp	.-3614   	; 0x1dd8 <check_bearbeitungsanzeige>
	
		/*0x09 0d09*/
	case CEINSTANZEIGE:
		check_ceinstanzeige(button);
    2bf6:	08 95       	ret
    2bf8:	86 2f       	mov	r24, r22
    2bfa:	35 c9       	rjmp	.-3478   	; 0x1e66 <check_ceinstanzeige>
	break;
    2bfc:	08 95       	ret
	
		/*0x0A = 0d10*/
	case REINANZEIGE1:
		check_reinanzeige1(button);	
    2bfe:	86 2f       	mov	r24, r22
    2c00:	9a c9       	rjmp	.-3276   	; 0x1f36 <check_reinanzeige1>
	break;
    2c02:	08 95       	ret
		
		/*0x0B = 0d11*/
	case REINANZEIGE2:
		check_reinanzeige2(button);	
    2c04:	86 2f       	mov	r24, r22
    2c06:	a4 c9       	rjmp	.-3256   	; 0x1f50 <check_reinanzeige2>
	break;
	
		/*0x0C = 0d12*/
	case REINANZEIGE3:
		check_reinanzeige3(button);
    2c08:	08 95       	ret
    2c0a:	86 2f       	mov	r24, r22
	break;
    2c0c:	e7 c9       	rjmp	.-3122   	; 0x1fdc <check_reinanzeige3>
		/*0x0D = 0d13*/
	case INFOANZEIGE:
		check_infoanzeige(button);
    2c0e:	08 95       	ret
    2c10:	86 2f       	mov	r24, r22
	break;
    2c12:	ed c9       	rjmp	.-3110   	; 0x1fee <check_infoanzeige>
		check_fehleranzeige(button);
	break;
	
		/*0x10 = 0d16*/
	case ERSTANZEIGE1:
		check_erstanzeige1(button);
    2c14:	08 95       	ret
    2c16:	86 2f       	mov	r24, r22
	break;
	
		/*0x11 = 0d17*/
		case ERSTANZEIGE2:
		check_erstanzeige2(button);
    2c18:	f0 c9       	rjmp	.-3104   	; 0x1ffa <check_erstanzeige1>
    2c1a:	08 95       	ret
	break;
    2c1c:	86 2f       	mov	r24, r22
		
		/*0x12 = 0d18*/
	case LOESCHABFRAGE:
	check_loeschanzeige(button);
    2c1e:	e5 cc       	rjmp	.-1590   	; 0x25ea <check_erstanzeige2>
    2c20:	08 95       	ret
	break;
    2c22:	86 2f       	mov	r24, r22
	
		/*0x13 = 0d19*/
	case POSANZEIGE:
	check_posanzeige(button);
    2c24:	73 cd       	rjmp	.-1306   	; 0x270c <check_loeschanzeige>
    2c26:	08 95       	ret
	break;
	
	/*0x14 = 0d20*/
	case FLUESSANZEIGE1:
	check_fluessanzeige1(button);
    2c28:	86 2f       	mov	r24, r22
    2c2a:	0c ce       	rjmp	.-1000   	; 0x2844 <check_posanzeige>
	break;
    2c2c:	08 95       	ret
	
	/*0x15 = 0d21*/
	case FLUESSANZEIGE2:
	check_fluessanzeige2(button);
    2c2e:	86 2f       	mov	r24, r22
    2c30:	85 ce       	rjmp	.-758    	; 0x293c <check_fluessanzeige1>
	break;
    2c32:	08 95       	ret
	
	/*0x16 = 0d22*/
	case RFIDANZEIGE1:
	check_RFIDAnzeige1(button);
    2c34:	86 2f       	mov	r24, r22
    2c36:	e3 ce       	rjmp	.-570    	; 0x29fe <check_fluessanzeige2>
    2c38:	08 95       	ret
	break;
    2c3a:	86 2f       	mov	r24, r22
	
	/*0x17 = 0d23*/
	case RFIDANZEIGE2:
	check_RFIDAnzeige2(button);
    2c3c:	12 cf       	rjmp	.-476    	; 0x2a62 <check_RFIDAnzeige1>
    2c3e:	08 95       	ret
    2c40:	86 2f       	mov	r24, r22
	break;
    2c42:	77 cf       	rjmp	.-274    	; 0x2b32 <check_RFIDAnzeige2>
	
	/*0x18 = 0d24*/
	case RFIDFEHLER:
	check_RFIDFehler(button);
    2c44:	08 95       	ret
    2c46:	86 2f       	mov	r24, r22
    2c48:	a5 cf       	rjmp	.-182    	; 0x2b94 <check_RFIDFehler>
    2c4a:	08 95       	ret

00002c4c <create_new_getraenk>:
{
	for(int i = 0 ; i<4059 ; i++)
	{
		eeprom_write_byte(add+i,'\0');
	}
}
    2c4c:	9f 92       	push	r9
    2c4e:	af 92       	push	r10
    2c50:	bf 92       	push	r11
    2c52:	cf 92       	push	r12
    2c54:	df 92       	push	r13
    2c56:	ef 92       	push	r14
    2c58:	ff 92       	push	r15
    2c5a:	0f 93       	push	r16
    2c5c:	1f 93       	push	r17
    2c5e:	cf 93       	push	r28
    2c60:	df 93       	push	r29
    2c62:	7c 01       	movw	r14, r24
    2c64:	b6 2e       	mov	r11, r22
    2c66:	17 2f       	mov	r17, r23
    2c68:	a4 2e       	mov	r10, r20
    2c6a:	92 2e       	mov	r9, r18
    2c6c:	6b e0       	ldi	r22, 0x0B	; 11
    2c6e:	70 e0       	ldi	r23, 0x00	; 0
    2c70:	81 e0       	ldi	r24, 0x01	; 1
    2c72:	90 e0       	ldi	r25, 0x00	; 0
    2c74:	0e 94 d4 2c 	call	0x59a8	; 0x59a8 <calloc>
    2c78:	ec 01       	movw	r28, r24
    2c7a:	f7 01       	movw	r30, r14
    2c7c:	01 90       	ld	r0, Z+
    2c7e:	00 20       	and	r0, r0
    2c80:	e9 f7       	brne	.-6      	; 0x2c7c <create_new_getraenk+0x30>
    2c82:	31 97       	sbiw	r30, 0x01	; 1
    2c84:	6f 01       	movw	r12, r30
    2c86:	ce 18       	sub	r12, r14
    2c88:	df 08       	sbc	r13, r15
    2c8a:	61 e0       	ldi	r22, 0x01	; 1
    2c8c:	70 e0       	ldi	r23, 0x00	; 0
    2c8e:	c6 01       	movw	r24, r12
    2c90:	01 96       	adiw	r24, 0x01	; 1
    2c92:	0e 94 d4 2c 	call	0x59a8	; 0x59a8 <calloc>
    2c96:	99 83       	std	Y+1, r25	; 0x01
    2c98:	88 83       	st	Y, r24
    2c9a:	61 e0       	ldi	r22, 0x01	; 1
    2c9c:	70 e0       	ldi	r23, 0x00	; 0
    2c9e:	8d e0       	ldi	r24, 0x0D	; 13
    2ca0:	90 e0       	ldi	r25, 0x00	; 0
    2ca2:	0e 94 d4 2c 	call	0x59a8	; 0x59a8 <calloc>
    2ca6:	9d 83       	std	Y+5, r25	; 0x05
    2ca8:	8c 83       	std	Y+4, r24	; 0x04
    2caa:	9b 82       	std	Y+3, r9	; 0x03
    2cac:	aa 82       	std	Y+2, r10	; 0x02
    2cae:	0e 83       	std	Y+6, r16	; 0x06
    2cb0:	c1 14       	cp	r12, r1
    2cb2:	d1 04       	cpc	r13, r1
    2cb4:	d1 f0       	breq	.+52     	; 0x2cea <create_new_getraenk+0x9e>
    2cb6:	d7 01       	movw	r26, r14
    2cb8:	a6 01       	movw	r20, r12
    2cba:	80 e0       	ldi	r24, 0x00	; 0
    2cbc:	90 e0       	ldi	r25, 0x00	; 0
    2cbe:	2d 91       	ld	r18, X+
    2cc0:	e8 81       	ld	r30, Y
    2cc2:	f9 81       	ldd	r31, Y+1	; 0x01
    2cc4:	e8 0f       	add	r30, r24
    2cc6:	f9 1f       	adc	r31, r25
    2cc8:	20 83       	st	Z, r18
    2cca:	01 96       	adiw	r24, 0x01	; 1
    2ccc:	84 17       	cp	r24, r20
    2cce:	95 07       	cpc	r25, r21
    2cd0:	b1 f7       	brne	.-20     	; 0x2cbe <create_new_getraenk+0x72>
    2cd2:	0b c0       	rjmp	.+22     	; 0x2cea <create_new_getraenk+0x9e>
    2cd4:	2d 91       	ld	r18, X+
    2cd6:	ec 81       	ldd	r30, Y+4	; 0x04
    2cd8:	fd 81       	ldd	r31, Y+5	; 0x05
    2cda:	e8 0f       	add	r30, r24
    2cdc:	f9 1f       	adc	r31, r25
    2cde:	20 83       	st	Z, r18
    2ce0:	01 96       	adiw	r24, 0x01	; 1
    2ce2:	8c 30       	cpi	r24, 0x0C	; 12
    2ce4:	91 05       	cpc	r25, r1
    2ce6:	b1 f7       	brne	.-20     	; 0x2cd4 <create_new_getraenk+0x88>
    2ce8:	12 c0       	rjmp	.+36     	; 0x2d0e <create_new_getraenk+0xc2>
    2cea:	8f ef       	ldi	r24, 0xFF	; 255
    2cec:	c8 1a       	sub	r12, r24
    2cee:	d8 0a       	sbc	r13, r24
    2cf0:	f7 01       	movw	r30, r14
    2cf2:	ec 0d       	add	r30, r12
    2cf4:	fd 1d       	adc	r31, r13
    2cf6:	80 81       	ld	r24, Z
    2cf8:	28 81       	ld	r18, Y
    2cfa:	39 81       	ldd	r19, Y+1	; 0x01
    2cfc:	f9 01       	movw	r30, r18
    2cfe:	ec 0d       	add	r30, r12
    2d00:	fd 1d       	adc	r31, r13
    2d02:	80 83       	st	Z, r24
    2d04:	ab 2d       	mov	r26, r11
    2d06:	b1 2f       	mov	r27, r17
    2d08:	80 e0       	ldi	r24, 0x00	; 0
    2d0a:	90 e0       	ldi	r25, 0x00	; 0
    2d0c:	e3 cf       	rjmp	.-58     	; 0x2cd4 <create_new_getraenk+0x88>
    2d0e:	ec 81       	ldd	r30, Y+4	; 0x04
    2d10:	fd 81       	ldd	r31, Y+5	; 0x05
    2d12:	15 86       	std	Z+13, r1	; 0x0d
    2d14:	ce 01       	movw	r24, r28
    2d16:	df 91       	pop	r29
    2d18:	cf 91       	pop	r28
    2d1a:	1f 91       	pop	r17
    2d1c:	0f 91       	pop	r16
    2d1e:	ff 90       	pop	r15
    2d20:	ef 90       	pop	r14
    2d22:	df 90       	pop	r13
    2d24:	cf 90       	pop	r12
    2d26:	bf 90       	pop	r11
    2d28:	af 90       	pop	r10
    2d2a:	9f 90       	pop	r9
    2d2c:	08 95       	ret

00002d2e <insert_at_head>:
    2d2e:	cf 93       	push	r28
    2d30:	df 93       	push	r29
    2d32:	dc 01       	movw	r26, r24
    2d34:	fb 01       	movw	r30, r22
    2d36:	8d 91       	ld	r24, X+
    2d38:	9c 91       	ld	r25, X
    2d3a:	11 97       	sbiw	r26, 0x01	; 1
    2d3c:	90 87       	std	Z+8, r25	; 0x08
    2d3e:	87 83       	std	Z+7, r24	; 0x07
    2d40:	12 86       	std	Z+10, r1	; 0x0a
    2d42:	11 86       	std	Z+9, r1	; 0x09
    2d44:	cd 91       	ld	r28, X+
    2d46:	dc 91       	ld	r29, X
    2d48:	11 97       	sbiw	r26, 0x01	; 1
    2d4a:	20 97       	sbiw	r28, 0x00	; 0
    2d4c:	29 f4       	brne	.+10     	; 0x2d58 <insert_at_head+0x2a>
    2d4e:	70 93 e7 09 	sts	0x09E7, r23	; 0x8009e7 <tail_getraenk+0x1>
    2d52:	60 93 e6 09 	sts	0x09E6, r22	; 0x8009e6 <tail_getraenk>
    2d56:	08 c0       	rjmp	.+16     	; 0x2d68 <insert_at_head+0x3a>
    2d58:	7a 87       	std	Y+10, r23	; 0x0a
    2d5a:	69 87       	std	Y+9, r22	; 0x09
    2d5c:	80 91 e6 09 	lds	r24, 0x09E6	; 0x8009e6 <tail_getraenk>
    2d60:	90 91 e7 09 	lds	r25, 0x09E7	; 0x8009e7 <tail_getraenk+0x1>
    2d64:	92 87       	std	Z+10, r25	; 0x0a
    2d66:	81 87       	std	Z+9, r24	; 0x09
    2d68:	ed 93       	st	X+, r30
    2d6a:	fc 93       	st	X, r31
    2d6c:	a0 91 e6 09 	lds	r26, 0x09E6	; 0x8009e6 <tail_getraenk>
    2d70:	b0 91 e7 09 	lds	r27, 0x09E7	; 0x8009e7 <tail_getraenk+0x1>
    2d74:	18 96       	adiw	r26, 0x08	; 8
    2d76:	fc 93       	st	X, r31
    2d78:	ee 93       	st	-X, r30
    2d7a:	17 97       	sbiw	r26, 0x07	; 7
    2d7c:	cf 01       	movw	r24, r30
    2d7e:	df 91       	pop	r29
    2d80:	cf 91       	pop	r28
    2d82:	08 95       	ret

00002d84 <create_new_getraenk_file>:

getraenk_file_t *create_new_getraenk_file(uint8_t file_to_create)
{
    2d84:	cf 93       	push	r28
    2d86:	c8 2f       	mov	r28, r24
	getraenk_file_t *newFile = calloc(1,sizeof(getraenk_file_t));
    2d88:	65 e0       	ldi	r22, 0x05	; 5
    2d8a:	70 e0       	ldi	r23, 0x00	; 0
    2d8c:	81 e0       	ldi	r24, 0x01	; 1
    2d8e:	90 e0       	ldi	r25, 0x00	; 0
    2d90:	0e 94 d4 2c 	call	0x59a8	; 0x59a8 <calloc>
	newFile->file = file_to_create;
    2d94:	fc 01       	movw	r30, r24
    2d96:	c0 83       	st	Z, r28
	return newFile;
}
    2d98:	cf 91       	pop	r28
    2d9a:	08 95       	ret

00002d9c <insert_file_at_head>:

getraenk_file_t *insert_file_at_head(getraenk_file_t **head, getraenk_file_t *file_to_insert)
{	
    2d9c:	cf 93       	push	r28
    2d9e:	df 93       	push	r29
    2da0:	dc 01       	movw	r26, r24
    2da2:	fb 01       	movw	r30, r22
		file_to_insert->next = *head;
    2da4:	8d 91       	ld	r24, X+
    2da6:	9c 91       	ld	r25, X
    2da8:	11 97       	sbiw	r26, 0x01	; 1
    2daa:	92 83       	std	Z+2, r25	; 0x02
    2dac:	81 83       	std	Z+1, r24	; 0x01
		file_to_insert->prev = NULL;
    2dae:	14 82       	std	Z+4, r1	; 0x04
    2db0:	13 82       	std	Z+3, r1	; 0x03
		
		if((*head) == NULL)
    2db2:	cd 91       	ld	r28, X+
    2db4:	dc 91       	ld	r29, X
    2db6:	11 97       	sbiw	r26, 0x01	; 1
    2db8:	20 97       	sbiw	r28, 0x00	; 0
    2dba:	29 f4       	brne	.+10     	; 0x2dc6 <insert_file_at_head+0x2a>
		{
			tail_getraenk_file = file_to_insert;
    2dbc:	70 93 dd 08 	sts	0x08DD, r23	; 0x8008dd <tail_getraenk_file+0x1>
    2dc0:	60 93 dc 08 	sts	0x08DC, r22	; 0x8008dc <tail_getraenk_file>
    2dc4:	08 c0       	rjmp	.+16     	; 0x2dd6 <insert_file_at_head+0x3a>
		} else
		{
			(*head)->prev = file_to_insert;
    2dc6:	7c 83       	std	Y+4, r23	; 0x04
    2dc8:	6b 83       	std	Y+3, r22	; 0x03
			file_to_insert->prev = tail_getraenk_file;
    2dca:	80 91 dc 08 	lds	r24, 0x08DC	; 0x8008dc <tail_getraenk_file>
    2dce:	90 91 dd 08 	lds	r25, 0x08DD	; 0x8008dd <tail_getraenk_file+0x1>
    2dd2:	94 83       	std	Z+4, r25	; 0x04
    2dd4:	83 83       	std	Z+3, r24	; 0x03
		}
		*head = file_to_insert;
    2dd6:	ed 93       	st	X+, r30
    2dd8:	fc 93       	st	X, r31
		tail_getraenk_file->next = *head;
    2dda:	a0 91 dc 08 	lds	r26, 0x08DC	; 0x8008dc <tail_getraenk_file>
    2dde:	b0 91 dd 08 	lds	r27, 0x08DD	; 0x8008dd <tail_getraenk_file+0x1>
    2de2:	12 96       	adiw	r26, 0x02	; 2
    2de4:	fc 93       	st	X, r31
    2de6:	ee 93       	st	-X, r30
    2de8:	11 97       	sbiw	r26, 0x01	; 1
		return file_to_insert;
    2dea:	cf 01       	movw	r24, r30
    2dec:	df 91       	pop	r29
    2dee:	cf 91       	pop	r28
    2df0:	08 95       	ret

00002df2 <cocktails_init>:




void cocktails_init(void)
{
    2df2:	df 92       	push	r13
    2df4:	ef 92       	push	r14
    2df6:	ff 92       	push	r15
    2df8:	0f 93       	push	r16
    2dfa:	1f 93       	push	r17
    2dfc:	cf 93       	push	r28
    2dfe:	df 93       	push	r29
    2e00:	cd b7       	in	r28, 0x3d	; 61
    2e02:	de b7       	in	r29, 0x3e	; 62
    2e04:	2f 97       	sbiw	r28, 0x0f	; 15
    2e06:	0f b6       	in	r0, 0x3f	; 63
    2e08:	f8 94       	cli
    2e0a:	de bf       	out	0x3e, r29	; 62
    2e0c:	0f be       	out	0x3f, r0	; 63
    2e0e:	cd bf       	out	0x3d, r28	; 61
	Liste = ALLE;
    2e10:	10 92 e3 09 	sts	0x09E3, r1	; 0x8009e3 <Liste>

			- Initialisierungen

**************************************************************************************************************/

	head_getraenk = NULL;
    2e14:	10 92 e1 08 	sts	0x08E1, r1	; 0x8008e1 <head_getraenk+0x1>
    2e18:	10 92 e0 08 	sts	0x08E0, r1	; 0x8008e0 <head_getraenk>
	getraenk_t * tmp;
	head_getraenk_file = NULL;
    2e1c:	10 92 11 0a 	sts	0x0A11, r1	; 0x800a11 <head_getraenk_file+0x1>
    2e20:	10 92 10 0a 	sts	0x0A10, r1	; 0x800a10 <head_getraenk_file>
    2e24:	01 e0       	ldi	r16, 0x01	; 1
    2e26:	10 e0       	ldi	r17, 0x00	; 0
			- Fr jedes gefundene File wird ein dynamisch gelinkter Eintrag in einer Liste generiert.
			- Im Eintrag ist der Name des Files gespeichert, und ermglicht einen spteren Aufruf.

**************************************************************************************************************/
	for ( int8_t i = 1 ; i <= 100; i++){
		char buff[15] = {'\0'};
    2e28:	0f 2e       	mov	r0, r31
    2e2a:	ff e0       	ldi	r31, 0x0F	; 15
    2e2c:	df 2e       	mov	r13, r31
    2e2e:	f0 2d       	mov	r31, r0
    2e30:	ce 01       	movw	r24, r28
    2e32:	01 96       	adiw	r24, 0x01	; 1
    2e34:	7c 01       	movw	r14, r24
    2e36:	f7 01       	movw	r30, r14
    2e38:	8d 2d       	mov	r24, r13
    2e3a:	11 92       	st	Z+, r1
    2e3c:	8a 95       	dec	r24
    2e3e:	e9 f7       	brne	.-6      	; 0x2e3a <cocktails_init+0x48>
    2e40:	4a e0       	ldi	r20, 0x0A	; 10
    2e42:	b7 01       	movw	r22, r14
    2e44:	c8 01       	movw	r24, r16
    2e46:	0e 94 6f 2e 	call	0x5cde	; 0x5cde <__itoa_ncheck>
		itoa(i, (char *)buff,10);
		strcat((char *)buff, (const char *)".txt");
    2e4a:	d7 01       	movw	r26, r14
    2e4c:	0d 90       	ld	r0, X+
    2e4e:	00 20       	and	r0, r0
    2e50:	e9 f7       	brne	.-6      	; 0x2e4c <cocktails_init+0x5a>
    2e52:	11 97       	sbiw	r26, 0x01	; 1
    2e54:	85 e0       	ldi	r24, 0x05	; 5
    2e56:	e2 ef       	ldi	r30, 0xF2	; 242
    2e58:	f5 e0       	ldi	r31, 0x05	; 5
    2e5a:	01 90       	ld	r0, Z+
    2e5c:	0d 92       	st	X+, r0
    2e5e:	8a 95       	dec	r24
    2e60:	e1 f7       	brne	.-8      	; 0x2e5a <cocktails_init+0x68>
		if(readFile(VERIFY, (unsigned char *)buff)==1)
    2e62:	b7 01       	movw	r22, r14
    2e64:	81 e0       	ldi	r24, 0x01	; 1
    2e66:	0e 94 84 23 	call	0x4708	; 0x4708 <readFile>
    2e6a:	81 30       	cpi	r24, 0x01	; 1
    2e6c:	51 f4       	brne	.+20     	; 0x2e82 <cocktails_init+0x90>
		{
			tmp2 = create_new_getraenk_file(i);
    2e6e:	80 2f       	mov	r24, r16
    2e70:	89 df       	rcall	.-238    	; 0x2d84 <create_new_getraenk_file>
			head_getraenk_file = insert_file_at_head(&head_getraenk_file, tmp2);
    2e72:	bc 01       	movw	r22, r24
    2e74:	80 e1       	ldi	r24, 0x10	; 16
    2e76:	9a e0       	ldi	r25, 0x0A	; 10
    2e78:	91 df       	rcall	.-222    	; 0x2d9c <insert_file_at_head>
    2e7a:	90 93 11 0a 	sts	0x0A11, r25	; 0x800a11 <head_getraenk_file+0x1>
    2e7e:	80 93 10 0a 	sts	0x0A10, r24	; 0x800a10 <head_getraenk_file>
    2e82:	0f 5f       	subi	r16, 0xFF	; 255
    2e84:	1f 4f       	sbci	r17, 0xFF	; 255
			- Ab hier werden die Getrnke gesucht, welche sich auf der SD-Karte befinden. (0.txt bis 100.txt)
			- Fr jedes gefundene File wird ein dynamisch gelinkter Eintrag in einer Liste generiert.
			- Im Eintrag ist der Name des Files gespeichert, und ermglicht einen spteren Aufruf.

**************************************************************************************************************/
	for ( int8_t i = 1 ; i <= 100; i++){
    2e86:	05 36       	cpi	r16, 0x65	; 101
    2e88:	11 05       	cpc	r17, r1
    2e8a:	a9 f6       	brne	.-86     	; 0x2e36 <cocktails_init+0x44>
			- Werden Daten bentigt, wird zuerst ein File in diese eine Getrnke-Struktur eingelesen
			  und erst dann verarbeitet.

**************************************************************************************************************/

	tmp = create_new_getraenk("12345678901234567890",0,0,0,0);
    2e8c:	00 e0       	ldi	r16, 0x00	; 0
    2e8e:	20 e0       	ldi	r18, 0x00	; 0
    2e90:	40 e0       	ldi	r20, 0x00	; 0
    2e92:	60 e0       	ldi	r22, 0x00	; 0
    2e94:	70 e0       	ldi	r23, 0x00	; 0
    2e96:	85 ed       	ldi	r24, 0xD5	; 213
    2e98:	95 e0       	ldi	r25, 0x05	; 5
    2e9a:	d8 de       	rcall	.-592    	; 0x2c4c <create_new_getraenk>
	aktuellesGetraenk = insert_at_head(&head_getraenk, tmp);
    2e9c:	bc 01       	movw	r22, r24
    2e9e:	80 ee       	ldi	r24, 0xE0	; 224
    2ea0:	98 e0       	ldi	r25, 0x08	; 8
    2ea2:	45 df       	rcall	.-374    	; 0x2d2e <insert_at_head>
    2ea4:	90 93 6a 12 	sts	0x126A, r25	; 0x80126a <aktuellesGetraenk+0x1>
    2ea8:	80 93 69 12 	sts	0x1269, r24	; 0x801269 <aktuellesGetraenk>
			- Hier wird der aktuelle Pointer auf den Listeneintrag gesetzt und das aktuelle File in die
			  Struktur des Type getraenk_t geladen.

**************************************************************************************************************/

	aktuellesGetraenk_file = tail_getraenk_file;
    2eac:	e0 91 dc 08 	lds	r30, 0x08DC	; 0x8008dc <tail_getraenk_file>
    2eb0:	f0 91 dd 08 	lds	r31, 0x08DD	; 0x8008dd <tail_getraenk_file+0x1>
    2eb4:	f0 93 0f 0a 	sts	0x0A0F, r31	; 0x800a0f <aktuellesGetraenk_file+0x1>
    2eb8:	e0 93 0e 0a 	sts	0x0A0E, r30	; 0x800a0e <aktuellesGetraenk_file>
	lese_textfile_in_getraenk(aktuellesGetraenk_file->file);
    2ebc:	80 81       	ld	r24, Z
    2ebe:	0e 94 1a 06 	call	0xc34	; 0xc34 <lese_textfile_in_getraenk>
}
    2ec2:	2f 96       	adiw	r28, 0x0f	; 15
    2ec4:	0f b6       	in	r0, 0x3f	; 63
    2ec6:	f8 94       	cli
    2ec8:	de bf       	out	0x3e, r29	; 62
    2eca:	0f be       	out	0x3f, r0	; 63
    2ecc:	cd bf       	out	0x3d, r28	; 61
    2ece:	df 91       	pop	r29
    2ed0:	cf 91       	pop	r28
    2ed2:	1f 91       	pop	r17
    2ed4:	0f 91       	pop	r16
    2ed6:	ff 90       	pop	r15
    2ed8:	ef 90       	pop	r14
    2eda:	df 90       	pop	r13
    2edc:	08 95       	ret

00002ede <create_neue_zutat>:
	 
	 
}

zutat_t *create_neue_zutat(char * name, char k)
{
    2ede:	df 92       	push	r13
    2ee0:	ef 92       	push	r14
    2ee2:	ff 92       	push	r15
    2ee4:	0f 93       	push	r16
    2ee6:	1f 93       	push	r17
    2ee8:	cf 93       	push	r28
    2eea:	df 93       	push	r29
    2eec:	7c 01       	movw	r14, r24
    2eee:	d6 2e       	mov	r13, r22
	zutat_t *newZutat = calloc(1,sizeof(zutat_t));
    2ef0:	67 e0       	ldi	r22, 0x07	; 7
    2ef2:	70 e0       	ldi	r23, 0x00	; 0
    2ef4:	81 e0       	ldi	r24, 0x01	; 1
    2ef6:	90 e0       	ldi	r25, 0x00	; 0
    2ef8:	0e 94 d4 2c 	call	0x59a8	; 0x59a8 <calloc>
    2efc:	ec 01       	movw	r28, r24
 	size_t n1 = strlen((const char *)name)+1;
    2efe:	f7 01       	movw	r30, r14
    2f00:	01 90       	ld	r0, Z+
    2f02:	00 20       	and	r0, r0
    2f04:	e9 f7       	brne	.-6      	; 0x2f00 <create_neue_zutat+0x22>
    2f06:	8f 01       	movw	r16, r30
    2f08:	0e 19       	sub	r16, r14
    2f0a:	1f 09       	sbc	r17, r15

 	newZutat->name = calloc(n1,sizeof(char));
    2f0c:	61 e0       	ldi	r22, 0x01	; 1
    2f0e:	70 e0       	ldi	r23, 0x00	; 0
    2f10:	c8 01       	movw	r24, r16
    2f12:	0e 94 d4 2c 	call	0x59a8	; 0x59a8 <calloc>
    2f16:	99 83       	std	Y+1, r25	; 0x01
    2f18:	88 83       	st	Y, r24
	 
	newZutat->nr = k;
    2f1a:	da 82       	std	Y+2, r13	; 0x02
	newZutat->prev = NULL;
    2f1c:	1e 82       	std	Y+6, r1	; 0x06
    2f1e:	1d 82       	std	Y+5, r1	; 0x05
	newZutat->next = NULL;
    2f20:	1c 82       	std	Y+4, r1	; 0x04
    2f22:	1b 82       	std	Y+3, r1	; 0x03
	 
 	for (int i=0; i<(n1); i++)
    2f24:	01 15       	cp	r16, r1
    2f26:	11 05       	cpc	r17, r1
    2f28:	71 f0       	breq	.+28     	; 0x2f46 <create_neue_zutat+0x68>
    2f2a:	d7 01       	movw	r26, r14
    2f2c:	20 e0       	ldi	r18, 0x00	; 0
    2f2e:	30 e0       	ldi	r19, 0x00	; 0
 	{
 		*(char *)(newZutat->name + i) = *(char *)(name + i);
    2f30:	8d 91       	ld	r24, X+
    2f32:	e8 81       	ld	r30, Y
    2f34:	f9 81       	ldd	r31, Y+1	; 0x01
    2f36:	e2 0f       	add	r30, r18
    2f38:	f3 1f       	adc	r31, r19
    2f3a:	80 83       	st	Z, r24
	 
	newZutat->nr = k;
	newZutat->prev = NULL;
	newZutat->next = NULL;
	 
 	for (int i=0; i<(n1); i++)
    2f3c:	2f 5f       	subi	r18, 0xFF	; 255
    2f3e:	3f 4f       	sbci	r19, 0xFF	; 255
    2f40:	20 17       	cp	r18, r16
    2f42:	31 07       	cpc	r19, r17
    2f44:	a8 f3       	brcs	.-22     	; 0x2f30 <create_neue_zutat+0x52>
 	{
 		*(char *)(newZutat->name + i) = *(char *)(name + i);
 	}

	return newZutat;
}
    2f46:	ce 01       	movw	r24, r28
    2f48:	df 91       	pop	r29
    2f4a:	cf 91       	pop	r28
    2f4c:	1f 91       	pop	r17
    2f4e:	0f 91       	pop	r16
    2f50:	ff 90       	pop	r15
    2f52:	ef 90       	pop	r14
    2f54:	df 90       	pop	r13
    2f56:	08 95       	ret

00002f58 <insert_zutat_at_head>:

zutat_t *insert_zutat_at_head(zutat_t **head_zut, zutat_t *zutat_to_insert)
{
    2f58:	cf 93       	push	r28
    2f5a:	df 93       	push	r29
    2f5c:	dc 01       	movw	r26, r24
    2f5e:	fb 01       	movw	r30, r22
	zutat_to_insert->next = (*head_zut);
    2f60:	8d 91       	ld	r24, X+
    2f62:	9c 91       	ld	r25, X
    2f64:	11 97       	sbiw	r26, 0x01	; 1
    2f66:	94 83       	std	Z+4, r25	; 0x04
    2f68:	83 83       	std	Z+3, r24	; 0x03
	zutat_to_insert->prev = NULL;
    2f6a:	16 82       	std	Z+6, r1	; 0x06
    2f6c:	15 82       	std	Z+5, r1	; 0x05
	
	if((*head_zut) == NULL)
    2f6e:	cd 91       	ld	r28, X+
    2f70:	dc 91       	ld	r29, X
    2f72:	11 97       	sbiw	r26, 0x01	; 1
    2f74:	20 97       	sbiw	r28, 0x00	; 0
    2f76:	29 f4       	brne	.+10     	; 0x2f82 <insert_zutat_at_head+0x2a>
	{
		tail_zut = zutat_to_insert;
    2f78:	70 93 5e 12 	sts	0x125E, r23	; 0x80125e <tail_zut+0x1>
    2f7c:	60 93 5d 12 	sts	0x125D, r22	; 0x80125d <tail_zut>
    2f80:	08 c0       	rjmp	.+16     	; 0x2f92 <insert_zutat_at_head+0x3a>
	} else
	{
		(*head_zut)->prev = zutat_to_insert;
    2f82:	7e 83       	std	Y+6, r23	; 0x06
    2f84:	6d 83       	std	Y+5, r22	; 0x05
		zutat_to_insert->prev = tail_zut;
    2f86:	80 91 5d 12 	lds	r24, 0x125D	; 0x80125d <tail_zut>
    2f8a:	90 91 5e 12 	lds	r25, 0x125E	; 0x80125e <tail_zut+0x1>
    2f8e:	96 83       	std	Z+6, r25	; 0x06
    2f90:	85 83       	std	Z+5, r24	; 0x05
	}
	*head_zut = zutat_to_insert;
    2f92:	ed 93       	st	X+, r30
    2f94:	fc 93       	st	X, r31
	tail_zut->next = *head_zut;
    2f96:	a0 91 5d 12 	lds	r26, 0x125D	; 0x80125d <tail_zut>
    2f9a:	b0 91 5e 12 	lds	r27, 0x125E	; 0x80125e <tail_zut+0x1>
    2f9e:	14 96       	adiw	r26, 0x04	; 4
    2fa0:	fc 93       	st	X, r31
    2fa2:	ee 93       	st	-X, r30
    2fa4:	13 97       	sbiw	r26, 0x03	; 3
	return zutat_to_insert;
}
    2fa6:	cf 01       	movw	r24, r30
    2fa8:	df 91       	pop	r29
    2faa:	cf 91       	pop	r28
    2fac:	08 95       	ret

00002fae <create_neue_zutat_test>:

zutat_test_t *create_neue_zutat_test(char * name, uint8_t alkohol)
{
    2fae:	df 92       	push	r13
    2fb0:	ef 92       	push	r14
    2fb2:	ff 92       	push	r15
    2fb4:	0f 93       	push	r16
    2fb6:	1f 93       	push	r17
    2fb8:	cf 93       	push	r28
    2fba:	df 93       	push	r29
    2fbc:	7c 01       	movw	r14, r24
    2fbe:	d6 2e       	mov	r13, r22
	zutat_test_t *newZutat = calloc(1,sizeof(zutat_test_t));
    2fc0:	67 e0       	ldi	r22, 0x07	; 7
    2fc2:	70 e0       	ldi	r23, 0x00	; 0
    2fc4:	81 e0       	ldi	r24, 0x01	; 1
    2fc6:	90 e0       	ldi	r25, 0x00	; 0
    2fc8:	0e 94 d4 2c 	call	0x59a8	; 0x59a8 <calloc>
    2fcc:	ec 01       	movw	r28, r24
	size_t n1 = strlen((const char *)name)+1;
    2fce:	f7 01       	movw	r30, r14
    2fd0:	01 90       	ld	r0, Z+
    2fd2:	00 20       	and	r0, r0
    2fd4:	e9 f7       	brne	.-6      	; 0x2fd0 <create_neue_zutat_test+0x22>
    2fd6:	8f 01       	movw	r16, r30
    2fd8:	0e 19       	sub	r16, r14
    2fda:	1f 09       	sbc	r17, r15

	newZutat->name = calloc(n1,sizeof(char));
    2fdc:	61 e0       	ldi	r22, 0x01	; 1
    2fde:	70 e0       	ldi	r23, 0x00	; 0
    2fe0:	c8 01       	movw	r24, r16
    2fe2:	0e 94 d4 2c 	call	0x59a8	; 0x59a8 <calloc>
    2fe6:	99 83       	std	Y+1, r25	; 0x01
    2fe8:	88 83       	st	Y, r24
	newZutat->alkohol = alkohol;
    2fea:	da 82       	std	Y+2, r13	; 0x02
	newZutat->prev = NULL;
    2fec:	1e 82       	std	Y+6, r1	; 0x06
    2fee:	1d 82       	std	Y+5, r1	; 0x05
	newZutat->next = NULL;
    2ff0:	1c 82       	std	Y+4, r1	; 0x04
    2ff2:	1b 82       	std	Y+3, r1	; 0x03
	
	for (int i=0; i<(n1); i++)
    2ff4:	01 15       	cp	r16, r1
    2ff6:	11 05       	cpc	r17, r1
    2ff8:	71 f0       	breq	.+28     	; 0x3016 <create_neue_zutat_test+0x68>
    2ffa:	d7 01       	movw	r26, r14
    2ffc:	20 e0       	ldi	r18, 0x00	; 0
    2ffe:	30 e0       	ldi	r19, 0x00	; 0
	{
		*(char *)(newZutat->name + i) = *(char *)(name + i);
    3000:	8d 91       	ld	r24, X+
    3002:	e8 81       	ld	r30, Y
    3004:	f9 81       	ldd	r31, Y+1	; 0x01
    3006:	e2 0f       	add	r30, r18
    3008:	f3 1f       	adc	r31, r19
    300a:	80 83       	st	Z, r24
	newZutat->name = calloc(n1,sizeof(char));
	newZutat->alkohol = alkohol;
	newZutat->prev = NULL;
	newZutat->next = NULL;
	
	for (int i=0; i<(n1); i++)
    300c:	2f 5f       	subi	r18, 0xFF	; 255
    300e:	3f 4f       	sbci	r19, 0xFF	; 255
    3010:	20 17       	cp	r18, r16
    3012:	31 07       	cpc	r19, r17
    3014:	a8 f3       	brcs	.-22     	; 0x3000 <create_neue_zutat_test+0x52>
	{
		*(char *)(newZutat->name + i) = *(char *)(name + i);
	}

	return newZutat;
}
    3016:	ce 01       	movw	r24, r28
    3018:	df 91       	pop	r29
    301a:	cf 91       	pop	r28
    301c:	1f 91       	pop	r17
    301e:	0f 91       	pop	r16
    3020:	ff 90       	pop	r15
    3022:	ef 90       	pop	r14
    3024:	df 90       	pop	r13
    3026:	08 95       	ret

00003028 <insert_zutat_at_head_test>:

zutat_test_t *insert_zutat_at_head_test(zutat_test_t **head_zutat_test, zutat_test_t ** tail_zutat, zutat_test_t *zutat_to_insert)
{
    3028:	cf 93       	push	r28
    302a:	df 93       	push	r29
    302c:	dc 01       	movw	r26, r24
    302e:	fa 01       	movw	r30, r20
	zutat_to_insert->next = (*head_zutat_test);
    3030:	8d 91       	ld	r24, X+
    3032:	9c 91       	ld	r25, X
    3034:	11 97       	sbiw	r26, 0x01	; 1
    3036:	94 83       	std	Z+4, r25	; 0x04
    3038:	83 83       	std	Z+3, r24	; 0x03
	zutat_to_insert->prev = NULL;
    303a:	16 82       	std	Z+6, r1	; 0x06
    303c:	15 82       	std	Z+5, r1	; 0x05
	
	if((*head_zutat_test) == NULL)
    303e:	cd 91       	ld	r28, X+
    3040:	dc 91       	ld	r29, X
    3042:	11 97       	sbiw	r26, 0x01	; 1
    3044:	20 97       	sbiw	r28, 0x00	; 0
    3046:	21 f4       	brne	.+8      	; 0x3050 <insert_zutat_at_head_test+0x28>
	{
		*tail_zutat = zutat_to_insert;
    3048:	eb 01       	movw	r28, r22
    304a:	59 83       	std	Y+1, r21	; 0x01
    304c:	48 83       	st	Y, r20
    304e:	07 c0       	rjmp	.+14     	; 0x305e <insert_zutat_at_head_test+0x36>
	} else
	{
		(*head_zutat_test)->prev = zutat_to_insert;
    3050:	5e 83       	std	Y+6, r21	; 0x06
    3052:	4d 83       	std	Y+5, r20	; 0x05
		zutat_to_insert->prev = *tail_zutat;
    3054:	eb 01       	movw	r28, r22
    3056:	88 81       	ld	r24, Y
    3058:	99 81       	ldd	r25, Y+1	; 0x01
    305a:	96 83       	std	Z+6, r25	; 0x06
    305c:	85 83       	std	Z+5, r24	; 0x05
	}
	*head_zutat_test = zutat_to_insert;
    305e:	ed 93       	st	X+, r30
    3060:	fc 93       	st	X, r31
	(*tail_zutat)->next = *head_zutat_test;
    3062:	eb 01       	movw	r28, r22
    3064:	a8 81       	ld	r26, Y
    3066:	b9 81       	ldd	r27, Y+1	; 0x01
    3068:	14 96       	adiw	r26, 0x04	; 4
    306a:	fc 93       	st	X, r31
    306c:	ee 93       	st	-X, r30
    306e:	13 97       	sbiw	r26, 0x03	; 3
	return zutat_to_insert;
}
    3070:	cf 01       	movw	r24, r30
    3072:	df 91       	pop	r29
    3074:	cf 91       	pop	r28
    3076:	08 95       	ret

00003078 <create_neue_zutat_Maschine>:

zutatMaschine_t *create_neue_zutat_Maschine(char * name, char status, uint8_t alkohol, uint8_t k)
{
    3078:	bf 92       	push	r11
    307a:	cf 92       	push	r12
    307c:	df 92       	push	r13
    307e:	ef 92       	push	r14
    3080:	ff 92       	push	r15
    3082:	0f 93       	push	r16
    3084:	1f 93       	push	r17
    3086:	cf 93       	push	r28
    3088:	df 93       	push	r29
    308a:	7c 01       	movw	r14, r24
    308c:	b6 2e       	mov	r11, r22
    308e:	d4 2e       	mov	r13, r20
    3090:	c2 2e       	mov	r12, r18
	zutatMaschine_t *newZutat = calloc(1,sizeof(zutatMaschine_t));
    3092:	69 e0       	ldi	r22, 0x09	; 9
    3094:	70 e0       	ldi	r23, 0x00	; 0
    3096:	81 e0       	ldi	r24, 0x01	; 1
    3098:	90 e0       	ldi	r25, 0x00	; 0
    309a:	0e 94 d4 2c 	call	0x59a8	; 0x59a8 <calloc>
    309e:	ec 01       	movw	r28, r24
	size_t n1 = strlen((const char *)name)+1;
    30a0:	f7 01       	movw	r30, r14
    30a2:	01 90       	ld	r0, Z+
    30a4:	00 20       	and	r0, r0
    30a6:	e9 f7       	brne	.-6      	; 0x30a2 <create_neue_zutat_Maschine+0x2a>
    30a8:	8f 01       	movw	r16, r30
    30aa:	0e 19       	sub	r16, r14
    30ac:	1f 09       	sbc	r17, r15

	newZutat->name = calloc(21,sizeof(char));
    30ae:	61 e0       	ldi	r22, 0x01	; 1
    30b0:	70 e0       	ldi	r23, 0x00	; 0
    30b2:	85 e1       	ldi	r24, 0x15	; 21
    30b4:	90 e0       	ldi	r25, 0x00	; 0
    30b6:	0e 94 d4 2c 	call	0x59a8	; 0x59a8 <calloc>
    30ba:	99 83       	std	Y+1, r25	; 0x01
    30bc:	88 83       	st	Y, r24

	newZutat->status = status;
    30be:	ba 82       	std	Y+2, r11	; 0x02
	newZutat->position = k;
    30c0:	cc 82       	std	Y+4, r12	; 0x04
	newZutat->alkohol = alkohol;
    30c2:	db 82       	std	Y+3, r13	; 0x03
	newZutat->prev = NULL;
    30c4:	18 86       	std	Y+8, r1	; 0x08
    30c6:	1f 82       	std	Y+7, r1	; 0x07
	newZutat->next = NULL;
    30c8:	1e 82       	std	Y+6, r1	; 0x06
    30ca:	1d 82       	std	Y+5, r1	; 0x05
	
	for (int i=0; i<(n1); i++)
    30cc:	01 15       	cp	r16, r1
    30ce:	11 05       	cpc	r17, r1
    30d0:	71 f0       	breq	.+28     	; 0x30ee <create_neue_zutat_Maschine+0x76>
    30d2:	d7 01       	movw	r26, r14
    30d4:	20 e0       	ldi	r18, 0x00	; 0
    30d6:	30 e0       	ldi	r19, 0x00	; 0
	{
		*(char *)(newZutat->name + i) = *(char *)(name + i);
    30d8:	8d 91       	ld	r24, X+
    30da:	e8 81       	ld	r30, Y
    30dc:	f9 81       	ldd	r31, Y+1	; 0x01
    30de:	e2 0f       	add	r30, r18
    30e0:	f3 1f       	adc	r31, r19
    30e2:	80 83       	st	Z, r24
	newZutat->position = k;
	newZutat->alkohol = alkohol;
	newZutat->prev = NULL;
	newZutat->next = NULL;
	
	for (int i=0; i<(n1); i++)
    30e4:	2f 5f       	subi	r18, 0xFF	; 255
    30e6:	3f 4f       	sbci	r19, 0xFF	; 255
    30e8:	20 17       	cp	r18, r16
    30ea:	31 07       	cpc	r19, r17
    30ec:	a8 f3       	brcs	.-22     	; 0x30d8 <create_neue_zutat_Maschine+0x60>
	{
		*(char *)(newZutat->name + i) = *(char *)(name + i);
	}

	return newZutat;
}
    30ee:	ce 01       	movw	r24, r28
    30f0:	df 91       	pop	r29
    30f2:	cf 91       	pop	r28
    30f4:	1f 91       	pop	r17
    30f6:	0f 91       	pop	r16
    30f8:	ff 90       	pop	r15
    30fa:	ef 90       	pop	r14
    30fc:	df 90       	pop	r13
    30fe:	cf 90       	pop	r12
    3100:	bf 90       	pop	r11
    3102:	08 95       	ret

00003104 <insert_zutat_Maschine_at_head>:

zutatMaschine_t *insert_zutat_Maschine_at_head(zutatMaschine_t **head_zutat, zutatMaschine_t ** tail_zutat, zutatMaschine_t *zutat_to_insert)
{
    3104:	cf 93       	push	r28
    3106:	df 93       	push	r29
    3108:	dc 01       	movw	r26, r24
    310a:	fa 01       	movw	r30, r20
	zutat_to_insert->next = (*head_zutat);
    310c:	8d 91       	ld	r24, X+
    310e:	9c 91       	ld	r25, X
    3110:	11 97       	sbiw	r26, 0x01	; 1
    3112:	96 83       	std	Z+6, r25	; 0x06
    3114:	85 83       	std	Z+5, r24	; 0x05
	zutat_to_insert->prev = NULL;
    3116:	10 86       	std	Z+8, r1	; 0x08
    3118:	17 82       	std	Z+7, r1	; 0x07
	
	if((*head_zutat) == NULL)
    311a:	cd 91       	ld	r28, X+
    311c:	dc 91       	ld	r29, X
    311e:	11 97       	sbiw	r26, 0x01	; 1
    3120:	20 97       	sbiw	r28, 0x00	; 0
    3122:	21 f4       	brne	.+8      	; 0x312c <insert_zutat_Maschine_at_head+0x28>
	{
		*tail_zutat = zutat_to_insert;
    3124:	eb 01       	movw	r28, r22
    3126:	59 83       	std	Y+1, r21	; 0x01
    3128:	48 83       	st	Y, r20
    312a:	07 c0       	rjmp	.+14     	; 0x313a <insert_zutat_Maschine_at_head+0x36>
	} else
	{
		(*head_zutat)->prev = zutat_to_insert;
    312c:	58 87       	std	Y+8, r21	; 0x08
    312e:	4f 83       	std	Y+7, r20	; 0x07
		zutat_to_insert->prev = *tail_zutat;
    3130:	eb 01       	movw	r28, r22
    3132:	88 81       	ld	r24, Y
    3134:	99 81       	ldd	r25, Y+1	; 0x01
    3136:	90 87       	std	Z+8, r25	; 0x08
    3138:	87 83       	std	Z+7, r24	; 0x07
	}
	*head_zutat = zutat_to_insert;
    313a:	ed 93       	st	X+, r30
    313c:	fc 93       	st	X, r31
	(*tail_zutat)->next = *head_zutat;
    313e:	eb 01       	movw	r28, r22
    3140:	a8 81       	ld	r26, Y
    3142:	b9 81       	ldd	r27, Y+1	; 0x01
    3144:	16 96       	adiw	r26, 0x06	; 6
    3146:	fc 93       	st	X, r31
    3148:	ee 93       	st	-X, r30
    314a:	15 97       	sbiw	r26, 0x05	; 5
	return zutat_to_insert;
}
    314c:	cf 01       	movw	r24, r30
    314e:	df 91       	pop	r29
    3150:	cf 91       	pop	r28
    3152:	08 95       	ret

00003154 <create_new_zutat_file>:

zutat_file_t *create_new_zutat_file(uint8_t file_to_create)
{
    3154:	cf 93       	push	r28
    3156:	c8 2f       	mov	r28, r24
	zutat_file_t *newFile = calloc(1,sizeof(zutat_file_t));
    3158:	65 e0       	ldi	r22, 0x05	; 5
    315a:	70 e0       	ldi	r23, 0x00	; 0
    315c:	81 e0       	ldi	r24, 0x01	; 1
    315e:	90 e0       	ldi	r25, 0x00	; 0
    3160:	0e 94 d4 2c 	call	0x59a8	; 0x59a8 <calloc>
	newFile->file = file_to_create;
    3164:	fc 01       	movw	r30, r24
    3166:	c0 83       	st	Z, r28
	return newFile;
}
    3168:	cf 91       	pop	r28
    316a:	08 95       	ret

0000316c <insert_zutat_file_at_head>:

zutat_file_t *insert_zutat_file_at_head(zutat_file_t **head, zutat_file_t *file_to_insert)
{
    316c:	cf 93       	push	r28
    316e:	df 93       	push	r29
    3170:	dc 01       	movw	r26, r24
    3172:	fb 01       	movw	r30, r22
	file_to_insert->next = *head;
    3174:	8d 91       	ld	r24, X+
    3176:	9c 91       	ld	r25, X
    3178:	11 97       	sbiw	r26, 0x01	; 1
    317a:	92 83       	std	Z+2, r25	; 0x02
    317c:	81 83       	std	Z+1, r24	; 0x01
	file_to_insert->prev = NULL;
    317e:	14 82       	std	Z+4, r1	; 0x04
    3180:	13 82       	std	Z+3, r1	; 0x03
	
	if((*head) == NULL)
    3182:	cd 91       	ld	r28, X+
    3184:	dc 91       	ld	r29, X
    3186:	11 97       	sbiw	r26, 0x01	; 1
    3188:	20 97       	sbiw	r28, 0x00	; 0
    318a:	29 f4       	brne	.+10     	; 0x3196 <insert_zutat_file_at_head+0x2a>
	{
		tail_zutat_file = file_to_insert;
    318c:	70 93 f1 09 	sts	0x09F1, r23	; 0x8009f1 <tail_zutat_file+0x1>
    3190:	60 93 f0 09 	sts	0x09F0, r22	; 0x8009f0 <tail_zutat_file>
    3194:	08 c0       	rjmp	.+16     	; 0x31a6 <insert_zutat_file_at_head+0x3a>
	} else
	{
		(*head)->prev = file_to_insert;
    3196:	7c 83       	std	Y+4, r23	; 0x04
    3198:	6b 83       	std	Y+3, r22	; 0x03
		file_to_insert->prev = tail_zutat_file;
    319a:	80 91 f0 09 	lds	r24, 0x09F0	; 0x8009f0 <tail_zutat_file>
    319e:	90 91 f1 09 	lds	r25, 0x09F1	; 0x8009f1 <tail_zutat_file+0x1>
    31a2:	94 83       	std	Z+4, r25	; 0x04
    31a4:	83 83       	std	Z+3, r24	; 0x03
	}
	*head = file_to_insert;
    31a6:	ed 93       	st	X+, r30
    31a8:	fc 93       	st	X, r31
	tail_zutat_file->next = *head;
    31aa:	a0 91 f0 09 	lds	r26, 0x09F0	; 0x8009f0 <tail_zutat_file>
    31ae:	b0 91 f1 09 	lds	r27, 0x09F1	; 0x8009f1 <tail_zutat_file+0x1>
    31b2:	12 96       	adiw	r26, 0x02	; 2
    31b4:	fc 93       	st	X, r31
    31b6:	ee 93       	st	-X, r30
    31b8:	11 97       	sbiw	r26, 0x01	; 1
	return file_to_insert;
    31ba:	cf 01       	movw	r24, r30
    31bc:	df 91       	pop	r29
    31be:	cf 91       	pop	r28
    31c0:	08 95       	ret

000031c2 <zutaten_init>:

#include "Zutaten.h"


void zutaten_init(void)
{
    31c2:	9f 92       	push	r9
    31c4:	af 92       	push	r10
    31c6:	bf 92       	push	r11
    31c8:	cf 92       	push	r12
    31ca:	df 92       	push	r13
    31cc:	ef 92       	push	r14
    31ce:	ff 92       	push	r15
    31d0:	0f 93       	push	r16
    31d2:	1f 93       	push	r17
    31d4:	cf 93       	push	r28
    31d6:	df 93       	push	r29
    31d8:	cd b7       	in	r28, 0x3d	; 61
    31da:	de b7       	in	r29, 0x3e	; 62
    31dc:	c0 55       	subi	r28, 0x50	; 80
    31de:	d1 40       	sbci	r29, 0x01	; 1
    31e0:	0f b6       	in	r0, 0x3f	; 63
    31e2:	f8 94       	cli
    31e4:	de bf       	out	0x3e, r29	; 62
    31e6:	0f be       	out	0x3f, r0	; 63
    31e8:	cd bf       	out	0x3d, r28	; 61
	address_zut  = (uint8_t *)0;
    31ea:	10 92 ef 09 	sts	0x09EF, r1	; 0x8009ef <address_zut+0x1>
    31ee:	10 92 ee 09 	sts	0x09EE, r1	; 0x8009ee <address_zut>
	 
	char zutaten[12][20] =
    31f2:	80 ef       	ldi	r24, 0xF0	; 240
    31f4:	e6 e3       	ldi	r30, 0x36	; 54
    31f6:	f2 e0       	ldi	r31, 0x02	; 2
    31f8:	de 01       	movw	r26, r28
    31fa:	11 96       	adiw	r26, 0x01	; 1
    31fc:	01 90       	ld	r0, Z+
    31fe:	0d 92       	st	X+, r0
    3200:	8a 95       	dec	r24
    3202:	e1 f7       	brne	.-8      	; 0x31fc <zutaten_init+0x3a>
		"Triple Sec",
		"Whisky",
		"Wodka"
	};

	head_zut = NULL;
    3204:	10 92 14 0a 	sts	0x0A14, r1	; 0x800a14 <head_zut+0x1>
    3208:	10 92 13 0a 	sts	0x0A13, r1	; 0x800a13 <head_zut>
    320c:	ce 01       	movw	r24, r28
    320e:	01 96       	adiw	r24, 0x01	; 1
    3210:	7c 01       	movw	r14, r24
    3212:	10 e0       	ldi	r17, 0x00	; 0
	zutat_t *tmp;
	for ( int i = 0 ; i<12;i++)
	{
		tmp = create_neue_zutat(zutaten[i], i);
    3214:	61 2f       	mov	r22, r17
    3216:	c7 01       	movw	r24, r14
    3218:	62 de       	rcall	.-828    	; 0x2ede <create_neue_zutat>
		head_zut = insert_zutat_at_head(&head_zut, tmp);
    321a:	bc 01       	movw	r22, r24
    321c:	83 e1       	ldi	r24, 0x13	; 19
    321e:	9a e0       	ldi	r25, 0x0A	; 10
    3220:	9b de       	rcall	.-714    	; 0x2f58 <insert_zutat_at_head>
    3222:	90 93 14 0a 	sts	0x0A14, r25	; 0x800a14 <head_zut+0x1>
    3226:	80 93 13 0a 	sts	0x0A13, r24	; 0x800a13 <head_zut>
    322a:	a4 e1       	ldi	r26, 0x14	; 20
    322c:	ea 0e       	add	r14, r26
    322e:	f1 1c       	adc	r15, r1
    3230:	1f 5f       	subi	r17, 0xFF	; 255
		"Wodka"
	};

	head_zut = NULL;
	zutat_t *tmp;
	for ( int i = 0 ; i<12;i++)
    3232:	1c 30       	cpi	r17, 0x0C	; 12
    3234:	79 f7       	brne	.-34     	; 0x3214 <zutaten_init+0x52>
	{
		tmp = create_neue_zutat(zutaten[i], i);
		head_zut = insert_zutat_at_head(&head_zut, tmp);
	}
	aktuelleZutat = head_zut;
    3236:	90 93 6c 12 	sts	0x126C, r25	; 0x80126c <aktuelleZutat+0x1>
    323a:	80 93 6b 12 	sts	0x126B, r24	; 0x80126b <aktuelleZutat>

			- Initialisierungen

**************************************************************************************************************/

	head_zutat_test = NULL;
    323e:	10 92 e9 09 	sts	0x09E9, r1	; 0x8009e9 <head_zutat_test+0x1>
    3242:	10 92 e8 09 	sts	0x09E8, r1	; 0x8009e8 <head_zutat_test>
	zutat_test_t * tmp3;
	head_zutat_file = NULL;
    3246:	10 92 da 07 	sts	0x07DA, r1	; 0x8007da <head_zutat_file+0x1>
    324a:	10 92 d9 07 	sts	0x07D9, r1	; 0x8007d9 <head_zutat_file>
			- Ab hier werden die Getr?nke gesucht, welche sich auf der SD-Karte befinden. (0.txt bis 100.txt)
			- F?r jedes gefundene File wird ein dynamisch gelinkter Eintrag in einer Liste generiert.
			- Im Eintrag ist der Name des Files gespeichert, und erm?glicht einen sp?teren Aufruf.

**************************************************************************************************************/
	char buff_init_textfiles_zutat[21] = {'\0'};
    324e:	fe 01       	movw	r30, r28
    3250:	ef 50       	subi	r30, 0x0F	; 15
    3252:	ff 4f       	sbci	r31, 0xFF	; 255
    3254:	85 e1       	ldi	r24, 0x15	; 21
    3256:	df 01       	movw	r26, r30
    3258:	1d 92       	st	X+, r1
    325a:	8a 95       	dec	r24
    325c:	e9 f7       	brne	.-6      	; 0x3258 <zutaten_init+0x96>
	char buff2_init_textfiles_zutat[5] = {'\0'};
    325e:	75 96       	adiw	r30, 0x15	; 21
    3260:	85 e0       	ldi	r24, 0x05	; 5
    3262:	df 01       	movw	r26, r30
    3264:	1d 92       	st	X+, r1
    3266:	8a 95       	dec	r24
    3268:	e9 f7       	brne	.-6      	; 0x3264 <zutaten_init+0xa2>
    326a:	00 e0       	ldi	r16, 0x00	; 0
    326c:	10 e0       	ldi	r17, 0x00	; 0
		
	for (int8_t count = 0 ; count <= 100; count++)
	{
		strcpy((char *)buff_init_textfiles_zutat, (const char *)"Z");
    326e:	7e 01       	movw	r14, r28
    3270:	b1 ef       	ldi	r27, 0xF1	; 241
    3272:	eb 0e       	add	r14, r27
    3274:	f1 1c       	adc	r15, r1
    3276:	0f 2e       	mov	r0, r31
    3278:	fa e5       	ldi	r31, 0x5A	; 90
    327a:	af 2e       	mov	r10, r31
    327c:	b1 2c       	mov	r11, r1
    327e:	f0 2d       	mov	r31, r0
		itoa(count, (char *)buff2_init_textfiles_zutat, 10);
		strcat((char *)buff_init_textfiles_zutat, (const char *)buff2_init_textfiles_zutat);
		strcat((char *)buff_init_textfiles_zutat, (const char *)".txt");
		char filename[25] = {'\0'};
    3280:	6e 01       	movw	r12, r28
    3282:	e8 ec       	ldi	r30, 0xC8	; 200
    3284:	ce 1a       	sub	r12, r30
    3286:	ee ef       	ldi	r30, 0xFE	; 254
    3288:	de 0a       	sbc	r13, r30
    328a:	0f 2e       	mov	r0, r31
    328c:	f9 e1       	ldi	r31, 0x19	; 25
    328e:	9f 2e       	mov	r9, r31
    3290:	f0 2d       	mov	r31, r0
	char buff_init_textfiles_zutat[21] = {'\0'};
	char buff2_init_textfiles_zutat[5] = {'\0'};
		
	for (int8_t count = 0 ; count <= 100; count++)
	{
		strcpy((char *)buff_init_textfiles_zutat, (const char *)"Z");
    3292:	d7 01       	movw	r26, r14
    3294:	ad 92       	st	X+, r10
    3296:	bc 92       	st	X, r11
    3298:	4a e0       	ldi	r20, 0x0A	; 10
    329a:	be 01       	movw	r22, r28
    329c:	6a 5f       	subi	r22, 0xFA	; 250
    329e:	7e 4f       	sbci	r23, 0xFE	; 254
    32a0:	c8 01       	movw	r24, r16
    32a2:	0e 94 6f 2e 	call	0x5cde	; 0x5cde <__itoa_ncheck>
		itoa(count, (char *)buff2_init_textfiles_zutat, 10);
		strcat((char *)buff_init_textfiles_zutat, (const char *)buff2_init_textfiles_zutat);
    32a6:	be 01       	movw	r22, r28
    32a8:	6a 5f       	subi	r22, 0xFA	; 250
    32aa:	7e 4f       	sbci	r23, 0xFE	; 254
    32ac:	c7 01       	movw	r24, r14
    32ae:	0e 94 36 2e 	call	0x5c6c	; 0x5c6c <strcat>
		strcat((char *)buff_init_textfiles_zutat, (const char *)".txt");
    32b2:	d7 01       	movw	r26, r14
    32b4:	0d 90       	ld	r0, X+
    32b6:	00 20       	and	r0, r0
    32b8:	e9 f7       	brne	.-6      	; 0x32b4 <zutaten_init+0xf2>
    32ba:	11 97       	sbiw	r26, 0x01	; 1
    32bc:	85 e0       	ldi	r24, 0x05	; 5
    32be:	e2 ef       	ldi	r30, 0xF2	; 242
    32c0:	f5 e0       	ldi	r31, 0x05	; 5
    32c2:	01 90       	ld	r0, Z+
    32c4:	0d 92       	st	X+, r0
    32c6:	8a 95       	dec	r24
    32c8:	e1 f7       	brne	.-8      	; 0x32c2 <zutaten_init+0x100>
		char filename[25] = {'\0'};
    32ca:	f6 01       	movw	r30, r12
    32cc:	29 2d       	mov	r18, r9
    32ce:	11 92       	st	Z+, r1
    32d0:	2a 95       	dec	r18
    32d2:	e9 f7       	brne	.-6      	; 0x32ce <zutaten_init+0x10c>
		strcpy((char *)filename, (const char *)buff_init_textfiles_zutat);
    32d4:	b7 01       	movw	r22, r14
    32d6:	c6 01       	movw	r24, r12
    32d8:	0e 94 41 2e 	call	0x5c82	; 0x5c82 <strcpy>
		
		if(readFile(VERIFY, (unsigned char *)filename)==1)
    32dc:	b6 01       	movw	r22, r12
    32de:	81 e0       	ldi	r24, 0x01	; 1
    32e0:	0e 94 84 23 	call	0x4708	; 0x4708 <readFile>
    32e4:	81 30       	cpi	r24, 0x01	; 1
		{
			tmp4 = create_new_zutat_file(count);
    32e6:	51 f4       	brne	.+20     	; 0x32fc <zutaten_init+0x13a>
    32e8:	80 2f       	mov	r24, r16
    32ea:	34 df       	rcall	.-408    	; 0x3154 <create_new_zutat_file>
			head_zutat_file = insert_zutat_file_at_head(&head_zutat_file, tmp4);
    32ec:	bc 01       	movw	r22, r24
    32ee:	89 ed       	ldi	r24, 0xD9	; 217
    32f0:	97 e0       	ldi	r25, 0x07	; 7
    32f2:	3c df       	rcall	.-392    	; 0x316c <insert_zutat_file_at_head>
    32f4:	90 93 da 07 	sts	0x07DA, r25	; 0x8007da <head_zutat_file+0x1>
    32f8:	80 93 d9 07 	sts	0x07D9, r24	; 0x8007d9 <head_zutat_file>
    32fc:	0f 5f       	subi	r16, 0xFF	; 255
    32fe:	1f 4f       	sbci	r17, 0xFF	; 255

**************************************************************************************************************/
	char buff_init_textfiles_zutat[21] = {'\0'};
	char buff2_init_textfiles_zutat[5] = {'\0'};
		
	for (int8_t count = 0 ; count <= 100; count++)
    3300:	05 36       	cpi	r16, 0x65	; 101
    3302:	11 05       	cpc	r17, r1
			- Werden Daten ben?tigt, wird zuerst ein File in diese eine Getr?nke-Struktur eingelesen
			  und erst dann verarbeitet.

**************************************************************************************************************/

	tmp3 = create_neue_zutat_test("12345678901234567890",0);
    3304:	31 f6       	brne	.-116    	; 0x3292 <zutaten_init+0xd0>
    3306:	60 e0       	ldi	r22, 0x00	; 0
    3308:	85 ed       	ldi	r24, 0xD5	; 213
    330a:	95 e0       	ldi	r25, 0x05	; 5
    330c:	50 de       	rcall	.-864    	; 0x2fae <create_neue_zutat_test>
	aktuelle_zutat_test = insert_zutat_at_head_test(&head_zutat_test, &tail_zutat_test, tmp3);
    330e:	ac 01       	movw	r20, r24
    3310:	6f e5       	ldi	r22, 0x5F	; 95
    3312:	72 e1       	ldi	r23, 0x12	; 18
    3314:	88 ee       	ldi	r24, 0xE8	; 232
    3316:	99 e0       	ldi	r25, 0x09	; 9
    3318:	87 de       	rcall	.-754    	; 0x3028 <insert_zutat_at_head_test>
    331a:	90 93 5a 11 	sts	0x115A, r25	; 0x80115a <aktuelle_zutat_test+0x1>
    331e:	80 93 59 11 	sts	0x1159, r24	; 0x801159 <aktuelle_zutat_test>
			- Hier wird der aktuelle Pointer auf den Listeneintrag gesetzt und das aktuelle File in die
			  Struktur des Type getraenk_t geladen.

**************************************************************************************************************/

	lese_textfile_in_zutat(aktuelles_zutat_file->file);
    3322:	e0 91 4c 0f 	lds	r30, 0x0F4C	; 0x800f4c <aktuelles_zutat_file>
    3326:	f0 91 4d 0f 	lds	r31, 0x0F4D	; 0x800f4d <aktuelles_zutat_file+0x1>
    332a:	80 81       	ld	r24, Z
    332c:	0e 94 d1 0a 	call	0x15a2	; 0x15a2 <lese_textfile_in_zutat>
	aktuelles_zutat_file = tail_zutat_file;
    3330:	80 91 f0 09 	lds	r24, 0x09F0	; 0x8009f0 <tail_zutat_file>
    3334:	90 91 f1 09 	lds	r25, 0x09F1	; 0x8009f1 <tail_zutat_file+0x1>
    3338:	90 93 4d 0f 	sts	0x0F4D, r25	; 0x800f4d <aktuelles_zutat_file+0x1>
    333c:	80 93 4c 0f 	sts	0x0F4C, r24	; 0x800f4c <aktuelles_zutat_file>




	// Trennungszeichen definieren, Pointer initialisiern f?r Abschnitte
	char delimiter[] = ",\r\n";
    3340:	8c e2       	ldi	r24, 0x2C	; 44
    3342:	9d e0       	ldi	r25, 0x0D	; 13
    3344:	c5 5f       	subi	r28, 0xF5	; 245
    3346:	de 4f       	sbci	r29, 0xFE	; 254
    3348:	99 83       	std	Y+1, r25	; 0x01
    334a:	88 83       	st	Y, r24
    334c:	cb 50       	subi	r28, 0x0B	; 11
    334e:	d1 40       	sbci	r29, 0x01	; 1
    3350:	8a e0       	ldi	r24, 0x0A	; 10
    3352:	90 e0       	ldi	r25, 0x00	; 0
    3354:	c3 5f       	subi	r28, 0xF3	; 243
    3356:	de 4f       	sbci	r29, 0xFE	; 254
    3358:	99 83       	std	Y+1, r25	; 0x01
    335a:	88 83       	st	Y, r24
    335c:	cd 50       	subi	r28, 0x0D	; 13
    335e:	d1 40       	sbci	r29, 0x01	; 1
	char *ptr;
	// initialisieren und ersten Abschnitt erstellen (1. Kopf)
	
	char buff1[21] = {'\0'};
    3360:	8e 01       	movw	r16, r28
    3362:	01 5f       	subi	r16, 0xF1	; 241
    3364:	1e 4f       	sbci	r17, 0xFE	; 254
    3366:	85 e1       	ldi	r24, 0x15	; 21
    3368:	d8 01       	movw	r26, r16
    336a:	1d 92       	st	X+, r1
    336c:	8a 95       	dec	r24
    336e:	e9 f7       	brne	.-6      	; 0x336a <zutaten_init+0x1a8>
	// "Zutaten.txt" lesen (File wird in char buffer[512] geschrieben)
	//return: 0, if normal operation or flag is READ
	//	      1, if file is already existing and flag = VERIFY
	//		  2, if file name is incompatible
	
	char buff33[20] = {'\0'};
    3370:	be 01       	movw	r22, r28
    3372:	6c 5d       	subi	r22, 0xDC	; 220
    3374:	7e 4f       	sbci	r23, 0xFE	; 254
    3376:	84 e1       	ldi	r24, 0x14	; 20
    3378:	fb 01       	movw	r30, r22
    337a:	11 92       	st	Z+, r1
    337c:	8a 95       	dec	r24
    337e:	e9 f7       	brne	.-6      	; 0x337a <zutaten_init+0x1b8>
	strcpy((char *)buff33, (const char *)"Maschine.txt");
    3380:	8d e0       	ldi	r24, 0x0D	; 13
    3382:	ea ee       	ldi	r30, 0xEA	; 234
    3384:	f5 e0       	ldi	r31, 0x05	; 5
    3386:	db 01       	movw	r26, r22
    3388:	01 90       	ld	r0, Z+
    338a:	0d 92       	st	X+, r0
    338c:	8a 95       	dec	r24
    338e:	e1 f7       	brne	.-8      	; 0x3388 <zutaten_init+0x1c6>
	readFile(READ, (unsigned char *)buff33);
    3390:	80 e0       	ldi	r24, 0x00	; 0
    3392:	0e 94 84 23 	call	0x4708	; 0x4708 <readFile>
	.
	.
	(GetraenkenameX),(Alkohol ja=1, nein=0)
*/ 

	head_zut_in_Maschine = NULL;
    3396:	10 92 df 08 	sts	0x08DF, r1	; 0x8008df <head_zut_in_Maschine+0x1>
    339a:	10 92 de 08 	sts	0x08DE, r1	; 0x8008de <head_zut_in_Maschine>
	zutatMaschine_t * tmp_zutat_Maschine;
	
	// Extrahiere erstes Maschinen-Getraenk aus File "Maschine.txt"
	ptr = strtok((char *)buffer, delimiter);
    339e:	be 01       	movw	r22, r28
    33a0:	65 5f       	subi	r22, 0xF5	; 245
    33a2:	7e 4f       	sbci	r23, 0xFE	; 254
    33a4:	82 e2       	ldi	r24, 0x22	; 34
    33a6:	9c e0       	ldi	r25, 0x0C	; 12
    33a8:	0e 94 2c 2e 	call	0x5c58	; 0x5c58 <strtok>
	strcpy((char *)buff1,ptr);
    33ac:	bc 01       	movw	r22, r24
    33ae:	c8 01       	movw	r24, r16
    33b0:	0e 94 41 2e 	call	0x5c82	; 0x5c82 <strcpy>
	ptr = strtok(NULL, delimiter);
    33b4:	be 01       	movw	r22, r28
    33b6:	65 5f       	subi	r22, 0xF5	; 245
    33b8:	7e 4f       	sbci	r23, 0xFE	; 254
    33ba:	80 e0       	ldi	r24, 0x00	; 0
    33bc:	90 e0       	ldi	r25, 0x00	; 0
    33be:	0e 94 2c 2e 	call	0x5c58	; 0x5c58 <strtok>
	buff2 = atoi(ptr);
    33c2:	0e 94 0f 2e 	call	0x5c1e	; 0x5c1e <atoi>
    33c6:	d8 2e       	mov	r13, r24
	ptr = strtok(NULL, delimiter);
    33c8:	be 01       	movw	r22, r28
    33ca:	65 5f       	subi	r22, 0xF5	; 245
    33cc:	7e 4f       	sbci	r23, 0xFE	; 254
    33ce:	80 e0       	ldi	r24, 0x00	; 0
    33d0:	90 e0       	ldi	r25, 0x00	; 0
    33d2:	0e 94 2c 2e 	call	0x5c58	; 0x5c58 <strtok>
    33d6:	7c 01       	movw	r14, r24
	buff3 = atoi(ptr);
    33d8:	0e 94 0f 2e 	call	0x5c1e	; 0x5c1e <atoi>
	
	uint8_t k = 0;
	tmp_zutat_Maschine = create_neue_zutat_Maschine((char *)buff1,buff2, buff3, k);
    33dc:	20 e0       	ldi	r18, 0x00	; 0
    33de:	48 2f       	mov	r20, r24
    33e0:	6d 2d       	mov	r22, r13
    33e2:	c8 01       	movw	r24, r16
	k++;
	head_zut_in_Maschine = insert_zutat_Maschine_at_head(&head_zut_in_Maschine,&tail_zut_in_Maschine, tmp_zutat_Maschine);
    33e4:	49 de       	rcall	.-878    	; 0x3078 <create_neue_zutat_Maschine>
    33e6:	ac 01       	movw	r20, r24
    33e8:	62 e3       	ldi	r22, 0x32	; 50
    33ea:	7f e0       	ldi	r23, 0x0F	; 15
    33ec:	8e ed       	ldi	r24, 0xDE	; 222
    33ee:	98 e0       	ldi	r25, 0x08	; 8
    33f0:	89 de       	rcall	.-750    	; 0x3104 <insert_zutat_Maschine_at_head>
    33f2:	90 93 df 08 	sts	0x08DF, r25	; 0x8008df <head_zut_in_Maschine+0x1>
    33f6:	80 93 de 08 	sts	0x08DE, r24	; 0x8008de <head_zut_in_Maschine>
	
	while(ptr != NULL)
    33fa:	ef 28       	or	r14, r15
    33fc:	09 f4       	brne	.+2      	; 0x3400 <zutaten_init+0x23e>
    33fe:	48 c0       	rjmp	.+144    	; 0x3490 <zutaten_init+0x2ce>
    3400:	ee 24       	eor	r14, r14
    3402:	e3 94       	inc	r14
	{
		ptr = strtok(NULL, delimiter);
    3404:	be 01       	movw	r22, r28
    3406:	65 5f       	subi	r22, 0xF5	; 245
    3408:	7e 4f       	sbci	r23, 0xFE	; 254
    340a:	80 e0       	ldi	r24, 0x00	; 0
    340c:	90 e0       	ldi	r25, 0x00	; 0
    340e:	0e 94 2c 2e 	call	0x5c58	; 0x5c58 <strtok>
		strcpy((char *)buff1,ptr);
    3412:	bc 01       	movw	r22, r24
    3414:	ce 01       	movw	r24, r28
    3416:	81 5f       	subi	r24, 0xF1	; 241
    3418:	9e 4f       	sbci	r25, 0xFE	; 254
    341a:	0e 94 41 2e 	call	0x5c82	; 0x5c82 <strcpy>
		ptr = strtok(NULL, delimiter);
    341e:	be 01       	movw	r22, r28
    3420:	65 5f       	subi	r22, 0xF5	; 245
    3422:	7e 4f       	sbci	r23, 0xFE	; 254
    3424:	80 e0       	ldi	r24, 0x00	; 0
    3426:	90 e0       	ldi	r25, 0x00	; 0
    3428:	0e 94 2c 2e 	call	0x5c58	; 0x5c58 <strtok>
		buff2 = atoi(ptr);
    342c:	0e 94 0f 2e 	call	0x5c1e	; 0x5c1e <atoi>
    3430:	f8 2e       	mov	r15, r24
		ptr = strtok(NULL, delimiter);
    3432:	be 01       	movw	r22, r28
    3434:	65 5f       	subi	r22, 0xF5	; 245
    3436:	7e 4f       	sbci	r23, 0xFE	; 254
    3438:	80 e0       	ldi	r24, 0x00	; 0
    343a:	90 e0       	ldi	r25, 0x00	; 0
    343c:	0e 94 2c 2e 	call	0x5c58	; 0x5c58 <strtok>
    3440:	8c 01       	movw	r16, r24
		buff3 = atoi(ptr);
    3442:	0e 94 0f 2e 	call	0x5c1e	; 0x5c1e <atoi>
		if (strlen((const char *)buff1)>=1)
    3446:	c1 5f       	subi	r28, 0xF1	; 241
    3448:	de 4f       	sbci	r29, 0xFE	; 254
    344a:	98 81       	ld	r25, Y
    344c:	cf 50       	subi	r28, 0x0F	; 15
    344e:	d1 40       	sbci	r29, 0x01	; 1
    3450:	99 23       	and	r25, r25
		{
		tmp_zutat_Maschine = create_neue_zutat_Maschine((char *)buff1,buff2, buff3, k);
    3452:	d9 f0       	breq	.+54     	; 0x348a <zutaten_init+0x2c8>
    3454:	2e 2d       	mov	r18, r14
    3456:	48 2f       	mov	r20, r24
    3458:	6f 2d       	mov	r22, r15
    345a:	ce 01       	movw	r24, r28
    345c:	81 5f       	subi	r24, 0xF1	; 241
    345e:	9e 4f       	sbci	r25, 0xFE	; 254
		k++;
    3460:	0b de       	rcall	.-1002   	; 0x3078 <create_neue_zutat_Maschine>
		head_zut_in_Maschine = insert_zutat_Maschine_at_head(&head_zut_in_Maschine,&tail_zut_in_Maschine, tmp_zutat_Maschine);
    3462:	e3 94       	inc	r14
    3464:	ac 01       	movw	r20, r24
    3466:	62 e3       	ldi	r22, 0x32	; 50
    3468:	7f e0       	ldi	r23, 0x0F	; 15
    346a:	8e ed       	ldi	r24, 0xDE	; 222
    346c:	98 e0       	ldi	r25, 0x08	; 8
    346e:	4a de       	rcall	.-876    	; 0x3104 <insert_zutat_Maschine_at_head>
    3470:	90 93 df 08 	sts	0x08DF, r25	; 0x8008df <head_zut_in_Maschine+0x1>
    3474:	80 93 de 08 	sts	0x08DE, r24	; 0x8008de <head_zut_in_Maschine>
			Uart_Transmit_IT_PC(head_zut_in_Maschine->name);
    3478:	dc 01       	movw	r26, r24
    347a:	8d 91       	ld	r24, X+
    347c:	9c 91       	ld	r25, X
    347e:	0e 94 74 2a 	call	0x54e8	; 0x54e8 <Uart_Transmit_IT_PC>
			Uart_Transmit_IT_PC("\r");
    3482:	83 ed       	ldi	r24, 0xD3	; 211
    3484:	95 e0       	ldi	r25, 0x05	; 5
    3486:	0e 94 74 2a 	call	0x54e8	; 0x54e8 <Uart_Transmit_IT_PC>
	uint8_t k = 0;
	tmp_zutat_Maschine = create_neue_zutat_Maschine((char *)buff1,buff2, buff3, k);
	k++;
	head_zut_in_Maschine = insert_zutat_Maschine_at_head(&head_zut_in_Maschine,&tail_zut_in_Maschine, tmp_zutat_Maschine);
	
	while(ptr != NULL)
    348a:	01 2b       	or	r16, r17
    348c:	09 f0       	breq	.+2      	; 0x3490 <zutaten_init+0x2ce>
    348e:	ba cf       	rjmp	.-140    	; 0x3404 <zutaten_init+0x242>
		head_zut_in_Maschine = insert_zutat_Maschine_at_head(&head_zut_in_Maschine,&tail_zut_in_Maschine, tmp_zutat_Maschine);
			Uart_Transmit_IT_PC(head_zut_in_Maschine->name);
			Uart_Transmit_IT_PC("\r");
		}
	}
	aktuelleZutatInMaschine = head_zut_in_Maschine;
    3490:	80 91 de 08 	lds	r24, 0x08DE	; 0x8008de <head_zut_in_Maschine>
    3494:	90 91 df 08 	lds	r25, 0x08DF	; 0x8008df <head_zut_in_Maschine+0x1>
    3498:	90 93 e5 09 	sts	0x09E5, r25	; 0x8009e5 <aktuelleZutatInMaschine+0x1>
    349c:	80 93 e4 09 	sts	0x09E4, r24	; 0x8009e4 <aktuelleZutatInMaschine>
	 
	 
}
    34a0:	c0 5b       	subi	r28, 0xB0	; 176
    34a2:	de 4f       	sbci	r29, 0xFE	; 254
    34a4:	0f b6       	in	r0, 0x3f	; 63
    34a6:	f8 94       	cli
    34a8:	de bf       	out	0x3e, r29	; 62
    34aa:	0f be       	out	0x3f, r0	; 63
    34ac:	cd bf       	out	0x3d, r28	; 61
    34ae:	df 91       	pop	r29
    34b0:	cf 91       	pop	r28
    34b2:	1f 91       	pop	r17
    34b4:	0f 91       	pop	r16
    34b6:	ff 90       	pop	r15
    34b8:	ef 90       	pop	r14
    34ba:	df 90       	pop	r13
    34bc:	cf 90       	pop	r12
    34be:	bf 90       	pop	r11
    34c0:	af 90       	pop	r10
    34c2:	9f 90       	pop	r9
    34c4:	08 95       	ret

000034c6 <IO_init>:

//Init_IO

void IO_init(void)
{
	LED_DDR = LED_OUTPUT_MASK;
    34c6:	88 e7       	ldi	r24, 0x78	; 120
    34c8:	80 bb       	out	0x10, r24	; 16
	SPI_DDR = SPI_OUTPUT_MASK;
    34ca:	87 e8       	ldi	r24, 0x87	; 135
    34cc:	84 b9       	out	0x04, r24	; 4
	SPI2_DDR = SPI2_OUTPUT_MASK;
    34ce:	88 e6       	ldi	r24, 0x68	; 104
    34d0:	80 93 01 01 	sts	0x0101, r24	; 0x800101 <__TEXT_REGION_LENGTH__+0x700101>
	PUMPE_DDR = PUMPE_OUTPUT_MASK;
    34d4:	8c ef       	ldi	r24, 0xFC	; 252
    34d6:	81 b9       	out	0x01, r24	; 1
	PUMPE_DDR2 = PUMPE2_OUTPUT_MASK;
    34d8:	84 e2       	ldi	r24, 0x24	; 36
    34da:	83 bb       	out	0x13, r24	; 19
	PUMPE_DDR3 = PUMPE3_OUTPUT_MASK;
    34dc:	8c e7       	ldi	r24, 0x7C	; 124
    34de:	80 93 04 01 	sts	0x0104, r24	; 0x800104 <__TEXT_REGION_LENGTH__+0x700104>
	RFID_DDR = RFID_OUTPUT_MASK;
    34e2:	81 e0       	ldi	r24, 0x01	; 1
    34e4:	87 b9       	out	0x07, r24	; 7
	FLUSS_DDR = 0b00000000;
    34e6:	10 92 07 01 	sts	0x0107, r1	; 0x800107 <__TEXT_REGION_LENGTH__+0x700107>
	SPI_PORT |= SPI_MISO_PIN;
    34ea:	93 b1       	in	r25, 0x03	; 3
    34ec:	85 b1       	in	r24, 0x05	; 5
    34ee:	89 2b       	or	r24, r25
    34f0:	85 b9       	out	0x05, r24	; 5
    34f2:	08 95       	ret

000034f4 <toggle_LED>:
   		_delay_ms(1000);
}

void toggle_LED(void)
{
		LED_PORT = LED_PORT ^ (LEDR_BIT|LEDG_BIT|LEDB_BIT|LEDW_BIT);
    34f4:	91 b3       	in	r25, 0x11	; 17
    34f6:	88 e7       	ldi	r24, 0x78	; 120
    34f8:	89 27       	eor	r24, r25
    34fa:	81 bb       	out	0x11, r24	; 17
    34fc:	08 95       	ret

000034fe <heartbeat_LED>:
	SPI_PORT |= SPI_MISO_PIN;
}

void heartbeat_LED(void)
{
	toggle_LED();
    34fe:	fa df       	rcall	.-12     	; 0x34f4 <toggle_LED>
    3500:	2f ef       	ldi	r18, 0xFF	; 255
    3502:	83 ed       	ldi	r24, 0xD3	; 211
    3504:	90 e3       	ldi	r25, 0x30	; 48
    3506:	21 50       	subi	r18, 0x01	; 1
    3508:	80 40       	sbci	r24, 0x00	; 0
    350a:	90 40       	sbci	r25, 0x00	; 0
    350c:	e1 f7       	brne	.-8      	; 0x3506 <heartbeat_LED+0x8>
    350e:	00 c0       	rjmp	.+0      	; 0x3510 <heartbeat_LED+0x12>
    3510:	00 00       	nop
    3512:	08 95       	ret

00003514 <check_Communication_Input_UART_0>:
{
		LED_PORT = LED_PORT ^ (LEDR_BIT|LEDG_BIT|LEDB_BIT|LEDW_BIT);
}

char check_Communication_Input_UART_0(void)
{
    3514:	1f 93       	push	r17
    3516:	cf 93       	push	r28
    3518:	df 93       	push	r29
	char ret = 0;
    351a:	d0 e0       	ldi	r29, 0x00	; 0
		}
		else
		{
			INPUT_UART_0[cntr_UART_0]=ch;
			cntr_UART_0++;
			ret = 0;
    351c:	c0 e0       	ldi	r28, 0x00	; 0
		if (ch == 13)
		{
			INPUT_UART_0[cntr_UART_0] = 0;
			cntr_UART_0 = 0;
			cntr_End_UART_0 = 0;
			ret = 1;
    351e:	11 e0       	ldi	r17, 0x01	; 1

char check_Communication_Input_UART_0(void)
{
	char ret = 0;
	// Check Buffer auf Einkommende Daten
	while(RB_length(&rb_rx_PC)>0)
    3520:	1c c0       	rjmp	.+56     	; 0x355a <check_Communication_Input_UART_0+0x46>
	{
		unsigned char ch = RB_readByte(&rb_rx_PC);
    3522:	8e e4       	ldi	r24, 0x4E	; 78
    3524:	9f e0       	ldi	r25, 0x0F	; 15
    3526:	b9 d2       	rcall	.+1394   	; 0x3a9a <RB_readByte>
		if (ch == 13)
    3528:	8d 30       	cpi	r24, 0x0D	; 13
    352a:	61 f4       	brne	.+24     	; 0x3544 <check_Communication_Input_UART_0+0x30>
		{
			INPUT_UART_0[cntr_UART_0] = 0;
    352c:	e0 91 d8 07 	lds	r30, 0x07D8	; 0x8007d8 <cntr_UART_0>
    3530:	f0 e0       	ldi	r31, 0x00	; 0
    3532:	ea 58       	subi	r30, 0x8A	; 138
    3534:	fd 4e       	sbci	r31, 0xED	; 237
    3536:	10 82       	st	Z, r1
			cntr_UART_0 = 0;
    3538:	c0 93 d8 07 	sts	0x07D8, r28	; 0x8007d8 <cntr_UART_0>
			cntr_End_UART_0 = 0;
    353c:	c0 93 d7 07 	sts	0x07D7, r28	; 0x8007d7 <cntr_End_UART_0>
			ret = 1;
    3540:	d1 2f       	mov	r29, r17
    3542:	0b c0       	rjmp	.+22     	; 0x355a <check_Communication_Input_UART_0+0x46>
		}
		else
		{
			INPUT_UART_0[cntr_UART_0]=ch;
    3544:	90 91 d8 07 	lds	r25, 0x07D8	; 0x8007d8 <cntr_UART_0>
    3548:	e9 2f       	mov	r30, r25
    354a:	f0 e0       	ldi	r31, 0x00	; 0
    354c:	ea 58       	subi	r30, 0x8A	; 138
    354e:	fd 4e       	sbci	r31, 0xED	; 237
    3550:	80 83       	st	Z, r24
			cntr_UART_0++;
    3552:	9f 5f       	subi	r25, 0xFF	; 255
    3554:	90 93 d8 07 	sts	0x07D8, r25	; 0x8007d8 <cntr_UART_0>
			ret = 0;
    3558:	dc 2f       	mov	r29, r28

char check_Communication_Input_UART_0(void)
{
	char ret = 0;
	// Check Buffer auf Einkommende Daten
	while(RB_length(&rb_rx_PC)>0)
    355a:	8e e4       	ldi	r24, 0x4E	; 78
    355c:	9f e0       	ldi	r25, 0x0F	; 15
    355e:	91 d2       	rcall	.+1314   	; 0x3a82 <RB_length>
    3560:	81 11       	cpse	r24, r1
    3562:	df cf       	rjmp	.-66     	; 0x3522 <check_Communication_Input_UART_0+0xe>
			cntr_UART_0++;
			ret = 0;
		}
	}
	return ret;
}
    3564:	8d 2f       	mov	r24, r29
    3566:	df 91       	pop	r29
    3568:	cf 91       	pop	r28
    356a:	1f 91       	pop	r17
    356c:	08 95       	ret

0000356e <proceed_Communication_Input_UART_0>:

void proceed_Communication_Input_UART_0(void)
{
// 	char * ch = "Proceed UART 0: \n\r";
// 	Uart_Transmit_IT_PC(ch);
	cocktail_test_command(INPUT_UART_0);
    356e:	86 e7       	ldi	r24, 0x76	; 118
    3570:	92 e1       	ldi	r25, 0x12	; 18
    3572:	0c 94 3a 01 	jmp	0x274	; 0x274 <cocktail_test_command>
    3576:	08 95       	ret

00003578 <check_Communication_Input_UART_1>:
}

char check_Communication_Input_UART_1(void)
{
    3578:	df 92       	push	r13
    357a:	ef 92       	push	r14
    357c:	ff 92       	push	r15
    357e:	0f 93       	push	r16
    3580:	1f 93       	push	r17
    3582:	cf 93       	push	r28
    3584:	df 93       	push	r29
	char ret = 0;
    3586:	d1 2c       	mov	r13, r1
		}
		else
		{
			INPUT_UART_1[cntr_UART_1]=ch;
			cntr_UART_1++;
			ret = 0;
    3588:	10 e0       	ldi	r17, 0x00	; 0
			INPUT_UART_1[cntr_UART_1] = 0;
			INPUT_UART_1[cntr_UART_1-1]=0;
			INPUT_UART_1[cntr_UART_1-2]=0;
			cntr_UART_1 = 0;
			cntr_End_UART_1 = 0;
			ret = 1;
    358a:	01 e0       	ldi	r16, 0x01	; 1
			else if (cntr_End_UART_1==2 && ((INPUT_UART_1[cntr_UART_1-1] != 0xFF) || (INPUT_UART_1[cntr_UART_1-2] != 0xFF)))
			{
				cntr_End_UART_1 = 0;
			}
		}
		if (INPUT_UART_1[0] == 'q' && strlen((const char *)INPUT_UART_1) >=4)
    358c:	c6 e7       	ldi	r28, 0x76	; 118
    358e:	d4 e1       	ldi	r29, 0x14	; 20
		{
			INPUT_UART_1[0] = 255;
    3590:	ff 24       	eor	r15, r15
    3592:	fa 94       	dec	r15
			{
				cntr_End_UART_1++;
			}
			else if (cntr_End_UART_1==1 && (INPUT_UART_1[cntr_UART_1-1] == 0xFF))
			{
				cntr_End_UART_1++;
    3594:	68 94       	set
    3596:	ee 24       	eor	r14, r14
    3598:	e1 f8       	bld	r14, 1
}

char check_Communication_Input_UART_1(void)
{
	char ret = 0;
	while(RB_length(&rb_rx_Display)>0)					// UART_1
    359a:	61 c0       	rjmp	.+194    	; 0x365e <check_Communication_Input_UART_1+0xe6>
	{

		unsigned char ch = RB_readByte(&rb_rx_Display);
    359c:	81 e2       	ldi	r24, 0x21	; 33
    359e:	9b e0       	ldi	r25, 0x0B	; 11
    35a0:	7c d2       	rcall	.+1272   	; 0x3a9a <RB_readByte>

		if (ch == 0xFF && INPUT_UART_1[0] != 'q')
    35a2:	8f 3f       	cpi	r24, 0xFF	; 255
    35a4:	79 f5       	brne	.+94     	; 0x3604 <check_Communication_Input_UART_1+0x8c>
    35a6:	98 81       	ld	r25, Y
    35a8:	91 37       	cpi	r25, 0x71	; 113
    35aa:	79 f1       	breq	.+94     	; 0x360a <check_Communication_Input_UART_1+0x92>
		{
			if (cntr_End_UART_1==0)
    35ac:	90 91 d5 07 	lds	r25, 0x07D5	; 0x8007d5 <cntr_End_UART_1>
    35b0:	91 11       	cpse	r25, r1
    35b2:	03 c0       	rjmp	.+6      	; 0x35ba <check_Communication_Input_UART_1+0x42>
			{
				cntr_End_UART_1++;
    35b4:	00 93 d5 07 	sts	0x07D5, r16	; 0x8007d5 <cntr_End_UART_1>
    35b8:	47 c0       	rjmp	.+142    	; 0x3648 <check_Communication_Input_UART_1+0xd0>
			}
			else if (cntr_End_UART_1==1 && (INPUT_UART_1[cntr_UART_1-1] == 0xFF))
    35ba:	91 30       	cpi	r25, 0x01	; 1
    35bc:	71 f4       	brne	.+28     	; 0x35da <check_Communication_Input_UART_1+0x62>
    35be:	e0 91 d6 07 	lds	r30, 0x07D6	; 0x8007d6 <cntr_UART_1>
    35c2:	f0 e0       	ldi	r31, 0x00	; 0
    35c4:	eb 58       	subi	r30, 0x8B	; 139
    35c6:	fb 4e       	sbci	r31, 0xEB	; 235
    35c8:	90 81       	ld	r25, Z
    35ca:	9f 3f       	cpi	r25, 0xFF	; 255
    35cc:	19 f4       	brne	.+6      	; 0x35d4 <check_Communication_Input_UART_1+0x5c>
			{
				cntr_End_UART_1++;
    35ce:	e0 92 d5 07 	sts	0x07D5, r14	; 0x8007d5 <cntr_End_UART_1>
    35d2:	3a c0       	rjmp	.+116    	; 0x3648 <check_Communication_Input_UART_1+0xd0>
			}
			else if (cntr_End_UART_1==1 && (INPUT_UART_1[cntr_UART_1-1] != 0xFF))
			{
				cntr_End_UART_1=0;
    35d4:	10 93 d5 07 	sts	0x07D5, r17	; 0x8007d5 <cntr_End_UART_1>
    35d8:	37 c0       	rjmp	.+110    	; 0x3648 <check_Communication_Input_UART_1+0xd0>
			}
			else if (cntr_End_UART_1==2 && (INPUT_UART_1[cntr_UART_1-1] == 0xFF) && (INPUT_UART_1[cntr_UART_1-2] == 0xFF))
    35da:	92 30       	cpi	r25, 0x02	; 2
    35dc:	01 f5       	brne	.+64     	; 0x361e <check_Communication_Input_UART_1+0xa6>
    35de:	20 91 d6 07 	lds	r18, 0x07D6	; 0x8007d6 <cntr_UART_1>
    35e2:	30 e0       	ldi	r19, 0x00	; 0
    35e4:	f9 01       	movw	r30, r18
    35e6:	eb 58       	subi	r30, 0x8B	; 139
    35e8:	fb 4e       	sbci	r31, 0xEB	; 235
    35ea:	90 81       	ld	r25, Z
    35ec:	9f 3f       	cpi	r25, 0xFF	; 255
    35ee:	39 f4       	brne	.+14     	; 0x35fe <check_Communication_Input_UART_1+0x86>
    35f0:	f9 01       	movw	r30, r18
    35f2:	ec 58       	subi	r30, 0x8C	; 140
    35f4:	fb 4e       	sbci	r31, 0xEB	; 235
    35f6:	90 81       	ld	r25, Z
    35f8:	9f 3f       	cpi	r25, 0xFF	; 255
    35fa:	b9 f5       	brne	.+110    	; 0x366a <check_Communication_Input_UART_1+0xf2>
    35fc:	14 c0       	rjmp	.+40     	; 0x3626 <check_Communication_Input_UART_1+0xae>
			{
				cntr_End_UART_1++;
			}
			else if (cntr_End_UART_1==2 && ((INPUT_UART_1[cntr_UART_1-1] != 0xFF) || (INPUT_UART_1[cntr_UART_1-2] != 0xFF)))
			{
				cntr_End_UART_1 = 0;
    35fe:	10 93 d5 07 	sts	0x07D5, r17	; 0x8007d5 <cntr_End_UART_1>
    3602:	22 c0       	rjmp	.+68     	; 0x3648 <check_Communication_Input_UART_1+0xd0>
			}
		}
		if (INPUT_UART_1[0] == 'q' && strlen((const char *)INPUT_UART_1) >=4)
    3604:	98 81       	ld	r25, Y
    3606:	91 37       	cpi	r25, 0x71	; 113
    3608:	51 f4       	brne	.+20     	; 0x361e <check_Communication_Input_UART_1+0xa6>
    360a:	fe 01       	movw	r30, r28
    360c:	01 90       	ld	r0, Z+
    360e:	00 20       	and	r0, r0
    3610:	e9 f7       	brne	.-6      	; 0x360c <check_Communication_Input_UART_1+0x94>
    3612:	31 97       	sbiw	r30, 0x01	; 1
    3614:	e6 57       	subi	r30, 0x76	; 118
    3616:	f4 41       	sbci	r31, 0x14	; 20
    3618:	34 97       	sbiw	r30, 0x04	; 4
    361a:	08 f0       	brcs	.+2      	; 0x361e <check_Communication_Input_UART_1+0xa6>
		{
			INPUT_UART_1[0] = 255;
    361c:	f8 82       	st	Y, r15
		}
		if (cntr_End_UART_1 == 3)
    361e:	90 91 d5 07 	lds	r25, 0x07D5	; 0x8007d5 <cntr_End_UART_1>
    3622:	93 30       	cpi	r25, 0x03	; 3
    3624:	89 f4       	brne	.+34     	; 0x3648 <check_Communication_Input_UART_1+0xd0>
		{
			INPUT_UART_1[cntr_UART_1] = 0;
    3626:	e0 91 d6 07 	lds	r30, 0x07D6	; 0x8007d6 <cntr_UART_1>
    362a:	f0 e0       	ldi	r31, 0x00	; 0
    362c:	ea 58       	subi	r30, 0x8A	; 138
    362e:	fb 4e       	sbci	r31, 0xEB	; 235
    3630:	10 82       	st	Z, r1
			INPUT_UART_1[cntr_UART_1-1]=0;
    3632:	df 01       	movw	r26, r30
    3634:	11 97       	sbiw	r26, 0x01	; 1
    3636:	1c 92       	st	X, r1
			INPUT_UART_1[cntr_UART_1-2]=0;
    3638:	32 97       	sbiw	r30, 0x02	; 2
    363a:	10 82       	st	Z, r1
			cntr_UART_1 = 0;
    363c:	10 93 d6 07 	sts	0x07D6, r17	; 0x8007d6 <cntr_UART_1>
			cntr_End_UART_1 = 0;
    3640:	10 93 d5 07 	sts	0x07D5, r17	; 0x8007d5 <cntr_End_UART_1>
			ret = 1;
    3644:	d0 2e       	mov	r13, r16
    3646:	0b c0       	rjmp	.+22     	; 0x365e <check_Communication_Input_UART_1+0xe6>
		}
		else
		{
			INPUT_UART_1[cntr_UART_1]=ch;
    3648:	90 91 d6 07 	lds	r25, 0x07D6	; 0x8007d6 <cntr_UART_1>
    364c:	e9 2f       	mov	r30, r25
    364e:	f0 e0       	ldi	r31, 0x00	; 0
    3650:	ea 58       	subi	r30, 0x8A	; 138
    3652:	fb 4e       	sbci	r31, 0xEB	; 235
    3654:	80 83       	st	Z, r24
			cntr_UART_1++;
    3656:	9f 5f       	subi	r25, 0xFF	; 255
    3658:	90 93 d6 07 	sts	0x07D6, r25	; 0x8007d6 <cntr_UART_1>
			ret = 0;
    365c:	d1 2e       	mov	r13, r17
}

char check_Communication_Input_UART_1(void)
{
	char ret = 0;
	while(RB_length(&rb_rx_Display)>0)					// UART_1
    365e:	81 e2       	ldi	r24, 0x21	; 33
    3660:	9b e0       	ldi	r25, 0x0B	; 11
    3662:	0f d2       	rcall	.+1054   	; 0x3a82 <RB_length>
    3664:	81 11       	cpse	r24, r1
    3666:	9a cf       	rjmp	.-204    	; 0x359c <check_Communication_Input_UART_1+0x24>
    3668:	07 c0       	rjmp	.+14     	; 0x3678 <check_Communication_Input_UART_1+0x100>
			}
			else if (cntr_End_UART_1==2 && (INPUT_UART_1[cntr_UART_1-1] == 0xFF) && (INPUT_UART_1[cntr_UART_1-2] == 0xFF))
			{
				cntr_End_UART_1++;
			}
			else if (cntr_End_UART_1==2 && ((INPUT_UART_1[cntr_UART_1-1] != 0xFF) || (INPUT_UART_1[cntr_UART_1-2] != 0xFF)))
    366a:	f9 01       	movw	r30, r18
    366c:	ec 58       	subi	r30, 0x8C	; 140
    366e:	fb 4e       	sbci	r31, 0xEB	; 235
    3670:	90 81       	ld	r25, Z
    3672:	9f 3f       	cpi	r25, 0xFF	; 255
    3674:	21 f6       	brne	.-120    	; 0x35fe <check_Communication_Input_UART_1+0x86>
    3676:	e8 cf       	rjmp	.-48     	; 0x3648 <check_Communication_Input_UART_1+0xd0>
			cntr_UART_1++;
			ret = 0;
		}
	}
	return ret;
}
    3678:	8d 2d       	mov	r24, r13
    367a:	df 91       	pop	r29
    367c:	cf 91       	pop	r28
    367e:	1f 91       	pop	r17
    3680:	0f 91       	pop	r16
    3682:	ff 90       	pop	r15
    3684:	ef 90       	pop	r14
    3686:	df 90       	pop	r13
    3688:	08 95       	ret

0000368a <proceed_Communication_INPUT_UART_1>:

void proceed_Communication_INPUT_UART_1(void)
{
	Uart_Transmit_IT_PC("Proceed UART 1: ");
    368a:	87 ef       	ldi	r24, 0xF7	; 247
    368c:	95 e0       	ldi	r25, 0x05	; 5
    368e:	0e 94 74 2a 	call	0x54e8	; 0x54e8 <Uart_Transmit_IT_PC>
	Uart_Transmit_IT_PC((char *)INPUT_UART_1);
    3692:	86 e7       	ldi	r24, 0x76	; 118
    3694:	94 e1       	ldi	r25, 0x14	; 20
    3696:	0e 94 74 2a 	call	0x54e8	; 0x54e8 <Uart_Transmit_IT_PC>
	Uart_Transmit_IT_PC("\r");
    369a:	83 ed       	ldi	r24, 0xD3	; 211
    369c:	95 e0       	ldi	r25, 0x05	; 5
    369e:	0e 94 74 2a 	call	0x54e8	; 0x54e8 <Uart_Transmit_IT_PC>
	
	cocktail_check_command(INPUT_UART_1[0], INPUT_UART_1[1]);
    36a2:	e6 e7       	ldi	r30, 0x76	; 118
    36a4:	f4 e1       	ldi	r31, 0x14	; 20
    36a6:	61 81       	ldd	r22, Z+1	; 0x01
    36a8:	80 81       	ld	r24, Z
    36aa:	7d ca       	rjmp	.-2822   	; 0x2ba6 <cocktail_check_command>
    36ac:	08 95       	ret

000036ae <check_Communication_Input_UART_2>:
}

char check_Communication_Input_UART_2(void)
{
    36ae:	0f 93       	push	r16
    36b0:	1f 93       	push	r17
    36b2:	cf 93       	push	r28
    36b4:	df 93       	push	r29
	char ret = 0;
    36b6:	00 e0       	ldi	r16, 0x00	; 0
		}
		else
		{
			INPUT_UART_2[cntr_UART_2]=ch;
			cntr_UART_2++;
			ret = 0;
    36b8:	c0 e0       	ldi	r28, 0x00	; 0
			INPUT_UART_2[cntr_UART_2] = 0;
			INPUT_UART_2[cntr_UART_2-1]=0;
			INPUT_UART_2[cntr_UART_2-2]=0;
			cntr_UART_2 = 0;
			cntr_End_UART_2 = 0;
			ret = 1;
    36ba:	d1 e0       	ldi	r29, 0x01	; 1
			{
				cntr_End_UART_2++;
			}
			if (cntr_End_UART_2==1 && (INPUT_UART_2[cntr_UART_2-1] == 0xFF))
			{
				cntr_End_UART_2++;
    36bc:	12 e0       	ldi	r17, 0x02	; 2
}

char check_Communication_Input_UART_2(void)
{
	char ret = 0;
	while(RB_length(&rb_rx_ESP)>0)					// UART_2
    36be:	49 c0       	rjmp	.+146    	; 0x3752 <check_Communication_Input_UART_2+0xa4>
	{
		unsigned char ch = RB_readByte(&rb_rx_ESP);
    36c0:	8a e1       	ldi	r24, 0x1A	; 26
    36c2:	9a e0       	ldi	r25, 0x0A	; 10
    36c4:	ea d1       	rcall	.+980    	; 0x3a9a <RB_readByte>
		// Verbesserung oder Verschlimmbesserung: Falls cntr_UART_1 >=2 dann schauen ob die letzten drei bertragungen [cntr_UART_1], [cntr_UART_1-1], [cntr_UART_1-2] 0xFF sind
		if (ch == 0xFF)
    36c6:	8f 3f       	cpi	r24, 0xFF	; 255
    36c8:	21 f5       	brne	.+72     	; 0x3712 <check_Communication_Input_UART_2+0x64>
		{
			if (cntr_End_UART_2==0)
    36ca:	90 91 d3 07 	lds	r25, 0x07D3	; 0x8007d3 <cntr_End_UART_2>
    36ce:	99 23       	and	r25, r25
    36d0:	19 f0       	breq	.+6      	; 0x36d8 <check_Communication_Input_UART_2+0x2a>
			{
				cntr_End_UART_2++;
			}
			if (cntr_End_UART_2==1 && (INPUT_UART_2[cntr_UART_2-1] == 0xFF))
    36d2:	91 30       	cpi	r25, 0x01	; 1
    36d4:	09 f0       	breq	.+2      	; 0x36d8 <check_Communication_Input_UART_2+0x2a>
    36d6:	46 c0       	rjmp	.+140    	; 0x3764 <check_Communication_Input_UART_2+0xb6>
    36d8:	e0 91 d4 07 	lds	r30, 0x07D4	; 0x8007d4 <cntr_UART_2>
    36dc:	f0 e0       	ldi	r31, 0x00	; 0
    36de:	e9 58       	subi	r30, 0x89	; 137
    36e0:	fa 4e       	sbci	r31, 0xEA	; 234
    36e2:	90 81       	ld	r25, Z
    36e4:	9f 3f       	cpi	r25, 0xFF	; 255
    36e6:	d9 f5       	brne	.+118    	; 0x375e <check_Communication_Input_UART_2+0xb0>
			{
				cntr_End_UART_2++;
    36e8:	10 93 d3 07 	sts	0x07D3, r17	; 0x8007d3 <cntr_End_UART_2>
			}
			if (cntr_End_UART_2==1 && (INPUT_UART_2[cntr_UART_2-1] != 0xFF))
			{
				cntr_End_UART_2=0;
			}
			if (cntr_End_UART_2==2 && (INPUT_UART_2[cntr_UART_2-1] == 0xFF) && (INPUT_UART_2[cntr_UART_2-2] == 0xFF))
    36ec:	20 91 d4 07 	lds	r18, 0x07D4	; 0x8007d4 <cntr_UART_2>
    36f0:	30 e0       	ldi	r19, 0x00	; 0
    36f2:	f9 01       	movw	r30, r18
    36f4:	e9 58       	subi	r30, 0x89	; 137
    36f6:	fa 4e       	sbci	r31, 0xEA	; 234
    36f8:	90 81       	ld	r25, Z
    36fa:	9f 3f       	cpi	r25, 0xFF	; 255
    36fc:	39 f4       	brne	.+14     	; 0x370c <check_Communication_Input_UART_2+0x5e>
    36fe:	f9 01       	movw	r30, r18
    3700:	ea 58       	subi	r30, 0x8A	; 138
    3702:	fa 4e       	sbci	r31, 0xEA	; 234
    3704:	90 81       	ld	r25, Z
    3706:	9f 3f       	cpi	r25, 0xFF	; 255
    3708:	91 f5       	brne	.+100    	; 0x376e <check_Communication_Input_UART_2+0xc0>
    370a:	07 c0       	rjmp	.+14     	; 0x371a <check_Communication_Input_UART_2+0x6c>
			{
				cntr_End_UART_2++;
			}
			if (cntr_End_UART_2==2 && ((INPUT_UART_2[cntr_UART_2-1] != 0xFF) || (INPUT_UART_2[cntr_UART_2-2] != 0xFF)))
			{
				cntr_End_UART_2 = 0;
    370c:	c0 93 d3 07 	sts	0x07D3, r28	; 0x8007d3 <cntr_End_UART_2>
    3710:	15 c0       	rjmp	.+42     	; 0x373c <check_Communication_Input_UART_2+0x8e>
			}
		}
		if (cntr_End_UART_2 == 3)
    3712:	90 91 d3 07 	lds	r25, 0x07D3	; 0x8007d3 <cntr_End_UART_2>
    3716:	93 30       	cpi	r25, 0x03	; 3
    3718:	89 f4       	brne	.+34     	; 0x373c <check_Communication_Input_UART_2+0x8e>
		{
			INPUT_UART_2[cntr_UART_2] = 0;
    371a:	e0 91 d4 07 	lds	r30, 0x07D4	; 0x8007d4 <cntr_UART_2>
    371e:	f0 e0       	ldi	r31, 0x00	; 0
    3720:	e8 58       	subi	r30, 0x88	; 136
    3722:	fa 4e       	sbci	r31, 0xEA	; 234
    3724:	10 82       	st	Z, r1
			INPUT_UART_2[cntr_UART_2-1]=0;
    3726:	df 01       	movw	r26, r30
    3728:	11 97       	sbiw	r26, 0x01	; 1
    372a:	1c 92       	st	X, r1
			INPUT_UART_2[cntr_UART_2-2]=0;
    372c:	32 97       	sbiw	r30, 0x02	; 2
    372e:	10 82       	st	Z, r1
			cntr_UART_2 = 0;
    3730:	c0 93 d4 07 	sts	0x07D4, r28	; 0x8007d4 <cntr_UART_2>
			cntr_End_UART_2 = 0;
    3734:	c0 93 d3 07 	sts	0x07D3, r28	; 0x8007d3 <cntr_End_UART_2>
			ret = 1;
    3738:	0d 2f       	mov	r16, r29
    373a:	0b c0       	rjmp	.+22     	; 0x3752 <check_Communication_Input_UART_2+0xa4>
		}
		else
		{
			INPUT_UART_2[cntr_UART_2]=ch;
    373c:	90 91 d4 07 	lds	r25, 0x07D4	; 0x8007d4 <cntr_UART_2>
    3740:	e9 2f       	mov	r30, r25
    3742:	f0 e0       	ldi	r31, 0x00	; 0
    3744:	e8 58       	subi	r30, 0x88	; 136
    3746:	fa 4e       	sbci	r31, 0xEA	; 234
    3748:	80 83       	st	Z, r24
			cntr_UART_2++;
    374a:	9f 5f       	subi	r25, 0xFF	; 255
    374c:	90 93 d4 07 	sts	0x07D4, r25	; 0x8007d4 <cntr_UART_2>
			ret = 0;
    3750:	0c 2f       	mov	r16, r28
}

char check_Communication_Input_UART_2(void)
{
	char ret = 0;
	while(RB_length(&rb_rx_ESP)>0)					// UART_2
    3752:	8a e1       	ldi	r24, 0x1A	; 26
    3754:	9a e0       	ldi	r25, 0x0A	; 10
    3756:	95 d1       	rcall	.+810    	; 0x3a82 <RB_length>
    3758:	81 11       	cpse	r24, r1
    375a:	b2 cf       	rjmp	.-156    	; 0x36c0 <check_Communication_Input_UART_2+0x12>
    375c:	11 c0       	rjmp	.+34     	; 0x3780 <check_Communication_Input_UART_2+0xd2>
			{
				cntr_End_UART_2++;
			}
			if (cntr_End_UART_2==1 && (INPUT_UART_2[cntr_UART_2-1] != 0xFF))
			{
				cntr_End_UART_2=0;
    375e:	c0 93 d3 07 	sts	0x07D3, r28	; 0x8007d3 <cntr_End_UART_2>
    3762:	d7 cf       	rjmp	.-82     	; 0x3712 <check_Communication_Input_UART_2+0x64>
			}
			if (cntr_End_UART_2==2 && (INPUT_UART_2[cntr_UART_2-1] == 0xFF) && (INPUT_UART_2[cntr_UART_2-2] == 0xFF))
    3764:	90 91 d3 07 	lds	r25, 0x07D3	; 0x8007d3 <cntr_End_UART_2>
    3768:	92 30       	cpi	r25, 0x02	; 2
    376a:	99 f6       	brne	.-90     	; 0x3712 <check_Communication_Input_UART_2+0x64>
    376c:	bf cf       	rjmp	.-130    	; 0x36ec <check_Communication_Input_UART_2+0x3e>
			{
				cntr_End_UART_2++;
			}
			if (cntr_End_UART_2==2 && ((INPUT_UART_2[cntr_UART_2-1] != 0xFF) || (INPUT_UART_2[cntr_UART_2-2] != 0xFF)))
    376e:	e0 91 d4 07 	lds	r30, 0x07D4	; 0x8007d4 <cntr_UART_2>
    3772:	f0 e0       	ldi	r31, 0x00	; 0
    3774:	ea 58       	subi	r30, 0x8A	; 138
    3776:	fa 4e       	sbci	r31, 0xEA	; 234
    3778:	90 81       	ld	r25, Z
    377a:	9f 3f       	cpi	r25, 0xFF	; 255
    377c:	39 f6       	brne	.-114    	; 0x370c <check_Communication_Input_UART_2+0x5e>
    377e:	de cf       	rjmp	.-68     	; 0x373c <check_Communication_Input_UART_2+0x8e>
			ret = 0;
			
		}
	}
	return ret;
}
    3780:	80 2f       	mov	r24, r16
    3782:	df 91       	pop	r29
    3784:	cf 91       	pop	r28
    3786:	1f 91       	pop	r17
    3788:	0f 91       	pop	r16
    378a:	08 95       	ret

0000378c <proceed_Communication_Input_UART_2>:

void proceed_Communication_Input_UART_2(void)
{
	Uart_Transmit_IT_PC("Proceed UART 2: ");
    378c:	88 e0       	ldi	r24, 0x08	; 8
    378e:	96 e0       	ldi	r25, 0x06	; 6
    3790:	0e 94 74 2a 	call	0x54e8	; 0x54e8 <Uart_Transmit_IT_PC>
	Uart_Transmit_IT_PC((char *)INPUT_UART_2);
    3794:	88 e7       	ldi	r24, 0x78	; 120
    3796:	95 e1       	ldi	r25, 0x15	; 21
    3798:	0e 94 74 2a 	call	0x54e8	; 0x54e8 <Uart_Transmit_IT_PC>
	Uart_Transmit_IT_PC("\r\n");
    379c:	80 e7       	ldi	r24, 0x70	; 112
    379e:	96 e0       	ldi	r25, 0x06	; 6
    37a0:	0e 94 74 2a 	call	0x54e8	; 0x54e8 <Uart_Transmit_IT_PC>
	
	cocktail_check_command(4,1);
    37a4:	61 e0       	ldi	r22, 0x01	; 1
    37a6:	84 e0       	ldi	r24, 0x04	; 4
    37a8:	fe c9       	rjmp	.-3076   	; 0x2ba6 <cocktail_check_command>
    37aa:	08 95       	ret

000037ac <check_Communication_Input_UART>:
// 	cocktail_check_command(INPUT_UART_3[0],INPUT_UART_3[1]);
// }

void check_Communication_Input_UART(void)
{
	if (check_Communication_Input_UART_0())				// Check UART_0 (USB), ob vollstndige bertragung stattgefunden hat (Ende = "\r")
    37ac:	b3 de       	rcall	.-666    	; 0x3514 <check_Communication_Input_UART_0>
    37ae:	81 11       	cpse	r24, r1
	{
		proceed_Communication_Input_UART_0();				// Vollstndige bertragung des USB verarbeiten
    37b0:	de de       	rcall	.-580    	; 0x356e <proceed_Communication_Input_UART_0>
	}
	if (check_Communication_Input_UART_1())				// Check UART_1 (Nextion-Display), ob vollstndige bertragung stattgefunden hat (Ende = "0xFF 0xFF 0xFF")
    37b2:	e2 de       	rcall	.-572    	; 0x3578 <check_Communication_Input_UART_1>
	{
		proceed_Communication_INPUT_UART_1();				// Vollstndige bertragung des Displays verarbeiten
    37b4:	81 11       	cpse	r24, r1
	}
	if (check_Communication_Input_UART_2())				// Check UART_2 (ESP), ob vollstndige bertragung stattgefunden hat (Ende = "0xFF 0xFF 0xFF")
    37b6:	69 df       	rcall	.-302    	; 0x368a <proceed_Communication_INPUT_UART_1>
    37b8:	7a df       	rcall	.-268    	; 0x36ae <check_Communication_Input_UART_2>
    37ba:	81 11       	cpse	r24, r1
	{
		proceed_Communication_Input_UART_2();				// Vollstndige bertragung des ESP's verarbeiten
    37bc:	e7 cf       	rjmp	.-50     	; 0x378c <proceed_Communication_Input_UART_2>
    37be:	08 95       	ret

000037c0 <endConversation>:
    37c0:	cf 93       	push	r28
	endConversation();
}


void endConversation(void)
{
    37c2:	df 93       	push	r29
    37c4:	00 d0       	rcall	.+0      	; 0x37c6 <endConversation+0x6>
    37c6:	1f 92       	push	r1
    37c8:	cd b7       	in	r28, 0x3d	; 61
    37ca:	de b7       	in	r29, 0x3e	; 62
	unsigned char end [4]= {255,255,255,'\0'};
    37cc:	8f ef       	ldi	r24, 0xFF	; 255
    37ce:	89 83       	std	Y+1, r24	; 0x01
    37d0:	8a 83       	std	Y+2, r24	; 0x02
    37d2:	8b 83       	std	Y+3, r24	; 0x03
    37d4:	1c 82       	std	Y+4, r1	; 0x04
	Uart_Transmit_IT_Display(( char *)end);
    37d6:	ce 01       	movw	r24, r28
    37d8:	01 96       	adiw	r24, 0x01	; 1
    37da:	0e 94 87 2a 	call	0x550e	; 0x550e <Uart_Transmit_IT_Display>
	if (DEBUG_DISPLAY)
	{
		Uart_Transmit_IT_PC((char *)end);
		Uart_Transmit_IT_PC("\r\n");
	}
    37de:	0f 90       	pop	r0
    37e0:	0f 90       	pop	r0
    37e2:	0f 90       	pop	r0
    37e4:	0f 90       	pop	r0
    37e6:	df 91       	pop	r29
    37e8:	cf 91       	pop	r28
    37ea:	08 95       	ret

000037ec <nextion_change_page>:

#include "Nextion_Display.h"
#include "../Main_functions/Main_Func.h"

void nextion_change_page(char page)
{
    37ec:	cf 93       	push	r28
    37ee:	df 93       	push	r29
    37f0:	00 d0       	rcall	.+0      	; 0x37f2 <nextion_change_page+0x6>
    37f2:	cd b7       	in	r28, 0x3d	; 61
    37f4:	de b7       	in	r29, 0x3e	; 62
	char * pge = "page ";
 	char buff[3] = {0};
    37f6:	19 82       	std	Y+1, r1	; 0x01
    37f8:	1a 82       	std	Y+2, r1	; 0x02
    37fa:	1b 82       	std	Y+3, r1	; 0x03
    37fc:	90 e0       	ldi	r25, 0x00	; 0
    37fe:	4a e0       	ldi	r20, 0x0A	; 10
    3800:	be 01       	movw	r22, r28
    3802:	6f 5f       	subi	r22, 0xFF	; 255
    3804:	7f 4f       	sbci	r23, 0xFF	; 255
    3806:	01 97       	sbiw	r24, 0x01	; 1
    3808:	0e 94 6f 2e 	call	0x5cde	; 0x5cde <__itoa_ncheck>
	itoa((page-1),(char *)buff,10);
	Uart_Transmit_IT_Display(pge);
    380c:	89 e1       	ldi	r24, 0x19	; 25
    380e:	96 e0       	ldi	r25, 0x06	; 6
    3810:	0e 94 87 2a 	call	0x550e	; 0x550e <Uart_Transmit_IT_Display>
	Uart_Transmit_IT_Display((char *)buff);
    3814:	ce 01       	movw	r24, r28
    3816:	01 96       	adiw	r24, 0x01	; 1
    3818:	0e 94 87 2a 	call	0x550e	; 0x550e <Uart_Transmit_IT_Display>
	if (DEBUG_DISPLAY)
	{
		Uart_Transmit_IT_PC(pge);
		Uart_Transmit_IT_PC((char *)buff);
	}
	endConversation();
    381c:	d1 df       	rcall	.-94     	; 0x37c0 <endConversation>
}
    381e:	0f 90       	pop	r0
    3820:	0f 90       	pop	r0
    3822:	0f 90       	pop	r0
    3824:	df 91       	pop	r29
    3826:	cf 91       	pop	r28
    3828:	08 95       	ret

0000382a <nextion_setText>:

void nextion_setText(char * object, char * text)
{
    382a:	cf 93       	push	r28
    382c:	df 93       	push	r29
    382e:	eb 01       	movw	r28, r22
	char * txt = ".txt=";
	char * slash = "\"";
	Uart_Transmit_IT_Display(object);
    3830:	0e 94 87 2a 	call	0x550e	; 0x550e <Uart_Transmit_IT_Display>
	Uart_Transmit_IT_Display(txt);
    3834:	8f e1       	ldi	r24, 0x1F	; 31
    3836:	96 e0       	ldi	r25, 0x06	; 6
    3838:	0e 94 87 2a 	call	0x550e	; 0x550e <Uart_Transmit_IT_Display>
	Uart_Transmit_IT_Display(slash);
    383c:	85 e2       	ldi	r24, 0x25	; 37
    383e:	96 e0       	ldi	r25, 0x06	; 6
    3840:	0e 94 87 2a 	call	0x550e	; 0x550e <Uart_Transmit_IT_Display>
	Uart_Transmit_IT_Display(text);
    3844:	ce 01       	movw	r24, r28
    3846:	0e 94 87 2a 	call	0x550e	; 0x550e <Uart_Transmit_IT_Display>
	Uart_Transmit_IT_Display(slash);
    384a:	85 e2       	ldi	r24, 0x25	; 37
    384c:	96 e0       	ldi	r25, 0x06	; 6
    384e:	0e 94 87 2a 	call	0x550e	; 0x550e <Uart_Transmit_IT_Display>
		Uart_Transmit_IT_PC(slash);
		Uart_Transmit_IT_PC(text);
		Uart_Transmit_IT_PC(slash);
	}
	
	endConversation();
    3852:	b6 df       	rcall	.-148    	; 0x37c0 <endConversation>
}
    3854:	df 91       	pop	r29
    3856:	cf 91       	pop	r28
    3858:	08 95       	ret

0000385a <nextion_setValue>:

void nextion_setValue( char * object,  char * value)
{
    385a:	cf 93       	push	r28
    385c:	df 93       	push	r29
    385e:	eb 01       	movw	r28, r22
	 char * val = ".val=";
	Uart_Transmit_IT_Display(object);
    3860:	0e 94 87 2a 	call	0x550e	; 0x550e <Uart_Transmit_IT_Display>
	Uart_Transmit_IT_Display(val);
    3864:	87 e2       	ldi	r24, 0x27	; 39
    3866:	96 e0       	ldi	r25, 0x06	; 6
    3868:	0e 94 87 2a 	call	0x550e	; 0x550e <Uart_Transmit_IT_Display>
	Uart_Transmit_IT_Display(value);
    386c:	ce 01       	movw	r24, r28
    386e:	0e 94 87 2a 	call	0x550e	; 0x550e <Uart_Transmit_IT_Display>
	{
		Uart_Transmit_IT_PC(object);
		Uart_Transmit_IT_PC(val);
		Uart_Transmit_IT_PC(value);
	}
	endConversation();
    3872:	a6 df       	rcall	.-180    	; 0x37c0 <endConversation>
}
    3874:	df 91       	pop	r29
    3876:	cf 91       	pop	r28
    3878:	08 95       	ret

0000387a <nextion_setPicture>:

void nextion_setPicture( char * x,  char * y,  char * picture)
{
    387a:	ef 92       	push	r14
    387c:	ff 92       	push	r15
    387e:	0f 93       	push	r16
    3880:	1f 93       	push	r17
    3882:	cf 93       	push	r28
    3884:	df 93       	push	r29
    3886:	7c 01       	movw	r14, r24
    3888:	8b 01       	movw	r16, r22
    388a:	ea 01       	movw	r28, r20
	 char * pic = "pic ";
	 char * komma = ",";
	Uart_Transmit_IT_Display(pic);
    388c:	8d e2       	ldi	r24, 0x2D	; 45
    388e:	96 e0       	ldi	r25, 0x06	; 6
    3890:	0e 94 87 2a 	call	0x550e	; 0x550e <Uart_Transmit_IT_Display>
	Uart_Transmit_IT_Display(x);
    3894:	c7 01       	movw	r24, r14
    3896:	0e 94 87 2a 	call	0x550e	; 0x550e <Uart_Transmit_IT_Display>
	Uart_Transmit_IT_Display(komma);
    389a:	82 e3       	ldi	r24, 0x32	; 50
    389c:	96 e0       	ldi	r25, 0x06	; 6
    389e:	0e 94 87 2a 	call	0x550e	; 0x550e <Uart_Transmit_IT_Display>
	Uart_Transmit_IT_Display(y);
    38a2:	c8 01       	movw	r24, r16
    38a4:	0e 94 87 2a 	call	0x550e	; 0x550e <Uart_Transmit_IT_Display>
	Uart_Transmit_IT_Display(komma);
    38a8:	82 e3       	ldi	r24, 0x32	; 50
    38aa:	96 e0       	ldi	r25, 0x06	; 6
    38ac:	0e 94 87 2a 	call	0x550e	; 0x550e <Uart_Transmit_IT_Display>
	Uart_Transmit_IT_Display(picture);
    38b0:	ce 01       	movw	r24, r28
    38b2:	0e 94 87 2a 	call	0x550e	; 0x550e <Uart_Transmit_IT_Display>
		Uart_Transmit_IT_PC((char *)komma);
		Uart_Transmit_IT_PC((char *)y);
		Uart_Transmit_IT_PC((char *)komma);
		Uart_Transmit_IT_PC((char *)picture);
	}
		endConversation();
    38b6:	84 df       	rcall	.-248    	; 0x37c0 <endConversation>
}
    38b8:	df 91       	pop	r29
    38ba:	cf 91       	pop	r28
    38bc:	1f 91       	pop	r17
    38be:	0f 91       	pop	r16
    38c0:	ff 90       	pop	r15
    38c2:	ef 90       	pop	r14
    38c4:	08 95       	ret

000038c6 <nextion_getSliderValue>:

uint8_t nextion_getSliderValue(char * object, unsigned char * INPUT)
{
    38c6:	ef 92       	push	r14
    38c8:	ff 92       	push	r15
    38ca:	0f 93       	push	r16
    38cc:	1f 93       	push	r17
    38ce:	cf 93       	push	r28
    38d0:	df 93       	push	r29
    38d2:	cd b7       	in	r28, 0x3d	; 61
    38d4:	de b7       	in	r29, 0x3e	; 62
    38d6:	64 97       	sbiw	r28, 0x14	; 20
    38d8:	0f b6       	in	r0, 0x3f	; 63
    38da:	f8 94       	cli
    38dc:	de bf       	out	0x3e, r29	; 62
    38de:	0f be       	out	0x3f, r0	; 63
    38e0:	cd bf       	out	0x3d, r28	; 61
    38e2:	9c 01       	movw	r18, r24
    38e4:	7b 01       	movw	r14, r22
	uint8_t ret = 0;
	
	char buff[20] = {0};
    38e6:	8e 01       	movw	r16, r28
    38e8:	0f 5f       	subi	r16, 0xFF	; 255
    38ea:	1f 4f       	sbci	r17, 0xFF	; 255
    38ec:	84 e1       	ldi	r24, 0x14	; 20
    38ee:	f8 01       	movw	r30, r16
    38f0:	11 92       	st	Z+, r1
    38f2:	8a 95       	dec	r24
    38f4:	e9 f7       	brne	.-6      	; 0x38f0 <nextion_getSliderValue+0x2a>
	char * get_slider = "get ";
	char * val = ".val";

	strcat((char *)buff, (const char *)get_slider);
    38f6:	d8 01       	movw	r26, r16
    38f8:	0d 90       	ld	r0, X+
    38fa:	00 20       	and	r0, r0
    38fc:	e9 f7       	brne	.-6      	; 0x38f8 <nextion_getSliderValue+0x32>
    38fe:	11 97       	sbiw	r26, 0x01	; 1
    3900:	95 e0       	ldi	r25, 0x05	; 5
    3902:	e4 e3       	ldi	r30, 0x34	; 52
    3904:	f6 e0       	ldi	r31, 0x06	; 6
    3906:	01 90       	ld	r0, Z+
    3908:	0d 92       	st	X+, r0
    390a:	9a 95       	dec	r25
    390c:	e1 f7       	brne	.-8      	; 0x3906 <nextion_getSliderValue+0x40>
	strcat((char *)buff, (const char *)object);
    390e:	b9 01       	movw	r22, r18
    3910:	c8 01       	movw	r24, r16
    3912:	0e 94 36 2e 	call	0x5c6c	; 0x5c6c <strcat>
	strcat((char *)buff, (const char *)val);
    3916:	d8 01       	movw	r26, r16
    3918:	0d 90       	ld	r0, X+
    391a:	00 20       	and	r0, r0
    391c:	e9 f7       	brne	.-6      	; 0x3918 <nextion_getSliderValue+0x52>
    391e:	11 97       	sbiw	r26, 0x01	; 1
    3920:	85 e0       	ldi	r24, 0x05	; 5
    3922:	e9 e3       	ldi	r30, 0x39	; 57
    3924:	f6 e0       	ldi	r31, 0x06	; 6
    3926:	01 90       	ld	r0, Z+
    3928:	0d 92       	st	X+, r0
    392a:	8a 95       	dec	r24
    392c:	e1 f7       	brne	.-8      	; 0x3926 <nextion_getSliderValue+0x60>
	Uart_Transmit_IT_Display((char *) buff);
    392e:	c8 01       	movw	r24, r16
    3930:	0e 94 87 2a 	call	0x550e	; 0x550e <Uart_Transmit_IT_Display>
	endConversation();
    3934:	45 df       	rcall	.-374    	; 0x37c0 <endConversation>
	
	while (check_Communication_Input_UART_1()==0)
    3936:	20 de       	rcall	.-960    	; 0x3578 <check_Communication_Input_UART_1>
    3938:	88 23       	and	r24, r24
    393a:	e9 f3       	breq	.-6      	; 0x3936 <nextion_getSliderValue+0x70>
	;
	proceed_Communication_INPUT_UART_1();
    393c:	a6 de       	rcall	.-692    	; 0x368a <proceed_Communication_INPUT_UART_1>
    393e:	f7 01       	movw	r30, r14
	
	if (*(INPUT+1)==255)
    3940:	81 81       	ldd	r24, Z+1	; 0x01
    3942:	8f 3f       	cpi	r24, 0xFF	; 255
    3944:	09 f4       	brne	.+2      	; 0x3948 <nextion_getSliderValue+0x82>
    3946:	80 e0       	ldi	r24, 0x00	; 0
	{
		ret = 0;
    3948:	64 96       	adiw	r28, 0x14	; 20
	else
	{
		ret = *(INPUT + 1);
	}
	return ret;
}
    394a:	0f b6       	in	r0, 0x3f	; 63
    394c:	f8 94       	cli
    394e:	de bf       	out	0x3e, r29	; 62
    3950:	0f be       	out	0x3f, r0	; 63
    3952:	cd bf       	out	0x3d, r28	; 61
    3954:	df 91       	pop	r29
    3956:	cf 91       	pop	r28
    3958:	1f 91       	pop	r17
    395a:	0f 91       	pop	r16
    395c:	ff 90       	pop	r15
    395e:	ef 90       	pop	r14
    3960:	08 95       	ret

00003962 <nextion_disableButton>:
    3962:	0f 93       	push	r16

void nextion_disableButton(char * object)
{
    3964:	1f 93       	push	r17
    3966:	cf 93       	push	r28
    3968:	df 93       	push	r29
    396a:	cd b7       	in	r28, 0x3d	; 61
    396c:	de b7       	in	r29, 0x3e	; 62
    396e:	64 97       	sbiw	r28, 0x14	; 20
    3970:	0f b6       	in	r0, 0x3f	; 63
    3972:	f8 94       	cli
    3974:	de bf       	out	0x3e, r29	; 62
    3976:	0f be       	out	0x3f, r0	; 63
    3978:	cd bf       	out	0x3d, r28	; 61
    397a:	bc 01       	movw	r22, r24
	char buff10[20] = {'\0'};
    397c:	8e 01       	movw	r16, r28
    397e:	0f 5f       	subi	r16, 0xFF	; 255
    3980:	1f 4f       	sbci	r17, 0xFF	; 255
    3982:	84 e1       	ldi	r24, 0x14	; 20
    3984:	f8 01       	movw	r30, r16
    3986:	11 92       	st	Z+, r1
    3988:	8a 95       	dec	r24
    398a:	e9 f7       	brne	.-6      	; 0x3986 <nextion_disableButton+0x24>
	strcpy((char *)buff10, (const char *)"tsw ");
    398c:	95 e0       	ldi	r25, 0x05	; 5
    398e:	ee e3       	ldi	r30, 0x3E	; 62
    3990:	f6 e0       	ldi	r31, 0x06	; 6
    3992:	d8 01       	movw	r26, r16
    3994:	01 90       	ld	r0, Z+
    3996:	0d 92       	st	X+, r0
    3998:	9a 95       	dec	r25
    399a:	e1 f7       	brne	.-8      	; 0x3994 <nextion_disableButton+0x32>
	strcat((char *)buff10, (const char *)object);
    399c:	c8 01       	movw	r24, r16
    399e:	0e 94 36 2e 	call	0x5c6c	; 0x5c6c <strcat>
	strcat((char *)buff10, (const char *)",0");
    39a2:	f8 01       	movw	r30, r16
    39a4:	01 90       	ld	r0, Z+
    39a6:	00 20       	and	r0, r0
    39a8:	e9 f7       	brne	.-6      	; 0x39a4 <nextion_disableButton+0x42>
    39aa:	31 97       	sbiw	r30, 0x01	; 1
    39ac:	8c e2       	ldi	r24, 0x2C	; 44
    39ae:	90 e3       	ldi	r25, 0x30	; 48
    39b0:	91 83       	std	Z+1, r25	; 0x01
    39b2:	80 83       	st	Z, r24
    39b4:	12 82       	std	Z+2, r1	; 0x02
	
	Uart_Transmit_IT_Display((char *)buff10);
    39b6:	c8 01       	movw	r24, r16
    39b8:	0e 94 87 2a 	call	0x550e	; 0x550e <Uart_Transmit_IT_Display>
	
	endConversation();
    39bc:	01 df       	rcall	.-510    	; 0x37c0 <endConversation>
}
    39be:	64 96       	adiw	r28, 0x14	; 20
    39c0:	0f b6       	in	r0, 0x3f	; 63
    39c2:	f8 94       	cli
    39c4:	de bf       	out	0x3e, r29	; 62
    39c6:	0f be       	out	0x3f, r0	; 63
    39c8:	cd bf       	out	0x3d, r28	; 61
    39ca:	df 91       	pop	r29
    39cc:	cf 91       	pop	r28
    39ce:	1f 91       	pop	r17
    39d0:	0f 91       	pop	r16
    39d2:	08 95       	ret

000039d4 <mfrc522_write>:
		Uart_Transmit_IT_PC("No reader found \r\n");
	}
}

void mfrc522_write(uint8_t reg, uint8_t data)
{
    39d4:	cf 93       	push	r28
    39d6:	df 93       	push	r29
    39d8:	c8 2f       	mov	r28, r24
    39da:	d6 2f       	mov	r29, r22
	enable_Slave(MFRC522);
    39dc:	82 e0       	ldi	r24, 0x02	; 2
    39de:	0e 94 c2 29 	call	0x5384	; 0x5384 <enable_Slave>
	spi_transmit((reg<<1)&0x7E);
    39e2:	8c 2f       	mov	r24, r28
    39e4:	88 0f       	add	r24, r24
    39e6:	8e 77       	andi	r24, 0x7E	; 126
    39e8:	0e 94 b5 29 	call	0x536a	; 0x536a <spi_transmit>
	spi_transmit(data);
    39ec:	8d 2f       	mov	r24, r29
    39ee:	0e 94 b5 29 	call	0x536a	; 0x536a <spi_transmit>
	disable_Slave(MFRC522);
    39f2:	82 e0       	ldi	r24, 0x02	; 2
    39f4:	0e 94 d6 29 	call	0x53ac	; 0x53ac <disable_Slave>
}
    39f8:	df 91       	pop	r29
    39fa:	cf 91       	pop	r28
    39fc:	08 95       	ret

000039fe <mfrc522_read>:

uint8_t mfrc522_read(uint8_t reg)
{
    39fe:	1f 93       	push	r17
    3a00:	cf 93       	push	r28
    3a02:	df 93       	push	r29
    3a04:	00 d0       	rcall	.+0      	; 0x3a06 <mfrc522_read+0x8>
    3a06:	1f 92       	push	r1
    3a08:	1f 92       	push	r1
    3a0a:	cd b7       	in	r28, 0x3d	; 61
    3a0c:	de b7       	in	r29, 0x3e	; 62
    3a0e:	18 2f       	mov	r17, r24
	uint8_t data;
	enable_Slave(MFRC522);
    3a10:	82 e0       	ldi	r24, 0x02	; 2
    3a12:	0e 94 c2 29 	call	0x5384	; 0x5384 <enable_Slave>
	spi_transmit(((reg<<1)&0x7E)|0x80);
    3a16:	81 2f       	mov	r24, r17
    3a18:	88 0f       	add	r24, r24
    3a1a:	8e 77       	andi	r24, 0x7E	; 126
    3a1c:	80 68       	ori	r24, 0x80	; 128
    3a1e:	0e 94 b5 29 	call	0x536a	; 0x536a <spi_transmit>
	data = spi_transmit(0x00);
    3a22:	80 e0       	ldi	r24, 0x00	; 0
    3a24:	0e 94 b5 29 	call	0x536a	; 0x536a <spi_transmit>
    3a28:	18 2f       	mov	r17, r24
	disable_Slave(MFRC522);
    3a2a:	82 e0       	ldi	r24, 0x02	; 2
    3a2c:	0e 94 d6 29 	call	0x53ac	; 0x53ac <disable_Slave>
    3a30:	4a e0       	ldi	r20, 0x0A	; 10
    3a32:	be 01       	movw	r22, r28
    3a34:	6f 5f       	subi	r22, 0xFF	; 255
    3a36:	7f 4f       	sbci	r23, 0xFF	; 255
    3a38:	81 2f       	mov	r24, r17
    3a3a:	90 e0       	ldi	r25, 0x00	; 0
    3a3c:	0e 94 6f 2e 	call	0x5cde	; 0x5cde <__itoa_ncheck>
	char buff[5];
	itoa(data, (char *)buff, 10);
	Uart_Transmit_IT_PC((char *)buff);
    3a40:	ce 01       	movw	r24, r28
    3a42:	01 96       	adiw	r24, 0x01	; 1
    3a44:	0e 94 74 2a 	call	0x54e8	; 0x54e8 <Uart_Transmit_IT_PC>
	Uart_Transmit_IT_PC("\r");
    3a48:	83 ed       	ldi	r24, 0xD3	; 211
    3a4a:	95 e0       	ldi	r25, 0x05	; 5
    3a4c:	0e 94 74 2a 	call	0x54e8	; 0x54e8 <Uart_Transmit_IT_PC>
	return data;
}
    3a50:	81 2f       	mov	r24, r17
    3a52:	0f 90       	pop	r0
    3a54:	0f 90       	pop	r0
    3a56:	0f 90       	pop	r0
    3a58:	0f 90       	pop	r0
    3a5a:	0f 90       	pop	r0
    3a5c:	df 91       	pop	r29
    3a5e:	cf 91       	pop	r28
    3a60:	1f 91       	pop	r17
    3a62:	08 95       	ret

00003a64 <RB_init>:
		}
	}
	rb->tail = tail;
	
	return 1;
}
    3a64:	fc 01       	movw	r30, r24
    3a66:	11 82       	std	Z+1, r1	; 0x01
    3a68:	10 82       	st	Z, r1
    3a6a:	08 95       	ret

00003a6c <RB_free>:
    3a6c:	fc 01       	movw	r30, r24
    3a6e:	90 81       	ld	r25, Z
    3a70:	81 81       	ldd	r24, Z+1	; 0x01
    3a72:	98 17       	cp	r25, r24
    3a74:	20 f0       	brcs	.+8      	; 0x3a7e <RB_free+0x12>
    3a76:	98 1b       	sub	r25, r24
    3a78:	89 2f       	mov	r24, r25
    3a7a:	80 95       	com	r24
    3a7c:	08 95       	ret
    3a7e:	89 1b       	sub	r24, r25
    3a80:	08 95       	ret

00003a82 <RB_length>:
    3a82:	fc 01       	movw	r30, r24
    3a84:	20 81       	ld	r18, Z
    3a86:	91 81       	ldd	r25, Z+1	; 0x01
    3a88:	29 17       	cp	r18, r25
    3a8a:	18 f0       	brcs	.+6      	; 0x3a92 <RB_length+0x10>
    3a8c:	82 2f       	mov	r24, r18
    3a8e:	89 1b       	sub	r24, r25
    3a90:	08 95       	ret
    3a92:	89 2f       	mov	r24, r25
    3a94:	82 1b       	sub	r24, r18
    3a96:	80 95       	com	r24
    3a98:	08 95       	ret

00003a9a <RB_readByte>:
    3a9a:	cf 93       	push	r28
    3a9c:	df 93       	push	r29
    3a9e:	ec 01       	movw	r28, r24
    3aa0:	f0 df       	rcall	.-32     	; 0x3a82 <RB_length>
    3aa2:	88 23       	and	r24, r24
    3aa4:	59 f0       	breq	.+22     	; 0x3abc <RB_readByte+0x22>
    3aa6:	89 81       	ldd	r24, Y+1	; 0x01
    3aa8:	91 e0       	ldi	r25, 0x01	; 1
    3aaa:	98 0f       	add	r25, r24
    3aac:	fe 01       	movw	r30, r28
    3aae:	e8 0f       	add	r30, r24
    3ab0:	f1 1d       	adc	r31, r1
    3ab2:	82 81       	ldd	r24, Z+2	; 0x02
    3ab4:	9f 3f       	cpi	r25, 0xFF	; 255
    3ab6:	09 f4       	brne	.+2      	; 0x3aba <RB_readByte+0x20>
    3ab8:	90 e0       	ldi	r25, 0x00	; 0
    3aba:	99 83       	std	Y+1, r25	; 0x01
    3abc:	df 91       	pop	r29
    3abe:	cf 91       	pop	r28
    3ac0:	08 95       	ret

00003ac2 <RB_writeByte>:
    3ac2:	0f 93       	push	r16
    3ac4:	1f 93       	push	r17
    3ac6:	cf 93       	push	r28
    3ac8:	df 93       	push	r29
    3aca:	ec 01       	movw	r28, r24
    3acc:	16 2f       	mov	r17, r22
    3ace:	08 81       	ld	r16, Y
    3ad0:	cd df       	rcall	.-102    	; 0x3a6c <RB_free>
    3ad2:	88 23       	and	r24, r24
    3ad4:	f1 f3       	breq	.-4      	; 0x3ad2 <RB_writeByte+0x10>
    3ad6:	11 11       	cpse	r17, r1
    3ad8:	01 c0       	rjmp	.+2      	; 0x3adc <RB_writeByte+0x1a>
    3ada:	1f ef       	ldi	r17, 0xFF	; 255
    3adc:	81 e0       	ldi	r24, 0x01	; 1
    3ade:	80 0f       	add	r24, r16
    3ae0:	fe 01       	movw	r30, r28
    3ae2:	e0 0f       	add	r30, r16
    3ae4:	f1 1d       	adc	r31, r1
    3ae6:	12 83       	std	Z+2, r17	; 0x02
    3ae8:	8f 3f       	cpi	r24, 0xFF	; 255
    3aea:	09 f4       	brne	.+2      	; 0x3aee <RB_writeByte+0x2c>
    3aec:	80 e0       	ldi	r24, 0x00	; 0
    3aee:	88 83       	st	Y, r24
    3af0:	81 e0       	ldi	r24, 0x01	; 1
    3af2:	df 91       	pop	r29
    3af4:	cf 91       	pop	r28
    3af6:	1f 91       	pop	r17
    3af8:	0f 91       	pop	r16
    3afa:	08 95       	ret

00003afc <RB_write>:

unsigned char RB_write( ring_buffer_t *rb, char *data, unsigned char datal )
{
    3afc:	ff 92       	push	r15
    3afe:	0f 93       	push	r16
    3b00:	1f 93       	push	r17
    3b02:	cf 93       	push	r28
    3b04:	df 93       	push	r29
	unsigned char head;
	
	head = rb->head;
	
	if (datal == 0)
    3b06:	44 23       	and	r20, r20
    3b08:	d9 f0       	breq	.+54     	; 0x3b40 <RB_write+0x44>
    3b0a:	c4 2f       	mov	r28, r20
    3b0c:	d7 2f       	mov	r29, r23
    3b0e:	f6 2e       	mov	r15, r22
    3b10:	8c 01       	movw	r16, r24
	{
		return  0;
	}
	
	while(RB_free(rb) < datal);
    3b12:	ac df       	rcall	.-168    	; 0x3a6c <RB_free>
    3b14:	8c 17       	cp	r24, r28
    3b16:	f0 f3       	brcs	.-4      	; 0x3b14 <RB_write+0x18>
    3b18:	15 c0       	rjmp	.+42     	; 0x3b44 <RB_write+0x48>
	
	while(datal--)
	{
		rb->data[head++] = *data++;
    3b1a:	21 e0       	ldi	r18, 0x01	; 1
    3b1c:	29 0f       	add	r18, r25
    3b1e:	31 91       	ld	r19, Z+
    3b20:	d8 01       	movw	r26, r16
    3b22:	a9 0f       	add	r26, r25
    3b24:	b1 1d       	adc	r27, r1
    3b26:	12 96       	adiw	r26, 0x02	; 2
    3b28:	3c 93       	st	X, r19
		if (head >= RING_BUFFER_SIZE)
    3b2a:	2f 3f       	cpi	r18, 0xFF	; 255
    3b2c:	11 f4       	brne	.+4      	; 0x3b32 <RB_write+0x36>
		{
			head = 0;
    3b2e:	98 2f       	mov	r25, r24
    3b30:	01 c0       	rjmp	.+2      	; 0x3b34 <RB_write+0x38>
	
	while(RB_free(rb) < datal);
	
	while(datal--)
	{
		rb->data[head++] = *data++;
    3b32:	92 2f       	mov	r25, r18
		return  0;
	}
	
	while(RB_free(rb) < datal);
	
	while(datal--)
    3b34:	41 50       	subi	r20, 0x01	; 1
    3b36:	88 f7       	brcc	.-30     	; 0x3b1a <RB_write+0x1e>
		{
			head = 0;
		}
	}
	
	rb->head = head;
    3b38:	f8 01       	movw	r30, r16
    3b3a:	90 83       	st	Z, r25
	
	return 1;
    3b3c:	81 e0       	ldi	r24, 0x01	; 1
    3b3e:	0a c0       	rjmp	.+20     	; 0x3b54 <RB_write+0x58>
	
	head = rb->head;
	
	if (datal == 0)
	{
		return  0;
    3b40:	80 e0       	ldi	r24, 0x00	; 0
    3b42:	08 c0       	rjmp	.+16     	; 0x3b54 <RB_write+0x58>

unsigned char RB_write( ring_buffer_t *rb, char *data, unsigned char datal )
{
	unsigned char head;
	
	head = rb->head;
    3b44:	f8 01       	movw	r30, r16
    3b46:	90 81       	ld	r25, Z
		return  0;
	}
	
	while(RB_free(rb) < datal);
	
	while(datal--)
    3b48:	4f ef       	ldi	r20, 0xFF	; 255
    3b4a:	4c 0f       	add	r20, r28
    3b4c:	ef 2d       	mov	r30, r15
    3b4e:	fd 2f       	mov	r31, r29
	{
		rb->data[head++] = *data++;
		if (head >= RING_BUFFER_SIZE)
		{
			head = 0;
    3b50:	80 e0       	ldi	r24, 0x00	; 0
    3b52:	e3 cf       	rjmp	.-58     	; 0x3b1a <RB_write+0x1e>
	}
	
	rb->head = head;
	
	return 1;
}
    3b54:	df 91       	pop	r29
    3b56:	cf 91       	pop	r28
    3b58:	1f 91       	pop	r17
    3b5a:	0f 91       	pop	r16
    3b5c:	ff 90       	pop	r15
    3b5e:	08 95       	ret

00003b60 <getFirstSector>:
freeMemory *= bytesPerSector ;
TX_NEWLINE;
Uart_Transmit_IT_PC((char*)(" Free Memory: "));
displayMemory (HIGH, freeMemory);
TX_NEWLINE; 
}
    3b60:	cf 92       	push	r12
    3b62:	df 92       	push	r13
    3b64:	ef 92       	push	r14
    3b66:	ff 92       	push	r15
    3b68:	a0 91 23 0e 	lds	r26, 0x0E23	; 0x800e23 <sectorPerCluster>
    3b6c:	b0 91 24 0e 	lds	r27, 0x0E24	; 0x800e24 <sectorPerCluster+0x1>
    3b70:	c0 90 ff 09 	lds	r12, 0x09FF	; 0x8009ff <firstDataSector>
    3b74:	d0 90 00 0a 	lds	r13, 0x0A00	; 0x800a00 <firstDataSector+0x1>
    3b78:	e0 90 01 0a 	lds	r14, 0x0A01	; 0x800a01 <firstDataSector+0x2>
    3b7c:	f0 90 02 0a 	lds	r15, 0x0A02	; 0x800a02 <firstDataSector+0x3>
    3b80:	9b 01       	movw	r18, r22
    3b82:	ac 01       	movw	r20, r24
    3b84:	22 50       	subi	r18, 0x02	; 2
    3b86:	31 09       	sbc	r19, r1
    3b88:	41 09       	sbc	r20, r1
    3b8a:	51 09       	sbc	r21, r1
    3b8c:	0e 94 ca 2c 	call	0x5994	; 0x5994 <__muluhisi3>
    3b90:	6c 0d       	add	r22, r12
    3b92:	7d 1d       	adc	r23, r13
    3b94:	8e 1d       	adc	r24, r14
    3b96:	9f 1d       	adc	r25, r15
    3b98:	ff 90       	pop	r15
    3b9a:	ef 90       	pop	r14
    3b9c:	df 90       	pop	r13
    3b9e:	cf 90       	pop	r12
    3ba0:	08 95       	ret

00003ba2 <getSetNextCluster>:
    3ba2:	4f 92       	push	r4
    3ba4:	5f 92       	push	r5
    3ba6:	6f 92       	push	r6
    3ba8:	7f 92       	push	r7
    3baa:	8f 92       	push	r8
    3bac:	9f 92       	push	r9
    3bae:	af 92       	push	r10
    3bb0:	bf 92       	push	r11
    3bb2:	cf 92       	push	r12
    3bb4:	df 92       	push	r13
    3bb6:	ef 92       	push	r14
    3bb8:	ff 92       	push	r15
    3bba:	0f 93       	push	r16
    3bbc:	1f 93       	push	r17
    3bbe:	cf 93       	push	r28
    3bc0:	df 93       	push	r29
    3bc2:	d4 2f       	mov	r29, r20
    3bc4:	28 01       	movw	r4, r16
    3bc6:	39 01       	movw	r6, r18
    3bc8:	40 91 4a 0f 	lds	r20, 0x0F4A	; 0x800f4a <reservedSectorCount>
    3bcc:	50 91 4b 0f 	lds	r21, 0x0F4B	; 0x800f4b <reservedSectorCount+0x1>
    3bd0:	4b 01       	movw	r8, r22
    3bd2:	5c 01       	movw	r10, r24
    3bd4:	88 0c       	add	r8, r8
    3bd6:	99 1c       	adc	r9, r9
    3bd8:	aa 1c       	adc	r10, r10
    3bda:	bb 1c       	adc	r11, r11
    3bdc:	88 0c       	add	r8, r8
    3bde:	99 1c       	adc	r9, r9
    3be0:	aa 1c       	adc	r10, r10
    3be2:	bb 1c       	adc	r11, r11
    3be4:	20 91 07 0a 	lds	r18, 0x0A07	; 0x800a07 <bytesPerSector>
    3be8:	30 91 08 0a 	lds	r19, 0x0A08	; 0x800a08 <bytesPerSector+0x1>
    3bec:	c0 90 27 0e 	lds	r12, 0x0E27	; 0x800e27 <unusedSectors>
    3bf0:	d0 90 28 0e 	lds	r13, 0x0E28	; 0x800e28 <unusedSectors+0x1>
    3bf4:	e0 90 29 0e 	lds	r14, 0x0E29	; 0x800e29 <unusedSectors+0x2>
    3bf8:	f0 90 2a 0e 	lds	r15, 0x0E2A	; 0x800e2a <unusedSectors+0x3>
    3bfc:	c4 0e       	add	r12, r20
    3bfe:	d5 1e       	adc	r13, r21
    3c00:	e1 1c       	adc	r14, r1
    3c02:	f1 1c       	adc	r15, r1
    3c04:	40 e0       	ldi	r20, 0x00	; 0
    3c06:	50 e0       	ldi	r21, 0x00	; 0
    3c08:	c5 01       	movw	r24, r10
    3c0a:	b4 01       	movw	r22, r8
    3c0c:	0e 94 91 2c 	call	0x5922	; 0x5922 <__udivmodsi4>
    3c10:	c2 0e       	add	r12, r18
    3c12:	d3 1e       	adc	r13, r19
    3c14:	e4 1e       	adc	r14, r20
    3c16:	f5 1e       	adc	r15, r21
    3c18:	20 91 07 0a 	lds	r18, 0x0A07	; 0x800a07 <bytesPerSector>
    3c1c:	30 91 08 0a 	lds	r19, 0x0A08	; 0x800a08 <bytesPerSector+0x1>
    3c20:	40 e0       	ldi	r20, 0x00	; 0
    3c22:	50 e0       	ldi	r21, 0x00	; 0
    3c24:	c5 01       	movw	r24, r10
    3c26:	b4 01       	movw	r22, r8
    3c28:	0e 94 91 2c 	call	0x5922	; 0x5922 <__udivmodsi4>
    3c2c:	4b 01       	movw	r8, r22
    3c2e:	5c 01       	movw	r10, r24
    3c30:	ca e0       	ldi	r28, 0x0A	; 10
    3c32:	c7 01       	movw	r24, r14
    3c34:	b6 01       	movw	r22, r12
    3c36:	0e 94 4c 29 	call	0x5298	; 0x5298 <SD_readSingleBlock>
    3c3a:	88 23       	and	r24, r24
    3c3c:	11 f0       	breq	.+4      	; 0x3c42 <getSetNextCluster+0xa0>
    3c3e:	c1 50       	subi	r28, 0x01	; 1
    3c40:	c1 f7       	brne	.-16     	; 0x3c32 <getSetNextCluster+0x90>
    3c42:	f4 01       	movw	r30, r8
    3c44:	ee 5d       	subi	r30, 0xDE	; 222
    3c46:	f3 4f       	sbci	r31, 0xF3	; 243
    3c48:	d1 11       	cpse	r29, r1
    3c4a:	08 c0       	rjmp	.+16     	; 0x3c5c <getSetNextCluster+0xba>
    3c4c:	80 81       	ld	r24, Z
    3c4e:	91 81       	ldd	r25, Z+1	; 0x01
    3c50:	a2 81       	ldd	r26, Z+2	; 0x02
    3c52:	b3 81       	ldd	r27, Z+3	; 0x03
    3c54:	bc 01       	movw	r22, r24
    3c56:	cd 01       	movw	r24, r26
    3c58:	9f 70       	andi	r25, 0x0F	; 15
    3c5a:	0b c0       	rjmp	.+22     	; 0x3c72 <getSetNextCluster+0xd0>
    3c5c:	40 82       	st	Z, r4
    3c5e:	51 82       	std	Z+1, r5	; 0x01
    3c60:	62 82       	std	Z+2, r6	; 0x02
    3c62:	73 82       	std	Z+3, r7	; 0x03
    3c64:	c7 01       	movw	r24, r14
    3c66:	b6 01       	movw	r22, r12
    3c68:	0e 94 74 29 	call	0x52e8	; 0x52e8 <SD_writeSingleBlock>
    3c6c:	60 e0       	ldi	r22, 0x00	; 0
    3c6e:	70 e0       	ldi	r23, 0x00	; 0
    3c70:	cb 01       	movw	r24, r22
    3c72:	df 91       	pop	r29
    3c74:	cf 91       	pop	r28
    3c76:	1f 91       	pop	r17
    3c78:	0f 91       	pop	r16
    3c7a:	ff 90       	pop	r15
    3c7c:	ef 90       	pop	r14
    3c7e:	df 90       	pop	r13
    3c80:	cf 90       	pop	r12
    3c82:	bf 90       	pop	r11
    3c84:	af 90       	pop	r10
    3c86:	9f 90       	pop	r9
    3c88:	8f 90       	pop	r8
    3c8a:	7f 90       	pop	r7
    3c8c:	6f 90       	pop	r6
    3c8e:	5f 90       	pop	r5
    3c90:	4f 90       	pop	r4
    3c92:	08 95       	ret

00003c94 <getSetFreeCluster>:
    3c94:	cf 92       	push	r12
    3c96:	df 92       	push	r13
    3c98:	ef 92       	push	r14
    3c9a:	ff 92       	push	r15
    3c9c:	cf 93       	push	r28
    3c9e:	df 93       	push	r29
    3ca0:	d8 2f       	mov	r29, r24
    3ca2:	c6 2f       	mov	r28, r22
    3ca4:	69 01       	movw	r12, r18
    3ca6:	7a 01       	movw	r14, r20
    3ca8:	80 91 27 0e 	lds	r24, 0x0E27	; 0x800e27 <unusedSectors>
    3cac:	90 91 28 0e 	lds	r25, 0x0E28	; 0x800e28 <unusedSectors+0x1>
    3cb0:	a0 91 29 0e 	lds	r26, 0x0E29	; 0x800e29 <unusedSectors+0x2>
    3cb4:	b0 91 2a 0e 	lds	r27, 0x0E2A	; 0x800e2a <unusedSectors+0x3>
    3cb8:	bc 01       	movw	r22, r24
    3cba:	cd 01       	movw	r24, r26
    3cbc:	6f 5f       	subi	r22, 0xFF	; 255
    3cbe:	7f 4f       	sbci	r23, 0xFF	; 255
    3cc0:	8f 4f       	sbci	r24, 0xFF	; 255
    3cc2:	9f 4f       	sbci	r25, 0xFF	; 255
    3cc4:	0e 94 4c 29 	call	0x5298	; 0x5298 <SD_readSingleBlock>
    3cc8:	80 91 22 0c 	lds	r24, 0x0C22	; 0x800c22 <buffer>
    3ccc:	90 91 23 0c 	lds	r25, 0x0C23	; 0x800c23 <buffer+0x1>
    3cd0:	a0 91 24 0c 	lds	r26, 0x0C24	; 0x800c24 <buffer+0x2>
    3cd4:	b0 91 25 0c 	lds	r27, 0x0C25	; 0x800c25 <buffer+0x3>
    3cd8:	82 35       	cpi	r24, 0x52	; 82
    3cda:	92 45       	sbci	r25, 0x52	; 82
    3cdc:	a1 46       	sbci	r26, 0x61	; 97
    3cde:	b1 44       	sbci	r27, 0x41	; 65
    3ce0:	09 f0       	breq	.+2      	; 0x3ce4 <getSetFreeCluster+0x50>
    3ce2:	58 c0       	rjmp	.+176    	; 0x3d94 <getSetFreeCluster+0x100>
    3ce4:	80 91 06 0e 	lds	r24, 0x0E06	; 0x800e06 <buffer+0x1e4>
    3ce8:	90 91 07 0e 	lds	r25, 0x0E07	; 0x800e07 <buffer+0x1e5>
    3cec:	a0 91 08 0e 	lds	r26, 0x0E08	; 0x800e08 <buffer+0x1e6>
    3cf0:	b0 91 09 0e 	lds	r27, 0x0E09	; 0x800e09 <buffer+0x1e7>
    3cf4:	82 37       	cpi	r24, 0x72	; 114
    3cf6:	92 47       	sbci	r25, 0x72	; 114
    3cf8:	a1 44       	sbci	r26, 0x41	; 65
    3cfa:	b1 46       	sbci	r27, 0x61	; 97
    3cfc:	09 f0       	breq	.+2      	; 0x3d00 <getSetFreeCluster+0x6c>
    3cfe:	4e c0       	rjmp	.+156    	; 0x3d9c <getSetFreeCluster+0x108>
    3d00:	80 91 1e 0e 	lds	r24, 0x0E1E	; 0x800e1e <buffer+0x1fc>
    3d04:	90 91 1f 0e 	lds	r25, 0x0E1F	; 0x800e1f <buffer+0x1fd>
    3d08:	a0 91 20 0e 	lds	r26, 0x0E20	; 0x800e20 <buffer+0x1fe>
    3d0c:	b0 91 21 0e 	lds	r27, 0x0E21	; 0x800e21 <buffer+0x1ff>
    3d10:	00 97       	sbiw	r24, 0x00	; 0
    3d12:	a5 45       	sbci	r26, 0x55	; 85
    3d14:	ba 4a       	sbci	r27, 0xAA	; 170
    3d16:	09 f0       	breq	.+2      	; 0x3d1a <getSetFreeCluster+0x86>
    3d18:	45 c0       	rjmp	.+138    	; 0x3da4 <getSetFreeCluster+0x110>
    3d1a:	c1 11       	cpse	r28, r1
    3d1c:	14 c0       	rjmp	.+40     	; 0x3d46 <getSetFreeCluster+0xb2>
    3d1e:	d1 30       	cpi	r29, 0x01	; 1
    3d20:	49 f4       	brne	.+18     	; 0x3d34 <getSetFreeCluster+0xa0>
    3d22:	60 91 0a 0e 	lds	r22, 0x0E0A	; 0x800e0a <buffer+0x1e8>
    3d26:	70 91 0b 0e 	lds	r23, 0x0E0B	; 0x800e0b <buffer+0x1e9>
    3d2a:	80 91 0c 0e 	lds	r24, 0x0E0C	; 0x800e0c <buffer+0x1ea>
    3d2e:	90 91 0d 0e 	lds	r25, 0x0E0D	; 0x800e0d <buffer+0x1eb>
    3d32:	3b c0       	rjmp	.+118    	; 0x3daa <getSetFreeCluster+0x116>
    3d34:	60 91 0e 0e 	lds	r22, 0x0E0E	; 0x800e0e <buffer+0x1ec>
    3d38:	70 91 0f 0e 	lds	r23, 0x0E0F	; 0x800e0f <buffer+0x1ed>
    3d3c:	80 91 10 0e 	lds	r24, 0x0E10	; 0x800e10 <buffer+0x1ee>
    3d40:	90 91 11 0e 	lds	r25, 0x0E11	; 0x800e11 <buffer+0x1ef>
    3d44:	32 c0       	rjmp	.+100    	; 0x3daa <getSetFreeCluster+0x116>
    3d46:	d1 30       	cpi	r29, 0x01	; 1
    3d48:	49 f4       	brne	.+18     	; 0x3d5c <getSetFreeCluster+0xc8>
    3d4a:	c0 92 0a 0e 	sts	0x0E0A, r12	; 0x800e0a <buffer+0x1e8>
    3d4e:	d0 92 0b 0e 	sts	0x0E0B, r13	; 0x800e0b <buffer+0x1e9>
    3d52:	e0 92 0c 0e 	sts	0x0E0C, r14	; 0x800e0c <buffer+0x1ea>
    3d56:	f0 92 0d 0e 	sts	0x0E0D, r15	; 0x800e0d <buffer+0x1eb>
    3d5a:	08 c0       	rjmp	.+16     	; 0x3d6c <getSetFreeCluster+0xd8>
    3d5c:	c0 92 0e 0e 	sts	0x0E0E, r12	; 0x800e0e <buffer+0x1ec>
    3d60:	d0 92 0f 0e 	sts	0x0E0F, r13	; 0x800e0f <buffer+0x1ed>
    3d64:	e0 92 10 0e 	sts	0x0E10, r14	; 0x800e10 <buffer+0x1ee>
    3d68:	f0 92 11 0e 	sts	0x0E11, r15	; 0x800e11 <buffer+0x1ef>
    3d6c:	80 91 27 0e 	lds	r24, 0x0E27	; 0x800e27 <unusedSectors>
    3d70:	90 91 28 0e 	lds	r25, 0x0E28	; 0x800e28 <unusedSectors+0x1>
    3d74:	a0 91 29 0e 	lds	r26, 0x0E29	; 0x800e29 <unusedSectors+0x2>
    3d78:	b0 91 2a 0e 	lds	r27, 0x0E2A	; 0x800e2a <unusedSectors+0x3>
    3d7c:	bc 01       	movw	r22, r24
    3d7e:	cd 01       	movw	r24, r26
    3d80:	6f 5f       	subi	r22, 0xFF	; 255
    3d82:	7f 4f       	sbci	r23, 0xFF	; 255
    3d84:	8f 4f       	sbci	r24, 0xFF	; 255
    3d86:	9f 4f       	sbci	r25, 0xFF	; 255
    3d88:	0e 94 74 29 	call	0x52e8	; 0x52e8 <SD_writeSingleBlock>
    3d8c:	6f ef       	ldi	r22, 0xFF	; 255
    3d8e:	7f ef       	ldi	r23, 0xFF	; 255
    3d90:	cb 01       	movw	r24, r22
    3d92:	0b c0       	rjmp	.+22     	; 0x3daa <getSetFreeCluster+0x116>
    3d94:	6f ef       	ldi	r22, 0xFF	; 255
    3d96:	7f ef       	ldi	r23, 0xFF	; 255
    3d98:	cb 01       	movw	r24, r22
    3d9a:	07 c0       	rjmp	.+14     	; 0x3daa <getSetFreeCluster+0x116>
    3d9c:	6f ef       	ldi	r22, 0xFF	; 255
    3d9e:	7f ef       	ldi	r23, 0xFF	; 255
    3da0:	cb 01       	movw	r24, r22
    3da2:	03 c0       	rjmp	.+6      	; 0x3daa <getSetFreeCluster+0x116>
    3da4:	6f ef       	ldi	r22, 0xFF	; 255
    3da6:	7f ef       	ldi	r23, 0xFF	; 255
    3da8:	cb 01       	movw	r24, r22
    3daa:	df 91       	pop	r29
    3dac:	cf 91       	pop	r28
    3dae:	ff 90       	pop	r15
    3db0:	ef 90       	pop	r14
    3db2:	df 90       	pop	r13
    3db4:	cf 90       	pop	r12
    3db6:	08 95       	ret

00003db8 <getBootSectorData>:
    3db8:	ef 92       	push	r14
    3dba:	ff 92       	push	r15
    3dbc:	0f 93       	push	r16
    3dbe:	1f 93       	push	r17
    3dc0:	cf 93       	push	r28
    3dc2:	df 93       	push	r29
    3dc4:	10 92 27 0e 	sts	0x0E27, r1	; 0x800e27 <unusedSectors>
    3dc8:	10 92 28 0e 	sts	0x0E28, r1	; 0x800e28 <unusedSectors+0x1>
    3dcc:	10 92 29 0e 	sts	0x0E29, r1	; 0x800e29 <unusedSectors+0x2>
    3dd0:	10 92 2a 0e 	sts	0x0E2A, r1	; 0x800e2a <unusedSectors+0x3>
    3dd4:	60 e0       	ldi	r22, 0x00	; 0
    3dd6:	70 e0       	ldi	r23, 0x00	; 0
    3dd8:	cb 01       	movw	r24, r22
    3dda:	0e 94 4c 29 	call	0x5298	; 0x5298 <SD_readSingleBlock>
    3dde:	80 91 22 0c 	lds	r24, 0x0C22	; 0x800c22 <buffer>
    3de2:	8d 7f       	andi	r24, 0xFD	; 253
    3de4:	89 3e       	cpi	r24, 0xE9	; 233
    3de6:	01 f1       	breq	.+64     	; 0x3e28 <getBootSectorData+0x70>
    3de8:	80 91 20 0e 	lds	r24, 0x0E20	; 0x800e20 <buffer+0x1fe>
    3dec:	90 91 21 0e 	lds	r25, 0x0E21	; 0x800e21 <buffer+0x1ff>
    3df0:	85 35       	cpi	r24, 0x55	; 85
    3df2:	9a 4a       	sbci	r25, 0xAA	; 170
    3df4:	09 f0       	breq	.+2      	; 0x3df8 <getBootSectorData+0x40>
    3df6:	96 c0       	rjmp	.+300    	; 0x3f24 <getBootSectorData+0x16c>
    3df8:	60 91 e8 0d 	lds	r22, 0x0DE8	; 0x800de8 <buffer+0x1c6>
    3dfc:	70 91 e9 0d 	lds	r23, 0x0DE9	; 0x800de9 <buffer+0x1c7>
    3e00:	80 91 ea 0d 	lds	r24, 0x0DEA	; 0x800dea <buffer+0x1c8>
    3e04:	90 91 eb 0d 	lds	r25, 0x0DEB	; 0x800deb <buffer+0x1c9>
    3e08:	60 93 27 0e 	sts	0x0E27, r22	; 0x800e27 <unusedSectors>
    3e0c:	70 93 28 0e 	sts	0x0E28, r23	; 0x800e28 <unusedSectors+0x1>
    3e10:	80 93 29 0e 	sts	0x0E29, r24	; 0x800e29 <unusedSectors+0x2>
    3e14:	90 93 2a 0e 	sts	0x0E2A, r25	; 0x800e2a <unusedSectors+0x3>
    3e18:	0e 94 4c 29 	call	0x5298	; 0x5298 <SD_readSingleBlock>
    3e1c:	80 91 22 0c 	lds	r24, 0x0C22	; 0x800c22 <buffer>
    3e20:	8d 7f       	andi	r24, 0xFD	; 253
    3e22:	89 3e       	cpi	r24, 0xE9	; 233
    3e24:	09 f0       	breq	.+2      	; 0x3e28 <getBootSectorData+0x70>
    3e26:	80 c0       	rjmp	.+256    	; 0x3f28 <getBootSectorData+0x170>
    3e28:	e2 e2       	ldi	r30, 0x22	; 34
    3e2a:	fc e0       	ldi	r31, 0x0C	; 12
    3e2c:	83 85       	ldd	r24, Z+11	; 0x0b
    3e2e:	94 85       	ldd	r25, Z+12	; 0x0c
    3e30:	90 93 08 0a 	sts	0x0A08, r25	; 0x800a08 <bytesPerSector+0x1>
    3e34:	80 93 07 0a 	sts	0x0A07, r24	; 0x800a07 <bytesPerSector>
    3e38:	85 85       	ldd	r24, Z+13	; 0x0d
    3e3a:	90 e0       	ldi	r25, 0x00	; 0
    3e3c:	90 93 24 0e 	sts	0x0E24, r25	; 0x800e24 <sectorPerCluster+0x1>
    3e40:	80 93 23 0e 	sts	0x0E23, r24	; 0x800e23 <sectorPerCluster>
    3e44:	c6 85       	ldd	r28, Z+14	; 0x0e
    3e46:	d7 85       	ldd	r29, Z+15	; 0x0f
    3e48:	d0 93 4b 0f 	sts	0x0F4B, r29	; 0x800f4b <reservedSectorCount+0x1>
    3e4c:	c0 93 4a 0f 	sts	0x0F4A, r28	; 0x800f4a <reservedSectorCount>
    3e50:	84 a5       	ldd	r24, Z+44	; 0x2c
    3e52:	95 a5       	ldd	r25, Z+45	; 0x2d
    3e54:	a6 a5       	ldd	r26, Z+46	; 0x2e
    3e56:	b7 a5       	ldd	r27, Z+47	; 0x2f
    3e58:	80 93 15 0a 	sts	0x0A15, r24	; 0x800a15 <rootCluster>
    3e5c:	90 93 16 0a 	sts	0x0A16, r25	; 0x800a16 <rootCluster+0x1>
    3e60:	a0 93 17 0a 	sts	0x0A17, r26	; 0x800a17 <rootCluster+0x2>
    3e64:	b0 93 18 0a 	sts	0x0A18, r27	; 0x800a18 <rootCluster+0x3>
    3e68:	00 91 4a 0f 	lds	r16, 0x0F4A	; 0x800f4a <reservedSectorCount>
    3e6c:	10 91 4b 0f 	lds	r17, 0x0F4B	; 0x800f4b <reservedSectorCount+0x1>
    3e70:	a0 89       	ldd	r26, Z+16	; 0x10
    3e72:	24 a1       	ldd	r18, Z+36	; 0x24
    3e74:	35 a1       	ldd	r19, Z+37	; 0x25
    3e76:	46 a1       	ldd	r20, Z+38	; 0x26
    3e78:	57 a1       	ldd	r21, Z+39	; 0x27
    3e7a:	b0 e0       	ldi	r27, 0x00	; 0
    3e7c:	0e 94 ca 2c 	call	0x5994	; 0x5994 <__muluhisi3>
    3e80:	ab 01       	movw	r20, r22
    3e82:	bc 01       	movw	r22, r24
    3e84:	84 8d       	ldd	r24, Z+28	; 0x1c
    3e86:	95 8d       	ldd	r25, Z+29	; 0x1d
    3e88:	a6 8d       	ldd	r26, Z+30	; 0x1e
    3e8a:	b7 8d       	ldd	r27, Z+31	; 0x1f
    3e8c:	80 0f       	add	r24, r16
    3e8e:	91 1f       	adc	r25, r17
    3e90:	a1 1d       	adc	r26, r1
    3e92:	b1 1d       	adc	r27, r1
    3e94:	84 0f       	add	r24, r20
    3e96:	95 1f       	adc	r25, r21
    3e98:	a6 1f       	adc	r26, r22
    3e9a:	b7 1f       	adc	r27, r23
    3e9c:	80 93 ff 09 	sts	0x09FF, r24	; 0x8009ff <firstDataSector>
    3ea0:	90 93 00 0a 	sts	0x0A00, r25	; 0x800a00 <firstDataSector+0x1>
    3ea4:	a0 93 01 0a 	sts	0x0A01, r26	; 0x800a01 <firstDataSector+0x2>
    3ea8:	b0 93 02 0a 	sts	0x0A02, r27	; 0x800a02 <firstDataSector+0x3>
    3eac:	20 91 23 0e 	lds	r18, 0x0E23	; 0x800e23 <sectorPerCluster>
    3eb0:	30 91 24 0e 	lds	r19, 0x0E24	; 0x800e24 <sectorPerCluster+0x1>
    3eb4:	80 a1       	ldd	r24, Z+32	; 0x20
    3eb6:	91 a1       	ldd	r25, Z+33	; 0x21
    3eb8:	a2 a1       	ldd	r26, Z+34	; 0x22
    3eba:	b3 a1       	ldd	r27, Z+35	; 0x23
    3ebc:	8c 1b       	sub	r24, r28
    3ebe:	9d 0b       	sbc	r25, r29
    3ec0:	a1 09       	sbc	r26, r1
    3ec2:	b1 09       	sbc	r27, r1
    3ec4:	7c 01       	movw	r14, r24
    3ec6:	8d 01       	movw	r16, r26
    3ec8:	e4 1a       	sub	r14, r20
    3eca:	f5 0a       	sbc	r15, r21
    3ecc:	06 0b       	sbc	r16, r22
    3ece:	17 0b       	sbc	r17, r23
    3ed0:	c8 01       	movw	r24, r16
    3ed2:	b7 01       	movw	r22, r14
    3ed4:	40 e0       	ldi	r20, 0x00	; 0
    3ed6:	50 e0       	ldi	r21, 0x00	; 0
    3ed8:	0e 94 91 2c 	call	0x5922	; 0x5922 <__udivmodsi4>
    3edc:	20 93 09 0a 	sts	0x0A09, r18	; 0x800a09 <totalClusters>
    3ee0:	30 93 0a 0a 	sts	0x0A0A, r19	; 0x800a0a <totalClusters+0x1>
    3ee4:	40 93 0b 0a 	sts	0x0A0B, r20	; 0x800a0b <totalClusters+0x2>
    3ee8:	50 93 0c 0a 	sts	0x0A0C, r21	; 0x800a0c <totalClusters+0x3>
    3eec:	20 e0       	ldi	r18, 0x00	; 0
    3eee:	30 e0       	ldi	r19, 0x00	; 0
    3ef0:	a9 01       	movw	r20, r18
    3ef2:	60 e0       	ldi	r22, 0x00	; 0
    3ef4:	81 e0       	ldi	r24, 0x01	; 1
    3ef6:	ce de       	rcall	.-612    	; 0x3c94 <getSetFreeCluster>
    3ef8:	00 91 09 0a 	lds	r16, 0x0A09	; 0x800a09 <totalClusters>
    3efc:	10 91 0a 0a 	lds	r17, 0x0A0A	; 0x800a0a <totalClusters+0x1>
    3f00:	20 91 0b 0a 	lds	r18, 0x0A0B	; 0x800a0b <totalClusters+0x2>
    3f04:	30 91 0c 0a 	lds	r19, 0x0A0C	; 0x800a0c <totalClusters+0x3>
    3f08:	06 17       	cp	r16, r22
    3f0a:	17 07       	cpc	r17, r23
    3f0c:	28 07       	cpc	r18, r24
    3f0e:	39 07       	cpc	r19, r25
    3f10:	20 f4       	brcc	.+8      	; 0x3f1a <getBootSectorData+0x162>
    3f12:	10 92 62 12 	sts	0x1262, r1	; 0x801262 <freeClusterCountUpdated>
    3f16:	80 e0       	ldi	r24, 0x00	; 0
    3f18:	08 c0       	rjmp	.+16     	; 0x3f2a <getBootSectorData+0x172>
    3f1a:	81 e0       	ldi	r24, 0x01	; 1
    3f1c:	80 93 62 12 	sts	0x1262, r24	; 0x801262 <freeClusterCountUpdated>
    3f20:	80 e0       	ldi	r24, 0x00	; 0
    3f22:	03 c0       	rjmp	.+6      	; 0x3f2a <getBootSectorData+0x172>
    3f24:	81 e0       	ldi	r24, 0x01	; 1
    3f26:	01 c0       	rjmp	.+2      	; 0x3f2a <getBootSectorData+0x172>
    3f28:	81 e0       	ldi	r24, 0x01	; 1
    3f2a:	df 91       	pop	r29
    3f2c:	cf 91       	pop	r28
    3f2e:	1f 91       	pop	r17
    3f30:	0f 91       	pop	r16
    3f32:	ff 90       	pop	r15
    3f34:	ef 90       	pop	r14
    3f36:	08 95       	ret

00003f38 <convertFileName>:
    3f38:	cf 93       	push	r28
    3f3a:	df 93       	push	r29
    3f3c:	cd b7       	in	r28, 0x3d	; 61
    3f3e:	de b7       	in	r29, 0x3e	; 62
    3f40:	2b 97       	sbiw	r28, 0x0b	; 11
    3f42:	0f b6       	in	r0, 0x3f	; 63
    3f44:	f8 94       	cli
    3f46:	de bf       	out	0x3e, r29	; 62
    3f48:	0f be       	out	0x3f, r0	; 63
    3f4a:	cd bf       	out	0x3d, r28	; 61
    3f4c:	bc 01       	movw	r22, r24
    3f4e:	dc 01       	movw	r26, r24
    3f50:	8c 91       	ld	r24, X
    3f52:	8e 32       	cpi	r24, 0x2E	; 46
    3f54:	61 f1       	breq	.+88     	; 0x3fae <convertFileName+0x76>
    3f56:	fb 01       	movw	r30, r22
    3f58:	31 96       	adiw	r30, 0x01	; 1
    3f5a:	91 e0       	ldi	r25, 0x01	; 1
    3f5c:	81 91       	ld	r24, Z+
    3f5e:	8e 32       	cpi	r24, 0x2E	; 46
    3f60:	21 f0       	breq	.+8      	; 0x3f6a <convertFileName+0x32>
    3f62:	9f 5f       	subi	r25, 0xFF	; 255
    3f64:	9c 30       	cpi	r25, 0x0C	; 12
    3f66:	d1 f7       	brne	.-12     	; 0x3f5c <convertFileName+0x24>
    3f68:	06 c0       	rjmp	.+12     	; 0x3f76 <convertFileName+0x3e>
    3f6a:	99 30       	cpi	r25, 0x09	; 9
    3f6c:	20 f4       	brcc	.+8      	; 0x3f76 <convertFileName+0x3e>
    3f6e:	91 11       	cpse	r25, r1
    3f70:	08 c0       	rjmp	.+16     	; 0x3f82 <convertFileName+0x4a>
    3f72:	29 2f       	mov	r18, r25
    3f74:	1e c0       	rjmp	.+60     	; 0x3fb2 <convertFileName+0x7a>
    3f76:	82 ea       	ldi	r24, 0xA2	; 162
    3f78:	96 e0       	ldi	r25, 0x06	; 6
    3f7a:	0e 94 74 2a 	call	0x54e8	; 0x54e8 <Uart_Transmit_IT_PC>
    3f7e:	81 e0       	ldi	r24, 0x01	; 1
    3f80:	62 c0       	rjmp	.+196    	; 0x4046 <convertFileName+0x10e>
    3f82:	fb 01       	movw	r30, r22
    3f84:	9e 01       	movw	r18, r28
    3f86:	2f 5f       	subi	r18, 0xFF	; 255
    3f88:	3f 4f       	sbci	r19, 0xFF	; 255
    3f8a:	4f ef       	ldi	r20, 0xFF	; 255
    3f8c:	49 0f       	add	r20, r25
    3f8e:	50 e0       	ldi	r21, 0x00	; 0
    3f90:	4f 5f       	subi	r20, 0xFF	; 255
    3f92:	5f 4f       	sbci	r21, 0xFF	; 255
    3f94:	46 0f       	add	r20, r22
    3f96:	57 1f       	adc	r21, r23
    3f98:	81 91       	ld	r24, Z+
    3f9a:	d9 01       	movw	r26, r18
    3f9c:	8d 93       	st	X+, r24
    3f9e:	9d 01       	movw	r18, r26
    3fa0:	4e 17       	cp	r20, r30
    3fa2:	5f 07       	cpc	r21, r31
    3fa4:	c9 f7       	brne	.-14     	; 0x3f98 <convertFileName+0x60>
    3fa6:	98 30       	cpi	r25, 0x08	; 8
    3fa8:	78 f4       	brcc	.+30     	; 0x3fc8 <convertFileName+0x90>
    3faa:	29 2f       	mov	r18, r25
    3fac:	02 c0       	rjmp	.+4      	; 0x3fb2 <convertFileName+0x7a>
    3fae:	90 e0       	ldi	r25, 0x00	; 0
    3fb0:	20 e0       	ldi	r18, 0x00	; 0
    3fb2:	80 e2       	ldi	r24, 0x20	; 32
    3fb4:	e1 e0       	ldi	r30, 0x01	; 1
    3fb6:	f0 e0       	ldi	r31, 0x00	; 0
    3fb8:	ec 0f       	add	r30, r28
    3fba:	fd 1f       	adc	r31, r29
    3fbc:	e2 0f       	add	r30, r18
    3fbe:	f1 1d       	adc	r31, r1
    3fc0:	80 83       	st	Z, r24
    3fc2:	2f 5f       	subi	r18, 0xFF	; 255
    3fc4:	28 30       	cpi	r18, 0x08	; 8
    3fc6:	b0 f3       	brcs	.-20     	; 0x3fb4 <convertFileName+0x7c>
    3fc8:	21 e0       	ldi	r18, 0x01	; 1
    3fca:	29 0f       	add	r18, r25
    3fcc:	98 e0       	ldi	r25, 0x08	; 8
    3fce:	fb 01       	movw	r30, r22
    3fd0:	e2 0f       	add	r30, r18
    3fd2:	f1 1d       	adc	r31, r1
    3fd4:	80 81       	ld	r24, Z
    3fd6:	81 11       	cpse	r24, r1
    3fd8:	03 c0       	rjmp	.+6      	; 0x3fe0 <convertFileName+0xa8>
    3fda:	9b 30       	cpi	r25, 0x0B	; 11
    3fdc:	50 f0       	brcs	.+20     	; 0x3ff2 <convertFileName+0xba>
    3fde:	15 c0       	rjmp	.+42     	; 0x400a <convertFileName+0xd2>
    3fe0:	2f 5f       	subi	r18, 0xFF	; 255
    3fe2:	e1 e0       	ldi	r30, 0x01	; 1
    3fe4:	f0 e0       	ldi	r31, 0x00	; 0
    3fe6:	ec 0f       	add	r30, r28
    3fe8:	fd 1f       	adc	r31, r29
    3fea:	e9 0f       	add	r30, r25
    3fec:	f1 1d       	adc	r31, r1
    3fee:	80 83       	st	Z, r24
    3ff0:	0c c0       	rjmp	.+24     	; 0x400a <convertFileName+0xd2>
    3ff2:	20 e2       	ldi	r18, 0x20	; 32
    3ff4:	e1 e0       	ldi	r30, 0x01	; 1
    3ff6:	f0 e0       	ldi	r31, 0x00	; 0
    3ff8:	ec 0f       	add	r30, r28
    3ffa:	fd 1f       	adc	r31, r29
    3ffc:	e9 0f       	add	r30, r25
    3ffe:	f1 1d       	adc	r31, r1
    4000:	20 83       	st	Z, r18
    4002:	9f 5f       	subi	r25, 0xFF	; 255
    4004:	9b 30       	cpi	r25, 0x0B	; 11
    4006:	b1 f7       	brne	.-20     	; 0x3ff4 <convertFileName+0xbc>
    4008:	03 c0       	rjmp	.+6      	; 0x4010 <convertFileName+0xd8>
    400a:	9f 5f       	subi	r25, 0xFF	; 255
    400c:	9b 30       	cpi	r25, 0x0B	; 11
    400e:	f8 f2       	brcs	.-66     	; 0x3fce <convertFileName+0x96>
    4010:	9e 01       	movw	r18, r28
    4012:	2f 5f       	subi	r18, 0xFF	; 255
    4014:	3f 4f       	sbci	r19, 0xFF	; 255
    4016:	ae 01       	movw	r20, r28
    4018:	44 5f       	subi	r20, 0xF4	; 244
    401a:	5f 4f       	sbci	r21, 0xFF	; 255
    401c:	f9 01       	movw	r30, r18
    401e:	80 81       	ld	r24, Z
    4020:	9f e9       	ldi	r25, 0x9F	; 159
    4022:	98 0f       	add	r25, r24
    4024:	9a 31       	cpi	r25, 0x1A	; 26
    4026:	10 f4       	brcc	.+4      	; 0x402c <convertFileName+0xf4>
    4028:	80 52       	subi	r24, 0x20	; 32
    402a:	80 83       	st	Z, r24
    402c:	31 96       	adiw	r30, 0x01	; 1
    402e:	4e 17       	cp	r20, r30
    4030:	5f 07       	cpc	r21, r31
    4032:	a9 f7       	brne	.-22     	; 0x401e <convertFileName+0xe6>
    4034:	fb 01       	movw	r30, r22
    4036:	d9 01       	movw	r26, r18
    4038:	8d 91       	ld	r24, X+
    403a:	9d 01       	movw	r18, r26
    403c:	81 93       	st	Z+, r24
    403e:	a4 17       	cp	r26, r20
    4040:	b5 07       	cpc	r27, r21
    4042:	c9 f7       	brne	.-14     	; 0x4036 <convertFileName+0xfe>
    4044:	80 e0       	ldi	r24, 0x00	; 0
    4046:	2b 96       	adiw	r28, 0x0b	; 11
    4048:	0f b6       	in	r0, 0x3f	; 63
    404a:	f8 94       	cli
    404c:	de bf       	out	0x3e, r29	; 62
    404e:	0f be       	out	0x3f, r0	; 63
    4050:	cd bf       	out	0x3d, r28	; 61
    4052:	df 91       	pop	r29
    4054:	cf 91       	pop	r28
    4056:	08 95       	ret

00004058 <searchNextFreeCluster>:
    4058:	4f 92       	push	r4
    405a:	5f 92       	push	r5
    405c:	6f 92       	push	r6
    405e:	7f 92       	push	r7
    4060:	8f 92       	push	r8
    4062:	9f 92       	push	r9
    4064:	af 92       	push	r10
    4066:	bf 92       	push	r11
    4068:	cf 92       	push	r12
    406a:	df 92       	push	r13
    406c:	ef 92       	push	r14
    406e:	ff 92       	push	r15
    4070:	cf 93       	push	r28
    4072:	df 93       	push	r29
    4074:	6b 01       	movw	r12, r22
    4076:	7c 01       	movw	r14, r24
    4078:	20 e8       	ldi	r18, 0x80	; 128
    407a:	c2 22       	and	r12, r18
    407c:	80 91 09 0a 	lds	r24, 0x0A09	; 0x800a09 <totalClusters>
    4080:	90 91 0a 0a 	lds	r25, 0x0A0A	; 0x800a0a <totalClusters+0x1>
    4084:	a0 91 0b 0a 	lds	r26, 0x0A0B	; 0x800a0b <totalClusters+0x2>
    4088:	b0 91 0c 0a 	lds	r27, 0x0A0C	; 0x800a0c <totalClusters+0x3>
    408c:	c8 16       	cp	r12, r24
    408e:	d9 06       	cpc	r13, r25
    4090:	ea 06       	cpc	r14, r26
    4092:	fb 06       	cpc	r15, r27
    4094:	08 f0       	brcs	.+2      	; 0x4098 <searchNextFreeCluster+0x40>
    4096:	70 c0       	rjmp	.+224    	; 0x4178 <searchNextFreeCluster+0x120>
    4098:	46 01       	movw	r8, r12
    409a:	57 01       	movw	r10, r14
    409c:	88 0c       	add	r8, r8
    409e:	99 1c       	adc	r9, r9
    40a0:	aa 1c       	adc	r10, r10
    40a2:	bb 1c       	adc	r11, r11
    40a4:	88 0c       	add	r8, r8
    40a6:	99 1c       	adc	r9, r9
    40a8:	aa 1c       	adc	r10, r10
    40aa:	bb 1c       	adc	r11, r11
    40ac:	c2 e2       	ldi	r28, 0x22	; 34
    40ae:	dc e0       	ldi	r29, 0x0C	; 12
    40b0:	40 91 4a 0f 	lds	r20, 0x0F4A	; 0x800f4a <reservedSectorCount>
    40b4:	50 91 4b 0f 	lds	r21, 0x0F4B	; 0x800f4b <reservedSectorCount+0x1>
    40b8:	80 91 07 0a 	lds	r24, 0x0A07	; 0x800a07 <bytesPerSector>
    40bc:	90 91 08 0a 	lds	r25, 0x0A08	; 0x800a08 <bytesPerSector+0x1>
    40c0:	40 90 27 0e 	lds	r4, 0x0E27	; 0x800e27 <unusedSectors>
    40c4:	50 90 28 0e 	lds	r5, 0x0E28	; 0x800e28 <unusedSectors+0x1>
    40c8:	60 90 29 0e 	lds	r6, 0x0E29	; 0x800e29 <unusedSectors+0x2>
    40cc:	70 90 2a 0e 	lds	r7, 0x0E2A	; 0x800e2a <unusedSectors+0x3>
    40d0:	44 0e       	add	r4, r20
    40d2:	55 1e       	adc	r5, r21
    40d4:	61 1c       	adc	r6, r1
    40d6:	71 1c       	adc	r7, r1
    40d8:	9c 01       	movw	r18, r24
    40da:	40 e0       	ldi	r20, 0x00	; 0
    40dc:	50 e0       	ldi	r21, 0x00	; 0
    40de:	c5 01       	movw	r24, r10
    40e0:	b4 01       	movw	r22, r8
    40e2:	0e 94 91 2c 	call	0x5922	; 0x5922 <__udivmodsi4>
    40e6:	c3 01       	movw	r24, r6
    40e8:	b2 01       	movw	r22, r4
    40ea:	62 0f       	add	r22, r18
    40ec:	73 1f       	adc	r23, r19
    40ee:	84 1f       	adc	r24, r20
    40f0:	95 1f       	adc	r25, r21
    40f2:	0e 94 4c 29 	call	0x5298	; 0x5298 <SD_readSingleBlock>
    40f6:	88 81       	ld	r24, Y
    40f8:	99 81       	ldd	r25, Y+1	; 0x01
    40fa:	aa 81       	ldd	r26, Y+2	; 0x02
    40fc:	bb 81       	ldd	r27, Y+3	; 0x03
    40fe:	bf 70       	andi	r27, 0x0F	; 15
    4100:	89 2b       	or	r24, r25
    4102:	8a 2b       	or	r24, r26
    4104:	8b 2b       	or	r24, r27
    4106:	99 f0       	breq	.+38     	; 0x412e <searchNextFreeCluster+0xd6>
    4108:	21 e0       	ldi	r18, 0x01	; 1
    410a:	e2 2f       	mov	r30, r18
    410c:	f0 e0       	ldi	r31, 0x00	; 0
    410e:	ee 0f       	add	r30, r30
    4110:	ff 1f       	adc	r31, r31
    4112:	ee 0f       	add	r30, r30
    4114:	ff 1f       	adc	r31, r31
    4116:	ee 5d       	subi	r30, 0xDE	; 222
    4118:	f3 4f       	sbci	r31, 0xF3	; 243
    411a:	80 81       	ld	r24, Z
    411c:	91 81       	ldd	r25, Z+1	; 0x01
    411e:	a2 81       	ldd	r26, Z+2	; 0x02
    4120:	b3 81       	ldd	r27, Z+3	; 0x03
    4122:	bf 70       	andi	r27, 0x0F	; 15
    4124:	89 2b       	or	r24, r25
    4126:	8a 2b       	or	r24, r26
    4128:	8b 2b       	or	r24, r27
    412a:	49 f4       	brne	.+18     	; 0x413e <searchNextFreeCluster+0xe6>
    412c:	01 c0       	rjmp	.+2      	; 0x4130 <searchNextFreeCluster+0xd8>
    412e:	20 e0       	ldi	r18, 0x00	; 0
    4130:	c7 01       	movw	r24, r14
    4132:	b6 01       	movw	r22, r12
    4134:	62 0f       	add	r22, r18
    4136:	71 1d       	adc	r23, r1
    4138:	81 1d       	adc	r24, r1
    413a:	91 1d       	adc	r25, r1
    413c:	20 c0       	rjmp	.+64     	; 0x417e <searchNextFreeCluster+0x126>
    413e:	2f 5f       	subi	r18, 0xFF	; 255
    4140:	22 f7       	brpl	.-56     	; 0x410a <searchNextFreeCluster+0xb2>
    4142:	80 e8       	ldi	r24, 0x80	; 128
    4144:	c8 0e       	add	r12, r24
    4146:	d1 1c       	adc	r13, r1
    4148:	e1 1c       	adc	r14, r1
    414a:	f1 1c       	adc	r15, r1
    414c:	80 91 09 0a 	lds	r24, 0x0A09	; 0x800a09 <totalClusters>
    4150:	90 91 0a 0a 	lds	r25, 0x0A0A	; 0x800a0a <totalClusters+0x1>
    4154:	a0 91 0b 0a 	lds	r26, 0x0A0B	; 0x800a0b <totalClusters+0x2>
    4158:	b0 91 0c 0a 	lds	r27, 0x0A0C	; 0x800a0c <totalClusters+0x3>
    415c:	22 e0       	ldi	r18, 0x02	; 2
    415e:	92 0e       	add	r9, r18
    4160:	a1 1c       	adc	r10, r1
    4162:	b1 1c       	adc	r11, r1
    4164:	c8 16       	cp	r12, r24
    4166:	d9 06       	cpc	r13, r25
    4168:	ea 06       	cpc	r14, r26
    416a:	fb 06       	cpc	r15, r27
    416c:	08 f4       	brcc	.+2      	; 0x4170 <searchNextFreeCluster+0x118>
    416e:	a0 cf       	rjmp	.-192    	; 0x40b0 <searchNextFreeCluster+0x58>
    4170:	60 e0       	ldi	r22, 0x00	; 0
    4172:	70 e0       	ldi	r23, 0x00	; 0
    4174:	cb 01       	movw	r24, r22
    4176:	03 c0       	rjmp	.+6      	; 0x417e <searchNextFreeCluster+0x126>
    4178:	60 e0       	ldi	r22, 0x00	; 0
    417a:	70 e0       	ldi	r23, 0x00	; 0
    417c:	cb 01       	movw	r24, r22
    417e:	df 91       	pop	r29
    4180:	cf 91       	pop	r28
    4182:	ff 90       	pop	r15
    4184:	ef 90       	pop	r14
    4186:	df 90       	pop	r13
    4188:	cf 90       	pop	r12
    418a:	bf 90       	pop	r11
    418c:	af 90       	pop	r10
    418e:	9f 90       	pop	r9
    4190:	8f 90       	pop	r8
    4192:	7f 90       	pop	r7
    4194:	6f 90       	pop	r6
    4196:	5f 90       	pop	r5
    4198:	4f 90       	pop	r4
    419a:	08 95       	ret

0000419c <displayMemory>:
    419c:	8f 92       	push	r8
    419e:	9f 92       	push	r9
    41a0:	af 92       	push	r10
    41a2:	bf 92       	push	r11
    41a4:	df 92       	push	r13
    41a6:	ef 92       	push	r14
    41a8:	ff 92       	push	r15
    41aa:	0f 93       	push	r16
    41ac:	1f 93       	push	r17
    41ae:	cf 93       	push	r28
    41b0:	df 93       	push	r29
    41b2:	cd b7       	in	r28, 0x3d	; 61
    41b4:	de b7       	in	r29, 0x3e	; 62
    41b6:	64 97       	sbiw	r28, 0x14	; 20
    41b8:	0f b6       	in	r0, 0x3f	; 63
    41ba:	f8 94       	cli
    41bc:	de bf       	out	0x3e, r29	; 62
    41be:	0f be       	out	0x3f, r0	; 63
    41c0:	cd bf       	out	0x3d, r28	; 61
    41c2:	d8 2e       	mov	r13, r24
    41c4:	cb 01       	movw	r24, r22
    41c6:	ba 01       	movw	r22, r20
    41c8:	24 e1       	ldi	r18, 0x14	; 20
    41ca:	e5 eb       	ldi	r30, 0xB5	; 181
    41cc:	f6 e0       	ldi	r31, 0x06	; 6
    41ce:	de 01       	movw	r26, r28
    41d0:	11 96       	adiw	r26, 0x01	; 1
    41d2:	01 90       	ld	r0, Z+
    41d4:	0d 92       	st	X+, r0
    41d6:	2a 95       	dec	r18
    41d8:	e1 f7       	brne	.-8      	; 0x41d2 <displayMemory+0x36>
    41da:	1c e0       	ldi	r17, 0x0C	; 12
    41dc:	0c e2       	ldi	r16, 0x2C	; 44
    41de:	0f 2e       	mov	r0, r31
    41e0:	fa e0       	ldi	r31, 0x0A	; 10
    41e2:	8f 2e       	mov	r8, r31
    41e4:	91 2c       	mov	r9, r1
    41e6:	a1 2c       	mov	r10, r1
    41e8:	b1 2c       	mov	r11, r1
    41ea:	f0 2d       	mov	r31, r0
    41ec:	15 30       	cpi	r17, 0x05	; 5
    41ee:	11 f0       	breq	.+4      	; 0x41f4 <displayMemory+0x58>
    41f0:	19 30       	cpi	r17, 0x09	; 9
    41f2:	29 f4       	brne	.+10     	; 0x41fe <displayMemory+0x62>
    41f4:	fe 01       	movw	r30, r28
    41f6:	e1 0f       	add	r30, r17
    41f8:	f1 1d       	adc	r31, r1
    41fa:	00 83       	st	Z, r16
    41fc:	11 50       	subi	r17, 0x01	; 1
    41fe:	7e 01       	movw	r14, r28
    4200:	e1 0e       	add	r14, r17
    4202:	f1 1c       	adc	r15, r1
    4204:	a5 01       	movw	r20, r10
    4206:	94 01       	movw	r18, r8
    4208:	0e 94 91 2c 	call	0x5922	; 0x5922 <__udivmodsi4>
    420c:	60 63       	ori	r22, 0x30	; 48
    420e:	f7 01       	movw	r30, r14
    4210:	60 83       	st	Z, r22
    4212:	62 2f       	mov	r22, r18
    4214:	73 2f       	mov	r23, r19
    4216:	84 2f       	mov	r24, r20
    4218:	95 2f       	mov	r25, r21
    421a:	61 15       	cp	r22, r1
    421c:	71 05       	cpc	r23, r1
    421e:	81 05       	cpc	r24, r1
    4220:	91 05       	cpc	r25, r1
    4222:	11 f0       	breq	.+4      	; 0x4228 <displayMemory+0x8c>
    4224:	11 50       	subi	r17, 0x01	; 1
    4226:	11 f7       	brne	.-60     	; 0x41ec <displayMemory+0x50>
    4228:	f1 e0       	ldi	r31, 0x01	; 1
    422a:	df 12       	cpse	r13, r31
    422c:	02 c0       	rjmp	.+4      	; 0x4232 <displayMemory+0x96>
    422e:	8b e4       	ldi	r24, 0x4B	; 75
    4230:	8e 87       	std	Y+14, r24	; 0x0e
    4232:	ce 01       	movw	r24, r28
    4234:	01 96       	adiw	r24, 0x01	; 1
    4236:	0e 94 51 2c 	call	0x58a2	; 0x58a2 <transmitString>
    423a:	64 96       	adiw	r28, 0x14	; 20
    423c:	0f b6       	in	r0, 0x3f	; 63
    423e:	f8 94       	cli
    4240:	de bf       	out	0x3e, r29	; 62
    4242:	0f be       	out	0x3f, r0	; 63
    4244:	cd bf       	out	0x3d, r28	; 61
    4246:	df 91       	pop	r29
    4248:	cf 91       	pop	r28
    424a:	1f 91       	pop	r17
    424c:	0f 91       	pop	r16
    424e:	ff 90       	pop	r15
    4250:	ef 90       	pop	r14
    4252:	df 90       	pop	r13
    4254:	bf 90       	pop	r11
    4256:	af 90       	pop	r10
    4258:	9f 90       	pop	r9
    425a:	8f 90       	pop	r8
    425c:	08 95       	ret

0000425e <freeMemoryUpdate>:
//			to ADD or REMOVE clusters occupied by the file
//Arguments: #1.flag ADD or REMOVE #2.file size in Bytes
//return: none
//********************************************************************
void freeMemoryUpdate (unsigned char flag, unsigned long size)
{
    425e:	cf 92       	push	r12
    4260:	df 92       	push	r13
    4262:	ef 92       	push	r14
    4264:	ff 92       	push	r15
    4266:	cf 93       	push	r28
  unsigned long freeClusters;
  //convert file size into number of clusters occupied
  if((size % 512) == 0) size = size / 512;
    4268:	6a 01       	movw	r12, r20
    426a:	7b 01       	movw	r14, r22
    426c:	91 e0       	ldi	r25, 0x01	; 1
    426e:	d9 22       	and	r13, r25
    4270:	ee 24       	eor	r14, r14
    4272:	ff 24       	eor	r15, r15
    4274:	cd 28       	or	r12, r13
    4276:	ce 28       	or	r12, r14
    4278:	cf 28       	or	r12, r15
    427a:	51 f4       	brne	.+20     	; 0x4290 <freeMemoryUpdate+0x32>
    427c:	03 2e       	mov	r0, r19
    427e:	39 e0       	ldi	r19, 0x09	; 9
    4280:	76 95       	lsr	r23
    4282:	67 95       	ror	r22
    4284:	57 95       	ror	r21
    4286:	47 95       	ror	r20
    4288:	3a 95       	dec	r19
    428a:	d1 f7       	brne	.-12     	; 0x4280 <freeMemoryUpdate+0x22>
    428c:	30 2d       	mov	r19, r0
    428e:	0d c0       	rjmp	.+26     	; 0x42aa <freeMemoryUpdate+0x4c>
  else size = (size / 512) +1;
    4290:	03 2e       	mov	r0, r19
    4292:	39 e0       	ldi	r19, 0x09	; 9
    4294:	76 95       	lsr	r23
    4296:	67 95       	ror	r22
    4298:	57 95       	ror	r21
    429a:	47 95       	ror	r20
    429c:	3a 95       	dec	r19
    429e:	d1 f7       	brne	.-12     	; 0x4294 <freeMemoryUpdate+0x36>
    42a0:	30 2d       	mov	r19, r0
    42a2:	4f 5f       	subi	r20, 0xFF	; 255
    42a4:	5f 4f       	sbci	r21, 0xFF	; 255
    42a6:	6f 4f       	sbci	r22, 0xFF	; 255
    42a8:	7f 4f       	sbci	r23, 0xFF	; 255
  if((size % 8) == 0) size = size / 8;
    42aa:	6a 01       	movw	r12, r20
    42ac:	7b 01       	movw	r14, r22
    42ae:	97 e0       	ldi	r25, 0x07	; 7
    42b0:	c9 22       	and	r12, r25
    42b2:	dd 24       	eor	r13, r13
    42b4:	ee 24       	eor	r14, r14
    42b6:	ff 24       	eor	r15, r15
    42b8:	cd 28       	or	r12, r13
    42ba:	ce 28       	or	r12, r14
    42bc:	cf 28       	or	r12, r15
    42be:	59 f4       	brne	.+22     	; 0x42d6 <freeMemoryUpdate+0x78>
    42c0:	6a 01       	movw	r12, r20
    42c2:	7b 01       	movw	r14, r22
    42c4:	68 94       	set
    42c6:	12 f8       	bld	r1, 2
    42c8:	f6 94       	lsr	r15
    42ca:	e7 94       	ror	r14
    42cc:	d7 94       	ror	r13
    42ce:	c7 94       	ror	r12
    42d0:	16 94       	lsr	r1
    42d2:	d1 f7       	brne	.-12     	; 0x42c8 <freeMemoryUpdate+0x6a>
    42d4:	0f c0       	rjmp	.+30     	; 0x42f4 <freeMemoryUpdate+0x96>
  else size = (size / 8) +1;
    42d6:	68 94       	set
    42d8:	12 f8       	bld	r1, 2
    42da:	76 95       	lsr	r23
    42dc:	67 95       	ror	r22
    42de:	57 95       	ror	r21
    42e0:	47 95       	ror	r20
    42e2:	16 94       	lsr	r1
    42e4:	d1 f7       	brne	.-12     	; 0x42da <freeMemoryUpdate+0x7c>
    42e6:	6a 01       	movw	r12, r20
    42e8:	7b 01       	movw	r14, r22
    42ea:	9f ef       	ldi	r25, 0xFF	; 255
    42ec:	c9 1a       	sub	r12, r25
    42ee:	d9 0a       	sbc	r13, r25
    42f0:	e9 0a       	sbc	r14, r25
    42f2:	f9 0a       	sbc	r15, r25

  if(freeClusterCountUpdated)
    42f4:	90 91 62 12 	lds	r25, 0x1262	; 0x801262 <freeClusterCountUpdated>
    42f8:	99 23       	and	r25, r25
    42fa:	c9 f0       	breq	.+50     	; 0x432e <freeMemoryUpdate+0xd0>
    42fc:	c8 2f       	mov	r28, r24
  {
	freeClusters = getSetFreeCluster (TOTAL_FREE, GET, 0);
    42fe:	20 e0       	ldi	r18, 0x00	; 0
    4300:	30 e0       	ldi	r19, 0x00	; 0
    4302:	a9 01       	movw	r20, r18
    4304:	60 e0       	ldi	r22, 0x00	; 0
    4306:	81 e0       	ldi	r24, 0x01	; 1
    4308:	c5 dc       	rcall	.-1654   	; 0x3c94 <getSetFreeCluster>
	if(flag == ADD)
    430a:	c1 11       	cpse	r28, r1
    430c:	07 c0       	rjmp	.+14     	; 0x431c <freeMemoryUpdate+0xbe>
  	   freeClusters = freeClusters + size;
    430e:	a7 01       	movw	r20, r14
    4310:	96 01       	movw	r18, r12
    4312:	26 0f       	add	r18, r22
    4314:	37 1f       	adc	r19, r23
    4316:	48 1f       	adc	r20, r24
    4318:	59 1f       	adc	r21, r25
    431a:	06 c0       	rjmp	.+12     	; 0x4328 <freeMemoryUpdate+0xca>
	else  //when flag = REMOVE
	   freeClusters = freeClusters - size;
    431c:	9b 01       	movw	r18, r22
    431e:	ac 01       	movw	r20, r24
    4320:	2c 19       	sub	r18, r12
    4322:	3d 09       	sbc	r19, r13
    4324:	4e 09       	sbc	r20, r14
    4326:	5f 09       	sbc	r21, r15
	getSetFreeCluster (TOTAL_FREE, SET, freeClusters);
    4328:	61 e0       	ldi	r22, 0x01	; 1
    432a:	81 e0       	ldi	r24, 0x01	; 1
    432c:	b3 dc       	rcall	.-1690   	; 0x3c94 <getSetFreeCluster>
  }
}
    432e:	cf 91       	pop	r28
    4330:	ff 90       	pop	r15
    4332:	ef 90       	pop	r14
    4334:	df 90       	pop	r13
    4336:	cf 90       	pop	r12
    4338:	08 95       	ret

0000433a <findFiles>:
//return: first cluster of the file, if flag = GET_FILE
//        print file/dir list of the root directory, if flag = GET_LIST
//		  Delete the file mentioned in arg#2, if flag = DELETE
//****************************************************************************
struct dir_Structure* findFiles (unsigned char flag, unsigned char *fileName)
{
    433a:	2f 92       	push	r2
    433c:	3f 92       	push	r3
    433e:	4f 92       	push	r4
    4340:	5f 92       	push	r5
    4342:	6f 92       	push	r6
    4344:	7f 92       	push	r7
    4346:	8f 92       	push	r8
    4348:	9f 92       	push	r9
    434a:	af 92       	push	r10
    434c:	bf 92       	push	r11
    434e:	cf 92       	push	r12
    4350:	df 92       	push	r13
    4352:	ef 92       	push	r14
    4354:	ff 92       	push	r15
    4356:	0f 93       	push	r16
    4358:	1f 93       	push	r17
    435a:	cf 93       	push	r28
    435c:	df 93       	push	r29
    435e:	cd b7       	in	r28, 0x3d	; 61
    4360:	de b7       	in	r29, 0x3e	; 62
    4362:	2c 97       	sbiw	r28, 0x0c	; 12
    4364:	0f b6       	in	r0, 0x3f	; 63
    4366:	f8 94       	cli
    4368:	de bf       	out	0x3e, r29	; 62
    436a:	0f be       	out	0x3f, r0	; 63
    436c:	cd bf       	out	0x3d, r28	; 61
    436e:	8e 83       	std	Y+6, r24	; 0x06
    4370:	1b 01       	movw	r2, r22
unsigned long cluster, sector, firstSector, firstCluster, nextCluster;
struct dir_Structure *dir;
unsigned int i;
unsigned char j;

cluster = rootCluster; //root cluster
    4372:	80 91 15 0a 	lds	r24, 0x0A15	; 0x800a15 <rootCluster>
    4376:	90 91 16 0a 	lds	r25, 0x0A16	; 0x800a16 <rootCluster+0x1>
    437a:	a0 91 17 0a 	lds	r26, 0x0A17	; 0x800a17 <rootCluster+0x2>
    437e:	b0 91 18 0a 	lds	r27, 0x0A18	; 0x800a18 <rootCluster+0x3>
    4382:	8f 83       	std	Y+7, r24	; 0x07
    4384:	98 87       	std	Y+8, r25	; 0x08
    4386:	a9 87       	std	Y+9, r26	; 0x09
    4388:	ba 87       	std	Y+10, r27	; 0x0a
		      Uart_Transmit_IT_PC((char*)("N/F\r"));
		  return 0;   
		}
		if((dir->name[0] != DELETED) && (dir->attrib != ATTR_LONG_NAME))
        {
          if((flag == GET_FILE) || (flag == DELETE))
    438a:	9e 81       	ldd	r25, Y+6	; 0x06
    438c:	91 50       	subi	r25, 0x01	; 1
    438e:	99 83       	std	Y+1, r25	; 0x01
			     Uart_Transmit_IT_PC ((char*)("FILE" ));
		         Uart_Transmit_IT_PC ((char*)("   "));
			     displayMemory (LOW, dir->fileSize);
			 }
			 else
			   Uart_Transmit_IT_PC ((char*)((dir->attrib == 0x10)? ("DIR") : ("ROOT")));
    4390:	0f 2e       	mov	r0, r31
    4392:	fb ee       	ldi	r31, 0xEB	; 235
    4394:	cf 2e       	mov	r12, r31
    4396:	f6 e0       	ldi	r31, 0x06	; 6
    4398:	df 2e       	mov	r13, r31
    439a:	f0 2d       	mov	r31, r0

cluster = rootCluster; //root cluster

while(1)
{
   firstSector = getFirstSector (cluster);
    439c:	6f 81       	ldd	r22, Y+7	; 0x07
    439e:	78 85       	ldd	r23, Y+8	; 0x08
    43a0:	89 85       	ldd	r24, Y+9	; 0x09
    43a2:	9a 85       	ldd	r25, Y+10	; 0x0a
    43a4:	dd db       	rcall	.-2118   	; 0x3b60 <getFirstSector>
    43a6:	4b 01       	movw	r8, r22
    43a8:	5c 01       	movw	r10, r24

   for(sector = 0; sector < sectorPerCluster; sector++)
    43aa:	80 91 23 0e 	lds	r24, 0x0E23	; 0x800e23 <sectorPerCluster>
    43ae:	90 91 24 0e 	lds	r25, 0x0E24	; 0x800e24 <sectorPerCluster+0x1>
    43b2:	89 2b       	or	r24, r25
    43b4:	09 f4       	brne	.+2      	; 0x43b8 <findFiles+0x7e>
    43b6:	6b c1       	rjmp	.+726    	; 0x468e <findFiles+0x354>
    43b8:	41 2c       	mov	r4, r1
    43ba:	51 2c       	mov	r5, r1
    43bc:	32 01       	movw	r6, r4
   {
     SD_readSingleBlock (firstSector + sector);
    43be:	d5 01       	movw	r26, r10
    43c0:	c4 01       	movw	r24, r8
    43c2:	84 0d       	add	r24, r4
    43c4:	95 1d       	adc	r25, r5
    43c6:	a6 1d       	adc	r26, r6
    43c8:	b7 1d       	adc	r27, r7
    43ca:	8a 83       	std	Y+2, r24	; 0x02
    43cc:	9b 83       	std	Y+3, r25	; 0x03
    43ce:	ac 83       	std	Y+4, r26	; 0x04
    43d0:	bd 83       	std	Y+5, r27	; 0x05
    43d2:	bc 01       	movw	r22, r24
    43d4:	cd 01       	movw	r24, r26
    43d6:	60 d7       	rcall	.+3776   	; 0x5298 <SD_readSingleBlock>
	

     for(i=0; i<bytesPerSector; i+=32)
    43d8:	80 91 07 0a 	lds	r24, 0x0A07	; 0x800a07 <bytesPerSector>
    43dc:	90 91 08 0a 	lds	r25, 0x0A08	; 0x800a08 <bytesPerSector+0x1>
    43e0:	89 2b       	or	r24, r25
    43e2:	09 f4       	brne	.+2      	; 0x43e6 <findFiles+0xac>
    43e4:	43 c1       	rjmp	.+646    	; 0x466c <findFiles+0x332>
     {
	    dir = (struct dir_Structure *) &buffer[i];

        if(dir->name[0] == EMPTY) //indicates end of the file list of the directory
    43e6:	a2 e2       	ldi	r26, 0x22	; 34
    43e8:	bc e0       	ldi	r27, 0x0C	; 12
    43ea:	8c 91       	ld	r24, X
    43ec:	88 23       	and	r24, r24
    43ee:	51 f0       	breq	.+20     	; 0x4404 <findFiles+0xca>
    43f0:	8d 01       	movw	r16, r26
    43f2:	e1 2c       	mov	r14, r1
    43f4:	f1 2c       	mov	r15, r1
    43f6:	12 c0       	rjmp	.+36     	; 0x441c <findFiles+0xe2>
    43f8:	00 5e       	subi	r16, 0xE0	; 224
    43fa:	1f 4f       	sbci	r17, 0xFF	; 255
    43fc:	f8 01       	movw	r30, r16
    43fe:	80 81       	ld	r24, Z
    4400:	81 11       	cpse	r24, r1
    4402:	0c c0       	rjmp	.+24     	; 0x441c <findFiles+0xe2>
		{
		  if((flag == GET_FILE) || (flag == DELETE))
    4404:	8e 81       	ldd	r24, Y+6	; 0x06
    4406:	81 50       	subi	r24, 0x01	; 1
    4408:	82 30       	cpi	r24, 0x02	; 2
    440a:	08 f0       	brcs	.+2      	; 0x440e <findFiles+0xd4>
    440c:	5f c1       	rjmp	.+702    	; 0x46cc <findFiles+0x392>
// 		      Uart_Transmit_IT_PC((char*)("File does not exist!"));
		      Uart_Transmit_IT_PC((char*)("N/F\r"));
    440e:	80 ef       	ldi	r24, 0xF0	; 240
    4410:	96 e0       	ldi	r25, 0x06	; 6
    4412:	0e 94 74 2a 	call	0x54e8	; 0x54e8 <Uart_Transmit_IT_PC>
		  return 0;   
    4416:	80 e0       	ldi	r24, 0x00	; 0
    4418:	90 e0       	ldi	r25, 0x00	; 0
    441a:	5d c1       	rjmp	.+698    	; 0x46d6 <findFiles+0x39c>
		}
		if((dir->name[0] != DELETED) && (dir->attrib != ATTR_LONG_NAME))
    441c:	85 3e       	cpi	r24, 0xE5	; 229
    441e:	09 f4       	brne	.+2      	; 0x4422 <findFiles+0xe8>
    4420:	1a c1       	rjmp	.+564    	; 0x4656 <findFiles+0x31c>
    4422:	d8 01       	movw	r26, r16
    4424:	1b 96       	adiw	r26, 0x0b	; 11
    4426:	8c 91       	ld	r24, X
    4428:	8f 30       	cpi	r24, 0x0F	; 15
    442a:	09 f4       	brne	.+2      	; 0x442e <findFiles+0xf4>
    442c:	14 c1       	rjmp	.+552    	; 0x4656 <findFiles+0x31c>
        {
          if((flag == GET_FILE) || (flag == DELETE))
    442e:	b9 81       	ldd	r27, Y+1	; 0x01
    4430:	b2 30       	cpi	r27, 0x02	; 2
    4432:	08 f0       	brcs	.+2      	; 0x4436 <findFiles+0xfc>
    4434:	c7 c0       	rjmp	.+398    	; 0x45c4 <findFiles+0x28a>
          {
            for(j=0; j<11; j++)
            if(dir->name[j] != fileName[j]) break;
    4436:	f8 01       	movw	r30, r16
    4438:	90 81       	ld	r25, Z
    443a:	d1 01       	movw	r26, r2
    443c:	8c 91       	ld	r24, X
    443e:	98 13       	cpse	r25, r24
    4440:	0a c1       	rjmp	.+532    	; 0x4656 <findFiles+0x31c>
    4442:	d8 01       	movw	r26, r16
    4444:	11 96       	adiw	r26, 0x01	; 1
    4446:	f1 01       	movw	r30, r2
    4448:	31 96       	adiw	r30, 0x01	; 1
		}
		if((dir->name[0] != DELETED) && (dir->attrib != ATTR_LONG_NAME))
        {
          if((flag == GET_FILE) || (flag == DELETE))
          {
            for(j=0; j<11; j++)
    444a:	81 e0       	ldi	r24, 0x01	; 1
            if(dir->name[j] != fileName[j]) break;
    444c:	2d 91       	ld	r18, X+
    444e:	91 91       	ld	r25, Z+
    4450:	29 13       	cpse	r18, r25
    4452:	04 c0       	rjmp	.+8      	; 0x445c <findFiles+0x122>
		}
		if((dir->name[0] != DELETED) && (dir->attrib != ATTR_LONG_NAME))
        {
          if((flag == GET_FILE) || (flag == DELETE))
          {
            for(j=0; j<11; j++)
    4454:	8f 5f       	subi	r24, 0xFF	; 255
    4456:	8b 30       	cpi	r24, 0x0B	; 11
    4458:	c9 f7       	brne	.-14     	; 0x444c <findFiles+0x112>
    445a:	03 c0       	rjmp	.+6      	; 0x4462 <findFiles+0x128>
            if(dir->name[j] != fileName[j]) break;
            if(j == 11)
    445c:	8b 30       	cpi	r24, 0x0B	; 11
    445e:	09 f0       	breq	.+2      	; 0x4462 <findFiles+0x128>
    4460:	fa c0       	rjmp	.+500    	; 0x4656 <findFiles+0x31c>
			{
			  if(flag == GET_FILE)
    4462:	be 81       	ldd	r27, Y+6	; 0x06
    4464:	b1 30       	cpi	r27, 0x01	; 1
    4466:	09 f0       	breq	.+2      	; 0x446a <findFiles+0x130>
    4468:	41 c0       	rjmp	.+130    	; 0x44ec <findFiles+0x1b2>
              {
			    appendFileSector = firstSector + sector;
    446a:	8a 81       	ldd	r24, Y+2	; 0x02
    446c:	9b 81       	ldd	r25, Y+3	; 0x03
    446e:	ac 81       	ldd	r26, Y+4	; 0x04
    4470:	bd 81       	ldd	r27, Y+5	; 0x05
    4472:	80 93 65 12 	sts	0x1265, r24	; 0x801265 <appendFileSector>
    4476:	90 93 66 12 	sts	0x1266, r25	; 0x801266 <appendFileSector+0x1>
    447a:	a0 93 67 12 	sts	0x1267, r26	; 0x801267 <appendFileSector+0x2>
    447e:	b0 93 68 12 	sts	0x1268, r27	; 0x801268 <appendFileSector+0x3>
				appendFileLocation = i;
    4482:	c7 01       	movw	r24, r14
    4484:	a0 e0       	ldi	r26, 0x00	; 0
    4486:	b0 e0       	ldi	r27, 0x00	; 0
    4488:	80 93 ea 09 	sts	0x09EA, r24	; 0x8009ea <appendFileLocation>
    448c:	90 93 eb 09 	sts	0x09EB, r25	; 0x8009eb <appendFileLocation+0x1>
    4490:	a0 93 ec 09 	sts	0x09EC, r26	; 0x8009ec <appendFileLocation+0x2>
    4494:	b0 93 ed 09 	sts	0x09ED, r27	; 0x8009ed <appendFileLocation+0x3>
				appendStartCluster = (((unsigned long) dir->firstClusterHI) << 16) | dir->firstClusterLO;
    4498:	d8 01       	movw	r26, r16
    449a:	54 96       	adiw	r26, 0x14	; 20
    449c:	8d 91       	ld	r24, X+
    449e:	9c 91       	ld	r25, X
    44a0:	55 97       	sbiw	r26, 0x15	; 21
    44a2:	a0 e0       	ldi	r26, 0x00	; 0
    44a4:	b0 e0       	ldi	r27, 0x00	; 0
    44a6:	dc 01       	movw	r26, r24
    44a8:	99 27       	eor	r25, r25
    44aa:	88 27       	eor	r24, r24
    44ac:	f8 01       	movw	r30, r16
    44ae:	42 8d       	ldd	r20, Z+26	; 0x1a
    44b0:	53 8d       	ldd	r21, Z+27	; 0x1b
    44b2:	60 e0       	ldi	r22, 0x00	; 0
    44b4:	70 e0       	ldi	r23, 0x00	; 0
    44b6:	84 2b       	or	r24, r20
    44b8:	95 2b       	or	r25, r21
    44ba:	a6 2b       	or	r26, r22
    44bc:	b7 2b       	or	r27, r23
    44be:	80 93 52 11 	sts	0x1152, r24	; 0x801152 <appendStartCluster>
    44c2:	90 93 53 11 	sts	0x1153, r25	; 0x801153 <appendStartCluster+0x1>
    44c6:	a0 93 54 11 	sts	0x1154, r26	; 0x801154 <appendStartCluster+0x2>
    44ca:	b0 93 55 11 	sts	0x1155, r27	; 0x801155 <appendStartCluster+0x3>
				fileSize = dir->fileSize;
    44ce:	84 8d       	ldd	r24, Z+28	; 0x1c
    44d0:	95 8d       	ldd	r25, Z+29	; 0x1d
    44d2:	a6 8d       	ldd	r26, Z+30	; 0x1e
    44d4:	b7 8d       	ldd	r27, Z+31	; 0x1f
    44d6:	80 93 03 0a 	sts	0x0A03, r24	; 0x800a03 <fileSize>
    44da:	90 93 04 0a 	sts	0x0A04, r25	; 0x800a04 <fileSize+0x1>
    44de:	a0 93 05 0a 	sts	0x0A05, r26	; 0x800a05 <fileSize+0x2>
    44e2:	b0 93 06 0a 	sts	0x0A06, r27	; 0x800a06 <fileSize+0x3>
			    return (dir);
    44e6:	80 2f       	mov	r24, r16
    44e8:	91 2f       	mov	r25, r17
    44ea:	f5 c0       	rjmp	.+490    	; 0x46d6 <findFiles+0x39c>
			  }	
			  else    //when flag = DELETE
			  {
			     TX_NEWLINE;
    44ec:	8d e0       	ldi	r24, 0x0D	; 13
    44ee:	0e 94 49 2c 	call	0x5892	; 0x5892 <transmitByte>
    44f2:	8a e0       	ldi	r24, 0x0A	; 10
    44f4:	0e 94 49 2c 	call	0x5892	; 0x5892 <transmitByte>
				 Uart_Transmit_IT_PC((char*)("Deleting.."));
    44f8:	85 ef       	ldi	r24, 0xF5	; 245
    44fa:	96 e0       	ldi	r25, 0x06	; 6
    44fc:	f5 d7       	rcall	.+4074   	; 0x54e8 <Uart_Transmit_IT_PC>
				 TX_NEWLINE;
    44fe:	8d e0       	ldi	r24, 0x0D	; 13
    4500:	0e 94 49 2c 	call	0x5892	; 0x5892 <transmitByte>
    4504:	8a e0       	ldi	r24, 0x0A	; 10
    4506:	0e 94 49 2c 	call	0x5892	; 0x5892 <transmitByte>
				 TX_NEWLINE;
    450a:	8d e0       	ldi	r24, 0x0D	; 13
    450c:	0e 94 49 2c 	call	0x5892	; 0x5892 <transmitByte>
    4510:	8a e0       	ldi	r24, 0x0A	; 10
    4512:	0e 94 49 2c 	call	0x5892	; 0x5892 <transmitByte>
				 firstCluster = (((unsigned long) dir->firstClusterHI) << 16) | dir->firstClusterLO;
    4516:	d8 01       	movw	r26, r16
    4518:	54 96       	adiw	r26, 0x14	; 20
    451a:	cd 90       	ld	r12, X+
    451c:	dc 90       	ld	r13, X
    451e:	55 97       	sbiw	r26, 0x15	; 21
    4520:	e1 2c       	mov	r14, r1
    4522:	f1 2c       	mov	r15, r1
    4524:	d6 01       	movw	r26, r12
    4526:	99 27       	eor	r25, r25
    4528:	88 27       	eor	r24, r24
    452a:	f8 01       	movw	r30, r16
    452c:	c2 8c       	ldd	r12, Z+26	; 0x1a
    452e:	d3 8c       	ldd	r13, Z+27	; 0x1b
    4530:	e1 2c       	mov	r14, r1
    4532:	f1 2c       	mov	r15, r1
    4534:	c8 2a       	or	r12, r24
    4536:	d9 2a       	or	r13, r25
    4538:	ea 2a       	or	r14, r26
    453a:	fb 2a       	or	r15, r27
                
				 //mark file as 'deleted' in FAT table
				 dir->name[0] = DELETED;    
    453c:	85 ee       	ldi	r24, 0xE5	; 229
    453e:	80 83       	st	Z, r24
				 SD_writeSingleBlock (firstSector+sector);
    4540:	6a 81       	ldd	r22, Y+2	; 0x02
    4542:	7b 81       	ldd	r23, Y+3	; 0x03
    4544:	8c 81       	ldd	r24, Y+4	; 0x04
    4546:	9d 81       	ldd	r25, Y+5	; 0x05
    4548:	cf d6       	rcall	.+3486   	; 0x52e8 <SD_writeSingleBlock>
				 			 
				 freeMemoryUpdate (ADD, dir->fileSize);
    454a:	d8 01       	movw	r26, r16
    454c:	5c 96       	adiw	r26, 0x1c	; 28
    454e:	4d 91       	ld	r20, X+
    4550:	5d 91       	ld	r21, X+
    4552:	6d 91       	ld	r22, X+
    4554:	7c 91       	ld	r23, X
    4556:	5f 97       	sbiw	r26, 0x1f	; 31
    4558:	80 e0       	ldi	r24, 0x00	; 0
    455a:	81 de       	rcall	.-766    	; 0x425e <freeMemoryUpdate>

				 //update next free cluster entry in FSinfo sector
				 cluster = getSetFreeCluster (NEXT_FREE, GET, 0); 
    455c:	20 e0       	ldi	r18, 0x00	; 0
    455e:	30 e0       	ldi	r19, 0x00	; 0
    4560:	a9 01       	movw	r20, r18
    4562:	60 e0       	ldi	r22, 0x00	; 0
    4564:	82 e0       	ldi	r24, 0x02	; 2
    4566:	96 db       	rcall	.-2260   	; 0x3c94 <getSetFreeCluster>
				 if(firstCluster < cluster)
    4568:	c6 16       	cp	r12, r22
    456a:	d7 06       	cpc	r13, r23
    456c:	e8 06       	cpc	r14, r24
    456e:	f9 06       	cpc	r15, r25
				     getSetFreeCluster (NEXT_FREE, SET, firstCluster);
    4570:	28 f4       	brcc	.+10     	; 0x457c <findFiles+0x242>
    4572:	a7 01       	movw	r20, r14
    4574:	96 01       	movw	r18, r12
    4576:	61 e0       	ldi	r22, 0x01	; 1
    4578:	82 e0       	ldi	r24, 0x02	; 2
    457a:	8c db       	rcall	.-2280   	; 0x3c94 <getSetFreeCluster>

				 //mark all the clusters allocated to the file as 'free'
			     while(1)  
			     {
			        nextCluster = getSetNextCluster (firstCluster, GET, 0);
    457c:	00 e0       	ldi	r16, 0x00	; 0
    457e:	10 e0       	ldi	r17, 0x00	; 0
    4580:	98 01       	movw	r18, r16
    4582:	40 e0       	ldi	r20, 0x00	; 0
    4584:	c7 01       	movw	r24, r14
    4586:	b6 01       	movw	r22, r12
    4588:	0c db       	rcall	.-2536   	; 0x3ba2 <getSetNextCluster>
    458a:	a6 2e       	mov	r10, r22
    458c:	b7 2e       	mov	r11, r23
    458e:	8a 83       	std	Y+2, r24	; 0x02
    4590:	99 83       	std	Y+1, r25	; 0x01
					getSetNextCluster (firstCluster, SET, 0);
    4592:	00 e0       	ldi	r16, 0x00	; 0
    4594:	10 e0       	ldi	r17, 0x00	; 0
    4596:	98 01       	movw	r18, r16
    4598:	41 e0       	ldi	r20, 0x01	; 1
    459a:	c7 01       	movw	r24, r14
    459c:	b6 01       	movw	r22, r12
    459e:	01 db       	rcall	.-2558   	; 0x3ba2 <getSetNextCluster>
    45a0:	ca 2c       	mov	r12, r10
					if(nextCluster > 0x0ffffff6) 
					   {Uart_Transmit_IT_PC((char*)("File deleted!"));return 0;}
					firstCluster = nextCluster;
    45a2:	db 2c       	mov	r13, r11
    45a4:	ea 80       	ldd	r14, Y+2	; 0x02
    45a6:	f9 80       	ldd	r15, Y+1	; 0x01
    45a8:	b7 ef       	ldi	r27, 0xF7	; 247
				 //mark all the clusters allocated to the file as 'free'
			     while(1)  
			     {
			        nextCluster = getSetNextCluster (firstCluster, GET, 0);
					getSetNextCluster (firstCluster, SET, 0);
					if(nextCluster > 0x0ffffff6) 
    45aa:	cb 16       	cp	r12, r27
    45ac:	bf ef       	ldi	r27, 0xFF	; 255
    45ae:	db 06       	cpc	r13, r27
    45b0:	eb 06       	cpc	r14, r27
    45b2:	bf e0       	ldi	r27, 0x0F	; 15
    45b4:	fb 06       	cpc	r15, r27
    45b6:	10 f3       	brcs	.-60     	; 0x457c <findFiles+0x242>
					   {Uart_Transmit_IT_PC((char*)("File deleted!"));return 0;}
    45b8:	80 e0       	ldi	r24, 0x00	; 0
    45ba:	97 e0       	ldi	r25, 0x07	; 7
    45bc:	95 d7       	rcall	.+3882   	; 0x54e8 <Uart_Transmit_IT_PC>
    45be:	80 e0       	ldi	r24, 0x00	; 0
    45c0:	90 e0       	ldi	r25, 0x00	; 0
    45c2:	89 c0       	rjmp	.+274    	; 0x46d6 <findFiles+0x39c>
    45c4:	8d e0       	ldi	r24, 0x0D	; 13
			  }
            }
          }
          else  //when flag = GET_LIST
		  {
		     TX_NEWLINE;
    45c6:	0e 94 49 2c 	call	0x5892	; 0x5892 <transmitByte>
    45ca:	8a e0       	ldi	r24, 0x0A	; 10
    45cc:	0e 94 49 2c 	call	0x5892	; 0x5892 <transmitByte>
    45d0:	e1 e0       	ldi	r30, 0x01	; 1
    45d2:	1b 86       	std	Y+11, r1	; 0x0b
    45d4:	ec 87       	std	Y+12, r30	; 0x0c
    45d6:	06 c0       	rjmp	.+12     	; 0x45e4 <findFiles+0x2aa>
    45d8:	2b 85       	ldd	r18, Y+11	; 0x0b
    45da:	2f 5f       	subi	r18, 0xFF	; 255
    45dc:	2b 87       	std	Y+11, r18	; 0x0b
    45de:	3c 85       	ldd	r19, Y+12	; 0x0c
    45e0:	3f 5f       	subi	r19, 0xFF	; 255
    45e2:	3c 87       	std	Y+12, r19	; 0x0c
    45e4:	8b 85       	ldd	r24, Y+11	; 0x0b
			 for(j=0; j<11; j++)
		     {
			   if(j == 8) transmitByte(' ');
    45e6:	88 30       	cpi	r24, 0x08	; 8
    45e8:	59 f4       	brne	.+22     	; 0x4600 <findFiles+0x2c6>
    45ea:	80 e2       	ldi	r24, 0x20	; 32
    45ec:	0e 94 49 2c 	call	0x5892	; 0x5892 <transmitByte>
    45f0:	f8 01       	movw	r30, r16
			   transmitByte (dir->name[j]);
    45f2:	9b 85       	ldd	r25, Y+11	; 0x0b
    45f4:	e9 0f       	add	r30, r25
    45f6:	f1 1d       	adc	r31, r1
    45f8:	80 81       	ld	r24, Z
    45fa:	0e 94 49 2c 	call	0x5892	; 0x5892 <transmitByte>
    45fe:	ec cf       	rjmp	.-40     	; 0x45d8 <findFiles+0x29e>
    4600:	f8 01       	movw	r30, r16
    4602:	ab 85       	ldd	r26, Y+11	; 0x0b
    4604:	ea 0f       	add	r30, r26
    4606:	f1 1d       	adc	r31, r1
    4608:	80 81       	ld	r24, Z
    460a:	0e 94 49 2c 	call	0x5892	; 0x5892 <transmitByte>
            }
          }
          else  //when flag = GET_LIST
		  {
		     TX_NEWLINE;
			 for(j=0; j<11; j++)
    460e:	bc 85       	ldd	r27, Y+12	; 0x0c
    4610:	bb 30       	cpi	r27, 0x0B	; 11
    4612:	10 f3       	brcs	.-60     	; 0x45d8 <findFiles+0x29e>
		     {
			   if(j == 8) transmitByte(' ');
			   transmitByte (dir->name[j]);
			 }
		     Uart_Transmit_IT_PC ((char*)("   "));
    4614:	8e e0       	ldi	r24, 0x0E	; 14
    4616:	97 e0       	ldi	r25, 0x07	; 7
    4618:	67 d7       	rcall	.+3790   	; 0x54e8 <Uart_Transmit_IT_PC>
		     if((dir->attrib != 0x10) && (dir->attrib != 0x08))
    461a:	f8 01       	movw	r30, r16
    461c:	83 85       	ldd	r24, Z+11	; 0x0b
    461e:	80 31       	cpi	r24, 0x10	; 16
    4620:	91 f0       	breq	.+36     	; 0x4646 <findFiles+0x30c>
    4622:	88 30       	cpi	r24, 0x08	; 8
			 {
			     Uart_Transmit_IT_PC ((char*)("FILE" ));
    4624:	a9 f0       	breq	.+42     	; 0x4650 <findFiles+0x316>
    4626:	82 e1       	ldi	r24, 0x12	; 18
    4628:	97 e0       	ldi	r25, 0x07	; 7
    462a:	5e d7       	rcall	.+3772   	; 0x54e8 <Uart_Transmit_IT_PC>
		         Uart_Transmit_IT_PC ((char*)("   "));
    462c:	8e e0       	ldi	r24, 0x0E	; 14
    462e:	97 e0       	ldi	r25, 0x07	; 7
    4630:	5b d7       	rcall	.+3766   	; 0x54e8 <Uart_Transmit_IT_PC>
			     displayMemory (LOW, dir->fileSize);
    4632:	d8 01       	movw	r26, r16
    4634:	5c 96       	adiw	r26, 0x1c	; 28
    4636:	4d 91       	ld	r20, X+
    4638:	5d 91       	ld	r21, X+
    463a:	6d 91       	ld	r22, X+
    463c:	7c 91       	ld	r23, X
    463e:	5f 97       	sbiw	r26, 0x1f	; 31
    4640:	80 e0       	ldi	r24, 0x00	; 0
    4642:	ac dd       	rcall	.-1192   	; 0x419c <displayMemory>
    4644:	08 c0       	rjmp	.+16     	; 0x4656 <findFiles+0x31c>
			 }
			 else
			   Uart_Transmit_IT_PC ((char*)((dir->attrib == 0x10)? ("DIR") : ("ROOT")));
    4646:	e7 ee       	ldi	r30, 0xE7	; 231
    4648:	f6 e0       	ldi	r31, 0x06	; 6
    464a:	8e 2f       	mov	r24, r30
    464c:	9f 2f       	mov	r25, r31
    464e:	02 c0       	rjmp	.+4      	; 0x4654 <findFiles+0x31a>
    4650:	8c 2d       	mov	r24, r12
    4652:	9d 2d       	mov	r25, r13
    4654:	49 d7       	rcall	.+3730   	; 0x54e8 <Uart_Transmit_IT_PC>
    4656:	f0 e2       	ldi	r31, 0x20	; 32
   for(sector = 0; sector < sectorPerCluster; sector++)
   {
     SD_readSingleBlock (firstSector + sector);
	

     for(i=0; i<bytesPerSector; i+=32)
    4658:	ef 0e       	add	r14, r31
    465a:	f1 1c       	adc	r15, r1
    465c:	80 91 07 0a 	lds	r24, 0x0A07	; 0x800a07 <bytesPerSector>
    4660:	90 91 08 0a 	lds	r25, 0x0A08	; 0x800a08 <bytesPerSector+0x1>
    4664:	e8 16       	cp	r14, r24
    4666:	f9 06       	cpc	r15, r25
    4668:	08 f4       	brcc	.+2      	; 0x466c <findFiles+0x332>
    466a:	c6 ce       	rjmp	.-628    	; 0x43f8 <findFiles+0xbe>
    466c:	2f ef       	ldi	r18, 0xFF	; 255

while(1)
{
   firstSector = getFirstSector (cluster);

   for(sector = 0; sector < sectorPerCluster; sector++)
    466e:	42 1a       	sub	r4, r18
    4670:	52 0a       	sbc	r5, r18
    4672:	62 0a       	sbc	r6, r18
    4674:	72 0a       	sbc	r7, r18
    4676:	80 91 23 0e 	lds	r24, 0x0E23	; 0x800e23 <sectorPerCluster>
    467a:	90 91 24 0e 	lds	r25, 0x0E24	; 0x800e24 <sectorPerCluster+0x1>
    467e:	a0 e0       	ldi	r26, 0x00	; 0
    4680:	b0 e0       	ldi	r27, 0x00	; 0
    4682:	48 16       	cp	r4, r24
    4684:	59 06       	cpc	r5, r25
    4686:	6a 06       	cpc	r6, r26
    4688:	7b 06       	cpc	r7, r27
    468a:	08 f4       	brcc	.+2      	; 0x468e <findFiles+0x354>
    468c:	98 ce       	rjmp	.-720    	; 0x43be <findFiles+0x84>
		  }
       }
     }
   }

   cluster = (getSetNextCluster (cluster, GET, 0));
    468e:	00 e0       	ldi	r16, 0x00	; 0
    4690:	10 e0       	ldi	r17, 0x00	; 0
    4692:	98 01       	movw	r18, r16
    4694:	40 e0       	ldi	r20, 0x00	; 0
    4696:	6f 81       	ldd	r22, Y+7	; 0x07
    4698:	78 85       	ldd	r23, Y+8	; 0x08
    469a:	89 85       	ldd	r24, Y+9	; 0x09
    469c:	9a 85       	ldd	r25, Y+10	; 0x0a
    469e:	81 da       	rcall	.-2814   	; 0x3ba2 <getSetNextCluster>
    46a0:	6f 83       	std	Y+7, r22	; 0x07
    46a2:	78 87       	std	Y+8, r23	; 0x08
    46a4:	89 87       	std	Y+9, r24	; 0x09
    46a6:	9a 87       	std	Y+10, r25	; 0x0a
    46a8:	67 3f       	cpi	r22, 0xF7	; 247

   if(cluster > 0x0ffffff6)
    46aa:	3f ef       	ldi	r19, 0xFF	; 255
    46ac:	73 07       	cpc	r23, r19
    46ae:	83 07       	cpc	r24, r19
    46b0:	3f e0       	ldi	r19, 0x0F	; 15
    46b2:	93 07       	cpc	r25, r19
    46b4:	70 f4       	brcc	.+28     	; 0x46d2 <findFiles+0x398>
   	 return 0;
   if(cluster == 0) 
    46b6:	67 2b       	or	r22, r23
    46b8:	68 2b       	or	r22, r24
    46ba:	69 2b       	or	r22, r25
    46bc:	09 f0       	breq	.+2      	; 0x46c0 <findFiles+0x386>
    46be:	6e ce       	rjmp	.-804    	; 0x439c <findFiles+0x62>
   {Uart_Transmit_IT_PC((char*)("Error in getting cluster"));  return 0;}
    46c0:	87 e1       	ldi	r24, 0x17	; 23
    46c2:	97 e0       	ldi	r25, 0x07	; 7
    46c4:	11 d7       	rcall	.+3618   	; 0x54e8 <Uart_Transmit_IT_PC>
    46c6:	80 e0       	ldi	r24, 0x00	; 0
    46c8:	90 e0       	ldi	r25, 0x00	; 0
    46ca:	05 c0       	rjmp	.+10     	; 0x46d6 <findFiles+0x39c>
    46cc:	80 e0       	ldi	r24, 0x00	; 0
        if(dir->name[0] == EMPTY) //indicates end of the file list of the directory
		{
		  if((flag == GET_FILE) || (flag == DELETE))
// 		      Uart_Transmit_IT_PC((char*)("File does not exist!"));
		      Uart_Transmit_IT_PC((char*)("N/F\r"));
		  return 0;   
    46ce:	90 e0       	ldi	r25, 0x00	; 0
    46d0:	02 c0       	rjmp	.+4      	; 0x46d6 <findFiles+0x39c>
    46d2:	80 e0       	ldi	r24, 0x00	; 0
   }

   cluster = (getSetNextCluster (cluster, GET, 0));

   if(cluster > 0x0ffffff6)
   	 return 0;
    46d4:	90 e0       	ldi	r25, 0x00	; 0
    46d6:	2c 96       	adiw	r28, 0x0c	; 12
   if(cluster == 0) 
   {Uart_Transmit_IT_PC((char*)("Error in getting cluster"));  return 0;}
 }
return 0;
}
    46d8:	0f b6       	in	r0, 0x3f	; 63
    46da:	f8 94       	cli
    46dc:	de bf       	out	0x3e, r29	; 62
    46de:	0f be       	out	0x3f, r0	; 63
    46e0:	cd bf       	out	0x3d, r28	; 61
    46e2:	df 91       	pop	r29
    46e4:	cf 91       	pop	r28
    46e6:	1f 91       	pop	r17
    46e8:	0f 91       	pop	r16
    46ea:	ff 90       	pop	r15
    46ec:	ef 90       	pop	r14
    46ee:	df 90       	pop	r13
    46f0:	cf 90       	pop	r12
    46f2:	bf 90       	pop	r11
    46f4:	af 90       	pop	r10
    46f6:	9f 90       	pop	r9
    46f8:	8f 90       	pop	r8
    46fa:	7f 90       	pop	r7
    46fc:	6f 90       	pop	r6
    46fe:	5f 90       	pop	r5
    4700:	4f 90       	pop	r4
    4702:	3f 90       	pop	r3
    4704:	2f 90       	pop	r2
    4706:	08 95       	ret

00004708 <readFile>:
    4708:	4f 92       	push	r4
//return: 0, if normal operation or flag is READ
//	      1, if file is already existing and flag = VERIFY
//		  2, if file name is incompatible
//***************************************************************************
unsigned char readFile (unsigned char flag, unsigned char *fileName)
{
    470a:	5f 92       	push	r5
    470c:	6f 92       	push	r6
    470e:	7f 92       	push	r7
    4710:	8f 92       	push	r8
    4712:	9f 92       	push	r9
    4714:	af 92       	push	r10
    4716:	bf 92       	push	r11
    4718:	cf 92       	push	r12
    471a:	df 92       	push	r13
    471c:	ef 92       	push	r14
    471e:	ff 92       	push	r15
    4720:	0f 93       	push	r16
    4722:	1f 93       	push	r17
    4724:	cf 93       	push	r28
    4726:	df 93       	push	r29
    4728:	cd b7       	in	r28, 0x3d	; 61
    472a:	de b7       	in	r29, 0x3e	; 62
    472c:	29 97       	sbiw	r28, 0x09	; 9
    472e:	0f b6       	in	r0, 0x3f	; 63
    4730:	f8 94       	cli
    4732:	de bf       	out	0x3e, r29	; 62
    4734:	0f be       	out	0x3f, r0	; 63
    4736:	cd bf       	out	0x3d, r28	; 61
    4738:	89 83       	std	Y+1, r24	; 0x01
    473a:	7b 01       	movw	r14, r22
struct dir_Structure *dir;
unsigned long cluster, byteCounter = 0, fileSize, firstSector;
unsigned int k;
unsigned char j, error;

error = convertFileName (fileName); //convert fileName into FAT format
    473c:	cb 01       	movw	r24, r22
    473e:	fc db       	rcall	.-2056   	; 0x3f38 <convertFileName>
if(error) return 2;
    4740:	81 11       	cpse	r24, r1
    4742:	a0 c0       	rjmp	.+320    	; 0x4884 <readFile+0x17c>

dir = findFiles (GET_FILE, fileName); //get the file location
    4744:	b7 01       	movw	r22, r14
    4746:	81 e0       	ldi	r24, 0x01	; 1
    4748:	f8 dd       	rcall	.-1040   	; 0x433a <findFiles>
if(dir == 0) 
    474a:	00 97       	sbiw	r24, 0x00	; 0
    474c:	09 f4       	brne	.+2      	; 0x4750 <readFile+0x48>
    474e:	9c c0       	rjmp	.+312    	; 0x4888 <readFile+0x180>
  return (0);

if(flag == VERIFY) return (1);	//specified file name is already existing
    4750:	09 81       	ldd	r16, Y+1	; 0x01
    4752:	01 30       	cpi	r16, 0x01	; 1
    4754:	09 f4       	brne	.+2      	; 0x4758 <readFile+0x50>
    4756:	9a c0       	rjmp	.+308    	; 0x488c <readFile+0x184>

cluster = (((unsigned long) dir->firstClusterHI) << 16) | dir->firstClusterLO;
    4758:	dc 01       	movw	r26, r24
    475a:	54 96       	adiw	r26, 0x14	; 20
    475c:	4d 91       	ld	r20, X+
    475e:	5c 91       	ld	r21, X
    4760:	55 97       	sbiw	r26, 0x15	; 21
    4762:	60 e0       	ldi	r22, 0x00	; 0
    4764:	70 e0       	ldi	r23, 0x00	; 0
    4766:	ba 01       	movw	r22, r20
    4768:	55 27       	eor	r21, r21
    476a:	44 27       	eor	r20, r20
    476c:	5a 96       	adiw	r26, 0x1a	; 26
    476e:	cd 90       	ld	r12, X+
    4770:	dc 90       	ld	r13, X
    4772:	5b 97       	sbiw	r26, 0x1b	; 27
    4774:	e1 2c       	mov	r14, r1
    4776:	f1 2c       	mov	r15, r1
    4778:	8a 01       	movw	r16, r20
    477a:	9b 01       	movw	r18, r22
    477c:	0c 29       	or	r16, r12
    477e:	1d 29       	or	r17, r13
    4780:	2e 29       	or	r18, r14
    4782:	3f 29       	or	r19, r15
    4784:	0d 83       	std	Y+5, r16	; 0x05
    4786:	1e 83       	std	Y+6, r17	; 0x06
    4788:	2f 83       	std	Y+7, r18	; 0x07
    478a:	38 87       	std	Y+8, r19	; 0x08

fileSize = dir->fileSize;
    478c:	5c 96       	adiw	r26, 0x1c	; 28
    478e:	4d 90       	ld	r4, X+
    4790:	5d 90       	ld	r5, X+
    4792:	6d 90       	ld	r6, X+
    4794:	7c 90       	ld	r7, X
    4796:	5f 97       	sbiw	r26, 0x1f	; 31

TX_NEWLINE;
    4798:	8d e0       	ldi	r24, 0x0D	; 13
    479a:	0e 94 49 2c 	call	0x5892	; 0x5892 <transmitByte>
    479e:	8a e0       	ldi	r24, 0x0A	; 10
    47a0:	0e 94 49 2c 	call	0x5892	; 0x5892 <transmitByte>
TX_NEWLINE;
    47a4:	8d e0       	ldi	r24, 0x0D	; 13
    47a6:	0e 94 49 2c 	call	0x5892	; 0x5892 <transmitByte>
    47aa:	8a e0       	ldi	r24, 0x0A	; 10
    47ac:	0e 94 49 2c 	call	0x5892	; 0x5892 <transmitByte>
//		  2, if file name is incompatible
//***************************************************************************
unsigned char readFile (unsigned char flag, unsigned char *fileName)
{
struct dir_Structure *dir;
unsigned long cluster, byteCounter = 0, fileSize, firstSector;
    47b0:	c1 2c       	mov	r12, r1
    47b2:	d1 2c       	mov	r13, r1
    47b4:	76 01       	movw	r14, r12
    47b6:	53 01       	movw	r10, r6
    47b8:	42 01       	movw	r8, r4
    47ba:	1f ef       	ldi	r17, 0xFF	; 255
    47bc:	81 1a       	sub	r8, r17
    47be:	91 0a       	sbc	r9, r17
    47c0:	a1 0a       	sbc	r10, r17
    47c2:	b1 0a       	sbc	r11, r17
TX_NEWLINE;
TX_NEWLINE;

while(1)
{
  firstSector = getFirstSector (cluster);
    47c4:	6d 81       	ldd	r22, Y+5	; 0x05
    47c6:	7e 81       	ldd	r23, Y+6	; 0x06
    47c8:	8f 81       	ldd	r24, Y+7	; 0x07
    47ca:	98 85       	ldd	r25, Y+8	; 0x08
    47cc:	c9 d9       	rcall	.-3182   	; 0x3b60 <getFirstSector>
    47ce:	69 83       	std	Y+1, r22	; 0x01
    47d0:	7a 83       	std	Y+2, r23	; 0x02
    47d2:	8b 83       	std	Y+3, r24	; 0x03
    47d4:	9c 83       	std	Y+4, r25	; 0x04

  for(j=0; j<sectorPerCluster; j++)
    47d6:	80 91 23 0e 	lds	r24, 0x0E23	; 0x800e23 <sectorPerCluster>
    47da:	90 91 24 0e 	lds	r25, 0x0E24	; 0x800e24 <sectorPerCluster+0x1>
    47de:	89 2b       	or	r24, r25
    47e0:	d1 f1       	breq	.+116    	; 0x4856 <readFile+0x14e>
    47e2:	19 86       	std	Y+9, r1	; 0x09
  {
	  //liest Block von 512 Bytes aus mit SPI und schreibt Werte in buffer[]
    SD_readSingleBlock(firstSector + j);
    47e4:	69 81       	ldd	r22, Y+1	; 0x01
    47e6:	7a 81       	ldd	r23, Y+2	; 0x02
    47e8:	8b 81       	ldd	r24, Y+3	; 0x03
    47ea:	9c 81       	ldd	r25, Y+4	; 0x04
    47ec:	09 85       	ldd	r16, Y+9	; 0x09
    47ee:	60 0f       	add	r22, r16
    47f0:	71 1d       	adc	r23, r1
    47f2:	81 1d       	adc	r24, r1
    47f4:	91 1d       	adc	r25, r1
    47f6:	50 d5       	rcall	.+2720   	; 0x5298 <SD_readSingleBlock>
    
	for(k=0; k<512; k++)
    {
//       transmitByte(buffer[k]);
      if ((byteCounter++) >= fileSize ) return 0;
    47f8:	c4 14       	cp	r12, r4
    47fa:	d5 04       	cpc	r13, r5
    47fc:	e6 04       	cpc	r14, r6
    47fe:	f7 04       	cpc	r15, r7
    4800:	08 f0       	brcs	.+2      	; 0x4804 <readFile+0xfc>
    4802:	46 c0       	rjmp	.+140    	; 0x4890 <readFile+0x188>
    4804:	b7 01       	movw	r22, r14
    4806:	a6 01       	movw	r20, r12
    4808:	4f 5f       	subi	r20, 0xFF	; 255
    480a:	5d 4f       	sbci	r21, 0xFD	; 253
    480c:	6f 4f       	sbci	r22, 0xFF	; 255
    480e:	7f 4f       	sbci	r23, 0xFF	; 255
    4810:	12 e0       	ldi	r17, 0x02	; 2
    4812:	c1 0e       	add	r12, r17
    4814:	d1 1c       	adc	r13, r1
    4816:	e1 1c       	adc	r14, r1
    4818:	f1 1c       	adc	r15, r1
    481a:	02 c0       	rjmp	.+4      	; 0x4820 <readFile+0x118>
    481c:	6c 01       	movw	r12, r24
    481e:	7d 01       	movw	r14, r26
    4820:	8c 14       	cp	r8, r12
    4822:	9d 04       	cpc	r9, r13
    4824:	ae 04       	cpc	r10, r14
    4826:	bf 04       	cpc	r11, r15
    4828:	a9 f1       	breq	.+106    	; 0x4894 <readFile+0x18c>
    482a:	d7 01       	movw	r26, r14
    482c:	c6 01       	movw	r24, r12
    482e:	01 96       	adiw	r24, 0x01	; 1
    4830:	a1 1d       	adc	r26, r1
    4832:	b1 1d       	adc	r27, r1
  for(j=0; j<sectorPerCluster; j++)
  {
	  //liest Block von 512 Bytes aus mit SPI und schreibt Werte in buffer[]
    SD_readSingleBlock(firstSector + j);
    
	for(k=0; k<512; k++)
    4834:	48 17       	cp	r20, r24
    4836:	59 07       	cpc	r21, r25
    4838:	6a 07       	cpc	r22, r26
    483a:	7b 07       	cpc	r23, r27
    483c:	79 f7       	brne	.-34     	; 0x481c <readFile+0x114>

while(1)
{
  firstSector = getFirstSector (cluster);

  for(j=0; j<sectorPerCluster; j++)
    483e:	09 85       	ldd	r16, Y+9	; 0x09
    4840:	0f 5f       	subi	r16, 0xFF	; 255
    4842:	09 87       	std	Y+9, r16	; 0x09
    4844:	80 91 23 0e 	lds	r24, 0x0E23	; 0x800e23 <sectorPerCluster>
    4848:	90 91 24 0e 	lds	r25, 0x0E24	; 0x800e24 <sectorPerCluster+0x1>
    484c:	20 2f       	mov	r18, r16
    484e:	30 e0       	ldi	r19, 0x00	; 0
    4850:	28 17       	cp	r18, r24
    4852:	39 07       	cpc	r19, r25
    4854:	38 f2       	brcs	.-114    	; 0x47e4 <readFile+0xdc>
    {
//       transmitByte(buffer[k]);
      if ((byteCounter++) >= fileSize ) return 0;
    }
  }
  cluster = getSetNextCluster (cluster, GET, 0);
    4856:	00 e0       	ldi	r16, 0x00	; 0
    4858:	10 e0       	ldi	r17, 0x00	; 0
    485a:	98 01       	movw	r18, r16
    485c:	40 e0       	ldi	r20, 0x00	; 0
    485e:	6d 81       	ldd	r22, Y+5	; 0x05
    4860:	7e 81       	ldd	r23, Y+6	; 0x06
    4862:	8f 81       	ldd	r24, Y+7	; 0x07
    4864:	98 85       	ldd	r25, Y+8	; 0x08
    4866:	9d d9       	rcall	.-3270   	; 0x3ba2 <getSetNextCluster>
    4868:	6d 83       	std	Y+5, r22	; 0x05
    486a:	7e 83       	std	Y+6, r23	; 0x06
    486c:	8f 83       	std	Y+7, r24	; 0x07
    486e:	98 87       	std	Y+8, r25	; 0x08
  if(cluster == 0) {Uart_Transmit_IT_PC((char*)("Error in getting cluster")); return 0;}
    4870:	67 2b       	or	r22, r23
    4872:	68 2b       	or	r22, r24
    4874:	69 2b       	or	r22, r25
    4876:	09 f0       	breq	.+2      	; 0x487a <readFile+0x172>
    4878:	a5 cf       	rjmp	.-182    	; 0x47c4 <readFile+0xbc>
    487a:	87 e1       	ldi	r24, 0x17	; 23
    487c:	97 e0       	ldi	r25, 0x07	; 7
    487e:	34 d6       	rcall	.+3176   	; 0x54e8 <Uart_Transmit_IT_PC>
    4880:	80 e0       	ldi	r24, 0x00	; 0
    4882:	09 c0       	rjmp	.+18     	; 0x4896 <readFile+0x18e>
unsigned long cluster, byteCounter = 0, fileSize, firstSector;
unsigned int k;
unsigned char j, error;

error = convertFileName (fileName); //convert fileName into FAT format
if(error) return 2;
    4884:	82 e0       	ldi	r24, 0x02	; 2
    4886:	07 c0       	rjmp	.+14     	; 0x4896 <readFile+0x18e>

dir = findFiles (GET_FILE, fileName); //get the file location
if(dir == 0) 
  return (0);
    4888:	80 e0       	ldi	r24, 0x00	; 0
    488a:	05 c0       	rjmp	.+10     	; 0x4896 <readFile+0x18e>

if(flag == VERIFY) return (1);	//specified file name is already existing
    488c:	81 e0       	ldi	r24, 0x01	; 1
    488e:	03 c0       	rjmp	.+6      	; 0x4896 <readFile+0x18e>
    SD_readSingleBlock(firstSector + j);
    
	for(k=0; k<512; k++)
    {
//       transmitByte(buffer[k]);
      if ((byteCounter++) >= fileSize ) return 0;
    4890:	80 e0       	ldi	r24, 0x00	; 0
    4892:	01 c0       	rjmp	.+2      	; 0x4896 <readFile+0x18e>
    4894:	80 e0       	ldi	r24, 0x00	; 0
  }
  cluster = getSetNextCluster (cluster, GET, 0);
  if(cluster == 0) {Uart_Transmit_IT_PC((char*)("Error in getting cluster")); return 0;}
}
return 0;
}
    4896:	29 96       	adiw	r28, 0x09	; 9
    4898:	0f b6       	in	r0, 0x3f	; 63
    489a:	f8 94       	cli
    489c:	de bf       	out	0x3e, r29	; 62
    489e:	0f be       	out	0x3f, r0	; 63
    48a0:	cd bf       	out	0x3d, r28	; 61
    48a2:	df 91       	pop	r29
    48a4:	cf 91       	pop	r28
    48a6:	1f 91       	pop	r17
    48a8:	0f 91       	pop	r16
    48aa:	ff 90       	pop	r15
    48ac:	ef 90       	pop	r14
    48ae:	df 90       	pop	r13
    48b0:	cf 90       	pop	r12
    48b2:	bf 90       	pop	r11
    48b4:	af 90       	pop	r10
    48b6:	9f 90       	pop	r9
    48b8:	8f 90       	pop	r8
    48ba:	7f 90       	pop	r7
    48bc:	6f 90       	pop	r6
    48be:	5f 90       	pop	r5
    48c0:	4f 90       	pop	r4
    48c2:	08 95       	ret

000048c4 <deleteFile>:
//Function: to delete a specified file from the root directory
//Arguments: pointer to the file name
//return: none
//********************************************************************
void deleteFile (unsigned char *fileName)
{
    48c4:	cf 93       	push	r28
    48c6:	df 93       	push	r29
    48c8:	ec 01       	movw	r28, r24
  unsigned char error;

  error = convertFileName (fileName);
    48ca:	36 db       	rcall	.-2452   	; 0x3f38 <convertFileName>
  if(error) return;
    48cc:	81 11       	cpse	r24, r1
    48ce:	03 c0       	rjmp	.+6      	; 0x48d6 <deleteFile+0x12>

  findFiles (DELETE, fileName);
    48d0:	be 01       	movw	r22, r28
    48d2:	82 e0       	ldi	r24, 0x02	; 2
    48d4:	32 dd       	rcall	.-1436   	; 0x433a <findFiles>
}
    48d6:	df 91       	pop	r29
    48d8:	cf 91       	pop	r28
    48da:	08 95       	ret

000048dc <writeFile>:
//			file name does not exist; if the file already exists then append the data
//Arguments: pointer to the file name
//return: none
//************************************************************************************
void writeFile (unsigned char *fileName, unsigned char * INPUT)
{
    48dc:	2f 92       	push	r2
    48de:	3f 92       	push	r3
    48e0:	4f 92       	push	r4
    48e2:	5f 92       	push	r5
    48e4:	6f 92       	push	r6
    48e6:	7f 92       	push	r7
    48e8:	8f 92       	push	r8
    48ea:	9f 92       	push	r9
    48ec:	af 92       	push	r10
    48ee:	bf 92       	push	r11
    48f0:	cf 92       	push	r12
    48f2:	df 92       	push	r13
    48f4:	ef 92       	push	r14
    48f6:	ff 92       	push	r15
    48f8:	0f 93       	push	r16
    48fa:	1f 93       	push	r17
    48fc:	cf 93       	push	r28
    48fe:	df 93       	push	r29
    4900:	cd b7       	in	r28, 0x3d	; 61
    4902:	de b7       	in	r29, 0x3e	; 62
    4904:	67 97       	sbiw	r28, 0x17	; 23
    4906:	0f b6       	in	r0, 0x3f	; 63
    4908:	f8 94       	cli
    490a:	de bf       	out	0x3e, r29	; 62
    490c:	0f be       	out	0x3f, r0	; 63
    490e:	cd bf       	out	0x3d, r28	; 61
    4910:	98 87       	std	Y+8, r25	; 0x08
    4912:	8f 83       	std	Y+7, r24	; 0x07
    4914:	5b 01       	movw	r10, r22
unsigned char j, data, error, fileCreatedFlag = 0, start = 0, appendFile = 0, sectorEndFlag = 0, sector;
unsigned int i, firstClusterHigh, firstClusterLow;
struct dir_Structure *dir;
unsigned long cluster, nextCluster, prevCluster, firstSector, clusterCount, extraMemory;

j = readFile (VERIFY, fileName);
    4916:	bc 01       	movw	r22, r24
    4918:	81 e0       	ldi	r24, 0x01	; 1
    491a:	f6 de       	rcall	.-532    	; 0x4708 <readFile>

if(j == 1) 
    491c:	81 30       	cpi	r24, 0x01	; 1
    491e:	09 f0       	breq	.+2      	; 0x4922 <writeFile+0x46>
    4920:	4e c0       	rjmp	.+156    	; 0x49be <writeFile+0xe2>
{
  Uart_Transmit_IT_PC((char*)("  File already existing, appending data..")); 
    4922:	80 e3       	ldi	r24, 0x30	; 48
    4924:	97 e0       	ldi	r25, 0x07	; 7
    4926:	e0 d5       	rcall	.+3008   	; 0x54e8 <Uart_Transmit_IT_PC>
  appendFile = 1;
  cluster = appendStartCluster;
    4928:	40 90 52 11 	lds	r4, 0x1152	; 0x801152 <appendStartCluster>
    492c:	50 90 53 11 	lds	r5, 0x1153	; 0x801153 <appendStartCluster+0x1>
    4930:	60 90 54 11 	lds	r6, 0x1154	; 0x801154 <appendStartCluster+0x2>
    4934:	70 90 55 11 	lds	r7, 0x1155	; 0x801155 <appendStartCluster+0x3>
  clusterCount=0;
    4938:	c1 2c       	mov	r12, r1
    493a:	d1 2c       	mov	r13, r1
    493c:	76 01       	movw	r14, r12
  while(1)
  {
    nextCluster = getSetNextCluster (cluster, GET, 0);
    493e:	00 e0       	ldi	r16, 0x00	; 0
    4940:	10 e0       	ldi	r17, 0x00	; 0
    4942:	98 01       	movw	r18, r16
    4944:	40 e0       	ldi	r20, 0x00	; 0
    4946:	c3 01       	movw	r24, r6
    4948:	b2 01       	movw	r22, r4
    494a:	2b d9       	rcall	.-3498   	; 0x3ba2 <getSetNextCluster>
    if(nextCluster == EOF) break;
    494c:	6f 3f       	cpi	r22, 0xFF	; 255
    494e:	2f ef       	ldi	r18, 0xFF	; 255
    4950:	72 07       	cpc	r23, r18
    4952:	82 07       	cpc	r24, r18
    4954:	2f e0       	ldi	r18, 0x0F	; 15
    4956:	92 07       	cpc	r25, r18
    4958:	41 f0       	breq	.+16     	; 0x496a <writeFile+0x8e>
	cluster = nextCluster;
	clusterCount++;
    495a:	3f ef       	ldi	r19, 0xFF	; 255
    495c:	c3 1a       	sub	r12, r19
    495e:	d3 0a       	sbc	r13, r19
    4960:	e3 0a       	sbc	r14, r19
    4962:	f3 0a       	sbc	r15, r19
  clusterCount=0;
  while(1)
  {
    nextCluster = getSetNextCluster (cluster, GET, 0);
    if(nextCluster == EOF) break;
	cluster = nextCluster;
    4964:	2b 01       	movw	r4, r22
    4966:	3c 01       	movw	r6, r24
	clusterCount++;
  }
    4968:	ea cf       	rjmp	.-44     	; 0x493e <writeFile+0x62>

  sector = (fileSize - (clusterCount * sectorPerCluster * bytesPerSector)) / bytesPerSector; //last sector number of the last cluster of the file
    496a:	20 91 23 0e 	lds	r18, 0x0E23	; 0x800e23 <sectorPerCluster>
    496e:	30 91 24 0e 	lds	r19, 0x0E24	; 0x800e24 <sectorPerCluster+0x1>
    4972:	a0 91 07 0a 	lds	r26, 0x0A07	; 0x800a07 <bytesPerSector>
    4976:	b0 91 08 0a 	lds	r27, 0x0A08	; 0x800a08 <bytesPerSector+0x1>
    497a:	e0 91 07 0a 	lds	r30, 0x0A07	; 0x800a07 <bytesPerSector>
    497e:	f0 91 08 0a 	lds	r31, 0x0A08	; 0x800a08 <bytesPerSector+0x1>
    4982:	f9 d7       	rcall	.+4082   	; 0x5976 <__umulhisi3>
    4984:	9b 01       	movw	r18, r22
    4986:	ac 01       	movw	r20, r24
    4988:	c7 01       	movw	r24, r14
    498a:	b6 01       	movw	r22, r12
    498c:	bb d7       	rcall	.+3958   	; 0x5904 <__mulsi3>
    498e:	00 91 03 0a 	lds	r16, 0x0A03	; 0x800a03 <fileSize>
    4992:	10 91 04 0a 	lds	r17, 0x0A04	; 0x800a04 <fileSize+0x1>
    4996:	20 91 05 0a 	lds	r18, 0x0A05	; 0x800a05 <fileSize+0x2>
    499a:	30 91 06 0a 	lds	r19, 0x0A06	; 0x800a06 <fileSize+0x3>
    499e:	68 01       	movw	r12, r16
    49a0:	79 01       	movw	r14, r18
    49a2:	c6 1a       	sub	r12, r22
    49a4:	d7 0a       	sbc	r13, r23
    49a6:	e8 0a       	sbc	r14, r24
    49a8:	f9 0a       	sbc	r15, r25
    49aa:	c7 01       	movw	r24, r14
    49ac:	b6 01       	movw	r22, r12
    49ae:	9f 01       	movw	r18, r30
    49b0:	40 e0       	ldi	r20, 0x00	; 0
    49b2:	50 e0       	ldi	r21, 0x00	; 0
    49b4:	b6 d7       	rcall	.+3948   	; 0x5922 <__udivmodsi4>
    49b6:	29 87       	std	Y+9, r18	; 0x09
  start = 1;
    49b8:	21 e0       	ldi	r18, 0x01	; 1
    49ba:	29 8b       	std	Y+17, r18	; 0x11
    49bc:	48 c0       	rjmp	.+144    	; 0x4a4e <writeFile+0x172>
//  appendFile();
//  return;
}
else if(j == 2) 
    49be:	82 30       	cpi	r24, 0x02	; 2
    49c0:	09 f4       	brne	.+2      	; 0x49c4 <writeFile+0xe8>
   return; //invalid file name
else
{
  TX_NEWLINE;
    49c2:	65 c3       	rjmp	.+1738   	; 0x508e <writeFile+0x7b2>
    49c4:	8d e0       	ldi	r24, 0x0D	; 13
    49c6:	65 d7       	rcall	.+3786   	; 0x5892 <transmitByte>
    49c8:	8a e0       	ldi	r24, 0x0A	; 10
  Uart_Transmit_IT_PC((char*)(" Creating File.."));
    49ca:	63 d7       	rcall	.+3782   	; 0x5892 <transmitByte>
    49cc:	8a e5       	ldi	r24, 0x5A	; 90
    49ce:	97 e0       	ldi	r25, 0x07	; 7

  cluster = getSetFreeCluster (NEXT_FREE, GET, 0);
    49d0:	8b d5       	rcall	.+2838   	; 0x54e8 <Uart_Transmit_IT_PC>
    49d2:	20 e0       	ldi	r18, 0x00	; 0
    49d4:	30 e0       	ldi	r19, 0x00	; 0
    49d6:	a9 01       	movw	r20, r18
    49d8:	60 e0       	ldi	r22, 0x00	; 0
    49da:	82 e0       	ldi	r24, 0x02	; 2
    49dc:	5b d9       	rcall	.-3402   	; 0x3c94 <getSetFreeCluster>
  if(cluster > totalClusters)
    49de:	00 91 09 0a 	lds	r16, 0x0A09	; 0x800a09 <totalClusters>
    49e2:	10 91 0a 0a 	lds	r17, 0x0A0A	; 0x800a0a <totalClusters+0x1>
    49e6:	20 91 0b 0a 	lds	r18, 0x0A0B	; 0x800a0b <totalClusters+0x2>
    49ea:	30 91 0c 0a 	lds	r19, 0x0A0C	; 0x800a0c <totalClusters+0x3>
    49ee:	06 17       	cp	r16, r22
    49f0:	17 07       	cpc	r17, r23
    49f2:	28 07       	cpc	r18, r24
    49f4:	39 07       	cpc	r19, r25
    49f6:	40 f4       	brcc	.+16     	; 0x4a08 <writeFile+0x12c>
     cluster = rootCluster;
    49f8:	60 91 15 0a 	lds	r22, 0x0A15	; 0x800a15 <rootCluster>
    49fc:	70 91 16 0a 	lds	r23, 0x0A16	; 0x800a16 <rootCluster+0x1>
    4a00:	80 91 17 0a 	lds	r24, 0x0A17	; 0x800a17 <rootCluster+0x2>
    4a04:	90 91 18 0a 	lds	r25, 0x0A18	; 0x800a18 <rootCluster+0x3>

  cluster = searchNextFreeCluster(cluster);
    4a08:	27 db       	rcall	.-2482   	; 0x4058 <searchNextFreeCluster>
    4a0a:	2b 01       	movw	r4, r22
    4a0c:	3c 01       	movw	r6, r24
   if(cluster == 0)
    4a0e:	61 15       	cp	r22, r1
    4a10:	71 05       	cpc	r23, r1
    4a12:	81 05       	cpc	r24, r1
   {
      TX_NEWLINE;
    4a14:	91 05       	cpc	r25, r1
    4a16:	41 f4       	brne	.+16     	; 0x4a28 <writeFile+0x14c>
    4a18:	8d e0       	ldi	r24, 0x0D	; 13
    4a1a:	3b d7       	rcall	.+3702   	; 0x5892 <transmitByte>
      Uart_Transmit_IT_PC((char*)(" No free cluster!"));
    4a1c:	8a e0       	ldi	r24, 0x0A	; 10
    4a1e:	39 d7       	rcall	.+3698   	; 0x5892 <transmitByte>
    4a20:	8b e6       	ldi	r24, 0x6B	; 107
    4a22:	97 e0       	ldi	r25, 0x07	; 7
	  return;
    4a24:	61 d5       	rcall	.+2754   	; 0x54e8 <Uart_Transmit_IT_PC>
   }
  getSetNextCluster(cluster, SET, EOF);   //last cluster of the file, marked EOF
    4a26:	33 c3       	rjmp	.+1638   	; 0x508e <writeFile+0x7b2>
    4a28:	0f ef       	ldi	r16, 0xFF	; 255
    4a2a:	1f ef       	ldi	r17, 0xFF	; 255
    4a2c:	2f ef       	ldi	r18, 0xFF	; 255
    4a2e:	3f e0       	ldi	r19, 0x0F	; 15
    4a30:	41 e0       	ldi	r20, 0x01	; 1
    4a32:	b7 d8       	rcall	.-3730   	; 0x3ba2 <getSetNextCluster>
   
  firstClusterHigh = (unsigned int) ((cluster & 0xffff0000) >> 16 );
    4a34:	7b 8a       	std	Y+19, r7	; 0x13
    4a36:	6a 8a       	std	Y+18, r6	; 0x12
  firstClusterLow = (unsigned int) ( cluster & 0x0000ffff);
    4a38:	5d 8a       	std	Y+21, r5	; 0x15
    4a3a:	4c 8a       	std	Y+20, r4	; 0x14
  fileSize = 0;
    4a3c:	10 92 03 0a 	sts	0x0A03, r1	; 0x800a03 <fileSize>
    4a40:	10 92 04 0a 	sts	0x0A04, r1	; 0x800a04 <fileSize+0x1>
    4a44:	10 92 05 0a 	sts	0x0A05, r1	; 0x800a05 <fileSize+0x2>
    4a48:	10 92 06 0a 	sts	0x0A06, r1	; 0x800a06 <fileSize+0x3>
//Arguments: pointer to the file name
//return: none
//************************************************************************************
void writeFile (unsigned char *fileName, unsigned char * INPUT)
{
unsigned char j, data, error, fileCreatedFlag = 0, start = 0, appendFile = 0, sectorEndFlag = 0, sector;
    4a4c:	19 8a       	std	Y+17, r1	; 0x11
    4a4e:	89 89       	ldd	r24, Y+17	; 0x11
    4a50:	21 2c       	mov	r2, r1
while(1)
{
   if(start)
   {
      start = 0;
	  startBlock = getFirstSector (cluster) + sector;
    4a52:	d9 84       	ldd	r13, Y+9	; 0x09
    4a54:	cd 2c       	mov	r12, r13
    4a56:	d1 2c       	mov	r13, r1
    4a58:	e1 2c       	mov	r14, r1
    4a5a:	f1 2c       	mov	r15, r1
    4a5c:	cd 86       	std	Y+13, r12	; 0x0d
    4a5e:	de 86       	std	Y+14, r13	; 0x0e
    4a60:	ef 86       	std	Y+15, r14	; 0x0f
   }
   else
   {
      startBlock = getFirstSector (cluster);
	  i=0;
	  j=0;
    4a62:	f8 8a       	std	Y+16, r15	; 0x10
     buffer[i++] = data;
	 fileSize++;
     if(data == '\r')  //'Carriege Return (CR)' character
     {
        if(i == 512)
		   sectorEndFlag = 1;  //flag to indicate that the appended '\n' char should be put in the next sector
    4a64:	31 2c       	mov	r3, r1
    4a66:	21 e0       	ldi	r18, 0x01	; 1
    4a68:	2b 83       	std	Y+3, r18	; 0x03
    4a6a:	ba 82       	std	Y+2, r11	; 0x02



while(1)
{
   if(start)
    4a6c:	a9 82       	std	Y+1, r10	; 0x01
    4a6e:	88 23       	and	r24, r24
   {
      start = 0;
	  startBlock = getFirstSector (cluster) + sector;
    4a70:	79 f1       	breq	.+94     	; 0x4ad0 <writeFile+0x1f4>
    4a72:	c3 01       	movw	r24, r6
    4a74:	b2 01       	movw	r22, r4
    4a76:	74 d8       	rcall	.-3864   	; 0x3b60 <getFirstSector>
    4a78:	cd 84       	ldd	r12, Y+13	; 0x0d
    4a7a:	de 84       	ldd	r13, Y+14	; 0x0e
    4a7c:	ef 84       	ldd	r14, Y+15	; 0x0f
    4a7e:	f8 88       	ldd	r15, Y+16	; 0x10
    4a80:	c6 0e       	add	r12, r22
    4a82:	d7 1e       	adc	r13, r23
    4a84:	e8 1e       	adc	r14, r24
    4a86:	f9 1e       	adc	r15, r25
    4a88:	c0 92 1b 0b 	sts	0x0B1B, r12	; 0x800b1b <startBlock>
    4a8c:	d0 92 1c 0b 	sts	0x0B1C, r13	; 0x800b1c <startBlock+0x1>
    4a90:	e0 92 1d 0b 	sts	0x0B1D, r14	; 0x800b1d <startBlock+0x2>
    4a94:	f0 92 1e 0b 	sts	0x0B1E, r15	; 0x800b1e <startBlock+0x3>
	  SD_readSingleBlock (startBlock);
    4a98:	60 91 1b 0b 	lds	r22, 0x0B1B	; 0x800b1b <startBlock>
    4a9c:	70 91 1c 0b 	lds	r23, 0x0B1C	; 0x800b1c <startBlock+0x1>
    4aa0:	80 91 1d 0b 	lds	r24, 0x0B1D	; 0x800b1d <startBlock+0x2>
    4aa4:	90 91 1e 0b 	lds	r25, 0x0B1E	; 0x800b1e <startBlock+0x3>
    4aa8:	f7 d3       	rcall	.+2030   	; 0x5298 <SD_readSingleBlock>
	  i = fileSize % bytesPerSector;
    4aaa:	20 91 07 0a 	lds	r18, 0x0A07	; 0x800a07 <bytesPerSector>
    4aae:	30 91 08 0a 	lds	r19, 0x0A08	; 0x800a08 <bytesPerSector+0x1>
    4ab2:	40 e0       	ldi	r20, 0x00	; 0
    4ab4:	50 e0       	ldi	r21, 0x00	; 0
    4ab6:	60 91 03 0a 	lds	r22, 0x0A03	; 0x800a03 <fileSize>
    4aba:	70 91 04 0a 	lds	r23, 0x0A04	; 0x800a04 <fileSize+0x1>
    4abe:	80 91 05 0a 	lds	r24, 0x0A05	; 0x800a05 <fileSize+0x2>
    4ac2:	90 91 06 0a 	lds	r25, 0x0A06	; 0x800a06 <fileSize+0x3>
    4ac6:	2d d7       	rcall	.+3674   	; 0x5922 <__udivmodsi4>
    4ac8:	7f 8b       	std	Y+23, r23	; 0x17
	  j = sector;
    4aca:	6e 8b       	std	Y+22, r22	; 0x16
    4acc:	09 85       	ldd	r16, Y+9	; 0x09
   }
   else
   {
      startBlock = getFirstSector (cluster);
    4ace:	0e c0       	rjmp	.+28     	; 0x4aec <writeFile+0x210>
    4ad0:	c3 01       	movw	r24, r6
    4ad2:	b2 01       	movw	r22, r4
    4ad4:	45 d8       	rcall	.-3958   	; 0x3b60 <getFirstSector>
    4ad6:	60 93 1b 0b 	sts	0x0B1B, r22	; 0x800b1b <startBlock>
    4ada:	70 93 1c 0b 	sts	0x0B1C, r23	; 0x800b1c <startBlock+0x1>
    4ade:	80 93 1d 0b 	sts	0x0B1D, r24	; 0x800b1d <startBlock+0x2>
	  i=0;
    4ae2:	90 93 1e 0b 	sts	0x0B1E, r25	; 0x800b1e <startBlock+0x3>
	  j=0;
    4ae6:	1f 8a       	std	Y+23, r1	; 0x17
   }
   

   TX_NEWLINE;
    4ae8:	1e 8a       	std	Y+22, r1	; 0x16
    4aea:	00 e0       	ldi	r16, 0x00	; 0
    4aec:	8d e0       	ldi	r24, 0x0D	; 13
    4aee:	d1 d6       	rcall	.+3490   	; 0x5892 <transmitByte>
    4af0:	8a e0       	ldi	r24, 0x0A	; 10
   Uart_Transmit_IT_PC((char*)(" Enter text (end with ~):"));
    4af2:	cf d6       	rcall	.+3486   	; 0x5892 <transmitByte>
    4af4:	8d e7       	ldi	r24, 0x7D	; 125
    4af6:	97 e0       	ldi	r25, 0x07	; 7
    4af8:	f7 d4       	rcall	.+2542   	; 0x54e8 <Uart_Transmit_IT_PC>
   uint32_t counter = 0;
    4afa:	81 2c       	mov	r8, r1
    4afc:	91 2c       	mov	r9, r1
    4afe:	54 01       	movw	r10, r8
   do
   {
     if(sectorEndFlag == 1) //special case when the last character in previous sector was '\r'
    4b00:	ff 24       	eor	r15, r15
    4b02:	f3 94       	inc	r15
    4b04:	2f 10       	cpse	r2, r15
    4b06:	21 c0       	rjmp	.+66     	; 0x4b4a <writeFile+0x26e>
	 {
	 	transmitByte ('\n');
    4b08:	8a e0       	ldi	r24, 0x0A	; 10
    4b0a:	c3 d6       	rcall	.+3462   	; 0x5892 <transmitByte>
    4b0c:	ee 89       	ldd	r30, Y+22	; 0x16
        buffer[i++] = '\n'; //appending 'Line Feed (LF)' character
    4b0e:	ff 89       	ldd	r31, Y+23	; 0x17
    4b10:	ee 5d       	subi	r30, 0xDE	; 222
    4b12:	f3 4f       	sbci	r31, 0xF3	; 243
    4b14:	8a e0       	ldi	r24, 0x0A	; 10
    4b16:	80 83       	st	Z, r24
    4b18:	80 91 03 0a 	lds	r24, 0x0A03	; 0x800a03 <fileSize>
		fileSize++;
    4b1c:	90 91 04 0a 	lds	r25, 0x0A04	; 0x800a04 <fileSize+0x1>
    4b20:	a0 91 05 0a 	lds	r26, 0x0A05	; 0x800a05 <fileSize+0x2>
    4b24:	b0 91 06 0a 	lds	r27, 0x0A06	; 0x800a06 <fileSize+0x3>
    4b28:	01 96       	adiw	r24, 0x01	; 1
    4b2a:	a1 1d       	adc	r26, r1
    4b2c:	b1 1d       	adc	r27, r1
    4b2e:	80 93 03 0a 	sts	0x0A03, r24	; 0x800a03 <fileSize>
    4b32:	90 93 04 0a 	sts	0x0A04, r25	; 0x800a04 <fileSize+0x1>
    4b36:	a0 93 05 0a 	sts	0x0A05, r26	; 0x800a05 <fileSize+0x2>
    4b3a:	b0 93 06 0a 	sts	0x0A06, r27	; 0x800a06 <fileSize+0x3>
    4b3e:	2e 89       	ldd	r18, Y+22	; 0x16
   do
   {
     if(sectorEndFlag == 1) //special case when the last character in previous sector was '\r'
	 {
	 	transmitByte ('\n');
        buffer[i++] = '\n'; //appending 'Line Feed (LF)' character
    4b40:	3f 89       	ldd	r19, Y+23	; 0x17
    4b42:	2f 5f       	subi	r18, 0xFF	; 255
    4b44:	3f 4f       	sbci	r19, 0xFF	; 255
    4b46:	3f 8b       	std	Y+23, r19	; 0x17
    4b48:	2e 8b       	std	Y+22, r18	; 0x16
		fileSize++;
	 }

	sectorEndFlag = 0;

	 data = *(INPUT + counter);
    4b4a:	e9 81       	ldd	r30, Y+1	; 0x01
    4b4c:	fa 81       	ldd	r31, Y+2	; 0x02
    4b4e:	e8 0d       	add	r30, r8
	 if(data == 0x08)	//'Back Space' key pressed
    4b50:	f9 1d       	adc	r31, r9
    4b52:	10 81       	ld	r17, Z
	 { 
	   if(i != 0)
    4b54:	18 30       	cpi	r17, 0x08	; 8
    4b56:	29 f5       	brne	.+74     	; 0x4ba2 <writeFile+0x2c6>
    4b58:	ce 88       	ldd	r12, Y+22	; 0x16
    4b5a:	df 88       	ldd	r13, Y+23	; 0x17
    4b5c:	c1 14       	cp	r12, r1
    4b5e:	d1 04       	cpc	r13, r1
	   { 
	     transmitByte(data);
    4b60:	09 f4       	brne	.+2      	; 0x4b64 <writeFile+0x288>
    4b62:	74 c2       	rjmp	.+1256   	; 0x504c <writeFile+0x770>
    4b64:	88 e0       	ldi	r24, 0x08	; 8
		 transmitByte(' '); 
    4b66:	95 d6       	rcall	.+3370   	; 0x5892 <transmitByte>
    4b68:	80 e2       	ldi	r24, 0x20	; 32
    4b6a:	93 d6       	rcall	.+3366   	; 0x5892 <transmitByte>
	     transmitByte(data); 
    4b6c:	88 e0       	ldi	r24, 0x08	; 8
    4b6e:	91 d6       	rcall	.+3362   	; 0x5892 <transmitByte>
    4b70:	96 01       	movw	r18, r12
	     i--; 
    4b72:	21 50       	subi	r18, 0x01	; 1
    4b74:	31 09       	sbc	r19, r1
    4b76:	3f 8b       	std	Y+23, r19	; 0x17
    4b78:	2e 8b       	std	Y+22, r18	; 0x16
    4b7a:	80 91 03 0a 	lds	r24, 0x0A03	; 0x800a03 <fileSize>
		 fileSize--;
    4b7e:	90 91 04 0a 	lds	r25, 0x0A04	; 0x800a04 <fileSize+0x1>
    4b82:	a0 91 05 0a 	lds	r26, 0x0A05	; 0x800a05 <fileSize+0x2>
    4b86:	b0 91 06 0a 	lds	r27, 0x0A06	; 0x800a06 <fileSize+0x3>
    4b8a:	01 97       	sbiw	r24, 0x01	; 1
    4b8c:	a1 09       	sbc	r26, r1
    4b8e:	b1 09       	sbc	r27, r1
    4b90:	80 93 03 0a 	sts	0x0A03, r24	; 0x800a03 <fileSize>
    4b94:	90 93 04 0a 	sts	0x0A04, r25	; 0x800a04 <fileSize+0x1>
    4b98:	a0 93 05 0a 	sts	0x0A05, r26	; 0x800a05 <fileSize+0x2>
    4b9c:	b0 93 06 0a 	sts	0x0A06, r27	; 0x800a06 <fileSize+0x3>
    4ba0:	55 c2       	rjmp	.+1194   	; 0x504c <writeFile+0x770>
	   } 
	   continue;     
	 }
	 transmitByte(data);
    4ba2:	81 2f       	mov	r24, r17
    4ba4:	76 d6       	rcall	.+3308   	; 0x5892 <transmitByte>
    4ba6:	ee 88       	ldd	r14, Y+22	; 0x16
     buffer[i++] = data;
    4ba8:	ff 88       	ldd	r15, Y+23	; 0x17
    4baa:	3f ef       	ldi	r19, 0xFF	; 255
    4bac:	e3 1a       	sub	r14, r19
    4bae:	f3 0a       	sbc	r15, r19
    4bb0:	ee 89       	ldd	r30, Y+22	; 0x16
    4bb2:	ff 89       	ldd	r31, Y+23	; 0x17
    4bb4:	ee 5d       	subi	r30, 0xDE	; 222
    4bb6:	f3 4f       	sbci	r31, 0xF3	; 243
    4bb8:	10 83       	st	Z, r17
    4bba:	80 91 03 0a 	lds	r24, 0x0A03	; 0x800a03 <fileSize>
	 fileSize++;
    4bbe:	90 91 04 0a 	lds	r25, 0x0A04	; 0x800a04 <fileSize+0x1>
    4bc2:	a0 91 05 0a 	lds	r26, 0x0A05	; 0x800a05 <fileSize+0x2>
    4bc6:	b0 91 06 0a 	lds	r27, 0x0A06	; 0x800a06 <fileSize+0x3>
    4bca:	01 96       	adiw	r24, 0x01	; 1
    4bcc:	a1 1d       	adc	r26, r1
    4bce:	b1 1d       	adc	r27, r1
    4bd0:	80 93 03 0a 	sts	0x0A03, r24	; 0x800a03 <fileSize>
    4bd4:	90 93 04 0a 	sts	0x0A04, r25	; 0x800a04 <fileSize+0x1>
    4bd8:	a0 93 05 0a 	sts	0x0A05, r26	; 0x800a05 <fileSize+0x2>
    4bdc:	b0 93 06 0a 	sts	0x0A06, r27	; 0x800a06 <fileSize+0x3>
     if(data == '\r')  //'Carriege Return (CR)' character
    4be0:	1d 30       	cpi	r17, 0x0D	; 13
    4be2:	59 f5       	brne	.+86     	; 0x4c3a <writeFile+0x35e>
     {
        if(i == 512)
    4be4:	e1 14       	cp	r14, r1
    4be6:	42 e0       	ldi	r20, 0x02	; 2
    4be8:	f4 06       	cpc	r15, r20
    4bea:	69 f1       	breq	.+90     	; 0x4c46 <writeFile+0x36a>
		   sectorEndFlag = 1;  //flag to indicate that the appended '\n' char should be put in the next sector
	    else
		{ 
		   transmitByte ('\n');
    4bec:	8a e0       	ldi	r24, 0x0A	; 10
    4bee:	51 d6       	rcall	.+3234   	; 0x5892 <transmitByte>
    4bf0:	8e 89       	ldd	r24, Y+22	; 0x16
           buffer[i++] = '\n'; //appending 'Line Feed (LF)' character
    4bf2:	9f 89       	ldd	r25, Y+23	; 0x17
    4bf4:	02 96       	adiw	r24, 0x02	; 2
    4bf6:	9f 8b       	std	Y+23, r25	; 0x17
    4bf8:	8e 8b       	std	Y+22, r24	; 0x16
    4bfa:	f7 01       	movw	r30, r14
    4bfc:	ee 5d       	subi	r30, 0xDE	; 222
    4bfe:	f3 4f       	sbci	r31, 0xF3	; 243
    4c00:	8a e0       	ldi	r24, 0x0A	; 10
    4c02:	80 83       	st	Z, r24
    4c04:	80 91 03 0a 	lds	r24, 0x0A03	; 0x800a03 <fileSize>
		   fileSize++;
    4c08:	90 91 04 0a 	lds	r25, 0x0A04	; 0x800a04 <fileSize+0x1>
    4c0c:	a0 91 05 0a 	lds	r26, 0x0A05	; 0x800a05 <fileSize+0x2>
    4c10:	b0 91 06 0a 	lds	r27, 0x0A06	; 0x800a06 <fileSize+0x3>
    4c14:	01 96       	adiw	r24, 0x01	; 1
    4c16:	a1 1d       	adc	r26, r1
    4c18:	b1 1d       	adc	r27, r1
    4c1a:	80 93 03 0a 	sts	0x0A03, r24	; 0x800a03 <fileSize>
    4c1e:	90 93 04 0a 	sts	0x0A04, r25	; 0x800a04 <fileSize+0x1>
    4c22:	a0 93 05 0a 	sts	0x0A05, r26	; 0x800a05 <fileSize+0x2>
    4c26:	b0 93 06 0a 	sts	0x0A06, r27	; 0x800a06 <fileSize+0x3>
    4c2a:	ce 88       	ldd	r12, Y+22	; 0x16
	    }
     }
	 
     if(i >= 512)   //though 'i' will never become greater than 512, it's kept here to avoid 
    4c2c:	df 88       	ldd	r13, Y+23	; 0x17
    4c2e:	c1 14       	cp	r12, r1
    4c30:	22 e0       	ldi	r18, 0x02	; 2
    4c32:	d2 06       	cpc	r13, r18
    4c34:	08 f4       	brcc	.+2      	; 0x4c38 <writeFile+0x35c>
    4c36:	10 c2       	rjmp	.+1056   	; 0x5058 <writeFile+0x77c>
    4c38:	08 c0       	rjmp	.+16     	; 0x4c4a <writeFile+0x36e>
    4c3a:	e1 14       	cp	r14, r1
    4c3c:	32 e0       	ldi	r19, 0x02	; 2
    4c3e:	f3 06       	cpc	r15, r19
    4c40:	70 f1       	brcs	.+92     	; 0x4c9e <writeFile+0x3c2>
    4c42:	23 2c       	mov	r2, r3
    4c44:	03 c0       	rjmp	.+6      	; 0x4c4c <writeFile+0x370>
     buffer[i++] = data;
	 fileSize++;
     if(data == '\r')  //'Carriege Return (CR)' character
     {
        if(i == 512)
		   sectorEndFlag = 1;  //flag to indicate that the appended '\n' char should be put in the next sector
    4c46:	2b 80       	ldd	r2, Y+3	; 0x03
    4c48:	01 c0       	rjmp	.+2      	; 0x4c4c <writeFile+0x370>
           buffer[i++] = '\n'; //appending 'Line Feed (LF)' character
		   fileSize++;
	    }
     }
	 
     if(i >= 512)   //though 'i' will never become greater than 512, it's kept here to avoid 
    4c4a:	23 2c       	mov	r2, r3
	 {				//infinite loop in case it happens to be greater than 512 due to some data corruption
	   i=0;
	   error = SD_writeSingleBlock (startBlock);
    4c4c:	60 91 1b 0b 	lds	r22, 0x0B1B	; 0x800b1b <startBlock>
    4c50:	70 91 1c 0b 	lds	r23, 0x0B1C	; 0x800b1c <startBlock+0x1>
    4c54:	80 91 1d 0b 	lds	r24, 0x0B1D	; 0x800b1d <startBlock+0x2>
    4c58:	90 91 1e 0b 	lds	r25, 0x0B1E	; 0x800b1e <startBlock+0x3>
    4c5c:	45 d3       	rcall	.+1674   	; 0x52e8 <SD_writeSingleBlock>
    4c5e:	0f 5f       	subi	r16, 0xFF	; 255
       j++;
    4c60:	80 91 23 0e 	lds	r24, 0x0E23	; 0x800e23 <sectorPerCluster>
	   if(j == sectorPerCluster) {j = 0; break;}
    4c64:	90 91 24 0e 	lds	r25, 0x0E24	; 0x800e24 <sectorPerCluster+0x1>
    4c68:	20 2f       	mov	r18, r16
    4c6a:	30 e0       	ldi	r19, 0x00	; 0
    4c6c:	28 17       	cp	r18, r24
    4c6e:	39 07       	cpc	r19, r25
    4c70:	11 f1       	breq	.+68     	; 0x4cb6 <writeFile+0x3da>
    4c72:	80 91 1b 0b 	lds	r24, 0x0B1B	; 0x800b1b <startBlock>
	   startBlock++; 
    4c76:	90 91 1c 0b 	lds	r25, 0x0B1C	; 0x800b1c <startBlock+0x1>
    4c7a:	a0 91 1d 0b 	lds	r26, 0x0B1D	; 0x800b1d <startBlock+0x2>
    4c7e:	b0 91 1e 0b 	lds	r27, 0x0B1E	; 0x800b1e <startBlock+0x3>
    4c82:	01 96       	adiw	r24, 0x01	; 1
    4c84:	a1 1d       	adc	r26, r1
    4c86:	b1 1d       	adc	r27, r1
    4c88:	80 93 1b 0b 	sts	0x0B1B, r24	; 0x800b1b <startBlock>
    4c8c:	90 93 1c 0b 	sts	0x0B1C, r25	; 0x800b1c <startBlock+0x1>
    4c90:	a0 93 1d 0b 	sts	0x0B1D, r26	; 0x800b1d <startBlock+0x2>
    4c94:	b0 93 1e 0b 	sts	0x0B1E, r27	; 0x800b1e <startBlock+0x3>
    4c98:	1f 8a       	std	Y+23, r1	; 0x17
	    }
     }
	 
     if(i >= 512)   //though 'i' will never become greater than 512, it's kept here to avoid 
	 {				//infinite loop in case it happens to be greater than 512 due to some data corruption
	   i=0;
    4c9a:	1e 8a       	std	Y+22, r1	; 0x16
    4c9c:	03 c0       	rjmp	.+6      	; 0x4ca4 <writeFile+0x3c8>
    4c9e:	ff 8a       	std	Y+23, r15	; 0x17
		 fileSize--;
	   } 
	   continue;     
	 }
	 transmitByte(data);
     buffer[i++] = data;
    4ca0:	ee 8a       	std	Y+22, r14	; 0x16
    4ca2:	23 2c       	mov	r2, r3
    4ca4:	4f ef       	ldi	r20, 0xFF	; 255
	   error = SD_writeSingleBlock (startBlock);
       j++;
	   if(j == sectorPerCluster) {j = 0; break;}
	   startBlock++; 
     }
	 counter ++;
    4ca6:	84 1a       	sub	r8, r20
    4ca8:	94 0a       	sbc	r9, r20
    4caa:	a4 0a       	sbc	r10, r20
    4cac:	b4 0a       	sbc	r11, r20
    4cae:	1e 37       	cpi	r17, 0x7E	; 126
	}while (data != '~');
    4cb0:	09 f0       	breq	.+2      	; 0x4cb4 <writeFile+0x3d8>
    4cb2:	26 cf       	rjmp	.-436    	; 0x4b00 <writeFile+0x224>
    4cb4:	04 c0       	rjmp	.+8      	; 0x4cbe <writeFile+0x3e2>
    4cb6:	1e 37       	cpi	r17, 0x7E	; 126

   if(data == '~') 
    4cb8:	09 f0       	breq	.+2      	; 0x4cbc <writeFile+0x3e0>
    4cba:	3f c0       	rjmp	.+126    	; 0x4d3a <writeFile+0x45e>
    4cbc:	d4 c1       	rjmp	.+936    	; 0x5066 <writeFile+0x78a>
    4cbe:	ce 88       	ldd	r12, Y+22	; 0x16
    4cc0:	df 88       	ldd	r13, Y+23	; 0x17
    4cc2:	80 91 03 0a 	lds	r24, 0x0A03	; 0x800a03 <fileSize>
   {
      fileSize--;	//to remove the last entered '~' character
    4cc6:	90 91 04 0a 	lds	r25, 0x0A04	; 0x800a04 <fileSize+0x1>
    4cca:	a0 91 05 0a 	lds	r26, 0x0A05	; 0x800a05 <fileSize+0x2>
    4cce:	b0 91 06 0a 	lds	r27, 0x0A06	; 0x800a06 <fileSize+0x3>
    4cd2:	01 97       	sbiw	r24, 0x01	; 1
    4cd4:	a1 09       	sbc	r26, r1
    4cd6:	b1 09       	sbc	r27, r1
    4cd8:	80 93 03 0a 	sts	0x0A03, r24	; 0x800a03 <fileSize>
    4cdc:	90 93 04 0a 	sts	0x0A04, r25	; 0x800a04 <fileSize+0x1>
    4ce0:	a0 93 05 0a 	sts	0x0A05, r26	; 0x800a05 <fileSize+0x2>
    4ce4:	b0 93 06 0a 	sts	0x0A06, r27	; 0x800a06 <fileSize+0x3>
    4ce8:	96 01       	movw	r18, r12
	  i--;
    4cea:	21 50       	subi	r18, 0x01	; 1
    4cec:	31 09       	sbc	r19, r1
    4cee:	3a 83       	std	Y+2, r19	; 0x02
    4cf0:	29 83       	std	Y+1, r18	; 0x01
    4cf2:	21 15       	cp	r18, r1
	  for(;i<512;i++)  //fill the rest of the buffer with 0x00
    4cf4:	32 40       	sbci	r19, 0x02	; 2
    4cf6:	68 f4       	brcc	.+26     	; 0x4d12 <writeFile+0x436>
    4cf8:	e9 81       	ldd	r30, Y+1	; 0x01
        buffer[i]= 0x00;
    4cfa:	fa 81       	ldd	r31, Y+2	; 0x02
    4cfc:	ee 5d       	subi	r30, 0xDE	; 222
    4cfe:	f3 4f       	sbci	r31, 0xF3	; 243
    4d00:	10 82       	st	Z, r1

   if(data == '~') 
   {
      fileSize--;	//to remove the last entered '~' character
	  i--;
	  for(;i<512;i++)  //fill the rest of the buffer with 0x00
    4d02:	89 81       	ldd	r24, Y+1	; 0x01
    4d04:	9a 81       	ldd	r25, Y+2	; 0x02
    4d06:	01 96       	adiw	r24, 0x01	; 1
    4d08:	9a 83       	std	Y+2, r25	; 0x02
    4d0a:	89 83       	std	Y+1, r24	; 0x01
    4d0c:	81 15       	cp	r24, r1
    4d0e:	92 40       	sbci	r25, 0x02	; 2
        buffer[i]= 0x00;
   	  error = SD_writeSingleBlock (startBlock);
    4d10:	99 f7       	brne	.-26     	; 0x4cf8 <writeFile+0x41c>
    4d12:	60 91 1b 0b 	lds	r22, 0x0B1B	; 0x800b1b <startBlock>
    4d16:	70 91 1c 0b 	lds	r23, 0x0B1C	; 0x800b1c <startBlock+0x1>
    4d1a:	80 91 1d 0b 	lds	r24, 0x0B1D	; 0x800b1d <startBlock+0x2>
    4d1e:	90 91 1e 0b 	lds	r25, 0x0B1E	; 0x800b1e <startBlock+0x3>
    4d22:	e2 d2       	rcall	.+1476   	; 0x52e8 <SD_writeSingleBlock>

   getSetNextCluster(prevCluster, SET, cluster);
   getSetNextCluster(cluster, SET, EOF);   //last cluster of the file, marked EOF
}        

getSetFreeCluster (NEXT_FREE, SET, cluster); //update FSinfo next free cluster entry
    4d24:	a3 01       	movw	r20, r6
    4d26:	92 01       	movw	r18, r4
    4d28:	61 e0       	ldi	r22, 0x01	; 1
    4d2a:	82 e0       	ldi	r24, 0x02	; 2

if(appendFile)  //executes this loop if file is to be appended
    4d2c:	0e 94 4a 1e 	call	0x3c94	; 0x3c94 <getSetFreeCluster>
    4d30:	c9 88       	ldd	r12, Y+17	; 0x11
    4d32:	cc 20       	and	r12, r12
      break;
   } 
	  
   prevCluster = cluster;

   cluster = searchNextFreeCluster(prevCluster); //look for a free cluster starting from the current cluster
    4d34:	09 f4       	brne	.+2      	; 0x4d38 <writeFile+0x45c>
    4d36:	65 c0       	rjmp	.+202    	; 0x4e02 <writeFile+0x526>
    4d38:	26 c0       	rjmp	.+76     	; 0x4d86 <writeFile+0x4aa>
    4d3a:	c3 01       	movw	r24, r6
    4d3c:	b2 01       	movw	r22, r4
    4d3e:	8c d9       	rcall	.-3304   	; 0x4058 <searchNextFreeCluster>

   if(cluster == 0)
    4d40:	6b 01       	movw	r12, r22
    4d42:	7c 01       	movw	r14, r24
    4d44:	61 15       	cp	r22, r1
    4d46:	71 05       	cpc	r23, r1
    4d48:	81 05       	cpc	r24, r1
   {
      TX_NEWLINE;
    4d4a:	91 05       	cpc	r25, r1
    4d4c:	41 f4       	brne	.+16     	; 0x4d5e <writeFile+0x482>
    4d4e:	8d e0       	ldi	r24, 0x0D	; 13
    4d50:	a0 d5       	rcall	.+2880   	; 0x5892 <transmitByte>
    4d52:	8a e0       	ldi	r24, 0x0A	; 10
    4d54:	9e d5       	rcall	.+2876   	; 0x5892 <transmitByte>
      Uart_Transmit_IT_PC((char*)(" No free cluster!"));
    4d56:	8b e6       	ldi	r24, 0x6B	; 107
    4d58:	97 e0       	ldi	r25, 0x07	; 7
    4d5a:	c6 d3       	rcall	.+1932   	; 0x54e8 <Uart_Transmit_IT_PC>
    4d5c:	98 c1       	rjmp	.+816    	; 0x508e <writeFile+0x7b2>
	  return;
    4d5e:	8b 01       	movw	r16, r22
   }

   getSetNextCluster(prevCluster, SET, cluster);
    4d60:	9c 01       	movw	r18, r24
    4d62:	41 e0       	ldi	r20, 0x01	; 1
    4d64:	c3 01       	movw	r24, r6
    4d66:	b2 01       	movw	r22, r4
    4d68:	0e 94 d1 1d 	call	0x3ba2	; 0x3ba2 <getSetNextCluster>
   getSetNextCluster(cluster, SET, EOF);   //last cluster of the file, marked EOF
    4d6c:	0f ef       	ldi	r16, 0xFF	; 255
    4d6e:	1f ef       	ldi	r17, 0xFF	; 255
    4d70:	2f ef       	ldi	r18, 0xFF	; 255
    4d72:	3f e0       	ldi	r19, 0x0F	; 15
    4d74:	41 e0       	ldi	r20, 0x01	; 1
    4d76:	c7 01       	movw	r24, r14
    4d78:	b6 01       	movw	r22, r12
    4d7a:	0e 94 d1 1d 	call	0x3ba2	; 0x3ba2 <getSetNextCluster>
    4d7e:	80 e0       	ldi	r24, 0x00	; 0
      break;
   } 
	  
   prevCluster = cluster;

   cluster = searchNextFreeCluster(prevCluster); //look for a free cluster starting from the current cluster
    4d80:	26 01       	movw	r4, r12
    4d82:	37 01       	movw	r6, r14
	  return;
   }

   getSetNextCluster(prevCluster, SET, cluster);
   getSetNextCluster(cluster, SET, EOF);   //last cluster of the file, marked EOF
}        
    4d84:	74 ce       	rjmp	.-792    	; 0x4a6e <writeFile+0x192>

getSetFreeCluster (NEXT_FREE, SET, cluster); //update FSinfo next free cluster entry

if(appendFile)  //executes this loop if file is to be appended
{
  SD_readSingleBlock (appendFileSector);    
    4d86:	60 91 65 12 	lds	r22, 0x1265	; 0x801265 <appendFileSector>
    4d8a:	70 91 66 12 	lds	r23, 0x1266	; 0x801266 <appendFileSector+0x1>
    4d8e:	80 91 67 12 	lds	r24, 0x1267	; 0x801267 <appendFileSector+0x2>
    4d92:	90 91 68 12 	lds	r25, 0x1268	; 0x801268 <appendFileSector+0x3>
    4d96:	80 d2       	rcall	.+1280   	; 0x5298 <SD_readSingleBlock>
    4d98:	e0 91 ea 09 	lds	r30, 0x09EA	; 0x8009ea <appendFileLocation>
  dir = (struct dir_Structure *) &buffer[appendFileLocation]; 
    4d9c:	f0 91 eb 09 	lds	r31, 0x09EB	; 0x8009eb <appendFileLocation+0x1>
    4da0:	ee 5d       	subi	r30, 0xDE	; 222
    4da2:	f3 4f       	sbci	r31, 0xF3	; 243
    4da4:	80 91 03 0a 	lds	r24, 0x0A03	; 0x800a03 <fileSize>
  extraMemory = fileSize - dir->fileSize;
    4da8:	90 91 04 0a 	lds	r25, 0x0A04	; 0x800a04 <fileSize+0x1>
    4dac:	a0 91 05 0a 	lds	r26, 0x0A05	; 0x800a05 <fileSize+0x2>
    4db0:	b0 91 06 0a 	lds	r27, 0x0A06	; 0x800a06 <fileSize+0x3>
    4db4:	44 8d       	ldd	r20, Z+28	; 0x1c
    4db6:	55 8d       	ldd	r21, Z+29	; 0x1d
    4db8:	66 8d       	ldd	r22, Z+30	; 0x1e
    4dba:	77 8d       	ldd	r23, Z+31	; 0x1f
    4dbc:	6c 01       	movw	r12, r24
    4dbe:	7d 01       	movw	r14, r26
    4dc0:	c4 1a       	sub	r12, r20
  dir->fileSize = fileSize;
    4dc2:	d5 0a       	sbc	r13, r21
    4dc4:	e6 0a       	sbc	r14, r22
    4dc6:	f7 0a       	sbc	r15, r23
  SD_writeSingleBlock (appendFileSector);
    4dc8:	84 8f       	std	Z+28, r24	; 0x1c
    4dca:	95 8f       	std	Z+29, r25	; 0x1d
    4dcc:	a6 8f       	std	Z+30, r26	; 0x1e
    4dce:	b7 8f       	std	Z+31, r27	; 0x1f
    4dd0:	60 91 65 12 	lds	r22, 0x1265	; 0x801265 <appendFileSector>
    4dd4:	70 91 66 12 	lds	r23, 0x1266	; 0x801266 <appendFileSector+0x1>
    4dd8:	80 91 67 12 	lds	r24, 0x1267	; 0x801267 <appendFileSector+0x2>
  freeMemoryUpdate (REMOVE, extraMemory); //updating free memory count in FSinfo sector;
    4ddc:	90 91 68 12 	lds	r25, 0x1268	; 0x801268 <appendFileSector+0x3>
    4de0:	83 d2       	rcall	.+1286   	; 0x52e8 <SD_writeSingleBlock>
    4de2:	b7 01       	movw	r22, r14
    4de4:	a6 01       	movw	r20, r12

  
  TX_NEWLINE;
    4de6:	81 e0       	ldi	r24, 0x01	; 1
    4de8:	3a da       	rcall	.-2956   	; 0x425e <freeMemoryUpdate>
    4dea:	8d e0       	ldi	r24, 0x0D	; 13
    4dec:	52 d5       	rcall	.+2724   	; 0x5892 <transmitByte>
    4dee:	8a e0       	ldi	r24, 0x0A	; 10
    4df0:	50 d5       	rcall	.+2720   	; 0x5892 <transmitByte>
  Uart_Transmit_IT_PC((char*)(" File appended!"));
    4df2:	87 e9       	ldi	r24, 0x97	; 151
    4df4:	97 e0       	ldi	r25, 0x07	; 7
    4df6:	78 d3       	rcall	.+1776   	; 0x54e8 <Uart_Transmit_IT_PC>
    4df8:	8d e0       	ldi	r24, 0x0D	; 13
  TX_NEWLINE;
    4dfa:	4b d5       	rcall	.+2710   	; 0x5892 <transmitByte>
    4dfc:	8a e0       	ldi	r24, 0x0A	; 10
    4dfe:	49 d5       	rcall	.+2706   	; 0x5892 <transmitByte>
    4e00:	46 c1       	rjmp	.+652    	; 0x508e <writeFile+0x7b2>
    4e02:	c0 90 15 0a 	lds	r12, 0x0A15	; 0x800a15 <rootCluster>
  return;
    4e06:	d0 90 16 0a 	lds	r13, 0x0A16	; 0x800a16 <rootCluster+0x1>
}

//executes following portion when new file is created

prevCluster = rootCluster; //root cluster
    4e0a:	e0 90 17 0a 	lds	r14, 0x0A17	; 0x800a17 <rootCluster+0x2>
    4e0e:	f0 90 18 0a 	lds	r15, 0x0A18	; 0x800a18 <rootCluster+0x3>
    4e12:	cb 82       	std	Y+3, r12	; 0x03
    4e14:	dc 82       	std	Y+4, r13	; 0x04
    4e16:	ed 82       	std	Y+5, r14	; 0x05
    4e18:	fe 82       	std	Y+6, r15	; 0x06
    4e1a:	19 82       	std	Y+1, r1	; 0x01
    4e1c:	2f 81       	ldd	r18, Y+7	; 0x07
    4e1e:	38 85       	ldd	r19, Y+8	; 0x08
//Arguments: pointer to the file name
//return: none
//************************************************************************************
void writeFile (unsigned char *fileName, unsigned char * INPUT)
{
unsigned char j, data, error, fileCreatedFlag = 0, start = 0, appendFile = 0, sectorEndFlag = 0, sector;
    4e20:	25 5f       	subi	r18, 0xF5	; 245
    4e22:	3f 4f       	sbci	r19, 0xFF	; 255
    4e24:	68 94       	set
    4e26:	66 24       	eor	r6, r6
    4e28:	65 f8       	bld	r6, 5

        if((dir->name[0] == EMPTY) || (dir->name[0] == DELETED))  //looking for an empty slot to enter file info
		{
		  for(j=0; j<11; j++)
  			dir->name[j] = fileName[j];
		  dir->attrib = ATTR_ARCHIVE;	//settting file attribute as 'archive'
    4e2a:	0f 2e       	mov	r0, r31
    4e2c:	f4 e8       	ldi	r31, 0x84	; 132
    4e2e:	2f 2e       	mov	r2, r31
		  dir->NTreserved = 0;			//always set to 0
		  dir->timeTenth = 0;			//always set to 0
		  dir->createTime = 0x9684;		//fixed time of creation
    4e30:	f6 e9       	ldi	r31, 0x96	; 150
    4e32:	3f 2e       	mov	r3, r31
    4e34:	f0 2d       	mov	r31, r0
    4e36:	0f 2e       	mov	r0, r31
    4e38:	f7 e3       	ldi	r31, 0x37	; 55
    4e3a:	4f 2e       	mov	r4, r31
		  dir->createDate = 0x3a37;		//fixed date of creation
    4e3c:	fa e3       	ldi	r31, 0x3A	; 58
    4e3e:	5f 2e       	mov	r5, r31
    4e40:	f0 2d       	mov	r31, r0
    4e42:	ea 88       	ldd	r14, Y+18	; 0x12
    4e44:	fb 88       	ldd	r15, Y+19	; 0x13
    4e46:	cc 88       	ldd	r12, Y+20	; 0x14
    4e48:	dd 88       	ldd	r13, Y+21	; 0x15
    4e4a:	3e 87       	std	Y+14, r19	; 0x0e
    4e4c:	2d 87       	std	Y+13, r18	; 0x0d
    4e4e:	6b 81       	ldd	r22, Y+3	; 0x03
    4e50:	7c 81       	ldd	r23, Y+4	; 0x04

prevCluster = rootCluster; //root cluster

while(1)
{
   firstSector = getFirstSector (prevCluster);
    4e52:	8d 81       	ldd	r24, Y+5	; 0x05
    4e54:	9e 81       	ldd	r25, Y+6	; 0x06
    4e56:	0e 94 b0 1d 	call	0x3b60	; 0x3b60 <getFirstSector>
    4e5a:	69 87       	std	Y+9, r22	; 0x09
    4e5c:	7a 87       	std	Y+10, r23	; 0x0a
    4e5e:	8b 87       	std	Y+11, r24	; 0x0b
    4e60:	9c 87       	std	Y+12, r25	; 0x0c
    4e62:	80 91 23 0e 	lds	r24, 0x0E23	; 0x800e23 <sectorPerCluster>

   for(sector = 0; sector < sectorPerCluster; sector++)
    4e66:	90 91 24 0e 	lds	r25, 0x0E24	; 0x800e24 <sectorPerCluster+0x1>
    4e6a:	89 2b       	or	r24, r25
    4e6c:	09 f4       	brne	.+2      	; 0x4e70 <writeFile+0x594>
    4e6e:	9f c0       	rjmp	.+318    	; 0x4fae <writeFile+0x6d2>
    4e70:	71 2c       	mov	r7, r1
    4e72:	89 84       	ldd	r8, Y+9	; 0x09
    4e74:	9a 84       	ldd	r9, Y+10	; 0x0a
   {
     SD_readSingleBlock (firstSector + sector);
    4e76:	ab 84       	ldd	r10, Y+11	; 0x0b
    4e78:	bc 84       	ldd	r11, Y+12	; 0x0c
    4e7a:	87 0c       	add	r8, r7
    4e7c:	91 1c       	adc	r9, r1
    4e7e:	a1 1c       	adc	r10, r1
    4e80:	b1 1c       	adc	r11, r1
    4e82:	c5 01       	movw	r24, r10
    4e84:	b4 01       	movw	r22, r8
    4e86:	08 d2       	rcall	.+1040   	; 0x5298 <SD_readSingleBlock>
    4e88:	80 91 07 0a 	lds	r24, 0x0A07	; 0x800a07 <bytesPerSector>
    4e8c:	90 91 08 0a 	lds	r25, 0x0A08	; 0x800a08 <bytesPerSector+0x1>
	

     for(i=0; i<bytesPerSector; i+=32)
    4e90:	89 2b       	or	r24, r25
    4e92:	09 f4       	brne	.+2      	; 0x4e96 <writeFile+0x5ba>
    4e94:	81 c0       	rjmp	.+258    	; 0x4f98 <writeFile+0x6bc>
    4e96:	59 81       	ldd	r21, Y+1	; 0x01
    4e98:	51 11       	cpse	r21, r1
    4e9a:	07 c0       	rjmp	.+14     	; 0x4eaa <writeFile+0x5ce>
     {
	    dir = (struct dir_Structure *) &buffer[i];

		if(fileCreatedFlag)   //to mark last directory entry with 0x00 (empty) mark
    4e9c:	82 e2       	ldi	r24, 0x22	; 34
    4e9e:	9c e0       	ldi	r25, 0x0C	; 12
    4ea0:	00 e0       	ldi	r16, 0x00	; 0
    4ea2:	10 e0       	ldi	r17, 0x00	; 0
    4ea4:	06 c0       	rjmp	.+12     	; 0x4eb2 <writeFile+0x5d6>
    4ea6:	80 96       	adiw	r24, 0x20	; 32
    4ea8:	04 c0       	rjmp	.+8      	; 0x4eb2 <writeFile+0x5d6>
    4eaa:	e2 e2       	ldi	r30, 0x22	; 34
    4eac:	fc e0       	ldi	r31, 0x0C	; 12
    4eae:	10 82       	st	Z, r1
     SD_readSingleBlock (firstSector + sector);
	

     for(i=0; i<bytesPerSector; i+=32)
     {
	    dir = (struct dir_Structure *) &buffer[i];
    4eb0:	ee c0       	rjmp	.+476    	; 0x508e <writeFile+0x7b2>
    4eb2:	fc 01       	movw	r30, r24

		if(fileCreatedFlag)   //to mark last directory entry with 0x00 (empty) mark
		 { 					  //indicating end of the directory file list
		   dir->name[0] = 0x00;
    4eb4:	20 81       	ld	r18, Z
           return;
    4eb6:	22 23       	and	r18, r18
         }

        if((dir->name[0] == EMPTY) || (dir->name[0] == DELETED))  //looking for an empty slot to enter file info
    4eb8:	19 f0       	breq	.+6      	; 0x4ec0 <writeFile+0x5e4>
    4eba:	25 3e       	cpi	r18, 0xE5	; 229
    4ebc:	09 f0       	breq	.+2      	; 0x4ec0 <writeFile+0x5e4>
    4ebe:	62 c0       	rjmp	.+196    	; 0x4f84 <writeFile+0x6a8>
    4ec0:	ef 81       	ldd	r30, Y+7	; 0x07
    4ec2:	f8 85       	ldd	r31, Y+8	; 0x08
    4ec4:	dc 01       	movw	r26, r24
    4ec6:	21 91       	ld	r18, Z+
    4ec8:	2d 93       	st	X+, r18
    4eca:	4d 85       	ldd	r20, Y+13	; 0x0d
		{
		  for(j=0; j<11; j++)
  			dir->name[j] = fileName[j];
    4ecc:	5e 85       	ldd	r21, Y+14	; 0x0e
    4ece:	4e 17       	cp	r20, r30
           return;
         }

        if((dir->name[0] == EMPTY) || (dir->name[0] == DELETED))  //looking for an empty slot to enter file info
		{
		  for(j=0; j<11; j++)
    4ed0:	5f 07       	cpc	r21, r31
    4ed2:	c9 f7       	brne	.-14     	; 0x4ec6 <writeFile+0x5ea>
    4ed4:	dc 01       	movw	r26, r24
    4ed6:	1b 96       	adiw	r26, 0x0b	; 11
    4ed8:	6c 92       	st	X, r6
  			dir->name[j] = fileName[j];
		  dir->attrib = ATTR_ARCHIVE;	//settting file attribute as 'archive'
    4eda:	1b 97       	sbiw	r26, 0x0b	; 11
    4edc:	1c 96       	adiw	r26, 0x0c	; 12
    4ede:	1c 92       	st	X, r1
    4ee0:	1c 97       	sbiw	r26, 0x0c	; 12
		  dir->NTreserved = 0;			//always set to 0
    4ee2:	1d 96       	adiw	r26, 0x0d	; 13
    4ee4:	1c 92       	st	X, r1
    4ee6:	1d 97       	sbiw	r26, 0x0d	; 13
		  dir->timeTenth = 0;			//always set to 0
    4ee8:	1f 96       	adiw	r26, 0x0f	; 15
    4eea:	3c 92       	st	X, r3
    4eec:	2e 92       	st	-X, r2
		  dir->createTime = 0x9684;		//fixed time of creation
    4eee:	1e 97       	sbiw	r26, 0x0e	; 14
    4ef0:	51 96       	adiw	r26, 0x11	; 17
    4ef2:	5c 92       	st	X, r5
    4ef4:	4e 92       	st	-X, r4
		  dir->createDate = 0x3a37;		//fixed date of creation
    4ef6:	50 97       	sbiw	r26, 0x10	; 16
    4ef8:	53 96       	adiw	r26, 0x13	; 19
    4efa:	5c 92       	st	X, r5
    4efc:	4e 92       	st	-X, r4
		  dir->lastAccessDate = 0x3a37;	//fixed date of last access
    4efe:	52 97       	sbiw	r26, 0x12	; 18
    4f00:	57 96       	adiw	r26, 0x17	; 23
    4f02:	3c 92       	st	X, r3
		  dir->writeTime = 0x9684;		//fixed time of last write
    4f04:	2e 92       	st	-X, r2
    4f06:	56 97       	sbiw	r26, 0x16	; 22
    4f08:	59 96       	adiw	r26, 0x19	; 25
		  dir->writeDate = 0x3a37;		//fixed date of last write
    4f0a:	5c 92       	st	X, r5
    4f0c:	4e 92       	st	-X, r4
    4f0e:	58 97       	sbiw	r26, 0x18	; 24
		  dir->firstClusterHI = firstClusterHigh;
    4f10:	55 96       	adiw	r26, 0x15	; 21
    4f12:	fc 92       	st	X, r15
		  dir->firstClusterLO = firstClusterLow;
    4f14:	ee 92       	st	-X, r14
    4f16:	54 97       	sbiw	r26, 0x14	; 20
    4f18:	5b 96       	adiw	r26, 0x1b	; 27
    4f1a:	dc 92       	st	X, r13
		  dir->fileSize = fileSize;
    4f1c:	ce 92       	st	-X, r12
    4f1e:	5a 97       	sbiw	r26, 0x1a	; 26
    4f20:	40 91 03 0a 	lds	r20, 0x0A03	; 0x800a03 <fileSize>
    4f24:	50 91 04 0a 	lds	r21, 0x0A04	; 0x800a04 <fileSize+0x1>
    4f28:	60 91 05 0a 	lds	r22, 0x0A05	; 0x800a05 <fileSize+0x2>
    4f2c:	70 91 06 0a 	lds	r23, 0x0A06	; 0x800a06 <fileSize+0x3>
    4f30:	fc 01       	movw	r30, r24
    4f32:	44 8f       	std	Z+28, r20	; 0x1c
    4f34:	55 8f       	std	Z+29, r21	; 0x1d

		  SD_writeSingleBlock (firstSector + sector);
    4f36:	66 8f       	std	Z+30, r22	; 0x1e
    4f38:	77 8f       	std	Z+31, r23	; 0x1f
    4f3a:	c5 01       	movw	r24, r10
    4f3c:	b4 01       	movw	r22, r8
		  fileCreatedFlag = 1;

		  TX_NEWLINE;
    4f3e:	d4 d1       	rcall	.+936    	; 0x52e8 <SD_writeSingleBlock>
    4f40:	8d e0       	ldi	r24, 0x0D	; 13
    4f42:	a7 d4       	rcall	.+2382   	; 0x5892 <transmitByte>
    4f44:	8a e0       	ldi	r24, 0x0A	; 10
    4f46:	a5 d4       	rcall	.+2378   	; 0x5892 <transmitByte>
    4f48:	8d e0       	ldi	r24, 0x0D	; 13
		  TX_NEWLINE;
    4f4a:	a3 d4       	rcall	.+2374   	; 0x5892 <transmitByte>
    4f4c:	8a e0       	ldi	r24, 0x0A	; 10
    4f4e:	a1 d4       	rcall	.+2370   	; 0x5892 <transmitByte>
    4f50:	87 ea       	ldi	r24, 0xA7	; 167
    4f52:	97 e0       	ldi	r25, 0x07	; 7
    4f54:	c9 d2       	rcall	.+1426   	; 0x54e8 <Uart_Transmit_IT_PC>
		  Uart_Transmit_IT_PC((char*)(" File Created!"));
    4f56:	40 91 03 0a 	lds	r20, 0x0A03	; 0x800a03 <fileSize>
    4f5a:	50 91 04 0a 	lds	r21, 0x0A04	; 0x800a04 <fileSize+0x1>

		  freeMemoryUpdate (REMOVE, fileSize); //updating free memory count in FSinfo sector
    4f5e:	60 91 05 0a 	lds	r22, 0x0A05	; 0x800a05 <fileSize+0x2>
    4f62:	70 91 06 0a 	lds	r23, 0x0A06	; 0x800a06 <fileSize+0x3>
    4f66:	81 e0       	ldi	r24, 0x01	; 1
    4f68:	7a d9       	rcall	.-3340   	; 0x425e <freeMemoryUpdate>
    4f6a:	00 5e       	subi	r16, 0xE0	; 224
    4f6c:	1f 4f       	sbci	r17, 0xFF	; 255
    4f6e:	80 91 07 0a 	lds	r24, 0x0A07	; 0x800a07 <bytesPerSector>
    4f72:	90 91 08 0a 	lds	r25, 0x0A08	; 0x800a08 <bytesPerSector+0x1>
   for(sector = 0; sector < sectorPerCluster; sector++)
   {
     SD_readSingleBlock (firstSector + sector);
	

     for(i=0; i<bytesPerSector; i+=32)
    4f76:	08 17       	cp	r16, r24
    4f78:	19 07       	cpc	r17, r25
    4f7a:	08 f4       	brcc	.+2      	; 0x4f7e <writeFile+0x6a2>
    4f7c:	69 c0       	rjmp	.+210    	; 0x5050 <writeFile+0x774>
    4f7e:	f1 e0       	ldi	r31, 0x01	; 1
    4f80:	f9 83       	std	Y+1, r31	; 0x01
    4f82:	0a c0       	rjmp	.+20     	; 0x4f98 <writeFile+0x6bc>
    4f84:	00 5e       	subi	r16, 0xE0	; 224
    4f86:	1f 4f       	sbci	r17, 0xFF	; 255
		  dir->firstClusterHI = firstClusterHigh;
		  dir->firstClusterLO = firstClusterLow;
		  dir->fileSize = fileSize;

		  SD_writeSingleBlock (firstSector + sector);
		  fileCreatedFlag = 1;
    4f88:	20 91 07 0a 	lds	r18, 0x0A07	; 0x800a07 <bytesPerSector>
   for(sector = 0; sector < sectorPerCluster; sector++)
   {
     SD_readSingleBlock (firstSector + sector);
	

     for(i=0; i<bytesPerSector; i+=32)
    4f8c:	30 91 08 0a 	lds	r19, 0x0A08	; 0x800a08 <bytesPerSector+0x1>
    4f90:	02 17       	cp	r16, r18
    4f92:	13 07       	cpc	r17, r19
    4f94:	08 f4       	brcc	.+2      	; 0x4f98 <writeFile+0x6bc>
    4f96:	87 cf       	rjmp	.-242    	; 0x4ea6 <writeFile+0x5ca>
    4f98:	73 94       	inc	r7
    4f9a:	80 91 23 0e 	lds	r24, 0x0E23	; 0x800e23 <sectorPerCluster>
    4f9e:	90 91 24 0e 	lds	r25, 0x0E24	; 0x800e24 <sectorPerCluster+0x1>

while(1)
{
   firstSector = getFirstSector (prevCluster);

   for(sector = 0; sector < sectorPerCluster; sector++)
    4fa2:	27 2d       	mov	r18, r7
    4fa4:	30 e0       	ldi	r19, 0x00	; 0
    4fa6:	28 17       	cp	r18, r24
    4fa8:	39 07       	cpc	r19, r25
    4faa:	08 f4       	brcc	.+2      	; 0x4fae <writeFile+0x6d2>
    4fac:	62 cf       	rjmp	.-316    	; 0x4e72 <writeFile+0x596>
    4fae:	00 e0       	ldi	r16, 0x00	; 0
    4fb0:	10 e0       	ldi	r17, 0x00	; 0
    4fb2:	98 01       	movw	r18, r16
    4fb4:	40 e0       	ldi	r20, 0x00	; 0
	     
        }
     }
   }

   cluster = getSetNextCluster (prevCluster, GET, 0);
    4fb6:	6b 81       	ldd	r22, Y+3	; 0x03
    4fb8:	7c 81       	ldd	r23, Y+4	; 0x04
    4fba:	8d 81       	ldd	r24, Y+5	; 0x05
    4fbc:	9e 81       	ldd	r25, Y+6	; 0x06
    4fbe:	0e 94 d1 1d 	call	0x3ba2	; 0x3ba2 <getSetNextCluster>
    4fc2:	67 3f       	cpi	r22, 0xF7	; 247
    4fc4:	5f ef       	ldi	r21, 0xFF	; 255
    4fc6:	75 07       	cpc	r23, r21
    4fc8:	85 07       	cpc	r24, r21

   if(cluster > 0x0ffffff6)
    4fca:	5f e0       	ldi	r21, 0x0F	; 15
    4fcc:	95 07       	cpc	r25, r21
    4fce:	68 f1       	brcs	.+90     	; 0x502a <writeFile+0x74e>
    4fd0:	6f 3f       	cpi	r22, 0xFF	; 255
    4fd2:	7f 4f       	sbci	r23, 0xFF	; 255
    4fd4:	8f 4f       	sbci	r24, 0xFF	; 255
    4fd6:	9f 40       	sbci	r25, 0x0F	; 15
   {
      if(cluster == EOF)   //this situation will come when total files in root is multiple of (32*sectorPerCluster)
    4fd8:	21 f5       	brne	.+72     	; 0x5022 <writeFile+0x746>
    4fda:	6b 81       	ldd	r22, Y+3	; 0x03
    4fdc:	7c 81       	ldd	r23, Y+4	; 0x04
    4fde:	8d 81       	ldd	r24, Y+5	; 0x05
	  {  
		cluster = searchNextFreeCluster(prevCluster); //find next cluster for root directory entries
    4fe0:	9e 81       	ldd	r25, Y+6	; 0x06
    4fe2:	3a d8       	rcall	.-3980   	; 0x4058 <searchNextFreeCluster>
    4fe4:	86 2e       	mov	r8, r22
    4fe6:	97 2e       	mov	r9, r23
    4fe8:	a8 2e       	mov	r10, r24
    4fea:	b9 2e       	mov	r11, r25
    4fec:	06 2f       	mov	r16, r22
    4fee:	17 2f       	mov	r17, r23
    4ff0:	28 2f       	mov	r18, r24
    4ff2:	39 2f       	mov	r19, r25
		getSetNextCluster(prevCluster, SET, cluster); //link the new cluster of root to the previous cluster
    4ff4:	41 e0       	ldi	r20, 0x01	; 1
    4ff6:	6b 81       	ldd	r22, Y+3	; 0x03
    4ff8:	7c 81       	ldd	r23, Y+4	; 0x04
    4ffa:	8d 81       	ldd	r24, Y+5	; 0x05
    4ffc:	9e 81       	ldd	r25, Y+6	; 0x06
    4ffe:	0e 94 d1 1d 	call	0x3ba2	; 0x3ba2 <getSetNextCluster>
    5002:	0f ef       	ldi	r16, 0xFF	; 255
    5004:	1f ef       	ldi	r17, 0xFF	; 255
    5006:	2f ef       	ldi	r18, 0xFF	; 255
		getSetNextCluster(cluster, SET, EOF);  //set the new cluster as end of the root directory
    5008:	3f e0       	ldi	r19, 0x0F	; 15
    500a:	41 e0       	ldi	r20, 0x01	; 1
    500c:	68 2d       	mov	r22, r8
    500e:	79 2d       	mov	r23, r9
    5010:	8a 2d       	mov	r24, r10
    5012:	9b 2d       	mov	r25, r11
    5014:	0e 94 d1 1d 	call	0x3ba2	; 0x3ba2 <getSetNextCluster>
    5018:	8b 82       	std	Y+3, r8	; 0x03
    501a:	9c 82       	std	Y+4, r9	; 0x04
    501c:	ad 82       	std	Y+5, r10	; 0x05

   if(cluster > 0x0ffffff6)
   {
      if(cluster == EOF)   //this situation will come when total files in root is multiple of (32*sectorPerCluster)
	  {  
		cluster = searchNextFreeCluster(prevCluster); //find next cluster for root directory entries
    501e:	be 82       	std	Y+6, r11	; 0x06
    5020:	08 c0       	rjmp	.+16     	; 0x5032 <writeFile+0x756>
    5022:	86 eb       	ldi	r24, 0xB6	; 182
    5024:	97 e0       	ldi	r25, 0x07	; 7
    5026:	60 d2       	rcall	.+1216   	; 0x54e8 <Uart_Transmit_IT_PC>
		getSetNextCluster(cluster, SET, EOF);  //set the new cluster as end of the root directory
      } 

      else
      {	
	    Uart_Transmit_IT_PC((char*)("End of Cluster Chain")); 
    5028:	32 c0       	rjmp	.+100    	; 0x508e <writeFile+0x7b2>
    502a:	6b 83       	std	Y+3, r22	; 0x03
    502c:	7c 83       	std	Y+4, r23	; 0x04
    502e:	8d 83       	std	Y+5, r24	; 0x05
	    return;
    5030:	9e 83       	std	Y+6, r25	; 0x06
	     
        }
     }
   }

   cluster = getSetNextCluster (prevCluster, GET, 0);
    5032:	2b 81       	ldd	r18, Y+3	; 0x03
    5034:	3c 81       	ldd	r19, Y+4	; 0x04
    5036:	4d 81       	ldd	r20, Y+5	; 0x05
    5038:	5e 81       	ldd	r21, Y+6	; 0x06
      {	
	    Uart_Transmit_IT_PC((char*)("End of Cluster Chain")); 
	    return;
      }
   }
   if(cluster == 0) {Uart_Transmit_IT_PC((char*)("Error in getting cluster")); return;}
    503a:	23 2b       	or	r18, r19
    503c:	24 2b       	or	r18, r20
    503e:	25 2b       	or	r18, r21
    5040:	09 f0       	breq	.+2      	; 0x5044 <writeFile+0x768>
    5042:	05 cf       	rjmp	.-502    	; 0x4e4e <writeFile+0x572>
    5044:	87 e1       	ldi	r24, 0x17	; 23
    5046:	97 e0       	ldi	r25, 0x07	; 7
    5048:	4f d2       	rcall	.+1182   	; 0x54e8 <Uart_Transmit_IT_PC>
    504a:	21 c0       	rjmp	.+66     	; 0x508e <writeFile+0x7b2>
    504c:	23 2c       	mov	r2, r3
    504e:	58 cd       	rjmp	.-1360   	; 0x4b00 <writeFile+0x224>
    5050:	f8 01       	movw	r30, r16
    5052:	ee 5d       	subi	r30, 0xDE	; 222
    5054:	f3 4f       	sbci	r31, 0xF3	; 243
   }
   else
   {
      startBlock = getFirstSector (cluster);
	  i=0;
	  j=0;
    5056:	2b cf       	rjmp	.-426    	; 0x4eae <writeFile+0x5d2>
    5058:	3f ef       	ldi	r19, 0xFF	; 255
     SD_readSingleBlock (firstSector + sector);
	

     for(i=0; i<bytesPerSector; i+=32)
     {
	    dir = (struct dir_Structure *) &buffer[i];
    505a:	83 1a       	sub	r8, r19
    505c:	93 0a       	sbc	r9, r19
    505e:	a3 0a       	sbc	r10, r19
    5060:	b3 0a       	sbc	r11, r19
	   error = SD_writeSingleBlock (startBlock);
       j++;
	   if(j == sectorPerCluster) {j = 0; break;}
	   startBlock++; 
     }
	 counter ++;
    5062:	23 2c       	mov	r2, r3
    5064:	4d cd       	rjmp	.-1382   	; 0x4b00 <writeFile+0x224>
    5066:	80 91 03 0a 	lds	r24, 0x0A03	; 0x800a03 <fileSize>
    506a:	90 91 04 0a 	lds	r25, 0x0A04	; 0x800a04 <fileSize+0x1>
    506e:	a0 91 05 0a 	lds	r26, 0x0A05	; 0x800a05 <fileSize+0x2>
	}while (data != '~');

   if(data == '~') 
   {
      fileSize--;	//to remove the last entered '~' character
    5072:	b0 91 06 0a 	lds	r27, 0x0A06	; 0x800a06 <fileSize+0x3>
    5076:	01 97       	sbiw	r24, 0x01	; 1
    5078:	a1 09       	sbc	r26, r1
    507a:	b1 09       	sbc	r27, r1
    507c:	80 93 03 0a 	sts	0x0A03, r24	; 0x800a03 <fileSize>
    5080:	90 93 04 0a 	sts	0x0A04, r25	; 0x800a04 <fileSize+0x1>
    5084:	a0 93 05 0a 	sts	0x0A05, r26	; 0x800a05 <fileSize+0x2>
    5088:	b0 93 06 0a 	sts	0x0A06, r27	; 0x800a06 <fileSize+0x3>
    508c:	42 ce       	rjmp	.-892    	; 0x4d12 <writeFile+0x436>
    508e:	67 96       	adiw	r28, 0x17	; 23
    5090:	0f b6       	in	r0, 0x3f	; 63
    5092:	f8 94       	cli
    5094:	de bf       	out	0x3e, r29	; 62
    5096:	0f be       	out	0x3f, r0	; 63
   
   prevCluster = cluster;
 }
 
 return;
}
    5098:	cd bf       	out	0x3d, r28	; 61
    509a:	df 91       	pop	r29
    509c:	cf 91       	pop	r28
    509e:	1f 91       	pop	r17
    50a0:	0f 91       	pop	r16
    50a2:	ff 90       	pop	r15
    50a4:	ef 90       	pop	r14
    50a6:	df 90       	pop	r13
    50a8:	cf 90       	pop	r12
    50aa:	bf 90       	pop	r11
    50ac:	af 90       	pop	r10
    50ae:	9f 90       	pop	r9
    50b0:	8f 90       	pop	r8
    50b2:	7f 90       	pop	r7
    50b4:	6f 90       	pop	r6
    50b6:	5f 90       	pop	r5
    50b8:	4f 90       	pop	r4
    50ba:	3f 90       	pop	r3
    50bc:	2f 90       	pop	r2
    50be:	08 95       	ret

000050c0 <SD_sendCommand>:
    50c0:	cf 92       	push	r12
    50c2:	df 92       	push	r13
    50c4:	ef 92       	push	r14
    50c6:	ff 92       	push	r15
    50c8:	1f 93       	push	r17
response = SD_sendCommand(ERASE_SELECTED_BLOCKS, 0); //erase all selected blocks
if(response != 0x00)
  return response;

return 0; //normal return
}
    50ca:	cf 93       	push	r28
    50cc:	df 93       	push	r29
    50ce:	18 2f       	mov	r17, r24
    50d0:	6a 01       	movw	r12, r20
    50d2:	7b 01       	movw	r14, r22
    50d4:	80 91 2c 0f 	lds	r24, 0x0F2C	; 0x800f2c <SDHC_flag>
    50d8:	81 11       	cpse	r24, r1
    50da:	15 c0       	rjmp	.+42     	; 0x5106 <SD_sendCommand+0x46>
    50dc:	8f ee       	ldi	r24, 0xEF	; 239
    50de:	81 0f       	add	r24, r17
    50e0:	82 30       	cpi	r24, 0x02	; 2
    50e2:	40 f0       	brcs	.+16     	; 0x50f4 <SD_sendCommand+0x34>
    50e4:	88 ee       	ldi	r24, 0xE8	; 232
    50e6:	81 0f       	add	r24, r17
    50e8:	82 30       	cpi	r24, 0x02	; 2
    50ea:	20 f0       	brcs	.+8      	; 0x50f4 <SD_sendCommand+0x34>
    50ec:	80 ee       	ldi	r24, 0xE0	; 224
    50ee:	81 0f       	add	r24, r17
    50f0:	82 30       	cpi	r24, 0x02	; 2
    50f2:	48 f4       	brcc	.+18     	; 0x5106 <SD_sendCommand+0x46>
    50f4:	0b 2e       	mov	r0, r27
    50f6:	b9 e0       	ldi	r27, 0x09	; 9
    50f8:	cc 0c       	add	r12, r12
    50fa:	dd 1c       	adc	r13, r13
    50fc:	ee 1c       	adc	r14, r14
    50fe:	ff 1c       	adc	r15, r15
    5100:	ba 95       	dec	r27
    5102:	d1 f7       	brne	.-12     	; 0x50f8 <SD_sendCommand+0x38>
    5104:	b0 2d       	mov	r27, r0
    5106:	a5 98       	cbi	0x14, 5	; 20
    5108:	81 2f       	mov	r24, r17
    510a:	80 64       	ori	r24, 0x40	; 64
    510c:	2e d1       	rcall	.+604    	; 0x536a <spi_transmit>
    510e:	8f 2d       	mov	r24, r15
    5110:	2c d1       	rcall	.+600    	; 0x536a <spi_transmit>
    5112:	8e 2d       	mov	r24, r14
    5114:	2a d1       	rcall	.+596    	; 0x536a <spi_transmit>
    5116:	8d 2d       	mov	r24, r13
    5118:	28 d1       	rcall	.+592    	; 0x536a <spi_transmit>
    511a:	8c 2d       	mov	r24, r12
    511c:	26 d1       	rcall	.+588    	; 0x536a <spi_transmit>
    511e:	18 30       	cpi	r17, 0x08	; 8
    5120:	19 f4       	brne	.+6      	; 0x5128 <SD_sendCommand+0x68>
    5122:	87 e8       	ldi	r24, 0x87	; 135
    5124:	22 d1       	rcall	.+580    	; 0x536a <spi_transmit>
    5126:	06 c0       	rjmp	.+12     	; 0x5134 <SD_sendCommand+0x74>
    5128:	85 e9       	ldi	r24, 0x95	; 149
    512a:	1f d1       	rcall	.+574    	; 0x536a <spi_transmit>
    512c:	03 c0       	rjmp	.+6      	; 0x5134 <SD_sendCommand+0x74>
    512e:	c1 50       	subi	r28, 0x01	; 1
    5130:	11 f4       	brne	.+4      	; 0x5136 <SD_sendCommand+0x76>
    5132:	15 c0       	rjmp	.+42     	; 0x515e <SD_sendCommand+0x9e>
    5134:	c0 e0       	ldi	r28, 0x00	; 0
    5136:	1f d1       	rcall	.+574    	; 0x5376 <spi_receive>
    5138:	d8 2f       	mov	r29, r24
    513a:	8f 3f       	cpi	r24, 0xFF	; 255
    513c:	c1 f3       	breq	.-16     	; 0x512e <SD_sendCommand+0x6e>
    513e:	81 11       	cpse	r24, r1
    5140:	0e c0       	rjmp	.+28     	; 0x515e <SD_sendCommand+0x9e>
    5142:	1a 33       	cpi	r17, 0x3A	; 58
    5144:	61 f4       	brne	.+24     	; 0x515e <SD_sendCommand+0x9e>
    5146:	17 d1       	rcall	.+558    	; 0x5376 <spi_receive>
    5148:	86 ff       	sbrs	r24, 6
    514a:	04 c0       	rjmp	.+8      	; 0x5154 <SD_sendCommand+0x94>
    514c:	81 e0       	ldi	r24, 0x01	; 1
    514e:	80 93 2c 0f 	sts	0x0F2C, r24	; 0x800f2c <SDHC_flag>
    5152:	02 c0       	rjmp	.+4      	; 0x5158 <SD_sendCommand+0x98>
    5154:	10 92 2c 0f 	sts	0x0F2C, r1	; 0x800f2c <SDHC_flag>
    5158:	0e d1       	rcall	.+540    	; 0x5376 <spi_receive>
    515a:	0d d1       	rcall	.+538    	; 0x5376 <spi_receive>
    515c:	0c d1       	rcall	.+536    	; 0x5376 <spi_receive>
    515e:	0b d1       	rcall	.+534    	; 0x5376 <spi_receive>
    5160:	a5 9a       	sbi	0x14, 5	; 20
    5162:	8d 2f       	mov	r24, r29
    5164:	df 91       	pop	r29
    5166:	cf 91       	pop	r28
    5168:	1f 91       	pop	r17
    516a:	ff 90       	pop	r15
    516c:	ef 90       	pop	r14
    516e:	df 90       	pop	r13
    5170:	cf 90       	pop	r12
    5172:	08 95       	ret

00005174 <SD_init>:
    5174:	0f 93       	push	r16
    5176:	1f 93       	push	r17
    5178:	cf 93       	push	r28
    517a:	df 93       	push	r29
    517c:	1a e0       	ldi	r17, 0x0A	; 10
    517e:	8f ef       	ldi	r24, 0xFF	; 255
    5180:	f4 d0       	rcall	.+488    	; 0x536a <spi_transmit>
    5182:	11 50       	subi	r17, 0x01	; 1
    5184:	e1 f7       	brne	.-8      	; 0x517e <SD_init+0xa>
    5186:	a5 98       	cbi	0x14, 5	; 20
    5188:	40 e0       	ldi	r20, 0x00	; 0
    518a:	50 e0       	ldi	r21, 0x00	; 0
    518c:	ba 01       	movw	r22, r20
    518e:	80 e0       	ldi	r24, 0x00	; 0
    5190:	97 df       	rcall	.-210    	; 0x50c0 <SD_sendCommand>
    5192:	c0 e2       	ldi	r28, 0x20	; 32
    5194:	d0 e0       	ldi	r29, 0x00	; 0
    5196:	08 c0       	rjmp	.+16     	; 0x51a8 <SD_init+0x34>
    5198:	40 e0       	ldi	r20, 0x00	; 0
    519a:	50 e0       	ldi	r21, 0x00	; 0
    519c:	ba 01       	movw	r22, r20
    519e:	80 e0       	ldi	r24, 0x00	; 0
    51a0:	8f df       	rcall	.-226    	; 0x50c0 <SD_sendCommand>
    51a2:	21 97       	sbiw	r28, 0x01	; 1
    51a4:	09 f4       	brne	.+2      	; 0x51a8 <SD_init+0x34>
    51a6:	68 c0       	rjmp	.+208    	; 0x5278 <SD_init+0x104>
    51a8:	81 30       	cpi	r24, 0x01	; 1
    51aa:	b1 f7       	brne	.-20     	; 0x5198 <SD_init+0x24>
    51ac:	a5 9a       	sbi	0x14, 5	; 20
    51ae:	8f ef       	ldi	r24, 0xFF	; 255
    51b0:	dc d0       	rcall	.+440    	; 0x536a <spi_transmit>
    51b2:	8f ef       	ldi	r24, 0xFF	; 255
    51b4:	da d0       	rcall	.+436    	; 0x536a <spi_transmit>
    51b6:	4a ea       	ldi	r20, 0xAA	; 170
    51b8:	51 e0       	ldi	r21, 0x01	; 1
    51ba:	60 e0       	ldi	r22, 0x00	; 0
    51bc:	70 e0       	ldi	r23, 0x00	; 0
    51be:	88 e0       	ldi	r24, 0x08	; 8
    51c0:	7f df       	rcall	.-258    	; 0x50c0 <SD_sendCommand>
    51c2:	ce ef       	ldi	r28, 0xFE	; 254
    51c4:	d0 e0       	ldi	r29, 0x00	; 0
    51c6:	11 c0       	rjmp	.+34     	; 0x51ea <SD_init+0x76>
    51c8:	4a ea       	ldi	r20, 0xAA	; 170
    51ca:	51 e0       	ldi	r21, 0x01	; 1
    51cc:	60 e0       	ldi	r22, 0x00	; 0
    51ce:	70 e0       	ldi	r23, 0x00	; 0
    51d0:	88 e0       	ldi	r24, 0x08	; 8
    51d2:	76 df       	rcall	.-276    	; 0x50c0 <SD_sendCommand>
    51d4:	21 97       	sbiw	r28, 0x01	; 1
    51d6:	49 f4       	brne	.+18     	; 0x51ea <SD_init+0x76>
    51d8:	8d e0       	ldi	r24, 0x0D	; 13
    51da:	5b d3       	rcall	.+1718   	; 0x5892 <transmitByte>
    51dc:	8a e0       	ldi	r24, 0x0A	; 10
    51de:	59 d3       	rcall	.+1714   	; 0x5892 <transmitByte>
    51e0:	81 e0       	ldi	r24, 0x01	; 1
    51e2:	80 93 57 11 	sts	0x1157, r24	; 0x801157 <cardType>
    51e6:	01 e0       	ldi	r16, 0x01	; 1
    51e8:	03 c0       	rjmp	.+6      	; 0x51f0 <SD_init+0x7c>
    51ea:	81 30       	cpi	r24, 0x01	; 1
    51ec:	69 f7       	brne	.-38     	; 0x51c8 <SD_init+0x54>
    51ee:	02 e0       	ldi	r16, 0x02	; 2
    51f0:	40 e0       	ldi	r20, 0x00	; 0
    51f2:	50 e0       	ldi	r21, 0x00	; 0
    51f4:	ba 01       	movw	r22, r20
    51f6:	87 e3       	ldi	r24, 0x37	; 55
    51f8:	63 df       	rcall	.-314    	; 0x50c0 <SD_sendCommand>
    51fa:	40 e0       	ldi	r20, 0x00	; 0
    51fc:	50 e0       	ldi	r21, 0x00	; 0
    51fe:	60 e0       	ldi	r22, 0x00	; 0
    5200:	70 e4       	ldi	r23, 0x40	; 64
    5202:	89 e2       	ldi	r24, 0x29	; 41
    5204:	5d df       	rcall	.-326    	; 0x50c0 <SD_sendCommand>
    5206:	ce ef       	ldi	r28, 0xFE	; 254
    5208:	d0 e0       	ldi	r29, 0x00	; 0
    520a:	13 c0       	rjmp	.+38     	; 0x5232 <SD_init+0xbe>
    520c:	40 e0       	ldi	r20, 0x00	; 0
    520e:	50 e0       	ldi	r21, 0x00	; 0
    5210:	ba 01       	movw	r22, r20
    5212:	87 e3       	ldi	r24, 0x37	; 55
    5214:	55 df       	rcall	.-342    	; 0x50c0 <SD_sendCommand>
    5216:	40 e0       	ldi	r20, 0x00	; 0
    5218:	50 e0       	ldi	r21, 0x00	; 0
    521a:	60 e0       	ldi	r22, 0x00	; 0
    521c:	70 e4       	ldi	r23, 0x40	; 64
    521e:	89 e2       	ldi	r24, 0x29	; 41
    5220:	4f df       	rcall	.-354    	; 0x50c0 <SD_sendCommand>
    5222:	21 97       	sbiw	r28, 0x01	; 1
    5224:	31 f4       	brne	.+12     	; 0x5232 <SD_init+0xbe>
    5226:	8d e0       	ldi	r24, 0x0D	; 13
    5228:	34 d3       	rcall	.+1640   	; 0x5892 <transmitByte>
    522a:	8a e0       	ldi	r24, 0x0A	; 10
    522c:	32 d3       	rcall	.+1636   	; 0x5892 <transmitByte>
    522e:	12 e0       	ldi	r17, 0x02	; 2
    5230:	2d c0       	rjmp	.+90     	; 0x528c <SD_init+0x118>
    5232:	81 11       	cpse	r24, r1
    5234:	eb cf       	rjmp	.-42     	; 0x520c <SD_init+0x98>
    5236:	10 92 2c 0f 	sts	0x0F2C, r1	; 0x800f2c <SDHC_flag>
    523a:	02 30       	cpi	r16, 0x02	; 2
    523c:	39 f5       	brne	.+78     	; 0x528c <SD_init+0x118>
    523e:	1e c0       	rjmp	.+60     	; 0x527c <SD_init+0x108>
    5240:	40 e0       	ldi	r20, 0x00	; 0
    5242:	50 e0       	ldi	r21, 0x00	; 0
    5244:	ba 01       	movw	r22, r20
    5246:	8a e3       	ldi	r24, 0x3A	; 58
    5248:	3b df       	rcall	.-394    	; 0x50c0 <SD_sendCommand>
    524a:	21 97       	sbiw	r28, 0x01	; 1
    524c:	39 f4       	brne	.+14     	; 0x525c <SD_init+0xe8>
    524e:	8d e0       	ldi	r24, 0x0D	; 13
    5250:	20 d3       	rcall	.+1600   	; 0x5892 <transmitByte>
    5252:	8a e0       	ldi	r24, 0x0A	; 10
    5254:	1e d3       	rcall	.+1596   	; 0x5892 <transmitByte>
    5256:	10 92 57 11 	sts	0x1157, r1	; 0x801157 <cardType>
    525a:	02 c0       	rjmp	.+4      	; 0x5260 <SD_init+0xec>
    525c:	81 11       	cpse	r24, r1
    525e:	f0 cf       	rjmp	.-32     	; 0x5240 <SD_init+0xcc>
    5260:	80 91 2c 0f 	lds	r24, 0x0F2C	; 0x800f2c <SDHC_flag>
    5264:	81 30       	cpi	r24, 0x01	; 1
    5266:	21 f4       	brne	.+8      	; 0x5270 <SD_init+0xfc>
    5268:	82 e0       	ldi	r24, 0x02	; 2
    526a:	80 93 57 11 	sts	0x1157, r24	; 0x801157 <cardType>
    526e:	0e c0       	rjmp	.+28     	; 0x528c <SD_init+0x118>
    5270:	83 e0       	ldi	r24, 0x03	; 3
    5272:	80 93 57 11 	sts	0x1157, r24	; 0x801157 <cardType>
    5276:	0a c0       	rjmp	.+20     	; 0x528c <SD_init+0x118>
    5278:	11 e0       	ldi	r17, 0x01	; 1
    527a:	08 c0       	rjmp	.+16     	; 0x528c <SD_init+0x118>
    527c:	40 e0       	ldi	r20, 0x00	; 0
    527e:	50 e0       	ldi	r21, 0x00	; 0
    5280:	ba 01       	movw	r22, r20
    5282:	8a e3       	ldi	r24, 0x3A	; 58
    5284:	1d df       	rcall	.-454    	; 0x50c0 <SD_sendCommand>
    5286:	ce ef       	ldi	r28, 0xFE	; 254
    5288:	d0 e0       	ldi	r29, 0x00	; 0
    528a:	e8 cf       	rjmp	.-48     	; 0x525c <SD_init+0xe8>
    528c:	81 2f       	mov	r24, r17
    528e:	df 91       	pop	r29
    5290:	cf 91       	pop	r28
    5292:	1f 91       	pop	r17
    5294:	0f 91       	pop	r16
    5296:	08 95       	ret

00005298 <SD_readSingleBlock>:
//Arguments	: none
//return	: unsigned char; will be 0 if no error,
// 			  otherwise the response byte will be sent
//******************************************************************
unsigned char SD_readSingleBlock(unsigned long startBlock)
{
    5298:	cf 93       	push	r28
    529a:	df 93       	push	r29
    529c:	ab 01       	movw	r20, r22
    529e:	bc 01       	movw	r22, r24
unsigned char response;
unsigned int i, retry=0;

 response = SD_sendCommand(READ_SINGLE_BLOCK, startBlock); //read a Block command
    52a0:	81 e1       	ldi	r24, 0x11	; 17
    52a2:	0e df       	rcall	.-484    	; 0x50c0 <SD_sendCommand>
 
 if(response != 0x00) return response; //check for SD status: 0x00 - OK (No flags set)
    52a4:	81 11       	cpse	r24, r1
    52a6:	1d c0       	rjmp	.+58     	; 0x52e2 <SD_readSingleBlock+0x4a>

SD_CS_ASSERT;
    52a8:	a5 98       	cbi	0x14, 5	; 20

retry = 0;
while(spi_receive() != 0xfe) //wait for start block token 0xfe (0x11111110)
    52aa:	c0 e0       	ldi	r28, 0x00	; 0
    52ac:	d0 e0       	ldi	r29, 0x00	; 0
    52ae:	05 c0       	rjmp	.+10     	; 0x52ba <SD_readSingleBlock+0x22>
    52b0:	21 97       	sbiw	r28, 0x01	; 1
  if(retry++ > 0xfffe){SD_CS_DEASSERT; return 1;} //return if time-out
    52b2:	19 f4       	brne	.+6      	; 0x52ba <SD_readSingleBlock+0x22>
    52b4:	a5 9a       	sbi	0x14, 5	; 20
    52b6:	81 e0       	ldi	r24, 0x01	; 1
 if(response != 0x00) return response; //check for SD status: 0x00 - OK (No flags set)

SD_CS_ASSERT;

retry = 0;
while(spi_receive() != 0xfe) //wait for start block token 0xfe (0x11111110)
    52b8:	14 c0       	rjmp	.+40     	; 0x52e2 <SD_readSingleBlock+0x4a>
    52ba:	5d d0       	rcall	.+186    	; 0x5376 <spi_receive>
    52bc:	8e 3f       	cpi	r24, 0xFE	; 254
    52be:	c1 f7       	brne	.-16     	; 0x52b0 <SD_readSingleBlock+0x18>
    52c0:	c0 e0       	ldi	r28, 0x00	; 0
  if(retry++ > 0xfffe){SD_CS_DEASSERT; return 1;} //return if time-out

for(i=0; i<512; i++) //read 512 bytes
  buffer[i] = spi_receive();
    52c2:	d0 e0       	ldi	r29, 0x00	; 0
    52c4:	58 d0       	rcall	.+176    	; 0x5376 <spi_receive>
    52c6:	fe 01       	movw	r30, r28
    52c8:	ee 5d       	subi	r30, 0xDE	; 222
    52ca:	f3 4f       	sbci	r31, 0xF3	; 243
    52cc:	80 83       	st	Z, r24

retry = 0;
while(spi_receive() != 0xfe) //wait for start block token 0xfe (0x11111110)
  if(retry++ > 0xfffe){SD_CS_DEASSERT; return 1;} //return if time-out

for(i=0; i<512; i++) //read 512 bytes
    52ce:	21 96       	adiw	r28, 0x01	; 1
    52d0:	c1 15       	cp	r28, r1
    52d2:	82 e0       	ldi	r24, 0x02	; 2
  buffer[i] = spi_receive();

spi_receive(); //receive incoming CRC (16-bit), CRC is ignored here
    52d4:	d8 07       	cpc	r29, r24
    52d6:	b1 f7       	brne	.-20     	; 0x52c4 <SD_readSingleBlock+0x2c>
spi_receive();
    52d8:	4e d0       	rcall	.+156    	; 0x5376 <spi_receive>
    52da:	4d d0       	rcall	.+154    	; 0x5376 <spi_receive>

spi_receive(); //extra 8 clock pulses
    52dc:	4c d0       	rcall	.+152    	; 0x5376 <spi_receive>
    52de:	a5 9a       	sbi	0x14, 5	; 20
SD_CS_DEASSERT;
    52e0:	80 e0       	ldi	r24, 0x00	; 0

return 0;
    52e2:	df 91       	pop	r29
}
    52e4:	cf 91       	pop	r28
    52e6:	08 95       	ret

000052e8 <SD_writeSingleBlock>:
    52e8:	cf 93       	push	r28
//Arguments	: none
//return	: unsigned char; will be 0 if no error,
// 			  otherwise the response byte will be sent
//******************************************************************
unsigned char SD_writeSingleBlock(unsigned long startBlock)
{
    52ea:	df 93       	push	r29
    52ec:	ab 01       	movw	r20, r22
    52ee:	bc 01       	movw	r22, r24
unsigned char response;
unsigned int i, retry=0;

 response = SD_sendCommand(WRITE_SINGLE_BLOCK, startBlock); //write a Block command
    52f0:	88 e1       	ldi	r24, 0x18	; 24
    52f2:	e6 de       	rcall	.-564    	; 0x50c0 <SD_sendCommand>
  
 if(response != 0x00) return response; //check for SD status: 0x00 - OK (No flags set)
    52f4:	81 11       	cpse	r24, r1
    52f6:	36 c0       	rjmp	.+108    	; 0x5364 <SD_writeSingleBlock+0x7c>

SD_CS_ASSERT;
    52f8:	a5 98       	cbi	0x14, 5	; 20

spi_transmit(0xfe);     //Send start block token 0xfe (0x11111110)
    52fa:	8e ef       	ldi	r24, 0xFE	; 254
    52fc:	36 d0       	rcall	.+108    	; 0x536a <spi_transmit>

for(i=0; i<512; i++)    //send 512 bytes data
    52fe:	c0 e0       	ldi	r28, 0x00	; 0
    5300:	d0 e0       	ldi	r29, 0x00	; 0
  spi_transmit(buffer[i]);
    5302:	fe 01       	movw	r30, r28
    5304:	ee 5d       	subi	r30, 0xDE	; 222
    5306:	f3 4f       	sbci	r31, 0xF3	; 243
    5308:	80 81       	ld	r24, Z
    530a:	2f d0       	rcall	.+94     	; 0x536a <spi_transmit>

SD_CS_ASSERT;

spi_transmit(0xfe);     //Send start block token 0xfe (0x11111110)

for(i=0; i<512; i++)    //send 512 bytes data
    530c:	21 96       	adiw	r28, 0x01	; 1
    530e:	c1 15       	cp	r28, r1
    5310:	22 e0       	ldi	r18, 0x02	; 2
    5312:	d2 07       	cpc	r29, r18
  spi_transmit(buffer[i]);

spi_transmit(0xff);     //transmit dummy CRC (16-bit), CRC is ignored here
    5314:	b1 f7       	brne	.-20     	; 0x5302 <SD_writeSingleBlock+0x1a>
spi_transmit(0xff);
    5316:	8f ef       	ldi	r24, 0xFF	; 255
    5318:	28 d0       	rcall	.+80     	; 0x536a <spi_transmit>
    531a:	8f ef       	ldi	r24, 0xFF	; 255

response = spi_receive();
    531c:	26 d0       	rcall	.+76     	; 0x536a <spi_transmit>
    531e:	2b d0       	rcall	.+86     	; 0x5376 <spi_receive>

if( (response & 0x1f) != 0x05) //response= 0xXXX0AAA1 ; AAA='010' - data accepted
    5320:	98 2f       	mov	r25, r24
    5322:	9f 71       	andi	r25, 0x1F	; 31
    5324:	95 30       	cpi	r25, 0x05	; 5
    5326:	39 f0       	breq	.+14     	; 0x5336 <SD_writeSingleBlock+0x4e>
{                              //AAA='101'-data rejected due to CRC error
  SD_CS_DEASSERT;              //AAA='110'-data rejected due to write error
    5328:	a5 9a       	sbi	0x14, 5	; 20
  return response;
    532a:	1c c0       	rjmp	.+56     	; 0x5364 <SD_writeSingleBlock+0x7c>
}

while(!spi_receive()) //wait for SD card to complete writing and get idle
if(retry++ > 0xfffe){SD_CS_DEASSERT; return 1;}
    532c:	21 96       	adiw	r28, 0x01	; 1
    532e:	29 f4       	brne	.+10     	; 0x533a <SD_writeSingleBlock+0x52>
    5330:	a5 9a       	sbi	0x14, 5	; 20
    5332:	81 e0       	ldi	r24, 0x01	; 1
    5334:	17 c0       	rjmp	.+46     	; 0x5364 <SD_writeSingleBlock+0x7c>
{                              //AAA='101'-data rejected due to CRC error
  SD_CS_DEASSERT;              //AAA='110'-data rejected due to write error
  return response;
}

while(!spi_receive()) //wait for SD card to complete writing and get idle
    5336:	c0 e0       	ldi	r28, 0x00	; 0
    5338:	d0 e0       	ldi	r29, 0x00	; 0
    533a:	1d d0       	rcall	.+58     	; 0x5376 <spi_receive>
    533c:	88 23       	and	r24, r24
if(retry++ > 0xfffe){SD_CS_DEASSERT; return 1;}

SD_CS_DEASSERT;
    533e:	b1 f3       	breq	.-20     	; 0x532c <SD_writeSingleBlock+0x44>
spi_transmit(0xff);   //just spend 8 clock cycle delay before reasserting the CS line
    5340:	a5 9a       	sbi	0x14, 5	; 20
    5342:	8f ef       	ldi	r24, 0xFF	; 255
    5344:	12 d0       	rcall	.+36     	; 0x536a <spi_transmit>
SD_CS_ASSERT;         //re-asserting the CS line to verify if card is still busy
    5346:	a5 98       	cbi	0x14, 5	; 20

while(!spi_receive()) //wait for SD card to complete writing and get idle
    5348:	08 c0       	rjmp	.+16     	; 0x535a <SD_writeSingleBlock+0x72>
   if(retry++ > 0xfffe){SD_CS_DEASSERT; return 1;}
    534a:	ce 01       	movw	r24, r28
    534c:	01 96       	adiw	r24, 0x01	; 1
    534e:	21 96       	adiw	r28, 0x01	; 1
    5350:	19 f4       	brne	.+6      	; 0x5358 <SD_writeSingleBlock+0x70>
    5352:	a5 9a       	sbi	0x14, 5	; 20
    5354:	81 e0       	ldi	r24, 0x01	; 1
    5356:	06 c0       	rjmp	.+12     	; 0x5364 <SD_writeSingleBlock+0x7c>

SD_CS_DEASSERT;
spi_transmit(0xff);   //just spend 8 clock cycle delay before reasserting the CS line
SD_CS_ASSERT;         //re-asserting the CS line to verify if card is still busy

while(!spi_receive()) //wait for SD card to complete writing and get idle
    5358:	ec 01       	movw	r28, r24
    535a:	0d d0       	rcall	.+26     	; 0x5376 <spi_receive>
    535c:	88 23       	and	r24, r24
    535e:	a9 f3       	breq	.-22     	; 0x534a <SD_writeSingleBlock+0x62>
   if(retry++ > 0xfffe){SD_CS_DEASSERT; return 1;}
SD_CS_DEASSERT;
    5360:	a5 9a       	sbi	0x14, 5	; 20

return 0;
    5362:	80 e0       	ldi	r24, 0x00	; 0
}
    5364:	df 91       	pop	r29
    5366:	cf 91       	pop	r28
    5368:	08 95       	ret

0000536a <spi_transmit>:
	}
}

uint8_t spi_transmit(uint8_t data)
{
	SPDR = data;
    536a:	8e bd       	out	0x2e, r24	; 46
	while(!(SPSR & (1<<SPIF)));
    536c:	0d b4       	in	r0, 0x2d	; 45
    536e:	07 fe       	sbrs	r0, 7
    5370:	fd cf       	rjmp	.-6      	; 0x536c <spi_transmit+0x2>
	return SPDR;
    5372:	8e b5       	in	r24, 0x2e	; 46
}
    5374:	08 95       	ret

00005376 <spi_receive>:
unsigned char spi_receive(void)
{
	unsigned char data;
	// Wait for reception complete

	SPDR = 0xff;
    5376:	8f ef       	ldi	r24, 0xFF	; 255
    5378:	8e bd       	out	0x2e, r24	; 46
	while(!(SPSR & (1<<SPIF)));
    537a:	0d b4       	in	r0, 0x2d	; 45
    537c:	07 fe       	sbrs	r0, 7
    537e:	fd cf       	rjmp	.-6      	; 0x537a <spi_receive+0x4>
	data = SPDR;
    5380:	8e b5       	in	r24, 0x2e	; 46

	// Return data register
	return data;
}
    5382:	08 95       	ret

00005384 <enable_Slave>:

void enable_Slave(uint8_t Slave)
{
	switch (Slave)
    5384:	81 30       	cpi	r24, 0x01	; 1
    5386:	41 f0       	breq	.+16     	; 0x5398 <enable_Slave+0x14>
    5388:	28 f0       	brcs	.+10     	; 0x5394 <enable_Slave+0x10>
    538a:	82 30       	cpi	r24, 0x02	; 2
    538c:	59 f0       	breq	.+22     	; 0x53a4 <enable_Slave+0x20>
    538e:	83 30       	cpi	r24, 0x03	; 3
    5390:	59 f0       	breq	.+22     	; 0x53a8 <enable_Slave+0x24>
    5392:	08 95       	ret
	{
		case TMC4671:
		SPI_CS_TMC4671_PORT &= ~SPI_CS_TMC4671_BIT;
    5394:	28 98       	cbi	0x05, 0	; 5
		break;
    5396:	08 95       	ret
		
		case TMC6200:
		SPI_CS_TMC6200_PORT &= ~SPI_CS_TMC6200_BIT;
    5398:	e2 e0       	ldi	r30, 0x02	; 2
    539a:	f1 e0       	ldi	r31, 0x01	; 1
    539c:	80 81       	ld	r24, Z
    539e:	8f 7b       	andi	r24, 0xBF	; 191
    53a0:	80 83       	st	Z, r24
		break;
    53a2:	08 95       	ret
		
		case MFRC522:
		SPI_CS_RC522_PORT &= ~SPI_CS_RC522_BIT;
    53a4:	40 98       	cbi	0x08, 0	; 8
		break;
    53a6:	08 95       	ret
		
		case SDCARD:
		SPI_CS_SD_CARD_PORT &= ~SPI_CS_SD_CARD_BIT;
    53a8:	a5 98       	cbi	0x14, 5	; 20
    53aa:	08 95       	ret

000053ac <disable_Slave>:
	}
}

void disable_Slave(uint8_t Slave)
{
	switch (Slave)
    53ac:	81 30       	cpi	r24, 0x01	; 1
    53ae:	41 f0       	breq	.+16     	; 0x53c0 <disable_Slave+0x14>
    53b0:	28 f0       	brcs	.+10     	; 0x53bc <disable_Slave+0x10>
    53b2:	82 30       	cpi	r24, 0x02	; 2
    53b4:	59 f0       	breq	.+22     	; 0x53cc <disable_Slave+0x20>
    53b6:	83 30       	cpi	r24, 0x03	; 3
    53b8:	59 f0       	breq	.+22     	; 0x53d0 <disable_Slave+0x24>
    53ba:	08 95       	ret
	{
		case TMC4671:
		SPI_CS_TMC4671_PORT |= SPI_CS_TMC4671_BIT;
    53bc:	28 9a       	sbi	0x05, 0	; 5
		break;
    53be:	08 95       	ret
		
		case TMC6200:
		SPI_CS_TMC6200_PORT |= SPI_CS_TMC6200_BIT;
    53c0:	e2 e0       	ldi	r30, 0x02	; 2
    53c2:	f1 e0       	ldi	r31, 0x01	; 1
    53c4:	80 81       	ld	r24, Z
    53c6:	80 64       	ori	r24, 0x40	; 64
    53c8:	80 83       	st	Z, r24
		break;
    53ca:	08 95       	ret
		
		case MFRC522:
		SPI_CS_RC522_PORT |= SPI_CS_RC522_BIT;
    53cc:	40 9a       	sbi	0x08, 0	; 8
		break;
    53ce:	08 95       	ret
		
		case SDCARD:
		SPI_CS_SD_CARD_PORT |= SPI_CS_SD_CARD_BIT;
    53d0:	a5 9a       	sbi	0x14, 5	; 20
    53d2:	08 95       	ret

000053d4 <SPI_init>:

void SPI_init(void)
{
	// Einstellungen fr TMC4671: CLK = 1MHz, SPI-Mode = 3, MSB first)

	SPCR = ((1<<SPE)|       // SPI Enable					(1 = Enable, 0 = Disable)					Datasheet S. 197 (Kapitel 21.2.1)
    53d4:	83 e5       	ldi	r24, 0x53	; 83
    53d6:	8c bd       	out	0x2c, r24	; 44
	(1<<MSTR)|              // Master/Slave select			(0 = Slave, 1 = Master)						Datasheet S. 197 (Kapitel 21.2.1)
	(1<<SPR1)|(1<<SPR0)|    // SPI Clock Rate				(Divider Systemclock 16MHz)					Datasheet S. 198 (Kapitel 21.2.1)
	(0<<CPOL)|              // Clock Polarity when idle		(0 = low, 1 = SCK high)						Datasheet S. 197 (Kapitel 21.2.1)
	(0<<CPHA));             // Clock Phase edge sampling	(0 = leading, 1 = trailing edge sampling)	Datasheet S. 197 (Kapitel 21.2.1)

	SPSR = (0<<SPI2X);      // Double Clock Rate			(0 = Disable, 1 = Enable)					Datasheet S. 198 (Kapitel 21.2.1)
    53d8:	1d bc       	out	0x2d, r1	; 45

	disable_Slave(TMC4671);
    53da:	80 e0       	ldi	r24, 0x00	; 0
    53dc:	e7 df       	rcall	.-50     	; 0x53ac <disable_Slave>
	disable_Slave(TMC6200);
    53de:	81 e0       	ldi	r24, 0x01	; 1
    53e0:	e5 df       	rcall	.-54     	; 0x53ac <disable_Slave>
	disable_Slave(MFRC522);
    53e2:	82 e0       	ldi	r24, 0x02	; 2
    53e4:	e3 cf       	rjmp	.-58     	; 0x53ac <disable_Slave>
    53e6:	08 95       	ret

000053e8 <tx_completed>:
    53e8:	00 00       	nop
	while(RB_length(&rb_rx_PC)==0); 	// Wait for incomming data
	
	data = RB_readByte(&rb_rx_PC);
	
	return(data);
}
    53ea:	00 00       	nop
    53ec:	08 95       	ret

000053ee <UART_init>:
    53ee:	cf 92       	push	r12
    53f0:	df 92       	push	r13
    53f2:	ef 92       	push	r14
    53f4:	ff 92       	push	r15
    53f6:	0f 93       	push	r16
    53f8:	1f 93       	push	r17
    53fa:	cf 93       	push	r28
    53fc:	df 93       	push	r29
    53fe:	10 92 c5 00 	sts	0x00C5, r1	; 0x8000c5 <__TEXT_REGION_LENGTH__+0x7000c5>
    5402:	27 e6       	ldi	r18, 0x67	; 103
    5404:	20 93 c4 00 	sts	0x00C4, r18	; 0x8000c4 <__TEXT_REGION_LENGTH__+0x7000c4>
    5408:	c1 ec       	ldi	r28, 0xC1	; 193
    540a:	d0 e0       	ldi	r29, 0x00	; 0
    540c:	88 e1       	ldi	r24, 0x18	; 24
    540e:	88 83       	st	Y, r24
    5410:	98 e9       	ldi	r25, 0x98	; 152
    5412:	98 83       	st	Y, r25
    5414:	86 e0       	ldi	r24, 0x06	; 6
    5416:	80 93 c2 00 	sts	0x00C2, r24	; 0x8000c2 <__TEXT_REGION_LENGTH__+0x7000c2>
    541a:	10 92 cd 00 	sts	0x00CD, r1	; 0x8000cd <__TEXT_REGION_LENGTH__+0x7000cd>
    541e:	20 93 cc 00 	sts	0x00CC, r18	; 0x8000cc <__TEXT_REGION_LENGTH__+0x7000cc>
    5422:	0f 2e       	mov	r0, r31
    5424:	f9 ec       	ldi	r31, 0xC9	; 201
    5426:	cf 2e       	mov	r12, r31
    5428:	d1 2c       	mov	r13, r1
    542a:	f0 2d       	mov	r31, r0
    542c:	f6 01       	movw	r30, r12
    542e:	90 83       	st	Z, r25
    5430:	80 93 ca 00 	sts	0x00CA, r24	; 0x8000ca <__TEXT_REGION_LENGTH__+0x7000ca>
    5434:	10 92 d5 00 	sts	0x00D5, r1	; 0x8000d5 <__TEXT_REGION_LENGTH__+0x7000d5>
    5438:	20 93 d4 00 	sts	0x00D4, r18	; 0x8000d4 <__TEXT_REGION_LENGTH__+0x7000d4>
    543c:	0f 2e       	mov	r0, r31
    543e:	f1 ed       	ldi	r31, 0xD1	; 209
    5440:	ef 2e       	mov	r14, r31
    5442:	f1 2c       	mov	r15, r1
    5444:	f0 2d       	mov	r31, r0
    5446:	f7 01       	movw	r30, r14
    5448:	90 83       	st	Z, r25
    544a:	80 93 d2 00 	sts	0x00D2, r24	; 0x8000d2 <__TEXT_REGION_LENGTH__+0x7000d2>
    544e:	10 92 35 01 	sts	0x0135, r1	; 0x800135 <__TEXT_REGION_LENGTH__+0x700135>
    5452:	20 93 34 01 	sts	0x0134, r18	; 0x800134 <__TEXT_REGION_LENGTH__+0x700134>
    5456:	01 e3       	ldi	r16, 0x31	; 49
    5458:	11 e0       	ldi	r17, 0x01	; 1
    545a:	f8 01       	movw	r30, r16
    545c:	90 83       	st	Z, r25
    545e:	80 93 32 01 	sts	0x0132, r24	; 0x800132 <__TEXT_REGION_LENGTH__+0x700132>
    5462:	8b ed       	ldi	r24, 0xDB	; 219
    5464:	97 e0       	ldi	r25, 0x07	; 7
    5466:	0e 94 32 1d 	call	0x3a64	; 0x3a64 <RB_init>
    546a:	8e e4       	ldi	r24, 0x4E	; 78
    546c:	9f e0       	ldi	r25, 0x0F	; 15
    546e:	0e 94 32 1d 	call	0x3a64	; 0x3a64 <RB_init>
    5472:	82 ee       	ldi	r24, 0xE2	; 226
    5474:	98 e0       	ldi	r25, 0x08	; 8
    5476:	0e 94 32 1d 	call	0x3a64	; 0x3a64 <RB_init>
    547a:	81 e2       	ldi	r24, 0x21	; 33
    547c:	9b e0       	ldi	r25, 0x0B	; 11
    547e:	0e 94 32 1d 	call	0x3a64	; 0x3a64 <RB_init>
    5482:	8f e4       	ldi	r24, 0x4F	; 79
    5484:	90 e1       	ldi	r25, 0x10	; 16
    5486:	0e 94 32 1d 	call	0x3a64	; 0x3a64 <RB_init>
    548a:	8a e1       	ldi	r24, 0x1A	; 26
    548c:	9a e0       	ldi	r25, 0x0A	; 10
    548e:	0e 94 32 1d 	call	0x3a64	; 0x3a64 <RB_init>
    5492:	88 81       	ld	r24, Y
    5494:	80 68       	ori	r24, 0x80	; 128
    5496:	88 83       	st	Y, r24
    5498:	f6 01       	movw	r30, r12
    549a:	80 81       	ld	r24, Z
    549c:	80 68       	ori	r24, 0x80	; 128
    549e:	80 83       	st	Z, r24
    54a0:	f7 01       	movw	r30, r14
    54a2:	80 81       	ld	r24, Z
    54a4:	80 68       	ori	r24, 0x80	; 128
    54a6:	80 83       	st	Z, r24
    54a8:	f8 01       	movw	r30, r16
    54aa:	80 81       	ld	r24, Z
    54ac:	80 68       	ori	r24, 0x80	; 128
    54ae:	80 83       	st	Z, r24
    54b0:	78 94       	sei
    54b2:	84 ef       	ldi	r24, 0xF4	; 244
    54b4:	99 e2       	ldi	r25, 0x29	; 41
    54b6:	90 93 75 12 	sts	0x1275, r25	; 0x801275 <ptr_tx_completed_0+0x1>
    54ba:	80 93 74 12 	sts	0x1274, r24	; 0x801274 <ptr_tx_completed_0>
    54be:	90 93 6f 12 	sts	0x126F, r25	; 0x80126f <ptr_tx_completed_1+0x1>
    54c2:	80 93 6e 12 	sts	0x126E, r24	; 0x80126e <ptr_tx_completed_1>
    54c6:	90 93 71 12 	sts	0x1271, r25	; 0x801271 <ptr_tx_completed_2+0x1>
    54ca:	80 93 70 12 	sts	0x1270, r24	; 0x801270 <ptr_tx_completed_2>
    54ce:	90 93 73 12 	sts	0x1273, r25	; 0x801273 <ptr_tx_completed_3+0x1>
    54d2:	80 93 72 12 	sts	0x1272, r24	; 0x801272 <ptr_tx_completed_3>
    54d6:	df 91       	pop	r29
    54d8:	cf 91       	pop	r28
    54da:	1f 91       	pop	r17
    54dc:	0f 91       	pop	r16
    54de:	ff 90       	pop	r15
    54e0:	ef 90       	pop	r14
    54e2:	df 90       	pop	r13
    54e4:	cf 90       	pop	r12
    54e6:	08 95       	ret

000054e8 <Uart_Transmit_IT_PC>:
    54e8:	fc 01       	movw	r30, r24
    54ea:	01 90       	ld	r0, Z+
    54ec:	00 20       	and	r0, r0
    54ee:	e9 f7       	brne	.-6      	; 0x54ea <Uart_Transmit_IT_PC+0x2>
    54f0:	31 97       	sbiw	r30, 0x01	; 1
    54f2:	af 01       	movw	r20, r30
    54f4:	48 1b       	sub	r20, r24
    54f6:	59 0b       	sbc	r21, r25
    54f8:	bc 01       	movw	r22, r24
    54fa:	8b ed       	ldi	r24, 0xDB	; 219
    54fc:	97 e0       	ldi	r25, 0x07	; 7
    54fe:	0e 94 7e 1d 	call	0x3afc	; 0x3afc <RB_write>
    5502:	e1 ec       	ldi	r30, 0xC1	; 193
    5504:	f0 e0       	ldi	r31, 0x00	; 0
    5506:	80 81       	ld	r24, Z
    5508:	80 62       	ori	r24, 0x20	; 32
    550a:	80 83       	st	Z, r24
    550c:	08 95       	ret

0000550e <Uart_Transmit_IT_Display>:
    550e:	cf 93       	push	r28
    5510:	df 93       	push	r29
    5512:	fc 01       	movw	r30, r24
    5514:	20 81       	ld	r18, Z
    5516:	22 23       	and	r18, r18
    5518:	69 f0       	breq	.+26     	; 0x5534 <Uart_Transmit_IT_Display+0x26>
    551a:	dc 01       	movw	r26, r24
    551c:	11 96       	adiw	r26, 0x01	; 1
    551e:	e8 ec       	ldi	r30, 0xC8	; 200
    5520:	f0 e0       	ldi	r31, 0x00	; 0
    5522:	ce ec       	ldi	r28, 0xCE	; 206
    5524:	d0 e0       	ldi	r29, 0x00	; 0
    5526:	90 81       	ld	r25, Z
    5528:	95 ff       	sbrs	r25, 5
    552a:	fd cf       	rjmp	.-6      	; 0x5526 <Uart_Transmit_IT_Display+0x18>
    552c:	28 83       	st	Y, r18
    552e:	2d 91       	ld	r18, X+
    5530:	21 11       	cpse	r18, r1
    5532:	f9 cf       	rjmp	.-14     	; 0x5526 <Uart_Transmit_IT_Display+0x18>
    5534:	df 91       	pop	r29
    5536:	cf 91       	pop	r28
    5538:	08 95       	ret

0000553a <__vector_26>:
    553a:	1f 92       	push	r1
    553c:	0f 92       	push	r0
    553e:	0f b6       	in	r0, 0x3f	; 63
    5540:	0f 92       	push	r0
    5542:	11 24       	eor	r1, r1
    5544:	0b b6       	in	r0, 0x3b	; 59
    5546:	0f 92       	push	r0
    5548:	2f 93       	push	r18
    554a:	3f 93       	push	r19
    554c:	4f 93       	push	r20
    554e:	5f 93       	push	r21
    5550:	6f 93       	push	r22
    5552:	7f 93       	push	r23
    5554:	8f 93       	push	r24
    5556:	9f 93       	push	r25
    5558:	af 93       	push	r26
    555a:	bf 93       	push	r27
    555c:	ef 93       	push	r30
    555e:	ff 93       	push	r31
    5560:	8b ed       	ldi	r24, 0xDB	; 219
    5562:	97 e0       	ldi	r25, 0x07	; 7
    5564:	0e 94 41 1d 	call	0x3a82	; 0x3a82 <RB_length>
    5568:	88 23       	and	r24, r24
    556a:	39 f0       	breq	.+14     	; 0x557a <__vector_26+0x40>
    556c:	8b ed       	ldi	r24, 0xDB	; 219
    556e:	97 e0       	ldi	r25, 0x07	; 7
    5570:	0e 94 4d 1d 	call	0x3a9a	; 0x3a9a <RB_readByte>
    5574:	80 93 c6 00 	sts	0x00C6, r24	; 0x8000c6 <__TEXT_REGION_LENGTH__+0x7000c6>
    5578:	0c c0       	rjmp	.+24     	; 0x5592 <__vector_26+0x58>
    557a:	e1 ec       	ldi	r30, 0xC1	; 193
    557c:	f0 e0       	ldi	r31, 0x00	; 0
    557e:	80 81       	ld	r24, Z
    5580:	8f 7d       	andi	r24, 0xDF	; 223
    5582:	80 83       	st	Z, r24
    5584:	e0 91 74 12 	lds	r30, 0x1274	; 0x801274 <ptr_tx_completed_0>
    5588:	f0 91 75 12 	lds	r31, 0x1275	; 0x801275 <ptr_tx_completed_0+0x1>
    558c:	30 97       	sbiw	r30, 0x00	; 0
    558e:	09 f0       	breq	.+2      	; 0x5592 <__vector_26+0x58>
    5590:	19 95       	eicall
    5592:	ff 91       	pop	r31
    5594:	ef 91       	pop	r30
    5596:	bf 91       	pop	r27
    5598:	af 91       	pop	r26
    559a:	9f 91       	pop	r25
    559c:	8f 91       	pop	r24
    559e:	7f 91       	pop	r23
    55a0:	6f 91       	pop	r22
    55a2:	5f 91       	pop	r21
    55a4:	4f 91       	pop	r20
    55a6:	3f 91       	pop	r19
    55a8:	2f 91       	pop	r18
    55aa:	0f 90       	pop	r0
    55ac:	0b be       	out	0x3b, r0	; 59
    55ae:	0f 90       	pop	r0
    55b0:	0f be       	out	0x3f, r0	; 63
    55b2:	0f 90       	pop	r0
    55b4:	1f 90       	pop	r1
    55b6:	18 95       	reti

000055b8 <__vector_25>:
    55b8:	1f 92       	push	r1
    55ba:	0f 92       	push	r0
    55bc:	0f b6       	in	r0, 0x3f	; 63
    55be:	0f 92       	push	r0
    55c0:	11 24       	eor	r1, r1
    55c2:	0b b6       	in	r0, 0x3b	; 59
    55c4:	0f 92       	push	r0
    55c6:	2f 93       	push	r18
    55c8:	3f 93       	push	r19
    55ca:	4f 93       	push	r20
    55cc:	5f 93       	push	r21
    55ce:	6f 93       	push	r22
    55d0:	7f 93       	push	r23
    55d2:	8f 93       	push	r24
    55d4:	9f 93       	push	r25
    55d6:	af 93       	push	r26
    55d8:	bf 93       	push	r27
    55da:	ef 93       	push	r30
    55dc:	ff 93       	push	r31
    55de:	60 91 c6 00 	lds	r22, 0x00C6	; 0x8000c6 <__TEXT_REGION_LENGTH__+0x7000c6>
    55e2:	8e e4       	ldi	r24, 0x4E	; 78
    55e4:	9f e0       	ldi	r25, 0x0F	; 15
    55e6:	0e 94 61 1d 	call	0x3ac2	; 0x3ac2 <RB_writeByte>
    55ea:	ff 91       	pop	r31
    55ec:	ef 91       	pop	r30
    55ee:	bf 91       	pop	r27
    55f0:	af 91       	pop	r26
    55f2:	9f 91       	pop	r25
    55f4:	8f 91       	pop	r24
    55f6:	7f 91       	pop	r23
    55f8:	6f 91       	pop	r22
    55fa:	5f 91       	pop	r21
    55fc:	4f 91       	pop	r20
    55fe:	3f 91       	pop	r19
    5600:	2f 91       	pop	r18
    5602:	0f 90       	pop	r0
    5604:	0b be       	out	0x3b, r0	; 59
    5606:	0f 90       	pop	r0
    5608:	0f be       	out	0x3f, r0	; 63
    560a:	0f 90       	pop	r0
    560c:	1f 90       	pop	r1
    560e:	18 95       	reti

00005610 <__vector_37>:
    5610:	1f 92       	push	r1
    5612:	0f 92       	push	r0
    5614:	0f b6       	in	r0, 0x3f	; 63
    5616:	0f 92       	push	r0
    5618:	11 24       	eor	r1, r1
    561a:	0b b6       	in	r0, 0x3b	; 59
    561c:	0f 92       	push	r0
    561e:	2f 93       	push	r18
    5620:	3f 93       	push	r19
    5622:	4f 93       	push	r20
    5624:	5f 93       	push	r21
    5626:	6f 93       	push	r22
    5628:	7f 93       	push	r23
    562a:	8f 93       	push	r24
    562c:	9f 93       	push	r25
    562e:	af 93       	push	r26
    5630:	bf 93       	push	r27
    5632:	ef 93       	push	r30
    5634:	ff 93       	push	r31
    5636:	82 ee       	ldi	r24, 0xE2	; 226
    5638:	98 e0       	ldi	r25, 0x08	; 8
    563a:	0e 94 41 1d 	call	0x3a82	; 0x3a82 <RB_length>
    563e:	88 23       	and	r24, r24
    5640:	39 f0       	breq	.+14     	; 0x5650 <__vector_37+0x40>
    5642:	82 ee       	ldi	r24, 0xE2	; 226
    5644:	98 e0       	ldi	r25, 0x08	; 8
    5646:	0e 94 4d 1d 	call	0x3a9a	; 0x3a9a <RB_readByte>
    564a:	80 93 ce 00 	sts	0x00CE, r24	; 0x8000ce <__TEXT_REGION_LENGTH__+0x7000ce>
    564e:	0c c0       	rjmp	.+24     	; 0x5668 <__vector_37+0x58>
    5650:	e9 ec       	ldi	r30, 0xC9	; 201
    5652:	f0 e0       	ldi	r31, 0x00	; 0
    5654:	80 81       	ld	r24, Z
    5656:	8f 7d       	andi	r24, 0xDF	; 223
    5658:	80 83       	st	Z, r24
    565a:	e0 91 6e 12 	lds	r30, 0x126E	; 0x80126e <ptr_tx_completed_1>
    565e:	f0 91 6f 12 	lds	r31, 0x126F	; 0x80126f <ptr_tx_completed_1+0x1>
    5662:	30 97       	sbiw	r30, 0x00	; 0
    5664:	09 f0       	breq	.+2      	; 0x5668 <__vector_37+0x58>
    5666:	19 95       	eicall
    5668:	ff 91       	pop	r31
    566a:	ef 91       	pop	r30
    566c:	bf 91       	pop	r27
    566e:	af 91       	pop	r26
    5670:	9f 91       	pop	r25
    5672:	8f 91       	pop	r24
    5674:	7f 91       	pop	r23
    5676:	6f 91       	pop	r22
    5678:	5f 91       	pop	r21
    567a:	4f 91       	pop	r20
    567c:	3f 91       	pop	r19
    567e:	2f 91       	pop	r18
    5680:	0f 90       	pop	r0
    5682:	0b be       	out	0x3b, r0	; 59
    5684:	0f 90       	pop	r0
    5686:	0f be       	out	0x3f, r0	; 63
    5688:	0f 90       	pop	r0
    568a:	1f 90       	pop	r1
    568c:	18 95       	reti

0000568e <__vector_36>:
    568e:	1f 92       	push	r1
    5690:	0f 92       	push	r0
    5692:	0f b6       	in	r0, 0x3f	; 63
    5694:	0f 92       	push	r0
    5696:	11 24       	eor	r1, r1
    5698:	0b b6       	in	r0, 0x3b	; 59
    569a:	0f 92       	push	r0
    569c:	2f 93       	push	r18
    569e:	3f 93       	push	r19
    56a0:	4f 93       	push	r20
    56a2:	5f 93       	push	r21
    56a4:	6f 93       	push	r22
    56a6:	7f 93       	push	r23
    56a8:	8f 93       	push	r24
    56aa:	9f 93       	push	r25
    56ac:	af 93       	push	r26
    56ae:	bf 93       	push	r27
    56b0:	ef 93       	push	r30
    56b2:	ff 93       	push	r31
    56b4:	60 91 ce 00 	lds	r22, 0x00CE	; 0x8000ce <__TEXT_REGION_LENGTH__+0x7000ce>
    56b8:	81 e2       	ldi	r24, 0x21	; 33
    56ba:	9b e0       	ldi	r25, 0x0B	; 11
    56bc:	0e 94 61 1d 	call	0x3ac2	; 0x3ac2 <RB_writeByte>
    56c0:	ff 91       	pop	r31
    56c2:	ef 91       	pop	r30
    56c4:	bf 91       	pop	r27
    56c6:	af 91       	pop	r26
    56c8:	9f 91       	pop	r25
    56ca:	8f 91       	pop	r24
    56cc:	7f 91       	pop	r23
    56ce:	6f 91       	pop	r22
    56d0:	5f 91       	pop	r21
    56d2:	4f 91       	pop	r20
    56d4:	3f 91       	pop	r19
    56d6:	2f 91       	pop	r18
    56d8:	0f 90       	pop	r0
    56da:	0b be       	out	0x3b, r0	; 59
    56dc:	0f 90       	pop	r0
    56de:	0f be       	out	0x3f, r0	; 63
    56e0:	0f 90       	pop	r0
    56e2:	1f 90       	pop	r1
    56e4:	18 95       	reti

000056e6 <__vector_52>:
    56e6:	1f 92       	push	r1
    56e8:	0f 92       	push	r0
    56ea:	0f b6       	in	r0, 0x3f	; 63
    56ec:	0f 92       	push	r0
    56ee:	11 24       	eor	r1, r1
    56f0:	0b b6       	in	r0, 0x3b	; 59
    56f2:	0f 92       	push	r0
    56f4:	2f 93       	push	r18
    56f6:	3f 93       	push	r19
    56f8:	4f 93       	push	r20
    56fa:	5f 93       	push	r21
    56fc:	6f 93       	push	r22
    56fe:	7f 93       	push	r23
    5700:	8f 93       	push	r24
    5702:	9f 93       	push	r25
    5704:	af 93       	push	r26
    5706:	bf 93       	push	r27
    5708:	ef 93       	push	r30
    570a:	ff 93       	push	r31
    570c:	8f e4       	ldi	r24, 0x4F	; 79
    570e:	90 e1       	ldi	r25, 0x10	; 16
    5710:	0e 94 41 1d 	call	0x3a82	; 0x3a82 <RB_length>
    5714:	88 23       	and	r24, r24
    5716:	39 f0       	breq	.+14     	; 0x5726 <__vector_52+0x40>
    5718:	8f e4       	ldi	r24, 0x4F	; 79
    571a:	90 e1       	ldi	r25, 0x10	; 16
    571c:	0e 94 4d 1d 	call	0x3a9a	; 0x3a9a <RB_readByte>
    5720:	80 93 d6 00 	sts	0x00D6, r24	; 0x8000d6 <__TEXT_REGION_LENGTH__+0x7000d6>
    5724:	0c c0       	rjmp	.+24     	; 0x573e <__vector_52+0x58>
    5726:	e1 ed       	ldi	r30, 0xD1	; 209
    5728:	f0 e0       	ldi	r31, 0x00	; 0
    572a:	80 81       	ld	r24, Z
    572c:	8f 7d       	andi	r24, 0xDF	; 223
    572e:	80 83       	st	Z, r24
    5730:	e0 91 70 12 	lds	r30, 0x1270	; 0x801270 <ptr_tx_completed_2>
    5734:	f0 91 71 12 	lds	r31, 0x1271	; 0x801271 <ptr_tx_completed_2+0x1>
    5738:	30 97       	sbiw	r30, 0x00	; 0
    573a:	09 f0       	breq	.+2      	; 0x573e <__vector_52+0x58>
    573c:	19 95       	eicall
    573e:	ff 91       	pop	r31
    5740:	ef 91       	pop	r30
    5742:	bf 91       	pop	r27
    5744:	af 91       	pop	r26
    5746:	9f 91       	pop	r25
    5748:	8f 91       	pop	r24
    574a:	7f 91       	pop	r23
    574c:	6f 91       	pop	r22
    574e:	5f 91       	pop	r21
    5750:	4f 91       	pop	r20
    5752:	3f 91       	pop	r19
    5754:	2f 91       	pop	r18
    5756:	0f 90       	pop	r0
    5758:	0b be       	out	0x3b, r0	; 59
    575a:	0f 90       	pop	r0
    575c:	0f be       	out	0x3f, r0	; 63
    575e:	0f 90       	pop	r0
    5760:	1f 90       	pop	r1
    5762:	18 95       	reti

00005764 <__vector_51>:
    5764:	1f 92       	push	r1
    5766:	0f 92       	push	r0
    5768:	0f b6       	in	r0, 0x3f	; 63
    576a:	0f 92       	push	r0
    576c:	11 24       	eor	r1, r1
    576e:	0b b6       	in	r0, 0x3b	; 59
    5770:	0f 92       	push	r0
    5772:	2f 93       	push	r18
    5774:	3f 93       	push	r19
    5776:	4f 93       	push	r20
    5778:	5f 93       	push	r21
    577a:	6f 93       	push	r22
    577c:	7f 93       	push	r23
    577e:	8f 93       	push	r24
    5780:	9f 93       	push	r25
    5782:	af 93       	push	r26
    5784:	bf 93       	push	r27
    5786:	ef 93       	push	r30
    5788:	ff 93       	push	r31
    578a:	60 91 d6 00 	lds	r22, 0x00D6	; 0x8000d6 <__TEXT_REGION_LENGTH__+0x7000d6>
    578e:	8a e1       	ldi	r24, 0x1A	; 26
    5790:	9a e0       	ldi	r25, 0x0A	; 10
    5792:	0e 94 61 1d 	call	0x3ac2	; 0x3ac2 <RB_writeByte>
    5796:	ff 91       	pop	r31
    5798:	ef 91       	pop	r30
    579a:	bf 91       	pop	r27
    579c:	af 91       	pop	r26
    579e:	9f 91       	pop	r25
    57a0:	8f 91       	pop	r24
    57a2:	7f 91       	pop	r23
    57a4:	6f 91       	pop	r22
    57a6:	5f 91       	pop	r21
    57a8:	4f 91       	pop	r20
    57aa:	3f 91       	pop	r19
    57ac:	2f 91       	pop	r18
    57ae:	0f 90       	pop	r0
    57b0:	0b be       	out	0x3b, r0	; 59
    57b2:	0f 90       	pop	r0
    57b4:	0f be       	out	0x3f, r0	; 63
    57b6:	0f 90       	pop	r0
    57b8:	1f 90       	pop	r1
    57ba:	18 95       	reti

000057bc <__vector_55>:
    57bc:	1f 92       	push	r1
    57be:	0f 92       	push	r0
    57c0:	0f b6       	in	r0, 0x3f	; 63
    57c2:	0f 92       	push	r0
    57c4:	11 24       	eor	r1, r1
    57c6:	0b b6       	in	r0, 0x3b	; 59
    57c8:	0f 92       	push	r0
    57ca:	2f 93       	push	r18
    57cc:	3f 93       	push	r19
    57ce:	4f 93       	push	r20
    57d0:	5f 93       	push	r21
    57d2:	6f 93       	push	r22
    57d4:	7f 93       	push	r23
    57d6:	8f 93       	push	r24
    57d8:	9f 93       	push	r25
    57da:	af 93       	push	r26
    57dc:	bf 93       	push	r27
    57de:	ef 93       	push	r30
    57e0:	ff 93       	push	r31
    57e2:	8b e2       	ldi	r24, 0x2B	; 43
    57e4:	9e e0       	ldi	r25, 0x0E	; 14
    57e6:	0e 94 41 1d 	call	0x3a82	; 0x3a82 <RB_length>
    57ea:	88 23       	and	r24, r24
    57ec:	39 f0       	breq	.+14     	; 0x57fc <__vector_55+0x40>
    57ee:	8b e2       	ldi	r24, 0x2B	; 43
    57f0:	9e e0       	ldi	r25, 0x0E	; 14
    57f2:	0e 94 4d 1d 	call	0x3a9a	; 0x3a9a <RB_readByte>
    57f6:	80 93 36 01 	sts	0x0136, r24	; 0x800136 <__TEXT_REGION_LENGTH__+0x700136>
    57fa:	0c c0       	rjmp	.+24     	; 0x5814 <__vector_55+0x58>
    57fc:	e1 e3       	ldi	r30, 0x31	; 49
    57fe:	f1 e0       	ldi	r31, 0x01	; 1
    5800:	80 81       	ld	r24, Z
    5802:	8f 7d       	andi	r24, 0xDF	; 223
    5804:	80 83       	st	Z, r24
    5806:	e0 91 72 12 	lds	r30, 0x1272	; 0x801272 <ptr_tx_completed_3>
    580a:	f0 91 73 12 	lds	r31, 0x1273	; 0x801273 <ptr_tx_completed_3+0x1>
    580e:	30 97       	sbiw	r30, 0x00	; 0
    5810:	09 f0       	breq	.+2      	; 0x5814 <__vector_55+0x58>
    5812:	19 95       	eicall
    5814:	ff 91       	pop	r31
    5816:	ef 91       	pop	r30
    5818:	bf 91       	pop	r27
    581a:	af 91       	pop	r26
    581c:	9f 91       	pop	r25
    581e:	8f 91       	pop	r24
    5820:	7f 91       	pop	r23
    5822:	6f 91       	pop	r22
    5824:	5f 91       	pop	r21
    5826:	4f 91       	pop	r20
    5828:	3f 91       	pop	r19
    582a:	2f 91       	pop	r18
    582c:	0f 90       	pop	r0
    582e:	0b be       	out	0x3b, r0	; 59
    5830:	0f 90       	pop	r0
    5832:	0f be       	out	0x3f, r0	; 63
    5834:	0f 90       	pop	r0
    5836:	1f 90       	pop	r1
    5838:	18 95       	reti

0000583a <__vector_54>:
    583a:	1f 92       	push	r1
    583c:	0f 92       	push	r0
    583e:	0f b6       	in	r0, 0x3f	; 63
    5840:	0f 92       	push	r0
    5842:	11 24       	eor	r1, r1
    5844:	0b b6       	in	r0, 0x3b	; 59
    5846:	0f 92       	push	r0
    5848:	2f 93       	push	r18
    584a:	3f 93       	push	r19
    584c:	4f 93       	push	r20
    584e:	5f 93       	push	r21
    5850:	6f 93       	push	r22
    5852:	7f 93       	push	r23
    5854:	8f 93       	push	r24
    5856:	9f 93       	push	r25
    5858:	af 93       	push	r26
    585a:	bf 93       	push	r27
    585c:	ef 93       	push	r30
    585e:	ff 93       	push	r31
    5860:	60 91 36 01 	lds	r22, 0x0136	; 0x800136 <__TEXT_REGION_LENGTH__+0x700136>
    5864:	8b e5       	ldi	r24, 0x5B	; 91
    5866:	91 e1       	ldi	r25, 0x11	; 17
    5868:	0e 94 61 1d 	call	0x3ac2	; 0x3ac2 <RB_writeByte>
    586c:	ff 91       	pop	r31
    586e:	ef 91       	pop	r30
    5870:	bf 91       	pop	r27
    5872:	af 91       	pop	r26
    5874:	9f 91       	pop	r25
    5876:	8f 91       	pop	r24
    5878:	7f 91       	pop	r23
    587a:	6f 91       	pop	r22
    587c:	5f 91       	pop	r21
    587e:	4f 91       	pop	r20
    5880:	3f 91       	pop	r19
    5882:	2f 91       	pop	r18
    5884:	0f 90       	pop	r0
    5886:	0b be       	out	0x3b, r0	; 59
    5888:	0f 90       	pop	r0
    588a:	0f be       	out	0x3f, r0	; 63
    588c:	0f 90       	pop	r0
    588e:	1f 90       	pop	r1
    5890:	18 95       	reti

00005892 <transmitByte>:
//***************************************************
//Function to transmit a single byte
//***************************************************
void transmitByte( unsigned char data )
{
	while ( !(UCSR0A & (1<<UDRE0)) )
    5892:	e0 ec       	ldi	r30, 0xC0	; 192
    5894:	f0 e0       	ldi	r31, 0x00	; 0
    5896:	90 81       	ld	r25, Z
    5898:	95 ff       	sbrs	r25, 5
    589a:	fd cf       	rjmp	.-6      	; 0x5896 <transmitByte+0x4>
		; 			                /* Wait for empty transmit buffer */
	UDR0 = data; 			        /* Start transmition */
    589c:	80 93 c6 00 	sts	0x00C6, r24	; 0x8000c6 <__TEXT_REGION_LENGTH__+0x7000c6>
    58a0:	08 95       	ret

000058a2 <transmitString>:

//***************************************************
//Function to transmit a string in RAM
//***************************************************
void transmitString(unsigned char* string)
{
    58a2:	cf 93       	push	r28
    58a4:	df 93       	push	r29
    58a6:	ec 01       	movw	r28, r24
  while (*string)
    58a8:	88 81       	ld	r24, Y
    58aa:	88 23       	and	r24, r24
    58ac:	29 f0       	breq	.+10     	; 0x58b8 <transmitString+0x16>
    58ae:	21 96       	adiw	r28, 0x01	; 1
   transmitByte(*string++);
    58b0:	f0 df       	rcall	.-32     	; 0x5892 <transmitByte>
//***************************************************
//Function to transmit a string in RAM
//***************************************************
void transmitString(unsigned char* string)
{
  while (*string)
    58b2:	89 91       	ld	r24, Y+
    58b4:	81 11       	cpse	r24, r1
    58b6:	fc cf       	rjmp	.-8      	; 0x58b0 <transmitString+0xe>
   transmitByte(*string++);
}
    58b8:	df 91       	pop	r29
    58ba:	cf 91       	pop	r28
    58bc:	08 95       	ret

000058be <main>:

// MainLoop
int main(void)
{
	// Gate Treiber disable (active high)
 	EN_TMC6200_PORT &= ~EN_TMC6200_BIT;
    58be:	e2 e0       	ldi	r30, 0x02	; 2
    58c0:	f1 e0       	ldi	r31, 0x01	; 1
    58c2:	80 81       	ld	r24, Z
    58c4:	87 7f       	andi	r24, 0xF7	; 247
    58c6:	80 83       	st	Z, r24

	Grossschreib = 1;
    58c8:	81 e0       	ldi	r24, 0x01	; 1
    58ca:	80 93 12 0a 	sts	0x0A12, r24	; 0x800a12 <Grossschreib>
//Initialisierungen
	IO_init();
    58ce:	0e 94 63 1a 	call	0x34c6	; 0x34c6 <IO_init>
	SPI_init();
    58d2:	80 dd       	rcall	.-1280   	; 0x53d4 <SPI_init>
	UART_init();
    58d4:	8c dd       	rcall	.-1256   	; 0x53ee <UART_init>
    58d6:	0e 94 22 08 	call	0x1044	; 0x1044 <SD_startup>
	SD_startup();
    58da:	83 e3       	ldi	r24, 0x33	; 51
// 	initTMC6200();
// 	TMC4671_init();
// 	initTMC4671_Openloop();
// 	mfrc522_init();
	mfrc522_read(0x33);
    58dc:	0e 94 ff 1c 	call	0x39fe	; 0x39fe <mfrc522_read>
    58e0:	63 e0       	ldi	r22, 0x03	; 3
	mfrc522_write(0x33,0x03);
    58e2:	83 e3       	ldi	r24, 0x33	; 51
    58e4:	0e 94 ea 1c 	call	0x39d4	; 0x39d4 <mfrc522_write>
    58e8:	83 e3       	ldi	r24, 0x33	; 51
	mfrc522_read(0x33);
    58ea:	0e 94 ff 1c 	call	0x39fe	; 0x39fe <mfrc522_read>
    58ee:	0e 94 e1 18 	call	0x31c2	; 0x31c2 <zutaten_init>

	zutaten_init();
    58f2:	0e 94 f9 16 	call	0x2df2	; 0x2df2 <cocktails_init>
	cocktails_init();
    58f6:	0e 94 c5 0c 	call	0x198a	; 0x198a <init_Getraenke_func>
	init_Getraenke_func();
    58fa:	0e 94 d6 1b 	call	0x37ac	; 0x37ac <check_Communication_Input_UART>
		
// Mainroutine
	while (1)
	{
// 		check_Communication_Input_MFRC522();
		check_Communication_Input_UART();
    58fe:	0e 94 7f 1a 	call	0x34fe	; 0x34fe <heartbeat_LED>
  		heartbeat_LED();
    5902:	fb cf       	rjmp	.-10     	; 0x58fa <main+0x3c>

00005904 <__mulsi3>:
    5904:	db 01       	movw	r26, r22
    5906:	8f 93       	push	r24
    5908:	9f 93       	push	r25
    590a:	44 d0       	rcall	.+136    	; 0x5994 <__muluhisi3>
    590c:	bf 91       	pop	r27
    590e:	af 91       	pop	r26
    5910:	a2 9f       	mul	r26, r18
    5912:	80 0d       	add	r24, r0
    5914:	91 1d       	adc	r25, r1
    5916:	a3 9f       	mul	r26, r19
    5918:	90 0d       	add	r25, r0
    591a:	b2 9f       	mul	r27, r18
    591c:	90 0d       	add	r25, r0
    591e:	11 24       	eor	r1, r1
    5920:	08 95       	ret

00005922 <__udivmodsi4>:
    5922:	a1 e2       	ldi	r26, 0x21	; 33
    5924:	1a 2e       	mov	r1, r26
    5926:	aa 1b       	sub	r26, r26
    5928:	bb 1b       	sub	r27, r27
    592a:	fd 01       	movw	r30, r26
    592c:	0d c0       	rjmp	.+26     	; 0x5948 <__udivmodsi4_ep>

0000592e <__udivmodsi4_loop>:
    592e:	aa 1f       	adc	r26, r26
    5930:	bb 1f       	adc	r27, r27
    5932:	ee 1f       	adc	r30, r30
    5934:	ff 1f       	adc	r31, r31
    5936:	a2 17       	cp	r26, r18
    5938:	b3 07       	cpc	r27, r19
    593a:	e4 07       	cpc	r30, r20
    593c:	f5 07       	cpc	r31, r21
    593e:	20 f0       	brcs	.+8      	; 0x5948 <__udivmodsi4_ep>
    5940:	a2 1b       	sub	r26, r18
    5942:	b3 0b       	sbc	r27, r19
    5944:	e4 0b       	sbc	r30, r20
    5946:	f5 0b       	sbc	r31, r21

00005948 <__udivmodsi4_ep>:
    5948:	66 1f       	adc	r22, r22
    594a:	77 1f       	adc	r23, r23
    594c:	88 1f       	adc	r24, r24
    594e:	99 1f       	adc	r25, r25
    5950:	1a 94       	dec	r1
    5952:	69 f7       	brne	.-38     	; 0x592e <__udivmodsi4_loop>
    5954:	60 95       	com	r22
    5956:	70 95       	com	r23
    5958:	80 95       	com	r24
    595a:	90 95       	com	r25
    595c:	9b 01       	movw	r18, r22
    595e:	ac 01       	movw	r20, r24
    5960:	bd 01       	movw	r22, r26
    5962:	cf 01       	movw	r24, r30
    5964:	08 95       	ret

00005966 <__tablejump2__>:
    5966:	ee 0f       	add	r30, r30
    5968:	ff 1f       	adc	r31, r31
    596a:	88 1f       	adc	r24, r24
    596c:	8b bf       	out	0x3b, r24	; 59
    596e:	07 90       	elpm	r0, Z+
    5970:	f6 91       	elpm	r31, Z
    5972:	e0 2d       	mov	r30, r0
    5974:	19 94       	eijmp

00005976 <__umulhisi3>:
    5976:	a2 9f       	mul	r26, r18
    5978:	b0 01       	movw	r22, r0
    597a:	b3 9f       	mul	r27, r19
    597c:	c0 01       	movw	r24, r0
    597e:	a3 9f       	mul	r26, r19
    5980:	70 0d       	add	r23, r0
    5982:	81 1d       	adc	r24, r1
    5984:	11 24       	eor	r1, r1
    5986:	91 1d       	adc	r25, r1
    5988:	b2 9f       	mul	r27, r18
    598a:	70 0d       	add	r23, r0
    598c:	81 1d       	adc	r24, r1
    598e:	11 24       	eor	r1, r1
    5990:	91 1d       	adc	r25, r1
    5992:	08 95       	ret

00005994 <__muluhisi3>:
    5994:	f0 df       	rcall	.-32     	; 0x5976 <__umulhisi3>
    5996:	a5 9f       	mul	r26, r21
    5998:	90 0d       	add	r25, r0
    599a:	b4 9f       	mul	r27, r20
    599c:	90 0d       	add	r25, r0
    599e:	a4 9f       	mul	r26, r20
    59a0:	80 0d       	add	r24, r0
    59a2:	91 1d       	adc	r25, r1
    59a4:	11 24       	eor	r1, r1
    59a6:	08 95       	ret

000059a8 <calloc>:
    59a8:	0f 93       	push	r16
    59aa:	1f 93       	push	r17
    59ac:	cf 93       	push	r28
    59ae:	df 93       	push	r29
    59b0:	86 9f       	mul	r24, r22
    59b2:	80 01       	movw	r16, r0
    59b4:	87 9f       	mul	r24, r23
    59b6:	10 0d       	add	r17, r0
    59b8:	96 9f       	mul	r25, r22
    59ba:	10 0d       	add	r17, r0
    59bc:	11 24       	eor	r1, r1
    59be:	c8 01       	movw	r24, r16
    59c0:	0d d0       	rcall	.+26     	; 0x59dc <malloc>
    59c2:	ec 01       	movw	r28, r24
    59c4:	00 97       	sbiw	r24, 0x00	; 0
    59c6:	21 f0       	breq	.+8      	; 0x59d0 <calloc+0x28>
    59c8:	a8 01       	movw	r20, r16
    59ca:	60 e0       	ldi	r22, 0x00	; 0
    59cc:	70 e0       	ldi	r23, 0x00	; 0
    59ce:	47 d1       	rcall	.+654    	; 0x5c5e <memset>
    59d0:	ce 01       	movw	r24, r28
    59d2:	df 91       	pop	r29
    59d4:	cf 91       	pop	r28
    59d6:	1f 91       	pop	r17
    59d8:	0f 91       	pop	r16
    59da:	08 95       	ret

000059dc <malloc>:
    59dc:	0f 93       	push	r16
    59de:	1f 93       	push	r17
    59e0:	cf 93       	push	r28
    59e2:	df 93       	push	r29
    59e4:	82 30       	cpi	r24, 0x02	; 2
    59e6:	91 05       	cpc	r25, r1
    59e8:	10 f4       	brcc	.+4      	; 0x59ee <malloc+0x12>
    59ea:	82 e0       	ldi	r24, 0x02	; 2
    59ec:	90 e0       	ldi	r25, 0x00	; 0
    59ee:	e0 91 7a 16 	lds	r30, 0x167A	; 0x80167a <__flp>
    59f2:	f0 91 7b 16 	lds	r31, 0x167B	; 0x80167b <__flp+0x1>
    59f6:	20 e0       	ldi	r18, 0x00	; 0
    59f8:	30 e0       	ldi	r19, 0x00	; 0
    59fa:	a0 e0       	ldi	r26, 0x00	; 0
    59fc:	b0 e0       	ldi	r27, 0x00	; 0
    59fe:	30 97       	sbiw	r30, 0x00	; 0
    5a00:	19 f1       	breq	.+70     	; 0x5a48 <malloc+0x6c>
    5a02:	40 81       	ld	r20, Z
    5a04:	51 81       	ldd	r21, Z+1	; 0x01
    5a06:	02 81       	ldd	r16, Z+2	; 0x02
    5a08:	13 81       	ldd	r17, Z+3	; 0x03
    5a0a:	48 17       	cp	r20, r24
    5a0c:	59 07       	cpc	r21, r25
    5a0e:	c8 f0       	brcs	.+50     	; 0x5a42 <malloc+0x66>
    5a10:	84 17       	cp	r24, r20
    5a12:	95 07       	cpc	r25, r21
    5a14:	69 f4       	brne	.+26     	; 0x5a30 <malloc+0x54>
    5a16:	10 97       	sbiw	r26, 0x00	; 0
    5a18:	31 f0       	breq	.+12     	; 0x5a26 <malloc+0x4a>
    5a1a:	12 96       	adiw	r26, 0x02	; 2
    5a1c:	0c 93       	st	X, r16
    5a1e:	12 97       	sbiw	r26, 0x02	; 2
    5a20:	13 96       	adiw	r26, 0x03	; 3
    5a22:	1c 93       	st	X, r17
    5a24:	27 c0       	rjmp	.+78     	; 0x5a74 <malloc+0x98>
    5a26:	00 93 7a 16 	sts	0x167A, r16	; 0x80167a <__flp>
    5a2a:	10 93 7b 16 	sts	0x167B, r17	; 0x80167b <__flp+0x1>
    5a2e:	22 c0       	rjmp	.+68     	; 0x5a74 <malloc+0x98>
    5a30:	21 15       	cp	r18, r1
    5a32:	31 05       	cpc	r19, r1
    5a34:	19 f0       	breq	.+6      	; 0x5a3c <malloc+0x60>
    5a36:	42 17       	cp	r20, r18
    5a38:	53 07       	cpc	r21, r19
    5a3a:	18 f4       	brcc	.+6      	; 0x5a42 <malloc+0x66>
    5a3c:	9a 01       	movw	r18, r20
    5a3e:	bd 01       	movw	r22, r26
    5a40:	ef 01       	movw	r28, r30
    5a42:	df 01       	movw	r26, r30
    5a44:	f8 01       	movw	r30, r16
    5a46:	db cf       	rjmp	.-74     	; 0x59fe <malloc+0x22>
    5a48:	21 15       	cp	r18, r1
    5a4a:	31 05       	cpc	r19, r1
    5a4c:	f9 f0       	breq	.+62     	; 0x5a8c <malloc+0xb0>
    5a4e:	28 1b       	sub	r18, r24
    5a50:	39 0b       	sbc	r19, r25
    5a52:	24 30       	cpi	r18, 0x04	; 4
    5a54:	31 05       	cpc	r19, r1
    5a56:	80 f4       	brcc	.+32     	; 0x5a78 <malloc+0x9c>
    5a58:	8a 81       	ldd	r24, Y+2	; 0x02
    5a5a:	9b 81       	ldd	r25, Y+3	; 0x03
    5a5c:	61 15       	cp	r22, r1
    5a5e:	71 05       	cpc	r23, r1
    5a60:	21 f0       	breq	.+8      	; 0x5a6a <malloc+0x8e>
    5a62:	fb 01       	movw	r30, r22
    5a64:	93 83       	std	Z+3, r25	; 0x03
    5a66:	82 83       	std	Z+2, r24	; 0x02
    5a68:	04 c0       	rjmp	.+8      	; 0x5a72 <malloc+0x96>
    5a6a:	90 93 7b 16 	sts	0x167B, r25	; 0x80167b <__flp+0x1>
    5a6e:	80 93 7a 16 	sts	0x167A, r24	; 0x80167a <__flp>
    5a72:	fe 01       	movw	r30, r28
    5a74:	32 96       	adiw	r30, 0x02	; 2
    5a76:	44 c0       	rjmp	.+136    	; 0x5b00 <malloc+0x124>
    5a78:	fe 01       	movw	r30, r28
    5a7a:	e2 0f       	add	r30, r18
    5a7c:	f3 1f       	adc	r31, r19
    5a7e:	81 93       	st	Z+, r24
    5a80:	91 93       	st	Z+, r25
    5a82:	22 50       	subi	r18, 0x02	; 2
    5a84:	31 09       	sbc	r19, r1
    5a86:	39 83       	std	Y+1, r19	; 0x01
    5a88:	28 83       	st	Y, r18
    5a8a:	3a c0       	rjmp	.+116    	; 0x5b00 <malloc+0x124>
    5a8c:	20 91 78 16 	lds	r18, 0x1678	; 0x801678 <__brkval>
    5a90:	30 91 79 16 	lds	r19, 0x1679	; 0x801679 <__brkval+0x1>
    5a94:	23 2b       	or	r18, r19
    5a96:	41 f4       	brne	.+16     	; 0x5aa8 <malloc+0xcc>
    5a98:	20 91 02 02 	lds	r18, 0x0202	; 0x800202 <__malloc_heap_start>
    5a9c:	30 91 03 02 	lds	r19, 0x0203	; 0x800203 <__malloc_heap_start+0x1>
    5aa0:	30 93 79 16 	sts	0x1679, r19	; 0x801679 <__brkval+0x1>
    5aa4:	20 93 78 16 	sts	0x1678, r18	; 0x801678 <__brkval>
    5aa8:	20 91 00 02 	lds	r18, 0x0200	; 0x800200 <__DATA_REGION_ORIGIN__>
    5aac:	30 91 01 02 	lds	r19, 0x0201	; 0x800201 <__DATA_REGION_ORIGIN__+0x1>
    5ab0:	21 15       	cp	r18, r1
    5ab2:	31 05       	cpc	r19, r1
    5ab4:	41 f4       	brne	.+16     	; 0x5ac6 <malloc+0xea>
    5ab6:	2d b7       	in	r18, 0x3d	; 61
    5ab8:	3e b7       	in	r19, 0x3e	; 62
    5aba:	40 91 04 02 	lds	r20, 0x0204	; 0x800204 <__malloc_margin>
    5abe:	50 91 05 02 	lds	r21, 0x0205	; 0x800205 <__malloc_margin+0x1>
    5ac2:	24 1b       	sub	r18, r20
    5ac4:	35 0b       	sbc	r19, r21
    5ac6:	e0 91 78 16 	lds	r30, 0x1678	; 0x801678 <__brkval>
    5aca:	f0 91 79 16 	lds	r31, 0x1679	; 0x801679 <__brkval+0x1>
    5ace:	e2 17       	cp	r30, r18
    5ad0:	f3 07       	cpc	r31, r19
    5ad2:	a0 f4       	brcc	.+40     	; 0x5afc <malloc+0x120>
    5ad4:	2e 1b       	sub	r18, r30
    5ad6:	3f 0b       	sbc	r19, r31
    5ad8:	28 17       	cp	r18, r24
    5ada:	39 07       	cpc	r19, r25
    5adc:	78 f0       	brcs	.+30     	; 0x5afc <malloc+0x120>
    5ade:	ac 01       	movw	r20, r24
    5ae0:	4e 5f       	subi	r20, 0xFE	; 254
    5ae2:	5f 4f       	sbci	r21, 0xFF	; 255
    5ae4:	24 17       	cp	r18, r20
    5ae6:	35 07       	cpc	r19, r21
    5ae8:	48 f0       	brcs	.+18     	; 0x5afc <malloc+0x120>
    5aea:	4e 0f       	add	r20, r30
    5aec:	5f 1f       	adc	r21, r31
    5aee:	50 93 79 16 	sts	0x1679, r21	; 0x801679 <__brkval+0x1>
    5af2:	40 93 78 16 	sts	0x1678, r20	; 0x801678 <__brkval>
    5af6:	81 93       	st	Z+, r24
    5af8:	91 93       	st	Z+, r25
    5afa:	02 c0       	rjmp	.+4      	; 0x5b00 <malloc+0x124>
    5afc:	e0 e0       	ldi	r30, 0x00	; 0
    5afe:	f0 e0       	ldi	r31, 0x00	; 0
    5b00:	cf 01       	movw	r24, r30
    5b02:	df 91       	pop	r29
    5b04:	cf 91       	pop	r28
    5b06:	1f 91       	pop	r17
    5b08:	0f 91       	pop	r16
    5b0a:	08 95       	ret

00005b0c <free>:
    5b0c:	cf 93       	push	r28
    5b0e:	df 93       	push	r29
    5b10:	00 97       	sbiw	r24, 0x00	; 0
    5b12:	09 f4       	brne	.+2      	; 0x5b16 <free+0xa>
    5b14:	81 c0       	rjmp	.+258    	; 0x5c18 <free+0x10c>
    5b16:	fc 01       	movw	r30, r24
    5b18:	32 97       	sbiw	r30, 0x02	; 2
    5b1a:	13 82       	std	Z+3, r1	; 0x03
    5b1c:	12 82       	std	Z+2, r1	; 0x02
    5b1e:	a0 91 7a 16 	lds	r26, 0x167A	; 0x80167a <__flp>
    5b22:	b0 91 7b 16 	lds	r27, 0x167B	; 0x80167b <__flp+0x1>
    5b26:	10 97       	sbiw	r26, 0x00	; 0
    5b28:	81 f4       	brne	.+32     	; 0x5b4a <free+0x3e>
    5b2a:	20 81       	ld	r18, Z
    5b2c:	31 81       	ldd	r19, Z+1	; 0x01
    5b2e:	82 0f       	add	r24, r18
    5b30:	93 1f       	adc	r25, r19
    5b32:	20 91 78 16 	lds	r18, 0x1678	; 0x801678 <__brkval>
    5b36:	30 91 79 16 	lds	r19, 0x1679	; 0x801679 <__brkval+0x1>
    5b3a:	28 17       	cp	r18, r24
    5b3c:	39 07       	cpc	r19, r25
    5b3e:	51 f5       	brne	.+84     	; 0x5b94 <free+0x88>
    5b40:	f0 93 79 16 	sts	0x1679, r31	; 0x801679 <__brkval+0x1>
    5b44:	e0 93 78 16 	sts	0x1678, r30	; 0x801678 <__brkval>
    5b48:	67 c0       	rjmp	.+206    	; 0x5c18 <free+0x10c>
    5b4a:	ed 01       	movw	r28, r26
    5b4c:	20 e0       	ldi	r18, 0x00	; 0
    5b4e:	30 e0       	ldi	r19, 0x00	; 0
    5b50:	ce 17       	cp	r28, r30
    5b52:	df 07       	cpc	r29, r31
    5b54:	40 f4       	brcc	.+16     	; 0x5b66 <free+0x5a>
    5b56:	4a 81       	ldd	r20, Y+2	; 0x02
    5b58:	5b 81       	ldd	r21, Y+3	; 0x03
    5b5a:	9e 01       	movw	r18, r28
    5b5c:	41 15       	cp	r20, r1
    5b5e:	51 05       	cpc	r21, r1
    5b60:	f1 f0       	breq	.+60     	; 0x5b9e <free+0x92>
    5b62:	ea 01       	movw	r28, r20
    5b64:	f5 cf       	rjmp	.-22     	; 0x5b50 <free+0x44>
    5b66:	d3 83       	std	Z+3, r29	; 0x03
    5b68:	c2 83       	std	Z+2, r28	; 0x02
    5b6a:	40 81       	ld	r20, Z
    5b6c:	51 81       	ldd	r21, Z+1	; 0x01
    5b6e:	84 0f       	add	r24, r20
    5b70:	95 1f       	adc	r25, r21
    5b72:	c8 17       	cp	r28, r24
    5b74:	d9 07       	cpc	r29, r25
    5b76:	59 f4       	brne	.+22     	; 0x5b8e <free+0x82>
    5b78:	88 81       	ld	r24, Y
    5b7a:	99 81       	ldd	r25, Y+1	; 0x01
    5b7c:	84 0f       	add	r24, r20
    5b7e:	95 1f       	adc	r25, r21
    5b80:	02 96       	adiw	r24, 0x02	; 2
    5b82:	91 83       	std	Z+1, r25	; 0x01
    5b84:	80 83       	st	Z, r24
    5b86:	8a 81       	ldd	r24, Y+2	; 0x02
    5b88:	9b 81       	ldd	r25, Y+3	; 0x03
    5b8a:	93 83       	std	Z+3, r25	; 0x03
    5b8c:	82 83       	std	Z+2, r24	; 0x02
    5b8e:	21 15       	cp	r18, r1
    5b90:	31 05       	cpc	r19, r1
    5b92:	29 f4       	brne	.+10     	; 0x5b9e <free+0x92>
    5b94:	f0 93 7b 16 	sts	0x167B, r31	; 0x80167b <__flp+0x1>
    5b98:	e0 93 7a 16 	sts	0x167A, r30	; 0x80167a <__flp>
    5b9c:	3d c0       	rjmp	.+122    	; 0x5c18 <free+0x10c>
    5b9e:	e9 01       	movw	r28, r18
    5ba0:	fb 83       	std	Y+3, r31	; 0x03
    5ba2:	ea 83       	std	Y+2, r30	; 0x02
    5ba4:	49 91       	ld	r20, Y+
    5ba6:	59 91       	ld	r21, Y+
    5ba8:	c4 0f       	add	r28, r20
    5baa:	d5 1f       	adc	r29, r21
    5bac:	ec 17       	cp	r30, r28
    5bae:	fd 07       	cpc	r31, r29
    5bb0:	61 f4       	brne	.+24     	; 0x5bca <free+0xbe>
    5bb2:	80 81       	ld	r24, Z
    5bb4:	91 81       	ldd	r25, Z+1	; 0x01
    5bb6:	84 0f       	add	r24, r20
    5bb8:	95 1f       	adc	r25, r21
    5bba:	02 96       	adiw	r24, 0x02	; 2
    5bbc:	e9 01       	movw	r28, r18
    5bbe:	99 83       	std	Y+1, r25	; 0x01
    5bc0:	88 83       	st	Y, r24
    5bc2:	82 81       	ldd	r24, Z+2	; 0x02
    5bc4:	93 81       	ldd	r25, Z+3	; 0x03
    5bc6:	9b 83       	std	Y+3, r25	; 0x03
    5bc8:	8a 83       	std	Y+2, r24	; 0x02
    5bca:	e0 e0       	ldi	r30, 0x00	; 0
    5bcc:	f0 e0       	ldi	r31, 0x00	; 0
    5bce:	12 96       	adiw	r26, 0x02	; 2
    5bd0:	8d 91       	ld	r24, X+
    5bd2:	9c 91       	ld	r25, X
    5bd4:	13 97       	sbiw	r26, 0x03	; 3
    5bd6:	00 97       	sbiw	r24, 0x00	; 0
    5bd8:	19 f0       	breq	.+6      	; 0x5be0 <free+0xd4>
    5bda:	fd 01       	movw	r30, r26
    5bdc:	dc 01       	movw	r26, r24
    5bde:	f7 cf       	rjmp	.-18     	; 0x5bce <free+0xc2>
    5be0:	8d 91       	ld	r24, X+
    5be2:	9c 91       	ld	r25, X
    5be4:	11 97       	sbiw	r26, 0x01	; 1
    5be6:	9d 01       	movw	r18, r26
    5be8:	2e 5f       	subi	r18, 0xFE	; 254
    5bea:	3f 4f       	sbci	r19, 0xFF	; 255
    5bec:	82 0f       	add	r24, r18
    5bee:	93 1f       	adc	r25, r19
    5bf0:	20 91 78 16 	lds	r18, 0x1678	; 0x801678 <__brkval>
    5bf4:	30 91 79 16 	lds	r19, 0x1679	; 0x801679 <__brkval+0x1>
    5bf8:	28 17       	cp	r18, r24
    5bfa:	39 07       	cpc	r19, r25
    5bfc:	69 f4       	brne	.+26     	; 0x5c18 <free+0x10c>
    5bfe:	30 97       	sbiw	r30, 0x00	; 0
    5c00:	29 f4       	brne	.+10     	; 0x5c0c <free+0x100>
    5c02:	10 92 7b 16 	sts	0x167B, r1	; 0x80167b <__flp+0x1>
    5c06:	10 92 7a 16 	sts	0x167A, r1	; 0x80167a <__flp>
    5c0a:	02 c0       	rjmp	.+4      	; 0x5c10 <free+0x104>
    5c0c:	13 82       	std	Z+3, r1	; 0x03
    5c0e:	12 82       	std	Z+2, r1	; 0x02
    5c10:	b0 93 79 16 	sts	0x1679, r27	; 0x801679 <__brkval+0x1>
    5c14:	a0 93 78 16 	sts	0x1678, r26	; 0x801678 <__brkval>
    5c18:	df 91       	pop	r29
    5c1a:	cf 91       	pop	r28
    5c1c:	08 95       	ret

00005c1e <atoi>:
    5c1e:	fc 01       	movw	r30, r24
    5c20:	88 27       	eor	r24, r24
    5c22:	99 27       	eor	r25, r25
    5c24:	e8 94       	clt
    5c26:	21 91       	ld	r18, Z+
    5c28:	20 32       	cpi	r18, 0x20	; 32
    5c2a:	e9 f3       	breq	.-6      	; 0x5c26 <atoi+0x8>
    5c2c:	29 30       	cpi	r18, 0x09	; 9
    5c2e:	10 f0       	brcs	.+4      	; 0x5c34 <atoi+0x16>
    5c30:	2e 30       	cpi	r18, 0x0E	; 14
    5c32:	c8 f3       	brcs	.-14     	; 0x5c26 <atoi+0x8>
    5c34:	2b 32       	cpi	r18, 0x2B	; 43
    5c36:	39 f0       	breq	.+14     	; 0x5c46 <atoi+0x28>
    5c38:	2d 32       	cpi	r18, 0x2D	; 45
    5c3a:	31 f4       	brne	.+12     	; 0x5c48 <atoi+0x2a>
    5c3c:	68 94       	set
    5c3e:	03 c0       	rjmp	.+6      	; 0x5c46 <atoi+0x28>
    5c40:	58 d0       	rcall	.+176    	; 0x5cf2 <__mulhi_const_10>
    5c42:	82 0f       	add	r24, r18
    5c44:	91 1d       	adc	r25, r1
    5c46:	21 91       	ld	r18, Z+
    5c48:	20 53       	subi	r18, 0x30	; 48
    5c4a:	2a 30       	cpi	r18, 0x0A	; 10
    5c4c:	c8 f3       	brcs	.-14     	; 0x5c40 <atoi+0x22>
    5c4e:	1e f4       	brtc	.+6      	; 0x5c56 <atoi+0x38>
    5c50:	90 95       	com	r25
    5c52:	81 95       	neg	r24
    5c54:	9f 4f       	sbci	r25, 0xFF	; 255
    5c56:	08 95       	ret

00005c58 <strtok>:
    5c58:	4c ec       	ldi	r20, 0xCC	; 204
    5c5a:	57 e0       	ldi	r21, 0x07	; 7
    5c5c:	19 c0       	rjmp	.+50     	; 0x5c90 <strtok_r>

00005c5e <memset>:
    5c5e:	dc 01       	movw	r26, r24
    5c60:	01 c0       	rjmp	.+2      	; 0x5c64 <memset+0x6>
    5c62:	6d 93       	st	X+, r22
    5c64:	41 50       	subi	r20, 0x01	; 1
    5c66:	50 40       	sbci	r21, 0x00	; 0
    5c68:	e0 f7       	brcc	.-8      	; 0x5c62 <memset+0x4>
    5c6a:	08 95       	ret

00005c6c <strcat>:
    5c6c:	fb 01       	movw	r30, r22
    5c6e:	dc 01       	movw	r26, r24
    5c70:	0d 90       	ld	r0, X+
    5c72:	00 20       	and	r0, r0
    5c74:	e9 f7       	brne	.-6      	; 0x5c70 <strcat+0x4>
    5c76:	11 97       	sbiw	r26, 0x01	; 1
    5c78:	01 90       	ld	r0, Z+
    5c7a:	0d 92       	st	X+, r0
    5c7c:	00 20       	and	r0, r0
    5c7e:	e1 f7       	brne	.-8      	; 0x5c78 <strcat+0xc>
    5c80:	08 95       	ret

00005c82 <strcpy>:
    5c82:	fb 01       	movw	r30, r22
    5c84:	dc 01       	movw	r26, r24
    5c86:	01 90       	ld	r0, Z+
    5c88:	0d 92       	st	X+, r0
    5c8a:	00 20       	and	r0, r0
    5c8c:	e1 f7       	brne	.-8      	; 0x5c86 <strcpy+0x4>
    5c8e:	08 95       	ret

00005c90 <strtok_r>:
    5c90:	fa 01       	movw	r30, r20
    5c92:	a1 91       	ld	r26, Z+
    5c94:	b0 81       	ld	r27, Z
    5c96:	00 97       	sbiw	r24, 0x00	; 0
    5c98:	19 f4       	brne	.+6      	; 0x5ca0 <strtok_r+0x10>
    5c9a:	10 97       	sbiw	r26, 0x00	; 0
    5c9c:	e1 f0       	breq	.+56     	; 0x5cd6 <strtok_r+0x46>
    5c9e:	cd 01       	movw	r24, r26
    5ca0:	dc 01       	movw	r26, r24
    5ca2:	cd 01       	movw	r24, r26
    5ca4:	0d 90       	ld	r0, X+
    5ca6:	00 20       	and	r0, r0
    5ca8:	11 f4       	brne	.+4      	; 0x5cae <strtok_r+0x1e>
    5caa:	c0 01       	movw	r24, r0
    5cac:	13 c0       	rjmp	.+38     	; 0x5cd4 <strtok_r+0x44>
    5cae:	fb 01       	movw	r30, r22
    5cb0:	21 91       	ld	r18, Z+
    5cb2:	22 23       	and	r18, r18
    5cb4:	19 f0       	breq	.+6      	; 0x5cbc <strtok_r+0x2c>
    5cb6:	20 15       	cp	r18, r0
    5cb8:	d9 f7       	brne	.-10     	; 0x5cb0 <strtok_r+0x20>
    5cba:	f3 cf       	rjmp	.-26     	; 0x5ca2 <strtok_r+0x12>
    5cbc:	fb 01       	movw	r30, r22
    5cbe:	21 91       	ld	r18, Z+
    5cc0:	20 15       	cp	r18, r0
    5cc2:	19 f4       	brne	.+6      	; 0x5cca <strtok_r+0x3a>
    5cc4:	1e 92       	st	-X, r1
    5cc6:	11 96       	adiw	r26, 0x01	; 1
    5cc8:	06 c0       	rjmp	.+12     	; 0x5cd6 <strtok_r+0x46>
    5cca:	22 23       	and	r18, r18
    5ccc:	c1 f7       	brne	.-16     	; 0x5cbe <strtok_r+0x2e>
    5cce:	0d 90       	ld	r0, X+
    5cd0:	00 20       	and	r0, r0
    5cd2:	a1 f7       	brne	.-24     	; 0x5cbc <strtok_r+0x2c>
    5cd4:	d0 01       	movw	r26, r0
    5cd6:	fa 01       	movw	r30, r20
    5cd8:	a1 93       	st	Z+, r26
    5cda:	b0 83       	st	Z, r27
    5cdc:	08 95       	ret

00005cde <__itoa_ncheck>:
    5cde:	bb 27       	eor	r27, r27
    5ce0:	4a 30       	cpi	r20, 0x0A	; 10
    5ce2:	31 f4       	brne	.+12     	; 0x5cf0 <__itoa_ncheck+0x12>
    5ce4:	99 23       	and	r25, r25
    5ce6:	22 f4       	brpl	.+8      	; 0x5cf0 <__itoa_ncheck+0x12>
    5ce8:	bd e2       	ldi	r27, 0x2D	; 45
    5cea:	90 95       	com	r25
    5cec:	81 95       	neg	r24
    5cee:	9f 4f       	sbci	r25, 0xFF	; 255
    5cf0:	09 c0       	rjmp	.+18     	; 0x5d04 <__utoa_common>

00005cf2 <__mulhi_const_10>:
    5cf2:	7a e0       	ldi	r23, 0x0A	; 10
    5cf4:	97 9f       	mul	r25, r23
    5cf6:	90 2d       	mov	r25, r0
    5cf8:	87 9f       	mul	r24, r23
    5cfa:	80 2d       	mov	r24, r0
    5cfc:	91 0d       	add	r25, r1
    5cfe:	11 24       	eor	r1, r1
    5d00:	08 95       	ret

00005d02 <__utoa_ncheck>:
    5d02:	bb 27       	eor	r27, r27

00005d04 <__utoa_common>:
    5d04:	fb 01       	movw	r30, r22
    5d06:	55 27       	eor	r21, r21
    5d08:	aa 27       	eor	r26, r26
    5d0a:	88 0f       	add	r24, r24
    5d0c:	99 1f       	adc	r25, r25
    5d0e:	aa 1f       	adc	r26, r26
    5d10:	a4 17       	cp	r26, r20
    5d12:	10 f0       	brcs	.+4      	; 0x5d18 <__utoa_common+0x14>
    5d14:	a4 1b       	sub	r26, r20
    5d16:	83 95       	inc	r24
    5d18:	50 51       	subi	r21, 0x10	; 16
    5d1a:	b9 f7       	brne	.-18     	; 0x5d0a <__utoa_common+0x6>
    5d1c:	a0 5d       	subi	r26, 0xD0	; 208
    5d1e:	aa 33       	cpi	r26, 0x3A	; 58
    5d20:	08 f0       	brcs	.+2      	; 0x5d24 <__utoa_common+0x20>
    5d22:	a9 5d       	subi	r26, 0xD9	; 217
    5d24:	a1 93       	st	Z+, r26
    5d26:	00 97       	sbiw	r24, 0x00	; 0
    5d28:	79 f7       	brne	.-34     	; 0x5d08 <__utoa_common+0x4>
    5d2a:	b1 11       	cpse	r27, r1
    5d2c:	b1 93       	st	Z+, r27
    5d2e:	11 92       	st	Z+, r1
    5d30:	cb 01       	movw	r24, r22
    5d32:	00 c0       	rjmp	.+0      	; 0x5d34 <strrev>

00005d34 <strrev>:
    5d34:	dc 01       	movw	r26, r24
    5d36:	fc 01       	movw	r30, r24
    5d38:	67 2f       	mov	r22, r23
    5d3a:	71 91       	ld	r23, Z+
    5d3c:	77 23       	and	r23, r23
    5d3e:	e1 f7       	brne	.-8      	; 0x5d38 <strrev+0x4>
    5d40:	32 97       	sbiw	r30, 0x02	; 2
    5d42:	04 c0       	rjmp	.+8      	; 0x5d4c <strrev+0x18>
    5d44:	7c 91       	ld	r23, X
    5d46:	6d 93       	st	X+, r22
    5d48:	70 83       	st	Z, r23
    5d4a:	62 91       	ld	r22, -Z
    5d4c:	ae 17       	cp	r26, r30
    5d4e:	bf 07       	cpc	r27, r31
    5d50:	c8 f3       	brcs	.-14     	; 0x5d44 <strrev+0x10>
    5d52:	08 95       	ret

00005d54 <_exit>:
    5d54:	f8 94       	cli

00005d56 <__stop_program>:
    5d56:	ff cf       	rjmp	.-2      	; 0x5d56 <__stop_program>
