
Mikrocontroller.elf:     file format elf32-avr

Sections:
Idx Name          Size      VMA       LMA       File off  Algn
  0 .data         000002d4  00800200  00001e5e  00001ef2  2**0
                  CONTENTS, ALLOC, LOAD, DATA
  1 .text         00001e5e  00000000  00000000  00000094  2**1
                  CONTENTS, ALLOC, LOAD, READONLY, CODE
  2 .bss          00001037  008004d4  008004d4  000021c6  2**0
                  ALLOC
  3 .comment      00000030  00000000  00000000  000021c6  2**0
                  CONTENTS, READONLY
  4 .note.gnu.avr.deviceinfo 00000040  00000000  00000000  000021f8  2**2
                  CONTENTS, READONLY
  5 .debug_aranges 00000330  00000000  00000000  00002238  2**0
                  CONTENTS, READONLY, DEBUGGING
  6 .debug_info   00005da1  00000000  00000000  00002568  2**0
                  CONTENTS, READONLY, DEBUGGING
  7 .debug_abbrev 00001e25  00000000  00000000  00008309  2**0
                  CONTENTS, READONLY, DEBUGGING
  8 .debug_line   00002c9c  00000000  00000000  0000a12e  2**0
                  CONTENTS, READONLY, DEBUGGING
  9 .debug_frame  00000b98  00000000  00000000  0000cdcc  2**2
                  CONTENTS, READONLY, DEBUGGING
 10 .debug_str    00001288  00000000  00000000  0000d964  2**0
                  CONTENTS, READONLY, DEBUGGING
 11 .debug_loc    000038ae  00000000  00000000  0000ebec  2**0
                  CONTENTS, READONLY, DEBUGGING
 12 .debug_ranges 00000350  00000000  00000000  0001249a  2**0
                  CONTENTS, READONLY, DEBUGGING

Disassembly of section .text:

00000000 <__vectors>:
       0:	90 c0       	rjmp	.+288    	; 0x122 <__ctors_end>
       2:	00 00       	nop
       4:	af c0       	rjmp	.+350    	; 0x164 <__bad_interrupt>
       6:	00 00       	nop
       8:	ad c0       	rjmp	.+346    	; 0x164 <__bad_interrupt>
       a:	00 00       	nop
       c:	ab c0       	rjmp	.+342    	; 0x164 <__bad_interrupt>
       e:	00 00       	nop
      10:	a9 c0       	rjmp	.+338    	; 0x164 <__bad_interrupt>
      12:	00 00       	nop
      14:	a7 c0       	rjmp	.+334    	; 0x164 <__bad_interrupt>
      16:	00 00       	nop
      18:	a5 c0       	rjmp	.+330    	; 0x164 <__bad_interrupt>
      1a:	00 00       	nop
      1c:	a3 c0       	rjmp	.+326    	; 0x164 <__bad_interrupt>
      1e:	00 00       	nop
      20:	a1 c0       	rjmp	.+322    	; 0x164 <__bad_interrupt>
      22:	00 00       	nop
      24:	9f c0       	rjmp	.+318    	; 0x164 <__bad_interrupt>
      26:	00 00       	nop
      28:	9d c0       	rjmp	.+314    	; 0x164 <__bad_interrupt>
      2a:	00 00       	nop
      2c:	9b c0       	rjmp	.+310    	; 0x164 <__bad_interrupt>
      2e:	00 00       	nop
      30:	99 c0       	rjmp	.+306    	; 0x164 <__bad_interrupt>
      32:	00 00       	nop
      34:	97 c0       	rjmp	.+302    	; 0x164 <__bad_interrupt>
      36:	00 00       	nop
      38:	95 c0       	rjmp	.+298    	; 0x164 <__bad_interrupt>
      3a:	00 00       	nop
      3c:	93 c0       	rjmp	.+294    	; 0x164 <__bad_interrupt>
      3e:	00 00       	nop
      40:	91 c0       	rjmp	.+290    	; 0x164 <__bad_interrupt>
      42:	00 00       	nop
      44:	8f c0       	rjmp	.+286    	; 0x164 <__bad_interrupt>
      46:	00 00       	nop
      48:	8d c0       	rjmp	.+282    	; 0x164 <__bad_interrupt>
      4a:	00 00       	nop
      4c:	8b c0       	rjmp	.+278    	; 0x164 <__bad_interrupt>
      4e:	00 00       	nop
      50:	89 c0       	rjmp	.+274    	; 0x164 <__bad_interrupt>
      52:	00 00       	nop
      54:	87 c0       	rjmp	.+270    	; 0x164 <__bad_interrupt>
      56:	00 00       	nop
      58:	85 c0       	rjmp	.+266    	; 0x164 <__bad_interrupt>
      5a:	00 00       	nop
      5c:	83 c0       	rjmp	.+262    	; 0x164 <__bad_interrupt>
      5e:	00 00       	nop
      60:	81 c0       	rjmp	.+258    	; 0x164 <__bad_interrupt>
      62:	00 00       	nop
      64:	0c 94 ab 09 	jmp	0x1356	; 0x1356 <__vector_25>
      68:	0c 94 6e 09 	jmp	0x12dc	; 0x12dc <__vector_26>
      6c:	7b c0       	rjmp	.+246    	; 0x164 <__bad_interrupt>
      6e:	00 00       	nop
      70:	79 c0       	rjmp	.+242    	; 0x164 <__bad_interrupt>
      72:	00 00       	nop
      74:	77 c0       	rjmp	.+238    	; 0x164 <__bad_interrupt>
      76:	00 00       	nop
      78:	75 c0       	rjmp	.+234    	; 0x164 <__bad_interrupt>
      7a:	00 00       	nop
      7c:	73 c0       	rjmp	.+230    	; 0x164 <__bad_interrupt>
      7e:	00 00       	nop
      80:	71 c0       	rjmp	.+226    	; 0x164 <__bad_interrupt>
      82:	00 00       	nop
      84:	6f c0       	rjmp	.+222    	; 0x164 <__bad_interrupt>
      86:	00 00       	nop
      88:	6d c0       	rjmp	.+218    	; 0x164 <__bad_interrupt>
      8a:	00 00       	nop
      8c:	6b c0       	rjmp	.+214    	; 0x164 <__bad_interrupt>
      8e:	00 00       	nop
      90:	0c 94 13 0a 	jmp	0x1426	; 0x1426 <__vector_36>
      94:	0c 94 d6 09 	jmp	0x13ac	; 0x13ac <__vector_37>
      98:	65 c0       	rjmp	.+202    	; 0x164 <__bad_interrupt>
      9a:	00 00       	nop
      9c:	63 c0       	rjmp	.+198    	; 0x164 <__bad_interrupt>
      9e:	00 00       	nop
      a0:	61 c0       	rjmp	.+194    	; 0x164 <__bad_interrupt>
      a2:	00 00       	nop
      a4:	5f c0       	rjmp	.+190    	; 0x164 <__bad_interrupt>
      a6:	00 00       	nop
      a8:	5d c0       	rjmp	.+186    	; 0x164 <__bad_interrupt>
      aa:	00 00       	nop
      ac:	5b c0       	rjmp	.+182    	; 0x164 <__bad_interrupt>
      ae:	00 00       	nop
      b0:	59 c0       	rjmp	.+178    	; 0x164 <__bad_interrupt>
      b2:	00 00       	nop
      b4:	57 c0       	rjmp	.+174    	; 0x164 <__bad_interrupt>
      b6:	00 00       	nop
      b8:	55 c0       	rjmp	.+170    	; 0x164 <__bad_interrupt>
      ba:	00 00       	nop
      bc:	53 c0       	rjmp	.+166    	; 0x164 <__bad_interrupt>
      be:	00 00       	nop
      c0:	51 c0       	rjmp	.+162    	; 0x164 <__bad_interrupt>
      c2:	00 00       	nop
      c4:	4f c0       	rjmp	.+158    	; 0x164 <__bad_interrupt>
      c6:	00 00       	nop
      c8:	4d c0       	rjmp	.+154    	; 0x164 <__bad_interrupt>
      ca:	00 00       	nop
      cc:	0c 94 7b 0a 	jmp	0x14f6	; 0x14f6 <__vector_51>
      d0:	0c 94 3e 0a 	jmp	0x147c	; 0x147c <__vector_52>
      d4:	47 c0       	rjmp	.+142    	; 0x164 <__bad_interrupt>
      d6:	00 00       	nop
      d8:	45 c0       	rjmp	.+138    	; 0x164 <__bad_interrupt>
      da:	00 00       	nop
      dc:	43 c0       	rjmp	.+134    	; 0x164 <__bad_interrupt>
      de:	00 00       	nop
      e0:	41 c0       	rjmp	.+130    	; 0x164 <__bad_interrupt>
      e2:	00 00       	nop
      e4:	e5 00       	.word	0x00e5	; ????
      e6:	8e 01       	movw	r16, r28
      e8:	4f 02       	muls	r20, r31
      ea:	b3 01       	movw	r22, r6
      ec:	d8 01       	movw	r26, r16
      ee:	4f 02       	muls	r20, r31
      f0:	4f 02       	muls	r20, r31
      f2:	74 02       	muls	r23, r20
      f4:	76 02       	muls	r23, r22
      f6:	78 02       	muls	r23, r24
      f8:	7a 02       	muls	r23, r26
      fa:	7c 02       	muls	r23, r28
      fc:	7e 02       	muls	r23, r30
      fe:	80 02       	muls	r24, r16
     100:	82 02       	muls	r24, r18
     102:	88 02       	muls	r24, r24
     104:	8e 02       	muls	r24, r30
     106:	94 02       	muls	r25, r20
     108:	9a 02       	muls	r25, r26
     10a:	ab 02       	muls	r26, r27
     10c:	ad 02       	muls	r26, r29
     10e:	af 02       	muls	r26, r31
     110:	b1 02       	muls	r27, r17
     112:	b3 02       	muls	r27, r19
     114:	b5 02       	muls	r27, r21
     116:	b7 02       	muls	r27, r23
     118:	b9 02       	muls	r27, r25
     11a:	bf 02       	muls	r27, r31
     11c:	c5 02       	muls	r28, r21
     11e:	cb 02       	muls	r28, r27
     120:	d1 02       	muls	r29, r17

00000122 <__ctors_end>:
     122:	11 24       	eor	r1, r1
     124:	1f be       	out	0x3f, r1	; 63
     126:	cf ef       	ldi	r28, 0xFF	; 255
     128:	d1 e2       	ldi	r29, 0x21	; 33
     12a:	de bf       	out	0x3e, r29	; 62
     12c:	cd bf       	out	0x3d, r28	; 61
     12e:	00 e0       	ldi	r16, 0x00	; 0
     130:	0c bf       	out	0x3c, r16	; 60

00000132 <__do_copy_data>:
     132:	14 e0       	ldi	r17, 0x04	; 4
     134:	a0 e0       	ldi	r26, 0x00	; 0
     136:	b2 e0       	ldi	r27, 0x02	; 2
     138:	ee e5       	ldi	r30, 0x5E	; 94
     13a:	fe e1       	ldi	r31, 0x1E	; 30
     13c:	00 e0       	ldi	r16, 0x00	; 0
     13e:	0b bf       	out	0x3b, r16	; 59
     140:	02 c0       	rjmp	.+4      	; 0x146 <__do_copy_data+0x14>
     142:	07 90       	elpm	r0, Z+
     144:	0d 92       	st	X+, r0
     146:	a4 3d       	cpi	r26, 0xD4	; 212
     148:	b1 07       	cpc	r27, r17
     14a:	d9 f7       	brne	.-10     	; 0x142 <__do_copy_data+0x10>

0000014c <__do_clear_bss>:
     14c:	25 e1       	ldi	r18, 0x15	; 21
     14e:	a4 ed       	ldi	r26, 0xD4	; 212
     150:	b4 e0       	ldi	r27, 0x04	; 4
     152:	01 c0       	rjmp	.+2      	; 0x156 <.do_clear_bss_start>

00000154 <.do_clear_bss_loop>:
     154:	1d 92       	st	X+, r1

00000156 <.do_clear_bss_start>:
     156:	ab 30       	cpi	r26, 0x0B	; 11
     158:	b2 07       	cpc	r27, r18
     15a:	e1 f7       	brne	.-8      	; 0x154 <.do_clear_bss_loop>
     15c:	0e 94 a6 0a 	call	0x154c	; 0x154c <main>
     160:	0c 94 2d 0f 	jmp	0x1e5a	; 0x1e5a <_exit>

00000164 <__bad_interrupt>:
     164:	4d cf       	rjmp	.-358    	; 0x0 <__vectors>

00000166 <cocktail_check_command>:
		case 11:
		val = FLUSS11_PIN & FLUSS11_BIT;
		break;
	}
	return val;
}
     166:	2f 92       	push	r2
     168:	3f 92       	push	r3
     16a:	4f 92       	push	r4
     16c:	5f 92       	push	r5
     16e:	6f 92       	push	r6
     170:	7f 92       	push	r7
     172:	8f 92       	push	r8
     174:	9f 92       	push	r9
     176:	af 92       	push	r10
     178:	bf 92       	push	r11
     17a:	cf 92       	push	r12
     17c:	df 92       	push	r13
     17e:	ef 92       	push	r14
     180:	ff 92       	push	r15
     182:	0f 93       	push	r16
     184:	1f 93       	push	r17
     186:	cf 93       	push	r28
     188:	df 93       	push	r29
     18a:	cd b7       	in	r28, 0x3d	; 61
     18c:	de b7       	in	r29, 0x3e	; 62
     18e:	c4 50       	subi	r28, 0x04	; 4
     190:	d1 40       	sbci	r29, 0x01	; 1
     192:	0f b6       	in	r0, 0x3f	; 63
     194:	f8 94       	cli
     196:	de bf       	out	0x3e, r29	; 62
     198:	0f be       	out	0x3f, r0	; 63
     19a:	cd bf       	out	0x3d, r28	; 61
     19c:	82 30       	cpi	r24, 0x02	; 2
     19e:	09 f4       	brne	.+2      	; 0x1a2 <cocktail_check_command+0x3c>
     1a0:	54 c1       	rjmp	.+680    	; 0x44a <__LOCK_REGION_LENGTH__+0x4a>
     1a2:	83 30       	cpi	r24, 0x03	; 3
     1a4:	09 f4       	brne	.+2      	; 0x1a8 <cocktail_check_command+0x42>
     1a6:	77 c1       	rjmp	.+750    	; 0x496 <__LOCK_REGION_LENGTH__+0x96>
     1a8:	81 30       	cpi	r24, 0x01	; 1
     1aa:	09 f0       	breq	.+2      	; 0x1ae <cocktail_check_command+0x48>
     1ac:	78 c1       	rjmp	.+752    	; 0x49e <__LOCK_REGION_LENGTH__+0x9e>
     1ae:	86 2f       	mov	r24, r22
     1b0:	90 e0       	ldi	r25, 0x00	; 0
     1b2:	fc 01       	movw	r30, r24
     1b4:	32 97       	sbiw	r30, 0x02	; 2
     1b6:	e7 30       	cpi	r30, 0x07	; 7
     1b8:	f1 05       	cpc	r31, r1
     1ba:	08 f0       	brcs	.+2      	; 0x1be <cocktail_check_command+0x58>
     1bc:	70 c1       	rjmp	.+736    	; 0x49e <__LOCK_REGION_LENGTH__+0x9e>
     1be:	88 27       	eor	r24, r24
     1c0:	ee 58       	subi	r30, 0x8E	; 142
     1c2:	ff 4f       	sbci	r31, 0xFF	; 255
     1c4:	8f 4f       	sbci	r24, 0xFF	; 255
     1c6:	0c 94 80 0d 	jmp	0x1b00	; 0x1b00 <__tablejump2__>
     1ca:	82 e0       	ldi	r24, 0x02	; 2
     1cc:	bb d4       	rcall	.+2422   	; 0xb44 <nextion_change_page>
     1ce:	e0 91 fa 0e 	lds	r30, 0x0EFA	; 0x800efa <aktuellesGetraenk>
     1d2:	f0 91 fb 0e 	lds	r31, 0x0EFB	; 0x800efb <aktuellesGetraenk+0x1>
     1d6:	60 81       	ld	r22, Z
     1d8:	71 81       	ldd	r23, Z+1	; 0x01
     1da:	88 ee       	ldi	r24, 0xE8	; 232
     1dc:	93 e0       	ldi	r25, 0x03	; 3
     1de:	cf d4       	rcall	.+2462   	; 0xb7e <nextion_setText>
     1e0:	00 91 e9 06 	lds	r16, 0x06E9	; 0x8006e9 <head_zut>
     1e4:	10 91 ea 06 	lds	r17, 0x06EA	; 0x8006ea <head_zut+0x1>
     1e8:	fe 01       	movw	r30, r28
     1ea:	31 96       	adiw	r30, 0x01	; 1
     1ec:	80 e0       	ldi	r24, 0x00	; 0
     1ee:	91 e0       	ldi	r25, 0x01	; 1
     1f0:	df 01       	movw	r26, r30
     1f2:	9c 01       	movw	r18, r24
     1f4:	1d 92       	st	X+, r1
     1f6:	21 50       	subi	r18, 0x01	; 1
     1f8:	30 40       	sbci	r19, 0x00	; 0
     1fa:	e1 f7       	brne	.-8      	; 0x1f4 <cocktail_check_command+0x8e>
     1fc:	cf 5f       	subi	r28, 0xFF	; 255
     1fe:	de 4f       	sbci	r29, 0xFE	; 254
     200:	18 82       	st	Y, r1
     202:	19 82       	std	Y+1, r1	; 0x01
     204:	1a 82       	std	Y+2, r1	; 0x02
     206:	1b 82       	std	Y+3, r1	; 0x03
     208:	c1 50       	subi	r28, 0x01	; 1
     20a:	d1 40       	sbci	r29, 0x01	; 1
     20c:	e1 2c       	mov	r14, r1
     20e:	f1 2c       	mov	r15, r1
     210:	6f 01       	movw	r12, r30
     212:	0f 2e       	mov	r0, r31
     214:	f4 e1       	ldi	r31, 0x14	; 20
     216:	af 2e       	mov	r10, r31
     218:	b1 2c       	mov	r11, r1
     21a:	f0 2d       	mov	r31, r0
     21c:	0f 2e       	mov	r0, r31
     21e:	fd e2       	ldi	r31, 0x2D	; 45
     220:	8f 2e       	mov	r8, r31
     222:	91 2c       	mov	r9, r1
     224:	f0 2d       	mov	r31, r0
     226:	0f 2e       	mov	r0, r31
     228:	f8 e2       	ldi	r31, 0x28	; 40
     22a:	2f 2e       	mov	r2, r31
     22c:	31 2c       	mov	r3, r1
     22e:	f0 2d       	mov	r31, r0
     230:	60 90 fa 0e 	lds	r6, 0x0EFA	; 0x800efa <aktuellesGetraenk>
     234:	70 90 fb 0e 	lds	r7, 0x0EFB	; 0x800efb <aktuellesGetraenk+0x1>
     238:	27 01       	movw	r4, r14
     23a:	d3 01       	movw	r26, r6
     23c:	14 96       	adiw	r26, 0x04	; 4
     23e:	ed 91       	ld	r30, X+
     240:	fc 91       	ld	r31, X
     242:	15 97       	sbiw	r26, 0x05	; 5
     244:	ee 0d       	add	r30, r14
     246:	ff 1d       	adc	r31, r15
     248:	80 81       	ld	r24, Z
     24a:	88 23       	and	r24, r24
     24c:	09 f4       	brne	.+2      	; 0x250 <cocktail_check_command+0xea>
     24e:	52 c0       	rjmp	.+164    	; 0x2f4 <cocktail_check_command+0x18e>
     250:	f8 01       	movw	r30, r16
     252:	60 81       	ld	r22, Z
     254:	71 81       	ldd	r23, Z+1	; 0x01
     256:	c6 01       	movw	r24, r12
     258:	0e 94 e7 0e 	call	0x1dce	; 0x1dce <strcat>
     25c:	80 e0       	ldi	r24, 0x00	; 0
     25e:	90 e0       	ldi	r25, 0x00	; 0
     260:	08 c0       	rjmp	.+16     	; 0x272 <cocktail_check_command+0x10c>
     262:	f6 01       	movw	r30, r12
     264:	01 90       	ld	r0, Z+
     266:	00 20       	and	r0, r0
     268:	e9 f7       	brne	.-6      	; 0x264 <cocktail_check_command+0xfe>
     26a:	31 97       	sbiw	r30, 0x01	; 1
     26c:	91 82       	std	Z+1, r9	; 0x01
     26e:	80 82       	st	Z, r8
     270:	01 96       	adiw	r24, 0x01	; 1
     272:	f8 01       	movw	r30, r16
     274:	a0 81       	ld	r26, Z
     276:	b1 81       	ldd	r27, Z+1	; 0x01
     278:	fd 01       	movw	r30, r26
     27a:	01 90       	ld	r0, Z+
     27c:	00 20       	and	r0, r0
     27e:	e9 f7       	brne	.-6      	; 0x27a <cocktail_check_command+0x114>
     280:	31 97       	sbiw	r30, 0x01	; 1
     282:	ea 1b       	sub	r30, r26
     284:	fb 0b       	sbc	r31, r27
     286:	95 01       	movw	r18, r10
     288:	2e 1b       	sub	r18, r30
     28a:	3f 0b       	sbc	r19, r31
     28c:	82 17       	cp	r24, r18
     28e:	93 07       	cpc	r25, r19
     290:	40 f3       	brcs	.-48     	; 0x262 <cocktail_check_command+0xfc>
     292:	f6 01       	movw	r30, r12
     294:	01 90       	ld	r0, Z+
     296:	00 20       	and	r0, r0
     298:	e9 f7       	brne	.-6      	; 0x294 <cocktail_check_command+0x12e>
     29a:	31 97       	sbiw	r30, 0x01	; 1
     29c:	31 82       	std	Z+1, r3	; 0x01
     29e:	20 82       	st	Z, r2
     2a0:	d3 01       	movw	r26, r6
     2a2:	14 96       	adiw	r26, 0x04	; 4
     2a4:	8d 91       	ld	r24, X+
     2a6:	9c 91       	ld	r25, X
     2a8:	15 97       	sbiw	r26, 0x05	; 5
     2aa:	fc 01       	movw	r30, r24
     2ac:	e4 0d       	add	r30, r4
     2ae:	f5 1d       	adc	r31, r5
     2b0:	80 81       	ld	r24, Z
     2b2:	4a e0       	ldi	r20, 0x0A	; 10
     2b4:	be 01       	movw	r22, r28
     2b6:	6f 5f       	subi	r22, 0xFF	; 255
     2b8:	7e 4f       	sbci	r23, 0xFE	; 254
     2ba:	90 e0       	ldi	r25, 0x00	; 0
     2bc:	0e 94 f2 0e 	call	0x1de4	; 0x1de4 <__itoa_ncheck>
     2c0:	be 01       	movw	r22, r28
     2c2:	6f 5f       	subi	r22, 0xFF	; 255
     2c4:	7e 4f       	sbci	r23, 0xFE	; 254
     2c6:	c6 01       	movw	r24, r12
     2c8:	0e 94 e7 0e 	call	0x1dce	; 0x1dce <strcat>
     2cc:	f6 01       	movw	r30, r12
     2ce:	01 90       	ld	r0, Z+
     2d0:	00 20       	and	r0, r0
     2d2:	e9 f7       	brne	.-6      	; 0x2ce <cocktail_check_command+0x168>
     2d4:	31 97       	sbiw	r30, 0x01	; 1
     2d6:	25 e2       	ldi	r18, 0x25	; 37
     2d8:	39 e2       	ldi	r19, 0x29	; 41
     2da:	31 83       	std	Z+1, r19	; 0x01
     2dc:	20 83       	st	Z, r18
     2de:	12 82       	std	Z+2, r1	; 0x02
     2e0:	f6 01       	movw	r30, r12
     2e2:	01 90       	ld	r0, Z+
     2e4:	00 20       	and	r0, r0
     2e6:	e9 f7       	brne	.-6      	; 0x2e2 <cocktail_check_command+0x17c>
     2e8:	31 97       	sbiw	r30, 0x01	; 1
     2ea:	8c e5       	ldi	r24, 0x5C	; 92
     2ec:	92 e7       	ldi	r25, 0x72	; 114
     2ee:	91 83       	std	Z+1, r25	; 0x01
     2f0:	80 83       	st	Z, r24
     2f2:	12 82       	std	Z+2, r1	; 0x02
     2f4:	d8 01       	movw	r26, r16
     2f6:	12 96       	adiw	r26, 0x02	; 2
     2f8:	0d 91       	ld	r16, X+
     2fa:	1c 91       	ld	r17, X
     2fc:	13 97       	sbiw	r26, 0x03	; 3
     2fe:	bf ef       	ldi	r27, 0xFF	; 255
     300:	eb 1a       	sub	r14, r27
     302:	fb 0a       	sbc	r15, r27
     304:	ec e0       	ldi	r30, 0x0C	; 12
     306:	ee 16       	cp	r14, r30
     308:	f1 04       	cpc	r15, r1
     30a:	09 f0       	breq	.+2      	; 0x30e <cocktail_check_command+0x1a8>
     30c:	91 cf       	rjmp	.-222    	; 0x230 <cocktail_check_command+0xca>
     30e:	be 01       	movw	r22, r28
     310:	6f 5f       	subi	r22, 0xFF	; 255
     312:	7f 4f       	sbci	r23, 0xFF	; 255
     314:	85 ef       	ldi	r24, 0xF5	; 245
     316:	93 e0       	ldi	r25, 0x03	; 3
     318:	32 d4       	rcall	.+2148   	; 0xb7e <nextion_setText>
     31a:	c1 c0       	rjmp	.+386    	; 0x49e <__LOCK_REGION_LENGTH__+0x9e>
     31c:	e0 91 fa 0e 	lds	r30, 0x0EFA	; 0x800efa <aktuellesGetraenk>
     320:	f0 91 fb 0e 	lds	r31, 0x0EFB	; 0x800efb <aktuellesGetraenk+0x1>
     324:	01 84       	ldd	r0, Z+9	; 0x09
     326:	f2 85       	ldd	r31, Z+10	; 0x0a
     328:	e0 2d       	mov	r30, r0
     32a:	f0 93 fb 0e 	sts	0x0EFB, r31	; 0x800efb <aktuellesGetraenk+0x1>
     32e:	e0 93 fa 0e 	sts	0x0EFA, r30	; 0x800efa <aktuellesGetraenk>
     332:	60 81       	ld	r22, Z
     334:	71 81       	ldd	r23, Z+1	; 0x01
     336:	88 ee       	ldi	r24, 0xE8	; 232
     338:	93 e0       	ldi	r25, 0x03	; 3
     33a:	21 d4       	rcall	.+2114   	; 0xb7e <nextion_setText>
     33c:	e0 91 fa 0e 	lds	r30, 0x0EFA	; 0x800efa <aktuellesGetraenk>
     340:	f0 91 fb 0e 	lds	r31, 0x0EFB	; 0x800efb <aktuellesGetraenk+0x1>
     344:	86 81       	ldd	r24, Z+6	; 0x06
     346:	4a e0       	ldi	r20, 0x0A	; 10
     348:	be 01       	movw	r22, r28
     34a:	6f 5f       	subi	r22, 0xFF	; 255
     34c:	7e 4f       	sbci	r23, 0xFE	; 254
     34e:	90 e0       	ldi	r25, 0x00	; 0
     350:	0e 94 f2 0e 	call	0x1de4	; 0x1de4 <__itoa_ncheck>
     354:	ae 01       	movw	r20, r28
     356:	4f 5f       	subi	r20, 0xFF	; 255
     358:	5e 4f       	sbci	r21, 0xFE	; 254
     35a:	62 e0       	ldi	r22, 0x02	; 2
     35c:	74 e0       	ldi	r23, 0x04	; 4
     35e:	85 e0       	ldi	r24, 0x05	; 5
     360:	94 e0       	ldi	r25, 0x04	; 4
     362:	20 d4       	rcall	.+2112   	; 0xba4 <nextion_setPicture>
     364:	9c c0       	rjmp	.+312    	; 0x49e <__LOCK_REGION_LENGTH__+0x9e>
     366:	e0 91 fa 0e 	lds	r30, 0x0EFA	; 0x800efa <aktuellesGetraenk>
     36a:	f0 91 fb 0e 	lds	r31, 0x0EFB	; 0x800efb <aktuellesGetraenk+0x1>
     36e:	07 80       	ldd	r0, Z+7	; 0x07
     370:	f0 85       	ldd	r31, Z+8	; 0x08
     372:	e0 2d       	mov	r30, r0
     374:	f0 93 fb 0e 	sts	0x0EFB, r31	; 0x800efb <aktuellesGetraenk+0x1>
     378:	e0 93 fa 0e 	sts	0x0EFA, r30	; 0x800efa <aktuellesGetraenk>
     37c:	60 81       	ld	r22, Z
     37e:	71 81       	ldd	r23, Z+1	; 0x01
     380:	88 ee       	ldi	r24, 0xE8	; 232
     382:	93 e0       	ldi	r25, 0x03	; 3
     384:	fc d3       	rcall	.+2040   	; 0xb7e <nextion_setText>
     386:	e0 91 fa 0e 	lds	r30, 0x0EFA	; 0x800efa <aktuellesGetraenk>
     38a:	f0 91 fb 0e 	lds	r31, 0x0EFB	; 0x800efb <aktuellesGetraenk+0x1>
     38e:	86 81       	ldd	r24, Z+6	; 0x06
     390:	4a e0       	ldi	r20, 0x0A	; 10
     392:	be 01       	movw	r22, r28
     394:	6f 5f       	subi	r22, 0xFF	; 255
     396:	7e 4f       	sbci	r23, 0xFE	; 254
     398:	90 e0       	ldi	r25, 0x00	; 0
     39a:	0e 94 f2 0e 	call	0x1de4	; 0x1de4 <__itoa_ncheck>
     39e:	ae 01       	movw	r20, r28
     3a0:	4f 5f       	subi	r20, 0xFF	; 255
     3a2:	5e 4f       	sbci	r21, 0xFE	; 254
     3a4:	62 e0       	ldi	r22, 0x02	; 2
     3a6:	74 e0       	ldi	r23, 0x04	; 4
     3a8:	85 e0       	ldi	r24, 0x05	; 5
     3aa:	94 e0       	ldi	r25, 0x04	; 4
     3ac:	fb d3       	rcall	.+2038   	; 0xba4 <nextion_setPicture>
     3ae:	77 c0       	rjmp	.+238    	; 0x49e <__LOCK_REGION_LENGTH__+0x9e>
     3b0:	83 e0       	ldi	r24, 0x03	; 3
     3b2:	c8 d3       	rcall	.+1936   	; 0xb44 <nextion_change_page>
     3b4:	ee 24       	eor	r14, r14
     3b6:	e3 94       	inc	r14
     3b8:	f1 2c       	mov	r15, r1
     3ba:	0f 2e       	mov	r0, r31
     3bc:	f4 e1       	ldi	r31, 0x14	; 20
     3be:	df 2e       	mov	r13, r31
     3c0:	f0 2d       	mov	r31, r0
     3c2:	8e 01       	movw	r16, r28
     3c4:	0f 5f       	subi	r16, 0xFF	; 255
     3c6:	1f 4f       	sbci	r17, 0xFF	; 255
     3c8:	d8 01       	movw	r26, r16
     3ca:	ed 2d       	mov	r30, r13
     3cc:	1d 92       	st	X+, r1
     3ce:	ea 95       	dec	r30
     3d0:	e9 f7       	brne	.-6      	; 0x3cc <cocktail_check_command+0x266>
     3d2:	cf 5f       	subi	r28, 0xFF	; 255
     3d4:	de 4f       	sbci	r29, 0xFE	; 254
     3d6:	18 82       	st	Y, r1
     3d8:	19 82       	std	Y+1, r1	; 0x01
     3da:	1a 82       	std	Y+2, r1	; 0x02
     3dc:	1b 82       	std	Y+3, r1	; 0x03
     3de:	c1 50       	subi	r28, 0x01	; 1
     3e0:	d1 40       	sbci	r29, 0x01	; 1
     3e2:	d8 01       	movw	r26, r16
     3e4:	0d 90       	ld	r0, X+
     3e6:	00 20       	and	r0, r0
     3e8:	e9 f7       	brne	.-6      	; 0x3e4 <cocktail_check_command+0x27e>
     3ea:	11 97       	sbiw	r26, 0x01	; 1
     3ec:	89 e0       	ldi	r24, 0x09	; 9
     3ee:	e9 e0       	ldi	r30, 0x09	; 9
     3f0:	f4 e0       	ldi	r31, 0x04	; 4
     3f2:	01 90       	ld	r0, Z+
     3f4:	0d 92       	st	X+, r0
     3f6:	8a 95       	dec	r24
     3f8:	e1 f7       	brne	.-8      	; 0x3f2 <cocktail_check_command+0x28c>
     3fa:	4a e0       	ldi	r20, 0x0A	; 10
     3fc:	be 01       	movw	r22, r28
     3fe:	6f 5f       	subi	r22, 0xFF	; 255
     400:	7e 4f       	sbci	r23, 0xFE	; 254
     402:	c7 01       	movw	r24, r14
     404:	0e 94 f2 0e 	call	0x1de4	; 0x1de4 <__itoa_ncheck>
     408:	be 01       	movw	r22, r28
     40a:	6f 5f       	subi	r22, 0xFF	; 255
     40c:	7e 4f       	sbci	r23, 0xFE	; 254
     40e:	c8 01       	movw	r24, r16
     410:	0e 94 e7 0e 	call	0x1dce	; 0x1dce <strcat>
     414:	e0 91 fa 0e 	lds	r30, 0x0EFA	; 0x800efa <aktuellesGetraenk>
     418:	f0 91 fb 0e 	lds	r31, 0x0EFB	; 0x800efb <aktuellesGetraenk+0x1>
     41c:	60 81       	ld	r22, Z
     41e:	71 81       	ldd	r23, Z+1	; 0x01
     420:	c8 01       	movw	r24, r16
     422:	ad d3       	rcall	.+1882   	; 0xb7e <nextion_setText>
     424:	e0 91 fa 0e 	lds	r30, 0x0EFA	; 0x800efa <aktuellesGetraenk>
     428:	f0 91 fb 0e 	lds	r31, 0x0EFB	; 0x800efb <aktuellesGetraenk+0x1>
     42c:	87 81       	ldd	r24, Z+7	; 0x07
     42e:	90 85       	ldd	r25, Z+8	; 0x08
     430:	90 93 fb 0e 	sts	0x0EFB, r25	; 0x800efb <aktuellesGetraenk+0x1>
     434:	80 93 fa 0e 	sts	0x0EFA, r24	; 0x800efa <aktuellesGetraenk>
     438:	ff ef       	ldi	r31, 0xFF	; 255
     43a:	ef 1a       	sub	r14, r31
     43c:	ff 0a       	sbc	r15, r31
     43e:	29 e0       	ldi	r18, 0x09	; 9
     440:	e2 16       	cp	r14, r18
     442:	f1 04       	cpc	r15, r1
     444:	09 f0       	breq	.+2      	; 0x448 <__LOCK_REGION_LENGTH__+0x48>
     446:	c0 cf       	rjmp	.-128    	; 0x3c8 <cocktail_check_command+0x262>
     448:	2a c0       	rjmp	.+84     	; 0x49e <__LOCK_REGION_LENGTH__+0x9e>
     44a:	62 30       	cpi	r22, 0x02	; 2
     44c:	41 f5       	brne	.+80     	; 0x49e <__LOCK_REGION_LENGTH__+0x9e>
     44e:	81 e0       	ldi	r24, 0x01	; 1
     450:	79 d3       	rcall	.+1778   	; 0xb44 <nextion_change_page>
     452:	e0 91 fa 0e 	lds	r30, 0x0EFA	; 0x800efa <aktuellesGetraenk>
     456:	f0 91 fb 0e 	lds	r31, 0x0EFB	; 0x800efb <aktuellesGetraenk+0x1>
     45a:	60 81       	ld	r22, Z
     45c:	71 81       	ldd	r23, Z+1	; 0x01
     45e:	88 ee       	ldi	r24, 0xE8	; 232
     460:	93 e0       	ldi	r25, 0x03	; 3
     462:	8d d3       	rcall	.+1818   	; 0xb7e <nextion_setText>
     464:	19 82       	std	Y+1, r1	; 0x01
     466:	1a 82       	std	Y+2, r1	; 0x02
     468:	1b 82       	std	Y+3, r1	; 0x03
     46a:	1c 82       	std	Y+4, r1	; 0x04
     46c:	e0 91 fa 0e 	lds	r30, 0x0EFA	; 0x800efa <aktuellesGetraenk>
     470:	f0 91 fb 0e 	lds	r31, 0x0EFB	; 0x800efb <aktuellesGetraenk+0x1>
     474:	86 81       	ldd	r24, Z+6	; 0x06
     476:	4a e0       	ldi	r20, 0x0A	; 10
     478:	be 01       	movw	r22, r28
     47a:	6f 5f       	subi	r22, 0xFF	; 255
     47c:	7f 4f       	sbci	r23, 0xFF	; 255
     47e:	90 e0       	ldi	r25, 0x00	; 0
     480:	0e 94 f2 0e 	call	0x1de4	; 0x1de4 <__itoa_ncheck>
     484:	ae 01       	movw	r20, r28
     486:	4f 5f       	subi	r20, 0xFF	; 255
     488:	5f 4f       	sbci	r21, 0xFF	; 255
     48a:	62 e0       	ldi	r22, 0x02	; 2
     48c:	74 e0       	ldi	r23, 0x04	; 4
     48e:	85 e0       	ldi	r24, 0x05	; 5
     490:	94 e0       	ldi	r25, 0x04	; 4
     492:	88 d3       	rcall	.+1808   	; 0xba4 <nextion_setPicture>
     494:	04 c0       	rjmp	.+8      	; 0x49e <__LOCK_REGION_LENGTH__+0x9e>
     496:	61 30       	cpi	r22, 0x01	; 1
     498:	11 f4       	brne	.+4      	; 0x49e <__LOCK_REGION_LENGTH__+0x9e>
     49a:	81 e0       	ldi	r24, 0x01	; 1
     49c:	53 d3       	rcall	.+1702   	; 0xb44 <nextion_change_page>
     49e:	cc 5f       	subi	r28, 0xFC	; 252
     4a0:	de 4f       	sbci	r29, 0xFE	; 254
     4a2:	0f b6       	in	r0, 0x3f	; 63
     4a4:	f8 94       	cli
     4a6:	de bf       	out	0x3e, r29	; 62
     4a8:	0f be       	out	0x3f, r0	; 63
     4aa:	cd bf       	out	0x3d, r28	; 61
     4ac:	df 91       	pop	r29
     4ae:	cf 91       	pop	r28
     4b0:	1f 91       	pop	r17
     4b2:	0f 91       	pop	r16
     4b4:	ff 90       	pop	r15
     4b6:	ef 90       	pop	r14
     4b8:	df 90       	pop	r13
     4ba:	cf 90       	pop	r12
     4bc:	bf 90       	pop	r11
     4be:	af 90       	pop	r10
     4c0:	9f 90       	pop	r9
     4c2:	8f 90       	pop	r8
     4c4:	7f 90       	pop	r7
     4c6:	6f 90       	pop	r6
     4c8:	5f 90       	pop	r5
     4ca:	4f 90       	pop	r4
     4cc:	3f 90       	pop	r3
     4ce:	2f 90       	pop	r2
     4d0:	08 95       	ret

000004d2 <schalte_pumpe_ein>:
     4d2:	90 e0       	ldi	r25, 0x00	; 0
     4d4:	8c 30       	cpi	r24, 0x0C	; 12
     4d6:	91 05       	cpc	r25, r1
     4d8:	90 f5       	brcc	.+100    	; 0x53e <schalte_pumpe_ein+0x6c>
     4da:	fc 01       	movw	r30, r24
     4dc:	88 27       	eor	r24, r24
     4de:	e7 58       	subi	r30, 0x87	; 135
     4e0:	ff 4f       	sbci	r31, 0xFF	; 255
     4e2:	8f 4f       	sbci	r24, 0xFF	; 255
     4e4:	0c 94 80 0d 	jmp	0x1b00	; 0x1b00 <__tablejump2__>
     4e8:	12 9a       	sbi	0x02, 2	; 2
     4ea:	08 95       	ret
     4ec:	13 9a       	sbi	0x02, 3	; 2
     4ee:	08 95       	ret
     4f0:	14 9a       	sbi	0x02, 4	; 2
     4f2:	08 95       	ret
     4f4:	15 9a       	sbi	0x02, 5	; 2
     4f6:	08 95       	ret
     4f8:	16 9a       	sbi	0x02, 6	; 2
     4fa:	08 95       	ret
     4fc:	17 9a       	sbi	0x02, 7	; 2
     4fe:	08 95       	ret
     500:	a2 9a       	sbi	0x14, 2	; 20
     502:	08 95       	ret
     504:	e5 e0       	ldi	r30, 0x05	; 5
     506:	f1 e0       	ldi	r31, 0x01	; 1
     508:	80 81       	ld	r24, Z
     50a:	80 64       	ori	r24, 0x40	; 64
     50c:	80 83       	st	Z, r24
     50e:	08 95       	ret
     510:	e5 e0       	ldi	r30, 0x05	; 5
     512:	f1 e0       	ldi	r31, 0x01	; 1
     514:	80 81       	ld	r24, Z
     516:	80 62       	ori	r24, 0x20	; 32
     518:	80 83       	st	Z, r24
     51a:	08 95       	ret
     51c:	e5 e0       	ldi	r30, 0x05	; 5
     51e:	f1 e0       	ldi	r31, 0x01	; 1
     520:	80 81       	ld	r24, Z
     522:	80 61       	ori	r24, 0x10	; 16
     524:	80 83       	st	Z, r24
     526:	08 95       	ret
     528:	e5 e0       	ldi	r30, 0x05	; 5
     52a:	f1 e0       	ldi	r31, 0x01	; 1
     52c:	80 81       	ld	r24, Z
     52e:	88 60       	ori	r24, 0x08	; 8
     530:	80 83       	st	Z, r24
     532:	08 95       	ret
     534:	e5 e0       	ldi	r30, 0x05	; 5
     536:	f1 e0       	ldi	r31, 0x01	; 1
     538:	80 81       	ld	r24, Z
     53a:	84 60       	ori	r24, 0x04	; 4
     53c:	80 83       	st	Z, r24
     53e:	08 95       	ret

00000540 <schalte_pumpe_aus>:
     540:	90 e0       	ldi	r25, 0x00	; 0
     542:	8c 30       	cpi	r24, 0x0C	; 12
     544:	91 05       	cpc	r25, r1
     546:	90 f5       	brcc	.+100    	; 0x5ac <schalte_pumpe_aus+0x6c>
     548:	fc 01       	movw	r30, r24
     54a:	88 27       	eor	r24, r24
     54c:	eb 57       	subi	r30, 0x7B	; 123
     54e:	ff 4f       	sbci	r31, 0xFF	; 255
     550:	8f 4f       	sbci	r24, 0xFF	; 255
     552:	0c 94 80 0d 	jmp	0x1b00	; 0x1b00 <__tablejump2__>
     556:	12 98       	cbi	0x02, 2	; 2
     558:	08 95       	ret
     55a:	13 98       	cbi	0x02, 3	; 2
     55c:	08 95       	ret
     55e:	14 98       	cbi	0x02, 4	; 2
     560:	08 95       	ret
     562:	15 98       	cbi	0x02, 5	; 2
     564:	08 95       	ret
     566:	16 98       	cbi	0x02, 6	; 2
     568:	08 95       	ret
     56a:	17 98       	cbi	0x02, 7	; 2
     56c:	08 95       	ret
     56e:	a2 98       	cbi	0x14, 2	; 20
     570:	08 95       	ret
     572:	e5 e0       	ldi	r30, 0x05	; 5
     574:	f1 e0       	ldi	r31, 0x01	; 1
     576:	80 81       	ld	r24, Z
     578:	8f 7b       	andi	r24, 0xBF	; 191
     57a:	80 83       	st	Z, r24
     57c:	08 95       	ret
     57e:	e5 e0       	ldi	r30, 0x05	; 5
     580:	f1 e0       	ldi	r31, 0x01	; 1
     582:	80 81       	ld	r24, Z
     584:	8f 7d       	andi	r24, 0xDF	; 223
     586:	80 83       	st	Z, r24
     588:	08 95       	ret
     58a:	e5 e0       	ldi	r30, 0x05	; 5
     58c:	f1 e0       	ldi	r31, 0x01	; 1
     58e:	80 81       	ld	r24, Z
     590:	8f 7e       	andi	r24, 0xEF	; 239
     592:	80 83       	st	Z, r24
     594:	08 95       	ret
     596:	e5 e0       	ldi	r30, 0x05	; 5
     598:	f1 e0       	ldi	r31, 0x01	; 1
     59a:	80 81       	ld	r24, Z
     59c:	87 7f       	andi	r24, 0xF7	; 247
     59e:	80 83       	st	Z, r24
     5a0:	08 95       	ret
     5a2:	e5 e0       	ldi	r30, 0x05	; 5
     5a4:	f1 e0       	ldi	r31, 0x01	; 1
     5a6:	80 81       	ld	r24, Z
     5a8:	8b 7f       	andi	r24, 0xFB	; 251
     5aa:	80 83       	st	Z, r24
     5ac:	08 95       	ret

000005ae <fuelle_getraenk>:
     5ae:	4f 92       	push	r4
     5b0:	5f 92       	push	r5
     5b2:	6f 92       	push	r6
     5b4:	7f 92       	push	r7
     5b6:	8f 92       	push	r8
     5b8:	9f 92       	push	r9
     5ba:	af 92       	push	r10
     5bc:	bf 92       	push	r11
     5be:	cf 92       	push	r12
     5c0:	df 92       	push	r13
     5c2:	ef 92       	push	r14
     5c4:	ff 92       	push	r15
     5c6:	0f 93       	push	r16
     5c8:	1f 93       	push	r17
     5ca:	cf 93       	push	r28
     5cc:	df 93       	push	r29
     5ce:	7c 01       	movw	r14, r24
     5d0:	00 e0       	ldi	r16, 0x00	; 0
     5d2:	10 e0       	ldi	r17, 0x00	; 0
     5d4:	d1 e0       	ldi	r29, 0x01	; 1
     5d6:	c1 2c       	mov	r12, r1
     5d8:	d0 2e       	mov	r13, r16
     5da:	e0 91 fa 0e 	lds	r30, 0x0EFA	; 0x800efa <aktuellesGetraenk>
     5de:	f0 91 fb 0e 	lds	r31, 0x0EFB	; 0x800efb <aktuellesGetraenk+0x1>
     5e2:	04 80       	ldd	r0, Z+4	; 0x04
     5e4:	f5 81       	ldd	r31, Z+5	; 0x05
     5e6:	e0 2d       	mov	r30, r0
     5e8:	e0 0f       	add	r30, r16
     5ea:	f1 1f       	adc	r31, r17
     5ec:	80 81       	ld	r24, Z
     5ee:	88 23       	and	r24, r24
     5f0:	09 f4       	brne	.+2      	; 0x5f4 <fuelle_getraenk+0x46>
     5f2:	46 c0       	rjmp	.+140    	; 0x680 <fuelle_getraenk+0xd2>
     5f4:	80 81       	ld	r24, Z
     5f6:	91 81       	ldd	r25, Z+1	; 0x01
     5f8:	e8 9e       	mul	r14, r24
     5fa:	40 01       	movw	r8, r0
     5fc:	e9 9e       	mul	r14, r25
     5fe:	90 0c       	add	r9, r0
     600:	f8 9e       	mul	r15, r24
     602:	90 0c       	add	r9, r0
     604:	11 24       	eor	r1, r1
     606:	80 2f       	mov	r24, r16
     608:	64 df       	rcall	.-312    	; 0x4d2 <schalte_pumpe_ein>
     60a:	9d 2f       	mov	r25, r29
     60c:	a1 2c       	mov	r10, r1
     60e:	b1 2c       	mov	r11, r1
     610:	80 91 d8 04 	lds	r24, 0x04D8	; 0x8004d8 <oldval.2570>
     614:	c8 2f       	mov	r28, r24
     616:	cd 27       	eor	r28, r29
     618:	81 11       	cpse	r24, r1
     61a:	2e c0       	rjmp	.+92     	; 0x678 <fuelle_getraenk+0xca>
     61c:	69 f1       	breq	.+90     	; 0x678 <fuelle_getraenk+0xca>
     61e:	40 91 d4 04 	lds	r20, 0x04D4	; 0x8004d4 <__data_end>
     622:	50 91 d5 04 	lds	r21, 0x04D5	; 0x8004d5 <__data_end+0x1>
     626:	60 91 d6 04 	lds	r22, 0x04D6	; 0x8004d6 <__data_end+0x2>
     62a:	70 91 d7 04 	lds	r23, 0x04D7	; 0x8004d7 <__data_end+0x3>
     62e:	2a 01       	movw	r4, r20
     630:	3b 01       	movw	r6, r22
     632:	8f ef       	ldi	r24, 0xFF	; 255
     634:	48 1a       	sub	r4, r24
     636:	58 0a       	sbc	r5, r24
     638:	68 0a       	sbc	r6, r24
     63a:	78 0a       	sbc	r7, r24
     63c:	40 92 d4 04 	sts	0x04D4, r4	; 0x8004d4 <__data_end>
     640:	50 92 d5 04 	sts	0x04D5, r5	; 0x8004d5 <__data_end+0x1>
     644:	60 92 d6 04 	sts	0x04D6, r6	; 0x8004d6 <__data_end+0x2>
     648:	70 92 d7 04 	sts	0x04D7, r7	; 0x8004d7 <__data_end+0x3>
     64c:	84 16       	cp	r8, r20
     64e:	95 06       	cpc	r9, r21
     650:	a6 06       	cpc	r10, r22
     652:	b7 06       	cpc	r11, r23
     654:	58 f4       	brcc	.+22     	; 0x66c <fuelle_getraenk+0xbe>
     656:	8d 2d       	mov	r24, r13
     658:	73 df       	rcall	.-282    	; 0x540 <schalte_pumpe_aus>
     65a:	10 92 d4 04 	sts	0x04D4, r1	; 0x8004d4 <__data_end>
     65e:	10 92 d5 04 	sts	0x04D5, r1	; 0x8004d5 <__data_end+0x1>
     662:	10 92 d6 04 	sts	0x04D6, r1	; 0x8004d6 <__data_end+0x2>
     666:	10 92 d7 04 	sts	0x04D7, r1	; 0x8004d7 <__data_end+0x3>
     66a:	9c 2d       	mov	r25, r12
     66c:	ef e9       	ldi	r30, 0x9F	; 159
     66e:	ff e0       	ldi	r31, 0x0F	; 15
     670:	31 97       	sbiw	r30, 0x01	; 1
     672:	f1 f7       	brne	.-4      	; 0x670 <fuelle_getraenk+0xc2>
     674:	00 c0       	rjmp	.+0      	; 0x676 <fuelle_getraenk+0xc8>
     676:	00 00       	nop
     678:	c0 93 d8 04 	sts	0x04D8, r28	; 0x8004d8 <oldval.2570>
     67c:	91 11       	cpse	r25, r1
     67e:	c8 cf       	rjmp	.-112    	; 0x610 <fuelle_getraenk+0x62>
     680:	0f 5f       	subi	r16, 0xFF	; 255
     682:	1f 4f       	sbci	r17, 0xFF	; 255
     684:	0c 30       	cpi	r16, 0x0C	; 12
     686:	11 05       	cpc	r17, r1
     688:	09 f0       	breq	.+2      	; 0x68c <fuelle_getraenk+0xde>
     68a:	a6 cf       	rjmp	.-180    	; 0x5d8 <fuelle_getraenk+0x2a>
     68c:	e0 91 fa 0e 	lds	r30, 0x0EFA	; 0x800efa <aktuellesGetraenk>
     690:	f0 91 fb 0e 	lds	r31, 0x0EFB	; 0x800efb <aktuellesGetraenk+0x1>
     694:	87 81       	ldd	r24, Z+7	; 0x07
     696:	90 85       	ldd	r25, Z+8	; 0x08
     698:	90 93 fb 0e 	sts	0x0EFB, r25	; 0x800efb <aktuellesGetraenk+0x1>
     69c:	80 93 fa 0e 	sts	0x0EFA, r24	; 0x800efa <aktuellesGetraenk>
     6a0:	df 91       	pop	r29
     6a2:	cf 91       	pop	r28
     6a4:	1f 91       	pop	r17
     6a6:	0f 91       	pop	r16
     6a8:	ff 90       	pop	r15
     6aa:	ef 90       	pop	r14
     6ac:	df 90       	pop	r13
     6ae:	cf 90       	pop	r12
     6b0:	bf 90       	pop	r11
     6b2:	af 90       	pop	r10
     6b4:	9f 90       	pop	r9
     6b6:	8f 90       	pop	r8
     6b8:	7f 90       	pop	r7
     6ba:	6f 90       	pop	r6
     6bc:	5f 90       	pop	r5
     6be:	4f 90       	pop	r4
     6c0:	08 95       	ret

000006c2 <cocktail_test_command>:
     6c2:	e8 d5       	rcall	.+3024   	; 0x1294 <Uart_Transmit_IT_PC>
     6c4:	89 e5       	ldi	r24, 0x59	; 89
     6c6:	94 e0       	ldi	r25, 0x04	; 4
     6c8:	e5 d5       	rcall	.+3018   	; 0x1294 <Uart_Transmit_IT_PC>
     6ca:	84 e1       	ldi	r24, 0x14	; 20
     6cc:	90 e0       	ldi	r25, 0x00	; 0
     6ce:	6f cf       	rjmp	.-290    	; 0x5ae <fuelle_getraenk>
     6d0:	08 95       	ret

000006d2 <init_Getraenke_func>:


void init_Getraenke_func()
{
	aktuellesGetraenk = head_getraenk;
     6d2:	80 91 e2 05 	lds	r24, 0x05E2	; 0x8005e2 <head_getraenk>
     6d6:	90 91 e3 05 	lds	r25, 0x05E3	; 0x8005e3 <head_getraenk+0x1>
     6da:	90 93 fb 0e 	sts	0x0EFB, r25	; 0x800efb <aktuellesGetraenk+0x1>
     6de:	80 93 fa 0e 	sts	0x0EFA, r24	; 0x800efa <aktuellesGetraenk>
	nextion_change_page(STARTANZEIGE);
     6e2:	81 e0       	ldi	r24, 0x01	; 1
     6e4:	2f d2       	rcall	.+1118   	; 0xb44 <nextion_change_page>
	nextion_setText("cocktailname",aktuellesGetraenk->name);
     6e6:	e0 91 fa 0e 	lds	r30, 0x0EFA	; 0x800efa <aktuellesGetraenk>
     6ea:	f0 91 fb 0e 	lds	r31, 0x0EFB	; 0x800efb <aktuellesGetraenk+0x1>
     6ee:	60 81       	ld	r22, Z
     6f0:	71 81       	ldd	r23, Z+1	; 0x01
     6f2:	88 ee       	ldi	r24, 0xE8	; 232
     6f4:	93 e0       	ldi	r25, 0x03	; 3
     6f6:	43 c2       	rjmp	.+1158   	; 0xb7e <nextion_setText>
     6f8:	08 95       	ret

000006fa <create_new_getraenk>:
	
		return n;
}

getraenk_t *create_new_getraenk(char * name, uint8_t * mengen, uint8_t value, uint8_t alkohol, uint8_t picture)
{
     6fa:	9f 92       	push	r9
     6fc:	af 92       	push	r10
     6fe:	bf 92       	push	r11
     700:	cf 92       	push	r12
     702:	df 92       	push	r13
     704:	ef 92       	push	r14
     706:	ff 92       	push	r15
     708:	0f 93       	push	r16
     70a:	1f 93       	push	r17
     70c:	cf 93       	push	r28
     70e:	df 93       	push	r29
     710:	7c 01       	movw	r14, r24
     712:	b6 2e       	mov	r11, r22
     714:	17 2f       	mov	r17, r23
     716:	a4 2e       	mov	r10, r20
     718:	92 2e       	mov	r9, r18
	getraenk_t *newGetraenk = calloc(1,sizeof(getraenk_t));
     71a:	6b e0       	ldi	r22, 0x0B	; 11
     71c:	70 e0       	ldi	r23, 0x00	; 0
     71e:	81 e0       	ldi	r24, 0x01	; 1
     720:	90 e0       	ldi	r25, 0x00	; 0
     722:	0e 94 88 0d 	call	0x1b10	; 0x1b10 <calloc>
     726:	ec 01       	movw	r28, r24
	size_t n1 = strlen((const char *)name)+1;
     728:	f7 01       	movw	r30, r14
     72a:	01 90       	ld	r0, Z+
     72c:	00 20       	and	r0, r0
     72e:	e9 f7       	brne	.-6      	; 0x72a <create_new_getraenk+0x30>
     730:	31 97       	sbiw	r30, 0x01	; 1
     732:	6f 01       	movw	r12, r30
     734:	ce 18       	sub	r12, r14
     736:	df 08       	sbc	r13, r15
	size_t n2 = 13;
	
	newGetraenk->name = calloc(n1,sizeof(char));
     738:	61 e0       	ldi	r22, 0x01	; 1
     73a:	70 e0       	ldi	r23, 0x00	; 0
     73c:	c6 01       	movw	r24, r12
     73e:	01 96       	adiw	r24, 0x01	; 1
     740:	0e 94 88 0d 	call	0x1b10	; 0x1b10 <calloc>
     744:	99 83       	std	Y+1, r25	; 0x01
     746:	88 83       	st	Y, r24
	newGetraenk->mengen = calloc(n2,sizeof(uint8_t));
     748:	61 e0       	ldi	r22, 0x01	; 1
     74a:	70 e0       	ldi	r23, 0x00	; 0
     74c:	8d e0       	ldi	r24, 0x0D	; 13
     74e:	90 e0       	ldi	r25, 0x00	; 0
     750:	0e 94 88 0d 	call	0x1b10	; 0x1b10 <calloc>
     754:	9d 83       	std	Y+5, r25	; 0x05
     756:	8c 83       	std	Y+4, r24	; 0x04
	
	newGetraenk->alkohol = alkohol;
     758:	9b 82       	std	Y+3, r9	; 0x03
	newGetraenk->value = value;
     75a:	aa 82       	std	Y+2, r10	; 0x02
	
	newGetraenk->picture = picture;
     75c:	0e 83       	std	Y+6, r16	; 0x06
	
	int i = 0;
	for (i=0; i<(n1-1); i++)
     75e:	c1 14       	cp	r12, r1
     760:	d1 04       	cpc	r13, r1
     762:	d1 f0       	breq	.+52     	; 0x798 <create_new_getraenk+0x9e>
     764:	d7 01       	movw	r26, r14
     766:	a6 01       	movw	r20, r12
     768:	80 e0       	ldi	r24, 0x00	; 0
     76a:	90 e0       	ldi	r25, 0x00	; 0
	{
		*(char *)(newGetraenk->name + i) = *(char *)(name + i);
     76c:	2d 91       	ld	r18, X+
     76e:	e8 81       	ld	r30, Y
     770:	f9 81       	ldd	r31, Y+1	; 0x01
     772:	e8 0f       	add	r30, r24
     774:	f9 1f       	adc	r31, r25
     776:	20 83       	st	Z, r18
	newGetraenk->value = value;
	
	newGetraenk->picture = picture;
	
	int i = 0;
	for (i=0; i<(n1-1); i++)
     778:	01 96       	adiw	r24, 0x01	; 1
     77a:	84 17       	cp	r24, r20
     77c:	95 07       	cpc	r25, r21
     77e:	b1 f7       	brne	.-20     	; 0x76c <create_new_getraenk+0x72>
     780:	0b c0       	rjmp	.+22     	; 0x798 <create_new_getraenk+0x9e>
	*(char *)(newGetraenk->name + (i+1)) = *(char *)(name + (i+1));
	
	
	for (i=0; i<(n2-1); i++)
	{
		*(char *)(newGetraenk->mengen + i) = *(char *)(mengen + i);
     782:	2d 91       	ld	r18, X+
     784:	ec 81       	ldd	r30, Y+4	; 0x04
     786:	fd 81       	ldd	r31, Y+5	; 0x05
     788:	e8 0f       	add	r30, r24
     78a:	f9 1f       	adc	r31, r25
     78c:	20 83       	st	Z, r18
		*(char *)(newGetraenk->name + i) = *(char *)(name + i);
	}
	*(char *)(newGetraenk->name + (i+1)) = *(char *)(name + (i+1));
	
	
	for (i=0; i<(n2-1); i++)
     78e:	01 96       	adiw	r24, 0x01	; 1
     790:	8c 30       	cpi	r24, 0x0C	; 12
     792:	91 05       	cpc	r25, r1
     794:	b1 f7       	brne	.-20     	; 0x782 <create_new_getraenk+0x88>
     796:	12 c0       	rjmp	.+36     	; 0x7bc <create_new_getraenk+0xc2>
	int i = 0;
	for (i=0; i<(n1-1); i++)
	{
		*(char *)(newGetraenk->name + i) = *(char *)(name + i);
	}
	*(char *)(newGetraenk->name + (i+1)) = *(char *)(name + (i+1));
     798:	8f ef       	ldi	r24, 0xFF	; 255
     79a:	c8 1a       	sub	r12, r24
     79c:	d8 0a       	sbc	r13, r24
     79e:	f7 01       	movw	r30, r14
     7a0:	ec 0d       	add	r30, r12
     7a2:	fd 1d       	adc	r31, r13
     7a4:	80 81       	ld	r24, Z
     7a6:	28 81       	ld	r18, Y
     7a8:	39 81       	ldd	r19, Y+1	; 0x01
     7aa:	f9 01       	movw	r30, r18
     7ac:	ec 0d       	add	r30, r12
     7ae:	fd 1d       	adc	r31, r13
     7b0:	80 83       	st	Z, r24
     7b2:	ab 2d       	mov	r26, r11
     7b4:	b1 2f       	mov	r27, r17
     7b6:	80 e0       	ldi	r24, 0x00	; 0
     7b8:	90 e0       	ldi	r25, 0x00	; 0
     7ba:	e3 cf       	rjmp	.-58     	; 0x782 <create_new_getraenk+0x88>
	
	for (i=0; i<(n2-1); i++)
	{
		*(char *)(newGetraenk->mengen + i) = *(char *)(mengen + i);
	}
	*(char *)(newGetraenk->mengen + (i+1)) = '\0';
     7bc:	ec 81       	ldd	r30, Y+4	; 0x04
     7be:	fd 81       	ldd	r31, Y+5	; 0x05
     7c0:	15 86       	std	Z+13, r1	; 0x0d

	return newGetraenk;
}
     7c2:	ce 01       	movw	r24, r28
     7c4:	df 91       	pop	r29
     7c6:	cf 91       	pop	r28
     7c8:	1f 91       	pop	r17
     7ca:	0f 91       	pop	r16
     7cc:	ff 90       	pop	r15
     7ce:	ef 90       	pop	r14
     7d0:	df 90       	pop	r13
     7d2:	cf 90       	pop	r12
     7d4:	bf 90       	pop	r11
     7d6:	af 90       	pop	r10
     7d8:	9f 90       	pop	r9
     7da:	08 95       	ret

000007dc <insert_at_head>:


getraenk_t *insert_at_head(getraenk_t **head, getraenk_t *getraenk_to_insert)
{
     7dc:	cf 93       	push	r28
     7de:	df 93       	push	r29
     7e0:	dc 01       	movw	r26, r24
     7e2:	fb 01       	movw	r30, r22
	getraenk_to_insert->next = *head;
     7e4:	8d 91       	ld	r24, X+
     7e6:	9c 91       	ld	r25, X
     7e8:	11 97       	sbiw	r26, 0x01	; 1
     7ea:	90 87       	std	Z+8, r25	; 0x08
     7ec:	87 83       	std	Z+7, r24	; 0x07
	getraenk_to_insert->prev = NULL;
     7ee:	12 86       	std	Z+10, r1	; 0x0a
     7f0:	11 86       	std	Z+9, r1	; 0x09
	
	if((*head) == NULL)
     7f2:	cd 91       	ld	r28, X+
     7f4:	dc 91       	ld	r29, X
     7f6:	11 97       	sbiw	r26, 0x01	; 1
     7f8:	20 97       	sbiw	r28, 0x00	; 0
     7fa:	29 f4       	brne	.+10     	; 0x806 <insert_at_head+0x2a>
	{
		tail_getraenk = getraenk_to_insert;
     7fc:	70 93 e6 06 	sts	0x06E6, r23	; 0x8006e6 <tail_getraenk+0x1>
     800:	60 93 e5 06 	sts	0x06E5, r22	; 0x8006e5 <tail_getraenk>
     804:	08 c0       	rjmp	.+16     	; 0x816 <insert_at_head+0x3a>
	} else
	{
		(*head)->prev = getraenk_to_insert;
     806:	7a 87       	std	Y+10, r23	; 0x0a
     808:	69 87       	std	Y+9, r22	; 0x09
		getraenk_to_insert->prev = tail_getraenk;
     80a:	80 91 e5 06 	lds	r24, 0x06E5	; 0x8006e5 <tail_getraenk>
     80e:	90 91 e6 06 	lds	r25, 0x06E6	; 0x8006e6 <tail_getraenk+0x1>
     812:	92 87       	std	Z+10, r25	; 0x0a
     814:	81 87       	std	Z+9, r24	; 0x09
	}
	*head = getraenk_to_insert;
     816:	ed 93       	st	X+, r30
     818:	fc 93       	st	X, r31
	tail_getraenk->next = *head;
     81a:	a0 91 e5 06 	lds	r26, 0x06E5	; 0x8006e5 <tail_getraenk>
     81e:	b0 91 e6 06 	lds	r27, 0x06E6	; 0x8006e6 <tail_getraenk+0x1>
     822:	18 96       	adiw	r26, 0x08	; 8
     824:	fc 93       	st	X, r31
     826:	ee 93       	st	-X, r30
     828:	17 97       	sbiw	r26, 0x07	; 7
	return getraenk_to_insert;
}
     82a:	cf 01       	movw	r24, r30
     82c:	df 91       	pop	r29
     82e:	cf 91       	pop	r28
     830:	08 95       	ret

00000832 <cocktails_init>:




void cocktails_init(void)
{
     832:	8f 92       	push	r8
     834:	9f 92       	push	r9
     836:	af 92       	push	r10
     838:	bf 92       	push	r11
     83a:	cf 92       	push	r12
     83c:	df 92       	push	r13
     83e:	ef 92       	push	r14
     840:	ff 92       	push	r15
     842:	0f 93       	push	r16
     844:	1f 93       	push	r17
     846:	cf 93       	push	r28
     848:	df 93       	push	r29
     84a:	cd b7       	in	r28, 0x3d	; 61
     84c:	de b7       	in	r29, 0x3e	; 62
     84e:	cd 52       	subi	r28, 0x2D	; 45
     850:	d2 40       	sbci	r29, 0x02	; 2
     852:	0f b6       	in	r0, 0x3f	; 63
     854:	f8 94       	cli
     856:	de bf       	out	0x3e, r29	; 62
     858:	0f be       	out	0x3f, r0	; 63
     85a:	cd bf       	out	0x3d, r28	; 61
	address_getraenk  = (uint8_t *)0;
     85c:	10 92 f4 0c 	sts	0x0CF4, r1	; 0x800cf4 <address_getraenk+0x1>
     860:	10 92 f3 0c 	sts	0x0CF3, r1	; 0x800cf3 <address_getraenk>
	
	char standardGetraenke[10][20] = {
     864:	88 ec       	ldi	r24, 0xC8	; 200
     866:	e6 e0       	ldi	r30, 0x06	; 6
     868:	f2 e0       	ldi	r31, 0x02	; 2
     86a:	de 01       	movw	r26, r28
     86c:	11 96       	adiw	r26, 0x01	; 1
     86e:	01 90       	ld	r0, Z+
     870:	0d 92       	st	X+, r0
     872:	8a 95       	dec	r24
     874:	e1 f7       	brne	.-8      	; 0x86e <cocktails_init+0x3c>
// 		"Spezi",
// 		"Roy Rogers",
// 		"Shirley Temple"
	};

	uint8_t standardZutaten[21][15] = {
     876:	7e 01       	movw	r14, r28
     878:	29 ec       	ldi	r18, 0xC9	; 201
     87a:	e2 0e       	add	r14, r18
     87c:	f1 1c       	adc	r15, r1
     87e:	8b e3       	ldi	r24, 0x3B	; 59
     880:	91 e0       	ldi	r25, 0x01	; 1
     882:	f7 01       	movw	r30, r14
     884:	9c 01       	movw	r18, r24
     886:	11 92       	st	Z+, r1
     888:	21 50       	subi	r18, 0x01	; 1
     88a:	30 40       	sbci	r19, 0x00	; 0
     88c:	e1 f7       	brne	.-8      	; 0x886 <cocktails_init+0x54>
     88e:	8b e4       	ldi	r24, 0x4B	; 75
     890:	f7 01       	movw	r30, r14
     892:	80 83       	st	Z, r24
     894:	79 e1       	ldi	r23, 0x19	; 25
     896:	73 87       	std	Z+11, r23	; 0x0b
     898:	81 e2       	ldi	r24, 0x21	; 33
     89a:	83 8b       	std	Z+19, r24	; 0x13
     89c:	52 e2       	ldi	r21, 0x22	; 34
     89e:	56 8b       	std	Z+22, r21	; 0x16
     8a0:	82 8f       	std	Z+26, r24	; 0x1a
     8a2:	92 e4       	ldi	r25, 0x42	; 66
     8a4:	96 8f       	std	Z+30, r25	; 0x1e
     8a6:	91 e1       	ldi	r25, 0x11	; 17
     8a8:	95 a3       	std	Z+37, r25	; 0x25
     8aa:	91 a7       	std	Z+41, r25	; 0x29
     8ac:	6c e3       	ldi	r22, 0x3C	; 60
     8ae:	67 a7       	std	Z+47, r22	; 0x2f
     8b0:	97 e0       	ldi	r25, 0x07	; 7
     8b2:	91 ab       	std	Z+49, r25	; 0x31
     8b4:	80 af       	std	Z+56, r24	; 0x38
     8b6:	9f e0       	ldi	r25, 0x0F	; 15
     8b8:	c7 5f       	subi	r28, 0xF7	; 247
     8ba:	de 4f       	sbci	r29, 0xFE	; 254
     8bc:	98 83       	st	Y, r25
     8be:	c9 50       	subi	r28, 0x09	; 9
     8c0:	d1 40       	sbci	r29, 0x01	; 1
     8c2:	c5 5f       	subi	r28, 0xF5	; 245
     8c4:	de 4f       	sbci	r29, 0xFE	; 254
     8c6:	98 83       	st	Y, r25
     8c8:	cb 50       	subi	r28, 0x0B	; 11
     8ca:	d1 40       	sbci	r29, 0x01	; 1
     8cc:	36 e4       	ldi	r19, 0x46	; 70
     8ce:	c3 5f       	subi	r28, 0xF3	; 243
     8d0:	de 4f       	sbci	r29, 0xFE	; 254
     8d2:	38 83       	st	Y, r19
     8d4:	cd 50       	subi	r28, 0x0D	; 13
     8d6:	d1 40       	sbci	r29, 0x01	; 1
     8d8:	88 e2       	ldi	r24, 0x28	; 40
     8da:	c9 5e       	subi	r28, 0xE9	; 233
     8dc:	de 4f       	sbci	r29, 0xFE	; 254
     8de:	88 83       	st	Y, r24
     8e0:	c7 51       	subi	r28, 0x17	; 23
     8e2:	d1 40       	sbci	r29, 0x01	; 1
     8e4:	c7 5e       	subi	r28, 0xE7	; 231
     8e6:	de 4f       	sbci	r29, 0xFE	; 254
     8e8:	98 83       	st	Y, r25
     8ea:	c9 51       	subi	r28, 0x19	; 25
     8ec:	d1 40       	sbci	r29, 0x01	; 1
     8ee:	25 e0       	ldi	r18, 0x05	; 5
     8f0:	c6 5e       	subi	r28, 0xE6	; 230
     8f2:	de 4f       	sbci	r29, 0xFE	; 254
     8f4:	28 83       	st	Y, r18
     8f6:	ca 51       	subi	r28, 0x1A	; 26
     8f8:	d1 40       	sbci	r29, 0x01	; 1
     8fa:	c4 5e       	subi	r28, 0xE4	; 228
     8fc:	de 4f       	sbci	r29, 0xFE	; 254
     8fe:	88 83       	st	Y, r24
     900:	cc 51       	subi	r28, 0x1C	; 28
     902:	d1 40       	sbci	r29, 0x01	; 1
     904:	cb 5d       	subi	r28, 0xDB	; 219
     906:	de 4f       	sbci	r29, 0xFE	; 254
     908:	38 83       	st	Y, r19
     90a:	c5 52       	subi	r28, 0x25	; 37
     90c:	d1 40       	sbci	r29, 0x01	; 1
     90e:	4e e1       	ldi	r20, 0x1E	; 30
     910:	c3 5d       	subi	r28, 0xD3	; 211
     912:	de 4f       	sbci	r29, 0xFE	; 254
     914:	48 83       	st	Y, r20
     916:	cd 52       	subi	r28, 0x2D	; 45
     918:	d1 40       	sbci	r29, 0x01	; 1
     91a:	cd 5c       	subi	r28, 0xCD	; 205
     91c:	de 4f       	sbci	r29, 0xFE	; 254
     91e:	38 83       	st	Y, r19
     920:	c3 53       	subi	r28, 0x33	; 51
     922:	d1 40       	sbci	r29, 0x01	; 1
     924:	c4 5c       	subi	r28, 0xC4	; 196
     926:	de 4f       	sbci	r29, 0xFE	; 254
     928:	48 83       	st	Y, r20
     92a:	cc 53       	subi	r28, 0x3C	; 60
     92c:	d1 40       	sbci	r29, 0x01	; 1
     92e:	83 e2       	ldi	r24, 0x23	; 35
     930:	cb 5b       	subi	r28, 0xBB	; 187
     932:	de 4f       	sbci	r29, 0xFE	; 254
     934:	88 83       	st	Y, r24
     936:	c5 54       	subi	r28, 0x45	; 69
     938:	d1 40       	sbci	r29, 0x01	; 1
     93a:	c6 5b       	subi	r28, 0xB6	; 182
     93c:	de 4f       	sbci	r29, 0xFE	; 254
     93e:	88 83       	st	Y, r24
     940:	ca 54       	subi	r28, 0x4A	; 74
     942:	d1 40       	sbci	r29, 0x01	; 1
     944:	c4 5b       	subi	r28, 0xB4	; 180
     946:	de 4f       	sbci	r29, 0xFE	; 254
     948:	48 83       	st	Y, r20
     94a:	cc 54       	subi	r28, 0x4C	; 76
     94c:	d1 40       	sbci	r29, 0x01	; 1
     94e:	cb 5a       	subi	r28, 0xAB	; 171
     950:	de 4f       	sbci	r29, 0xFE	; 254
     952:	78 83       	st	Y, r23
     954:	c5 55       	subi	r28, 0x55	; 85
     956:	d1 40       	sbci	r29, 0x01	; 1
     958:	c7 5a       	subi	r28, 0xA7	; 167
     95a:	de 4f       	sbci	r29, 0xFE	; 254
     95c:	58 83       	st	Y, r21
     95e:	c9 55       	subi	r28, 0x59	; 89
     960:	d1 40       	sbci	r29, 0x01	; 1
     962:	59 e2       	ldi	r21, 0x29	; 41
     964:	c5 5a       	subi	r28, 0xA5	; 165
     966:	de 4f       	sbci	r29, 0xFE	; 254
     968:	58 83       	st	Y, r21
     96a:	cb 55       	subi	r28, 0x5B	; 91
     96c:	d1 40       	sbci	r29, 0x01	; 1
     96e:	ce 59       	subi	r28, 0x9E	; 158
     970:	de 4f       	sbci	r29, 0xFE	; 254
     972:	88 83       	st	Y, r24
     974:	c2 56       	subi	r28, 0x62	; 98
     976:	d1 40       	sbci	r29, 0x01	; 1
     978:	cb 59       	subi	r28, 0x9B	; 155
     97a:	de 4f       	sbci	r29, 0xFE	; 254
     97c:	28 83       	st	Y, r18
     97e:	c5 56       	subi	r28, 0x65	; 101
     980:	d1 40       	sbci	r29, 0x01	; 1
     982:	c9 59       	subi	r28, 0x99	; 153
     984:	de 4f       	sbci	r29, 0xFE	; 254
     986:	68 83       	st	Y, r22
     988:	c7 56       	subi	r28, 0x67	; 103
     98a:	d1 40       	sbci	r29, 0x01	; 1
     98c:	51 e4       	ldi	r21, 0x41	; 65
     98e:	cf 58       	subi	r28, 0x8F	; 143
     990:	de 4f       	sbci	r29, 0xFE	; 254
     992:	58 83       	st	Y, r21
     994:	c1 57       	subi	r28, 0x71	; 113
     996:	d1 40       	sbci	r29, 0x01	; 1
     998:	c7 58       	subi	r28, 0x87	; 135
     99a:	de 4f       	sbci	r29, 0xFE	; 254
     99c:	88 83       	st	Y, r24
     99e:	c9 57       	subi	r28, 0x79	; 121
     9a0:	d1 40       	sbci	r29, 0x01	; 1
     9a2:	5a e0       	ldi	r21, 0x0A	; 10
     9a4:	ce 57       	subi	r28, 0x7E	; 126
     9a6:	de 4f       	sbci	r29, 0xFE	; 254
     9a8:	58 83       	st	Y, r21
     9aa:	c2 58       	subi	r28, 0x82	; 130
     9ac:	d1 40       	sbci	r29, 0x01	; 1
     9ae:	cb 57       	subi	r28, 0x7B	; 123
     9b0:	de 4f       	sbci	r29, 0xFE	; 254
     9b2:	68 83       	st	Y, r22
     9b4:	c5 58       	subi	r28, 0x85	; 133
     9b6:	d1 40       	sbci	r29, 0x01	; 1
     9b8:	c9 57       	subi	r28, 0x79	; 121
     9ba:	de 4f       	sbci	r29, 0xFE	; 254
     9bc:	48 83       	st	Y, r20
     9be:	c7 58       	subi	r28, 0x87	; 135
     9c0:	d1 40       	sbci	r29, 0x01	; 1
     9c2:	c1 57       	subi	r28, 0x71	; 113
     9c4:	de 4f       	sbci	r29, 0xFE	; 254
     9c6:	98 83       	st	Y, r25
     9c8:	cf 58       	subi	r28, 0x8F	; 143
     9ca:	d1 40       	sbci	r29, 0x01	; 1
     9cc:	cf 56       	subi	r28, 0x6F	; 111
     9ce:	de 4f       	sbci	r29, 0xFE	; 254
     9d0:	58 83       	st	Y, r21
     9d2:	c1 59       	subi	r28, 0x91	; 145
     9d4:	d1 40       	sbci	r29, 0x01	; 1
     9d6:	ce 56       	subi	r28, 0x6E	; 110
     9d8:	de 4f       	sbci	r29, 0xFE	; 254
     9da:	28 83       	st	Y, r18
     9dc:	c2 59       	subi	r28, 0x92	; 146
     9de:	d1 40       	sbci	r29, 0x01	; 1
     9e0:	ca 56       	subi	r28, 0x6A	; 106
     9e2:	de 4f       	sbci	r29, 0xFE	; 254
     9e4:	38 83       	st	Y, r19
     9e6:	c6 59       	subi	r28, 0x96	; 150
     9e8:	d1 40       	sbci	r29, 0x01	; 1
     9ea:	c0 56       	subi	r28, 0x60	; 96
     9ec:	de 4f       	sbci	r29, 0xFE	; 254
     9ee:	98 83       	st	Y, r25
     9f0:	c0 5a       	subi	r28, 0xA0	; 160
     9f2:	d1 40       	sbci	r29, 0x01	; 1
     9f4:	92 e3       	ldi	r25, 0x32	; 50
     9f6:	cd 55       	subi	r28, 0x5D	; 93
     9f8:	de 4f       	sbci	r29, 0xFE	; 254
     9fa:	98 83       	st	Y, r25
     9fc:	c3 5a       	subi	r28, 0xA3	; 163
     9fe:	d1 40       	sbci	r29, 0x01	; 1
     a00:	cc 55       	subi	r28, 0x5C	; 92
     a02:	de 4f       	sbci	r29, 0xFE	; 254
     a04:	88 83       	st	Y, r24
     a06:	c4 5a       	subi	r28, 0xA4	; 164
     a08:	d1 40       	sbci	r29, 0x01	; 1
     a0a:	84 e6       	ldi	r24, 0x64	; 100
     a0c:	c6 55       	subi	r28, 0x56	; 86
     a0e:	de 4f       	sbci	r29, 0xFE	; 254
     a10:	88 83       	st	Y, r24
     a12:	ca 5a       	subi	r28, 0xAA	; 170
     a14:	d1 40       	sbci	r29, 0x01	; 1
     a16:	c6 54       	subi	r28, 0x46	; 70
     a18:	de 4f       	sbci	r29, 0xFE	; 254
     a1a:	88 83       	st	Y, r24
     a1c:	ca 5b       	subi	r28, 0xBA	; 186
     a1e:	d1 40       	sbci	r29, 0x01	; 1
     a20:	c5 53       	subi	r28, 0x35	; 53
     a22:	de 4f       	sbci	r29, 0xFE	; 254
     a24:	88 83       	st	Y, r24
     a26:	cb 5c       	subi	r28, 0xCB	; 203
     a28:	d1 40       	sbci	r29, 0x01	; 1
     a2a:	c9 52       	subi	r28, 0x29	; 41
     a2c:	de 4f       	sbci	r29, 0xFE	; 254
     a2e:	98 83       	st	Y, r25
     a30:	c7 5d       	subi	r28, 0xD7	; 215
     a32:	d1 40       	sbci	r29, 0x01	; 1
     a34:	c8 52       	subi	r28, 0x28	; 40
     a36:	de 4f       	sbci	r29, 0xFE	; 254
     a38:	98 83       	st	Y, r25
     a3a:	c8 5d       	subi	r28, 0xD8	; 216
     a3c:	d1 40       	sbci	r29, 0x01	; 1
     a3e:	8f e5       	ldi	r24, 0x5F	; 95
     a40:	c9 51       	subi	r28, 0x19	; 25
     a42:	de 4f       	sbci	r29, 0xFE	; 254
     a44:	88 83       	st	Y, r24
     a46:	c7 5e       	subi	r28, 0xE7	; 231
     a48:	d1 40       	sbci	r29, 0x01	; 1
     a4a:	c4 51       	subi	r28, 0x14	; 20
     a4c:	de 4f       	sbci	r29, 0xFE	; 254
     a4e:	28 83       	st	Y, r18
     a50:	cc 5e       	subi	r28, 0xEC	; 236
     a52:	d1 40       	sbci	r29, 0x01	; 1
     a54:	8d e2       	ldi	r24, 0x2D	; 45
     a56:	cb 50       	subi	r28, 0x0B	; 11
     a58:	de 4f       	sbci	r29, 0xFE	; 254
     a5a:	88 83       	st	Y, r24
     a5c:	c5 5f       	subi	r28, 0xF5	; 245
     a5e:	d1 40       	sbci	r29, 0x01	; 1
     a60:	c9 50       	subi	r28, 0x09	; 9
     a62:	de 4f       	sbci	r29, 0xFE	; 254
     a64:	88 83       	st	Y, r24
     a66:	c7 5f       	subi	r28, 0xF7	; 247
     a68:	d1 40       	sbci	r29, 0x01	; 1
     a6a:	c5 50       	subi	r28, 0x05	; 5
     a6c:	de 4f       	sbci	r29, 0xFE	; 254
     a6e:	58 83       	st	Y, r21
     a70:	cb 5f       	subi	r28, 0xFB	; 251
     a72:	d1 40       	sbci	r29, 0x01	; 1
		{50,50,0,0,0,0,0,0,0,0,0,0},
		{0,95,0,0,0,0,5,0,0,0,0,0},
		{45,0,45,0,0,0,10,0,0,0,0,0}
	};
	
	uint8_t pictures[21] =
     a74:	85 e1       	ldi	r24, 0x15	; 21
     a76:	ee ec       	ldi	r30, 0xCE	; 206
     a78:	f2 e0       	ldi	r31, 0x02	; 2
     a7a:	de 01       	movw	r26, r28
     a7c:	ac 5f       	subi	r26, 0xFC	; 252
     a7e:	bd 4f       	sbci	r27, 0xFD	; 253
     a80:	01 90       	ld	r0, Z+
     a82:	0d 92       	st	X+, r0
     a84:	8a 95       	dec	r24
     a86:	e1 f7       	brne	.-8      	; 0xa80 <cocktails_init+0x24e>
	{
3,4,5,6,7,8,9,10,11,12,13,14,15,16,17,18,19,20,21,22,23
	};	

	uint8_t standardAlkohol[21] = {
     a88:	85 e1       	ldi	r24, 0x15	; 21
     a8a:	e3 ee       	ldi	r30, 0xE3	; 227
     a8c:	f2 e0       	ldi	r31, 0x02	; 2
     a8e:	de 01       	movw	r26, r28
     a90:	a7 5e       	subi	r26, 0xE7	; 231
     a92:	bd 4f       	sbci	r27, 0xFD	; 253
     a94:	01 90       	ld	r0, Z+
     a96:	0d 92       	st	X+, r0
     a98:	8a 95       	dec	r24
     a9a:	e1 f7       	brne	.-8      	; 0xa94 <cocktails_init+0x262>
		0,
		0,
		0
	};

	head_getraenk = NULL;
     a9c:	10 92 e3 05 	sts	0x05E3, r1	; 0x8005e3 <head_getraenk+0x1>
     aa0:	10 92 e2 05 	sts	0x05E2, r1	; 0x8005e2 <head_getraenk>
     aa4:	9e 01       	movw	r18, r28
     aa6:	2c 5f       	subi	r18, 0xFC	; 252
     aa8:	3d 4f       	sbci	r19, 0xFD	; 253
     aaa:	49 01       	movw	r8, r18
     aac:	ce 01       	movw	r24, r28
     aae:	87 5e       	subi	r24, 0xE7	; 231
     ab0:	9d 4f       	sbci	r25, 0xFD	; 253
     ab2:	5c 01       	movw	r10, r24
     ab4:	fe 01       	movw	r30, r28
     ab6:	31 96       	adiw	r30, 0x01	; 1
     ab8:	6f 01       	movw	r12, r30
     aba:	10 e0       	ldi	r17, 0x00	; 0
	getraenk_t * tmp;
	for ( int i = 0 ; i<10;i++){
		tmp = create_new_getraenk(standardGetraenke[i],standardZutaten[i],i,standardAlkohol[i], pictures[i]);
     abc:	f4 01       	movw	r30, r8
     abe:	01 91       	ld	r16, Z+
     ac0:	4f 01       	movw	r8, r30
     ac2:	f5 01       	movw	r30, r10
     ac4:	21 91       	ld	r18, Z+
     ac6:	5f 01       	movw	r10, r30
     ac8:	41 2f       	mov	r20, r17
     aca:	b7 01       	movw	r22, r14
     acc:	c6 01       	movw	r24, r12
     ace:	15 de       	rcall	.-982    	; 0x6fa <create_new_getraenk>
		head_getraenk = insert_at_head(&head_getraenk, tmp);
     ad0:	bc 01       	movw	r22, r24
     ad2:	82 ee       	ldi	r24, 0xE2	; 226
     ad4:	95 e0       	ldi	r25, 0x05	; 5
     ad6:	82 de       	rcall	.-764    	; 0x7dc <insert_at_head>
     ad8:	90 93 e3 05 	sts	0x05E3, r25	; 0x8005e3 <head_getraenk+0x1>
     adc:	80 93 e2 05 	sts	0x05E2, r24	; 0x8005e2 <head_getraenk>
     ae0:	f4 e1       	ldi	r31, 0x14	; 20
     ae2:	cf 0e       	add	r12, r31
     ae4:	d1 1c       	adc	r13, r1
     ae6:	2f e0       	ldi	r18, 0x0F	; 15
     ae8:	e2 0e       	add	r14, r18
     aea:	f1 1c       	adc	r15, r1
     aec:	1f 5f       	subi	r17, 0xFF	; 255
		0
	};

	head_getraenk = NULL;
	getraenk_t * tmp;
	for ( int i = 0 ; i<10;i++){
     aee:	1a 30       	cpi	r17, 0x0A	; 10
     af0:	29 f7       	brne	.-54     	; 0xabc <cocktails_init+0x28a>
		tmp = create_new_getraenk(standardGetraenke[i],standardZutaten[i],i,standardAlkohol[i], pictures[i]);
		head_getraenk = insert_at_head(&head_getraenk, tmp);
	}
	
// 	add_EEPROM_drinks_to_list((uint8_t *) 0);
}
     af2:	c3 5d       	subi	r28, 0xD3	; 211
     af4:	dd 4f       	sbci	r29, 0xFD	; 253
     af6:	0f b6       	in	r0, 0x3f	; 63
     af8:	f8 94       	cli
     afa:	de bf       	out	0x3e, r29	; 62
     afc:	0f be       	out	0x3f, r0	; 63
     afe:	cd bf       	out	0x3d, r28	; 61
     b00:	df 91       	pop	r29
     b02:	cf 91       	pop	r28
     b04:	1f 91       	pop	r17
     b06:	0f 91       	pop	r16
     b08:	ff 90       	pop	r15
     b0a:	ef 90       	pop	r14
     b0c:	df 90       	pop	r13
     b0e:	cf 90       	pop	r12
     b10:	bf 90       	pop	r11
     b12:	af 90       	pop	r10
     b14:	9f 90       	pop	r9
     b16:	8f 90       	pop	r8
     b18:	08 95       	ret

00000b1a <endConversation>:
		Uart_Transmit_IT_PC(object);
		Uart_Transmit_IT_PC(val);
		Uart_Transmit_IT_PC(value);
	}
	endConversation();
}
     b1a:	cf 93       	push	r28
     b1c:	df 93       	push	r29
     b1e:	00 d0       	rcall	.+0      	; 0xb20 <endConversation+0x6>
     b20:	1f 92       	push	r1
     b22:	cd b7       	in	r28, 0x3d	; 61
     b24:	de b7       	in	r29, 0x3e	; 62
     b26:	8f ef       	ldi	r24, 0xFF	; 255
     b28:	89 83       	std	Y+1, r24	; 0x01
     b2a:	8a 83       	std	Y+2, r24	; 0x02
     b2c:	8b 83       	std	Y+3, r24	; 0x03
     b2e:	1c 82       	std	Y+4, r1	; 0x04
     b30:	ce 01       	movw	r24, r28
     b32:	01 96       	adiw	r24, 0x01	; 1
     b34:	c1 d3       	rcall	.+1922   	; 0x12b8 <Uart_Transmit_IT_Display>
     b36:	0f 90       	pop	r0
     b38:	0f 90       	pop	r0
     b3a:	0f 90       	pop	r0
     b3c:	0f 90       	pop	r0
     b3e:	df 91       	pop	r29
     b40:	cf 91       	pop	r28
     b42:	08 95       	ret

00000b44 <nextion_change_page>:
     b44:	cf 93       	push	r28
     b46:	df 93       	push	r29
     b48:	00 d0       	rcall	.+0      	; 0xb4a <nextion_change_page+0x6>
     b4a:	cd b7       	in	r28, 0x3d	; 61
     b4c:	de b7       	in	r29, 0x3e	; 62
     b4e:	19 82       	std	Y+1, r1	; 0x01
     b50:	1a 82       	std	Y+2, r1	; 0x02
     b52:	1b 82       	std	Y+3, r1	; 0x03
     b54:	90 e0       	ldi	r25, 0x00	; 0
     b56:	4a e0       	ldi	r20, 0x0A	; 10
     b58:	be 01       	movw	r22, r28
     b5a:	6f 5f       	subi	r22, 0xFF	; 255
     b5c:	7f 4f       	sbci	r23, 0xFF	; 255
     b5e:	01 97       	sbiw	r24, 0x01	; 1
     b60:	0e 94 f2 0e 	call	0x1de4	; 0x1de4 <__itoa_ncheck>
     b64:	82 e1       	ldi	r24, 0x12	; 18
     b66:	94 e0       	ldi	r25, 0x04	; 4
     b68:	a7 d3       	rcall	.+1870   	; 0x12b8 <Uart_Transmit_IT_Display>
     b6a:	ce 01       	movw	r24, r28
     b6c:	01 96       	adiw	r24, 0x01	; 1
     b6e:	a4 d3       	rcall	.+1864   	; 0x12b8 <Uart_Transmit_IT_Display>
     b70:	d4 df       	rcall	.-88     	; 0xb1a <endConversation>
     b72:	0f 90       	pop	r0
     b74:	0f 90       	pop	r0
     b76:	0f 90       	pop	r0
     b78:	df 91       	pop	r29
     b7a:	cf 91       	pop	r28
     b7c:	08 95       	ret

00000b7e <nextion_setText>:
     b7e:	cf 93       	push	r28
     b80:	df 93       	push	r29
     b82:	eb 01       	movw	r28, r22
     b84:	99 d3       	rcall	.+1842   	; 0x12b8 <Uart_Transmit_IT_Display>
     b86:	88 e1       	ldi	r24, 0x18	; 24
     b88:	94 e0       	ldi	r25, 0x04	; 4
     b8a:	96 d3       	rcall	.+1836   	; 0x12b8 <Uart_Transmit_IT_Display>
     b8c:	8e e1       	ldi	r24, 0x1E	; 30
     b8e:	94 e0       	ldi	r25, 0x04	; 4
     b90:	93 d3       	rcall	.+1830   	; 0x12b8 <Uart_Transmit_IT_Display>
     b92:	ce 01       	movw	r24, r28
     b94:	91 d3       	rcall	.+1826   	; 0x12b8 <Uart_Transmit_IT_Display>
     b96:	8e e1       	ldi	r24, 0x1E	; 30
     b98:	94 e0       	ldi	r25, 0x04	; 4
     b9a:	8e d3       	rcall	.+1820   	; 0x12b8 <Uart_Transmit_IT_Display>
     b9c:	be df       	rcall	.-132    	; 0xb1a <endConversation>
     b9e:	df 91       	pop	r29
     ba0:	cf 91       	pop	r28
     ba2:	08 95       	ret

00000ba4 <nextion_setPicture>:

void nextion_setPicture( char * x,  char * y,  char * picture)
{
     ba4:	ef 92       	push	r14
     ba6:	ff 92       	push	r15
     ba8:	0f 93       	push	r16
     baa:	1f 93       	push	r17
     bac:	cf 93       	push	r28
     bae:	df 93       	push	r29
     bb0:	7c 01       	movw	r14, r24
     bb2:	8b 01       	movw	r16, r22
     bb4:	ea 01       	movw	r28, r20
	 char * pic = "pic ";
	 char * komma = ",";
	Uart_Transmit_IT_Display(pic);
     bb6:	85 e2       	ldi	r24, 0x25	; 37
     bb8:	94 e0       	ldi	r25, 0x04	; 4
     bba:	7e d3       	rcall	.+1788   	; 0x12b8 <Uart_Transmit_IT_Display>
	Uart_Transmit_IT_Display(x);
     bbc:	c7 01       	movw	r24, r14
     bbe:	7c d3       	rcall	.+1784   	; 0x12b8 <Uart_Transmit_IT_Display>
	Uart_Transmit_IT_Display(komma);
     bc0:	8a e2       	ldi	r24, 0x2A	; 42
     bc2:	94 e0       	ldi	r25, 0x04	; 4
	Uart_Transmit_IT_Display(y);
     bc4:	79 d3       	rcall	.+1778   	; 0x12b8 <Uart_Transmit_IT_Display>
     bc6:	c8 01       	movw	r24, r16
	Uart_Transmit_IT_Display(komma);
     bc8:	77 d3       	rcall	.+1774   	; 0x12b8 <Uart_Transmit_IT_Display>
     bca:	8a e2       	ldi	r24, 0x2A	; 42
	Uart_Transmit_IT_Display(picture);
     bcc:	94 e0       	ldi	r25, 0x04	; 4
     bce:	74 d3       	rcall	.+1768   	; 0x12b8 <Uart_Transmit_IT_Display>
     bd0:	ce 01       	movw	r24, r28
		Uart_Transmit_IT_PC((char *)komma);
		Uart_Transmit_IT_PC((char *)y);
		Uart_Transmit_IT_PC((char *)komma);
		Uart_Transmit_IT_PC((char *)picture);
	}
		endConversation();
     bd2:	72 d3       	rcall	.+1764   	; 0x12b8 <Uart_Transmit_IT_Display>
     bd4:	a2 df       	rcall	.-188    	; 0xb1a <endConversation>
}
     bd6:	df 91       	pop	r29
     bd8:	cf 91       	pop	r28
     bda:	1f 91       	pop	r17
     bdc:	0f 91       	pop	r16
     bde:	ff 90       	pop	r15
     be0:	ef 90       	pop	r14
     be2:	08 95       	ret

00000be4 <mfrc522_write>:
		Uart_Transmit_IT_PC("No reader found \r\n");
	}
}

void mfrc522_write(uint8_t reg, uint8_t data)
{
     be4:	cf 93       	push	r28
     be6:	df 93       	push	r29
     be8:	c8 2f       	mov	r28, r24
     bea:	d6 2f       	mov	r29, r22
	enable_Slave(MFRC522);
     bec:	82 e0       	ldi	r24, 0x02	; 2
     bee:	c3 d2       	rcall	.+1414   	; 0x1176 <enable_Slave>
	spi_transmit((reg<<1)&0x7E);
     bf0:	8c 2f       	mov	r24, r28
     bf2:	88 0f       	add	r24, r24
     bf4:	8e 77       	andi	r24, 0x7E	; 126
     bf6:	b9 d2       	rcall	.+1394   	; 0x116a <spi_transmit>
	#else
		//round up by default
		__ticks_dc = (uint32_t)(ceil(fabs(__tmp)));
	#endif

	__builtin_avr_delay_cycles(__ticks_dc);
     bf8:	85 e3       	ldi	r24, 0x35	; 53
     bfa:	8a 95       	dec	r24
     bfc:	f1 f7       	brne	.-4      	; 0xbfa <mfrc522_write+0x16>
	_delay_us(10);
	spi_transmit(data);
     bfe:	00 00       	nop
     c00:	8d 2f       	mov	r24, r29
	disable_Slave(MFRC522);
     c02:	b3 d2       	rcall	.+1382   	; 0x116a <spi_transmit>
     c04:	82 e0       	ldi	r24, 0x02	; 2
     c06:	c7 d2       	rcall	.+1422   	; 0x1196 <disable_Slave>
}
     c08:	df 91       	pop	r29
     c0a:	cf 91       	pop	r28
     c0c:	08 95       	ret

00000c0e <mfrc522_read>:

uint8_t mfrc522_read(uint8_t reg)
{
     c0e:	cf 93       	push	r28
     c10:	c8 2f       	mov	r28, r24
	uint8_t data;
	enable_Slave(MFRC522);
     c12:	82 e0       	ldi	r24, 0x02	; 2
     c14:	b0 d2       	rcall	.+1376   	; 0x1176 <enable_Slave>
	spi_transmit(((reg<<1)&0x7E)|0x80);
     c16:	8c 2f       	mov	r24, r28
     c18:	88 0f       	add	r24, r24
     c1a:	8e 77       	andi	r24, 0x7E	; 126
     c1c:	80 68       	ori	r24, 0x80	; 128
     c1e:	a5 d2       	rcall	.+1354   	; 0x116a <spi_transmit>
	data = spi_transmit(0x00);
     c20:	80 e0       	ldi	r24, 0x00	; 0
     c22:	a3 d2       	rcall	.+1350   	; 0x116a <spi_transmit>
     c24:	c8 2f       	mov	r28, r24
	disable_Slave(MFRC522);
     c26:	82 e0       	ldi	r24, 0x02	; 2
     c28:	b6 d2       	rcall	.+1388   	; 0x1196 <disable_Slave>
     c2a:	8c 2f       	mov	r24, r28
	return data;
}
     c2c:	cf 91       	pop	r28
     c2e:	08 95       	ret

00000c30 <mfrc522_reset>:
     c30:	6f e0       	ldi	r22, 0x0F	; 15

void mfrc522_reset()
{
	mfrc522_write(CommandReg,SoftReset_CMD);
     c32:	81 e0       	ldi	r24, 0x01	; 1
     c34:	d7 cf       	rjmp	.-82     	; 0xbe4 <mfrc522_write>
     c36:	08 95       	ret

00000c38 <mfrc522_init>:
#include <util/delay.h>

void mfrc522_init()
{
	uint8_t byte;
	mfrc522_reset();
     c38:	fb df       	rcall	.-10     	; 0xc30 <mfrc522_reset>

	mfrc522_write(TModeReg, 0x8D);
     c3a:	6d e8       	ldi	r22, 0x8D	; 141
     c3c:	8a e2       	ldi	r24, 0x2A	; 42
     c3e:	d2 df       	rcall	.-92     	; 0xbe4 <mfrc522_write>
    mfrc522_write(TPrescalerReg, 0x3E);
     c40:	6e e3       	ldi	r22, 0x3E	; 62
     c42:	8b e2       	ldi	r24, 0x2B	; 43
     c44:	cf df       	rcall	.-98     	; 0xbe4 <mfrc522_write>
    mfrc522_write(TReloadReg_1, 30);   
     c46:	6e e1       	ldi	r22, 0x1E	; 30
     c48:	8c e2       	ldi	r24, 0x2C	; 44
     c4a:	cc df       	rcall	.-104    	; 0xbe4 <mfrc522_write>
    mfrc522_write(TReloadReg_2, 0);	
     c4c:	60 e0       	ldi	r22, 0x00	; 0
     c4e:	8d e2       	ldi	r24, 0x2D	; 45
     c50:	c9 df       	rcall	.-110    	; 0xbe4 <mfrc522_write>
	mfrc522_write(TxASKReg, 0x40);	
     c52:	60 e4       	ldi	r22, 0x40	; 64
     c54:	85 e1       	ldi	r24, 0x15	; 21
	mfrc522_write(ModeReg, 0x3D);
     c56:	c6 df       	rcall	.-116    	; 0xbe4 <mfrc522_write>
     c58:	6d e3       	ldi	r22, 0x3D	; 61
     c5a:	81 e1       	ldi	r24, 0x11	; 17
     c5c:	c3 df       	rcall	.-122    	; 0xbe4 <mfrc522_write>
	
	byte = mfrc522_read(TxControlReg);
     c5e:	84 e1       	ldi	r24, 0x14	; 20
     c60:	d6 df       	rcall	.-84     	; 0xc0e <mfrc522_read>
	if(!(byte&0x03))
     c62:	98 2f       	mov	r25, r24
     c64:	93 70       	andi	r25, 0x03	; 3
	{
		mfrc522_write(TxControlReg,byte|0x03);
     c66:	21 f4       	brne	.+8      	; 0xc70 <mfrc522_init+0x38>
     c68:	68 2f       	mov	r22, r24
     c6a:	63 60       	ori	r22, 0x03	; 3
     c6c:	84 e1       	ldi	r24, 0x14	; 20
	}
	
	byte = mfrc522_read(VersionReg);
     c6e:	ba df       	rcall	.-140    	; 0xbe4 <mfrc522_write>
     c70:	87 e3       	ldi	r24, 0x37	; 55
	
	if(byte == 0x92)
     c72:	cd df       	rcall	.-102    	; 0xc0e <mfrc522_read>
     c74:	82 39       	cpi	r24, 0x92	; 146
	{
		Uart_Transmit_IT_PC("MIFARE RC522v2 \r\n");
     c76:	39 f4       	brne	.+14     	; 0xc86 <mfrc522_init+0x4e>
     c78:	8c e2       	ldi	r24, 0x2C	; 44
     c7a:	94 e0       	ldi	r25, 0x04	; 4
		Uart_Transmit_IT_PC("Detected \r\n");
     c7c:	0b d3       	rcall	.+1558   	; 0x1294 <Uart_Transmit_IT_PC>
     c7e:	8e e3       	ldi	r24, 0x3E	; 62
     c80:	94 e0       	ldi	r25, 0x04	; 4
     c82:	08 c3       	rjmp	.+1552   	; 0x1294 <Uart_Transmit_IT_PC>
		
	}
	else if(byte == 0x91 || byte==0x90)
     c84:	08 95       	ret
     c86:	80 59       	subi	r24, 0x90	; 144
	{
		Uart_Transmit_IT_PC("MIFARE RC522v1 \r\n");
     c88:	82 30       	cpi	r24, 0x02	; 2
     c8a:	38 f4       	brcc	.+14     	; 0xc9a <mfrc522_init+0x62>
     c8c:	8a e4       	ldi	r24, 0x4A	; 74
     c8e:	94 e0       	ldi	r25, 0x04	; 4
		Uart_Transmit_IT_PC("Detected \r\n");
     c90:	01 d3       	rcall	.+1538   	; 0x1294 <Uart_Transmit_IT_PC>
     c92:	8e e3       	ldi	r24, 0x3E	; 62
     c94:	94 e0       	ldi	r25, 0x04	; 4
     c96:	fe c2       	rjmp	.+1532   	; 0x1294 <Uart_Transmit_IT_PC>
     c98:	08 95       	ret
	}
	else
	{
		Uart_Transmit_IT_PC("No reader found \r\n");
     c9a:	8c e5       	ldi	r24, 0x5C	; 92
     c9c:	94 e0       	ldi	r25, 0x04	; 4
     c9e:	fa c2       	rjmp	.+1524   	; 0x1294 <Uart_Transmit_IT_PC>
     ca0:	08 95       	ret

00000ca2 <mfrc522_to_card>:
     ca2:	3f 92       	push	r3
   
	return status;
}

uint8_t mfrc522_to_card(uint8_t cmd, uint8_t *send_data, uint8_t send_data_len, uint8_t *back_data, uint32_t *back_data_len)
{
     ca4:	4f 92       	push	r4
     ca6:	5f 92       	push	r5
     ca8:	6f 92       	push	r6
     caa:	7f 92       	push	r7
     cac:	8f 92       	push	r8
     cae:	9f 92       	push	r9
     cb0:	af 92       	push	r10
     cb2:	bf 92       	push	r11
     cb4:	cf 92       	push	r12
     cb6:	df 92       	push	r13
     cb8:	ef 92       	push	r14
     cba:	ff 92       	push	r15
     cbc:	0f 93       	push	r16
     cbe:	1f 93       	push	r17
     cc0:	cf 93       	push	r28
     cc2:	df 93       	push	r29
     cc4:	98 2e       	mov	r9, r24
     cc6:	f6 2e       	mov	r15, r22
     cc8:	e7 2e       	mov	r14, r23
     cca:	44 2e       	mov	r4, r20
     ccc:	82 2e       	mov	r8, r18
     cce:	33 2e       	mov	r3, r19
     cd0:	58 01       	movw	r10, r16
    uint8_t lastBits;
    uint8_t n;
    uint8_t	tmp;
    uint32_t i;

    switch (cmd)
     cd2:	8c e0       	ldi	r24, 0x0C	; 12
     cd4:	98 16       	cp	r9, r24
     cd6:	09 f4       	brne	.+2      	; 0xcda <mfrc522_to_card+0x38>
     cd8:	ba c0       	rjmp	.+372    	; 0xe4e <mfrc522_to_card+0x1ac>
     cda:	ee e0       	ldi	r30, 0x0E	; 14
     cdc:	9e 12       	cpse	r9, r30
     cde:	03 c0       	rjmp	.+6      	; 0xce6 <mfrc522_to_card+0x44>
    {
        case MFAuthent_CMD:		//Certification cards close
		{
			irqEn = 0x12;
			waitIRq = 0x10;
     ce0:	10 e1       	ldi	r17, 0x10	; 16

    switch (cmd)
    {
        case MFAuthent_CMD:		//Certification cards close
		{
			irqEn = 0x12;
     ce2:	02 e1       	ldi	r16, 0x12	; 18
     ce4:	02 c0       	rjmp	.+4      	; 0xcea <mfrc522_to_card+0x48>

uint8_t mfrc522_to_card(uint8_t cmd, uint8_t *send_data, uint8_t send_data_len, uint8_t *back_data, uint32_t *back_data_len)
{
	uint8_t status = ERROR;
    uint8_t irqEn = 0x00;
    uint8_t waitIRq = 0x00;
     ce6:	10 e0       	ldi	r17, 0x00	; 0
}

uint8_t mfrc522_to_card(uint8_t cmd, uint8_t *send_data, uint8_t send_data_len, uint8_t *back_data, uint32_t *back_data_len)
{
	uint8_t status = ERROR;
    uint8_t irqEn = 0x00;
     ce8:	00 e0       	ldi	r16, 0x00	; 0
		default:
			break;
    }
   
    //mfrc522_write(ComIEnReg, irqEn|0x80);	//Interrupt request
    n=mfrc522_read(ComIrqReg);
     cea:	84 e0       	ldi	r24, 0x04	; 4
     cec:	90 df       	rcall	.-224    	; 0xc0e <mfrc522_read>
    mfrc522_write(ComIrqReg,n&(~0x80));//clear all interrupt bits
     cee:	68 2f       	mov	r22, r24
     cf0:	6f 77       	andi	r22, 0x7F	; 127
     cf2:	84 e0       	ldi	r24, 0x04	; 4
     cf4:	77 df       	rcall	.-274    	; 0xbe4 <mfrc522_write>
    n=mfrc522_read(FIFOLevelReg);
     cf6:	8a e0       	ldi	r24, 0x0A	; 10
     cf8:	8a df       	rcall	.-236    	; 0xc0e <mfrc522_read>
     cfa:	68 2f       	mov	r22, r24
    mfrc522_write(FIFOLevelReg,n|0x80);//flush FIFO data
     cfc:	60 68       	ori	r22, 0x80	; 128
     cfe:	8a e0       	ldi	r24, 0x0A	; 10
     d00:	71 df       	rcall	.-286    	; 0xbe4 <mfrc522_write>
    
	mfrc522_write(CommandReg, Idle_CMD);	//NO action; Cancel the current cmd???
     d02:	60 e0       	ldi	r22, 0x00	; 0
     d04:	81 e0       	ldi	r24, 0x01	; 1
     d06:	6e df       	rcall	.-292    	; 0xbe4 <mfrc522_write>
     d08:	51 2c       	mov	r5, r1

	//Writing data to the FIFO
    for (i=0; i<send_data_len; i++)
     d0a:	61 2c       	mov	r6, r1
     d0c:	71 2c       	mov	r7, r1
     d0e:	41 14       	cp	r4, r1
     d10:	51 04       	cpc	r5, r1
     d12:	61 04       	cpc	r6, r1
     d14:	71 04       	cpc	r7, r1
     d16:	19 f4       	brne	.+6      	; 0xd1e <mfrc522_to_card+0x7c>
     d18:	14 c0       	rjmp	.+40     	; 0xd42 <mfrc522_to_card+0xa0>
     d1a:	10 e3       	ldi	r17, 0x30	; 48
			break;
		}
		case Transceive_CMD:	//Transmit FIFO data
		{
			irqEn = 0x77;
			waitIRq = 0x30;
     d1c:	07 e7       	ldi	r16, 0x77	; 119
			waitIRq = 0x10;
			break;
		}
		case Transceive_CMD:	//Transmit FIFO data
		{
			irqEn = 0x77;
     d1e:	cf 2d       	mov	r28, r15
     d20:	de 2d       	mov	r29, r14
     d22:	c1 2c       	mov	r12, r1
     d24:	d1 2c       	mov	r13, r1
     d26:	76 01       	movw	r14, r12
	mfrc522_write(CommandReg, Idle_CMD);	//NO action; Cancel the current cmd???

	//Writing data to the FIFO
    for (i=0; i<send_data_len; i++)
    {   
		mfrc522_write(FIFODataReg, send_data[i]);    
     d28:	69 91       	ld	r22, Y+
     d2a:	89 e0       	ldi	r24, 0x09	; 9
     d2c:	5b df       	rcall	.-330    	; 0xbe4 <mfrc522_write>
     d2e:	ff ef       	ldi	r31, 0xFF	; 255
    mfrc522_write(FIFOLevelReg,n|0x80);//flush FIFO data
    
	mfrc522_write(CommandReg, Idle_CMD);	//NO action; Cancel the current cmd???

	//Writing data to the FIFO
    for (i=0; i<send_data_len; i++)
     d30:	cf 1a       	sub	r12, r31
     d32:	df 0a       	sbc	r13, r31
     d34:	ef 0a       	sbc	r14, r31
     d36:	ff 0a       	sbc	r15, r31
     d38:	c4 14       	cp	r12, r4
     d3a:	d5 04       	cpc	r13, r5
     d3c:	e6 04       	cpc	r14, r6
     d3e:	f7 04       	cpc	r15, r7
     d40:	98 f3       	brcs	.-26     	; 0xd28 <mfrc522_to_card+0x86>
    {   
		mfrc522_write(FIFODataReg, send_data[i]);    
	}

	//Execute the cmd
	mfrc522_write(CommandReg, cmd);
     d42:	69 2d       	mov	r22, r9
     d44:	81 e0       	ldi	r24, 0x01	; 1
     d46:	4e df       	rcall	.-356    	; 0xbe4 <mfrc522_write>
    if (cmd == Transceive_CMD)
     d48:	8c e0       	ldi	r24, 0x0C	; 12
     d4a:	98 12       	cpse	r9, r24
    {    
		n=mfrc522_read(BitFramingReg);
     d4c:	06 c0       	rjmp	.+12     	; 0xd5a <mfrc522_to_card+0xb8>
     d4e:	8d e0       	ldi	r24, 0x0D	; 13
		mfrc522_write(BitFramingReg,n|0x80);  
     d50:	5e df       	rcall	.-324    	; 0xc0e <mfrc522_read>
     d52:	68 2f       	mov	r22, r24
     d54:	60 68       	ori	r22, 0x80	; 128
     d56:	8d e0       	ldi	r24, 0x0D	; 13
	i = 2000;	//i according to the clock frequency adjustment, the operator M1 card maximum waiting time 25ms???
    do 
    {
		//CommIrqReg[7..0]
		//Set1 TxIRq RxIRq IdleIRq HiAlerIRq LoAlertIRq ErrIRq TimerIRq
        n = mfrc522_read(ComIrqReg);
     d58:	45 df       	rcall	.-374    	; 0xbe4 <mfrc522_write>
     d5a:	84 e0       	ldi	r24, 0x04	; 4
     d5c:	58 df       	rcall	.-336    	; 0xc0e <mfrc522_read>
     d5e:	f8 2e       	mov	r15, r24
     d60:	c0 e0       	ldi	r28, 0x00	; 0
     d62:	d0 e0       	ldi	r29, 0x00	; 0
        i--;
    }
    while ((i!=0) && !(n&0x01) && !(n&waitIRq));
     d64:	11 60       	ori	r17, 0x01	; 1
     d66:	09 c0       	rjmp	.+18     	; 0xd7a <mfrc522_to_card+0xd8>
	i = 2000;	//i according to the clock frequency adjustment, the operator M1 card maximum waiting time 25ms???
    do 
    {
		//CommIrqReg[7..0]
		//Set1 TxIRq RxIRq IdleIRq HiAlerIRq LoAlertIRq ErrIRq TimerIRq
        n = mfrc522_read(ComIrqReg);
     d68:	84 e0       	ldi	r24, 0x04	; 4
     d6a:	51 df       	rcall	.-350    	; 0xc0e <mfrc522_read>
     d6c:	f8 2e       	mov	r15, r24
     d6e:	21 96       	adiw	r28, 0x01	; 1
     d70:	cf 3c       	cpi	r28, 0xCF	; 207
        i--;
    }
    while ((i!=0) && !(n&0x01) && !(n&waitIRq));
     d72:	e7 e0       	ldi	r30, 0x07	; 7
     d74:	de 07       	cpc	r29, r30
     d76:	09 f4       	brne	.+2      	; 0xd7a <mfrc522_to_card+0xd8>
     d78:	83 c0       	rjmp	.+262    	; 0xe80 <mfrc522_to_card+0x1de>
     d7a:	81 2f       	mov	r24, r17
     d7c:	8f 21       	and	r24, r15
     d7e:	a1 f3       	breq	.-24     	; 0xd68 <mfrc522_to_card+0xc6>
     d80:	87 c0       	rjmp	.+270    	; 0xe90 <mfrc522_to_card+0x1ee>
    if (i != 0)
    {    
        if(!(mfrc522_read(ErrorReg) & 0x1B))	//BufferOvfl Collerr CRCErr ProtecolErr
        {
            status = CARD_FOUND;
            if (n & irqEn & 0x01)
     d82:	01 70       	andi	r16, 0x01	; 1
     d84:	f0 22       	and	r15, r16
            {   
				status = CARD_NOT_FOUND;			//??   
     d86:	11 f0       	breq	.+4      	; 0xd8c <mfrc522_to_card+0xea>
     d88:	c2 e0       	ldi	r28, 0x02	; 2
	
    if (i != 0)
    {    
        if(!(mfrc522_read(ErrorReg) & 0x1B))	//BufferOvfl Collerr CRCErr ProtecolErr
        {
            status = CARD_FOUND;
     d8a:	01 c0       	rjmp	.+2      	; 0xd8e <mfrc522_to_card+0xec>
            if (n & irqEn & 0x01)
            {   
				status = CARD_NOT_FOUND;			//??   
			}

            if (cmd == Transceive_CMD)
     d8c:	c1 e0       	ldi	r28, 0x01	; 1
     d8e:	fc e0       	ldi	r31, 0x0C	; 12
     d90:	9f 12       	cpse	r9, r31
            {
               	n = mfrc522_read(FIFOLevelReg);
     d92:	8a c0       	rjmp	.+276    	; 0xea8 <mfrc522_to_card+0x206>
     d94:	8a e0       	ldi	r24, 0x0A	; 10
     d96:	3b df       	rcall	.-394    	; 0xc0e <mfrc522_read>
     d98:	48 2e       	mov	r4, r24
              	lastBits = mfrc522_read(ControlReg) & 0x07;
     d9a:	8c e0       	ldi	r24, 0x0C	; 12
     d9c:	38 df       	rcall	.-400    	; 0xc0e <mfrc522_read>
     d9e:	28 2f       	mov	r18, r24
     da0:	27 70       	andi	r18, 0x07	; 7
     da2:	a9 f0       	breq	.+42     	; 0xdce <mfrc522_to_card+0x12c>
                if (lastBits)
     da4:	84 2d       	mov	r24, r4
                {   
					*back_data_len = (n-1)*8 + lastBits;   
     da6:	90 e0       	ldi	r25, 0x00	; 0
     da8:	01 97       	sbiw	r24, 0x01	; 1
     daa:	88 0f       	add	r24, r24
     dac:	99 1f       	adc	r25, r25
     dae:	88 0f       	add	r24, r24
     db0:	99 1f       	adc	r25, r25
     db2:	88 0f       	add	r24, r24
     db4:	99 1f       	adc	r25, r25
     db6:	82 0f       	add	r24, r18
     db8:	91 1d       	adc	r25, r1
     dba:	09 2e       	mov	r0, r25
     dbc:	00 0c       	add	r0, r0
     dbe:	aa 0b       	sbc	r26, r26
     dc0:	bb 0b       	sbc	r27, r27
     dc2:	f5 01       	movw	r30, r10
     dc4:	80 83       	st	Z, r24
     dc6:	91 83       	std	Z+1, r25	; 0x01
     dc8:	a2 83       	std	Z+2, r26	; 0x02
     dca:	b3 83       	std	Z+3, r27	; 0x03
     dcc:	11 c0       	rjmp	.+34     	; 0xdf0 <mfrc522_to_card+0x14e>
     dce:	84 2d       	mov	r24, r4
				}
                else
                {   
					*back_data_len = n*8;   
     dd0:	90 e0       	ldi	r25, 0x00	; 0
     dd2:	88 0f       	add	r24, r24
     dd4:	99 1f       	adc	r25, r25
     dd6:	88 0f       	add	r24, r24
     dd8:	99 1f       	adc	r25, r25
     dda:	88 0f       	add	r24, r24
     ddc:	99 1f       	adc	r25, r25
     dde:	09 2e       	mov	r0, r25
     de0:	00 0c       	add	r0, r0
     de2:	aa 0b       	sbc	r26, r26
     de4:	bb 0b       	sbc	r27, r27
     de6:	f5 01       	movw	r30, r10
     de8:	80 83       	st	Z, r24
     dea:	91 83       	std	Z+1, r25	; 0x01
     dec:	a2 83       	std	Z+2, r26	; 0x02
     dee:	b3 83       	std	Z+3, r27	; 0x03
     df0:	44 20       	and	r4, r4
				}

                if (n == 0)
     df2:	71 f0       	breq	.+28     	; 0xe10 <mfrc522_to_card+0x16e>
     df4:	84 2d       	mov	r24, r4
                {   
					n = MAX_LEN;   
				}
				
				//Reading the received data in FIFO
                for (i=0; i<n; i++)
     df6:	81 31       	cpi	r24, 0x11	; 17
     df8:	08 f0       	brcs	.+2      	; 0xdfc <mfrc522_to_card+0x15a>
     dfa:	80 e1       	ldi	r24, 0x10	; 16
     dfc:	48 2e       	mov	r4, r24
     dfe:	51 2c       	mov	r5, r1
     e00:	61 2c       	mov	r6, r1
     e02:	71 2c       	mov	r7, r1
     e04:	41 14       	cp	r4, r1
     e06:	51 04       	cpc	r5, r1
     e08:	61 04       	cpc	r6, r1
     e0a:	71 04       	cpc	r7, r1
     e0c:	29 f4       	brne	.+10     	; 0xe18 <mfrc522_to_card+0x176>
     e0e:	4c c0       	rjmp	.+152    	; 0xea8 <mfrc522_to_card+0x206>
     e10:	41 2c       	mov	r4, r1
     e12:	51 2c       	mov	r5, r1
     e14:	32 01       	movw	r6, r4
     e16:	43 94       	inc	r4
     e18:	08 2d       	mov	r16, r8
     e1a:	13 2d       	mov	r17, r3
     e1c:	c1 2c       	mov	r12, r1
     e1e:	d1 2c       	mov	r13, r1
     e20:	76 01       	movw	r14, r12
                {   
					back_data[i] = mfrc522_read(FIFODataReg);    
     e22:	89 e0       	ldi	r24, 0x09	; 9
     e24:	f4 de       	rcall	.-536    	; 0xc0e <mfrc522_read>
     e26:	f8 01       	movw	r30, r16
     e28:	81 93       	st	Z+, r24
     e2a:	8f 01       	movw	r16, r30
                {   
					n = MAX_LEN;   
				}
				
				//Reading the received data in FIFO
                for (i=0; i<n; i++)
     e2c:	ff ef       	ldi	r31, 0xFF	; 255
     e2e:	cf 1a       	sub	r12, r31
     e30:	df 0a       	sbc	r13, r31
     e32:	ef 0a       	sbc	r14, r31
     e34:	ff 0a       	sbc	r15, r31
     e36:	c4 14       	cp	r12, r4
     e38:	d5 04       	cpc	r13, r5
     e3a:	e6 04       	cpc	r14, r6
     e3c:	f7 04       	cpc	r15, r7
    {   
		mfrc522_write(FIFODataReg, send_data[i]);    
	}

	//Execute the cmd
	mfrc522_write(CommandReg, cmd);
     e3e:	88 f3       	brcs	.-30     	; 0xe22 <mfrc522_to_card+0x180>
     e40:	33 c0       	rjmp	.+102    	; 0xea8 <mfrc522_to_card+0x206>
     e42:	6c e0       	ldi	r22, 0x0C	; 12
			break;
		}
		case Transceive_CMD:	//Transmit FIFO data
		{
			irqEn = 0x77;
			waitIRq = 0x30;
     e44:	81 e0       	ldi	r24, 0x01	; 1
			waitIRq = 0x10;
			break;
		}
		case Transceive_CMD:	//Transmit FIFO data
		{
			irqEn = 0x77;
     e46:	ce de       	rcall	.-612    	; 0xbe4 <mfrc522_write>
		default:
			break;
    }
   
    //mfrc522_write(ComIEnReg, irqEn|0x80);	//Interrupt request
    n=mfrc522_read(ComIrqReg);
     e48:	10 e3       	ldi	r17, 0x30	; 48
     e4a:	07 e7       	ldi	r16, 0x77	; 119
     e4c:	80 cf       	rjmp	.-256    	; 0xd4e <mfrc522_to_card+0xac>
    mfrc522_write(ComIrqReg,n&(~0x80));//clear all interrupt bits
     e4e:	84 e0       	ldi	r24, 0x04	; 4
     e50:	de de       	rcall	.-580    	; 0xc0e <mfrc522_read>
     e52:	68 2f       	mov	r22, r24
     e54:	6f 77       	andi	r22, 0x7F	; 127
     e56:	84 e0       	ldi	r24, 0x04	; 4
    n=mfrc522_read(FIFOLevelReg);
     e58:	c5 de       	rcall	.-630    	; 0xbe4 <mfrc522_write>
     e5a:	8a e0       	ldi	r24, 0x0A	; 10
     e5c:	d8 de       	rcall	.-592    	; 0xc0e <mfrc522_read>
    mfrc522_write(FIFOLevelReg,n|0x80);//flush FIFO data
     e5e:	68 2f       	mov	r22, r24
     e60:	60 68       	ori	r22, 0x80	; 128
     e62:	8a e0       	ldi	r24, 0x0A	; 10
     e64:	bf de       	rcall	.-642    	; 0xbe4 <mfrc522_write>
    
	mfrc522_write(CommandReg, Idle_CMD);	//NO action; Cancel the current cmd???
     e66:	60 e0       	ldi	r22, 0x00	; 0
     e68:	81 e0       	ldi	r24, 0x01	; 1
     e6a:	bc de       	rcall	.-648    	; 0xbe4 <mfrc522_write>

	//Writing data to the FIFO
    for (i=0; i<send_data_len; i++)
     e6c:	51 2c       	mov	r5, r1
     e6e:	61 2c       	mov	r6, r1
     e70:	71 2c       	mov	r7, r1
     e72:	41 14       	cp	r4, r1
     e74:	51 04       	cpc	r5, r1
     e76:	61 04       	cpc	r6, r1
     e78:	71 04       	cpc	r7, r1
     e7a:	09 f0       	breq	.+2      	; 0xe7e <mfrc522_to_card+0x1dc>
        n = mfrc522_read(ComIrqReg);
        i--;
    }
    while ((i!=0) && !(n&0x01) && !(n&waitIRq));

	tmp=mfrc522_read(BitFramingReg);
     e7c:	4e cf       	rjmp	.-356    	; 0xd1a <mfrc522_to_card+0x78>
     e7e:	e1 cf       	rjmp	.-62     	; 0xe42 <mfrc522_to_card+0x1a0>
     e80:	8d e0       	ldi	r24, 0x0D	; 13
	mfrc522_write(BitFramingReg,tmp&(~0x80));
     e82:	c5 de       	rcall	.-630    	; 0xc0e <mfrc522_read>
     e84:	68 2f       	mov	r22, r24
     e86:	6f 77       	andi	r22, 0x7F	; 127
     e88:	8d e0       	ldi	r24, 0x0D	; 13
     e8a:	ac de       	rcall	.-680    	; 0xbe4 <mfrc522_write>
	return status;
}

uint8_t mfrc522_to_card(uint8_t cmd, uint8_t *send_data, uint8_t send_data_len, uint8_t *back_data, uint32_t *back_data_len)
{
	uint8_t status = ERROR;
     e8c:	c3 e0       	ldi	r28, 0x03	; 3
     e8e:	0c c0       	rjmp	.+24     	; 0xea8 <mfrc522_to_card+0x206>
        n = mfrc522_read(ComIrqReg);
        i--;
    }
    while ((i!=0) && !(n&0x01) && !(n&waitIRq));

	tmp=mfrc522_read(BitFramingReg);
     e90:	8d e0       	ldi	r24, 0x0D	; 13
     e92:	bd de       	rcall	.-646    	; 0xc0e <mfrc522_read>
     e94:	68 2f       	mov	r22, r24
	mfrc522_write(BitFramingReg,tmp&(~0x80));
     e96:	6f 77       	andi	r22, 0x7F	; 127
     e98:	8d e0       	ldi	r24, 0x0D	; 13
     e9a:	a4 de       	rcall	.-696    	; 0xbe4 <mfrc522_write>
     e9c:	86 e0       	ldi	r24, 0x06	; 6
     e9e:	b7 de       	rcall	.-658    	; 0xc0e <mfrc522_read>
	
    if (i != 0)
    {    
        if(!(mfrc522_read(ErrorReg) & 0x1B))	//BufferOvfl Collerr CRCErr ProtecolErr
     ea0:	8b 71       	andi	r24, 0x1B	; 27
     ea2:	09 f4       	brne	.+2      	; 0xea6 <mfrc522_to_card+0x204>
     ea4:	6e cf       	rjmp	.-292    	; 0xd82 <mfrc522_to_card+0xe0>
     ea6:	c3 e0       	ldi	r28, 0x03	; 3
     ea8:	8c 2f       	mov	r24, r28
     eaa:	df 91       	pop	r29
				}
            }
        }
        else
        {   
			status = ERROR;  
     eac:	cf 91       	pop	r28
	
    //SetBitMask(ControlReg,0x80);           //timer stops
    //mfrc522_write(cmdReg, PCD_IDLE); 

    return status;
}
     eae:	1f 91       	pop	r17
     eb0:	0f 91       	pop	r16
     eb2:	ff 90       	pop	r15
     eb4:	ef 90       	pop	r14
     eb6:	df 90       	pop	r13
     eb8:	cf 90       	pop	r12
     eba:	bf 90       	pop	r11
     ebc:	af 90       	pop	r10
     ebe:	9f 90       	pop	r9
     ec0:	8f 90       	pop	r8
     ec2:	7f 90       	pop	r7
     ec4:	6f 90       	pop	r6
     ec6:	5f 90       	pop	r5
     ec8:	4f 90       	pop	r4
     eca:	3f 90       	pop	r3
     ecc:	08 95       	ret

00000ece <mfrc522_request>:
     ece:	ef 92       	push	r14
     ed0:	ff 92       	push	r15
     ed2:	0f 93       	push	r16
{
	mfrc522_write(CommandReg,SoftReset_CMD);
}

uint8_t	mfrc522_request(uint8_t req_mode, uint8_t * tag_type)
{
     ed4:	1f 93       	push	r17
     ed6:	cf 93       	push	r28
     ed8:	df 93       	push	r29
     eda:	00 d0       	rcall	.+0      	; 0xedc <mfrc522_request+0xe>
     edc:	1f 92       	push	r1
     ede:	cd b7       	in	r28, 0x3d	; 61
     ee0:	de b7       	in	r29, 0x3e	; 62
     ee2:	18 2f       	mov	r17, r24
     ee4:	7b 01       	movw	r14, r22
	uint8_t  status;  
	uint32_t backBits;//The received data bits

	mfrc522_write(BitFramingReg, 0x07);//TxLastBists = BitFramingReg[2..0]	???
     ee6:	67 e0       	ldi	r22, 0x07	; 7
     ee8:	8d e0       	ldi	r24, 0x0D	; 13
     eea:	7c de       	rcall	.-776    	; 0xbe4 <mfrc522_write>
	
	tag_type[0] = req_mode;
     eec:	f7 01       	movw	r30, r14
     eee:	10 83       	st	Z, r17
	status = mfrc522_to_card(Transceive_CMD, tag_type, 1, tag_type, &backBits);
     ef0:	8e 01       	movw	r16, r28
     ef2:	0f 5f       	subi	r16, 0xFF	; 255
     ef4:	1f 4f       	sbci	r17, 0xFF	; 255
     ef6:	97 01       	movw	r18, r14
     ef8:	41 e0       	ldi	r20, 0x01	; 1
     efa:	b7 01       	movw	r22, r14
     efc:	8c e0       	ldi	r24, 0x0C	; 12
     efe:	d1 de       	rcall	.-606    	; 0xca2 <mfrc522_to_card>

	if ((status != CARD_FOUND) || (backBits != 0x10))
     f00:	81 30       	cpi	r24, 0x01	; 1
     f02:	59 f4       	brne	.+22     	; 0xf1a <mfrc522_request+0x4c>
     f04:	49 81       	ldd	r20, Y+1	; 0x01
     f06:	5a 81       	ldd	r21, Y+2	; 0x02
     f08:	6b 81       	ldd	r22, Y+3	; 0x03
     f0a:	7c 81       	ldd	r23, Y+4	; 0x04
     f0c:	40 31       	cpi	r20, 0x10	; 16
     f0e:	51 05       	cpc	r21, r1
     f10:	61 05       	cpc	r22, r1
     f12:	71 05       	cpc	r23, r1
     f14:	19 f0       	breq	.+6      	; 0xf1c <mfrc522_request+0x4e>
	{    
		status = ERROR;
     f16:	83 e0       	ldi	r24, 0x03	; 3
     f18:	01 c0       	rjmp	.+2      	; 0xf1c <mfrc522_request+0x4e>
     f1a:	83 e0       	ldi	r24, 0x03	; 3
	}
   
	return status;
}
     f1c:	0f 90       	pop	r0
     f1e:	0f 90       	pop	r0
     f20:	0f 90       	pop	r0
     f22:	0f 90       	pop	r0
     f24:	df 91       	pop	r29
     f26:	cf 91       	pop	r28
     f28:	1f 91       	pop	r17
     f2a:	0f 91       	pop	r16
     f2c:	ff 90       	pop	r15
     f2e:	ef 90       	pop	r14
     f30:	08 95       	ret

00000f32 <mfrc522_get_card_serial>:
    return status;
}


uint8_t mfrc522_get_card_serial(uint8_t * serial_out)
{
     f32:	ef 92       	push	r14
     f34:	ff 92       	push	r15
     f36:	0f 93       	push	r16
     f38:	1f 93       	push	r17
     f3a:	cf 93       	push	r28
     f3c:	df 93       	push	r29
     f3e:	00 d0       	rcall	.+0      	; 0xf40 <mfrc522_get_card_serial+0xe>
     f40:	1f 92       	push	r1
     f42:	cd b7       	in	r28, 0x3d	; 61
     f44:	de b7       	in	r29, 0x3e	; 62
     f46:	7c 01       	movw	r14, r24
	uint8_t status;
    uint8_t i;
	uint8_t serNumCheck=0;
    uint32_t unLen;
    
	mfrc522_write(BitFramingReg, 0x00);		//TxLastBists = BitFramingReg[2..0]
     f48:	60 e0       	ldi	r22, 0x00	; 0
     f4a:	8d e0       	ldi	r24, 0x0D	; 13
     f4c:	4b de       	rcall	.-874    	; 0xbe4 <mfrc522_write>
 
    serial_out[0] = PICC_ANTICOLL;
     f4e:	83 e9       	ldi	r24, 0x93	; 147
     f50:	f7 01       	movw	r30, r14
     f52:	80 83       	st	Z, r24
    serial_out[1] = 0x20;
     f54:	80 e2       	ldi	r24, 0x20	; 32
     f56:	81 83       	std	Z+1, r24	; 0x01
    status = mfrc522_to_card(Transceive_CMD, serial_out, 2, serial_out, &unLen);
     f58:	8e 01       	movw	r16, r28
     f5a:	0f 5f       	subi	r16, 0xFF	; 255
     f5c:	1f 4f       	sbci	r17, 0xFF	; 255
     f5e:	97 01       	movw	r18, r14
     f60:	42 e0       	ldi	r20, 0x02	; 2
     f62:	b7 01       	movw	r22, r14
     f64:	8c e0       	ldi	r24, 0x0C	; 12
     f66:	9d de       	rcall	.-710    	; 0xca2 <mfrc522_to_card>

    if (status == CARD_FOUND)
     f68:	81 30       	cpi	r24, 0x01	; 1
     f6a:	71 f4       	brne	.+28     	; 0xf88 <mfrc522_get_card_serial+0x56>
     f6c:	f7 01       	movw	r30, r14
     f6e:	a7 01       	movw	r20, r14
     f70:	4c 5f       	subi	r20, 0xFC	; 252
     f72:	5f 4f       	sbci	r21, 0xFF	; 255
     f74:	90 e0       	ldi	r25, 0x00	; 0
	{
		//Check card serial number
		for (i=0; i<4; i++)
		{   
		 	serNumCheck ^= serial_out[i];
     f76:	21 91       	ld	r18, Z+
     f78:	92 27       	eor	r25, r18
    status = mfrc522_to_card(Transceive_CMD, serial_out, 2, serial_out, &unLen);

    if (status == CARD_FOUND)
	{
		//Check card serial number
		for (i=0; i<4; i++)
     f7a:	4e 17       	cp	r20, r30
     f7c:	5f 07       	cpc	r21, r31
     f7e:	d9 f7       	brne	.-10     	; 0xf76 <mfrc522_get_card_serial+0x44>
		{   
		 	serNumCheck ^= serial_out[i];
		}
		if (serNumCheck != serial_out[i])
     f80:	f7 01       	movw	r30, r14
     f82:	24 81       	ldd	r18, Z+4	; 0x04
     f84:	92 13       	cpse	r25, r18
		{   
			status = ERROR;    
     f86:	83 e0       	ldi	r24, 0x03	; 3
		}
    }
    return status;
}
     f88:	0f 90       	pop	r0
     f8a:	0f 90       	pop	r0
     f8c:	0f 90       	pop	r0
     f8e:	0f 90       	pop	r0
     f90:	df 91       	pop	r29
     f92:	cf 91       	pop	r28
     f94:	1f 91       	pop	r17
     f96:	0f 91       	pop	r16
     f98:	ff 90       	pop	r15
     f9a:	ef 90       	pop	r14
     f9c:	08 95       	ret

00000f9e <check_Communication_Input_MFRC522>:

void check_Communication_Input_MFRC522(void)
{
     f9e:	0f 93       	push	r16
     fa0:	1f 93       	push	r17
     fa2:	cf 93       	push	r28
     fa4:	df 93       	push	r29
     fa6:	cd b7       	in	r28, 0x3d	; 61
     fa8:	de b7       	in	r29, 0x3e	; 62
     faa:	60 97       	sbiw	r28, 0x10	; 16
     fac:	0f b6       	in	r0, 0x3f	; 63
     fae:	f8 94       	cli
     fb0:	de bf       	out	0x3e, r29	; 62
     fb2:	0f be       	out	0x3f, r0	; 63
     fb4:	cd bf       	out	0x3d, r28	; 61
	char byte;
	uint8_t str[MAX_LEN];
	
	byte = mfrc522_read(ComIEnReg);
     fb6:	82 e0       	ldi	r24, 0x02	; 2
     fb8:	2a de       	rcall	.-940    	; 0xc0e <mfrc522_read>
	
	// 		Uart_Transmit_IT_PC((char *)byte);
	// 		Uart_Transmit_IT_PC("\r\n");

	mfrc522_write(ComIEnReg,byte|0x20);
     fba:	68 2f       	mov	r22, r24
     fbc:	60 62       	ori	r22, 0x20	; 32
     fbe:	82 e0       	ldi	r24, 0x02	; 2
     fc0:	11 de       	rcall	.-990    	; 0xbe4 <mfrc522_write>

	byte = mfrc522_read(DivIEnReg);
     fc2:	83 e0       	ldi	r24, 0x03	; 3
     fc4:	24 de       	rcall	.-952    	; 0xc0e <mfrc522_read>
     fc6:	68 2f       	mov	r22, r24
	
	// 		Uart_Transmit_IT_PC((char *)byte);
	// 		Uart_Transmit_IT_PC("\r\n");
	
	mfrc522_write(DivIEnReg,byte|0x80);
     fc8:	60 68       	ori	r22, 0x80	; 128
     fca:	83 e0       	ldi	r24, 0x03	; 3
     fcc:	0b de       	rcall	.-1002   	; 0xbe4 <mfrc522_write>
     fce:	be 01       	movw	r22, r28
	
	byte = mfrc522_request(PICC_REQALL,str);
     fd0:	6f 5f       	subi	r22, 0xFF	; 255
     fd2:	7f 4f       	sbci	r23, 0xFF	; 255
     fd4:	82 e5       	ldi	r24, 0x52	; 82
     fd6:	7b df       	rcall	.-266    	; 0xece <mfrc522_request>
     fd8:	81 30       	cpi	r24, 0x01	; 1
	
	// 	 	Uart_Transmit_IT_PC((char *) byte);
	// 	 	Uart_Transmit_IT_PC("\r\n");

	if(byte == CARD_FOUND)
     fda:	09 f0       	breq	.+2      	; 0xfde <check_Communication_Input_MFRC522+0x40>
     fdc:	3d c0       	rjmp	.+122    	; 0x1058 <check_Communication_Input_MFRC522+0xba>
	{
		byte = mfrc522_get_card_serial(str);
     fde:	ce 01       	movw	r24, r28
     fe0:	01 96       	adiw	r24, 0x01	; 1
     fe2:	a7 df       	rcall	.-178    	; 0xf32 <mfrc522_get_card_serial>
		Uart_Transmit_IT_PC(( char *)str);
     fe4:	ce 01       	movw	r24, r28
     fe6:	01 96       	adiw	r24, 0x01	; 1
     fe8:	55 d1       	rcall	.+682    	; 0x1294 <Uart_Transmit_IT_PC>
     fea:	8f e6       	ldi	r24, 0x6F	; 111
		Uart_Transmit_IT_PC(" :Vorher\r\n");
     fec:	94 e0       	ldi	r25, 0x04	; 4
     fee:	52 d1       	rcall	.+676    	; 0x1294 <Uart_Transmit_IT_PC>
     ff0:	89 81       	ldd	r24, Y+1	; 0x01
     ff2:	81 30       	cpi	r24, 0x01	; 1
		
		
		if(str[0]!=1)
     ff4:	41 f1       	breq	.+80     	; 0x1046 <check_Communication_Input_MFRC522+0xa8>
     ff6:	8b 81       	ldd	r24, Y+3	; 0x03
		{
			if (str[2]!=2)
     ff8:	82 30       	cpi	r24, 0x02	; 2
     ffa:	99 f0       	breq	.+38     	; 0x1022 <check_Communication_Input_MFRC522+0x84>
     ffc:	8a e7       	ldi	r24, 0x7A	; 122
			{
				unsigned char * ch0 = (unsigned char *) atoi((const char *)"12");
     ffe:	94 e0       	ldi	r25, 0x04	; 4
    1000:	c2 d6       	rcall	.+3460   	; 0x1d86 <atoi>
    1002:	fc 01       	movw	r30, r24
    1004:	01 90       	ld	r0, Z+
				unsigned char len = (unsigned char )strlen((const char *) ch0);
    1006:	00 20       	and	r0, r0
    1008:	e9 f7       	brne	.-6      	; 0x1004 <check_Communication_Input_MFRC522+0x66>
    100a:	31 97       	sbiw	r30, 0x01	; 1
    100c:	af 01       	movw	r20, r30
    100e:	48 1b       	sub	r20, r24
    1010:	59 0b       	sbc	r21, r25
    1012:	00 e0       	ldi	r16, 0x00	; 0
				unsigned char * chBack = 0;
				uint32_t * data_len_Back = 0;
				mfrc522_to_card(Transceive_CMD, ch0, len, chBack, data_len_Back);
    1014:	10 e0       	ldi	r17, 0x00	; 0
    1016:	20 e0       	ldi	r18, 0x00	; 0
    1018:	30 e0       	ldi	r19, 0x00	; 0
    101a:	bc 01       	movw	r22, r24
    101c:	8c e0       	ldi	r24, 0x0C	; 12
    101e:	41 de       	rcall	.-894    	; 0xca2 <mfrc522_to_card>
    1020:	12 c0       	rjmp	.+36     	; 0x1046 <check_Communication_Input_MFRC522+0xa8>
    1022:	8d e7       	ldi	r24, 0x7D	; 125
			}
			else if (str[2]!=3)
			{
				unsigned char * ch0 = (unsigned char *) atoi((const char *)"13");
    1024:	94 e0       	ldi	r25, 0x04	; 4
    1026:	af d6       	rcall	.+3422   	; 0x1d86 <atoi>
    1028:	fc 01       	movw	r30, r24
    102a:	01 90       	ld	r0, Z+
				unsigned char len = (unsigned char )strlen((const char *) ch0);
    102c:	00 20       	and	r0, r0
    102e:	e9 f7       	brne	.-6      	; 0x102a <check_Communication_Input_MFRC522+0x8c>
    1030:	31 97       	sbiw	r30, 0x01	; 1
    1032:	af 01       	movw	r20, r30
    1034:	48 1b       	sub	r20, r24
    1036:	59 0b       	sbc	r21, r25
				unsigned char * chBack = 0;
				uint32_t * data_len_Back = 0;
				mfrc522_to_card(Transceive_CMD, ch0, len, chBack, data_len_Back);
    1038:	00 e0       	ldi	r16, 0x00	; 0
    103a:	10 e0       	ldi	r17, 0x00	; 0
    103c:	20 e0       	ldi	r18, 0x00	; 0
    103e:	30 e0       	ldi	r19, 0x00	; 0
    1040:	bc 01       	movw	r22, r24
    1042:	8c e0       	ldi	r24, 0x0C	; 12
			}
		}
		byte = mfrc522_get_card_serial(str);
    1044:	2e de       	rcall	.-932    	; 0xca2 <mfrc522_to_card>
    1046:	ce 01       	movw	r24, r28
    1048:	01 96       	adiw	r24, 0x01	; 1
    104a:	73 df       	rcall	.-282    	; 0xf32 <mfrc522_get_card_serial>
		Uart_Transmit_IT_PC((char *)str);
    104c:	ce 01       	movw	r24, r28
    104e:	01 96       	adiw	r24, 0x01	; 1
    1050:	21 d1       	rcall	.+578    	; 0x1294 <Uart_Transmit_IT_PC>
    1052:	80 e8       	ldi	r24, 0x80	; 128
		Uart_Transmit_IT_PC(" : Nachher \r\n");
    1054:	94 e0       	ldi	r25, 0x04	; 4
    1056:	1e d1       	rcall	.+572    	; 0x1294 <Uart_Transmit_IT_PC>
    1058:	60 96       	adiw	r28, 0x10	; 16
    105a:	0f b6       	in	r0, 0x3f	; 63
	}
	else
	{
		// 			Uart_Transmit_IT_PC(" Error \r\n");
	}
    105c:	f8 94       	cli
    105e:	de bf       	out	0x3e, r29	; 62
    1060:	0f be       	out	0x3f, r0	; 63
    1062:	cd bf       	out	0x3d, r28	; 61
    1064:	df 91       	pop	r29
    1066:	cf 91       	pop	r28
    1068:	1f 91       	pop	r17
    106a:	0f 91       	pop	r16
    106c:	08 95       	ret

0000106e <RB_init>:
    106e:	fc 01       	movw	r30, r24
    1070:	11 82       	std	Z+1, r1	; 0x01
		}
	}
	rb->tail = tail;
	
	return 1;
}
    1072:	10 82       	st	Z, r1
    1074:	08 95       	ret

00001076 <RB_free>:
    1076:	fc 01       	movw	r30, r24
    1078:	90 81       	ld	r25, Z
    107a:	81 81       	ldd	r24, Z+1	; 0x01
    107c:	98 17       	cp	r25, r24
    107e:	20 f0       	brcs	.+8      	; 0x1088 <RB_free+0x12>
    1080:	98 1b       	sub	r25, r24
    1082:	89 2f       	mov	r24, r25
    1084:	80 95       	com	r24
    1086:	08 95       	ret
    1088:	89 1b       	sub	r24, r25
    108a:	08 95       	ret

0000108c <RB_length>:
    108c:	fc 01       	movw	r30, r24
    108e:	20 81       	ld	r18, Z
    1090:	91 81       	ldd	r25, Z+1	; 0x01
    1092:	29 17       	cp	r18, r25
    1094:	18 f0       	brcs	.+6      	; 0x109c <RB_length+0x10>
    1096:	82 2f       	mov	r24, r18
    1098:	89 1b       	sub	r24, r25
    109a:	08 95       	ret
    109c:	89 2f       	mov	r24, r25
    109e:	82 1b       	sub	r24, r18
    10a0:	80 95       	com	r24
    10a2:	08 95       	ret

000010a4 <RB_readByte>:
    10a4:	cf 93       	push	r28
    10a6:	df 93       	push	r29
    10a8:	ec 01       	movw	r28, r24
    10aa:	f0 df       	rcall	.-32     	; 0x108c <RB_length>
    10ac:	88 23       	and	r24, r24
    10ae:	59 f0       	breq	.+22     	; 0x10c6 <RB_readByte+0x22>
    10b0:	89 81       	ldd	r24, Y+1	; 0x01
    10b2:	91 e0       	ldi	r25, 0x01	; 1
    10b4:	98 0f       	add	r25, r24
    10b6:	fe 01       	movw	r30, r28
    10b8:	e8 0f       	add	r30, r24
    10ba:	f1 1d       	adc	r31, r1
    10bc:	82 81       	ldd	r24, Z+2	; 0x02
    10be:	9f 3f       	cpi	r25, 0xFF	; 255
    10c0:	09 f4       	brne	.+2      	; 0x10c4 <RB_readByte+0x20>
    10c2:	90 e0       	ldi	r25, 0x00	; 0
    10c4:	99 83       	std	Y+1, r25	; 0x01
    10c6:	df 91       	pop	r29
    10c8:	cf 91       	pop	r28
    10ca:	08 95       	ret

000010cc <RB_writeByte>:
    10cc:	0f 93       	push	r16
    10ce:	1f 93       	push	r17
    10d0:	cf 93       	push	r28
    10d2:	df 93       	push	r29
    10d4:	ec 01       	movw	r28, r24
    10d6:	16 2f       	mov	r17, r22
    10d8:	08 81       	ld	r16, Y
    10da:	cd df       	rcall	.-102    	; 0x1076 <RB_free>
    10dc:	88 23       	and	r24, r24
    10de:	f1 f3       	breq	.-4      	; 0x10dc <RB_writeByte+0x10>
    10e0:	11 11       	cpse	r17, r1
    10e2:	01 c0       	rjmp	.+2      	; 0x10e6 <RB_writeByte+0x1a>
    10e4:	1f ef       	ldi	r17, 0xFF	; 255
    10e6:	81 e0       	ldi	r24, 0x01	; 1
    10e8:	80 0f       	add	r24, r16
    10ea:	fe 01       	movw	r30, r28
    10ec:	e0 0f       	add	r30, r16
    10ee:	f1 1d       	adc	r31, r1
    10f0:	12 83       	std	Z+2, r17	; 0x02
    10f2:	8f 3f       	cpi	r24, 0xFF	; 255
    10f4:	09 f4       	brne	.+2      	; 0x10f8 <RB_writeByte+0x2c>
    10f6:	80 e0       	ldi	r24, 0x00	; 0
    10f8:	88 83       	st	Y, r24
    10fa:	81 e0       	ldi	r24, 0x01	; 1
    10fc:	df 91       	pop	r29
    10fe:	cf 91       	pop	r28
    1100:	1f 91       	pop	r17
    1102:	0f 91       	pop	r16
    1104:	08 95       	ret

00001106 <RB_write>:

unsigned char RB_write( ring_buffer_t *rb, char *data, unsigned char datal )
{
    1106:	ff 92       	push	r15
    1108:	0f 93       	push	r16
    110a:	1f 93       	push	r17
    110c:	cf 93       	push	r28
    110e:	df 93       	push	r29
	unsigned char head;
	
	head = rb->head;
	
	if (datal == 0)
    1110:	44 23       	and	r20, r20
    1112:	d9 f0       	breq	.+54     	; 0x114a <RB_write+0x44>
    1114:	c4 2f       	mov	r28, r20
    1116:	d7 2f       	mov	r29, r23
    1118:	f6 2e       	mov	r15, r22
    111a:	8c 01       	movw	r16, r24
	{
		return  0;
	}
	
	while(RB_free(rb) < datal);
    111c:	ac df       	rcall	.-168    	; 0x1076 <RB_free>
    111e:	8c 17       	cp	r24, r28
    1120:	f0 f3       	brcs	.-4      	; 0x111e <RB_write+0x18>
    1122:	15 c0       	rjmp	.+42     	; 0x114e <RB_write+0x48>
	
	while(datal--)
	{
		rb->data[head++] = *data++;
    1124:	21 e0       	ldi	r18, 0x01	; 1
    1126:	29 0f       	add	r18, r25
    1128:	31 91       	ld	r19, Z+
    112a:	d8 01       	movw	r26, r16
    112c:	a9 0f       	add	r26, r25
    112e:	b1 1d       	adc	r27, r1
    1130:	12 96       	adiw	r26, 0x02	; 2
    1132:	3c 93       	st	X, r19
		if (head >= RING_BUFFER_SIZE)
    1134:	2f 3f       	cpi	r18, 0xFF	; 255
    1136:	11 f4       	brne	.+4      	; 0x113c <RB_write+0x36>
		{
			head = 0;
    1138:	98 2f       	mov	r25, r24
    113a:	01 c0       	rjmp	.+2      	; 0x113e <RB_write+0x38>
	
	while(RB_free(rb) < datal);
	
	while(datal--)
	{
		rb->data[head++] = *data++;
    113c:	92 2f       	mov	r25, r18
		return  0;
	}
	
	while(RB_free(rb) < datal);
	
	while(datal--)
    113e:	41 50       	subi	r20, 0x01	; 1
    1140:	88 f7       	brcc	.-30     	; 0x1124 <RB_write+0x1e>
		{
			head = 0;
		}
	}
	
	rb->head = head;
    1142:	f8 01       	movw	r30, r16
    1144:	90 83       	st	Z, r25
	
	return 1;
    1146:	81 e0       	ldi	r24, 0x01	; 1
    1148:	0a c0       	rjmp	.+20     	; 0x115e <RB_write+0x58>
	
	head = rb->head;
	
	if (datal == 0)
	{
		return  0;
    114a:	80 e0       	ldi	r24, 0x00	; 0
    114c:	08 c0       	rjmp	.+16     	; 0x115e <RB_write+0x58>

unsigned char RB_write( ring_buffer_t *rb, char *data, unsigned char datal )
{
	unsigned char head;
	
	head = rb->head;
    114e:	f8 01       	movw	r30, r16
    1150:	90 81       	ld	r25, Z
		return  0;
	}
	
	while(RB_free(rb) < datal);
	
	while(datal--)
    1152:	4f ef       	ldi	r20, 0xFF	; 255
    1154:	4c 0f       	add	r20, r28
    1156:	ef 2d       	mov	r30, r15
    1158:	fd 2f       	mov	r31, r29
	{
		rb->data[head++] = *data++;
		if (head >= RING_BUFFER_SIZE)
		{
			head = 0;
    115a:	80 e0       	ldi	r24, 0x00	; 0
    115c:	e3 cf       	rjmp	.-58     	; 0x1124 <RB_write+0x1e>
	}
	
	rb->head = head;
	
	return 1;
}
    115e:	df 91       	pop	r29
    1160:	cf 91       	pop	r28
    1162:	1f 91       	pop	r17
    1164:	0f 91       	pop	r16
    1166:	ff 90       	pop	r15
    1168:	08 95       	ret

0000116a <spi_transmit>:
	}
}

uint8_t spi_transmit(uint8_t data)
{
	SPDR = data;
    116a:	8e bd       	out	0x2e, r24	; 46
	while(!(SPSR & (1<<SPIF)));
    116c:	0d b4       	in	r0, 0x2d	; 45
    116e:	07 fe       	sbrs	r0, 7
    1170:	fd cf       	rjmp	.-6      	; 0x116c <spi_transmit+0x2>
	return SPDR;
    1172:	8e b5       	in	r24, 0x2e	; 46
}
    1174:	08 95       	ret

00001176 <enable_Slave>:

void enable_Slave(uint8_t Slave)
{
	switch (Slave)
    1176:	81 30       	cpi	r24, 0x01	; 1
    1178:	31 f0       	breq	.+12     	; 0x1186 <enable_Slave+0x10>
    117a:	18 f0       	brcs	.+6      	; 0x1182 <enable_Slave+0xc>
    117c:	82 30       	cpi	r24, 0x02	; 2
    117e:	49 f0       	breq	.+18     	; 0x1192 <enable_Slave+0x1c>
    1180:	08 95       	ret
	{
		case TMC4671:
		SPI_CS_TMC4671_PORT &= ~SPI_CS_TMC4671_BIT;
    1182:	28 98       	cbi	0x05, 0	; 5
		break;
    1184:	08 95       	ret
		
		case TMC6200:
		SPI_CS_TMC6200_PORT &= ~SPI_CS_TMC6200_BIT;
    1186:	e2 e0       	ldi	r30, 0x02	; 2
    1188:	f1 e0       	ldi	r31, 0x01	; 1
    118a:	80 81       	ld	r24, Z
    118c:	8f 7b       	andi	r24, 0xBF	; 191
    118e:	80 83       	st	Z, r24
		break;
    1190:	08 95       	ret
		
		case MFRC522:
		SPI_CS_RC522_PORT &= ~SPI_CS_RC522_BIT;
    1192:	40 98       	cbi	0x08, 0	; 8
    1194:	08 95       	ret

00001196 <disable_Slave>:
	}
}

void disable_Slave(uint8_t Slave)
{
	switch (Slave)
    1196:	81 30       	cpi	r24, 0x01	; 1
    1198:	31 f0       	breq	.+12     	; 0x11a6 <disable_Slave+0x10>
    119a:	18 f0       	brcs	.+6      	; 0x11a2 <disable_Slave+0xc>
    119c:	82 30       	cpi	r24, 0x02	; 2
    119e:	49 f0       	breq	.+18     	; 0x11b2 <disable_Slave+0x1c>
    11a0:	08 95       	ret
	{
		case TMC4671:
		SPI_CS_TMC4671_PORT |= SPI_CS_TMC4671_BIT;
    11a2:	28 9a       	sbi	0x05, 0	; 5
		break;
    11a4:	08 95       	ret
		
		case TMC6200:
		SPI_CS_TMC6200_PORT |= SPI_CS_TMC6200_BIT;
    11a6:	e2 e0       	ldi	r30, 0x02	; 2
    11a8:	f1 e0       	ldi	r31, 0x01	; 1
    11aa:	80 81       	ld	r24, Z
    11ac:	80 64       	ori	r24, 0x40	; 64
    11ae:	80 83       	st	Z, r24
		break;
    11b0:	08 95       	ret
		
		case MFRC522:
		SPI_CS_RC522_PORT |= SPI_CS_RC522_BIT;
    11b2:	40 9a       	sbi	0x08, 0	; 8
    11b4:	08 95       	ret

000011b6 <SPI_init>:

void SPI_init(void)
{
	// Einstellungen fr TMC4671: CLK = 1MHz, SPI-Mode = 3, MSB first)

	SPCR = ((1<<SPE)|       // SPI Enable					(1 = Enable, 0 = Disable)					Datasheet S. 197 (Kapitel 21.2.1)
    11b6:	83 e5       	ldi	r24, 0x53	; 83
    11b8:	8c bd       	out	0x2c, r24	; 44
	(1<<MSTR)|              // Master/Slave select			(0 = Slave, 1 = Master)						Datasheet S. 197 (Kapitel 21.2.1)
	(1<<SPR1)|(1<<SPR0)|    // SPI Clock Rate				(Divider Systemclock 16MHz)					Datasheet S. 198 (Kapitel 21.2.1)
	(0<<CPOL)|              // Clock Polarity when idle		(0 = low, 1 = SCK high)						Datasheet S. 197 (Kapitel 21.2.1)
	(0<<CPHA));             // Clock Phase edge sampling	(0 = leading, 1 = trailing edge sampling)	Datasheet S. 197 (Kapitel 21.2.1)

	SPSR = (0<<SPI2X);      // Double Clock Rate			(0 = Disable, 1 = Enable)					Datasheet S. 198 (Kapitel 21.2.1)
    11ba:	1d bc       	out	0x2d, r1	; 45

	RB_init(&rb_SPI_w);
    11bc:	85 ef       	ldi	r24, 0xF5	; 245
    11be:	9c e0       	ldi	r25, 0x0C	; 12
    11c0:	56 df       	rcall	.-340    	; 0x106e <RB_init>
	RB_init(&rb_SPI_r);
    11c2:	80 ef       	ldi	r24, 0xF0	; 240
    11c4:	99 e0       	ldi	r25, 0x09	; 9
    11c6:	53 df       	rcall	.-346    	; 0x106e <RB_init>

	disable_Slave(TMC4671);
    11c8:	80 e0       	ldi	r24, 0x00	; 0
    11ca:	e5 df       	rcall	.-54     	; 0x1196 <disable_Slave>
	disable_Slave(TMC6200);
    11cc:	81 e0       	ldi	r24, 0x01	; 1
    11ce:	e3 df       	rcall	.-58     	; 0x1196 <disable_Slave>
	disable_Slave(MFRC522);
    11d0:	82 e0       	ldi	r24, 0x02	; 2
    11d2:	e1 cf       	rjmp	.-62     	; 0x1196 <disable_Slave>
    11d4:	08 95       	ret

000011d6 <tx_completed>:
    11d6:	00 00       	nop

void Uart_Transmit_IT_ESP(char *data)
{
	uint8_t nbytes = strlen((const char *)data);
	RB_write(&rb_tx_ESP, data, nbytes);
	Uart_EnableTransmitIT_2();
    11d8:	00 00       	nop
    11da:	08 95       	ret

000011dc <UART_init>:
    11dc:	ef 92       	push	r14
    11de:	ff 92       	push	r15
    11e0:	0f 93       	push	r16
    11e2:	1f 93       	push	r17
    11e4:	cf 93       	push	r28
    11e6:	df 93       	push	r29
    11e8:	10 92 c5 00 	sts	0x00C5, r1	; 0x8000c5 <__TEXT_REGION_LENGTH__+0x7000c5>
    11ec:	27 e6       	ldi	r18, 0x67	; 103
    11ee:	20 93 c4 00 	sts	0x00C4, r18	; 0x8000c4 <__TEXT_REGION_LENGTH__+0x7000c4>
    11f2:	0f 2e       	mov	r0, r31
    11f4:	f1 ec       	ldi	r31, 0xC1	; 193
    11f6:	ef 2e       	mov	r14, r31
    11f8:	f1 2c       	mov	r15, r1
    11fa:	f0 2d       	mov	r31, r0
    11fc:	98 e9       	ldi	r25, 0x98	; 152
    11fe:	f7 01       	movw	r30, r14
    1200:	90 83       	st	Z, r25
    1202:	86 e0       	ldi	r24, 0x06	; 6
    1204:	80 93 c2 00 	sts	0x00C2, r24	; 0x8000c2 <__TEXT_REGION_LENGTH__+0x7000c2>
    1208:	10 92 cd 00 	sts	0x00CD, r1	; 0x8000cd <__TEXT_REGION_LENGTH__+0x7000cd>
    120c:	20 93 cc 00 	sts	0x00CC, r18	; 0x8000cc <__TEXT_REGION_LENGTH__+0x7000cc>
    1210:	09 ec       	ldi	r16, 0xC9	; 201
    1212:	10 e0       	ldi	r17, 0x00	; 0
    1214:	f8 01       	movw	r30, r16
    1216:	90 83       	st	Z, r25
    1218:	80 93 ca 00 	sts	0x00CA, r24	; 0x8000ca <__TEXT_REGION_LENGTH__+0x7000ca>
    121c:	10 92 d5 00 	sts	0x00D5, r1	; 0x8000d5 <__TEXT_REGION_LENGTH__+0x7000d5>
    1220:	20 93 d4 00 	sts	0x00D4, r18	; 0x8000d4 <__TEXT_REGION_LENGTH__+0x7000d4>
    1224:	c1 ed       	ldi	r28, 0xD1	; 209
    1226:	d0 e0       	ldi	r29, 0x00	; 0
    1228:	98 83       	st	Y, r25
    122a:	80 93 d2 00 	sts	0x00D2, r24	; 0x8000d2 <__TEXT_REGION_LENGTH__+0x7000d2>
    122e:	81 ee       	ldi	r24, 0xE1	; 225
    1230:	94 e0       	ldi	r25, 0x04	; 4
    1232:	1d df       	rcall	.-454    	; 0x106e <RB_init>
    1234:	81 ef       	ldi	r24, 0xF1	; 241
    1236:	9a e0       	ldi	r25, 0x0A	; 10
    1238:	1a df       	rcall	.-460    	; 0x106e <RB_init>
    123a:	84 ee       	ldi	r24, 0xE4	; 228
    123c:	95 e0       	ldi	r25, 0x05	; 5
    123e:	17 df       	rcall	.-466    	; 0x106e <RB_init>
    1240:	8c ee       	ldi	r24, 0xEC	; 236
    1242:	97 e0       	ldi	r25, 0x07	; 7
    1244:	14 df       	rcall	.-472    	; 0x106e <RB_init>
    1246:	82 ef       	ldi	r24, 0xF2	; 242
    1248:	9b e0       	ldi	r25, 0x0B	; 11
    124a:	11 df       	rcall	.-478    	; 0x106e <RB_init>
    124c:	8b ee       	ldi	r24, 0xEB	; 235
    124e:	96 e0       	ldi	r25, 0x06	; 6
    1250:	0e df       	rcall	.-484    	; 0x106e <RB_init>
    1252:	f7 01       	movw	r30, r14
    1254:	80 81       	ld	r24, Z
    1256:	80 68       	ori	r24, 0x80	; 128
    1258:	80 83       	st	Z, r24
    125a:	f8 01       	movw	r30, r16
    125c:	80 81       	ld	r24, Z
    125e:	80 68       	ori	r24, 0x80	; 128
    1260:	80 83       	st	Z, r24
    1262:	88 81       	ld	r24, Y
    1264:	80 68       	ori	r24, 0x80	; 128
    1266:	88 83       	st	Y, r24
    1268:	78 94       	sei
    126a:	8b ee       	ldi	r24, 0xEB	; 235
    126c:	98 e0       	ldi	r25, 0x08	; 8
    126e:	90 93 06 0f 	sts	0x0F06, r25	; 0x800f06 <ptr_tx_completed_0+0x1>
    1272:	80 93 05 0f 	sts	0x0F05, r24	; 0x800f05 <ptr_tx_completed_0>
    1276:	90 93 00 0f 	sts	0x0F00, r25	; 0x800f00 <ptr_tx_completed_1+0x1>
    127a:	80 93 ff 0e 	sts	0x0EFF, r24	; 0x800eff <ptr_tx_completed_1>
    127e:	90 93 02 0f 	sts	0x0F02, r25	; 0x800f02 <ptr_tx_completed_2+0x1>
    1282:	80 93 01 0f 	sts	0x0F01, r24	; 0x800f01 <ptr_tx_completed_2>
    1286:	df 91       	pop	r29
    1288:	cf 91       	pop	r28
    128a:	1f 91       	pop	r17
    128c:	0f 91       	pop	r16
    128e:	ff 90       	pop	r15
    1290:	ef 90       	pop	r14
    1292:	08 95       	ret

00001294 <Uart_Transmit_IT_PC>:
    1294:	fc 01       	movw	r30, r24
    1296:	01 90       	ld	r0, Z+
    1298:	00 20       	and	r0, r0
    129a:	e9 f7       	brne	.-6      	; 0x1296 <Uart_Transmit_IT_PC+0x2>
    129c:	31 97       	sbiw	r30, 0x01	; 1
    129e:	af 01       	movw	r20, r30
    12a0:	48 1b       	sub	r20, r24
    12a2:	59 0b       	sbc	r21, r25
    12a4:	bc 01       	movw	r22, r24
    12a6:	81 ee       	ldi	r24, 0xE1	; 225
    12a8:	94 e0       	ldi	r25, 0x04	; 4
    12aa:	2d df       	rcall	.-422    	; 0x1106 <RB_write>
    12ac:	e1 ec       	ldi	r30, 0xC1	; 193
    12ae:	f0 e0       	ldi	r31, 0x00	; 0
    12b0:	80 81       	ld	r24, Z
    12b2:	80 62       	ori	r24, 0x20	; 32
    12b4:	80 83       	st	Z, r24
    12b6:	08 95       	ret

000012b8 <Uart_Transmit_IT_Display>:
    12b8:	fc 01       	movw	r30, r24
    12ba:	01 90       	ld	r0, Z+
    12bc:	00 20       	and	r0, r0
    12be:	e9 f7       	brne	.-6      	; 0x12ba <Uart_Transmit_IT_Display+0x2>
    12c0:	31 97       	sbiw	r30, 0x01	; 1
    12c2:	af 01       	movw	r20, r30
    12c4:	48 1b       	sub	r20, r24
    12c6:	59 0b       	sbc	r21, r25
    12c8:	bc 01       	movw	r22, r24
    12ca:	84 ee       	ldi	r24, 0xE4	; 228
    12cc:	95 e0       	ldi	r25, 0x05	; 5
    12ce:	1b df       	rcall	.-458    	; 0x1106 <RB_write>
    12d0:	e9 ec       	ldi	r30, 0xC9	; 201
    12d2:	f0 e0       	ldi	r31, 0x00	; 0
    12d4:	80 81       	ld	r24, Z
    12d6:	80 62       	ori	r24, 0x20	; 32
    12d8:	80 83       	st	Z, r24
    12da:	08 95       	ret

000012dc <__vector_26>:
	asm("nop");
	asm("nop");
}

ISR(USART0_UDRE_vect)
{
    12dc:	1f 92       	push	r1
    12de:	0f 92       	push	r0
    12e0:	0f b6       	in	r0, 0x3f	; 63
    12e2:	0f 92       	push	r0
    12e4:	11 24       	eor	r1, r1
    12e6:	0b b6       	in	r0, 0x3b	; 59
    12e8:	0f 92       	push	r0
    12ea:	2f 93       	push	r18
    12ec:	3f 93       	push	r19
    12ee:	4f 93       	push	r20
    12f0:	5f 93       	push	r21
    12f2:	6f 93       	push	r22
    12f4:	7f 93       	push	r23
    12f6:	8f 93       	push	r24
    12f8:	9f 93       	push	r25
    12fa:	af 93       	push	r26
    12fc:	bf 93       	push	r27
    12fe:	ef 93       	push	r30
    1300:	ff 93       	push	r31
	if (RB_length(&rb_tx_PC) > 0)
    1302:	81 ee       	ldi	r24, 0xE1	; 225
    1304:	94 e0       	ldi	r25, 0x04	; 4
    1306:	c2 de       	rcall	.-636    	; 0x108c <RB_length>
    1308:	88 23       	and	r24, r24
    130a:	31 f0       	breq	.+12     	; 0x1318 <__vector_26+0x3c>
	{
		UDR0 = RB_readByte(&rb_tx_PC);
    130c:	81 ee       	ldi	r24, 0xE1	; 225
    130e:	94 e0       	ldi	r25, 0x04	; 4
    1310:	c9 de       	rcall	.-622    	; 0x10a4 <RB_readByte>
    1312:	80 93 c6 00 	sts	0x00C6, r24	; 0x8000c6 <__TEXT_REGION_LENGTH__+0x7000c6>
    1316:	0c c0       	rjmp	.+24     	; 0x1330 <__vector_26+0x54>
	}
	else
	{
		Uart_DisableTransmitIT_0();
    1318:	e1 ec       	ldi	r30, 0xC1	; 193
    131a:	f0 e0       	ldi	r31, 0x00	; 0
    131c:	80 81       	ld	r24, Z
    131e:	8f 7d       	andi	r24, 0xDF	; 223
    1320:	80 83       	st	Z, r24
		if(ptr_tx_completed_0 != 0)
    1322:	e0 91 05 0f 	lds	r30, 0x0F05	; 0x800f05 <ptr_tx_completed_0>
    1326:	f0 91 06 0f 	lds	r31, 0x0F06	; 0x800f06 <ptr_tx_completed_0+0x1>
    132a:	30 97       	sbiw	r30, 0x00	; 0
    132c:	09 f0       	breq	.+2      	; 0x1330 <__vector_26+0x54>
			ptr_tx_completed_0();
    132e:	19 95       	eicall
	}
}
    1330:	ff 91       	pop	r31
    1332:	ef 91       	pop	r30
    1334:	bf 91       	pop	r27
    1336:	af 91       	pop	r26
    1338:	9f 91       	pop	r25
    133a:	8f 91       	pop	r24
    133c:	7f 91       	pop	r23
    133e:	6f 91       	pop	r22
    1340:	5f 91       	pop	r21
    1342:	4f 91       	pop	r20
    1344:	3f 91       	pop	r19
    1346:	2f 91       	pop	r18
    1348:	0f 90       	pop	r0
    134a:	0b be       	out	0x3b, r0	; 59
    134c:	0f 90       	pop	r0
    134e:	0f be       	out	0x3f, r0	; 63
    1350:	0f 90       	pop	r0
    1352:	1f 90       	pop	r1
    1354:	18 95       	reti

00001356 <__vector_25>:

ISR(USART0_RX_vect)
{	
    1356:	1f 92       	push	r1
    1358:	0f 92       	push	r0
    135a:	0f b6       	in	r0, 0x3f	; 63
    135c:	0f 92       	push	r0
    135e:	11 24       	eor	r1, r1
    1360:	0b b6       	in	r0, 0x3b	; 59
    1362:	0f 92       	push	r0
    1364:	2f 93       	push	r18
    1366:	3f 93       	push	r19
    1368:	4f 93       	push	r20
    136a:	5f 93       	push	r21
    136c:	6f 93       	push	r22
    136e:	7f 93       	push	r23
    1370:	8f 93       	push	r24
    1372:	9f 93       	push	r25
    1374:	af 93       	push	r26
    1376:	bf 93       	push	r27
    1378:	ef 93       	push	r30
    137a:	ff 93       	push	r31
	char ch = UDR0;
    137c:	60 91 c6 00 	lds	r22, 0x00C6	; 0x8000c6 <__TEXT_REGION_LENGTH__+0x7000c6>
	RB_writeByte(&rb_rx_PC,ch);
    1380:	81 ef       	ldi	r24, 0xF1	; 241
    1382:	9a e0       	ldi	r25, 0x0A	; 10
    1384:	a3 de       	rcall	.-698    	; 0x10cc <RB_writeByte>
}
    1386:	ff 91       	pop	r31
    1388:	ef 91       	pop	r30
    138a:	bf 91       	pop	r27
    138c:	af 91       	pop	r26
    138e:	9f 91       	pop	r25
    1390:	8f 91       	pop	r24
    1392:	7f 91       	pop	r23
    1394:	6f 91       	pop	r22
    1396:	5f 91       	pop	r21
    1398:	4f 91       	pop	r20
    139a:	3f 91       	pop	r19
    139c:	2f 91       	pop	r18
    139e:	0f 90       	pop	r0
    13a0:	0b be       	out	0x3b, r0	; 59
    13a2:	0f 90       	pop	r0
    13a4:	0f be       	out	0x3f, r0	; 63
    13a6:	0f 90       	pop	r0
    13a8:	1f 90       	pop	r1
    13aa:	18 95       	reti

000013ac <__vector_37>:

ISR(USART1_UDRE_vect)
{
    13ac:	1f 92       	push	r1
    13ae:	0f 92       	push	r0
    13b0:	0f b6       	in	r0, 0x3f	; 63
    13b2:	0f 92       	push	r0
    13b4:	11 24       	eor	r1, r1
    13b6:	0b b6       	in	r0, 0x3b	; 59
    13b8:	0f 92       	push	r0
    13ba:	2f 93       	push	r18
    13bc:	3f 93       	push	r19
    13be:	4f 93       	push	r20
    13c0:	5f 93       	push	r21
    13c2:	6f 93       	push	r22
    13c4:	7f 93       	push	r23
    13c6:	8f 93       	push	r24
    13c8:	9f 93       	push	r25
    13ca:	af 93       	push	r26
    13cc:	bf 93       	push	r27
    13ce:	ef 93       	push	r30
    13d0:	ff 93       	push	r31
	if (RB_length(&rb_tx_Display) > 0)
    13d2:	84 ee       	ldi	r24, 0xE4	; 228
    13d4:	95 e0       	ldi	r25, 0x05	; 5
    13d6:	5a de       	rcall	.-844    	; 0x108c <RB_length>
    13d8:	88 23       	and	r24, r24
    13da:	31 f0       	breq	.+12     	; 0x13e8 <__vector_37+0x3c>
	{
		UDR1 = RB_readByte(&rb_tx_Display);
    13dc:	84 ee       	ldi	r24, 0xE4	; 228
    13de:	95 e0       	ldi	r25, 0x05	; 5
    13e0:	61 de       	rcall	.-830    	; 0x10a4 <RB_readByte>
    13e2:	80 93 ce 00 	sts	0x00CE, r24	; 0x8000ce <__TEXT_REGION_LENGTH__+0x7000ce>
    13e6:	0c c0       	rjmp	.+24     	; 0x1400 <__vector_37+0x54>
	}
	else
	{
		Uart_DisableTransmitIT_1();
    13e8:	e9 ec       	ldi	r30, 0xC9	; 201
    13ea:	f0 e0       	ldi	r31, 0x00	; 0
    13ec:	80 81       	ld	r24, Z
    13ee:	8f 7d       	andi	r24, 0xDF	; 223
    13f0:	80 83       	st	Z, r24
		if(ptr_tx_completed_1 != 0)
    13f2:	e0 91 ff 0e 	lds	r30, 0x0EFF	; 0x800eff <ptr_tx_completed_1>
    13f6:	f0 91 00 0f 	lds	r31, 0x0F00	; 0x800f00 <ptr_tx_completed_1+0x1>
    13fa:	30 97       	sbiw	r30, 0x00	; 0
    13fc:	09 f0       	breq	.+2      	; 0x1400 <__vector_37+0x54>
		ptr_tx_completed_1();
    13fe:	19 95       	eicall
	}
}
    1400:	ff 91       	pop	r31
    1402:	ef 91       	pop	r30
    1404:	bf 91       	pop	r27
    1406:	af 91       	pop	r26
    1408:	9f 91       	pop	r25
    140a:	8f 91       	pop	r24
    140c:	7f 91       	pop	r23
    140e:	6f 91       	pop	r22
    1410:	5f 91       	pop	r21
    1412:	4f 91       	pop	r20
    1414:	3f 91       	pop	r19
    1416:	2f 91       	pop	r18
    1418:	0f 90       	pop	r0
    141a:	0b be       	out	0x3b, r0	; 59
    141c:	0f 90       	pop	r0
    141e:	0f be       	out	0x3f, r0	; 63
    1420:	0f 90       	pop	r0
    1422:	1f 90       	pop	r1
    1424:	18 95       	reti

00001426 <__vector_36>:

ISR(USART1_RX_vect)
{
    1426:	1f 92       	push	r1
    1428:	0f 92       	push	r0
    142a:	0f b6       	in	r0, 0x3f	; 63
    142c:	0f 92       	push	r0
    142e:	11 24       	eor	r1, r1
    1430:	0b b6       	in	r0, 0x3b	; 59
    1432:	0f 92       	push	r0
    1434:	2f 93       	push	r18
    1436:	3f 93       	push	r19
    1438:	4f 93       	push	r20
    143a:	5f 93       	push	r21
    143c:	6f 93       	push	r22
    143e:	7f 93       	push	r23
    1440:	8f 93       	push	r24
    1442:	9f 93       	push	r25
    1444:	af 93       	push	r26
    1446:	bf 93       	push	r27
    1448:	ef 93       	push	r30
    144a:	ff 93       	push	r31
	char ch = UDR1;
    144c:	60 91 ce 00 	lds	r22, 0x00CE	; 0x8000ce <__TEXT_REGION_LENGTH__+0x7000ce>
	RB_writeByte(&rb_rx_Display,ch);
    1450:	8c ee       	ldi	r24, 0xEC	; 236
    1452:	97 e0       	ldi	r25, 0x07	; 7
    1454:	3b de       	rcall	.-906    	; 0x10cc <RB_writeByte>
}
    1456:	ff 91       	pop	r31
    1458:	ef 91       	pop	r30
    145a:	bf 91       	pop	r27
    145c:	af 91       	pop	r26
    145e:	9f 91       	pop	r25
    1460:	8f 91       	pop	r24
    1462:	7f 91       	pop	r23
    1464:	6f 91       	pop	r22
    1466:	5f 91       	pop	r21
    1468:	4f 91       	pop	r20
    146a:	3f 91       	pop	r19
    146c:	2f 91       	pop	r18
    146e:	0f 90       	pop	r0
    1470:	0b be       	out	0x3b, r0	; 59
    1472:	0f 90       	pop	r0
    1474:	0f be       	out	0x3f, r0	; 63
    1476:	0f 90       	pop	r0
    1478:	1f 90       	pop	r1
    147a:	18 95       	reti

0000147c <__vector_52>:

ISR(USART2_UDRE_vect)
{
    147c:	1f 92       	push	r1
    147e:	0f 92       	push	r0
    1480:	0f b6       	in	r0, 0x3f	; 63
    1482:	0f 92       	push	r0
    1484:	11 24       	eor	r1, r1
    1486:	0b b6       	in	r0, 0x3b	; 59
    1488:	0f 92       	push	r0
    148a:	2f 93       	push	r18
    148c:	3f 93       	push	r19
    148e:	4f 93       	push	r20
    1490:	5f 93       	push	r21
    1492:	6f 93       	push	r22
    1494:	7f 93       	push	r23
    1496:	8f 93       	push	r24
    1498:	9f 93       	push	r25
    149a:	af 93       	push	r26
    149c:	bf 93       	push	r27
    149e:	ef 93       	push	r30
    14a0:	ff 93       	push	r31
	if (RB_length(&rb_tx_ESP) > 0)
    14a2:	82 ef       	ldi	r24, 0xF2	; 242
    14a4:	9b e0       	ldi	r25, 0x0B	; 11
    14a6:	f2 dd       	rcall	.-1052   	; 0x108c <RB_length>
    14a8:	88 23       	and	r24, r24
    14aa:	31 f0       	breq	.+12     	; 0x14b8 <__vector_52+0x3c>
	{
		UDR2 = RB_readByte(&rb_tx_ESP);
    14ac:	82 ef       	ldi	r24, 0xF2	; 242
    14ae:	9b e0       	ldi	r25, 0x0B	; 11
    14b0:	f9 dd       	rcall	.-1038   	; 0x10a4 <RB_readByte>
    14b2:	80 93 d6 00 	sts	0x00D6, r24	; 0x8000d6 <__TEXT_REGION_LENGTH__+0x7000d6>
    14b6:	0c c0       	rjmp	.+24     	; 0x14d0 <__vector_52+0x54>
	}
	else
	{
		Uart_DisableTransmitIT_2();
    14b8:	e1 ed       	ldi	r30, 0xD1	; 209
    14ba:	f0 e0       	ldi	r31, 0x00	; 0
    14bc:	80 81       	ld	r24, Z
    14be:	8f 7d       	andi	r24, 0xDF	; 223
    14c0:	80 83       	st	Z, r24
		if(ptr_tx_completed_2 != 0)
    14c2:	e0 91 01 0f 	lds	r30, 0x0F01	; 0x800f01 <ptr_tx_completed_2>
    14c6:	f0 91 02 0f 	lds	r31, 0x0F02	; 0x800f02 <ptr_tx_completed_2+0x1>
    14ca:	30 97       	sbiw	r30, 0x00	; 0
    14cc:	09 f0       	breq	.+2      	; 0x14d0 <__vector_52+0x54>
		ptr_tx_completed_2();
    14ce:	19 95       	eicall
	}
}
    14d0:	ff 91       	pop	r31
    14d2:	ef 91       	pop	r30
    14d4:	bf 91       	pop	r27
    14d6:	af 91       	pop	r26
    14d8:	9f 91       	pop	r25
    14da:	8f 91       	pop	r24
    14dc:	7f 91       	pop	r23
    14de:	6f 91       	pop	r22
    14e0:	5f 91       	pop	r21
    14e2:	4f 91       	pop	r20
    14e4:	3f 91       	pop	r19
    14e6:	2f 91       	pop	r18
    14e8:	0f 90       	pop	r0
    14ea:	0b be       	out	0x3b, r0	; 59
    14ec:	0f 90       	pop	r0
    14ee:	0f be       	out	0x3f, r0	; 63
    14f0:	0f 90       	pop	r0
    14f2:	1f 90       	pop	r1
    14f4:	18 95       	reti

000014f6 <__vector_51>:

ISR(USART2_RX_vect)
{
    14f6:	1f 92       	push	r1
    14f8:	0f 92       	push	r0
    14fa:	0f b6       	in	r0, 0x3f	; 63
    14fc:	0f 92       	push	r0
    14fe:	11 24       	eor	r1, r1
    1500:	0b b6       	in	r0, 0x3b	; 59
    1502:	0f 92       	push	r0
    1504:	2f 93       	push	r18
    1506:	3f 93       	push	r19
    1508:	4f 93       	push	r20
    150a:	5f 93       	push	r21
    150c:	6f 93       	push	r22
    150e:	7f 93       	push	r23
    1510:	8f 93       	push	r24
    1512:	9f 93       	push	r25
    1514:	af 93       	push	r26
    1516:	bf 93       	push	r27
    1518:	ef 93       	push	r30
    151a:	ff 93       	push	r31
	char ch = UDR2;
    151c:	60 91 d6 00 	lds	r22, 0x00D6	; 0x8000d6 <__TEXT_REGION_LENGTH__+0x7000d6>
	RB_writeByte(&rb_rx_ESP,ch);
    1520:	8b ee       	ldi	r24, 0xEB	; 235
    1522:	96 e0       	ldi	r25, 0x06	; 6
    1524:	d3 dd       	rcall	.-1114   	; 0x10cc <RB_writeByte>
}
    1526:	ff 91       	pop	r31
    1528:	ef 91       	pop	r30
    152a:	bf 91       	pop	r27
    152c:	af 91       	pop	r26
    152e:	9f 91       	pop	r25
    1530:	8f 91       	pop	r24
    1532:	7f 91       	pop	r23
    1534:	6f 91       	pop	r22
    1536:	5f 91       	pop	r21
    1538:	4f 91       	pop	r20
    153a:	3f 91       	pop	r19
    153c:	2f 91       	pop	r18
    153e:	0f 90       	pop	r0
    1540:	0b be       	out	0x3b, r0	; 59
    1542:	0f 90       	pop	r0
    1544:	0f be       	out	0x3f, r0	; 63
    1546:	0f 90       	pop	r0
    1548:	1f 90       	pop	r1
    154a:	18 95       	reti

0000154c <main>:

// 	EN_TMC6200_PORT &= ~EN_TMC6200_BIT;


//Initialisierungen
	IO_init();
    154c:	14 d0       	rcall	.+40     	; 0x1576 <IO_init>
	SPI_init();
    154e:	33 de       	rcall	.-922    	; 0x11b6 <SPI_init>
	UART_init();
    1550:	45 de       	rcall	.-886    	; 0x11dc <UART_init>
	heartbeat_LED();
    1552:	29 d0       	rcall	.+82     	; 0x15a6 <heartbeat_LED>
// 	TMC4671_init();
// 	initTMC6200();
// 	initTMC4671_Openloop();
	mfrc522_init();
    1554:	71 db       	rcall	.-2334   	; 0xc38 <mfrc522_init>
    1556:	90 d2       	rcall	.+1312   	; 0x1a78 <zutaten_init>
	zutaten_init();
    1558:	6c d9       	rcall	.-3368   	; 0x832 <cocktails_init>
    155a:	bb d8       	rcall	.-3722   	; 0x6d2 <init_Getraenke_func>
	cocktails_init();
    155c:	2f ef       	ldi	r18, 0xFF	; 255
    155e:	87 ea       	ldi	r24, 0xA7	; 167
	init_Getraenke_func();
    1560:	91 e6       	ldi	r25, 0x61	; 97
    1562:	21 50       	subi	r18, 0x01	; 1
	#else
		//round up by default
		__ticks_dc = (uint32_t)(ceil(fabs(__tmp)));
	#endif

	__builtin_avr_delay_cycles(__ticks_dc);
    1564:	80 40       	sbci	r24, 0x00	; 0
    1566:	90 40       	sbci	r25, 0x00	; 0
    1568:	e1 f7       	brne	.-8      	; 0x1562 <main+0x16>
    156a:	00 c0       	rjmp	.+0      	; 0x156c <main+0x20>
    156c:	00 00       	nop
    156e:	17 dd       	rcall	.-1490   	; 0xf9e <check_Communication_Input_MFRC522>
	_delay_ms(2000);
	// Mainroutine
	while (1)
	{		
		// Check Communication MFRC522
		check_Communication_Input_MFRC522();
    1570:	0b d2       	rcall	.+1046   	; 0x1988 <check_Communication_Input_UART>
    1572:	19 d0       	rcall	.+50     	; 0x15a6 <heartbeat_LED>

		// Check Communication UART
		check_Communication_Input_UART();
    1574:	fc cf       	rjmp	.-8      	; 0x156e <main+0x22>

00001576 <IO_init>:

//Init_IO

void IO_init(void)
{
	LED_DDR = LED_OUTPUT_MASK;
    1576:	88 e7       	ldi	r24, 0x78	; 120
    1578:	80 bb       	out	0x10, r24	; 16
	SPI_DDR = SPI_OUTPUT_MASK;
    157a:	87 e8       	ldi	r24, 0x87	; 135
    157c:	84 b9       	out	0x04, r24	; 4
	SPI2_DDR = SPI2_OUTPUT_MASK;
    157e:	88 e6       	ldi	r24, 0x68	; 104
    1580:	80 93 01 01 	sts	0x0101, r24	; 0x800101 <__TEXT_REGION_LENGTH__+0x700101>
	PUMPE_DDR = PUMPE_OUTPUT_MASK;
    1584:	8c ef       	ldi	r24, 0xFC	; 252
    1586:	81 b9       	out	0x01, r24	; 1
	PUMPE_DDR2 = PUMPE2_OUTPUT_MASK;
    1588:	84 e2       	ldi	r24, 0x24	; 36
    158a:	83 bb       	out	0x13, r24	; 19
	PUMPE_DDR3 = PUMPE3_OUTPUT_MASK;
    158c:	8c e7       	ldi	r24, 0x7C	; 124
    158e:	80 93 04 01 	sts	0x0104, r24	; 0x800104 <__TEXT_REGION_LENGTH__+0x700104>
	RFID_DDR = RFID_OUTPUT_MASK;
    1592:	81 e0       	ldi	r24, 0x01	; 1
    1594:	87 b9       	out	0x07, r24	; 7
	FLUSS_DDR = 0b00000000;
    1596:	10 92 07 01 	sts	0x0107, r1	; 0x800107 <__TEXT_REGION_LENGTH__+0x700107>
    159a:	08 95       	ret

0000159c <toggle_LED>:
   		_delay_ms(1000);
}

void toggle_LED(void)
{
		LED_PORT = LED_PORT ^ (LEDR_BIT|LEDG_BIT|LEDB_BIT|LEDW_BIT);
    159c:	91 b3       	in	r25, 0x11	; 17
    159e:	88 e7       	ldi	r24, 0x78	; 120
    15a0:	89 27       	eor	r24, r25
    15a2:	81 bb       	out	0x11, r24	; 17
    15a4:	08 95       	ret

000015a6 <heartbeat_LED>:
	FLUSS_DDR = 0b00000000;
}

void heartbeat_LED(void)
{
	toggle_LED();
    15a6:	fa df       	rcall	.-12     	; 0x159c <toggle_LED>
    15a8:	2f ef       	ldi	r18, 0xFF	; 255
    15aa:	83 ed       	ldi	r24, 0xD3	; 211
    15ac:	90 e3       	ldi	r25, 0x30	; 48
    15ae:	21 50       	subi	r18, 0x01	; 1
    15b0:	80 40       	sbci	r24, 0x00	; 0
    15b2:	90 40       	sbci	r25, 0x00	; 0
    15b4:	e1 f7       	brne	.-8      	; 0x15ae <heartbeat_LED+0x8>
    15b6:	00 c0       	rjmp	.+0      	; 0x15b8 <heartbeat_LED+0x12>
    15b8:	00 00       	nop
    15ba:	08 95       	ret

000015bc <check_Communication_Input_UART_0>:
		LED_PORT = LED_PORT ^ (LEDR_BIT|LEDG_BIT|LEDB_BIT|LEDW_BIT);
// 		SPI_CS_TMC4671_PORT = SPI_CS_TMC4671_PORT ^ (SPI_CS_TMC4671_BIT);
}

char check_Communication_Input_UART_0(void)
{
    15bc:	1f 93       	push	r17
    15be:	cf 93       	push	r28
    15c0:	df 93       	push	r29
	char ret = 0;
    15c2:	d0 e0       	ldi	r29, 0x00	; 0
		}
		else
		{
			INPUT_UART_0[cntr_UART_0]=ch;
			cntr_UART_0++;
			ret = 0;
    15c4:	c0 e0       	ldi	r28, 0x00	; 0
		if (ch == 13)
		{
			INPUT_UART_0[cntr_UART_0] = 0;
			cntr_UART_0 = 0;
			cntr_End_UART_0 = 0;
			ret = 1;
    15c6:	11 e0       	ldi	r17, 0x01	; 1

char check_Communication_Input_UART_0(void)
{
	char ret = 0;
	// Check Buffer auf Einkommende Daten
	while(RB_length(&rb_rx_PC)>0)
    15c8:	1e c0       	rjmp	.+60     	; 0x1606 <check_Communication_Input_UART_0+0x4a>
	{
		unsigned char ch = RB_readByte(&rb_rx_PC);
    15ca:	81 ef       	ldi	r24, 0xF1	; 241
    15cc:	9a e0       	ldi	r25, 0x0A	; 10
    15ce:	6a dd       	rcall	.-1324   	; 0x10a4 <RB_readByte>
		if (ch == 13)
    15d0:	8d 30       	cpi	r24, 0x0D	; 13
    15d2:	69 f4       	brne	.+26     	; 0x15ee <check_Communication_Input_UART_0+0x32>
		{
			INPUT_UART_0[cntr_UART_0] = 0;
    15d4:	e0 91 e0 04 	lds	r30, 0x04E0	; 0x8004e0 <cntr_UART_0>
    15d8:	f0 e0       	ldi	r31, 0x00	; 0
    15da:	e9 5f       	subi	r30, 0xF9	; 249
    15dc:	f0 4f       	sbci	r31, 0xF0	; 240
    15de:	10 82       	st	Z, r1
			cntr_UART_0 = 0;
    15e0:	c0 93 e0 04 	sts	0x04E0, r28	; 0x8004e0 <cntr_UART_0>
			cntr_End_UART_0 = 0;
    15e4:	c0 93 df 04 	sts	0x04DF, r28	; 0x8004df <cntr_End_UART_0>
			ret = 1;
			toggle_LED();
    15e8:	d9 df       	rcall	.-78     	; 0x159c <toggle_LED>
		if (ch == 13)
		{
			INPUT_UART_0[cntr_UART_0] = 0;
			cntr_UART_0 = 0;
			cntr_End_UART_0 = 0;
			ret = 1;
    15ea:	d1 2f       	mov	r29, r17
    15ec:	0c c0       	rjmp	.+24     	; 0x1606 <check_Communication_Input_UART_0+0x4a>
			toggle_LED();
		}
		else
		{
			INPUT_UART_0[cntr_UART_0]=ch;
    15ee:	90 91 e0 04 	lds	r25, 0x04E0	; 0x8004e0 <cntr_UART_0>
    15f2:	e9 2f       	mov	r30, r25
    15f4:	f0 e0       	ldi	r31, 0x00	; 0
    15f6:	e9 5f       	subi	r30, 0xF9	; 249
    15f8:	f0 4f       	sbci	r31, 0xF0	; 240
    15fa:	80 83       	st	Z, r24
			cntr_UART_0++;
    15fc:	9f 5f       	subi	r25, 0xFF	; 255
    15fe:	90 93 e0 04 	sts	0x04E0, r25	; 0x8004e0 <cntr_UART_0>
			ret = 0;
			toggle_LED();
    1602:	cc df       	rcall	.-104    	; 0x159c <toggle_LED>

char check_Communication_Input_UART_0(void)
{
	char ret = 0;
	// Check Buffer auf Einkommende Daten
	while(RB_length(&rb_rx_PC)>0)
    1604:	dc 2f       	mov	r29, r28
    1606:	81 ef       	ldi	r24, 0xF1	; 241
    1608:	9a e0       	ldi	r25, 0x0A	; 10
    160a:	40 dd       	rcall	.-1408   	; 0x108c <RB_length>
    160c:	81 11       	cpse	r24, r1
    160e:	dd cf       	rjmp	.-70     	; 0x15ca <check_Communication_Input_UART_0+0xe>
			ret = 0;
			toggle_LED();
		}
	}
	return ret;
}
    1610:	8d 2f       	mov	r24, r29
    1612:	df 91       	pop	r29
    1614:	cf 91       	pop	r28
    1616:	1f 91       	pop	r17
    1618:	08 95       	ret

0000161a <proceed_Communication_Input_UART_0>:

void proceed_Communication_Input_UART_0(void)
{
    161a:	cf 93       	push	r28
    161c:	df 93       	push	r29
	Uart_Transmit_IT_PC("Proceed UART 0: \n\r");
    161e:	8e e8       	ldi	r24, 0x8E	; 142
    1620:	94 e0       	ldi	r25, 0x04	; 4
    1622:	38 de       	rcall	.-912    	; 0x1294 <Uart_Transmit_IT_PC>
	cocktail_test_command(INPUT_UART_0);
    1624:	87 e0       	ldi	r24, 0x07	; 7
    1626:	9f e0       	ldi	r25, 0x0F	; 15
    1628:	4c d8       	rcall	.-3944   	; 0x6c2 <cocktail_test_command>
    162a:	a7 e0       	ldi	r26, 0x07	; 7
    162c:	bf e0       	ldi	r27, 0x0F	; 15
	
	for (int i = 0; i < strlen((const char *)INPUT_UART_0);i++)
    162e:	80 e0       	ldi	r24, 0x00	; 0
    1630:	90 e0       	ldi	r25, 0x00	; 0
    1632:	ed 01       	movw	r28, r26
    1634:	02 c0       	rjmp	.+4      	; 0x163a <proceed_Communication_Input_UART_0+0x20>
	{
		INPUT_UART_0[i] = '\0';
    1636:	1d 92       	st	X+, r1
void proceed_Communication_Input_UART_0(void)
{
	Uart_Transmit_IT_PC("Proceed UART 0: \n\r");
	cocktail_test_command(INPUT_UART_0);
	
	for (int i = 0; i < strlen((const char *)INPUT_UART_0);i++)
    1638:	01 96       	adiw	r24, 0x01	; 1
    163a:	fe 01       	movw	r30, r28
    163c:	01 90       	ld	r0, Z+
    163e:	00 20       	and	r0, r0
    1640:	e9 f7       	brne	.-6      	; 0x163c <proceed_Communication_Input_UART_0+0x22>
    1642:	31 97       	sbiw	r30, 0x01	; 1
    1644:	e7 50       	subi	r30, 0x07	; 7
    1646:	ff 40       	sbci	r31, 0x0F	; 15
    1648:	8e 17       	cp	r24, r30
    164a:	9f 07       	cpc	r25, r31
    164c:	a0 f3       	brcs	.-24     	; 0x1636 <proceed_Communication_Input_UART_0+0x1c>
	{
		INPUT_UART_0[i] = '\0';
	}
	
}
    164e:	df 91       	pop	r29
    1650:	cf 91       	pop	r28
    1652:	08 95       	ret

00001654 <check_Communication_Input_UART_1>:

char check_Communication_Input_UART_1(void)
{
    1654:	0f 93       	push	r16
    1656:	1f 93       	push	r17
    1658:	cf 93       	push	r28
    165a:	df 93       	push	r29
	char ret = 0;
    165c:	00 e0       	ldi	r16, 0x00	; 0
		}
		else
		{
			INPUT_UART_1[cntr_UART_1]=ch;
			cntr_UART_1++;
			ret = 0;
    165e:	c0 e0       	ldi	r28, 0x00	; 0
			INPUT_UART_1[cntr_UART_1] = 0;
			INPUT_UART_1[cntr_UART_1-1]=0;
			INPUT_UART_1[cntr_UART_1-2]=0;
			cntr_UART_1 = 0;
			cntr_End_UART_1 = 0;
			ret = 1;
    1660:	d1 e0       	ldi	r29, 0x01	; 1
			{
				cntr_End_UART_1++;
			}
			if (cntr_End_UART_1==1 && (INPUT_UART_1[cntr_UART_1-1] == 0xFF))
			{
				cntr_End_UART_1++;
    1662:	12 e0       	ldi	r17, 0x02	; 2

char check_Communication_Input_UART_1(void)
{
	char ret = 0;
	
	while(RB_length(&rb_rx_Display)>0)					// UART_1
    1664:	4c c0       	rjmp	.+152    	; 0x16fe <check_Communication_Input_UART_1+0xaa>
	{
		
		unsigned char ch = RB_readByte(&rb_rx_Display);
    1666:	8c ee       	ldi	r24, 0xEC	; 236
    1668:	97 e0       	ldi	r25, 0x07	; 7
    166a:	1c dd       	rcall	.-1480   	; 0x10a4 <RB_readByte>

		if (ch == 0xFF)
    166c:	8f 3f       	cpi	r24, 0xFF	; 255
    166e:	29 f5       	brne	.+74     	; 0x16ba <check_Communication_Input_UART_1+0x66>
		{
			if (cntr_End_UART_1==0)
    1670:	90 91 dd 04 	lds	r25, 0x04DD	; 0x8004dd <cntr_End_UART_1>
    1674:	99 23       	and	r25, r25
    1676:	19 f0       	breq	.+6      	; 0x167e <check_Communication_Input_UART_1+0x2a>
			{
				cntr_End_UART_1++;
			}
			if (cntr_End_UART_1==1 && (INPUT_UART_1[cntr_UART_1-1] == 0xFF))
    1678:	91 30       	cpi	r25, 0x01	; 1
    167a:	09 f0       	breq	.+2      	; 0x167e <check_Communication_Input_UART_1+0x2a>
    167c:	49 c0       	rjmp	.+146    	; 0x1710 <check_Communication_Input_UART_1+0xbc>
    167e:	e0 91 de 04 	lds	r30, 0x04DE	; 0x8004de <cntr_UART_1>
    1682:	f0 e0       	ldi	r31, 0x00	; 0
    1684:	ea 5f       	subi	r30, 0xFA	; 250
    1686:	fd 4e       	sbci	r31, 0xED	; 237
    1688:	90 81       	ld	r25, Z
    168a:	9f 3f       	cpi	r25, 0xFF	; 255
    168c:	09 f0       	breq	.+2      	; 0x1690 <check_Communication_Input_UART_1+0x3c>
    168e:	3d c0       	rjmp	.+122    	; 0x170a <check_Communication_Input_UART_1+0xb6>
			{
				cntr_End_UART_1++;
    1690:	10 93 dd 04 	sts	0x04DD, r17	; 0x8004dd <cntr_End_UART_1>
			}
			if (cntr_End_UART_1==1 && (INPUT_UART_1[cntr_UART_1-1] != 0xFF))
			{
				cntr_End_UART_1=0;
			}
			if (cntr_End_UART_1==2 && (INPUT_UART_1[cntr_UART_1-1] == 0xFF) && (INPUT_UART_1[cntr_UART_1-2] == 0xFF))
    1694:	20 91 de 04 	lds	r18, 0x04DE	; 0x8004de <cntr_UART_1>
    1698:	30 e0       	ldi	r19, 0x00	; 0
    169a:	f9 01       	movw	r30, r18
    169c:	ea 5f       	subi	r30, 0xFA	; 250
    169e:	fd 4e       	sbci	r31, 0xED	; 237
    16a0:	90 81       	ld	r25, Z
    16a2:	9f 3f       	cpi	r25, 0xFF	; 255
    16a4:	39 f4       	brne	.+14     	; 0x16b4 <check_Communication_Input_UART_1+0x60>
    16a6:	f9 01       	movw	r30, r18
    16a8:	eb 5f       	subi	r30, 0xFB	; 251
    16aa:	fd 4e       	sbci	r31, 0xED	; 237
    16ac:	90 81       	ld	r25, Z
    16ae:	9f 3f       	cpi	r25, 0xFF	; 255
    16b0:	a1 f5       	brne	.+104    	; 0x171a <check_Communication_Input_UART_1+0xc6>
    16b2:	07 c0       	rjmp	.+14     	; 0x16c2 <check_Communication_Input_UART_1+0x6e>
			{
				cntr_End_UART_1++;
			}
			if (cntr_End_UART_1==2 && ((INPUT_UART_1[cntr_UART_1-1] != 0xFF) || (INPUT_UART_1[cntr_UART_1-2] != 0xFF)))
			{
				cntr_End_UART_1 = 0;
    16b4:	c0 93 dd 04 	sts	0x04DD, r28	; 0x8004dd <cntr_End_UART_1>
    16b8:	16 c0       	rjmp	.+44     	; 0x16e6 <check_Communication_Input_UART_1+0x92>
			}
		}
		if (cntr_End_UART_1 == 3)
    16ba:	90 91 dd 04 	lds	r25, 0x04DD	; 0x8004dd <cntr_End_UART_1>
    16be:	93 30       	cpi	r25, 0x03	; 3
    16c0:	91 f4       	brne	.+36     	; 0x16e6 <check_Communication_Input_UART_1+0x92>
		{
			INPUT_UART_1[cntr_UART_1] = 0;
    16c2:	e0 91 de 04 	lds	r30, 0x04DE	; 0x8004de <cntr_UART_1>
    16c6:	f0 e0       	ldi	r31, 0x00	; 0
    16c8:	e9 5f       	subi	r30, 0xF9	; 249
    16ca:	fd 4e       	sbci	r31, 0xED	; 237
    16cc:	10 82       	st	Z, r1
			INPUT_UART_1[cntr_UART_1-1]=0;
    16ce:	df 01       	movw	r26, r30
    16d0:	11 97       	sbiw	r26, 0x01	; 1
    16d2:	1c 92       	st	X, r1
			INPUT_UART_1[cntr_UART_1-2]=0;
    16d4:	32 97       	sbiw	r30, 0x02	; 2
    16d6:	10 82       	st	Z, r1
			cntr_UART_1 = 0;
    16d8:	c0 93 de 04 	sts	0x04DE, r28	; 0x8004de <cntr_UART_1>
			cntr_End_UART_1 = 0;
    16dc:	c0 93 dd 04 	sts	0x04DD, r28	; 0x8004dd <cntr_End_UART_1>
			ret = 1;
			toggle_LED();
    16e0:	5d df       	rcall	.-326    	; 0x159c <toggle_LED>
			INPUT_UART_1[cntr_UART_1] = 0;
			INPUT_UART_1[cntr_UART_1-1]=0;
			INPUT_UART_1[cntr_UART_1-2]=0;
			cntr_UART_1 = 0;
			cntr_End_UART_1 = 0;
			ret = 1;
    16e2:	0d 2f       	mov	r16, r29
    16e4:	0c c0       	rjmp	.+24     	; 0x16fe <check_Communication_Input_UART_1+0xaa>
			toggle_LED();
		}
		else
		{
			INPUT_UART_1[cntr_UART_1]=ch;
    16e6:	90 91 de 04 	lds	r25, 0x04DE	; 0x8004de <cntr_UART_1>
    16ea:	e9 2f       	mov	r30, r25
    16ec:	f0 e0       	ldi	r31, 0x00	; 0
    16ee:	e9 5f       	subi	r30, 0xF9	; 249
    16f0:	fd 4e       	sbci	r31, 0xED	; 237
    16f2:	80 83       	st	Z, r24
			cntr_UART_1++;
    16f4:	9f 5f       	subi	r25, 0xFF	; 255
    16f6:	90 93 de 04 	sts	0x04DE, r25	; 0x8004de <cntr_UART_1>
			ret = 0;
			toggle_LED();
    16fa:	50 df       	rcall	.-352    	; 0x159c <toggle_LED>

char check_Communication_Input_UART_1(void)
{
	char ret = 0;
	
	while(RB_length(&rb_rx_Display)>0)					// UART_1
    16fc:	0c 2f       	mov	r16, r28
    16fe:	8c ee       	ldi	r24, 0xEC	; 236
    1700:	97 e0       	ldi	r25, 0x07	; 7
    1702:	c4 dc       	rcall	.-1656   	; 0x108c <RB_length>
    1704:	81 11       	cpse	r24, r1
    1706:	af cf       	rjmp	.-162    	; 0x1666 <check_Communication_Input_UART_1+0x12>
    1708:	11 c0       	rjmp	.+34     	; 0x172c <check_Communication_Input_UART_1+0xd8>
			{
				cntr_End_UART_1++;
			}
			if (cntr_End_UART_1==1 && (INPUT_UART_1[cntr_UART_1-1] != 0xFF))
			{
				cntr_End_UART_1=0;
    170a:	c0 93 dd 04 	sts	0x04DD, r28	; 0x8004dd <cntr_End_UART_1>
    170e:	d5 cf       	rjmp	.-86     	; 0x16ba <check_Communication_Input_UART_1+0x66>
			}
			if (cntr_End_UART_1==2 && (INPUT_UART_1[cntr_UART_1-1] == 0xFF) && (INPUT_UART_1[cntr_UART_1-2] == 0xFF))
    1710:	90 91 dd 04 	lds	r25, 0x04DD	; 0x8004dd <cntr_End_UART_1>
    1714:	92 30       	cpi	r25, 0x02	; 2
    1716:	89 f6       	brne	.-94     	; 0x16ba <check_Communication_Input_UART_1+0x66>
    1718:	bd cf       	rjmp	.-134    	; 0x1694 <check_Communication_Input_UART_1+0x40>
			{
				cntr_End_UART_1++;
			}
			if (cntr_End_UART_1==2 && ((INPUT_UART_1[cntr_UART_1-1] != 0xFF) || (INPUT_UART_1[cntr_UART_1-2] != 0xFF)))
    171a:	e0 91 de 04 	lds	r30, 0x04DE	; 0x8004de <cntr_UART_1>
    171e:	f0 e0       	ldi	r31, 0x00	; 0
    1720:	eb 5f       	subi	r30, 0xFB	; 251
    1722:	fd 4e       	sbci	r31, 0xED	; 237
    1724:	90 81       	ld	r25, Z
    1726:	9f 3f       	cpi	r25, 0xFF	; 255
    1728:	29 f6       	brne	.-118    	; 0x16b4 <check_Communication_Input_UART_1+0x60>
    172a:	dd cf       	rjmp	.-70     	; 0x16e6 <check_Communication_Input_UART_1+0x92>
			ret = 0;
			toggle_LED();
		}
	}
	return ret;
}
    172c:	80 2f       	mov	r24, r16
    172e:	df 91       	pop	r29
    1730:	cf 91       	pop	r28
    1732:	1f 91       	pop	r17
    1734:	0f 91       	pop	r16
    1736:	08 95       	ret

00001738 <proceed_Communication_INPUT_UART_1>:

void proceed_Communication_INPUT_UART_1(void)
{
	Uart_Transmit_IT_PC("Proceed UART 1: ");
    1738:	81 ea       	ldi	r24, 0xA1	; 161
    173a:	94 e0       	ldi	r25, 0x04	; 4
    173c:	ab dd       	rcall	.-1194   	; 0x1294 <Uart_Transmit_IT_PC>
	Uart_Transmit_IT_PC((char *)INPUT_UART_1);
    173e:	87 e0       	ldi	r24, 0x07	; 7
    1740:	92 e1       	ldi	r25, 0x12	; 18
    1742:	a8 dd       	rcall	.-1200   	; 0x1294 <Uart_Transmit_IT_PC>
	Uart_Transmit_IT_PC("\r\n");
    1744:	89 e5       	ldi	r24, 0x59	; 89
    1746:	94 e0       	ldi	r25, 0x04	; 4
    1748:	a5 dd       	rcall	.-1206   	; 0x1294 <Uart_Transmit_IT_PC>

	cocktail_check_command(INPUT_UART_1[0],INPUT_UART_1[1]);
    174a:	e7 e0       	ldi	r30, 0x07	; 7
    174c:	f2 e1       	ldi	r31, 0x12	; 18
    174e:	61 81       	ldd	r22, Z+1	; 0x01
    1750:	80 81       	ld	r24, Z
    1752:	0c 94 b3 00 	jmp	0x166	; 0x166 <cocktail_check_command>
    1756:	08 95       	ret

00001758 <check_Communication_Input_UART_2>:
}

char check_Communication_Input_UART_2(void)
{
    1758:	0f 93       	push	r16
    175a:	1f 93       	push	r17
    175c:	cf 93       	push	r28
    175e:	df 93       	push	r29
	char ret = 0;
    1760:	00 e0       	ldi	r16, 0x00	; 0
		}
		else
		{
			INPUT_UART_2[cntr_UART_2]=ch;
			cntr_UART_2++;
			ret = 0;
    1762:	c0 e0       	ldi	r28, 0x00	; 0
			INPUT_UART_2[cntr_UART_2] = 0;
			INPUT_UART_2[cntr_UART_2-1]=0;
			INPUT_UART_2[cntr_UART_2-2]=0;
			cntr_UART_2 = 0;
			cntr_End_UART_2 = 0;
			ret = 1;
    1764:	d1 e0       	ldi	r29, 0x01	; 1
			{
				cntr_End_UART_2++;
			}
			if (cntr_End_UART_2==1 && (INPUT_UART_2[cntr_UART_2-1] == 0xFF))
			{
				cntr_End_UART_2++;
    1766:	12 e0       	ldi	r17, 0x02	; 2
}

char check_Communication_Input_UART_2(void)
{
	char ret = 0;
	while(RB_length(&rb_rx_ESP)>0)					// UART_2
    1768:	4c c0       	rjmp	.+152    	; 0x1802 <check_Communication_Input_UART_2+0xaa>
	{
		unsigned char ch = RB_readByte(&rb_rx_ESP);
    176a:	8b ee       	ldi	r24, 0xEB	; 235
    176c:	96 e0       	ldi	r25, 0x06	; 6
    176e:	9a dc       	rcall	.-1740   	; 0x10a4 <RB_readByte>
		// Verbesserung oder Verschlimmbesserung: Falls cntr_UART_1 >=2 dann schauen ob die letzten drei bertragungen [cntr_UART_1], [cntr_UART_1-1], [cntr_UART_1-2] 0xFF sind
		if (ch == 0xFF)
    1770:	8f 3f       	cpi	r24, 0xFF	; 255
    1772:	29 f5       	brne	.+74     	; 0x17be <check_Communication_Input_UART_2+0x66>
		{
			if (cntr_End_UART_2==0)
    1774:	90 91 db 04 	lds	r25, 0x04DB	; 0x8004db <cntr_End_UART_2>
    1778:	99 23       	and	r25, r25
    177a:	19 f0       	breq	.+6      	; 0x1782 <check_Communication_Input_UART_2+0x2a>
			{
				cntr_End_UART_2++;
			}
			if (cntr_End_UART_2==1 && (INPUT_UART_2[cntr_UART_2-1] == 0xFF))
    177c:	91 30       	cpi	r25, 0x01	; 1
    177e:	09 f0       	breq	.+2      	; 0x1782 <check_Communication_Input_UART_2+0x2a>
    1780:	49 c0       	rjmp	.+146    	; 0x1814 <check_Communication_Input_UART_2+0xbc>
    1782:	e0 91 dc 04 	lds	r30, 0x04DC	; 0x8004dc <cntr_UART_2>
    1786:	f0 e0       	ldi	r31, 0x00	; 0
    1788:	ea 5f       	subi	r30, 0xFA	; 250
    178a:	fc 4e       	sbci	r31, 0xEC	; 236
    178c:	90 81       	ld	r25, Z
    178e:	9f 3f       	cpi	r25, 0xFF	; 255
    1790:	09 f0       	breq	.+2      	; 0x1794 <check_Communication_Input_UART_2+0x3c>
    1792:	3d c0       	rjmp	.+122    	; 0x180e <check_Communication_Input_UART_2+0xb6>
			{
				cntr_End_UART_2++;
    1794:	10 93 db 04 	sts	0x04DB, r17	; 0x8004db <cntr_End_UART_2>
			}
			if (cntr_End_UART_2==1 && (INPUT_UART_2[cntr_UART_2-1] != 0xFF))
			{
				cntr_End_UART_2=0;
			}
			if (cntr_End_UART_2==2 && (INPUT_UART_2[cntr_UART_2-1] == 0xFF) && (INPUT_UART_2[cntr_UART_2-2] == 0xFF))
    1798:	20 91 dc 04 	lds	r18, 0x04DC	; 0x8004dc <cntr_UART_2>
    179c:	30 e0       	ldi	r19, 0x00	; 0
    179e:	f9 01       	movw	r30, r18
    17a0:	ea 5f       	subi	r30, 0xFA	; 250
    17a2:	fc 4e       	sbci	r31, 0xEC	; 236
    17a4:	90 81       	ld	r25, Z
    17a6:	9f 3f       	cpi	r25, 0xFF	; 255
    17a8:	39 f4       	brne	.+14     	; 0x17b8 <check_Communication_Input_UART_2+0x60>
    17aa:	f9 01       	movw	r30, r18
    17ac:	eb 5f       	subi	r30, 0xFB	; 251
    17ae:	fc 4e       	sbci	r31, 0xEC	; 236
    17b0:	90 81       	ld	r25, Z
    17b2:	9f 3f       	cpi	r25, 0xFF	; 255
    17b4:	a1 f5       	brne	.+104    	; 0x181e <check_Communication_Input_UART_2+0xc6>
    17b6:	07 c0       	rjmp	.+14     	; 0x17c6 <check_Communication_Input_UART_2+0x6e>
			{
				cntr_End_UART_2++;
			}
			if (cntr_End_UART_2==2 && ((INPUT_UART_2[cntr_UART_2-1] != 0xFF) || (INPUT_UART_2[cntr_UART_2-2] != 0xFF)))
			{
				cntr_End_UART_2 = 0;
    17b8:	c0 93 db 04 	sts	0x04DB, r28	; 0x8004db <cntr_End_UART_2>
    17bc:	16 c0       	rjmp	.+44     	; 0x17ea <check_Communication_Input_UART_2+0x92>
			}
		}
		if (cntr_End_UART_2 == 3)
    17be:	90 91 db 04 	lds	r25, 0x04DB	; 0x8004db <cntr_End_UART_2>
    17c2:	93 30       	cpi	r25, 0x03	; 3
    17c4:	91 f4       	brne	.+36     	; 0x17ea <check_Communication_Input_UART_2+0x92>
		{
			INPUT_UART_2[cntr_UART_2] = 0;
    17c6:	e0 91 dc 04 	lds	r30, 0x04DC	; 0x8004dc <cntr_UART_2>
    17ca:	f0 e0       	ldi	r31, 0x00	; 0
    17cc:	e9 5f       	subi	r30, 0xF9	; 249
    17ce:	fc 4e       	sbci	r31, 0xEC	; 236
    17d0:	10 82       	st	Z, r1
			INPUT_UART_2[cntr_UART_2-1]=0;
    17d2:	df 01       	movw	r26, r30
    17d4:	11 97       	sbiw	r26, 0x01	; 1
    17d6:	1c 92       	st	X, r1
			INPUT_UART_2[cntr_UART_2-2]=0;
    17d8:	32 97       	sbiw	r30, 0x02	; 2
    17da:	10 82       	st	Z, r1
			cntr_UART_2 = 0;
    17dc:	c0 93 dc 04 	sts	0x04DC, r28	; 0x8004dc <cntr_UART_2>
			cntr_End_UART_2 = 0;
    17e0:	c0 93 db 04 	sts	0x04DB, r28	; 0x8004db <cntr_End_UART_2>
			ret = 1;
			toggle_LED();
    17e4:	db de       	rcall	.-586    	; 0x159c <toggle_LED>
			INPUT_UART_2[cntr_UART_2] = 0;
			INPUT_UART_2[cntr_UART_2-1]=0;
			INPUT_UART_2[cntr_UART_2-2]=0;
			cntr_UART_2 = 0;
			cntr_End_UART_2 = 0;
			ret = 1;
    17e6:	0d 2f       	mov	r16, r29
    17e8:	0c c0       	rjmp	.+24     	; 0x1802 <check_Communication_Input_UART_2+0xaa>
			toggle_LED();
		}
		else
		{
			INPUT_UART_2[cntr_UART_2]=ch;
    17ea:	90 91 dc 04 	lds	r25, 0x04DC	; 0x8004dc <cntr_UART_2>
    17ee:	e9 2f       	mov	r30, r25
    17f0:	f0 e0       	ldi	r31, 0x00	; 0
    17f2:	e9 5f       	subi	r30, 0xF9	; 249
    17f4:	fc 4e       	sbci	r31, 0xEC	; 236
    17f6:	80 83       	st	Z, r24
			cntr_UART_2++;
    17f8:	9f 5f       	subi	r25, 0xFF	; 255
    17fa:	90 93 dc 04 	sts	0x04DC, r25	; 0x8004dc <cntr_UART_2>
			ret = 0;
			toggle_LED();
    17fe:	ce de       	rcall	.-612    	; 0x159c <toggle_LED>
}

char check_Communication_Input_UART_2(void)
{
	char ret = 0;
	while(RB_length(&rb_rx_ESP)>0)					// UART_2
    1800:	0c 2f       	mov	r16, r28
    1802:	8b ee       	ldi	r24, 0xEB	; 235
    1804:	96 e0       	ldi	r25, 0x06	; 6
    1806:	42 dc       	rcall	.-1916   	; 0x108c <RB_length>
    1808:	81 11       	cpse	r24, r1
    180a:	af cf       	rjmp	.-162    	; 0x176a <check_Communication_Input_UART_2+0x12>
    180c:	11 c0       	rjmp	.+34     	; 0x1830 <check_Communication_Input_UART_2+0xd8>
			{
				cntr_End_UART_2++;
			}
			if (cntr_End_UART_2==1 && (INPUT_UART_2[cntr_UART_2-1] != 0xFF))
			{
				cntr_End_UART_2=0;
    180e:	c0 93 db 04 	sts	0x04DB, r28	; 0x8004db <cntr_End_UART_2>
    1812:	d5 cf       	rjmp	.-86     	; 0x17be <check_Communication_Input_UART_2+0x66>
			}
			if (cntr_End_UART_2==2 && (INPUT_UART_2[cntr_UART_2-1] == 0xFF) && (INPUT_UART_2[cntr_UART_2-2] == 0xFF))
    1814:	90 91 db 04 	lds	r25, 0x04DB	; 0x8004db <cntr_End_UART_2>
    1818:	92 30       	cpi	r25, 0x02	; 2
    181a:	89 f6       	brne	.-94     	; 0x17be <check_Communication_Input_UART_2+0x66>
    181c:	bd cf       	rjmp	.-134    	; 0x1798 <check_Communication_Input_UART_2+0x40>
			{
				cntr_End_UART_2++;
			}
			if (cntr_End_UART_2==2 && ((INPUT_UART_2[cntr_UART_2-1] != 0xFF) || (INPUT_UART_2[cntr_UART_2-2] != 0xFF)))
    181e:	e0 91 dc 04 	lds	r30, 0x04DC	; 0x8004dc <cntr_UART_2>
    1822:	f0 e0       	ldi	r31, 0x00	; 0
    1824:	eb 5f       	subi	r30, 0xFB	; 251
    1826:	fc 4e       	sbci	r31, 0xEC	; 236
    1828:	90 81       	ld	r25, Z
    182a:	9f 3f       	cpi	r25, 0xFF	; 255
    182c:	29 f6       	brne	.-118    	; 0x17b8 <check_Communication_Input_UART_2+0x60>
    182e:	dd cf       	rjmp	.-70     	; 0x17ea <check_Communication_Input_UART_2+0x92>
			ret = 0;
			toggle_LED();
		}
	}
	return ret;
}
    1830:	80 2f       	mov	r24, r16
    1832:	df 91       	pop	r29
    1834:	cf 91       	pop	r28
    1836:	1f 91       	pop	r17
    1838:	0f 91       	pop	r16
    183a:	08 95       	ret

0000183c <proceed_Communication_Input_UART_2>:

void proceed_Communication_Input_UART_2(void)
{
	Uart_Transmit_IT_PC("Proceed UART 2: ");
    183c:	82 eb       	ldi	r24, 0xB2	; 178
    183e:	94 e0       	ldi	r25, 0x04	; 4
    1840:	29 dd       	rcall	.-1454   	; 0x1294 <Uart_Transmit_IT_PC>
	Uart_Transmit_IT_PC((char *)INPUT_UART_2);
    1842:	87 e0       	ldi	r24, 0x07	; 7
    1844:	93 e1       	ldi	r25, 0x13	; 19
    1846:	26 dd       	rcall	.-1460   	; 0x1294 <Uart_Transmit_IT_PC>
	Uart_Transmit_IT_PC("\r\n");
    1848:	89 e5       	ldi	r24, 0x59	; 89
    184a:	94 e0       	ldi	r25, 0x04	; 4
    184c:	23 dd       	rcall	.-1466   	; 0x1294 <Uart_Transmit_IT_PC>
	
	cocktail_check_command(INPUT_UART_2[0],INPUT_UART_2[1]);
    184e:	e7 e0       	ldi	r30, 0x07	; 7
    1850:	f3 e1       	ldi	r31, 0x13	; 19
    1852:	61 81       	ldd	r22, Z+1	; 0x01
    1854:	80 81       	ld	r24, Z
    1856:	0c 94 b3 00 	jmp	0x166	; 0x166 <cocktail_check_command>
    185a:	08 95       	ret

0000185c <check_Communication_Input_UART_3>:
}

char check_Communication_Input_UART_3(void)
{
    185c:	0f 93       	push	r16
    185e:	1f 93       	push	r17
    1860:	cf 93       	push	r28
    1862:	df 93       	push	r29
	char ret = 0;
    1864:	00 e0       	ldi	r16, 0x00	; 0
		}
		else
		{
			INPUT_UART_3[cntr_UART_3]=ch;
			cntr_UART_3++;
			ret = 0;
    1866:	c0 e0       	ldi	r28, 0x00	; 0
			INPUT_UART_3[cntr_UART_3] = 0;
			INPUT_UART_3[cntr_UART_3-1]=0;
			INPUT_UART_3[cntr_UART_3-2]=0;
			cntr_UART_3 = 0;
			cntr_End_UART_3 = 0;
			ret = 1;
    1868:	d1 e0       	ldi	r29, 0x01	; 1
			{
				cntr_End_UART_3++;
			}
			if (cntr_End_UART_3==1 && (INPUT_UART_3[cntr_UART_3-1] == 0xFF))
			{
				cntr_End_UART_3++;
    186a:	12 e0       	ldi	r17, 0x02	; 2

char check_Communication_Input_UART_3(void)
{
	char ret = 0;
	
	while(RB_length(&rb_rx_RFID)>0)
    186c:	55 c0       	rjmp	.+170    	; 0x1918 <check_Communication_Input_UART_3+0xbc>
	{
		
		unsigned char ch = RB_readByte(&rb_rx_RFID);
    186e:	86 ef       	ldi	r24, 0xF6	; 246
    1870:	9d e0       	ldi	r25, 0x0D	; 13
    1872:	18 dc       	rcall	.-2000   	; 0x10a4 <RB_readByte>

		if (ch == 0xFF)
    1874:	8f 3f       	cpi	r24, 0xFF	; 255
    1876:	71 f5       	brne	.+92     	; 0x18d4 <check_Communication_Input_UART_3+0x78>
		{
			if (cntr_End_UART_3==0)
    1878:	90 91 d9 04 	lds	r25, 0x04D9	; 0x8004d9 <cntr_End_UART_3>
    187c:	91 11       	cpse	r25, r1
    187e:	03 c0       	rjmp	.+6      	; 0x1886 <check_Communication_Input_UART_3+0x2a>
			{
				cntr_End_UART_3++;
    1880:	d0 93 d9 04 	sts	0x04D9, r29	; 0x8004d9 <cntr_End_UART_3>
    1884:	03 c0       	rjmp	.+6      	; 0x188c <check_Communication_Input_UART_3+0x30>
			}
			if (cntr_End_UART_3==1 && (INPUT_UART_3[cntr_UART_3-1] == 0xFF))
    1886:	91 30       	cpi	r25, 0x01	; 1
    1888:	09 f0       	breq	.+2      	; 0x188c <check_Communication_Input_UART_3+0x30>
    188a:	54 c0       	rjmp	.+168    	; 0x1934 <check_Communication_Input_UART_3+0xd8>
    188c:	20 91 da 04 	lds	r18, 0x04DA	; 0x8004da <cntr_UART_3>
    1890:	30 e0       	ldi	r19, 0x00	; 0
    1892:	f9 01       	movw	r30, r18
    1894:	ea 5f       	subi	r30, 0xFA	; 250
    1896:	ff 4e       	sbci	r31, 0xEF	; 239
    1898:	90 81       	ld	r25, Z
    189a:	9f 3f       	cpi	r25, 0xFF	; 255
    189c:	09 f0       	breq	.+2      	; 0x18a0 <check_Communication_Input_UART_3+0x44>
    189e:	42 c0       	rjmp	.+132    	; 0x1924 <check_Communication_Input_UART_3+0xc8>
			{
				cntr_End_UART_3++;
    18a0:	10 93 d9 04 	sts	0x04D9, r17	; 0x8004d9 <cntr_End_UART_3>
    18a4:	03 c0       	rjmp	.+6      	; 0x18ac <check_Communication_Input_UART_3+0x50>
			}
			if (cntr_End_UART_3==1 && (INPUT_UART_3[cntr_UART_3-3] != 0xFF))
			{
				cntr_End_UART_3=0;
    18a6:	c0 93 d9 04 	sts	0x04D9, r28	; 0x8004d9 <cntr_End_UART_3>
    18aa:	14 c0       	rjmp	.+40     	; 0x18d4 <check_Communication_Input_UART_3+0x78>
			}
			if (cntr_End_UART_3==2 && (INPUT_UART_3[cntr_UART_3-1] == 0xFF) && (INPUT_UART_3[cntr_UART_3-2] == 0xFF))
    18ac:	20 91 da 04 	lds	r18, 0x04DA	; 0x8004da <cntr_UART_3>
    18b0:	30 e0       	ldi	r19, 0x00	; 0
    18b2:	f9 01       	movw	r30, r18
    18b4:	ea 5f       	subi	r30, 0xFA	; 250
    18b6:	ff 4e       	sbci	r31, 0xEF	; 239
    18b8:	90 81       	ld	r25, Z
    18ba:	9f 3f       	cpi	r25, 0xFF	; 255
    18bc:	41 f4       	brne	.+16     	; 0x18ce <check_Communication_Input_UART_3+0x72>
    18be:	f9 01       	movw	r30, r18
    18c0:	eb 5f       	subi	r30, 0xFB	; 251
    18c2:	ff 4e       	sbci	r31, 0xEF	; 239
    18c4:	90 81       	ld	r25, Z
    18c6:	9f 3f       	cpi	r25, 0xFF	; 255
    18c8:	09 f0       	breq	.+2      	; 0x18cc <check_Communication_Input_UART_3+0x70>
    18ca:	3e c0       	rjmp	.+124    	; 0x1948 <check_Communication_Input_UART_3+0xec>
    18cc:	07 c0       	rjmp	.+14     	; 0x18dc <check_Communication_Input_UART_3+0x80>
			{
				cntr_End_UART_3++;
			}
			if (cntr_End_UART_3==2 && ((INPUT_UART_3[cntr_UART_3-1] != 0xFF) || (INPUT_UART_3[cntr_UART_3-2] != 0xFF)))
			{
				cntr_End_UART_3 = 0;
    18ce:	c0 93 d9 04 	sts	0x04D9, r28	; 0x8004d9 <cntr_End_UART_3>
    18d2:	16 c0       	rjmp	.+44     	; 0x1900 <check_Communication_Input_UART_3+0xa4>
			}
		}
		if (cntr_End_UART_3 == 3)
    18d4:	90 91 d9 04 	lds	r25, 0x04D9	; 0x8004d9 <cntr_End_UART_3>
    18d8:	93 30       	cpi	r25, 0x03	; 3
    18da:	91 f4       	brne	.+36     	; 0x1900 <check_Communication_Input_UART_3+0xa4>
		{
			INPUT_UART_3[cntr_UART_3] = 0;
    18dc:	e0 91 da 04 	lds	r30, 0x04DA	; 0x8004da <cntr_UART_3>
    18e0:	f0 e0       	ldi	r31, 0x00	; 0
    18e2:	e9 5f       	subi	r30, 0xF9	; 249
    18e4:	ff 4e       	sbci	r31, 0xEF	; 239
    18e6:	10 82       	st	Z, r1
			INPUT_UART_3[cntr_UART_3-1]=0;
    18e8:	df 01       	movw	r26, r30
    18ea:	11 97       	sbiw	r26, 0x01	; 1
    18ec:	1c 92       	st	X, r1
			INPUT_UART_3[cntr_UART_3-2]=0;
    18ee:	32 97       	sbiw	r30, 0x02	; 2
    18f0:	10 82       	st	Z, r1
			cntr_UART_3 = 0;
    18f2:	c0 93 da 04 	sts	0x04DA, r28	; 0x8004da <cntr_UART_3>
			cntr_End_UART_3 = 0;
    18f6:	c0 93 d9 04 	sts	0x04D9, r28	; 0x8004d9 <cntr_End_UART_3>
			ret = 1;
			toggle_LED();
    18fa:	50 de       	rcall	.-864    	; 0x159c <toggle_LED>
			INPUT_UART_3[cntr_UART_3] = 0;
			INPUT_UART_3[cntr_UART_3-1]=0;
			INPUT_UART_3[cntr_UART_3-2]=0;
			cntr_UART_3 = 0;
			cntr_End_UART_3 = 0;
			ret = 1;
    18fc:	0d 2f       	mov	r16, r29
    18fe:	0c c0       	rjmp	.+24     	; 0x1918 <check_Communication_Input_UART_3+0xbc>
			toggle_LED();
		}
		else
		{
			INPUT_UART_3[cntr_UART_3]=ch;
    1900:	90 91 da 04 	lds	r25, 0x04DA	; 0x8004da <cntr_UART_3>
    1904:	e9 2f       	mov	r30, r25
    1906:	f0 e0       	ldi	r31, 0x00	; 0
    1908:	e9 5f       	subi	r30, 0xF9	; 249
    190a:	ff 4e       	sbci	r31, 0xEF	; 239
    190c:	80 83       	st	Z, r24
			cntr_UART_3++;
    190e:	9f 5f       	subi	r25, 0xFF	; 255
    1910:	90 93 da 04 	sts	0x04DA, r25	; 0x8004da <cntr_UART_3>
			ret = 0;
			toggle_LED();
    1914:	43 de       	rcall	.-890    	; 0x159c <toggle_LED>

char check_Communication_Input_UART_3(void)
{
	char ret = 0;
	
	while(RB_length(&rb_rx_RFID)>0)
    1916:	0c 2f       	mov	r16, r28
    1918:	86 ef       	ldi	r24, 0xF6	; 246
    191a:	9d e0       	ldi	r25, 0x0D	; 13
    191c:	b7 db       	rcall	.-2194   	; 0x108c <RB_length>
    191e:	81 11       	cpse	r24, r1
    1920:	a6 cf       	rjmp	.-180    	; 0x186e <check_Communication_Input_UART_3+0x12>
    1922:	1c c0       	rjmp	.+56     	; 0x195c <check_Communication_Input_UART_3+0x100>
			}
			if (cntr_End_UART_3==1 && (INPUT_UART_3[cntr_UART_3-1] == 0xFF))
			{
				cntr_End_UART_3++;
			}
			if (cntr_End_UART_3==1 && (INPUT_UART_3[cntr_UART_3-3] != 0xFF))
    1924:	f9 01       	movw	r30, r18
    1926:	ec 5f       	subi	r30, 0xFC	; 252
    1928:	ff 4e       	sbci	r31, 0xEF	; 239
    192a:	90 81       	ld	r25, Z
    192c:	9f 3f       	cpi	r25, 0xFF	; 255
    192e:	09 f0       	breq	.+2      	; 0x1932 <check_Communication_Input_UART_3+0xd6>
    1930:	ba cf       	rjmp	.-140    	; 0x18a6 <check_Communication_Input_UART_3+0x4a>
    1932:	05 c0       	rjmp	.+10     	; 0x193e <check_Communication_Input_UART_3+0xe2>
			{
				cntr_End_UART_3=0;
			}
			if (cntr_End_UART_3==2 && (INPUT_UART_3[cntr_UART_3-1] == 0xFF) && (INPUT_UART_3[cntr_UART_3-2] == 0xFF))
    1934:	90 91 d9 04 	lds	r25, 0x04D9	; 0x8004d9 <cntr_End_UART_3>
    1938:	92 30       	cpi	r25, 0x02	; 2
    193a:	61 f6       	brne	.-104    	; 0x18d4 <check_Communication_Input_UART_3+0x78>
    193c:	b7 cf       	rjmp	.-146    	; 0x18ac <check_Communication_Input_UART_3+0x50>
			{
				cntr_End_UART_3++;
			}
			if (cntr_End_UART_3==2 && ((INPUT_UART_3[cntr_UART_3-1] != 0xFF) || (INPUT_UART_3[cntr_UART_3-2] != 0xFF)))
    193e:	90 91 d9 04 	lds	r25, 0x04D9	; 0x8004d9 <cntr_End_UART_3>
    1942:	92 30       	cpi	r25, 0x02	; 2
    1944:	39 f6       	brne	.-114    	; 0x18d4 <check_Communication_Input_UART_3+0x78>
    1946:	c3 cf       	rjmp	.-122    	; 0x18ce <check_Communication_Input_UART_3+0x72>
    1948:	e0 91 da 04 	lds	r30, 0x04DA	; 0x8004da <cntr_UART_3>
    194c:	f0 e0       	ldi	r31, 0x00	; 0
    194e:	eb 5f       	subi	r30, 0xFB	; 251
    1950:	ff 4e       	sbci	r31, 0xEF	; 239
    1952:	90 81       	ld	r25, Z
    1954:	9f 3f       	cpi	r25, 0xFF	; 255
    1956:	09 f0       	breq	.+2      	; 0x195a <check_Communication_Input_UART_3+0xfe>
    1958:	ba cf       	rjmp	.-140    	; 0x18ce <check_Communication_Input_UART_3+0x72>
    195a:	d2 cf       	rjmp	.-92     	; 0x1900 <check_Communication_Input_UART_3+0xa4>
			ret = 0;
			toggle_LED();
		}
	}
	return ret;
}
    195c:	80 2f       	mov	r24, r16
    195e:	df 91       	pop	r29
    1960:	cf 91       	pop	r28
    1962:	1f 91       	pop	r17
    1964:	0f 91       	pop	r16
    1966:	08 95       	ret

00001968 <proceed_Communication_Input_UART_3>:

void proceed_Communication_Input_UART_3(void)
{
	Uart_Transmit_IT_PC("Proceed UART 3: ");
    1968:	83 ec       	ldi	r24, 0xC3	; 195
    196a:	94 e0       	ldi	r25, 0x04	; 4
    196c:	93 dc       	rcall	.-1754   	; 0x1294 <Uart_Transmit_IT_PC>
	Uart_Transmit_IT_PC((char *)INPUT_UART_3);
    196e:	87 e0       	ldi	r24, 0x07	; 7
    1970:	90 e1       	ldi	r25, 0x10	; 16
    1972:	90 dc       	rcall	.-1760   	; 0x1294 <Uart_Transmit_IT_PC>
	Uart_Transmit_IT_PC("\r\n");
    1974:	89 e5       	ldi	r24, 0x59	; 89
    1976:	94 e0       	ldi	r25, 0x04	; 4
    1978:	8d dc       	rcall	.-1766   	; 0x1294 <Uart_Transmit_IT_PC>
	
	cocktail_check_command(INPUT_UART_3[0],INPUT_UART_3[1]);
    197a:	e7 e0       	ldi	r30, 0x07	; 7
    197c:	f0 e1       	ldi	r31, 0x10	; 16
    197e:	61 81       	ldd	r22, Z+1	; 0x01
    1980:	80 81       	ld	r24, Z
    1982:	0c 94 b3 00 	jmp	0x166	; 0x166 <cocktail_check_command>
    1986:	08 95       	ret

00001988 <check_Communication_Input_UART>:
}

void check_Communication_Input_UART(void)
{
	if (check_Communication_Input_UART_0())				// Check UART_0 (USB), ob vollstndige bertragung stattgefunden hat (Ende = "\r")
    1988:	19 de       	rcall	.-974    	; 0x15bc <check_Communication_Input_UART_0>
    198a:	81 11       	cpse	r24, r1
	{
		proceed_Communication_Input_UART_0();				// Vollstndige bertragung des USB verarbeiten
    198c:	46 de       	rcall	.-884    	; 0x161a <proceed_Communication_Input_UART_0>
	}
	if (check_Communication_Input_UART_1())				// Check UART_1 (Nextion-Display), ob vollstndige bertragung stattgefunden hat (Ende = "0xFF 0xFF 0xFF")
    198e:	62 de       	rcall	.-828    	; 0x1654 <check_Communication_Input_UART_1>
	{
		proceed_Communication_INPUT_UART_1();				// Vollstndige bertragung des Displays verarbeiten
    1990:	81 11       	cpse	r24, r1
	}
	if (check_Communication_Input_UART_2())				// Check UART_2 (ESP), ob vollstndige bertragung stattgefunden hat (Ende = "0xFF 0xFF 0xFF")
    1992:	d2 de       	rcall	.-604    	; 0x1738 <proceed_Communication_INPUT_UART_1>
    1994:	e1 de       	rcall	.-574    	; 0x1758 <check_Communication_Input_UART_2>
	{
		proceed_Communication_Input_UART_2();				// Vollstndige bertragung des ESP's verarbeiten
    1996:	81 11       	cpse	r24, r1
    1998:	51 df       	rcall	.-350    	; 0x183c <proceed_Communication_Input_UART_2>
	}
	if (check_Communication_Input_UART_3())				// Check UART_3 (RFID), ob vollstndige bertragung stattgefunden hat (Ende = "0xFF 0xFF 0xFF")
    199a:	60 df       	rcall	.-320    	; 0x185c <check_Communication_Input_UART_3>
    199c:	81 11       	cpse	r24, r1
    199e:	e4 cf       	rjmp	.-56     	; 0x1968 <proceed_Communication_Input_UART_3>
	{
		proceed_Communication_Input_UART_3();				// Vollstndige bertragung des ESP's verarbeiten
    19a0:	08 95       	ret

000019a2 <create_neue_zutat>:
    19a2:	ef 92       	push	r14
    19a4:	ff 92       	push	r15
	head_zut = insert_zutat_at_head(&head_zut, tmp);
 	}
}

zutat_t *create_neue_zutat(char * name)
{
    19a6:	0f 93       	push	r16
    19a8:	1f 93       	push	r17
    19aa:	cf 93       	push	r28
    19ac:	df 93       	push	r29
    19ae:	7c 01       	movw	r14, r24
	zutat_t *newZutat = calloc(1,sizeof(zutat_t));
    19b0:	66 e0       	ldi	r22, 0x06	; 6
    19b2:	70 e0       	ldi	r23, 0x00	; 0
    19b4:	81 e0       	ldi	r24, 0x01	; 1
    19b6:	90 e0       	ldi	r25, 0x00	; 0
    19b8:	ab d0       	rcall	.+342    	; 0x1b10 <calloc>
    19ba:	ec 01       	movw	r28, r24
 	size_t n1 = strlen((const char *)name)+1;
    19bc:	f7 01       	movw	r30, r14
    19be:	01 90       	ld	r0, Z+
    19c0:	00 20       	and	r0, r0
    19c2:	e9 f7       	brne	.-6      	; 0x19be <create_neue_zutat+0x1c>
    19c4:	31 97       	sbiw	r30, 0x01	; 1
    19c6:	8f 01       	movw	r16, r30
    19c8:	0e 19       	sub	r16, r14
    19ca:	1f 09       	sbc	r17, r15

 	newZutat->name = calloc(n1,sizeof(char));
    19cc:	61 e0       	ldi	r22, 0x01	; 1
    19ce:	70 e0       	ldi	r23, 0x00	; 0
    19d0:	c8 01       	movw	r24, r16
    19d2:	01 96       	adiw	r24, 0x01	; 1
    19d4:	9d d0       	rcall	.+314    	; 0x1b10 <calloc>
    19d6:	99 83       	std	Y+1, r25	; 0x01
    19d8:	88 83       	st	Y, r24
	 
	 newZutat->prev = NULL;
    19da:	1d 82       	std	Y+5, r1	; 0x05
    19dc:	1c 82       	std	Y+4, r1	; 0x04
	 newZutat->next = NULL;
    19de:	1b 82       	std	Y+3, r1	; 0x03
    19e0:	1a 82       	std	Y+2, r1	; 0x02
	 
	int i = 0;
 	for (i=0; i<(n1-1); i++)
    19e2:	01 15       	cp	r16, r1
    19e4:	11 05       	cpc	r17, r1
    19e6:	79 f0       	breq	.+30     	; 0x1a06 <create_neue_zutat+0x64>
    19e8:	d7 01       	movw	r26, r14
    19ea:	a8 01       	movw	r20, r16
    19ec:	20 e0       	ldi	r18, 0x00	; 0
    19ee:	30 e0       	ldi	r19, 0x00	; 0
 	{
 		*(char *)(newZutat->name + i) = *(char *)(name + i);
    19f0:	8d 91       	ld	r24, X+
    19f2:	e8 81       	ld	r30, Y
    19f4:	f9 81       	ldd	r31, Y+1	; 0x01
    19f6:	e2 0f       	add	r30, r18
    19f8:	f3 1f       	adc	r31, r19
    19fa:	80 83       	st	Z, r24
	 
	 newZutat->prev = NULL;
	 newZutat->next = NULL;
	 
	int i = 0;
 	for (i=0; i<(n1-1); i++)
    19fc:	2f 5f       	subi	r18, 0xFF	; 255
    19fe:	3f 4f       	sbci	r19, 0xFF	; 255
    1a00:	24 17       	cp	r18, r20
    1a02:	35 07       	cpc	r19, r21
    1a04:	a9 f7       	brne	.-22     	; 0x19f0 <create_neue_zutat+0x4e>
 	{
 		*(char *)(newZutat->name + i) = *(char *)(name + i);
 	}
	 	*(char *)(newZutat->name + (i+1)) = '\0';
    1a06:	88 81       	ld	r24, Y
    1a08:	99 81       	ldd	r25, Y+1	; 0x01
    1a0a:	fc 01       	movw	r30, r24
    1a0c:	e0 0f       	add	r30, r16
    1a0e:	f1 1f       	adc	r31, r17
    1a10:	11 82       	std	Z+1, r1	; 0x01


	return newZutat;
}
    1a12:	ce 01       	movw	r24, r28
    1a14:	df 91       	pop	r29
    1a16:	cf 91       	pop	r28
    1a18:	1f 91       	pop	r17
    1a1a:	0f 91       	pop	r16
    1a1c:	ff 90       	pop	r15
    1a1e:	ef 90       	pop	r14
    1a20:	08 95       	ret

00001a22 <insert_zutat_at_head>:

zutat_t *insert_zutat_at_head(zutat_t **head_zut, zutat_t *zutat_to_insert)
{
    1a22:	cf 93       	push	r28
    1a24:	df 93       	push	r29
    1a26:	dc 01       	movw	r26, r24
    1a28:	fb 01       	movw	r30, r22
	zutat_to_insert->next = (*head_zut);
    1a2a:	8d 91       	ld	r24, X+
    1a2c:	9c 91       	ld	r25, X
    1a2e:	11 97       	sbiw	r26, 0x01	; 1
    1a30:	93 83       	std	Z+3, r25	; 0x03
    1a32:	82 83       	std	Z+2, r24	; 0x02
	zutat_to_insert->prev = NULL;
    1a34:	15 82       	std	Z+5, r1	; 0x05
    1a36:	14 82       	std	Z+4, r1	; 0x04
	
	if((*head_zut) == NULL)
    1a38:	cd 91       	ld	r28, X+
    1a3a:	dc 91       	ld	r29, X
    1a3c:	11 97       	sbiw	r26, 0x01	; 1
    1a3e:	20 97       	sbiw	r28, 0x00	; 0
    1a40:	29 f4       	brne	.+10     	; 0x1a4c <insert_zutat_at_head+0x2a>
	{
		tail_zut = zutat_to_insert;
    1a42:	70 93 f9 0e 	sts	0x0EF9, r23	; 0x800ef9 <tail_zut+0x1>
    1a46:	60 93 f8 0e 	sts	0x0EF8, r22	; 0x800ef8 <tail_zut>
    1a4a:	08 c0       	rjmp	.+16     	; 0x1a5c <insert_zutat_at_head+0x3a>
	} else
	{
		(*head_zut)->prev = zutat_to_insert;
    1a4c:	7d 83       	std	Y+5, r23	; 0x05
    1a4e:	6c 83       	std	Y+4, r22	; 0x04
		zutat_to_insert->prev = tail_zut;
    1a50:	80 91 f8 0e 	lds	r24, 0x0EF8	; 0x800ef8 <tail_zut>
    1a54:	90 91 f9 0e 	lds	r25, 0x0EF9	; 0x800ef9 <tail_zut+0x1>
    1a58:	95 83       	std	Z+5, r25	; 0x05
    1a5a:	84 83       	std	Z+4, r24	; 0x04
	}
	*head_zut = zutat_to_insert;
    1a5c:	ed 93       	st	X+, r30
    1a5e:	fc 93       	st	X, r31
	tail_zut->next = *head_zut;
    1a60:	a0 91 f8 0e 	lds	r26, 0x0EF8	; 0x800ef8 <tail_zut>
    1a64:	b0 91 f9 0e 	lds	r27, 0x0EF9	; 0x800ef9 <tail_zut+0x1>
    1a68:	13 96       	adiw	r26, 0x03	; 3
    1a6a:	fc 93       	st	X, r31
    1a6c:	ee 93       	st	-X, r30
    1a6e:	12 97       	sbiw	r26, 0x02	; 2
	return zutat_to_insert;
}
    1a70:	cf 01       	movw	r24, r30
    1a72:	df 91       	pop	r29
    1a74:	cf 91       	pop	r28
    1a76:	08 95       	ret

00001a78 <zutaten_init>:

#include "Zutaten.h"


void zutaten_init(void)
{
    1a78:	ef 92       	push	r14
    1a7a:	ff 92       	push	r15
    1a7c:	0f 93       	push	r16
    1a7e:	1f 93       	push	r17
    1a80:	cf 93       	push	r28
    1a82:	df 93       	push	r29
    1a84:	cd b7       	in	r28, 0x3d	; 61
    1a86:	de b7       	in	r29, 0x3e	; 62
    1a88:	c0 5f       	subi	r28, 0xF0	; 240
    1a8a:	d1 09       	sbc	r29, r1
    1a8c:	0f b6       	in	r0, 0x3f	; 63
    1a8e:	f8 94       	cli
    1a90:	de bf       	out	0x3e, r29	; 62
    1a92:	0f be       	out	0x3f, r0	; 63
    1a94:	cd bf       	out	0x3d, r28	; 61
	address_zut  = (uint8_t *)0;
    1a96:	10 92 e8 06 	sts	0x06E8, r1	; 0x8006e8 <address_zut+0x1>
    1a9a:	10 92 e7 06 	sts	0x06E7, r1	; 0x8006e7 <address_zut>
// 		0,
// 		0,
// 		0
// 	};

	char zutaten[12][20] = {
    1a9e:	80 ef       	ldi	r24, 0xF0	; 240
    1aa0:	e8 ef       	ldi	r30, 0xF8	; 248
    1aa2:	f2 e0       	ldi	r31, 0x02	; 2
    1aa4:	de 01       	movw	r26, r28
    1aa6:	11 96       	adiw	r26, 0x01	; 1
    1aa8:	01 90       	ld	r0, Z+
    1aaa:	0d 92       	st	X+, r0
    1aac:	8a 95       	dec	r24
    1aae:	e1 f7       	brne	.-8      	; 0x1aa8 <zutaten_init+0x30>
		"Gin",
		"Triple Sec",
		"Whisky",
		"Wodka"
	};
	head_zut = NULL;
    1ab0:	10 92 ea 06 	sts	0x06EA, r1	; 0x8006ea <head_zut+0x1>
    1ab4:	10 92 e9 06 	sts	0x06E9, r1	; 0x8006e9 <head_zut>
    1ab8:	8e 01       	movw	r16, r28
    1aba:	0f 5f       	subi	r16, 0xFF	; 255
    1abc:	1f 4f       	sbci	r17, 0xFF	; 255
    1abe:	7e 01       	movw	r14, r28
    1ac0:	81 ef       	ldi	r24, 0xF1	; 241
    1ac2:	e8 0e       	add	r14, r24
    1ac4:	f1 1c       	adc	r15, r1
	zutat_t *tmp;
 	for ( int i = 0 ; i<12;i++){
	tmp = create_neue_zutat(zutaten[i]);
    1ac6:	c8 01       	movw	r24, r16
    1ac8:	6c df       	rcall	.-296    	; 0x19a2 <create_neue_zutat>
	head_zut = insert_zutat_at_head(&head_zut, tmp);
    1aca:	bc 01       	movw	r22, r24
    1acc:	89 ee       	ldi	r24, 0xE9	; 233
    1ace:	96 e0       	ldi	r25, 0x06	; 6
    1ad0:	a8 df       	rcall	.-176    	; 0x1a22 <insert_zutat_at_head>
    1ad2:	90 93 ea 06 	sts	0x06EA, r25	; 0x8006ea <head_zut+0x1>
    1ad6:	80 93 e9 06 	sts	0x06E9, r24	; 0x8006e9 <head_zut>
    1ada:	0c 5e       	subi	r16, 0xEC	; 236
    1adc:	1f 4f       	sbci	r17, 0xFF	; 255
		"Whisky",
		"Wodka"
	};
	head_zut = NULL;
	zutat_t *tmp;
 	for ( int i = 0 ; i<12;i++){
    1ade:	0e 15       	cp	r16, r14
    1ae0:	1f 05       	cpc	r17, r15
    1ae2:	89 f7       	brne	.-30     	; 0x1ac6 <zutaten_init+0x4e>
	tmp = create_neue_zutat(zutaten[i]);
	head_zut = insert_zutat_at_head(&head_zut, tmp);
 	}
}
    1ae4:	c0 51       	subi	r28, 0x10	; 16
    1ae6:	df 4f       	sbci	r29, 0xFF	; 255
    1ae8:	0f b6       	in	r0, 0x3f	; 63
    1aea:	f8 94       	cli
    1aec:	de bf       	out	0x3e, r29	; 62
    1aee:	0f be       	out	0x3f, r0	; 63
    1af0:	cd bf       	out	0x3d, r28	; 61
    1af2:	df 91       	pop	r29
    1af4:	cf 91       	pop	r28
    1af6:	1f 91       	pop	r17
    1af8:	0f 91       	pop	r16
    1afa:	ff 90       	pop	r15
    1afc:	ef 90       	pop	r14
    1afe:	08 95       	ret

00001b00 <__tablejump2__>:
    1b00:	ee 0f       	add	r30, r30
    1b02:	ff 1f       	adc	r31, r31
    1b04:	88 1f       	adc	r24, r24
    1b06:	8b bf       	out	0x3b, r24	; 59
    1b08:	07 90       	elpm	r0, Z+
    1b0a:	f6 91       	elpm	r31, Z
    1b0c:	e0 2d       	mov	r30, r0
    1b0e:	19 94       	eijmp

00001b10 <calloc>:
    1b10:	0f 93       	push	r16
    1b12:	1f 93       	push	r17
    1b14:	cf 93       	push	r28
    1b16:	df 93       	push	r29
    1b18:	86 9f       	mul	r24, r22
    1b1a:	80 01       	movw	r16, r0
    1b1c:	87 9f       	mul	r24, r23
    1b1e:	10 0d       	add	r17, r0
    1b20:	96 9f       	mul	r25, r22
    1b22:	10 0d       	add	r17, r0
    1b24:	11 24       	eor	r1, r1
    1b26:	c8 01       	movw	r24, r16
    1b28:	0d d0       	rcall	.+26     	; 0x1b44 <malloc>
    1b2a:	ec 01       	movw	r28, r24
    1b2c:	00 97       	sbiw	r24, 0x00	; 0
    1b2e:	21 f0       	breq	.+8      	; 0x1b38 <calloc+0x28>
    1b30:	a8 01       	movw	r20, r16
    1b32:	60 e0       	ldi	r22, 0x00	; 0
    1b34:	70 e0       	ldi	r23, 0x00	; 0
    1b36:	44 d1       	rcall	.+648    	; 0x1dc0 <memset>
    1b38:	ce 01       	movw	r24, r28
    1b3a:	df 91       	pop	r29
    1b3c:	cf 91       	pop	r28
    1b3e:	1f 91       	pop	r17
    1b40:	0f 91       	pop	r16
    1b42:	08 95       	ret

00001b44 <malloc>:
    1b44:	0f 93       	push	r16
    1b46:	1f 93       	push	r17
    1b48:	cf 93       	push	r28
    1b4a:	df 93       	push	r29
    1b4c:	82 30       	cpi	r24, 0x02	; 2
    1b4e:	91 05       	cpc	r25, r1
    1b50:	10 f4       	brcc	.+4      	; 0x1b56 <malloc+0x12>
    1b52:	82 e0       	ldi	r24, 0x02	; 2
    1b54:	90 e0       	ldi	r25, 0x00	; 0
    1b56:	e0 91 09 15 	lds	r30, 0x1509	; 0x801509 <__flp>
    1b5a:	f0 91 0a 15 	lds	r31, 0x150A	; 0x80150a <__flp+0x1>
    1b5e:	20 e0       	ldi	r18, 0x00	; 0
    1b60:	30 e0       	ldi	r19, 0x00	; 0
    1b62:	a0 e0       	ldi	r26, 0x00	; 0
    1b64:	b0 e0       	ldi	r27, 0x00	; 0
    1b66:	30 97       	sbiw	r30, 0x00	; 0
    1b68:	19 f1       	breq	.+70     	; 0x1bb0 <malloc+0x6c>
    1b6a:	40 81       	ld	r20, Z
    1b6c:	51 81       	ldd	r21, Z+1	; 0x01
    1b6e:	02 81       	ldd	r16, Z+2	; 0x02
    1b70:	13 81       	ldd	r17, Z+3	; 0x03
    1b72:	48 17       	cp	r20, r24
    1b74:	59 07       	cpc	r21, r25
    1b76:	c8 f0       	brcs	.+50     	; 0x1baa <malloc+0x66>
    1b78:	84 17       	cp	r24, r20
    1b7a:	95 07       	cpc	r25, r21
    1b7c:	69 f4       	brne	.+26     	; 0x1b98 <malloc+0x54>
    1b7e:	10 97       	sbiw	r26, 0x00	; 0
    1b80:	31 f0       	breq	.+12     	; 0x1b8e <malloc+0x4a>
    1b82:	12 96       	adiw	r26, 0x02	; 2
    1b84:	0c 93       	st	X, r16
    1b86:	12 97       	sbiw	r26, 0x02	; 2
    1b88:	13 96       	adiw	r26, 0x03	; 3
    1b8a:	1c 93       	st	X, r17
    1b8c:	27 c0       	rjmp	.+78     	; 0x1bdc <malloc+0x98>
    1b8e:	00 93 09 15 	sts	0x1509, r16	; 0x801509 <__flp>
    1b92:	10 93 0a 15 	sts	0x150A, r17	; 0x80150a <__flp+0x1>
    1b96:	22 c0       	rjmp	.+68     	; 0x1bdc <malloc+0x98>
    1b98:	21 15       	cp	r18, r1
    1b9a:	31 05       	cpc	r19, r1
    1b9c:	19 f0       	breq	.+6      	; 0x1ba4 <malloc+0x60>
    1b9e:	42 17       	cp	r20, r18
    1ba0:	53 07       	cpc	r21, r19
    1ba2:	18 f4       	brcc	.+6      	; 0x1baa <malloc+0x66>
    1ba4:	9a 01       	movw	r18, r20
    1ba6:	bd 01       	movw	r22, r26
    1ba8:	ef 01       	movw	r28, r30
    1baa:	df 01       	movw	r26, r30
    1bac:	f8 01       	movw	r30, r16
    1bae:	db cf       	rjmp	.-74     	; 0x1b66 <malloc+0x22>
    1bb0:	21 15       	cp	r18, r1
    1bb2:	31 05       	cpc	r19, r1
    1bb4:	f9 f0       	breq	.+62     	; 0x1bf4 <malloc+0xb0>
    1bb6:	28 1b       	sub	r18, r24
    1bb8:	39 0b       	sbc	r19, r25
    1bba:	24 30       	cpi	r18, 0x04	; 4
    1bbc:	31 05       	cpc	r19, r1
    1bbe:	80 f4       	brcc	.+32     	; 0x1be0 <malloc+0x9c>
    1bc0:	8a 81       	ldd	r24, Y+2	; 0x02
    1bc2:	9b 81       	ldd	r25, Y+3	; 0x03
    1bc4:	61 15       	cp	r22, r1
    1bc6:	71 05       	cpc	r23, r1
    1bc8:	21 f0       	breq	.+8      	; 0x1bd2 <malloc+0x8e>
    1bca:	fb 01       	movw	r30, r22
    1bcc:	93 83       	std	Z+3, r25	; 0x03
    1bce:	82 83       	std	Z+2, r24	; 0x02
    1bd0:	04 c0       	rjmp	.+8      	; 0x1bda <malloc+0x96>
    1bd2:	90 93 0a 15 	sts	0x150A, r25	; 0x80150a <__flp+0x1>
    1bd6:	80 93 09 15 	sts	0x1509, r24	; 0x801509 <__flp>
    1bda:	fe 01       	movw	r30, r28
    1bdc:	32 96       	adiw	r30, 0x02	; 2
    1bde:	44 c0       	rjmp	.+136    	; 0x1c68 <malloc+0x124>
    1be0:	fe 01       	movw	r30, r28
    1be2:	e2 0f       	add	r30, r18
    1be4:	f3 1f       	adc	r31, r19
    1be6:	81 93       	st	Z+, r24
    1be8:	91 93       	st	Z+, r25
    1bea:	22 50       	subi	r18, 0x02	; 2
    1bec:	31 09       	sbc	r19, r1
    1bee:	39 83       	std	Y+1, r19	; 0x01
    1bf0:	28 83       	st	Y, r18
    1bf2:	3a c0       	rjmp	.+116    	; 0x1c68 <malloc+0x124>
    1bf4:	20 91 07 15 	lds	r18, 0x1507	; 0x801507 <__brkval>
    1bf8:	30 91 08 15 	lds	r19, 0x1508	; 0x801508 <__brkval+0x1>
    1bfc:	23 2b       	or	r18, r19
    1bfe:	41 f4       	brne	.+16     	; 0x1c10 <malloc+0xcc>
    1c00:	20 91 02 02 	lds	r18, 0x0202	; 0x800202 <__malloc_heap_start>
    1c04:	30 91 03 02 	lds	r19, 0x0203	; 0x800203 <__malloc_heap_start+0x1>
    1c08:	30 93 08 15 	sts	0x1508, r19	; 0x801508 <__brkval+0x1>
    1c0c:	20 93 07 15 	sts	0x1507, r18	; 0x801507 <__brkval>
    1c10:	20 91 00 02 	lds	r18, 0x0200	; 0x800200 <__DATA_REGION_ORIGIN__>
    1c14:	30 91 01 02 	lds	r19, 0x0201	; 0x800201 <__DATA_REGION_ORIGIN__+0x1>
    1c18:	21 15       	cp	r18, r1
    1c1a:	31 05       	cpc	r19, r1
    1c1c:	41 f4       	brne	.+16     	; 0x1c2e <malloc+0xea>
    1c1e:	2d b7       	in	r18, 0x3d	; 61
    1c20:	3e b7       	in	r19, 0x3e	; 62
    1c22:	40 91 04 02 	lds	r20, 0x0204	; 0x800204 <__malloc_margin>
    1c26:	50 91 05 02 	lds	r21, 0x0205	; 0x800205 <__malloc_margin+0x1>
    1c2a:	24 1b       	sub	r18, r20
    1c2c:	35 0b       	sbc	r19, r21
    1c2e:	e0 91 07 15 	lds	r30, 0x1507	; 0x801507 <__brkval>
    1c32:	f0 91 08 15 	lds	r31, 0x1508	; 0x801508 <__brkval+0x1>
    1c36:	e2 17       	cp	r30, r18
    1c38:	f3 07       	cpc	r31, r19
    1c3a:	a0 f4       	brcc	.+40     	; 0x1c64 <malloc+0x120>
    1c3c:	2e 1b       	sub	r18, r30
    1c3e:	3f 0b       	sbc	r19, r31
    1c40:	28 17       	cp	r18, r24
    1c42:	39 07       	cpc	r19, r25
    1c44:	78 f0       	brcs	.+30     	; 0x1c64 <malloc+0x120>
    1c46:	ac 01       	movw	r20, r24
    1c48:	4e 5f       	subi	r20, 0xFE	; 254
    1c4a:	5f 4f       	sbci	r21, 0xFF	; 255
    1c4c:	24 17       	cp	r18, r20
    1c4e:	35 07       	cpc	r19, r21
    1c50:	48 f0       	brcs	.+18     	; 0x1c64 <malloc+0x120>
    1c52:	4e 0f       	add	r20, r30
    1c54:	5f 1f       	adc	r21, r31
    1c56:	50 93 08 15 	sts	0x1508, r21	; 0x801508 <__brkval+0x1>
    1c5a:	40 93 07 15 	sts	0x1507, r20	; 0x801507 <__brkval>
    1c5e:	81 93       	st	Z+, r24
    1c60:	91 93       	st	Z+, r25
    1c62:	02 c0       	rjmp	.+4      	; 0x1c68 <malloc+0x124>
    1c64:	e0 e0       	ldi	r30, 0x00	; 0
    1c66:	f0 e0       	ldi	r31, 0x00	; 0
    1c68:	cf 01       	movw	r24, r30
    1c6a:	df 91       	pop	r29
    1c6c:	cf 91       	pop	r28
    1c6e:	1f 91       	pop	r17
    1c70:	0f 91       	pop	r16
    1c72:	08 95       	ret

00001c74 <free>:
    1c74:	cf 93       	push	r28
    1c76:	df 93       	push	r29
    1c78:	00 97       	sbiw	r24, 0x00	; 0
    1c7a:	09 f4       	brne	.+2      	; 0x1c7e <free+0xa>
    1c7c:	81 c0       	rjmp	.+258    	; 0x1d80 <free+0x10c>
    1c7e:	fc 01       	movw	r30, r24
    1c80:	32 97       	sbiw	r30, 0x02	; 2
    1c82:	13 82       	std	Z+3, r1	; 0x03
    1c84:	12 82       	std	Z+2, r1	; 0x02
    1c86:	a0 91 09 15 	lds	r26, 0x1509	; 0x801509 <__flp>
    1c8a:	b0 91 0a 15 	lds	r27, 0x150A	; 0x80150a <__flp+0x1>
    1c8e:	10 97       	sbiw	r26, 0x00	; 0
    1c90:	81 f4       	brne	.+32     	; 0x1cb2 <free+0x3e>
    1c92:	20 81       	ld	r18, Z
    1c94:	31 81       	ldd	r19, Z+1	; 0x01
    1c96:	82 0f       	add	r24, r18
    1c98:	93 1f       	adc	r25, r19
    1c9a:	20 91 07 15 	lds	r18, 0x1507	; 0x801507 <__brkval>
    1c9e:	30 91 08 15 	lds	r19, 0x1508	; 0x801508 <__brkval+0x1>
    1ca2:	28 17       	cp	r18, r24
    1ca4:	39 07       	cpc	r19, r25
    1ca6:	51 f5       	brne	.+84     	; 0x1cfc <free+0x88>
    1ca8:	f0 93 08 15 	sts	0x1508, r31	; 0x801508 <__brkval+0x1>
    1cac:	e0 93 07 15 	sts	0x1507, r30	; 0x801507 <__brkval>
    1cb0:	67 c0       	rjmp	.+206    	; 0x1d80 <free+0x10c>
    1cb2:	ed 01       	movw	r28, r26
    1cb4:	20 e0       	ldi	r18, 0x00	; 0
    1cb6:	30 e0       	ldi	r19, 0x00	; 0
    1cb8:	ce 17       	cp	r28, r30
    1cba:	df 07       	cpc	r29, r31
    1cbc:	40 f4       	brcc	.+16     	; 0x1cce <free+0x5a>
    1cbe:	4a 81       	ldd	r20, Y+2	; 0x02
    1cc0:	5b 81       	ldd	r21, Y+3	; 0x03
    1cc2:	9e 01       	movw	r18, r28
    1cc4:	41 15       	cp	r20, r1
    1cc6:	51 05       	cpc	r21, r1
    1cc8:	f1 f0       	breq	.+60     	; 0x1d06 <free+0x92>
    1cca:	ea 01       	movw	r28, r20
    1ccc:	f5 cf       	rjmp	.-22     	; 0x1cb8 <free+0x44>
    1cce:	d3 83       	std	Z+3, r29	; 0x03
    1cd0:	c2 83       	std	Z+2, r28	; 0x02
    1cd2:	40 81       	ld	r20, Z
    1cd4:	51 81       	ldd	r21, Z+1	; 0x01
    1cd6:	84 0f       	add	r24, r20
    1cd8:	95 1f       	adc	r25, r21
    1cda:	c8 17       	cp	r28, r24
    1cdc:	d9 07       	cpc	r29, r25
    1cde:	59 f4       	brne	.+22     	; 0x1cf6 <free+0x82>
    1ce0:	88 81       	ld	r24, Y
    1ce2:	99 81       	ldd	r25, Y+1	; 0x01
    1ce4:	84 0f       	add	r24, r20
    1ce6:	95 1f       	adc	r25, r21
    1ce8:	02 96       	adiw	r24, 0x02	; 2
    1cea:	91 83       	std	Z+1, r25	; 0x01
    1cec:	80 83       	st	Z, r24
    1cee:	8a 81       	ldd	r24, Y+2	; 0x02
    1cf0:	9b 81       	ldd	r25, Y+3	; 0x03
    1cf2:	93 83       	std	Z+3, r25	; 0x03
    1cf4:	82 83       	std	Z+2, r24	; 0x02
    1cf6:	21 15       	cp	r18, r1
    1cf8:	31 05       	cpc	r19, r1
    1cfa:	29 f4       	brne	.+10     	; 0x1d06 <free+0x92>
    1cfc:	f0 93 0a 15 	sts	0x150A, r31	; 0x80150a <__flp+0x1>
    1d00:	e0 93 09 15 	sts	0x1509, r30	; 0x801509 <__flp>
    1d04:	3d c0       	rjmp	.+122    	; 0x1d80 <free+0x10c>
    1d06:	e9 01       	movw	r28, r18
    1d08:	fb 83       	std	Y+3, r31	; 0x03
    1d0a:	ea 83       	std	Y+2, r30	; 0x02
    1d0c:	49 91       	ld	r20, Y+
    1d0e:	59 91       	ld	r21, Y+
    1d10:	c4 0f       	add	r28, r20
    1d12:	d5 1f       	adc	r29, r21
    1d14:	ec 17       	cp	r30, r28
    1d16:	fd 07       	cpc	r31, r29
    1d18:	61 f4       	brne	.+24     	; 0x1d32 <free+0xbe>
    1d1a:	80 81       	ld	r24, Z
    1d1c:	91 81       	ldd	r25, Z+1	; 0x01
    1d1e:	84 0f       	add	r24, r20
    1d20:	95 1f       	adc	r25, r21
    1d22:	02 96       	adiw	r24, 0x02	; 2
    1d24:	e9 01       	movw	r28, r18
    1d26:	99 83       	std	Y+1, r25	; 0x01
    1d28:	88 83       	st	Y, r24
    1d2a:	82 81       	ldd	r24, Z+2	; 0x02
    1d2c:	93 81       	ldd	r25, Z+3	; 0x03
    1d2e:	9b 83       	std	Y+3, r25	; 0x03
    1d30:	8a 83       	std	Y+2, r24	; 0x02
    1d32:	e0 e0       	ldi	r30, 0x00	; 0
    1d34:	f0 e0       	ldi	r31, 0x00	; 0
    1d36:	12 96       	adiw	r26, 0x02	; 2
    1d38:	8d 91       	ld	r24, X+
    1d3a:	9c 91       	ld	r25, X
    1d3c:	13 97       	sbiw	r26, 0x03	; 3
    1d3e:	00 97       	sbiw	r24, 0x00	; 0
    1d40:	19 f0       	breq	.+6      	; 0x1d48 <free+0xd4>
    1d42:	fd 01       	movw	r30, r26
    1d44:	dc 01       	movw	r26, r24
    1d46:	f7 cf       	rjmp	.-18     	; 0x1d36 <free+0xc2>
    1d48:	8d 91       	ld	r24, X+
    1d4a:	9c 91       	ld	r25, X
    1d4c:	11 97       	sbiw	r26, 0x01	; 1
    1d4e:	9d 01       	movw	r18, r26
    1d50:	2e 5f       	subi	r18, 0xFE	; 254
    1d52:	3f 4f       	sbci	r19, 0xFF	; 255
    1d54:	82 0f       	add	r24, r18
    1d56:	93 1f       	adc	r25, r19
    1d58:	20 91 07 15 	lds	r18, 0x1507	; 0x801507 <__brkval>
    1d5c:	30 91 08 15 	lds	r19, 0x1508	; 0x801508 <__brkval+0x1>
    1d60:	28 17       	cp	r18, r24
    1d62:	39 07       	cpc	r19, r25
    1d64:	69 f4       	brne	.+26     	; 0x1d80 <free+0x10c>
    1d66:	30 97       	sbiw	r30, 0x00	; 0
    1d68:	29 f4       	brne	.+10     	; 0x1d74 <free+0x100>
    1d6a:	10 92 0a 15 	sts	0x150A, r1	; 0x80150a <__flp+0x1>
    1d6e:	10 92 09 15 	sts	0x1509, r1	; 0x801509 <__flp>
    1d72:	02 c0       	rjmp	.+4      	; 0x1d78 <free+0x104>
    1d74:	13 82       	std	Z+3, r1	; 0x03
    1d76:	12 82       	std	Z+2, r1	; 0x02
    1d78:	b0 93 08 15 	sts	0x1508, r27	; 0x801508 <__brkval+0x1>
    1d7c:	a0 93 07 15 	sts	0x1507, r26	; 0x801507 <__brkval>
    1d80:	df 91       	pop	r29
    1d82:	cf 91       	pop	r28
    1d84:	08 95       	ret

00001d86 <atoi>:
    1d86:	fc 01       	movw	r30, r24
    1d88:	88 27       	eor	r24, r24
    1d8a:	99 27       	eor	r25, r25
    1d8c:	e8 94       	clt
    1d8e:	21 91       	ld	r18, Z+
    1d90:	20 32       	cpi	r18, 0x20	; 32
    1d92:	e9 f3       	breq	.-6      	; 0x1d8e <atoi+0x8>
    1d94:	29 30       	cpi	r18, 0x09	; 9
    1d96:	10 f0       	brcs	.+4      	; 0x1d9c <atoi+0x16>
    1d98:	2e 30       	cpi	r18, 0x0E	; 14
    1d9a:	c8 f3       	brcs	.-14     	; 0x1d8e <atoi+0x8>
    1d9c:	2b 32       	cpi	r18, 0x2B	; 43
    1d9e:	39 f0       	breq	.+14     	; 0x1dae <atoi+0x28>
    1da0:	2d 32       	cpi	r18, 0x2D	; 45
    1da2:	31 f4       	brne	.+12     	; 0x1db0 <atoi+0x2a>
    1da4:	68 94       	set
    1da6:	03 c0       	rjmp	.+6      	; 0x1dae <atoi+0x28>
    1da8:	27 d0       	rcall	.+78     	; 0x1df8 <__mulhi_const_10>
    1daa:	82 0f       	add	r24, r18
    1dac:	91 1d       	adc	r25, r1
    1dae:	21 91       	ld	r18, Z+
    1db0:	20 53       	subi	r18, 0x30	; 48
    1db2:	2a 30       	cpi	r18, 0x0A	; 10
    1db4:	c8 f3       	brcs	.-14     	; 0x1da8 <atoi+0x22>
    1db6:	1e f4       	brtc	.+6      	; 0x1dbe <atoi+0x38>
    1db8:	90 95       	com	r25
    1dba:	81 95       	neg	r24
    1dbc:	9f 4f       	sbci	r25, 0xFF	; 255
    1dbe:	08 95       	ret

00001dc0 <memset>:
    1dc0:	dc 01       	movw	r26, r24
    1dc2:	01 c0       	rjmp	.+2      	; 0x1dc6 <memset+0x6>
    1dc4:	6d 93       	st	X+, r22
    1dc6:	41 50       	subi	r20, 0x01	; 1
    1dc8:	50 40       	sbci	r21, 0x00	; 0
    1dca:	e0 f7       	brcc	.-8      	; 0x1dc4 <memset+0x4>
    1dcc:	08 95       	ret

00001dce <strcat>:
    1dce:	fb 01       	movw	r30, r22
    1dd0:	dc 01       	movw	r26, r24
    1dd2:	0d 90       	ld	r0, X+
    1dd4:	00 20       	and	r0, r0
    1dd6:	e9 f7       	brne	.-6      	; 0x1dd2 <strcat+0x4>
    1dd8:	11 97       	sbiw	r26, 0x01	; 1
    1dda:	01 90       	ld	r0, Z+
    1ddc:	0d 92       	st	X+, r0
    1dde:	00 20       	and	r0, r0
    1de0:	e1 f7       	brne	.-8      	; 0x1dda <strcat+0xc>
    1de2:	08 95       	ret

00001de4 <__itoa_ncheck>:
    1de4:	bb 27       	eor	r27, r27
    1de6:	4a 30       	cpi	r20, 0x0A	; 10
    1de8:	31 f4       	brne	.+12     	; 0x1df6 <__itoa_ncheck+0x12>
    1dea:	99 23       	and	r25, r25
    1dec:	22 f4       	brpl	.+8      	; 0x1df6 <__itoa_ncheck+0x12>
    1dee:	bd e2       	ldi	r27, 0x2D	; 45
    1df0:	90 95       	com	r25
    1df2:	81 95       	neg	r24
    1df4:	9f 4f       	sbci	r25, 0xFF	; 255
    1df6:	09 c0       	rjmp	.+18     	; 0x1e0a <__utoa_common>

00001df8 <__mulhi_const_10>:
    1df8:	7a e0       	ldi	r23, 0x0A	; 10
    1dfa:	97 9f       	mul	r25, r23
    1dfc:	90 2d       	mov	r25, r0
    1dfe:	87 9f       	mul	r24, r23
    1e00:	80 2d       	mov	r24, r0
    1e02:	91 0d       	add	r25, r1
    1e04:	11 24       	eor	r1, r1
    1e06:	08 95       	ret

00001e08 <__utoa_ncheck>:
    1e08:	bb 27       	eor	r27, r27

00001e0a <__utoa_common>:
    1e0a:	fb 01       	movw	r30, r22
    1e0c:	55 27       	eor	r21, r21
    1e0e:	aa 27       	eor	r26, r26
    1e10:	88 0f       	add	r24, r24
    1e12:	99 1f       	adc	r25, r25
    1e14:	aa 1f       	adc	r26, r26
    1e16:	a4 17       	cp	r26, r20
    1e18:	10 f0       	brcs	.+4      	; 0x1e1e <__utoa_common+0x14>
    1e1a:	a4 1b       	sub	r26, r20
    1e1c:	83 95       	inc	r24
    1e1e:	50 51       	subi	r21, 0x10	; 16
    1e20:	b9 f7       	brne	.-18     	; 0x1e10 <__utoa_common+0x6>
    1e22:	a0 5d       	subi	r26, 0xD0	; 208
    1e24:	aa 33       	cpi	r26, 0x3A	; 58
    1e26:	08 f0       	brcs	.+2      	; 0x1e2a <__utoa_common+0x20>
    1e28:	a9 5d       	subi	r26, 0xD9	; 217
    1e2a:	a1 93       	st	Z+, r26
    1e2c:	00 97       	sbiw	r24, 0x00	; 0
    1e2e:	79 f7       	brne	.-34     	; 0x1e0e <__utoa_common+0x4>
    1e30:	b1 11       	cpse	r27, r1
    1e32:	b1 93       	st	Z+, r27
    1e34:	11 92       	st	Z+, r1
    1e36:	cb 01       	movw	r24, r22
    1e38:	00 c0       	rjmp	.+0      	; 0x1e3a <strrev>

00001e3a <strrev>:
    1e3a:	dc 01       	movw	r26, r24
    1e3c:	fc 01       	movw	r30, r24
    1e3e:	67 2f       	mov	r22, r23
    1e40:	71 91       	ld	r23, Z+
    1e42:	77 23       	and	r23, r23
    1e44:	e1 f7       	brne	.-8      	; 0x1e3e <strrev+0x4>
    1e46:	32 97       	sbiw	r30, 0x02	; 2
    1e48:	04 c0       	rjmp	.+8      	; 0x1e52 <strrev+0x18>
    1e4a:	7c 91       	ld	r23, X
    1e4c:	6d 93       	st	X+, r22
    1e4e:	70 83       	st	Z, r23
    1e50:	62 91       	ld	r22, -Z
    1e52:	ae 17       	cp	r26, r30
    1e54:	bf 07       	cpc	r27, r31
    1e56:	c8 f3       	brcs	.-14     	; 0x1e4a <strrev+0x10>
    1e58:	08 95       	ret

00001e5a <_exit>:
    1e5a:	f8 94       	cli

00001e5c <__stop_program>:
    1e5c:	ff cf       	rjmp	.-2      	; 0x1e5c <__stop_program>
